(dp1
S'output'
p2
S"<type 'exceptions.TypeError'> __call__() takes at least 2 arguments (1 given)"
p3
sS'layer'
p4
S'D:\\Dise\xf1o Web\\Proyectos\\Parleyweb\\web2py\\applications\\musica\\controllers/default.py'
p5
sS'code'
p6
S'# -*- coding: utf-8 -*-\n# this file is released under public domain and you can use without limitations\n\n#########################################################################\n## This is a samples controller\n## - index is the default action of any application\n## - user is required for authentication and authorization\n## - download is for downloading files uploaded in the db (does streaming)\n## - call exposes all registered services (none by default)\n#########################################################################\n\ndef index():\n    """\n    example action using the internationalization operator T and flash\n    rendered by views/default/index.html or views/generic.html\n    """\n    response.flash = "Welcome to web2py!"\n    return dict(message=T())\n\ndef otro():\n    return dict()\n    \ndef user():\n    """\n    exposes:\n    http://..../[app]/default/user/login\n    http://..../[app]/default/user/logout\n    http://..../[app]/default/user/register\n    http://..../[app]/default/user/profile\n    http://..../[app]/default/user/retrieve_password\n    http://..../[app]/default/user/change_password\n    use @auth.requires_login()\n        @auth.requires_membership(\'group name\')\n        @auth.requires_permission(\'read\',\'table name\',record_id)\n    to decorate functions that need access control\n    """\n    return dict(form=auth())\n\n\ndef download():\n    """\n    allows downloading of uploaded files\n    http://..../[app]/default/download/[filename]\n    """\n    return response.download(request,db)\n\n\ndef call():\n    """\n    exposes services. for example:\n    http://..../[app]/default/call/jsonrpc\n    decorate with @services.jsonrpc the functions to expose\n    supports xml, json, xmlrpc, jsonrpc, amfrpc, rss, csv\n    """\n    return service()\n\n\n@auth.requires_signature()\ndef data():\n    """\n    http://..../[app]/default/data/tables\n    http://..../[app]/default/data/create/[table]\n    http://..../[app]/default/data/read/[table]/[id]\n    http://..../[app]/default/data/update/[table]/[id]\n    http://..../[app]/default/data/delete/[table]/[id]\n    http://..../[app]/default/data/select/[table]\n    http://..../[app]/default/data/search/[table]\n    but URLs must be signed, i.e. linked with\n      A(\'table\',_href=URL(\'data/tables\',user_signature=True))\n    or with the signed load operator\n      LOAD(\'default\',\'data.load\',args=\'tables\',ajax=True,user_signature=True)\n    """\n    return dict(form=crud())\n\n\nresponse._vars=response._caller(index)\n'
p7
sS'snapshot'
p8
(dp9
S'exception'
p10
(dp11
S'__hash__'
p12
S"<method-wrapper '__hash__' of exceptions.TypeError object at 0x0673C030>"
p13
sS'__setattr__'
p14
S"<method-wrapper '__setattr__' of exceptions.TypeError object at 0x0673C030>"
p15
sS'__reduce_ex__'
p16
S'<built-in method __reduce_ex__ of exceptions.TypeError object at 0x0673C030>'
p17
sS'__getslice__'
p18
S"<method-wrapper '__getslice__' of exceptions.TypeError object at 0x0673C030>"
p19
sS'__getitem__'
p20
S"<method-wrapper '__getitem__' of exceptions.TypeError object at 0x0673C030>"
p21
sS'__setstate__'
p22
S'<built-in method __setstate__ of exceptions.TypeError object at 0x0673C030>'
p23
sS'__reduce__'
p24
S'<built-in method __reduce__ of exceptions.TypeError object at 0x0673C030>'
p25
sS'__str__'
p26
S"<method-wrapper '__str__' of exceptions.TypeError object at 0x0673C030>"
p27
sS'args'
p28
S"('__call__() takes at least 2 arguments (1 given)',)"
p29
sS'__getattribute__'
p30
S"<method-wrapper '__getattribute__' of exceptions.TypeError object at 0x0673C030>"
p31
sS'__class__'
p32
S"<type 'exceptions.TypeError'>"
p33
sS'__delattr__'
p34
S"<method-wrapper '__delattr__' of exceptions.TypeError object at 0x0673C030>"
p35
sS'__repr__'
p36
S"<method-wrapper '__repr__' of exceptions.TypeError object at 0x0673C030>"
p37
sS'__dict__'
p38
S'{}'
p39
sS'__doc__'
p40
S"'Inappropriate argument type.'"
p41
sS'__init__'
p42
S"<method-wrapper '__init__' of exceptions.TypeError object at 0x0673C030>"
p43
sS'__new__'
p44
S'<built-in method __new__ of type object at 0x1E1CCD78>'
p45
ssS'evalue'
p46
S'__call__() takes at least 2 arguments (1 given)'
p47
sS'request'
p48
ccopy_reg
_reconstructor
p49
(cgluon.html
BEAUTIFY
p50
c__builtin__
object
p51
NtRp52
(dp53
S'attributes'
p54
(dp55
sS'components'
p56
(lp57
g49
(cgluon.html
TABLE
p58
g51
NtRp59
(dp60
g54
(dp61
S'level'
p62
I5
ssS'parent'
p63
Nsg56
(lp64
g49
(cgluon.html
TR
p65
g51
NtRp66
(dp67
g54
(dp68
sg63
g59
sg56
(lp69
g49
(cgluon.html
TD
p70
g51
NtRp71
(dp72
g54
(dp73
S'_style'
p74
S'font-weight:bold;vertical-align:top'
p75
ssg63
g66
sg56
(lp76
S'ajax'
p77
asbag49
(g70
g51
NtRp78
(dp79
g54
(dp80
S'_valign'
p81
S'top'
p82
ssg63
g66
sg56
(lp83
S':'
asbag49
(g70
g51
NtRp84
(dp85
g54
(dp86
sg63
g66
sg56
(lp87
g49
(g50
g51
NtRp88
(dp89
g54
(dp90
g62
I5
ssg63
g84
sg56
(lp91
S'False'
p92
asbasbasbag49
(g65
g51
NtRp93
(dp94
g54
(dp95
sg63
g59
sg56
(lp96
g49
(g70
g51
NtRp97
(dp98
g54
(dp99
g74
g75
ssg63
g93
sg56
(lp100
S'application'
p101
asbag49
(g70
g51
NtRp102
(dp103
g54
(dp104
g81
g82
ssg63
g93
sg56
(lp105
S':'
asbag49
(g70
g51
NtRp106
(dp107
g54
(dp108
sg63
g93
sg56
(lp109
g49
(g50
g51
NtRp110
(dp111
g54
(dp112
g62
I5
ssg63
g106
sg56
(lp113
S'musica'
p114
asbasbasbag49
(g65
g51
NtRp115
(dp116
g54
(dp117
sg63
g59
sg56
(lp118
g49
(g70
g51
NtRp119
(dp120
g54
(dp121
g74
g75
ssg63
g115
sg56
(lp122
g28
asbag49
(g70
g51
NtRp123
(dp124
g54
(dp125
g81
g82
ssg63
g115
sg56
(lp126
S':'
asbag49
(g70
g51
NtRp127
(dp128
g54
(dp129
sg63
g115
sg56
(lp130
g49
(g50
g51
NtRp131
(dp132
g54
(dp133
g62
I5
ssg63
g127
sg56
(lp134
g49
(g58
g51
NtRp135
(dp136
g54
(dp137
g62
I4
ssg63
Nsg56
(lp138
sbasbasbasbag49
(g65
g51
NtRp139
(dp140
g54
(dp141
sg63
g59
sg56
(lp142
g49
(g70
g51
NtRp143
(dp144
g54
(dp145
g74
g75
ssg63
g139
sg56
(lp146
S'body'
p147
asbag49
(g70
g51
NtRp148
(dp149
g54
(dp150
g81
g82
ssg63
g139
sg56
(lp151
S':'
asbag49
(g70
g51
NtRp152
(dp153
g54
(dp154
sg63
g139
sg56
(lp155
g49
(g50
g51
NtRp156
(dp157
g54
(dp158
g62
I5
ssg63
g152
sg56
(lp159
S'<cStringIO.StringO object at 0x0344BE20>'
p160
asbasbasbag49
(g65
g51
NtRp161
(dp162
g54
(dp163
sg63
g59
sg56
(lp164
g49
(g70
g51
NtRp165
(dp166
g54
(dp167
g74
g75
ssg63
g161
sg56
(lp168
S'client'
p169
asbag49
(g70
g51
NtRp170
(dp171
g54
(dp172
g81
g82
ssg63
g161
sg56
(lp173
S':'
asbag49
(g70
g51
NtRp174
(dp175
g54
(dp176
sg63
g161
sg56
(lp177
g49
(g50
g51
NtRp178
(dp179
g54
(dp180
g62
I5
ssg63
g174
sg56
(lp181
S'127.0.0.1'
p182
asbasbasbag49
(g65
g51
NtRp183
(dp184
g54
(dp185
sg63
g59
sg56
(lp186
g49
(g70
g51
NtRp187
(dp188
g54
(dp189
g74
g75
ssg63
g183
sg56
(lp190
S'controller'
p191
asbag49
(g70
g51
NtRp192
(dp193
g54
(dp194
g81
g82
ssg63
g183
sg56
(lp195
S':'
asbag49
(g70
g51
NtRp196
(dp197
g54
(dp198
sg63
g183
sg56
(lp199
g49
(g50
g51
NtRp200
(dp201
g54
(dp202
g62
I5
ssg63
g196
sg56
(lp203
S'default'
p204
asbasbasbag49
(g65
g51
NtRp205
(dp206
g54
(dp207
sg63
g59
sg56
(lp208
g49
(g70
g51
NtRp209
(dp210
g54
(dp211
g74
g75
ssg63
g205
sg56
(lp212
S'cookies'
p213
asbag49
(g70
g51
NtRp214
(dp215
g54
(dp216
g81
g82
ssg63
g205
sg56
(lp217
S':'
asbag49
(g70
g51
NtRp218
(dp219
g54
(dp220
sg63
g205
sg56
(lp221
g49
(g50
g51
NtRp222
(dp223
g54
(dp224
g62
I5
ssg63
g218
sg56
(lp225
g49
(g58
g51
NtRp226
(dp227
g54
(dp228
g62
I4
ssg63
Nsg56
(lp229
g49
(g65
g51
NtRp230
(dp231
g54
(dp232
sg63
g226
sg56
(lp233
g49
(g70
g51
NtRp234
(dp235
g54
(dp236
g74
g75
ssg63
g230
sg56
(lp237
S'session_id_admin'
p238
asbag49
(g70
g51
NtRp239
(dp240
g54
(dp241
g81
g82
ssg63
g230
sg56
(lp242
S':'
asbag49
(g70
g51
NtRp243
(dp244
g54
(dp245
sg63
g230
sg56
(lp246
g49
(g50
g51
NtRp247
(dp248
g54
(dp249
g62
I4
ssg63
g243
sg56
(lp250
g49
(g58
g51
NtRp251
(dp252
g54
(dp253
g62
I3
ssg63
Nsg56
(lp254
g49
(g65
g51
NtRp255
(dp256
g54
(dp257
sg63
g251
sg56
(lp258
g49
(g70
g51
NtRp259
(dp260
g54
(dp261
g74
g75
ssg63
g255
sg56
(lp262
S'comment'
p263
asbag49
(g70
g51
NtRp264
(dp265
g54
(dp266
g81
g82
ssg63
g255
sg56
(lp267
S':'
asbag49
(g70
g51
NtRp268
(dp269
g54
(dp270
sg63
g255
sg56
(lp271
g49
(g50
g51
NtRp272
(dp273
g54
(dp274
g62
I3
ssg63
g268
sg56
(lp275
S''
asbasbasbag49
(g65
g51
NtRp276
(dp277
g54
(dp278
sg63
g251
sg56
(lp279
g49
(g70
g51
NtRp280
(dp281
g54
(dp282
g74
g75
ssg63
g276
sg56
(lp283
S'domain'
p284
asbag49
(g70
g51
NtRp285
(dp286
g54
(dp287
g81
g82
ssg63
g276
sg56
(lp288
S':'
asbag49
(g70
g51
NtRp289
(dp290
g54
(dp291
sg63
g276
sg56
(lp292
g49
(g50
g51
NtRp293
(dp294
g54
(dp295
g62
I3
ssg63
g289
sg56
(lp296
S''
asbasbasbag49
(g65
g51
NtRp297
(dp298
g54
(dp299
sg63
g251
sg56
(lp300
g49
(g70
g51
NtRp301
(dp302
g54
(dp303
g74
g75
ssg63
g297
sg56
(lp304
S'expires'
p305
asbag49
(g70
g51
NtRp306
(dp307
g54
(dp308
g81
g82
ssg63
g297
sg56
(lp309
S':'
asbag49
(g70
g51
NtRp310
(dp311
g54
(dp312
sg63
g297
sg56
(lp313
g49
(g50
g51
NtRp314
(dp315
g54
(dp316
g62
I3
ssg63
g310
sg56
(lp317
S''
asbasbasbag49
(g65
g51
NtRp318
(dp319
g54
(dp320
sg63
g251
sg56
(lp321
g49
(g70
g51
NtRp322
(dp323
g54
(dp324
g74
g75
ssg63
g318
sg56
(lp325
S'max-age'
p326
asbag49
(g70
g51
NtRp327
(dp328
g54
(dp329
g81
g82
ssg63
g318
sg56
(lp330
S':'
asbag49
(g70
g51
NtRp331
(dp332
g54
(dp333
sg63
g318
sg56
(lp334
g49
(g50
g51
NtRp335
(dp336
g54
(dp337
g62
I3
ssg63
g331
sg56
(lp338
S''
asbasbasbag49
(g65
g51
NtRp339
(dp340
g54
(dp341
sg63
g251
sg56
(lp342
g49
(g70
g51
NtRp343
(dp344
g54
(dp345
g74
g75
ssg63
g339
sg56
(lp346
S'path'
p347
asbag49
(g70
g51
NtRp348
(dp349
g54
(dp350
g81
g82
ssg63
g339
sg56
(lp351
S':'
asbag49
(g70
g51
NtRp352
(dp353
g54
(dp354
sg63
g339
sg56
(lp355
g49
(g50
g51
NtRp356
(dp357
g54
(dp358
g62
I3
ssg63
g352
sg56
(lp359
S''
asbasbasbag49
(g65
g51
NtRp360
(dp361
g54
(dp362
sg63
g251
sg56
(lp363
g49
(g70
g51
NtRp364
(dp365
g54
(dp366
g74
g75
ssg63
g360
sg56
(lp367
S'secure'
p368
asbag49
(g70
g51
NtRp369
(dp370
g54
(dp371
g81
g82
ssg63
g360
sg56
(lp372
S':'
asbag49
(g70
g51
NtRp373
(dp374
g54
(dp375
sg63
g360
sg56
(lp376
g49
(g50
g51
NtRp377
(dp378
g54
(dp379
g62
I3
ssg63
g373
sg56
(lp380
S''
asbasbasbag49
(g65
g51
NtRp381
(dp382
g54
(dp383
sg63
g251
sg56
(lp384
g49
(g70
g51
NtRp385
(dp386
g54
(dp387
g74
g75
ssg63
g381
sg56
(lp388
S'version'
p389
asbag49
(g70
g51
NtRp390
(dp391
g54
(dp392
g81
g82
ssg63
g381
sg56
(lp393
S':'
asbag49
(g70
g51
NtRp394
(dp395
g54
(dp396
sg63
g381
sg56
(lp397
g49
(g50
g51
NtRp398
(dp399
g54
(dp400
g62
I3
ssg63
g394
sg56
(lp401
S''
asbasbasbasbasbasbasbag49
(g65
g51
NtRp402
(dp403
g54
(dp404
sg63
g226
sg56
(lp405
g49
(g70
g51
NtRp406
(dp407
g54
(dp408
g74
g75
ssg63
g402
sg56
(lp409
S'session_id_musica'
p410
asbag49
(g70
g51
NtRp411
(dp412
g54
(dp413
g81
g82
ssg63
g402
sg56
(lp414
S':'
asbag49
(g70
g51
NtRp415
(dp416
g54
(dp417
sg63
g402
sg56
(lp418
g49
(g50
g51
NtRp419
(dp420
g54
(dp421
g62
I4
ssg63
g415
sg56
(lp422
g49
(g58
g51
NtRp423
(dp424
g54
(dp425
g62
I3
ssg63
Nsg56
(lp426
g49
(g65
g51
NtRp427
(dp428
g54
(dp429
sg63
g423
sg56
(lp430
g49
(g70
g51
NtRp431
(dp432
g54
(dp433
g74
g75
ssg63
g427
sg56
(lp434
g263
asbag49
(g70
g51
NtRp435
(dp436
g54
(dp437
g81
g82
ssg63
g427
sg56
(lp438
S':'
asbag49
(g70
g51
NtRp439
(dp440
g54
(dp441
sg63
g427
sg56
(lp442
g49
(g50
g51
NtRp443
(dp444
g54
(dp445
g62
I3
ssg63
g439
sg56
(lp446
S''
asbasbasbag49
(g65
g51
NtRp447
(dp448
g54
(dp449
sg63
g423
sg56
(lp450
g49
(g70
g51
NtRp451
(dp452
g54
(dp453
g74
g75
ssg63
g447
sg56
(lp454
g284
asbag49
(g70
g51
NtRp455
(dp456
g54
(dp457
g81
g82
ssg63
g447
sg56
(lp458
S':'
asbag49
(g70
g51
NtRp459
(dp460
g54
(dp461
sg63
g447
sg56
(lp462
g49
(g50
g51
NtRp463
(dp464
g54
(dp465
g62
I3
ssg63
g459
sg56
(lp466
S''
asbasbasbag49
(g65
g51
NtRp467
(dp468
g54
(dp469
sg63
g423
sg56
(lp470
g49
(g70
g51
NtRp471
(dp472
g54
(dp473
g74
g75
ssg63
g467
sg56
(lp474
g305
asbag49
(g70
g51
NtRp475
(dp476
g54
(dp477
g81
g82
ssg63
g467
sg56
(lp478
S':'
asbag49
(g70
g51
NtRp479
(dp480
g54
(dp481
sg63
g467
sg56
(lp482
g49
(g50
g51
NtRp483
(dp484
g54
(dp485
g62
I3
ssg63
g479
sg56
(lp486
S''
asbasbasbag49
(g65
g51
NtRp487
(dp488
g54
(dp489
sg63
g423
sg56
(lp490
g49
(g70
g51
NtRp491
(dp492
g54
(dp493
g74
g75
ssg63
g487
sg56
(lp494
g326
asbag49
(g70
g51
NtRp495
(dp496
g54
(dp497
g81
g82
ssg63
g487
sg56
(lp498
S':'
asbag49
(g70
g51
NtRp499
(dp500
g54
(dp501
sg63
g487
sg56
(lp502
g49
(g50
g51
NtRp503
(dp504
g54
(dp505
g62
I3
ssg63
g499
sg56
(lp506
S''
asbasbasbag49
(g65
g51
NtRp507
(dp508
g54
(dp509
sg63
g423
sg56
(lp510
g49
(g70
g51
NtRp511
(dp512
g54
(dp513
g74
g75
ssg63
g507
sg56
(lp514
g347
asbag49
(g70
g51
NtRp515
(dp516
g54
(dp517
g81
g82
ssg63
g507
sg56
(lp518
S':'
asbag49
(g70
g51
NtRp519
(dp520
g54
(dp521
sg63
g507
sg56
(lp522
g49
(g50
g51
NtRp523
(dp524
g54
(dp525
g62
I3
ssg63
g519
sg56
(lp526
S''
asbasbasbag49
(g65
g51
NtRp527
(dp528
g54
(dp529
sg63
g423
sg56
(lp530
g49
(g70
g51
NtRp531
(dp532
g54
(dp533
g74
g75
ssg63
g527
sg56
(lp534
g368
asbag49
(g70
g51
NtRp535
(dp536
g54
(dp537
g81
g82
ssg63
g527
sg56
(lp538
S':'
asbag49
(g70
g51
NtRp539
(dp540
g54
(dp541
sg63
g527
sg56
(lp542
g49
(g50
g51
NtRp543
(dp544
g54
(dp545
g62
I3
ssg63
g539
sg56
(lp546
S''
asbasbasbag49
(g65
g51
NtRp547
(dp548
g54
(dp549
sg63
g423
sg56
(lp550
g49
(g70
g51
NtRp551
(dp552
g54
(dp553
g74
g75
ssg63
g547
sg56
(lp554
g389
asbag49
(g70
g51
NtRp555
(dp556
g54
(dp557
g81
g82
ssg63
g547
sg56
(lp558
S':'
asbag49
(g70
g51
NtRp559
(dp560
g54
(dp561
sg63
g547
sg56
(lp562
g49
(g50
g51
NtRp563
(dp564
g54
(dp565
g62
I3
ssg63
g559
sg56
(lp566
S''
asbasbasbasbasbasbasbag49
(g65
g51
NtRp567
(dp568
g54
(dp569
sg63
g226
sg56
(lp570
g49
(g70
g51
NtRp571
(dp572
g54
(dp573
g74
g75
ssg63
g567
sg56
(lp574
S'session_id_webparley'
p575
asbag49
(g70
g51
NtRp576
(dp577
g54
(dp578
g81
g82
ssg63
g567
sg56
(lp579
S':'
asbag49
(g70
g51
NtRp580
(dp581
g54
(dp582
sg63
g567
sg56
(lp583
g49
(g50
g51
NtRp584
(dp585
g54
(dp586
g62
I4
ssg63
g580
sg56
(lp587
g49
(g58
g51
NtRp588
(dp589
g54
(dp590
g62
I3
ssg63
Nsg56
(lp591
g49
(g65
g51
NtRp592
(dp593
g54
(dp594
sg63
g588
sg56
(lp595
g49
(g70
g51
NtRp596
(dp597
g54
(dp598
g74
g75
ssg63
g592
sg56
(lp599
g263
asbag49
(g70
g51
NtRp600
(dp601
g54
(dp602
g81
g82
ssg63
g592
sg56
(lp603
S':'
asbag49
(g70
g51
NtRp604
(dp605
g54
(dp606
sg63
g592
sg56
(lp607
g49
(g50
g51
NtRp608
(dp609
g54
(dp610
g62
I3
ssg63
g604
sg56
(lp611
S''
asbasbasbag49
(g65
g51
NtRp612
(dp613
g54
(dp614
sg63
g588
sg56
(lp615
g49
(g70
g51
NtRp616
(dp617
g54
(dp618
g74
g75
ssg63
g612
sg56
(lp619
g284
asbag49
(g70
g51
NtRp620
(dp621
g54
(dp622
g81
g82
ssg63
g612
sg56
(lp623
S':'
asbag49
(g70
g51
NtRp624
(dp625
g54
(dp626
sg63
g612
sg56
(lp627
g49
(g50
g51
NtRp628
(dp629
g54
(dp630
g62
I3
ssg63
g624
sg56
(lp631
S''
asbasbasbag49
(g65
g51
NtRp632
(dp633
g54
(dp634
sg63
g588
sg56
(lp635
g49
(g70
g51
NtRp636
(dp637
g54
(dp638
g74
g75
ssg63
g632
sg56
(lp639
g305
asbag49
(g70
g51
NtRp640
(dp641
g54
(dp642
g81
g82
ssg63
g632
sg56
(lp643
S':'
asbag49
(g70
g51
NtRp644
(dp645
g54
(dp646
sg63
g632
sg56
(lp647
g49
(g50
g51
NtRp648
(dp649
g54
(dp650
g62
I3
ssg63
g644
sg56
(lp651
S''
asbasbasbag49
(g65
g51
NtRp652
(dp653
g54
(dp654
sg63
g588
sg56
(lp655
g49
(g70
g51
NtRp656
(dp657
g54
(dp658
g74
g75
ssg63
g652
sg56
(lp659
g326
asbag49
(g70
g51
NtRp660
(dp661
g54
(dp662
g81
g82
ssg63
g652
sg56
(lp663
S':'
asbag49
(g70
g51
NtRp664
(dp665
g54
(dp666
sg63
g652
sg56
(lp667
g49
(g50
g51
NtRp668
(dp669
g54
(dp670
g62
I3
ssg63
g664
sg56
(lp671
S''
asbasbasbag49
(g65
g51
NtRp672
(dp673
g54
(dp674
sg63
g588
sg56
(lp675
g49
(g70
g51
NtRp676
(dp677
g54
(dp678
g74
g75
ssg63
g672
sg56
(lp679
g347
asbag49
(g70
g51
NtRp680
(dp681
g54
(dp682
g81
g82
ssg63
g672
sg56
(lp683
S':'
asbag49
(g70
g51
NtRp684
(dp685
g54
(dp686
sg63
g672
sg56
(lp687
g49
(g50
g51
NtRp688
(dp689
g54
(dp690
g62
I3
ssg63
g684
sg56
(lp691
S''
asbasbasbag49
(g65
g51
NtRp692
(dp693
g54
(dp694
sg63
g588
sg56
(lp695
g49
(g70
g51
NtRp696
(dp697
g54
(dp698
g74
g75
ssg63
g692
sg56
(lp699
g368
asbag49
(g70
g51
NtRp700
(dp701
g54
(dp702
g81
g82
ssg63
g692
sg56
(lp703
S':'
asbag49
(g70
g51
NtRp704
(dp705
g54
(dp706
sg63
g692
sg56
(lp707
g49
(g50
g51
NtRp708
(dp709
g54
(dp710
g62
I3
ssg63
g704
sg56
(lp711
S''
asbasbasbag49
(g65
g51
NtRp712
(dp713
g54
(dp714
sg63
g588
sg56
(lp715
g49
(g70
g51
NtRp716
(dp717
g54
(dp718
g74
g75
ssg63
g712
sg56
(lp719
g389
asbag49
(g70
g51
NtRp720
(dp721
g54
(dp722
g81
g82
ssg63
g712
sg56
(lp723
S':'
asbag49
(g70
g51
NtRp724
(dp725
g54
(dp726
sg63
g712
sg56
(lp727
g49
(g50
g51
NtRp728
(dp729
g54
(dp730
g62
I3
ssg63
g724
sg56
(lp731
S''
asbasbasbasbasbasbasbasbasbasbasbag49
(g65
g51
NtRp732
(dp733
g54
(dp734
sg63
g59
sg56
(lp735
g49
(g70
g51
NtRp736
(dp737
g54
(dp738
g74
g75
ssg63
g732
sg56
(lp739
S'env'
p740
asbag49
(g70
g51
NtRp741
(dp742
g54
(dp743
g81
g82
ssg63
g732
sg56
(lp744
S':'
asbag49
(g70
g51
NtRp745
(dp746
g54
(dp747
sg63
g732
sg56
(lp748
g49
(g50
g51
NtRp749
(dp750
g54
(dp751
g62
I5
ssg63
g745
sg56
(lp752
g49
(g58
g51
NtRp753
(dp754
g54
(dp755
g62
I4
ssg63
Nsg56
(lp756
g49
(g65
g51
NtRp757
(dp758
g54
(dp759
sg63
g753
sg56
(lp760
g49
(g70
g51
NtRp761
(dp762
g54
(dp763
g74
g75
ssg63
g757
sg56
(lp764
S'app_folders'
p765
asbag49
(g70
g51
NtRp766
(dp767
g54
(dp768
g81
g82
ssg63
g757
sg56
(lp769
S':'
asbag49
(g70
g51
NtRp770
(dp771
g54
(dp772
sg63
g757
sg56
(lp773
g49
(g50
g51
NtRp774
(dp775
g54
(dp776
g62
I4
ssg63
g770
sg56
(lp777
S"set(['D:\\\\Dise\\xf1o Web\\\\Proyectos\\\\Parleyweb\\\\web2py\\\\applications\\\\musica\\\\', 'D:\\\\Dise\\xf1o Web\\\\Proyectos\\\\Parleyweb\\\\web2py\\\\applications\\\\webparley\\\\', 'D:\\\\Dise\\xf1o Web\\\\Proyectos\\\\Parleyweb\\\\web2py\\\\applications\\\\admin\\\\'])"
p778
asbasbasbag49
(g65
g51
NtRp779
(dp780
g54
(dp781
sg63
g753
sg56
(lp782
g49
(g70
g51
NtRp783
(dp784
g54
(dp785
g74
g75
ssg63
g779
sg56
(lp786
S'applications_parent'
p787
asbag49
(g70
g51
NtRp788
(dp789
g54
(dp790
g81
g82
ssg63
g779
sg56
(lp791
S':'
asbag49
(g70
g51
NtRp792
(dp793
g54
(dp794
sg63
g779
sg56
(lp795
g49
(g50
g51
NtRp796
(dp797
g54
(dp798
g62
I4
ssg63
g792
sg56
(lp799
S'D:\\Dise\xf1o Web\\Proyectos\\Parleyweb\\web2py'
p800
asbasbasbag49
(g65
g51
NtRp801
(dp802
g54
(dp803
sg63
g753
sg56
(lp804
g49
(g70
g51
NtRp805
(dp806
g54
(dp807
g74
g75
ssg63
g801
sg56
(lp808
S'cmd_args'
p809
asbag49
(g70
g51
NtRp810
(dp811
g54
(dp812
g81
g82
ssg63
g801
sg56
(lp813
S':'
asbag49
(g70
g51
NtRp814
(dp815
g54
(dp816
sg63
g801
sg56
(lp817
g49
(g50
g51
NtRp818
(dp819
g54
(dp820
g62
I4
ssg63
g814
sg56
(lp821
g49
(g58
g51
NtRp822
(dp823
g54
(dp824
g62
I3
ssg63
Nsg56
(lp825
sbasbasbasbag49
(g65
g51
NtRp826
(dp827
g54
(dp828
sg63
g753
sg56
(lp829
g49
(g70
g51
NtRp830
(dp831
g54
(dp832
g74
g75
ssg63
g826
sg56
(lp833
S'cmd_options'
p834
asbag49
(g70
g51
NtRp835
(dp836
g54
(dp837
g81
g82
ssg63
g826
sg56
(lp838
S':'
asbag49
(g70
g51
NtRp839
(dp840
g54
(dp841
sg63
g826
sg56
(lp842
g49
(g50
g51
NtRp843
(dp844
g54
(dp845
g62
I4
ssg63
g839
sg56
(lp846
S"<Values at 0x325c260: {'verbose': False, 'ip': '127.0.0.1', 'shutdown_timeout': 5, 'taskbar': False, 'nocron': False, 'pid_filename': 'httpserver.pid', 'maxthreads': None, 'softcron': False, 'server_name': 'craxsnet-PC', 'bpython': False, 'nogui': False, 'port': 8000, 'extcron': False, 'debuglevel': 30, 'test': None, 'folder': 'D:\\\\Dise\\xf1o Web\\\\Proyectos\\\\Parleyweb\\\\web2py', 'config': '', 'import_models': False, 'winservice': '', 'shell': None, 'run': '', 'log_filename': 'httpserver.log', 'args': [''], 'socket_timeout': 5, 'ssl_ca_certificate': None, 'scheduler': None, 'profiler_filename': None, 'ssl_private_key': '', 'password': '<ask>', 'request_queue_size': 5, 'ssl_certificate': '', 'cronjob': False, 'numthreads': None, 'quiet': False, 'interfaces': None, 'minthreads': None, 'timeout': 10, 'plain': False, 'nobanner': False}>"
p847
asbasbasbag49
(g65
g51
NtRp848
(dp849
g54
(dp850
sg63
g753
sg56
(lp851
g49
(g70
g51
NtRp852
(dp853
g54
(dp854
g74
g75
ssg63
g848
sg56
(lp855
S'db_sessions'
p856
asbag49
(g70
g51
NtRp857
(dp858
g54
(dp859
g81
g82
ssg63
g848
sg56
(lp860
S':'
asbag49
(g70
g51
NtRp861
(dp862
g54
(dp863
sg63
g848
sg56
(lp864
g49
(g50
g51
NtRp865
(dp866
g54
(dp867
g62
I4
ssg63
g861
sg56
(lp868
S'set([])'
p869
asbasbasbag49
(g65
g51
NtRp870
(dp871
g54
(dp872
sg63
g753
sg56
(lp873
g49
(g70
g51
NtRp874
(dp875
g54
(dp876
g74
g75
ssg63
g870
sg56
(lp877
S'debugging'
p878
asbag49
(g70
g51
NtRp879
(dp880
g54
(dp881
g81
g82
ssg63
g870
sg56
(lp882
S':'
asbag49
(g70
g51
NtRp883
(dp884
g54
(dp885
sg63
g870
sg56
(lp886
g49
(g50
g51
NtRp887
(dp888
g54
(dp889
g62
I4
ssg63
g883
sg56
(lp890
g92
asbasbasbag49
(g65
g51
NtRp891
(dp892
g54
(dp893
sg63
g753
sg56
(lp894
g49
(g70
g51
NtRp895
(dp896
g54
(dp897
g74
g75
ssg63
g891
sg56
(lp898
S'gluon_parent'
p899
asbag49
(g70
g51
NtRp900
(dp901
g54
(dp902
g81
g82
ssg63
g891
sg56
(lp903
S':'
asbag49
(g70
g51
NtRp904
(dp905
g54
(dp906
sg63
g891
sg56
(lp907
g49
(g50
g51
NtRp908
(dp909
g54
(dp910
g62
I4
ssg63
g904
sg56
(lp911
S'D:\\Dise\xf1o Web\\Proyectos\\Parleyweb\\web2py'
p912
asbasbasbag49
(g65
g51
NtRp913
(dp914
g54
(dp915
sg63
g753
sg56
(lp916
g49
(g70
g51
NtRp917
(dp918
g54
(dp919
g74
g75
ssg63
g913
sg56
(lp920
S'http_accept'
p921
asbag49
(g70
g51
NtRp922
(dp923
g54
(dp924
g81
g82
ssg63
g913
sg56
(lp925
S':'
asbag49
(g70
g51
NtRp926
(dp927
g54
(dp928
sg63
g913
sg56
(lp929
g49
(g50
g51
NtRp930
(dp931
g54
(dp932
g62
I4
ssg63
g926
sg56
(lp933
S'text/html,application/xhtml+xml,application/xml;q=0.9,*/*;q=0.8'
p934
asbasbasbag49
(g65
g51
NtRp935
(dp936
g54
(dp937
sg63
g753
sg56
(lp938
g49
(g70
g51
NtRp939
(dp940
g54
(dp941
g74
g75
ssg63
g935
sg56
(lp942
S'http_accept_encoding'
p943
asbag49
(g70
g51
NtRp944
(dp945
g54
(dp946
g81
g82
ssg63
g935
sg56
(lp947
S':'
asbag49
(g70
g51
NtRp948
(dp949
g54
(dp950
sg63
g935
sg56
(lp951
g49
(g50
g51
NtRp952
(dp953
g54
(dp954
g62
I4
ssg63
g948
sg56
(lp955
S'gzip, deflate'
p956
asbasbasbag49
(g65
g51
NtRp957
(dp958
g54
(dp959
sg63
g753
sg56
(lp960
g49
(g70
g51
NtRp961
(dp962
g54
(dp963
g74
g75
ssg63
g957
sg56
(lp964
S'http_accept_language'
p965
asbag49
(g70
g51
NtRp966
(dp967
g54
(dp968
g81
g82
ssg63
g957
sg56
(lp969
S':'
asbag49
(g70
g51
NtRp970
(dp971
g54
(dp972
sg63
g957
sg56
(lp973
g49
(g50
g51
NtRp974
(dp975
g54
(dp976
g62
I4
ssg63
g970
sg56
(lp977
S'es-es,de-de;q=0.8,es;q=0.6,en-us;q=0.4,en;q=0.2'
p978
asbasbasbag49
(g65
g51
NtRp979
(dp980
g54
(dp981
sg63
g753
sg56
(lp982
g49
(g70
g51
NtRp983
(dp984
g54
(dp985
g74
g75
ssg63
g979
sg56
(lp986
S'http_cache_control'
p987
asbag49
(g70
g51
NtRp988
(dp989
g54
(dp990
g81
g82
ssg63
g979
sg56
(lp991
S':'
asbag49
(g70
g51
NtRp992
(dp993
g54
(dp994
sg63
g979
sg56
(lp995
g49
(g50
g51
NtRp996
(dp997
g54
(dp998
g62
I4
ssg63
g992
sg56
(lp999
S'max-age=0'
p1000
asbasbasbag49
(g65
g51
NtRp1001
(dp1002
g54
(dp1003
sg63
g753
sg56
(lp1004
g49
(g70
g51
NtRp1005
(dp1006
g54
(dp1007
g74
g75
ssg63
g1001
sg56
(lp1008
S'http_connection'
p1009
asbag49
(g70
g51
NtRp1010
(dp1011
g54
(dp1012
g81
g82
ssg63
g1001
sg56
(lp1013
S':'
asbag49
(g70
g51
NtRp1014
(dp1015
g54
(dp1016
sg63
g1001
sg56
(lp1017
g49
(g50
g51
NtRp1018
(dp1019
g54
(dp1020
g62
I4
ssg63
g1014
sg56
(lp1021
S'keep-alive'
p1022
asbasbasbag49
(g65
g51
NtRp1023
(dp1024
g54
(dp1025
sg63
g753
sg56
(lp1026
g49
(g70
g51
NtRp1027
(dp1028
g54
(dp1029
g74
g75
ssg63
g1023
sg56
(lp1030
S'http_cookie'
p1031
asbag49
(g70
g51
NtRp1032
(dp1033
g54
(dp1034
g81
g82
ssg63
g1023
sg56
(lp1035
S':'
asbag49
(g70
g51
NtRp1036
(dp1037
g54
(dp1038
sg63
g1023
sg56
(lp1039
g49
(g50
g51
NtRp1040
(dp1041
g54
(dp1042
g62
I4
ssg63
g1036
sg56
(lp1043
S'__utma=96992031.26429765.1325029743.1325029743.1326549329.2; __utmz=96992031.1325029743.1.1.utmcsr=(direct)|utmccn=(direct)|utmcmd=(none); session_id_webparley=127.0.0.1-dcf2c9a2-2b69-4ae1-b661-d2e18069236a; session_id_musica=127.0.0.1-ab1e7ac7-230e-4a77-8a75-c02e09e1db4b; session_id_admin=127.0.0.1-18c6ee21-fbc4-41cc-8e7d-95e65e74b9db'
p1044
asbasbasbag49
(g65
g51
NtRp1045
(dp1046
g54
(dp1047
sg63
g753
sg56
(lp1048
g49
(g70
g51
NtRp1049
(dp1050
g54
(dp1051
g74
g75
ssg63
g1045
sg56
(lp1052
S'http_host'
p1053
asbag49
(g70
g51
NtRp1054
(dp1055
g54
(dp1056
g81
g82
ssg63
g1045
sg56
(lp1057
S':'
asbag49
(g70
g51
NtRp1058
(dp1059
g54
(dp1060
sg63
g1045
sg56
(lp1061
g49
(g50
g51
NtRp1062
(dp1063
g54
(dp1064
g62
I4
ssg63
g1058
sg56
(lp1065
S'127.0.0.1:8000'
p1066
asbasbasbag49
(g65
g51
NtRp1067
(dp1068
g54
(dp1069
sg63
g753
sg56
(lp1070
g49
(g70
g51
NtRp1071
(dp1072
g54
(dp1073
g74
g75
ssg63
g1067
sg56
(lp1074
S'http_referer'
p1075
asbag49
(g70
g51
NtRp1076
(dp1077
g54
(dp1078
g81
g82
ssg63
g1067
sg56
(lp1079
S':'
asbag49
(g70
g51
NtRp1080
(dp1081
g54
(dp1082
sg63
g1067
sg56
(lp1083
g49
(g50
g51
NtRp1084
(dp1085
g54
(dp1086
g62
I4
ssg63
g1080
sg56
(lp1087
S'http://127.0.0.1:8000/admin/default/design/musica'
p1088
asbasbasbag49
(g65
g51
NtRp1089
(dp1090
g54
(dp1091
sg63
g753
sg56
(lp1092
g49
(g70
g51
NtRp1093
(dp1094
g54
(dp1095
g74
g75
ssg63
g1089
sg56
(lp1096
S'http_user_agent'
p1097
asbag49
(g70
g51
NtRp1098
(dp1099
g54
(dp1100
g81
g82
ssg63
g1089
sg56
(lp1101
S':'
asbag49
(g70
g51
NtRp1102
(dp1103
g54
(dp1104
sg63
g1089
sg56
(lp1105
g49
(g50
g51
NtRp1106
(dp1107
g54
(dp1108
g62
I4
ssg63
g1102
sg56
(lp1109
S'Mozilla/5.0 (Windows NT 6.1; WOW64; rv:11.0) Gecko/20100101 Firefox/11.0'
p1110
asbasbasbag49
(g65
g51
NtRp1111
(dp1112
g54
(dp1113
sg63
g753
sg56
(lp1114
g49
(g70
g51
NtRp1115
(dp1116
g54
(dp1117
g74
g75
ssg63
g1111
sg56
(lp1118
S'is_jython'
p1119
asbag49
(g70
g51
NtRp1120
(dp1121
g54
(dp1122
g81
g82
ssg63
g1111
sg56
(lp1123
S':'
asbag49
(g70
g51
NtRp1124
(dp1125
g54
(dp1126
sg63
g1111
sg56
(lp1127
g49
(g50
g51
NtRp1128
(dp1129
g54
(dp1130
g62
I4
ssg63
g1124
sg56
(lp1131
g92
asbasbasbag49
(g65
g51
NtRp1132
(dp1133
g54
(dp1134
sg63
g753
sg56
(lp1135
g49
(g70
g51
NtRp1136
(dp1137
g54
(dp1138
g74
g75
ssg63
g1132
sg56
(lp1139
S'is_pypy'
p1140
asbag49
(g70
g51
NtRp1141
(dp1142
g54
(dp1143
g81
g82
ssg63
g1132
sg56
(lp1144
S':'
asbag49
(g70
g51
NtRp1145
(dp1146
g54
(dp1147
sg63
g1132
sg56
(lp1148
g49
(g50
g51
NtRp1149
(dp1150
g54
(dp1151
g62
I4
ssg63
g1145
sg56
(lp1152
g92
asbasbasbag49
(g65
g51
NtRp1153
(dp1154
g54
(dp1155
sg63
g753
sg56
(lp1156
g49
(g70
g51
NtRp1157
(dp1158
g54
(dp1159
g74
g75
ssg63
g1153
sg56
(lp1160
S'path_info'
p1161
asbag49
(g70
g51
NtRp1162
(dp1163
g54
(dp1164
g81
g82
ssg63
g1153
sg56
(lp1165
S':'
asbag49
(g70
g51
NtRp1166
(dp1167
g54
(dp1168
sg63
g1153
sg56
(lp1169
g49
(g50
g51
NtRp1170
(dp1171
g54
(dp1172
g62
I4
ssg63
g1166
sg56
(lp1173
S'/musica/default/index'
p1174
asbasbasbag49
(g65
g51
NtRp1175
(dp1176
g54
(dp1177
sg63
g753
sg56
(lp1178
g49
(g70
g51
NtRp1179
(dp1180
g54
(dp1181
g74
g75
ssg63
g1175
sg56
(lp1182
S'query_string'
p1183
asbag49
(g70
g51
NtRp1184
(dp1185
g54
(dp1186
g81
g82
ssg63
g1175
sg56
(lp1187
S':'
asbag49
(g70
g51
NtRp1188
(dp1189
g54
(dp1190
sg63
g1175
sg56
(lp1191
g49
(g50
g51
NtRp1192
(dp1193
g54
(dp1194
g62
I4
ssg63
g1188
sg56
(lp1195
S''
asbasbasbag49
(g65
g51
NtRp1196
(dp1197
g54
(dp1198
sg63
g753
sg56
(lp1199
g49
(g70
g51
NtRp1200
(dp1201
g54
(dp1202
g74
g75
ssg63
g1196
sg56
(lp1203
S'remote_addr'
p1204
asbag49
(g70
g51
NtRp1205
(dp1206
g54
(dp1207
g81
g82
ssg63
g1196
sg56
(lp1208
S':'
asbag49
(g70
g51
NtRp1209
(dp1210
g54
(dp1211
sg63
g1196
sg56
(lp1212
g49
(g50
g51
NtRp1213
(dp1214
g54
(dp1215
g62
I4
ssg63
g1209
sg56
(lp1216
g182
asbasbasbag49
(g65
g51
NtRp1217
(dp1218
g54
(dp1219
sg63
g753
sg56
(lp1220
g49
(g70
g51
NtRp1221
(dp1222
g54
(dp1223
g74
g75
ssg63
g1217
sg56
(lp1224
S'remote_port'
p1225
asbag49
(g70
g51
NtRp1226
(dp1227
g54
(dp1228
g81
g82
ssg63
g1217
sg56
(lp1229
S':'
asbag49
(g70
g51
NtRp1230
(dp1231
g54
(dp1232
sg63
g1217
sg56
(lp1233
g49
(g50
g51
NtRp1234
(dp1235
g54
(dp1236
g62
I4
ssg63
g1230
sg56
(lp1237
S'51496'
p1238
asbasbasbag49
(g65
g51
NtRp1239
(dp1240
g54
(dp1241
sg63
g753
sg56
(lp1242
g49
(g70
g51
NtRp1243
(dp1244
g54
(dp1245
g74
g75
ssg63
g1239
sg56
(lp1246
S'request_method'
p1247
asbag49
(g70
g51
NtRp1248
(dp1249
g54
(dp1250
g81
g82
ssg63
g1239
sg56
(lp1251
S':'
asbag49
(g70
g51
NtRp1252
(dp1253
g54
(dp1254
sg63
g1239
sg56
(lp1255
g49
(g50
g51
NtRp1256
(dp1257
g54
(dp1258
g62
I4
ssg63
g1252
sg56
(lp1259
S'GET'
p1260
asbasbasbag49
(g65
g51
NtRp1261
(dp1262
g54
(dp1263
sg63
g753
sg56
(lp1264
g49
(g70
g51
NtRp1265
(dp1266
g54
(dp1267
g74
g75
ssg63
g1261
sg56
(lp1268
S'request_uri'
p1269
asbag49
(g70
g51
NtRp1270
(dp1271
g54
(dp1272
g81
g82
ssg63
g1261
sg56
(lp1273
S':'
asbag49
(g70
g51
NtRp1274
(dp1275
g54
(dp1276
sg63
g1261
sg56
(lp1277
g49
(g50
g51
NtRp1278
(dp1279
g54
(dp1280
g62
I4
ssg63
g1274
sg56
(lp1281
g1174
asbasbasbag49
(g65
g51
NtRp1282
(dp1283
g54
(dp1284
sg63
g753
sg56
(lp1285
g49
(g70
g51
NtRp1286
(dp1287
g54
(dp1288
g74
g75
ssg63
g1282
sg56
(lp1289
S'script_name'
p1290
asbag49
(g70
g51
NtRp1291
(dp1292
g54
(dp1293
g81
g82
ssg63
g1282
sg56
(lp1294
S':'
asbag49
(g70
g51
NtRp1295
(dp1296
g54
(dp1297
sg63
g1282
sg56
(lp1298
g49
(g50
g51
NtRp1299
(dp1300
g54
(dp1301
g62
I4
ssg63
g1295
sg56
(lp1302
S''
asbasbasbag49
(g65
g51
NtRp1303
(dp1304
g54
(dp1305
sg63
g753
sg56
(lp1306
g49
(g70
g51
NtRp1307
(dp1308
g54
(dp1309
g74
g75
ssg63
g1303
sg56
(lp1310
S'server_name'
p1311
asbag49
(g70
g51
NtRp1312
(dp1313
g54
(dp1314
g81
g82
ssg63
g1303
sg56
(lp1315
S':'
asbag49
(g70
g51
NtRp1316
(dp1317
g54
(dp1318
sg63
g1303
sg56
(lp1319
g49
(g50
g51
NtRp1320
(dp1321
g54
(dp1322
g62
I4
ssg63
g1316
sg56
(lp1323
S'craxsnet-PC'
p1324
asbasbasbag49
(g65
g51
NtRp1325
(dp1326
g54
(dp1327
sg63
g753
sg56
(lp1328
g49
(g70
g51
NtRp1329
(dp1330
g54
(dp1331
g74
g75
ssg63
g1325
sg56
(lp1332
S'server_port'
p1333
asbag49
(g70
g51
NtRp1334
(dp1335
g54
(dp1336
g81
g82
ssg63
g1325
sg56
(lp1337
S':'
asbag49
(g70
g51
NtRp1338
(dp1339
g54
(dp1340
sg63
g1325
sg56
(lp1341
g49
(g50
g51
NtRp1342
(dp1343
g54
(dp1344
g62
I4
ssg63
g1338
sg56
(lp1345
S'8000'
p1346
asbasbasbag49
(g65
g51
NtRp1347
(dp1348
g54
(dp1349
sg63
g753
sg56
(lp1350
g49
(g70
g51
NtRp1351
(dp1352
g54
(dp1353
g74
g75
ssg63
g1347
sg56
(lp1354
S'server_protocol'
p1355
asbag49
(g70
g51
NtRp1356
(dp1357
g54
(dp1358
g81
g82
ssg63
g1347
sg56
(lp1359
S':'
asbag49
(g70
g51
NtRp1360
(dp1361
g54
(dp1362
sg63
g1347
sg56
(lp1363
g49
(g50
g51
NtRp1364
(dp1365
g54
(dp1366
g62
I4
ssg63
g1360
sg56
(lp1367
S'HTTP/1.1'
p1368
asbasbasbag49
(g65
g51
NtRp1369
(dp1370
g54
(dp1371
sg63
g753
sg56
(lp1372
g49
(g70
g51
NtRp1373
(dp1374
g54
(dp1375
g74
g75
ssg63
g1369
sg56
(lp1376
S'server_software'
p1377
asbag49
(g70
g51
NtRp1378
(dp1379
g54
(dp1380
g81
g82
ssg63
g1369
sg56
(lp1381
S':'
asbag49
(g70
g51
NtRp1382
(dp1383
g54
(dp1384
sg63
g1369
sg56
(lp1385
g49
(g50
g51
NtRp1386
(dp1387
g54
(dp1388
g62
I4
ssg63
g1382
sg56
(lp1389
S'Rocket 1.2.4'
p1390
asbasbasbag49
(g65
g51
NtRp1391
(dp1392
g54
(dp1393
sg63
g753
sg56
(lp1394
g49
(g70
g51
NtRp1395
(dp1396
g54
(dp1397
g74
g75
ssg63
g1391
sg56
(lp1398
S'web2py_crontype'
p1399
asbag49
(g70
g51
NtRp1400
(dp1401
g54
(dp1402
g81
g82
ssg63
g1391
sg56
(lp1403
S':'
asbag49
(g70
g51
NtRp1404
(dp1405
g54
(dp1406
sg63
g1391
sg56
(lp1407
g49
(g50
g51
NtRp1408
(dp1409
g54
(dp1410
g62
I4
ssg63
g1404
sg56
(lp1411
S'hard'
p1412
asbasbasbag49
(g65
g51
NtRp1413
(dp1414
g54
(dp1415
sg63
g753
sg56
(lp1416
g49
(g70
g51
NtRp1417
(dp1418
g54
(dp1419
g74
g75
ssg63
g1413
sg56
(lp1420
S'web2py_original_uri'
p1421
asbag49
(g70
g51
NtRp1422
(dp1423
g54
(dp1424
g81
g82
ssg63
g1413
sg56
(lp1425
S':'
asbag49
(g70
g51
NtRp1426
(dp1427
g54
(dp1428
sg63
g1413
sg56
(lp1429
g49
(g50
g51
NtRp1430
(dp1431
g54
(dp1432
g62
I4
ssg63
g1426
sg56
(lp1433
S'/musica/default/index'
p1434
asbasbasbag49
(g65
g51
NtRp1435
(dp1436
g54
(dp1437
sg63
g753
sg56
(lp1438
g49
(g70
g51
NtRp1439
(dp1440
g54
(dp1441
g74
g75
ssg63
g1435
sg56
(lp1442
S'web2py_path'
p1443
asbag49
(g70
g51
NtRp1444
(dp1445
g54
(dp1446
g81
g82
ssg63
g1435
sg56
(lp1447
S':'
asbag49
(g70
g51
NtRp1448
(dp1449
g54
(dp1450
sg63
g1435
sg56
(lp1451
g49
(g50
g51
NtRp1452
(dp1453
g54
(dp1454
g62
I4
ssg63
g1448
sg56
(lp1455
g800
asbasbasbag49
(g65
g51
NtRp1456
(dp1457
g54
(dp1458
sg63
g753
sg56
(lp1459
g49
(g70
g51
NtRp1460
(dp1461
g54
(dp1462
g74
g75
ssg63
g1456
sg56
(lp1463
S'web2py_version'
p1464
asbag49
(g70
g51
NtRp1465
(dp1466
g54
(dp1467
g81
g82
ssg63
g1456
sg56
(lp1468
S':'
asbag49
(g70
g51
NtRp1469
(dp1470
g54
(dp1471
sg63
g1456
sg56
(lp1472
g49
(g50
g51
NtRp1473
(dp1474
g54
(dp1475
g62
I4
ssg63
g1469
sg56
(lp1476
g49
(g58
g51
NtRp1477
(dp1478
g54
(dp1479
g62
I3
ssg63
Nsg56
(lp1480
g49
(g65
g51
NtRp1481
(dp1482
g54
(dp1483
sg63
g1477
sg56
(lp1484
g49
(g70
g51
NtRp1485
(dp1486
g54
(dp1487
sg63
g1481
sg56
(lp1488
g49
(g50
g51
NtRp1489
(dp1490
g54
(dp1491
g62
I3
ssg63
g1485
sg56
(lp1492
S'1'
asbasbasbag49
(g65
g51
NtRp1493
(dp1494
g54
(dp1495
sg63
g1477
sg56
(lp1496
g49
(g70
g51
NtRp1497
(dp1498
g54
(dp1499
sg63
g1493
sg56
(lp1500
g49
(g50
g51
NtRp1501
(dp1502
g54
(dp1503
g62
I3
ssg63
g1497
sg56
(lp1504
S'99'
p1505
asbasbasbag49
(g65
g51
NtRp1506
(dp1507
g54
(dp1508
sg63
g1477
sg56
(lp1509
g49
(g70
g51
NtRp1510
(dp1511
g54
(dp1512
sg63
g1506
sg56
(lp1513
g49
(g50
g51
NtRp1514
(dp1515
g54
(dp1516
g62
I3
ssg63
g1510
sg56
(lp1517
S'7'
asbasbasbag49
(g65
g51
NtRp1518
(dp1519
g54
(dp1520
sg63
g1477
sg56
(lp1521
g49
(g70
g51
NtRp1522
(dp1523
g54
(dp1524
sg63
g1518
sg56
(lp1525
g49
(g50
g51
NtRp1526
(dp1527
g54
(dp1528
g62
I3
ssg63
g1522
sg56
(lp1529
S'datetime.datetime(2012, 3, 4, 22, 12, 8)'
p1530
asbasbasbag49
(g65
g51
NtRp1531
(dp1532
g54
(dp1533
sg63
g1477
sg56
(lp1534
g49
(g70
g51
NtRp1535
(dp1536
g54
(dp1537
sg63
g1531
sg56
(lp1538
g49
(g50
g51
NtRp1539
(dp1540
g54
(dp1541
g62
I3
ssg63
g1535
sg56
(lp1542
S'stable'
p1543
asbasbasbasbasbasbasbag49
(g65
g51
NtRp1544
(dp1545
g54
(dp1546
sg63
g753
sg56
(lp1547
g49
(g70
g51
NtRp1548
(dp1549
g54
(dp1550
g74
g75
ssg63
g1544
sg56
(lp1551
S'wsgi_errors'
p1552
asbag49
(g70
g51
NtRp1553
(dp1554
g54
(dp1555
g81
g82
ssg63
g1544
sg56
(lp1556
S':'
asbag49
(g70
g51
NtRp1557
(dp1558
g54
(dp1559
sg63
g1544
sg56
(lp1560
g49
(g50
g51
NtRp1561
(dp1562
g54
(dp1563
g62
I4
ssg63
g1557
sg56
(lp1564
S"<open file '<stderr>', mode 'w' at 0x005E00B0>"
p1565
asbasbasbag49
(g65
g51
NtRp1566
(dp1567
g54
(dp1568
sg63
g753
sg56
(lp1569
g49
(g70
g51
NtRp1570
(dp1571
g54
(dp1572
g74
g75
ssg63
g1566
sg56
(lp1573
S'wsgi_file_wrapper'
p1574
asbag49
(g70
g51
NtRp1575
(dp1576
g54
(dp1577
g81
g82
ssg63
g1566
sg56
(lp1578
S':'
asbag49
(g70
g51
NtRp1579
(dp1580
g54
(dp1581
sg63
g1566
sg56
(lp1582
g49
(g50
g51
NtRp1583
(dp1584
g54
(dp1585
g62
I4
ssg63
g1579
sg56
(lp1586
S'<class wsgiref.util.FileWrapper at 0x03059390>'
p1587
asbasbasbag49
(g65
g51
NtRp1588
(dp1589
g54
(dp1590
sg63
g753
sg56
(lp1591
g49
(g70
g51
NtRp1592
(dp1593
g54
(dp1594
g74
g75
ssg63
g1588
sg56
(lp1595
S'wsgi_input'
p1596
asbag49
(g70
g51
NtRp1597
(dp1598
g54
(dp1599
g81
g82
ssg63
g1588
sg56
(lp1600
S':'
asbag49
(g70
g51
NtRp1601
(dp1602
g54
(dp1603
sg63
g1588
sg56
(lp1604
g49
(g50
g51
NtRp1605
(dp1606
g54
(dp1607
g62
I4
ssg63
g1601
sg56
(lp1608
S'<socket._fileobject object at 0x032596B0>'
p1609
asbasbasbag49
(g65
g51
NtRp1610
(dp1611
g54
(dp1612
sg63
g753
sg56
(lp1613
g49
(g70
g51
NtRp1614
(dp1615
g54
(dp1616
g74
g75
ssg63
g1610
sg56
(lp1617
S'wsgi_multiprocess'
p1618
asbag49
(g70
g51
NtRp1619
(dp1620
g54
(dp1621
g81
g82
ssg63
g1610
sg56
(lp1622
S':'
asbag49
(g70
g51
NtRp1623
(dp1624
g54
(dp1625
sg63
g1610
sg56
(lp1626
g49
(g50
g51
NtRp1627
(dp1628
g54
(dp1629
g62
I4
ssg63
g1623
sg56
(lp1630
g92
asbasbasbag49
(g65
g51
NtRp1631
(dp1632
g54
(dp1633
sg63
g753
sg56
(lp1634
g49
(g70
g51
NtRp1635
(dp1636
g54
(dp1637
g74
g75
ssg63
g1631
sg56
(lp1638
S'wsgi_multithread'
p1639
asbag49
(g70
g51
NtRp1640
(dp1641
g54
(dp1642
g81
g82
ssg63
g1631
sg56
(lp1643
S':'
asbag49
(g70
g51
NtRp1644
(dp1645
g54
(dp1646
sg63
g1631
sg56
(lp1647
g49
(g50
g51
NtRp1648
(dp1649
g54
(dp1650
g62
I4
ssg63
g1644
sg56
(lp1651
S'True'
p1652
asbasbasbag49
(g65
g51
NtRp1653
(dp1654
g54
(dp1655
sg63
g753
sg56
(lp1656
g49
(g70
g51
NtRp1657
(dp1658
g54
(dp1659
g74
g75
ssg63
g1653
sg56
(lp1660
S'wsgi_run_once'
p1661
asbag49
(g70
g51
NtRp1662
(dp1663
g54
(dp1664
g81
g82
ssg63
g1653
sg56
(lp1665
S':'
asbag49
(g70
g51
NtRp1666
(dp1667
g54
(dp1668
sg63
g1653
sg56
(lp1669
g49
(g50
g51
NtRp1670
(dp1671
g54
(dp1672
g62
I4
ssg63
g1666
sg56
(lp1673
g92
asbasbasbag49
(g65
g51
NtRp1674
(dp1675
g54
(dp1676
sg63
g753
sg56
(lp1677
g49
(g70
g51
NtRp1678
(dp1679
g54
(dp1680
g74
g75
ssg63
g1674
sg56
(lp1681
S'wsgi_url_scheme'
p1682
asbag49
(g70
g51
NtRp1683
(dp1684
g54
(dp1685
g81
g82
ssg63
g1674
sg56
(lp1686
S':'
asbag49
(g70
g51
NtRp1687
(dp1688
g54
(dp1689
sg63
g1674
sg56
(lp1690
g49
(g50
g51
NtRp1691
(dp1692
g54
(dp1693
g62
I4
ssg63
g1687
sg56
(lp1694
S'http'
p1695
asbasbasbag49
(g65
g51
NtRp1696
(dp1697
g54
(dp1698
sg63
g753
sg56
(lp1699
g49
(g70
g51
NtRp1700
(dp1701
g54
(dp1702
g74
g75
ssg63
g1696
sg56
(lp1703
S'wsgi_version'
p1704
asbag49
(g70
g51
NtRp1705
(dp1706
g54
(dp1707
g81
g82
ssg63
g1696
sg56
(lp1708
S':'
asbag49
(g70
g51
NtRp1709
(dp1710
g54
(dp1711
sg63
g1696
sg56
(lp1712
g49
(g50
g51
NtRp1713
(dp1714
g54
(dp1715
g62
I4
ssg63
g1709
sg56
(lp1716
g49
(g58
g51
NtRp1717
(dp1718
g54
(dp1719
g62
I3
ssg63
Nsg56
(lp1720
g49
(g65
g51
NtRp1721
(dp1722
g54
(dp1723
sg63
g1717
sg56
(lp1724
g49
(g70
g51
NtRp1725
(dp1726
g54
(dp1727
sg63
g1721
sg56
(lp1728
g49
(g50
g51
NtRp1729
(dp1730
g54
(dp1731
g62
I3
ssg63
g1725
sg56
(lp1732
S'1'
asbasbasbag49
(g65
g51
NtRp1733
(dp1734
g54
(dp1735
sg63
g1717
sg56
(lp1736
g49
(g70
g51
NtRp1737
(dp1738
g54
(dp1739
sg63
g1733
sg56
(lp1740
g49
(g50
g51
NtRp1741
(dp1742
g54
(dp1743
g62
I3
ssg63
g1737
sg56
(lp1744
S'0'
asbasbasbasbasbasbasbasbasbasbasbag49
(g65
g51
NtRp1745
(dp1746
g54
(dp1747
sg63
g59
sg56
(lp1748
g49
(g70
g51
NtRp1749
(dp1750
g54
(dp1751
g74
g75
ssg63
g1745
sg56
(lp1752
S'extension'
p1753
asbag49
(g70
g51
NtRp1754
(dp1755
g54
(dp1756
g81
g82
ssg63
g1745
sg56
(lp1757
S':'
asbag49
(g70
g51
NtRp1758
(dp1759
g54
(dp1760
sg63
g1745
sg56
(lp1761
g49
(g50
g51
NtRp1762
(dp1763
g54
(dp1764
g62
I5
ssg63
g1758
sg56
(lp1765
S'html'
p1766
asbasbasbag49
(g65
g51
NtRp1767
(dp1768
g54
(dp1769
sg63
g59
sg56
(lp1770
g49
(g70
g51
NtRp1771
(dp1772
g54
(dp1773
g74
g75
ssg63
g1767
sg56
(lp1774
S'folder'
p1775
asbag49
(g70
g51
NtRp1776
(dp1777
g54
(dp1778
g81
g82
ssg63
g1767
sg56
(lp1779
S':'
asbag49
(g70
g51
NtRp1780
(dp1781
g54
(dp1782
sg63
g1767
sg56
(lp1783
g49
(g50
g51
NtRp1784
(dp1785
g54
(dp1786
g62
I5
ssg63
g1780
sg56
(lp1787
S'D:\\Dise\xf1o Web\\Proyectos\\Parleyweb\\web2py\\applications\\musica\\'
p1788
asbasbasbag49
(g65
g51
NtRp1789
(dp1790
g54
(dp1791
sg63
g59
sg56
(lp1792
g49
(g70
g51
NtRp1793
(dp1794
g54
(dp1795
g74
g75
ssg63
g1789
sg56
(lp1796
S'function'
p1797
asbag49
(g70
g51
NtRp1798
(dp1799
g54
(dp1800
g81
g82
ssg63
g1789
sg56
(lp1801
S':'
asbag49
(g70
g51
NtRp1802
(dp1803
g54
(dp1804
sg63
g1789
sg56
(lp1805
g49
(g50
g51
NtRp1806
(dp1807
g54
(dp1808
g62
I5
ssg63
g1802
sg56
(lp1809
S'index'
p1810
asbasbasbag49
(g65
g51
NtRp1811
(dp1812
g54
(dp1813
sg63
g59
sg56
(lp1814
g49
(g70
g51
NtRp1815
(dp1816
g54
(dp1817
g74
g75
ssg63
g1811
sg56
(lp1818
S'get_vars'
p1819
asbag49
(g70
g51
NtRp1820
(dp1821
g54
(dp1822
g81
g82
ssg63
g1811
sg56
(lp1823
S':'
asbag49
(g70
g51
NtRp1824
(dp1825
g54
(dp1826
sg63
g1811
sg56
(lp1827
g49
(g50
g51
NtRp1828
(dp1829
g54
(dp1830
g62
I5
ssg63
g1824
sg56
(lp1831
g49
(g58
g51
NtRp1832
(dp1833
g54
(dp1834
g62
I4
ssg63
Nsg56
(lp1835
sbasbasbasbag49
(g65
g51
NtRp1836
(dp1837
g54
(dp1838
sg63
g59
sg56
(lp1839
g49
(g70
g51
NtRp1840
(dp1841
g54
(dp1842
g74
g75
ssg63
g1836
sg56
(lp1843
S'global_settings'
p1844
asbag49
(g70
g51
NtRp1845
(dp1846
g54
(dp1847
g81
g82
ssg63
g1836
sg56
(lp1848
S':'
asbag49
(g70
g51
NtRp1849
(dp1850
g54
(dp1851
sg63
g1836
sg56
(lp1852
g49
(g50
g51
NtRp1853
(dp1854
g54
(dp1855
g62
I5
ssg63
g1849
sg56
(lp1856
g49
(g58
g51
NtRp1857
(dp1858
g54
(dp1859
g62
I4
ssg63
Nsg56
(lp1860
g49
(g65
g51
NtRp1861
(dp1862
g54
(dp1863
sg63
g1857
sg56
(lp1864
g49
(g70
g51
NtRp1865
(dp1866
g54
(dp1867
g74
g75
ssg63
g1861
sg56
(lp1868
g765
asbag49
(g70
g51
NtRp1869
(dp1870
g54
(dp1871
g81
g82
ssg63
g1861
sg56
(lp1872
S':'
asbag49
(g70
g51
NtRp1873
(dp1874
g54
(dp1875
sg63
g1861
sg56
(lp1876
g49
(g50
g51
NtRp1877
(dp1878
g54
(dp1879
g62
I4
ssg63
g1873
sg56
(lp1880
S"set(['D:\\\\Dise\\xf1o Web\\\\Proyectos\\\\Parleyweb\\\\web2py\\\\applications\\\\musica\\\\', 'D:\\\\Dise\\xf1o Web\\\\Proyectos\\\\Parleyweb\\\\web2py\\\\applications\\\\webparley\\\\', 'D:\\\\Dise\\xf1o Web\\\\Proyectos\\\\Parleyweb\\\\web2py\\\\applications\\\\admin\\\\'])"
p1881
asbasbasbag49
(g65
g51
NtRp1882
(dp1883
g54
(dp1884
sg63
g1857
sg56
(lp1885
g49
(g70
g51
NtRp1886
(dp1887
g54
(dp1888
g74
g75
ssg63
g1882
sg56
(lp1889
g787
asbag49
(g70
g51
NtRp1890
(dp1891
g54
(dp1892
g81
g82
ssg63
g1882
sg56
(lp1893
S':'
asbag49
(g70
g51
NtRp1894
(dp1895
g54
(dp1896
sg63
g1882
sg56
(lp1897
g49
(g50
g51
NtRp1898
(dp1899
g54
(dp1900
g62
I4
ssg63
g1894
sg56
(lp1901
g800
asbasbasbag49
(g65
g51
NtRp1902
(dp1903
g54
(dp1904
sg63
g1857
sg56
(lp1905
g49
(g70
g51
NtRp1906
(dp1907
g54
(dp1908
g74
g75
ssg63
g1902
sg56
(lp1909
g809
asbag49
(g70
g51
NtRp1910
(dp1911
g54
(dp1912
g81
g82
ssg63
g1902
sg56
(lp1913
S':'
asbag49
(g70
g51
NtRp1914
(dp1915
g54
(dp1916
sg63
g1902
sg56
(lp1917
g49
(g50
g51
NtRp1918
(dp1919
g54
(dp1920
g62
I4
ssg63
g1914
sg56
(lp1921
g49
(g58
g51
NtRp1922
(dp1923
g54
(dp1924
g62
I3
ssg63
Nsg56
(lp1925
sbasbasbasbag49
(g65
g51
NtRp1926
(dp1927
g54
(dp1928
sg63
g1857
sg56
(lp1929
g49
(g70
g51
NtRp1930
(dp1931
g54
(dp1932
g74
g75
ssg63
g1926
sg56
(lp1933
g834
asbag49
(g70
g51
NtRp1934
(dp1935
g54
(dp1936
g81
g82
ssg63
g1926
sg56
(lp1937
S':'
asbag49
(g70
g51
NtRp1938
(dp1939
g54
(dp1940
sg63
g1926
sg56
(lp1941
g49
(g50
g51
NtRp1942
(dp1943
g54
(dp1944
g62
I4
ssg63
g1938
sg56
(lp1945
S"<Values at 0x325c260: {'verbose': False, 'ip': '127.0.0.1', 'shutdown_timeout': 5, 'taskbar': False, 'nocron': False, 'pid_filename': 'httpserver.pid', 'maxthreads': None, 'softcron': False, 'server_name': 'craxsnet-PC', 'bpython': False, 'nogui': False, 'port': 8000, 'extcron': False, 'debuglevel': 30, 'test': None, 'folder': 'D:\\\\Dise\\xf1o Web\\\\Proyectos\\\\Parleyweb\\\\web2py', 'config': '', 'import_models': False, 'winservice': '', 'shell': None, 'run': '', 'log_filename': 'httpserver.log', 'args': [''], 'socket_timeout': 5, 'ssl_ca_certificate': None, 'scheduler': None, 'profiler_filename': None, 'ssl_private_key': '', 'password': '<ask>', 'request_queue_size': 5, 'ssl_certificate': '', 'cronjob': False, 'numthreads': None, 'quiet': False, 'interfaces': None, 'minthreads': None, 'timeout': 10, 'plain': False, 'nobanner': False}>"
p1946
asbasbasbag49
(g65
g51
NtRp1947
(dp1948
g54
(dp1949
sg63
g1857
sg56
(lp1950
g49
(g70
g51
NtRp1951
(dp1952
g54
(dp1953
g74
g75
ssg63
g1947
sg56
(lp1954
g856
asbag49
(g70
g51
NtRp1955
(dp1956
g54
(dp1957
g81
g82
ssg63
g1947
sg56
(lp1958
S':'
asbag49
(g70
g51
NtRp1959
(dp1960
g54
(dp1961
sg63
g1947
sg56
(lp1962
g49
(g50
g51
NtRp1963
(dp1964
g54
(dp1965
g62
I4
ssg63
g1959
sg56
(lp1966
S'set([])'
p1967
asbasbasbag49
(g65
g51
NtRp1968
(dp1969
g54
(dp1970
sg63
g1857
sg56
(lp1971
g49
(g70
g51
NtRp1972
(dp1973
g54
(dp1974
g74
g75
ssg63
g1968
sg56
(lp1975
g878
asbag49
(g70
g51
NtRp1976
(dp1977
g54
(dp1978
g81
g82
ssg63
g1968
sg56
(lp1979
S':'
asbag49
(g70
g51
NtRp1980
(dp1981
g54
(dp1982
sg63
g1968
sg56
(lp1983
g49
(g50
g51
NtRp1984
(dp1985
g54
(dp1986
g62
I4
ssg63
g1980
sg56
(lp1987
g92
asbasbasbag49
(g65
g51
NtRp1988
(dp1989
g54
(dp1990
sg63
g1857
sg56
(lp1991
g49
(g70
g51
NtRp1992
(dp1993
g54
(dp1994
g74
g75
ssg63
g1988
sg56
(lp1995
g899
asbag49
(g70
g51
NtRp1996
(dp1997
g54
(dp1998
g81
g82
ssg63
g1988
sg56
(lp1999
S':'
asbag49
(g70
g51
NtRp2000
(dp2001
g54
(dp2002
sg63
g1988
sg56
(lp2003
g49
(g50
g51
NtRp2004
(dp2005
g54
(dp2006
g62
I4
ssg63
g2000
sg56
(lp2007
g912
asbasbasbag49
(g65
g51
NtRp2008
(dp2009
g54
(dp2010
sg63
g1857
sg56
(lp2011
g49
(g70
g51
NtRp2012
(dp2013
g54
(dp2014
g74
g75
ssg63
g2008
sg56
(lp2015
g1119
asbag49
(g70
g51
NtRp2016
(dp2017
g54
(dp2018
g81
g82
ssg63
g2008
sg56
(lp2019
S':'
asbag49
(g70
g51
NtRp2020
(dp2021
g54
(dp2022
sg63
g2008
sg56
(lp2023
g49
(g50
g51
NtRp2024
(dp2025
g54
(dp2026
g62
I4
ssg63
g2020
sg56
(lp2027
g92
asbasbasbag49
(g65
g51
NtRp2028
(dp2029
g54
(dp2030
sg63
g1857
sg56
(lp2031
g49
(g70
g51
NtRp2032
(dp2033
g54
(dp2034
g74
g75
ssg63
g2028
sg56
(lp2035
g1140
asbag49
(g70
g51
NtRp2036
(dp2037
g54
(dp2038
g81
g82
ssg63
g2028
sg56
(lp2039
S':'
asbag49
(g70
g51
NtRp2040
(dp2041
g54
(dp2042
sg63
g2028
sg56
(lp2043
g49
(g50
g51
NtRp2044
(dp2045
g54
(dp2046
g62
I4
ssg63
g2040
sg56
(lp2047
g92
asbasbasbag49
(g65
g51
NtRp2048
(dp2049
g54
(dp2050
sg63
g1857
sg56
(lp2051
g49
(g70
g51
NtRp2052
(dp2053
g54
(dp2054
g74
g75
ssg63
g2048
sg56
(lp2055
g1399
asbag49
(g70
g51
NtRp2056
(dp2057
g54
(dp2058
g81
g82
ssg63
g2048
sg56
(lp2059
S':'
asbag49
(g70
g51
NtRp2060
(dp2061
g54
(dp2062
sg63
g2048
sg56
(lp2063
g49
(g50
g51
NtRp2064
(dp2065
g54
(dp2066
g62
I4
ssg63
g2060
sg56
(lp2067
g1412
asbasbasbag49
(g65
g51
NtRp2068
(dp2069
g54
(dp2070
sg63
g1857
sg56
(lp2071
g49
(g70
g51
NtRp2072
(dp2073
g54
(dp2074
g74
g75
ssg63
g2068
sg56
(lp2075
g1464
asbag49
(g70
g51
NtRp2076
(dp2077
g54
(dp2078
g81
g82
ssg63
g2068
sg56
(lp2079
S':'
asbag49
(g70
g51
NtRp2080
(dp2081
g54
(dp2082
sg63
g2068
sg56
(lp2083
g49
(g50
g51
NtRp2084
(dp2085
g54
(dp2086
g62
I4
ssg63
g2080
sg56
(lp2087
g49
(g58
g51
NtRp2088
(dp2089
g54
(dp2090
g62
I3
ssg63
Nsg56
(lp2091
g49
(g65
g51
NtRp2092
(dp2093
g54
(dp2094
sg63
g2088
sg56
(lp2095
g49
(g70
g51
NtRp2096
(dp2097
g54
(dp2098
sg63
g2092
sg56
(lp2099
g49
(g50
g51
NtRp2100
(dp2101
g54
(dp2102
g62
I3
ssg63
g2096
sg56
(lp2103
S'1'
asbasbasbag49
(g65
g51
NtRp2104
(dp2105
g54
(dp2106
sg63
g2088
sg56
(lp2107
g49
(g70
g51
NtRp2108
(dp2109
g54
(dp2110
sg63
g2104
sg56
(lp2111
g49
(g50
g51
NtRp2112
(dp2113
g54
(dp2114
g62
I3
ssg63
g2108
sg56
(lp2115
S'99'
p2116
asbasbasbag49
(g65
g51
NtRp2117
(dp2118
g54
(dp2119
sg63
g2088
sg56
(lp2120
g49
(g70
g51
NtRp2121
(dp2122
g54
(dp2123
sg63
g2117
sg56
(lp2124
g49
(g50
g51
NtRp2125
(dp2126
g54
(dp2127
g62
I3
ssg63
g2121
sg56
(lp2128
S'7'
asbasbasbag49
(g65
g51
NtRp2129
(dp2130
g54
(dp2131
sg63
g2088
sg56
(lp2132
g49
(g70
g51
NtRp2133
(dp2134
g54
(dp2135
sg63
g2129
sg56
(lp2136
g49
(g50
g51
NtRp2137
(dp2138
g54
(dp2139
g62
I3
ssg63
g2133
sg56
(lp2140
S'datetime.datetime(2012, 3, 4, 22, 12, 8)'
p2141
asbasbasbag49
(g65
g51
NtRp2142
(dp2143
g54
(dp2144
sg63
g2088
sg56
(lp2145
g49
(g70
g51
NtRp2146
(dp2147
g54
(dp2148
sg63
g2142
sg56
(lp2149
g49
(g50
g51
NtRp2150
(dp2151
g54
(dp2152
g62
I3
ssg63
g2146
sg56
(lp2153
g1543
asbasbasbasbasbasbasbasbasbasbasbag49
(g65
g51
NtRp2154
(dp2155
g54
(dp2156
sg63
g59
sg56
(lp2157
g49
(g70
g51
NtRp2158
(dp2159
g54
(dp2160
g74
g75
ssg63
g2154
sg56
(lp2161
S'is_https'
p2162
asbag49
(g70
g51
NtRp2163
(dp2164
g54
(dp2165
g81
g82
ssg63
g2154
sg56
(lp2166
S':'
asbag49
(g70
g51
NtRp2167
(dp2168
g54
(dp2169
sg63
g2154
sg56
(lp2170
g49
(g50
g51
NtRp2171
(dp2172
g54
(dp2173
g62
I5
ssg63
g2167
sg56
(lp2174
g92
asbasbasbag49
(g65
g51
NtRp2175
(dp2176
g54
(dp2177
sg63
g59
sg56
(lp2178
g49
(g70
g51
NtRp2179
(dp2180
g54
(dp2181
g74
g75
ssg63
g2175
sg56
(lp2182
S'is_local'
p2183
asbag49
(g70
g51
NtRp2184
(dp2185
g54
(dp2186
g81
g82
ssg63
g2175
sg56
(lp2187
S':'
asbag49
(g70
g51
NtRp2188
(dp2189
g54
(dp2190
sg63
g2175
sg56
(lp2191
g49
(g50
g51
NtRp2192
(dp2193
g54
(dp2194
g62
I5
ssg63
g2188
sg56
(lp2195
g1652
asbasbasbag49
(g65
g51
NtRp2196
(dp2197
g54
(dp2198
sg63
g59
sg56
(lp2199
g49
(g70
g51
NtRp2200
(dp2201
g54
(dp2202
g74
g75
ssg63
g2196
sg56
(lp2203
S'is_restful'
p2204
asbag49
(g70
g51
NtRp2205
(dp2206
g54
(dp2207
g81
g82
ssg63
g2196
sg56
(lp2208
S':'
asbag49
(g70
g51
NtRp2209
(dp2210
g54
(dp2211
sg63
g2196
sg56
(lp2212
g49
(g50
g51
NtRp2213
(dp2214
g54
(dp2215
g62
I5
ssg63
g2209
sg56
(lp2216
g92
asbasbasbag49
(g65
g51
NtRp2217
(dp2218
g54
(dp2219
sg63
g59
sg56
(lp2220
g49
(g70
g51
NtRp2221
(dp2222
g54
(dp2223
g74
g75
ssg63
g2217
sg56
(lp2224
S'now'
p2225
asbag49
(g70
g51
NtRp2226
(dp2227
g54
(dp2228
g81
g82
ssg63
g2217
sg56
(lp2229
S':'
asbag49
(g70
g51
NtRp2230
(dp2231
g54
(dp2232
sg63
g2217
sg56
(lp2233
g49
(g50
g51
NtRp2234
(dp2235
g54
(dp2236
g62
I5
ssg63
g2230
sg56
(lp2237
S'datetime.datetime(2012, 3, 26, 16, 26, 14, 591000)'
p2238
asbasbasbag49
(g65
g51
NtRp2239
(dp2240
g54
(dp2241
sg63
g59
sg56
(lp2242
g49
(g70
g51
NtRp2243
(dp2244
g54
(dp2245
g74
g75
ssg63
g2239
sg56
(lp2246
S'post_vars'
p2247
asbag49
(g70
g51
NtRp2248
(dp2249
g54
(dp2250
g81
g82
ssg63
g2239
sg56
(lp2251
S':'
asbag49
(g70
g51
NtRp2252
(dp2253
g54
(dp2254
sg63
g2239
sg56
(lp2255
g49
(g50
g51
NtRp2256
(dp2257
g54
(dp2258
g62
I5
ssg63
g2252
sg56
(lp2259
g49
(g58
g51
NtRp2260
(dp2261
g54
(dp2262
g62
I4
ssg63
Nsg56
(lp2263
sbasbasbasbag49
(g65
g51
NtRp2264
(dp2265
g54
(dp2266
sg63
g59
sg56
(lp2267
g49
(g70
g51
NtRp2268
(dp2269
g54
(dp2270
g74
g75
ssg63
g2264
sg56
(lp2271
S'url'
p2272
asbag49
(g70
g51
NtRp2273
(dp2274
g54
(dp2275
g81
g82
ssg63
g2264
sg56
(lp2276
S':'
asbag49
(g70
g51
NtRp2277
(dp2278
g54
(dp2279
sg63
g2264
sg56
(lp2280
g49
(g50
g51
NtRp2281
(dp2282
g54
(dp2283
g62
I5
ssg63
g2277
sg56
(lp2284
S'/musica/default/index'
p2285
asbasbasbag49
(g65
g51
NtRp2286
(dp2287
g54
(dp2288
sg63
g59
sg56
(lp2289
g49
(g70
g51
NtRp2290
(dp2291
g54
(dp2292
g74
g75
ssg63
g2286
sg56
(lp2293
S'utcnow'
p2294
asbag49
(g70
g51
NtRp2295
(dp2296
g54
(dp2297
g81
g82
ssg63
g2286
sg56
(lp2298
S':'
asbag49
(g70
g51
NtRp2299
(dp2300
g54
(dp2301
sg63
g2286
sg56
(lp2302
g49
(g50
g51
NtRp2303
(dp2304
g54
(dp2305
g62
I5
ssg63
g2299
sg56
(lp2306
S'datetime.datetime(2012, 3, 26, 14, 26, 14, 591000)'
p2307
asbasbasbag49
(g65
g51
NtRp2308
(dp2309
g54
(dp2310
sg63
g59
sg56
(lp2311
g49
(g70
g51
NtRp2312
(dp2313
g54
(dp2314
g74
g75
ssg63
g2308
sg56
(lp2315
S'uuid'
p2316
asbag49
(g70
g51
NtRp2317
(dp2318
g54
(dp2319
g81
g82
ssg63
g2308
sg56
(lp2320
S':'
asbag49
(g70
g51
NtRp2321
(dp2322
g54
(dp2323
sg63
g2308
sg56
(lp2324
g49
(g50
g51
NtRp2325
(dp2326
g54
(dp2327
g62
I5
ssg63
g2321
sg56
(lp2328
S'musica/127.0.0.1.2012-03-26.16-26-14.82275bfa-9405-442f-8080-b1f00abc14f3'
p2329
asbasbasbag49
(g65
g51
NtRp2330
(dp2331
g54
(dp2332
sg63
g59
sg56
(lp2333
g49
(g70
g51
NtRp2334
(dp2335
g54
(dp2336
g74
g75
ssg63
g2330
sg56
(lp2337
S'vars'
p2338
asbag49
(g70
g51
NtRp2339
(dp2340
g54
(dp2341
g81
g82
ssg63
g2330
sg56
(lp2342
S':'
asbag49
(g70
g51
NtRp2343
(dp2344
g54
(dp2345
sg63
g2330
sg56
(lp2346
g49
(g50
g51
NtRp2347
(dp2348
g54
(dp2349
g62
I5
ssg63
g2343
sg56
(lp2350
g49
(g58
g51
NtRp2351
(dp2352
g54
(dp2353
g62
I4
ssg63
Nsg56
(lp2354
sbasbasbasbag49
(g65
g51
NtRp2355
(dp2356
g54
(dp2357
sg63
g59
sg56
(lp2358
g49
(g70
g51
NtRp2359
(dp2360
g54
(dp2361
g74
g75
ssg63
g2355
sg56
(lp2362
S'wsgi'
p2363
asbag49
(g70
g51
NtRp2364
(dp2365
g54
(dp2366
g81
g82
ssg63
g2355
sg56
(lp2367
S':'
asbag49
(g70
g51
NtRp2368
(dp2369
g54
(dp2370
sg63
g2355
sg56
(lp2371
g49
(g50
g51
NtRp2372
(dp2373
g54
(dp2374
g62
I5
ssg63
g2368
sg56
(lp2375
g49
(g58
g51
NtRp2376
(dp2377
g54
(dp2378
g62
I4
ssg63
Nsg56
(lp2379
g49
(g65
g51
NtRp2380
(dp2381
g54
(dp2382
sg63
g2376
sg56
(lp2383
g49
(g70
g51
NtRp2384
(dp2385
g54
(dp2386
g74
g75
ssg63
g2380
sg56
(lp2387
S'environ'
p2388
asbag49
(g70
g51
NtRp2389
(dp2390
g54
(dp2391
g81
g82
ssg63
g2380
sg56
(lp2392
S':'
asbag49
(g70
g51
NtRp2393
(dp2394
g54
(dp2395
sg63
g2380
sg56
(lp2396
g49
(g50
g51
NtRp2397
(dp2398
g54
(dp2399
g62
I4
ssg63
g2393
sg56
(lp2400
g49
(g58
g51
NtRp2401
(dp2402
g54
(dp2403
g62
I3
ssg63
Nsg56
(lp2404
g49
(g65
g51
NtRp2405
(dp2406
g54
(dp2407
sg63
g2401
sg56
(lp2408
g49
(g70
g51
NtRp2409
(dp2410
g54
(dp2411
g74
g75
ssg63
g2405
sg56
(lp2412
S'HTTP_ACCEPT'
p2413
asbag49
(g70
g51
NtRp2414
(dp2415
g54
(dp2416
g81
g82
ssg63
g2405
sg56
(lp2417
S':'
asbag49
(g70
g51
NtRp2418
(dp2419
g54
(dp2420
sg63
g2405
sg56
(lp2421
g49
(g50
g51
NtRp2422
(dp2423
g54
(dp2424
g62
I3
ssg63
g2418
sg56
(lp2425
g934
asbasbasbag49
(g65
g51
NtRp2426
(dp2427
g54
(dp2428
sg63
g2401
sg56
(lp2429
g49
(g70
g51
NtRp2430
(dp2431
g54
(dp2432
g74
g75
ssg63
g2426
sg56
(lp2433
S'HTTP_ACCEPT_ENCODING'
p2434
asbag49
(g70
g51
NtRp2435
(dp2436
g54
(dp2437
g81
g82
ssg63
g2426
sg56
(lp2438
S':'
asbag49
(g70
g51
NtRp2439
(dp2440
g54
(dp2441
sg63
g2426
sg56
(lp2442
g49
(g50
g51
NtRp2443
(dp2444
g54
(dp2445
g62
I3
ssg63
g2439
sg56
(lp2446
g956
asbasbasbag49
(g65
g51
NtRp2447
(dp2448
g54
(dp2449
sg63
g2401
sg56
(lp2450
g49
(g70
g51
NtRp2451
(dp2452
g54
(dp2453
g74
g75
ssg63
g2447
sg56
(lp2454
S'HTTP_ACCEPT_LANGUAGE'
p2455
asbag49
(g70
g51
NtRp2456
(dp2457
g54
(dp2458
g81
g82
ssg63
g2447
sg56
(lp2459
S':'
asbag49
(g70
g51
NtRp2460
(dp2461
g54
(dp2462
sg63
g2447
sg56
(lp2463
g49
(g50
g51
NtRp2464
(dp2465
g54
(dp2466
g62
I3
ssg63
g2460
sg56
(lp2467
g978
asbasbasbag49
(g65
g51
NtRp2468
(dp2469
g54
(dp2470
sg63
g2401
sg56
(lp2471
g49
(g70
g51
NtRp2472
(dp2473
g54
(dp2474
g74
g75
ssg63
g2468
sg56
(lp2475
S'HTTP_CACHE_CONTROL'
p2476
asbag49
(g70
g51
NtRp2477
(dp2478
g54
(dp2479
g81
g82
ssg63
g2468
sg56
(lp2480
S':'
asbag49
(g70
g51
NtRp2481
(dp2482
g54
(dp2483
sg63
g2468
sg56
(lp2484
g49
(g50
g51
NtRp2485
(dp2486
g54
(dp2487
g62
I3
ssg63
g2481
sg56
(lp2488
g1000
asbasbasbag49
(g65
g51
NtRp2489
(dp2490
g54
(dp2491
sg63
g2401
sg56
(lp2492
g49
(g70
g51
NtRp2493
(dp2494
g54
(dp2495
g74
g75
ssg63
g2489
sg56
(lp2496
S'HTTP_CONNECTION'
p2497
asbag49
(g70
g51
NtRp2498
(dp2499
g54
(dp2500
g81
g82
ssg63
g2489
sg56
(lp2501
S':'
asbag49
(g70
g51
NtRp2502
(dp2503
g54
(dp2504
sg63
g2489
sg56
(lp2505
g49
(g50
g51
NtRp2506
(dp2507
g54
(dp2508
g62
I3
ssg63
g2502
sg56
(lp2509
g1022
asbasbasbag49
(g65
g51
NtRp2510
(dp2511
g54
(dp2512
sg63
g2401
sg56
(lp2513
g49
(g70
g51
NtRp2514
(dp2515
g54
(dp2516
g74
g75
ssg63
g2510
sg56
(lp2517
S'HTTP_COOKIE'
p2518
asbag49
(g70
g51
NtRp2519
(dp2520
g54
(dp2521
g81
g82
ssg63
g2510
sg56
(lp2522
S':'
asbag49
(g70
g51
NtRp2523
(dp2524
g54
(dp2525
sg63
g2510
sg56
(lp2526
g49
(g50
g51
NtRp2527
(dp2528
g54
(dp2529
g62
I3
ssg63
g2523
sg56
(lp2530
g1044
asbasbasbag49
(g65
g51
NtRp2531
(dp2532
g54
(dp2533
sg63
g2401
sg56
(lp2534
g49
(g70
g51
NtRp2535
(dp2536
g54
(dp2537
g74
g75
ssg63
g2531
sg56
(lp2538
S'HTTP_HOST'
p2539
asbag49
(g70
g51
NtRp2540
(dp2541
g54
(dp2542
g81
g82
ssg63
g2531
sg56
(lp2543
S':'
asbag49
(g70
g51
NtRp2544
(dp2545
g54
(dp2546
sg63
g2531
sg56
(lp2547
g49
(g50
g51
NtRp2548
(dp2549
g54
(dp2550
g62
I3
ssg63
g2544
sg56
(lp2551
g1066
asbasbasbag49
(g65
g51
NtRp2552
(dp2553
g54
(dp2554
sg63
g2401
sg56
(lp2555
g49
(g70
g51
NtRp2556
(dp2557
g54
(dp2558
g74
g75
ssg63
g2552
sg56
(lp2559
S'HTTP_REFERER'
p2560
asbag49
(g70
g51
NtRp2561
(dp2562
g54
(dp2563
g81
g82
ssg63
g2552
sg56
(lp2564
S':'
asbag49
(g70
g51
NtRp2565
(dp2566
g54
(dp2567
sg63
g2552
sg56
(lp2568
g49
(g50
g51
NtRp2569
(dp2570
g54
(dp2571
g62
I3
ssg63
g2565
sg56
(lp2572
g1088
asbasbasbag49
(g65
g51
NtRp2573
(dp2574
g54
(dp2575
sg63
g2401
sg56
(lp2576
g49
(g70
g51
NtRp2577
(dp2578
g54
(dp2579
g74
g75
ssg63
g2573
sg56
(lp2580
S'HTTP_USER_AGENT'
p2581
asbag49
(g70
g51
NtRp2582
(dp2583
g54
(dp2584
g81
g82
ssg63
g2573
sg56
(lp2585
S':'
asbag49
(g70
g51
NtRp2586
(dp2587
g54
(dp2588
sg63
g2573
sg56
(lp2589
g49
(g50
g51
NtRp2590
(dp2591
g54
(dp2592
g62
I3
ssg63
g2586
sg56
(lp2593
g1110
asbasbasbag49
(g65
g51
NtRp2594
(dp2595
g54
(dp2596
sg63
g2401
sg56
(lp2597
g49
(g70
g51
NtRp2598
(dp2599
g54
(dp2600
g74
g75
ssg63
g2594
sg56
(lp2601
S'PATH_INFO'
p2602
asbag49
(g70
g51
NtRp2603
(dp2604
g54
(dp2605
g81
g82
ssg63
g2594
sg56
(lp2606
S':'
asbag49
(g70
g51
NtRp2607
(dp2608
g54
(dp2609
sg63
g2594
sg56
(lp2610
g49
(g50
g51
NtRp2611
(dp2612
g54
(dp2613
g62
I3
ssg63
g2607
sg56
(lp2614
g1174
asbasbasbag49
(g65
g51
NtRp2615
(dp2616
g54
(dp2617
sg63
g2401
sg56
(lp2618
g49
(g70
g51
NtRp2619
(dp2620
g54
(dp2621
g74
g75
ssg63
g2615
sg56
(lp2622
S'QUERY_STRING'
p2623
asbag49
(g70
g51
NtRp2624
(dp2625
g54
(dp2626
g81
g82
ssg63
g2615
sg56
(lp2627
S':'
asbag49
(g70
g51
NtRp2628
(dp2629
g54
(dp2630
sg63
g2615
sg56
(lp2631
g49
(g50
g51
NtRp2632
(dp2633
g54
(dp2634
g62
I3
ssg63
g2628
sg56
(lp2635
S''
asbasbasbag49
(g65
g51
NtRp2636
(dp2637
g54
(dp2638
sg63
g2401
sg56
(lp2639
g49
(g70
g51
NtRp2640
(dp2641
g54
(dp2642
g74
g75
ssg63
g2636
sg56
(lp2643
S'REMOTE_ADDR'
p2644
asbag49
(g70
g51
NtRp2645
(dp2646
g54
(dp2647
g81
g82
ssg63
g2636
sg56
(lp2648
S':'
asbag49
(g70
g51
NtRp2649
(dp2650
g54
(dp2651
sg63
g2636
sg56
(lp2652
g49
(g50
g51
NtRp2653
(dp2654
g54
(dp2655
g62
I3
ssg63
g2649
sg56
(lp2656
g182
asbasbasbag49
(g65
g51
NtRp2657
(dp2658
g54
(dp2659
sg63
g2401
sg56
(lp2660
g49
(g70
g51
NtRp2661
(dp2662
g54
(dp2663
g74
g75
ssg63
g2657
sg56
(lp2664
S'REMOTE_PORT'
p2665
asbag49
(g70
g51
NtRp2666
(dp2667
g54
(dp2668
g81
g82
ssg63
g2657
sg56
(lp2669
S':'
asbag49
(g70
g51
NtRp2670
(dp2671
g54
(dp2672
sg63
g2657
sg56
(lp2673
g49
(g50
g51
NtRp2674
(dp2675
g54
(dp2676
g62
I3
ssg63
g2670
sg56
(lp2677
g1238
asbasbasbag49
(g65
g51
NtRp2678
(dp2679
g54
(dp2680
sg63
g2401
sg56
(lp2681
g49
(g70
g51
NtRp2682
(dp2683
g54
(dp2684
g74
g75
ssg63
g2678
sg56
(lp2685
S'REQUEST_METHOD'
p2686
asbag49
(g70
g51
NtRp2687
(dp2688
g54
(dp2689
g81
g82
ssg63
g2678
sg56
(lp2690
S':'
asbag49
(g70
g51
NtRp2691
(dp2692
g54
(dp2693
sg63
g2678
sg56
(lp2694
g49
(g50
g51
NtRp2695
(dp2696
g54
(dp2697
g62
I3
ssg63
g2691
sg56
(lp2698
g1260
asbasbasbag49
(g65
g51
NtRp2699
(dp2700
g54
(dp2701
sg63
g2401
sg56
(lp2702
g49
(g70
g51
NtRp2703
(dp2704
g54
(dp2705
g74
g75
ssg63
g2699
sg56
(lp2706
S'REQUEST_URI'
p2707
asbag49
(g70
g51
NtRp2708
(dp2709
g54
(dp2710
g81
g82
ssg63
g2699
sg56
(lp2711
S':'
asbag49
(g70
g51
NtRp2712
(dp2713
g54
(dp2714
sg63
g2699
sg56
(lp2715
g49
(g50
g51
NtRp2716
(dp2717
g54
(dp2718
g62
I3
ssg63
g2712
sg56
(lp2719
g1174
asbasbasbag49
(g65
g51
NtRp2720
(dp2721
g54
(dp2722
sg63
g2401
sg56
(lp2723
g49
(g70
g51
NtRp2724
(dp2725
g54
(dp2726
g74
g75
ssg63
g2720
sg56
(lp2727
S'SCRIPT_NAME'
p2728
asbag49
(g70
g51
NtRp2729
(dp2730
g54
(dp2731
g81
g82
ssg63
g2720
sg56
(lp2732
S':'
asbag49
(g70
g51
NtRp2733
(dp2734
g54
(dp2735
sg63
g2720
sg56
(lp2736
g49
(g50
g51
NtRp2737
(dp2738
g54
(dp2739
g62
I3
ssg63
g2733
sg56
(lp2740
S''
asbasbasbag49
(g65
g51
NtRp2741
(dp2742
g54
(dp2743
sg63
g2401
sg56
(lp2744
g49
(g70
g51
NtRp2745
(dp2746
g54
(dp2747
g74
g75
ssg63
g2741
sg56
(lp2748
S'SERVER_NAME'
p2749
asbag49
(g70
g51
NtRp2750
(dp2751
g54
(dp2752
g81
g82
ssg63
g2741
sg56
(lp2753
S':'
asbag49
(g70
g51
NtRp2754
(dp2755
g54
(dp2756
sg63
g2741
sg56
(lp2757
g49
(g50
g51
NtRp2758
(dp2759
g54
(dp2760
g62
I3
ssg63
g2754
sg56
(lp2761
g1324
asbasbasbag49
(g65
g51
NtRp2762
(dp2763
g54
(dp2764
sg63
g2401
sg56
(lp2765
g49
(g70
g51
NtRp2766
(dp2767
g54
(dp2768
g74
g75
ssg63
g2762
sg56
(lp2769
S'SERVER_PORT'
p2770
asbag49
(g70
g51
NtRp2771
(dp2772
g54
(dp2773
g81
g82
ssg63
g2762
sg56
(lp2774
S':'
asbag49
(g70
g51
NtRp2775
(dp2776
g54
(dp2777
sg63
g2762
sg56
(lp2778
g49
(g50
g51
NtRp2779
(dp2780
g54
(dp2781
g62
I3
ssg63
g2775
sg56
(lp2782
g1346
asbasbasbag49
(g65
g51
NtRp2783
(dp2784
g54
(dp2785
sg63
g2401
sg56
(lp2786
g49
(g70
g51
NtRp2787
(dp2788
g54
(dp2789
g74
g75
ssg63
g2783
sg56
(lp2790
S'SERVER_PROTOCOL'
p2791
asbag49
(g70
g51
NtRp2792
(dp2793
g54
(dp2794
g81
g82
ssg63
g2783
sg56
(lp2795
S':'
asbag49
(g70
g51
NtRp2796
(dp2797
g54
(dp2798
sg63
g2783
sg56
(lp2799
g49
(g50
g51
NtRp2800
(dp2801
g54
(dp2802
g62
I3
ssg63
g2796
sg56
(lp2803
g1368
asbasbasbag49
(g65
g51
NtRp2804
(dp2805
g54
(dp2806
sg63
g2401
sg56
(lp2807
g49
(g70
g51
NtRp2808
(dp2809
g54
(dp2810
g74
g75
ssg63
g2804
sg56
(lp2811
S'SERVER_SOFTWARE'
p2812
asbag49
(g70
g51
NtRp2813
(dp2814
g54
(dp2815
g81
g82
ssg63
g2804
sg56
(lp2816
S':'
asbag49
(g70
g51
NtRp2817
(dp2818
g54
(dp2819
sg63
g2804
sg56
(lp2820
g49
(g50
g51
NtRp2821
(dp2822
g54
(dp2823
g62
I3
ssg63
g2817
sg56
(lp2824
g1390
asbasbasbag49
(g65
g51
NtRp2825
(dp2826
g54
(dp2827
sg63
g2401
sg56
(lp2828
g49
(g70
g51
NtRp2829
(dp2830
g54
(dp2831
g74
g75
ssg63
g2825
sg56
(lp2832
S'WEB2PY_ORIGINAL_URI'
p2833
asbag49
(g70
g51
NtRp2834
(dp2835
g54
(dp2836
g81
g82
ssg63
g2825
sg56
(lp2837
S':'
asbag49
(g70
g51
NtRp2838
(dp2839
g54
(dp2840
sg63
g2825
sg56
(lp2841
g49
(g50
g51
NtRp2842
(dp2843
g54
(dp2844
g62
I3
ssg63
g2838
sg56
(lp2845
g1434
asbasbasbag49
(g65
g51
NtRp2846
(dp2847
g54
(dp2848
sg63
g2401
sg56
(lp2849
g49
(g70
g51
NtRp2850
(dp2851
g54
(dp2852
g74
g75
ssg63
g2846
sg56
(lp2853
S'wsgi.errors'
p2854
asbag49
(g70
g51
NtRp2855
(dp2856
g54
(dp2857
g81
g82
ssg63
g2846
sg56
(lp2858
S':'
asbag49
(g70
g51
NtRp2859
(dp2860
g54
(dp2861
sg63
g2846
sg56
(lp2862
g49
(g50
g51
NtRp2863
(dp2864
g54
(dp2865
g62
I3
ssg63
g2859
sg56
(lp2866
S"<open file '<stderr>', mode 'w' at 0x005E00B0>"
p2867
asbasbasbag49
(g65
g51
NtRp2868
(dp2869
g54
(dp2870
sg63
g2401
sg56
(lp2871
g49
(g70
g51
NtRp2872
(dp2873
g54
(dp2874
g74
g75
ssg63
g2868
sg56
(lp2875
S'wsgi.file_wrapper'
p2876
asbag49
(g70
g51
NtRp2877
(dp2878
g54
(dp2879
g81
g82
ssg63
g2868
sg56
(lp2880
S':'
asbag49
(g70
g51
NtRp2881
(dp2882
g54
(dp2883
sg63
g2868
sg56
(lp2884
g49
(g50
g51
NtRp2885
(dp2886
g54
(dp2887
g62
I3
ssg63
g2881
sg56
(lp2888
S'<class wsgiref.util.FileWrapper at 0x03059390>'
p2889
asbasbasbag49
(g65
g51
NtRp2890
(dp2891
g54
(dp2892
sg63
g2401
sg56
(lp2893
g49
(g70
g51
NtRp2894
(dp2895
g54
(dp2896
g74
g75
ssg63
g2890
sg56
(lp2897
S'wsgi.input'
p2898
asbag49
(g70
g51
NtRp2899
(dp2900
g54
(dp2901
g81
g82
ssg63
g2890
sg56
(lp2902
S':'
asbag49
(g70
g51
NtRp2903
(dp2904
g54
(dp2905
sg63
g2890
sg56
(lp2906
g49
(g50
g51
NtRp2907
(dp2908
g54
(dp2909
g62
I3
ssg63
g2903
sg56
(lp2910
S'<cStringIO.StringO object at 0x0344BE20>'
p2911
asbasbasbag49
(g65
g51
NtRp2912
(dp2913
g54
(dp2914
sg63
g2401
sg56
(lp2915
g49
(g70
g51
NtRp2916
(dp2917
g54
(dp2918
g74
g75
ssg63
g2912
sg56
(lp2919
S'wsgi.multiprocess'
p2920
asbag49
(g70
g51
NtRp2921
(dp2922
g54
(dp2923
g81
g82
ssg63
g2912
sg56
(lp2924
S':'
asbag49
(g70
g51
NtRp2925
(dp2926
g54
(dp2927
sg63
g2912
sg56
(lp2928
g49
(g50
g51
NtRp2929
(dp2930
g54
(dp2931
g62
I3
ssg63
g2925
sg56
(lp2932
g92
asbasbasbag49
(g65
g51
NtRp2933
(dp2934
g54
(dp2935
sg63
g2401
sg56
(lp2936
g49
(g70
g51
NtRp2937
(dp2938
g54
(dp2939
g74
g75
ssg63
g2933
sg56
(lp2940
S'wsgi.multithread'
p2941
asbag49
(g70
g51
NtRp2942
(dp2943
g54
(dp2944
g81
g82
ssg63
g2933
sg56
(lp2945
S':'
asbag49
(g70
g51
NtRp2946
(dp2947
g54
(dp2948
sg63
g2933
sg56
(lp2949
g49
(g50
g51
NtRp2950
(dp2951
g54
(dp2952
g62
I3
ssg63
g2946
sg56
(lp2953
g1652
asbasbasbag49
(g65
g51
NtRp2954
(dp2955
g54
(dp2956
sg63
g2401
sg56
(lp2957
g49
(g70
g51
NtRp2958
(dp2959
g54
(dp2960
g74
g75
ssg63
g2954
sg56
(lp2961
S'wsgi.run_once'
p2962
asbag49
(g70
g51
NtRp2963
(dp2964
g54
(dp2965
g81
g82
ssg63
g2954
sg56
(lp2966
S':'
asbag49
(g70
g51
NtRp2967
(dp2968
g54
(dp2969
sg63
g2954
sg56
(lp2970
g49
(g50
g51
NtRp2971
(dp2972
g54
(dp2973
g62
I3
ssg63
g2967
sg56
(lp2974
g92
asbasbasbag49
(g65
g51
NtRp2975
(dp2976
g54
(dp2977
sg63
g2401
sg56
(lp2978
g49
(g70
g51
NtRp2979
(dp2980
g54
(dp2981
g74
g75
ssg63
g2975
sg56
(lp2982
S'wsgi.url_scheme'
p2983
asbag49
(g70
g51
NtRp2984
(dp2985
g54
(dp2986
g81
g82
ssg63
g2975
sg56
(lp2987
S':'
asbag49
(g70
g51
NtRp2988
(dp2989
g54
(dp2990
sg63
g2975
sg56
(lp2991
g49
(g50
g51
NtRp2992
(dp2993
g54
(dp2994
g62
I3
ssg63
g2988
sg56
(lp2995
g1695
asbasbasbag49
(g65
g51
NtRp2996
(dp2997
g54
(dp2998
sg63
g2401
sg56
(lp2999
g49
(g70
g51
NtRp3000
(dp3001
g54
(dp3002
g74
g75
ssg63
g2996
sg56
(lp3003
S'wsgi.version'
p3004
asbag49
(g70
g51
NtRp3005
(dp3006
g54
(dp3007
g81
g82
ssg63
g2996
sg56
(lp3008
S':'
asbag49
(g70
g51
NtRp3009
(dp3010
g54
(dp3011
sg63
g2996
sg56
(lp3012
g49
(g50
g51
NtRp3013
(dp3014
g54
(dp3015
g62
I3
ssg63
g3009
sg56
(lp3016
S'1'
asbasbasbasbasbasbasbasbasbasbasbasbasbsS'frames'
p3017
(lp3018
(dp3019
S'file'
p3020
S'D:\\Dise\xf1o Web\\Proyectos\\Parleyweb\\web2py\\gluon\\restricted.py'
p3021
sS'dump'
p3022
(dp3023
sS'lnum'
p3024
I205
sS'lines'
p3025
(dp3026
sS'call'
p3027
S"(code='# -*- coding: utf-8 -*-\\n# this file is released ...crud())\\n\\n\\nresponse._vars=response._caller(index)\\n', environment={'A': <class 'gluon.html.A'>, 'Auth': <class 'gluon.tools.Auth'>, 'B': <class 'gluon.html.B'>, 'BEAUTIFY': <class 'gluon.html.BEAUTIFY'>, 'BODY': <class 'gluon.html.BODY'>, 'BR': <class 'gluon.html.BR'>, 'BUTTON': <class 'gluon.html.BUTTON'>, 'CAT': <class 'gluon.html.CAT'>, 'CENTER': <class 'gluon.html.CENTER'>, 'CLEANUP': <class 'gluon.validators.CLEANUP'>, ...}, layer='D:\\\\Dise\\xf1o Web\\\\Proyectos\\\\Parleyweb\\\\web2py\\\\applications\\\\musica\\\\controllers/default.py')"
p3028
sS'func'
p3029
S'restricted'
p3030
sa(dp3031
g3020
S'D:\\Dise\xf1o Web\\Proyectos\\Parleyweb\\web2py\\applications\\musica\\controllers\\default.py'
p3032
sg3022
(dp3033
sg3024
I76
sg3025
(dp3034
I65
S'    http://..../[app]/default/data/delete/[table]/[id]'
p3035
sI66
S'    http://..../[app]/default/data/select/[table]'
p3036
sI67
S'    http://..../[app]/default/data/search/[table]'
p3037
sI68
S'    but URLs must be signed, i.e. linked with'
p3038
sI69
S"      A('table',_href=URL('data/tables',user_signature=True))"
p3039
sI70
S'    or with the signed load operator'
p3040
sI71
S"      LOAD('default','data.load',args='tables',ajax=True,user_signature=True)"
p3041
sI72
S'    """'
p3042
sI73
S'    return dict(form=crud())'
p3043
sI74
S''
ssg3027
S'()'
p3044
sg3029
S'<module>'
p3045
sa(dp3046
g3020
S'D:\\Dise\xf1o Web\\Proyectos\\Parleyweb\\web2py\\gluon\\globals.py'
p3047
sg3022
(dp3048
sg3024
I173
sg3025
(dp3049
sg3027
S'(f=<function index at 0x0682D3F0>)'
p3050
sg3029
S'<lambda>'
p3051
sa(dp3052
g3020
S'D:\\Dise\xf1o Web\\Proyectos\\Parleyweb\\web2py\\applications\\musica\\controllers\\default.py'
p3053
sg3022
(dp3054
sg3024
I18
sg3025
(dp3055
I13
S'    """'
p3056
sI14
S'    example action using the internationalization operator T and flash'
p3057
sI15
S'    rendered by views/default/index.html or views/generic.html'
p3058
sI16
S'    """'
p3059
sI17
S'    response.flash = "Welcome to web2py!"'
p3060
sI18
S'    return dict(message=T())'
p3061
sI19
S''
sI20
S'def otro():'
p3062
sI21
S'    return dict()'
p3063
sI22
S''
ssg3027
S'()'
p3064
sg3029
S'index'
p3065
sasS'pyver'
p3066
S'Python 2.5.4: D:\\Dise\xf1o Web\\Proyectos\\Parleyweb\\web2py\\web2py.exe'
p3067
sS'session'
p3068
g49
(g50
g51
NtRp3069
(dp3070
g54
(dp3071
sg56
(lp3072
g49
(g58
g51
NtRp3073
(dp3074
g54
(dp3075
g62
I5
ssg63
Nsg56
(lp3076
sbasbsS'etype'
p3077
S"<type 'exceptions.TypeError'>"
p3078
sS'date'
p3079
S'Mon Mar 26 16:26:14 2012'
p3080
sS'response'
p3081
g49
(g50
g51
NtRp3082
(dp3083
g54
(dp3084
sg56
(lp3085
g49
(g58
g51
NtRp3086
(dp3087
g54
(dp3088
g62
I5
ssg63
Nsg56
(lp3089
g49
(g65
g51
NtRp3090
(dp3091
g54
(dp3092
sg63
g3086
sg56
(lp3093
g49
(g70
g51
NtRp3094
(dp3095
g54
(dp3096
g74
g75
ssg63
g3090
sg56
(lp3097
g147
asbag49
(g70
g51
NtRp3098
(dp3099
g54
(dp3100
g81
g82
ssg63
g3090
sg56
(lp3101
S':'
asbag49
(g70
g51
NtRp3102
(dp3103
g54
(dp3104
sg63
g3090
sg56
(lp3105
g49
(g50
g51
NtRp3106
(dp3107
g54
(dp3108
g62
I5
ssg63
g3102
sg56
(lp3109
S'<cStringIO.StringO object at 0x0344BD00>'
p3110
asbasbasbag49
(g65
g51
NtRp3111
(dp3112
g54
(dp3113
sg63
g3086
sg56
(lp3114
g49
(g70
g51
NtRp3115
(dp3116
g54
(dp3117
g74
g75
ssg63
g3111
sg56
(lp3118
g213
asbag49
(g70
g51
NtRp3119
(dp3120
g54
(dp3121
g81
g82
ssg63
g3111
sg56
(lp3122
S':'
asbag49
(g70
g51
NtRp3123
(dp3124
g54
(dp3125
sg63
g3111
sg56
(lp3126
g49
(g50
g51
NtRp3127
(dp3128
g54
(dp3129
g62
I5
ssg63
g3123
sg56
(lp3130
g49
(g58
g51
NtRp3131
(dp3132
g54
(dp3133
g62
I4
ssg63
Nsg56
(lp3134
g49
(g65
g51
NtRp3135
(dp3136
g54
(dp3137
sg63
g3131
sg56
(lp3138
g49
(g70
g51
NtRp3139
(dp3140
g54
(dp3141
g74
g75
ssg63
g3135
sg56
(lp3142
S'session_id_musica'
p3143
asbag49
(g70
g51
NtRp3144
(dp3145
g54
(dp3146
g81
g82
ssg63
g3135
sg56
(lp3147
S':'
asbag49
(g70
g51
NtRp3148
(dp3149
g54
(dp3150
sg63
g3135
sg56
(lp3151
g49
(g50
g51
NtRp3152
(dp3153
g54
(dp3154
g62
I4
ssg63
g3148
sg56
(lp3155
g49
(g58
g51
NtRp3156
(dp3157
g54
(dp3158
g62
I3
ssg63
Nsg56
(lp3159
g49
(g65
g51
NtRp3160
(dp3161
g54
(dp3162
sg63
g3156
sg56
(lp3163
g49
(g70
g51
NtRp3164
(dp3165
g54
(dp3166
g74
g75
ssg63
g3160
sg56
(lp3167
g263
asbag49
(g70
g51
NtRp3168
(dp3169
g54
(dp3170
g81
g82
ssg63
g3160
sg56
(lp3171
S':'
asbag49
(g70
g51
NtRp3172
(dp3173
g54
(dp3174
sg63
g3160
sg56
(lp3175
g49
(g50
g51
NtRp3176
(dp3177
g54
(dp3178
g62
I3
ssg63
g3172
sg56
(lp3179
S''
asbasbasbag49
(g65
g51
NtRp3180
(dp3181
g54
(dp3182
sg63
g3156
sg56
(lp3183
g49
(g70
g51
NtRp3184
(dp3185
g54
(dp3186
g74
g75
ssg63
g3180
sg56
(lp3187
g284
asbag49
(g70
g51
NtRp3188
(dp3189
g54
(dp3190
g81
g82
ssg63
g3180
sg56
(lp3191
S':'
asbag49
(g70
g51
NtRp3192
(dp3193
g54
(dp3194
sg63
g3180
sg56
(lp3195
g49
(g50
g51
NtRp3196
(dp3197
g54
(dp3198
g62
I3
ssg63
g3192
sg56
(lp3199
S''
asbasbasbag49
(g65
g51
NtRp3200
(dp3201
g54
(dp3202
sg63
g3156
sg56
(lp3203
g49
(g70
g51
NtRp3204
(dp3205
g54
(dp3206
g74
g75
ssg63
g3200
sg56
(lp3207
g305
asbag49
(g70
g51
NtRp3208
(dp3209
g54
(dp3210
g81
g82
ssg63
g3200
sg56
(lp3211
S':'
asbag49
(g70
g51
NtRp3212
(dp3213
g54
(dp3214
sg63
g3200
sg56
(lp3215
g49
(g50
g51
NtRp3216
(dp3217
g54
(dp3218
g62
I3
ssg63
g3212
sg56
(lp3219
S''
asbasbasbag49
(g65
g51
NtRp3220
(dp3221
g54
(dp3222
sg63
g3156
sg56
(lp3223
g49
(g70
g51
NtRp3224
(dp3225
g54
(dp3226
g74
g75
ssg63
g3220
sg56
(lp3227
g326
asbag49
(g70
g51
NtRp3228
(dp3229
g54
(dp3230
g81
g82
ssg63
g3220
sg56
(lp3231
S':'
asbag49
(g70
g51
NtRp3232
(dp3233
g54
(dp3234
sg63
g3220
sg56
(lp3235
g49
(g50
g51
NtRp3236
(dp3237
g54
(dp3238
g62
I3
ssg63
g3232
sg56
(lp3239
S''
asbasbasbag49
(g65
g51
NtRp3240
(dp3241
g54
(dp3242
sg63
g3156
sg56
(lp3243
g49
(g70
g51
NtRp3244
(dp3245
g54
(dp3246
g74
g75
ssg63
g3240
sg56
(lp3247
g347
asbag49
(g70
g51
NtRp3248
(dp3249
g54
(dp3250
g81
g82
ssg63
g3240
sg56
(lp3251
S':'
asbag49
(g70
g51
NtRp3252
(dp3253
g54
(dp3254
sg63
g3240
sg56
(lp3255
g49
(g50
g51
NtRp3256
(dp3257
g54
(dp3258
g62
I3
ssg63
g3252
sg56
(lp3259
S'/'
asbasbasbag49
(g65
g51
NtRp3260
(dp3261
g54
(dp3262
sg63
g3156
sg56
(lp3263
g49
(g70
g51
NtRp3264
(dp3265
g54
(dp3266
g74
g75
ssg63
g3260
sg56
(lp3267
g368
asbag49
(g70
g51
NtRp3268
(dp3269
g54
(dp3270
g81
g82
ssg63
g3260
sg56
(lp3271
S':'
asbag49
(g70
g51
NtRp3272
(dp3273
g54
(dp3274
sg63
g3260
sg56
(lp3275
g49
(g50
g51
NtRp3276
(dp3277
g54
(dp3278
g62
I3
ssg63
g3272
sg56
(lp3279
S''
asbasbasbag49
(g65
g51
NtRp3280
(dp3281
g54
(dp3282
sg63
g3156
sg56
(lp3283
g49
(g70
g51
NtRp3284
(dp3285
g54
(dp3286
g74
g75
ssg63
g3280
sg56
(lp3287
g389
asbag49
(g70
g51
NtRp3288
(dp3289
g54
(dp3290
g81
g82
ssg63
g3280
sg56
(lp3291
S':'
asbag49
(g70
g51
NtRp3292
(dp3293
g54
(dp3294
sg63
g3280
sg56
(lp3295
g49
(g50
g51
NtRp3296
(dp3297
g54
(dp3298
g62
I3
ssg63
g3292
sg56
(lp3299
S''
asbasbasbasbasbasbasbasbasbasbasbag49
(g65
g51
NtRp3300
(dp3301
g54
(dp3302
sg63
g3086
sg56
(lp3303
g49
(g70
g51
NtRp3304
(dp3305
g54
(dp3306
g74
g75
ssg63
g3300
sg56
(lp3307
S'delimiters'
p3308
asbag49
(g70
g51
NtRp3309
(dp3310
g54
(dp3311
g81
g82
ssg63
g3300
sg56
(lp3312
S':'
asbag49
(g70
g51
NtRp3313
(dp3314
g54
(dp3315
sg63
g3300
sg56
(lp3316
g49
(g50
g51
NtRp3317
(dp3318
g54
(dp3319
g62
I5
ssg63
g3313
sg56
(lp3320
g49
(g58
g51
NtRp3321
(dp3322
g54
(dp3323
g62
I4
ssg63
Nsg56
(lp3324
g49
(g65
g51
NtRp3325
(dp3326
g54
(dp3327
sg63
g3321
sg56
(lp3328
g49
(g70
g51
NtRp3329
(dp3330
g54
(dp3331
sg63
g3325
sg56
(lp3332
g49
(g50
g51
NtRp3333
(dp3334
g54
(dp3335
g62
I4
ssg63
g3329
sg56
(lp3336
S'{{'
p3337
asbasbasbag49
(g65
g51
NtRp3338
(dp3339
g54
(dp3340
sg63
g3321
sg56
(lp3341
g49
(g70
g51
NtRp3342
(dp3343
g54
(dp3344
sg63
g3338
sg56
(lp3345
g49
(g50
g51
NtRp3346
(dp3347
g54
(dp3348
g62
I4
ssg63
g3342
sg56
(lp3349
S'}}'
p3350
asbasbasbasbasbasbasbag49
(g65
g51
NtRp3351
(dp3352
g54
(dp3353
sg63
g3086
sg56
(lp3354
g49
(g70
g51
NtRp3355
(dp3356
g54
(dp3357
g74
g75
ssg63
g3351
sg56
(lp3358
S'files'
p3359
asbag49
(g70
g51
NtRp3360
(dp3361
g54
(dp3362
g81
g82
ssg63
g3351
sg56
(lp3363
S':'
asbag49
(g70
g51
NtRp3364
(dp3365
g54
(dp3366
sg63
g3351
sg56
(lp3367
g49
(g50
g51
NtRp3368
(dp3369
g54
(dp3370
g62
I5
ssg63
g3364
sg56
(lp3371
g49
(g58
g51
NtRp3372
(dp3373
g54
(dp3374
g62
I4
ssg63
Nsg56
(lp3375
sbasbasbasbag49
(g65
g51
NtRp3376
(dp3377
g54
(dp3378
sg63
g3086
sg56
(lp3379
g49
(g70
g51
NtRp3380
(dp3381
g54
(dp3382
g74
g75
ssg63
g3376
sg56
(lp3383
S'flash'
p3384
asbag49
(g70
g51
NtRp3385
(dp3386
g54
(dp3387
g81
g82
ssg63
g3376
sg56
(lp3388
S':'
asbag49
(g70
g51
NtRp3389
(dp3390
g54
(dp3391
sg63
g3376
sg56
(lp3392
g49
(g50
g51
NtRp3393
(dp3394
g54
(dp3395
g62
I5
ssg63
g3389
sg56
(lp3396
S'Welcome to web2py!'
p3397
asbasbasbag49
(g65
g51
NtRp3398
(dp3399
g54
(dp3400
sg63
g3086
sg56
(lp3401
g49
(g70
g51
NtRp3402
(dp3403
g54
(dp3404
g74
g75
ssg63
g3398
sg56
(lp3405
S'generic_patterns'
p3406
asbag49
(g70
g51
NtRp3407
(dp3408
g54
(dp3409
g81
g82
ssg63
g3398
sg56
(lp3410
S':'
asbag49
(g70
g51
NtRp3411
(dp3412
g54
(dp3413
sg63
g3398
sg56
(lp3414
g49
(g50
g51
NtRp3415
(dp3416
g54
(dp3417
g62
I5
ssg63
g3411
sg56
(lp3418
g49
(g58
g51
NtRp3419
(dp3420
g54
(dp3421
g62
I4
ssg63
Nsg56
(lp3422
g49
(g65
g51
NtRp3423
(dp3424
g54
(dp3425
sg63
g3419
sg56
(lp3426
g49
(g70
g51
NtRp3427
(dp3428
g54
(dp3429
sg63
g3423
sg56
(lp3430
g49
(g50
g51
NtRp3431
(dp3432
g54
(dp3433
g62
I4
ssg63
g3427
sg56
(lp3434
S'*'
asbasbasbasbasbasbasbag49
(g65
g51
NtRp3435
(dp3436
g54
(dp3437
sg63
g3086
sg56
(lp3438
g49
(g70
g51
NtRp3439
(dp3440
g54
(dp3441
g74
g75
ssg63
g3435
sg56
(lp3442
S'headers'
p3443
asbag49
(g70
g51
NtRp3444
(dp3445
g54
(dp3446
g81
g82
ssg63
g3435
sg56
(lp3447
S':'
asbag49
(g70
g51
NtRp3448
(dp3449
g54
(dp3450
sg63
g3435
sg56
(lp3451
g49
(g50
g51
NtRp3452
(dp3453
g54
(dp3454
g62
I5
ssg63
g3448
sg56
(lp3455
g49
(g58
g51
NtRp3456
(dp3457
g54
(dp3458
g62
I4
ssg63
Nsg56
(lp3459
g49
(g65
g51
NtRp3460
(dp3461
g54
(dp3462
sg63
g3456
sg56
(lp3463
g49
(g70
g51
NtRp3464
(dp3465
g54
(dp3466
g74
g75
ssg63
g3460
sg56
(lp3467
S'Cache-Control'
p3468
asbag49
(g70
g51
NtRp3469
(dp3470
g54
(dp3471
g81
g82
ssg63
g3460
sg56
(lp3472
S':'
asbag49
(g70
g51
NtRp3473
(dp3474
g54
(dp3475
sg63
g3460
sg56
(lp3476
g49
(g50
g51
NtRp3477
(dp3478
g54
(dp3479
g62
I4
ssg63
g3473
sg56
(lp3480
S'no-store, no-cache, must-revalidate, post-check=0, pre-check=0'
p3481
asbasbasbag49
(g65
g51
NtRp3482
(dp3483
g54
(dp3484
sg63
g3456
sg56
(lp3485
g49
(g70
g51
NtRp3486
(dp3487
g54
(dp3488
g74
g75
ssg63
g3482
sg56
(lp3489
S'Content-Type'
p3490
asbag49
(g70
g51
NtRp3491
(dp3492
g54
(dp3493
g81
g82
ssg63
g3482
sg56
(lp3494
S':'
asbag49
(g70
g51
NtRp3495
(dp3496
g54
(dp3497
sg63
g3482
sg56
(lp3498
g49
(g50
g51
NtRp3499
(dp3500
g54
(dp3501
g62
I4
ssg63
g3495
sg56
(lp3502
S'text/html; charset=utf-8'
p3503
asbasbasbag49
(g65
g51
NtRp3504
(dp3505
g54
(dp3506
sg63
g3456
sg56
(lp3507
g49
(g70
g51
NtRp3508
(dp3509
g54
(dp3510
g74
g75
ssg63
g3504
sg56
(lp3511
S'Expires'
p3512
asbag49
(g70
g51
NtRp3513
(dp3514
g54
(dp3515
g81
g82
ssg63
g3504
sg56
(lp3516
S':'
asbag49
(g70
g51
NtRp3517
(dp3518
g54
(dp3519
sg63
g3504
sg56
(lp3520
g49
(g50
g51
NtRp3521
(dp3522
g54
(dp3523
g62
I4
ssg63
g3517
sg56
(lp3524
S'Mon, 26 Mar 2012 14:26:14 GMT'
p3525
asbasbasbag49
(g65
g51
NtRp3526
(dp3527
g54
(dp3528
sg63
g3456
sg56
(lp3529
g49
(g70
g51
NtRp3530
(dp3531
g54
(dp3532
g74
g75
ssg63
g3526
sg56
(lp3533
S'Pragma'
p3534
asbag49
(g70
g51
NtRp3535
(dp3536
g54
(dp3537
g81
g82
ssg63
g3526
sg56
(lp3538
S':'
asbag49
(g70
g51
NtRp3539
(dp3540
g54
(dp3541
sg63
g3526
sg56
(lp3542
g49
(g50
g51
NtRp3543
(dp3544
g54
(dp3545
g62
I4
ssg63
g3539
sg56
(lp3546
S'no-cache'
p3547
asbasbasbag49
(g65
g51
NtRp3548
(dp3549
g54
(dp3550
sg63
g3456
sg56
(lp3551
g49
(g70
g51
NtRp3552
(dp3553
g54
(dp3554
g74
g75
ssg63
g3548
sg56
(lp3555
S'X-Powered-By'
p3556
asbag49
(g70
g51
NtRp3557
(dp3558
g54
(dp3559
g81
g82
ssg63
g3548
sg56
(lp3560
S':'
asbag49
(g70
g51
NtRp3561
(dp3562
g54
(dp3563
sg63
g3548
sg56
(lp3564
g49
(g50
g51
NtRp3565
(dp3566
g54
(dp3567
g62
I4
ssg63
g3561
sg56
(lp3568
S'web2py'
p3569
asbasbasbasbasbasbasbag49
(g65
g51
NtRp3570
(dp3571
g54
(dp3572
sg63
g3086
sg56
(lp3573
g49
(g70
g51
NtRp3574
(dp3575
g54
(dp3576
g74
g75
ssg63
g3570
sg56
(lp3577
S'menu'
p3578
asbag49
(g70
g51
NtRp3579
(dp3580
g54
(dp3581
g81
g82
ssg63
g3570
sg56
(lp3582
S':'
asbag49
(g70
g51
NtRp3583
(dp3584
g54
(dp3585
sg63
g3570
sg56
(lp3586
g49
(g50
g51
NtRp3587
(dp3588
g54
(dp3589
g62
I5
ssg63
g3583
sg56
(lp3590
g49
(g58
g51
NtRp3591
(dp3592
g54
(dp3593
g62
I4
ssg63
Nsg56
(lp3594
g49
(g65
g51
NtRp3595
(dp3596
g54
(dp3597
sg63
g3591
sg56
(lp3598
g49
(g70
g51
NtRp3599
(dp3600
g54
(dp3601
sg63
g3595
sg56
(lp3602
g49
(g50
g51
NtRp3603
(dp3604
g54
(dp3605
g62
I4
ssg63
g3599
sg56
(lp3606
g49
(g58
g51
NtRp3607
(dp3608
g54
(dp3609
g62
I3
ssg63
Nsg56
(lp3610
g49
(g65
g51
NtRp3611
(dp3612
g54
(dp3613
sg63
g3607
sg56
(lp3614
g49
(g70
g51
NtRp3615
(dp3616
g54
(dp3617
sg63
g3611
sg56
(lp3618
g49
(g50
g51
NtRp3619
(dp3620
g54
(dp3621
g62
I3
ssg63
g3615
sg56
(lp3622
cgluon.languages
lazyT_unpickle
p3623
(S't\x04\x00\x00\x00Home'
tRp3624
asbasbasbag49
(g65
g51
NtRp3625
(dp3626
g54
(dp3627
sg63
g3607
sg56
(lp3628
g49
(g70
g51
NtRp3629
(dp3630
g54
(dp3631
sg63
g3625
sg56
(lp3632
g49
(g50
g51
NtRp3633
(dp3634
g54
(dp3635
g62
I3
ssg63
g3629
sg56
(lp3636
g92
asbasbasbag49
(g65
g51
NtRp3637
(dp3638
g54
(dp3639
sg63
g3607
sg56
(lp3640
g49
(g70
g51
NtRp3641
(dp3642
g54
(dp3643
sg63
g3637
sg56
(lp3644
g49
(g50
g51
NtRp3645
(dp3646
g54
(dp3647
g62
I3
ssg63
g3641
sg56
(lp3648
S'/musica/default/index'
p3649
asbasbasbag49
(g65
g51
NtRp3650
(dp3651
g54
(dp3652
sg63
g3607
sg56
(lp3653
g49
(g70
g51
NtRp3654
(dp3655
g54
(dp3656
sg63
g3650
sg56
(lp3657
g49
(g50
g51
NtRp3658
(dp3659
g54
(dp3660
g62
I3
ssg63
g3654
sg56
(lp3661
g49
(g58
g51
NtRp3662
(dp3663
g54
(dp3664
g62
I2
ssg63
Nsg56
(lp3665
sbasbasbasbasbasbasbasbag49
(g65
g51
NtRp3666
(dp3667
g54
(dp3668
sg63
g3591
sg56
(lp3669
g49
(g70
g51
NtRp3670
(dp3671
g54
(dp3672
sg63
g3666
sg56
(lp3673
g49
(g50
g51
NtRp3674
(dp3675
g54
(dp3676
g62
I4
ssg63
g3670
sg56
(lp3677
g49
(g58
g51
NtRp3678
(dp3679
g54
(dp3680
g62
I3
ssg63
Nsg56
(lp3681
g49
(g65
g51
NtRp3682
(dp3683
g54
(dp3684
sg63
g3678
sg56
(lp3685
g49
(g70
g51
NtRp3686
(dp3687
g54
(dp3688
sg63
g3682
sg56
(lp3689
g49
(g50
g51
NtRp3690
(dp3691
g54
(dp3692
g62
I3
ssg63
g3686
sg56
(lp3693
g49
(cgluon.html
SPAN
p3694
g51
NtRp3695
(dp3696
g54
(dp3697
g74
S'color:yellow'
p3698
ssg63
Nsg56
(lp3699
g3569
asbasbasbasbag49
(g65
g51
NtRp3700
(dp3701
g54
(dp3702
sg63
g3678
sg56
(lp3703
g49
(g70
g51
NtRp3704
(dp3705
g54
(dp3706
sg63
g3700
sg56
(lp3707
g49
(g50
g51
NtRp3708
(dp3709
g54
(dp3710
g62
I3
ssg63
g3704
sg56
(lp3711
g92
asbasbasbag49
(g65
g51
NtRp3712
(dp3713
g54
(dp3714
sg63
g3678
sg56
(lp3715
g49
(g70
g51
NtRp3716
(dp3717
g54
(dp3718
sg63
g3712
sg56
(lp3719
g49
(g50
g51
NtRp3720
(dp3721
g54
(dp3722
g62
I3
ssg63
g3716
sg56
(lp3723
S'None'
p3724
asbasbasbag49
(g65
g51
NtRp3725
(dp3726
g54
(dp3727
sg63
g3678
sg56
(lp3728
g49
(g70
g51
NtRp3729
(dp3730
g54
(dp3731
sg63
g3725
sg56
(lp3732
g49
(g50
g51
NtRp3733
(dp3734
g54
(dp3735
g62
I3
ssg63
g3729
sg56
(lp3736
g49
(g58
g51
NtRp3737
(dp3738
g54
(dp3739
g62
I2
ssg63
Nsg56
(lp3740
g49
(g65
g51
NtRp3741
(dp3742
g54
(dp3743
sg63
g3737
sg56
(lp3744
g49
(g70
g51
NtRp3745
(dp3746
g54
(dp3747
sg63
g3741
sg56
(lp3748
g49
(g50
g51
NtRp3749
(dp3750
g54
(dp3751
g62
I2
ssg63
g3745
sg56
(lp3752
g49
(g58
g51
NtRp3753
(dp3754
g54
(dp3755
g62
I1
ssg63
Nsg56
(lp3756
g49
(g65
g51
NtRp3757
(dp3758
g54
(dp3759
sg63
g3753
sg56
(lp3760
g49
(g70
g51
NtRp3761
(dp3762
g54
(dp3763
sg63
g3757
sg56
(lp3764
g49
(g50
g51
NtRp3765
(dp3766
g54
(dp3767
g62
I1
ssg63
g3761
sg56
(lp3768
g3623
(S's\x08\x00\x00\x00My Sites'
tRp3769
asbasbasbag49
(g65
g51
NtRp3770
(dp3771
g54
(dp3772
sg63
g3753
sg56
(lp3773
g49
(g70
g51
NtRp3774
(dp3775
g54
(dp3776
sg63
g3770
sg56
(lp3777
g49
(g50
g51
NtRp3778
(dp3779
g54
(dp3780
g62
I1
ssg63
g3774
sg56
(lp3781
I00
asbasbasbag49
(g65
g51
NtRp3782
(dp3783
g54
(dp3784
sg63
g3753
sg56
(lp3785
g49
(g70
g51
NtRp3786
(dp3787
g54
(dp3788
sg63
g3782
sg56
(lp3789
g49
(g50
g51
NtRp3790
(dp3791
g54
(dp3792
g62
I1
ssg63
g3786
sg56
(lp3793
S'/admin/default/site'
p3794
asbasbasbasbasbasbasbag49
(g65
g51
NtRp3795
(dp3796
g54
(dp3797
sg63
g3737
sg56
(lp3798
g49
(g70
g51
NtRp3799
(dp3800
g54
(dp3801
sg63
g3795
sg56
(lp3802
g49
(g50
g51
NtRp3803
(dp3804
g54
(dp3805
g62
I2
ssg63
g3799
sg56
(lp3806
g49
(g58
g51
NtRp3807
(dp3808
g54
(dp3809
g62
I1
ssg63
Nsg56
(lp3810
g49
(g65
g51
NtRp3811
(dp3812
g54
(dp3813
sg63
g3807
sg56
(lp3814
g49
(g70
g51
NtRp3815
(dp3816
g54
(dp3817
sg63
g3811
sg56
(lp3818
g49
(g50
g51
NtRp3819
(dp3820
g54
(dp3821
g62
I1
ssg63
g3815
sg56
(lp3822
g3623
(S's\x08\x00\x00\x00This App'
tRp3823
asbasbasbag49
(g65
g51
NtRp3824
(dp3825
g54
(dp3826
sg63
g3807
sg56
(lp3827
g49
(g70
g51
NtRp3828
(dp3829
g54
(dp3830
sg63
g3824
sg56
(lp3831
g49
(g50
g51
NtRp3832
(dp3833
g54
(dp3834
g62
I1
ssg63
g3828
sg56
(lp3835
I00
asbasbasbag49
(g65
g51
NtRp3836
(dp3837
g54
(dp3838
sg63
g3807
sg56
(lp3839
g49
(g70
g51
NtRp3840
(dp3841
g54
(dp3842
sg63
g3836
sg56
(lp3843
g49
(g50
g51
NtRp3844
(dp3845
g54
(dp3846
g62
I1
ssg63
g3840
sg56
(lp3847
S'/admin/default/design/musica'
p3848
asbasbasbag49
(g65
g51
NtRp3849
(dp3850
g54
(dp3851
sg63
g3807
sg56
(lp3852
g49
(g70
g51
NtRp3853
(dp3854
g54
(dp3855
sg63
g3849
sg56
(lp3856
g49
(g50
g51
NtRp3857
(dp3858
g54
(dp3859
g62
I1
ssg63
g3853
sg56
(lp3860
(lp3861
(g3623
(S't\x0b\x00\x00\x00Controlador'
tRp3862
I00
S'/admin/default/edit/musica/controllers/default.py'
tp3863
a(g3623
(S't\x05\x00\x00\x00Vista'
tRp3864
I00
S'/admin/default/edit/musica/views/default/index.html'
tp3865
a(g3623
(S's\x12\x00\x00\x00Dise\xc3\xb1o de p\xc3\xa1gina'
tRp3866
I00
S'/admin/default/edit/musica/views/layout.html'
tp3867
a(g3623
(S's\x0e\x00\x00\x00Hoja de estilo'
tRp3868
I00
S'/admin/default/edit/musica/static/css/web2py.css'
tp3869
a(g3623
(S's\x0b\x00\x00\x00Modelo "db"'
tRp3870
I00
S'/admin/default/edit/musica/models/db.py'
tp3871
a(g3623
(S's\r\x00\x00\x00Modelo "menu"'
tRp3872
I00
S'/admin/default/edit/musica/models/menu.py'
tp3873
a(g3623
(S's\r\x00\x00\x00Base de datos'
tRp3874
I00
S'/musica/appadmin/index'
tp3875
a(g3623
(S't\x06\x00\x00\x00Errors'
tRp3876
I00
S'/admin/default/errors/musica'
tp3877
a(g3623
(S's\t\x00\x00\x00Acerca de'
tRp3878
I00
S'/admin/default/about/musica'
tp3879
aasbasbasbasbasbasbasbag49
(g65
g51
NtRp3880
(dp3881
g54
(dp3882
sg63
g3737
sg56
(lp3883
g49
(g70
g51
NtRp3884
(dp3885
g54
(dp3886
sg63
g3880
sg56
(lp3887
g49
(g50
g51
NtRp3888
(dp3889
g54
(dp3890
g62
I2
ssg63
g3884
sg56
(lp3891
g49
(g58
g51
NtRp3892
(dp3893
g54
(dp3894
g62
I1
ssg63
Nsg56
(lp3895
g49
(g65
g51
NtRp3896
(dp3897
g54
(dp3898
sg63
g3892
sg56
(lp3899
g49
(g70
g51
NtRp3900
(dp3901
g54
(dp3902
sg63
g3896
sg56
(lp3903
g49
(g50
g51
NtRp3904
(dp3905
g54
(dp3906
g62
I1
ssg63
g3900
sg56
(lp3907
S'web2py.com'
p3908
asbasbasbag49
(g65
g51
NtRp3909
(dp3910
g54
(dp3911
sg63
g3892
sg56
(lp3912
g49
(g70
g51
NtRp3913
(dp3914
g54
(dp3915
sg63
g3909
sg56
(lp3916
g49
(g50
g51
NtRp3917
(dp3918
g54
(dp3919
g62
I1
ssg63
g3913
sg56
(lp3920
I00
asbasbasbag49
(g65
g51
NtRp3921
(dp3922
g54
(dp3923
sg63
g3892
sg56
(lp3924
g49
(g70
g51
NtRp3925
(dp3926
g54
(dp3927
sg63
g3921
sg56
(lp3928
g49
(g50
g51
NtRp3929
(dp3930
g54
(dp3931
g62
I1
ssg63
g3925
sg56
(lp3932
S'http://www.web2py.com'
p3933
asbasbasbag49
(g65
g51
NtRp3934
(dp3935
g54
(dp3936
sg63
g3892
sg56
(lp3937
g49
(g70
g51
NtRp3938
(dp3939
g54
(dp3940
sg63
g3934
sg56
(lp3941
g49
(g50
g51
NtRp3942
(dp3943
g54
(dp3944
g62
I1
ssg63
g3938
sg56
(lp3945
(lp3946
(g3623
(S't\x08\x00\x00\x00Download'
tRp3947
I00
S'http://www.web2py.com/examples/default/download'
p3948
tp3949
a(g3623
(S't\x07\x00\x00\x00Support'
tRp3950
I00
S'http://www.web2py.com/examples/default/support'
p3951
tp3952
a(g3623
(S't\x04\x00\x00\x00Demo'
tRp3953
I00
S'http://web2py.com/demo_admin'
p3954
tp3955
a(g3623
(S's\x0e\x00\x00\x00Quick Examples'
tRp3956
I00
S'http://web2py.com/examples/default/examples'
p3957
tp3958
a(g3623
(S't\x03\x00\x00\x00FAQ'
tRp3959
I00
S'http://web2py.com/AlterEgo'
p3960
tp3961
a(g3623
(S't\x06\x00\x00\x00Videos'
tRp3962
I00
S'http://www.web2py.com/examples/default/videos/'
p3963
tp3964
a(g3623
(S's\x11\x00\x00\x00Free Applications'
tRp3965
I00
S'http://web2py.com/appliances'
p3966
tp3967
a(g3623
(S't\x07\x00\x00\x00Plugins'
tRp3968
I00
S'http://web2py.com/plugins'
p3969
tp3970
a(g3623
(S't\x07\x00\x00\x00Layouts'
tRp3971
I00
S'http://web2py.com/layouts'
p3972
tp3973
a(g3623
(S't\x07\x00\x00\x00Recipes'
tRp3974
I00
S'http://web2pyslices.com/'
p3975
tp3976
a(g3623
(S't\x08\x00\x00\x00Semantic'
tRp3977
I00
S'http://web2py.com/semantic'
p3978
tp3979
aasbasbasbasbasbasbasbag49
(g65
g51
NtRp3980
(dp3981
g54
(dp3982
sg63
g3737
sg56
(lp3983
g49
(g70
g51
NtRp3984
(dp3985
g54
(dp3986
sg63
g3980
sg56
(lp3987
g49
(g50
g51
NtRp3988
(dp3989
g54
(dp3990
g62
I2
ssg63
g3984
sg56
(lp3991
g49
(g58
g51
NtRp3992
(dp3993
g54
(dp3994
g62
I1
ssg63
Nsg56
(lp3995
g49
(g65
g51
NtRp3996
(dp3997
g54
(dp3998
sg63
g3992
sg56
(lp3999
g49
(g70
g51
NtRp4000
(dp4001
g54
(dp4002
sg63
g3996
sg56
(lp4003
g49
(g50
g51
NtRp4004
(dp4005
g54
(dp4006
g62
I1
ssg63
g4000
sg56
(lp4007
g3623
(S's\x0e\x00\x00\x00Documentaci\xc3\xb3n'
tRp4008
asbasbasbag49
(g65
g51
NtRp4009
(dp4010
g54
(dp4011
sg63
g3992
sg56
(lp4012
g49
(g70
g51
NtRp4013
(dp4014
g54
(dp4015
sg63
g4009
sg56
(lp4016
g49
(g50
g51
NtRp4017
(dp4018
g54
(dp4019
g62
I1
ssg63
g4013
sg56
(lp4020
I00
asbasbasbag49
(g65
g51
NtRp4021
(dp4022
g54
(dp4023
sg63
g3992
sg56
(lp4024
g49
(g70
g51
NtRp4025
(dp4026
g54
(dp4027
sg63
g4021
sg56
(lp4028
g49
(g50
g51
NtRp4029
(dp4030
g54
(dp4031
g62
I1
ssg63
g4025
sg56
(lp4032
S'http://www.web2py.com/book'
p4033
asbasbasbag49
(g65
g51
NtRp4034
(dp4035
g54
(dp4036
sg63
g3992
sg56
(lp4037
g49
(g70
g51
NtRp4038
(dp4039
g54
(dp4040
sg63
g4034
sg56
(lp4041
g49
(g50
g51
NtRp4042
(dp4043
g54
(dp4044
g62
I1
ssg63
g4038
sg56
(lp4045
(lp4046
(g3623
(S't\x07\x00\x00\x00Preface'
tRp4047
I00
S'http://www.web2py.com/book/default/chapter/00'
p4048
tp4049
a(g3623
(S't\x0c\x00\x00\x00Introduction'
tRp4050
I00
S'http://www.web2py.com/book/default/chapter/01'
p4051
tp4052
a(g3623
(S't\x06\x00\x00\x00Python'
tRp4053
I00
S'http://www.web2py.com/book/default/chapter/02'
p4054
tp4055
a(g3623
(S't\x08\x00\x00\x00Overview'
tRp4056
I00
S'http://www.web2py.com/book/default/chapter/03'
p4057
tp4058
a(g3623
(S's\x08\x00\x00\x00The Core'
tRp4059
I00
S'http://www.web2py.com/book/default/chapter/04'
p4060
tp4061
a(g3623
(S's\t\x00\x00\x00The Views'
tRp4062
I00
S'http://www.web2py.com/book/default/chapter/05'
p4063
tp4064
a(g3623
(S's\r\x00\x00\x00Base de datos'
tRp4065
I00
S'http://www.web2py.com/book/default/chapter/06'
p4066
tp4067
a(g3623
(S's\x14\x00\x00\x00Forms and Validators'
tRp4068
I00
S'http://www.web2py.com/book/default/chapter/07'
p4069
tp4070
a(g3623
(S's\r\x00\x00\x00Email and SMS'
tRp4071
I00
S'http://www.web2py.com/book/default/chapter/08'
p4072
tp4073
a(g3623
(S's\x0e\x00\x00\x00Access Control'
tRp4074
I00
S'http://www.web2py.com/book/default/chapter/09'
p4075
tp4076
a(g3623
(S't\x08\x00\x00\x00Services'
tRp4077
I00
S'http://www.web2py.com/book/default/chapter/10'
p4078
tp4079
a(g3623
(S's\x0c\x00\x00\x00Ajax Recipes'
tRp4080
I00
S'http://www.web2py.com/book/default/chapter/11'
p4081
tp4082
a(g3623
(S's\x16\x00\x00\x00Components and Plugins'
tRp4083
I00
S'http://www.web2py.com/book/default/chapter/12'
p4084
tp4085
a(g3623
(S's\x12\x00\x00\x00Deployment Recipes'
tRp4086
I00
S'http://www.web2py.com/book/default/chapter/13'
p4087
tp4088
a(g3623
(S's\r\x00\x00\x00Other Recipes'
tRp4089
I00
S'http://www.web2py.com/book/default/chapter/14'
p4090
tp4091
a(g3623
(S's\r\x00\x00\x00Buy this book'
tRp4092
I00
S'http://stores.lulu.com/web2py'
p4093
tp4094
aasbasbasbasbasbasbasbag49
(g65
g51
NtRp4095
(dp4096
g54
(dp4097
sg63
g3737
sg56
(lp4098
g49
(g70
g51
NtRp4099
(dp4100
g54
(dp4101
sg63
g4095
sg56
(lp4102
g49
(g50
g51
NtRp4103
(dp4104
g54
(dp4105
g62
I2
ssg63
g4099
sg56
(lp4106
g49
(g58
g51
NtRp4107
(dp4108
g54
(dp4109
g62
I1
ssg63
Nsg56
(lp4110
g49
(g65
g51
NtRp4111
(dp4112
g54
(dp4113
sg63
g4107
sg56
(lp4114
g49
(g70
g51
NtRp4115
(dp4116
g54
(dp4117
sg63
g4111
sg56
(lp4118
g49
(g50
g51
NtRp4119
(dp4120
g54
(dp4121
g62
I1
ssg63
g4115
sg56
(lp4122
g3623
(S't\t\x00\x00\x00Community'
tRp4123
asbasbasbag49
(g65
g51
NtRp4124
(dp4125
g54
(dp4126
sg63
g4107
sg56
(lp4127
g49
(g70
g51
NtRp4128
(dp4129
g54
(dp4130
sg63
g4124
sg56
(lp4131
g49
(g50
g51
NtRp4132
(dp4133
g54
(dp4134
g62
I1
ssg63
g4128
sg56
(lp4135
I00
asbasbasbag49
(g65
g51
NtRp4136
(dp4137
g54
(dp4138
sg63
g4107
sg56
(lp4139
g49
(g70
g51
NtRp4140
(dp4141
g54
(dp4142
sg63
g4136
sg56
(lp4143
g49
(g50
g51
NtRp4144
(dp4145
g54
(dp4146
g62
I1
ssg63
g4140
sg56
(lp4147
Nasbasbasbag49
(g65
g51
NtRp4148
(dp4149
g54
(dp4150
sg63
g4107
sg56
(lp4151
g49
(g70
g51
NtRp4152
(dp4153
g54
(dp4154
sg63
g4148
sg56
(lp4155
g49
(g50
g51
NtRp4156
(dp4157
g54
(dp4158
g62
I1
ssg63
g4152
sg56
(lp4159
(lp4160
(g3623
(S't\x06\x00\x00\x00Groups'
tRp4161
I00
S'http://www.web2py.com/examples/default/usergroups'
p4162
tp4163
a(g3623
(S't\x07\x00\x00\x00Twitter'
tRp4164
I00
S'http://twitter.com/web2py'
p4165
tp4166
a(g3623
(S's\t\x00\x00\x00Live Chat'
tRp4167
I00
S'http://webchat.freenode.net/?channels=web2py'
p4168
tp4169
aasbasbasbasbasbasbasbag49
(g65
g51
NtRp4170
(dp4171
g54
(dp4172
sg63
g3737
sg56
(lp4173
g49
(g70
g51
NtRp4174
(dp4175
g54
(dp4176
sg63
g4170
sg56
(lp4177
g49
(g50
g51
NtRp4178
(dp4179
g54
(dp4180
g62
I2
ssg63
g4174
sg56
(lp4181
g49
(g58
g51
NtRp4182
(dp4183
g54
(dp4184
g62
I1
ssg63
Nsg56
(lp4185
g49
(g65
g51
NtRp4186
(dp4187
g54
(dp4188
sg63
g4182
sg56
(lp4189
g49
(g70
g51
NtRp4190
(dp4191
g54
(dp4192
sg63
g4186
sg56
(lp4193
g49
(g50
g51
NtRp4194
(dp4195
g54
(dp4196
g62
I1
ssg63
g4190
sg56
(lp4197
g3623
(S't\x07\x00\x00\x00Plugins'
tRp4198
asbasbasbag49
(g65
g51
NtRp4199
(dp4200
g54
(dp4201
sg63
g4182
sg56
(lp4202
g49
(g70
g51
NtRp4203
(dp4204
g54
(dp4205
sg63
g4199
sg56
(lp4206
g49
(g50
g51
NtRp4207
(dp4208
g54
(dp4209
g62
I1
ssg63
g4203
sg56
(lp4210
I00
asbasbasbag49
(g65
g51
NtRp4211
(dp4212
g54
(dp4213
sg63
g4182
sg56
(lp4214
g49
(g70
g51
NtRp4215
(dp4216
g54
(dp4217
sg63
g4211
sg56
(lp4218
g49
(g50
g51
NtRp4219
(dp4220
g54
(dp4221
g62
I1
ssg63
g4215
sg56
(lp4222
Nasbasbasbag49
(g65
g51
NtRp4223
(dp4224
g54
(dp4225
sg63
g4182
sg56
(lp4226
g49
(g70
g51
NtRp4227
(dp4228
g54
(dp4229
sg63
g4223
sg56
(lp4230
g49
(g50
g51
NtRp4231
(dp4232
g54
(dp4233
g62
I1
ssg63
g4227
sg56
(lp4234
(lp4235
(S'plugin_wiki'
p4236
I00
S'http://web2py.com/examples/default/download'
p4237
tp4238
a(g3623
(S's\r\x00\x00\x00Other Plugins'
tRp4239
I00
g3969
tp4240
a(g3623
(S's\x0e\x00\x00\x00Layout Plugins'
tRp4241
I00
g3972
tp4242
aasbasbasbasbasbasbasbasbasbasbasbasbasbasbasbasbasbasbasbag49
(g65
g51
NtRp4243
(dp4244
g54
(dp4245
sg63
g3086
sg56
(lp4246
g49
(g70
g51
NtRp4247
(dp4248
g54
(dp4249
g74
g75
ssg63
g4243
sg56
(lp4250
S'meta'
p4251
asbag49
(g70
g51
NtRp4252
(dp4253
g54
(dp4254
g81
g82
ssg63
g4243
sg56
(lp4255
S':'
asbag49
(g70
g51
NtRp4256
(dp4257
g54
(dp4258
sg63
g4243
sg56
(lp4259
g49
(g50
g51
NtRp4260
(dp4261
g54
(dp4262
g62
I5
ssg63
g4256
sg56
(lp4263
g49
(g58
g51
NtRp4264
(dp4265
g54
(dp4266
g62
I4
ssg63
Nsg56
(lp4267
g49
(g65
g51
NtRp4268
(dp4269
g54
(dp4270
sg63
g4264
sg56
(lp4271
g49
(g70
g51
NtRp4272
(dp4273
g54
(dp4274
g74
g75
ssg63
g4268
sg56
(lp4275
S'author'
p4276
asbag49
(g70
g51
NtRp4277
(dp4278
g54
(dp4279
g81
g82
ssg63
g4268
sg56
(lp4280
S':'
asbag49
(g70
g51
NtRp4281
(dp4282
g54
(dp4283
sg63
g4268
sg56
(lp4284
g49
(g50
g51
NtRp4285
(dp4286
g54
(dp4287
g62
I4
ssg63
g4281
sg56
(lp4288
S'Your Name <you@example.com>'
p4289
asbasbasbag49
(g65
g51
NtRp4290
(dp4291
g54
(dp4292
sg63
g4264
sg56
(lp4293
g49
(g70
g51
NtRp4294
(dp4295
g54
(dp4296
g74
g75
ssg63
g4290
sg56
(lp4297
S'copyright'
p4298
asbag49
(g70
g51
NtRp4299
(dp4300
g54
(dp4301
g81
g82
ssg63
g4290
sg56
(lp4302
S':'
asbag49
(g70
g51
NtRp4303
(dp4304
g54
(dp4305
sg63
g4290
sg56
(lp4306
g49
(g50
g51
NtRp4307
(dp4308
g54
(dp4309
g62
I4
ssg63
g4303
sg56
(lp4310
S'Copyright 2011'
p4311
asbasbasbag49
(g65
g51
NtRp4312
(dp4313
g54
(dp4314
sg63
g4264
sg56
(lp4315
g49
(g70
g51
NtRp4316
(dp4317
g54
(dp4318
g74
g75
ssg63
g4312
sg56
(lp4319
S'description'
p4320
asbag49
(g70
g51
NtRp4321
(dp4322
g54
(dp4323
g81
g82
ssg63
g4312
sg56
(lp4324
S':'
asbag49
(g70
g51
NtRp4325
(dp4326
g54
(dp4327
sg63
g4312
sg56
(lp4328
g49
(g50
g51
NtRp4329
(dp4330
g54
(dp4331
g62
I4
ssg63
g4325
sg56
(lp4332
S'a cool new app'
p4333
asbasbasbag49
(g65
g51
NtRp4334
(dp4335
g54
(dp4336
sg63
g4264
sg56
(lp4337
g49
(g70
g51
NtRp4338
(dp4339
g54
(dp4340
g74
g75
ssg63
g4334
sg56
(lp4341
S'generator'
p4342
asbag49
(g70
g51
NtRp4343
(dp4344
g54
(dp4345
g81
g82
ssg63
g4334
sg56
(lp4346
S':'
asbag49
(g70
g51
NtRp4347
(dp4348
g54
(dp4349
sg63
g4334
sg56
(lp4350
g49
(g50
g51
NtRp4351
(dp4352
g54
(dp4353
g62
I4
ssg63
g4347
sg56
(lp4354
S'Web2py Web Framework'
p4355
asbasbasbag49
(g65
g51
NtRp4356
(dp4357
g54
(dp4358
sg63
g4264
sg56
(lp4359
g49
(g70
g51
NtRp4360
(dp4361
g54
(dp4362
g74
g75
ssg63
g4356
sg56
(lp4363
S'keywords'
p4364
asbag49
(g70
g51
NtRp4365
(dp4366
g54
(dp4367
g81
g82
ssg63
g4356
sg56
(lp4368
S':'
asbag49
(g70
g51
NtRp4369
(dp4370
g54
(dp4371
sg63
g4356
sg56
(lp4372
g49
(g50
g51
NtRp4373
(dp4374
g54
(dp4375
g62
I4
ssg63
g4369
sg56
(lp4376
S'web2py, python, framework'
p4377
asbasbasbasbasbasbasbag49
(g65
g51
NtRp4378
(dp4379
g54
(dp4380
sg63
g3086
sg56
(lp4381
g49
(g70
g51
NtRp4382
(dp4383
g54
(dp4384
g74
g75
ssg63
g4378
sg56
(lp4385
S'postprocessing'
p4386
asbag49
(g70
g51
NtRp4387
(dp4388
g54
(dp4389
g81
g82
ssg63
g4378
sg56
(lp4390
S':'
asbag49
(g70
g51
NtRp4391
(dp4392
g54
(dp4393
sg63
g4378
sg56
(lp4394
g49
(g50
g51
NtRp4395
(dp4396
g54
(dp4397
g62
I5
ssg63
g4391
sg56
(lp4398
g49
(g58
g51
NtRp4399
(dp4400
g54
(dp4401
g62
I4
ssg63
Nsg56
(lp4402
sbasbasbasbag49
(g65
g51
NtRp4403
(dp4404
g54
(dp4405
sg63
g3086
sg56
(lp4406
g49
(g70
g51
NtRp4407
(dp4408
g54
(dp4409
g74
g75
ssg63
g4403
sg56
(lp4410
S'session_file'
p4411
asbag49
(g70
g51
NtRp4412
(dp4413
g54
(dp4414
g81
g82
ssg63
g4403
sg56
(lp4415
S':'
asbag49
(g70
g51
NtRp4416
(dp4417
g54
(dp4418
sg63
g4403
sg56
(lp4419
g49
(g50
g51
NtRp4420
(dp4421
g54
(dp4422
g62
I5
ssg63
g4416
sg56
(lp4423
S"<open file 'D:\\Dise\xf1o Web\\Proyectos\\Parleyweb\\web2py\\applications\\musica\\sessions\\127.0.0.1-ab1e7ac7-230e-4a77-8a75-c02e09e1db4b', mode 'rb+' at 0x06728410>"
p4424
asbasbasbag49
(g65
g51
NtRp4425
(dp4426
g54
(dp4427
sg63
g3086
sg56
(lp4428
g49
(g70
g51
NtRp4429
(dp4430
g54
(dp4431
g74
g75
ssg63
g4425
sg56
(lp4432
S'session_filename'
p4433
asbag49
(g70
g51
NtRp4434
(dp4435
g54
(dp4436
g81
g82
ssg63
g4425
sg56
(lp4437
S':'
asbag49
(g70
g51
NtRp4438
(dp4439
g54
(dp4440
sg63
g4425
sg56
(lp4441
g49
(g50
g51
NtRp4442
(dp4443
g54
(dp4444
g62
I5
ssg63
g4438
sg56
(lp4445
S'D:\\Dise\xf1o Web\\Proyectos\\Parleyweb\\web2py\\applications\\musica\\sessions\\127.0.0.1-ab1e7ac7-230e-4a77-8a75-c02e09e1db4b'
p4446
asbasbasbag49
(g65
g51
NtRp4447
(dp4448
g54
(dp4449
sg63
g3086
sg56
(lp4450
g49
(g70
g51
NtRp4451
(dp4452
g54
(dp4453
g74
g75
ssg63
g4447
sg56
(lp4454
S'session_id'
p4455
asbag49
(g70
g51
NtRp4456
(dp4457
g54
(dp4458
g81
g82
ssg63
g4447
sg56
(lp4459
S':'
asbag49
(g70
g51
NtRp4460
(dp4461
g54
(dp4462
sg63
g4447
sg56
(lp4463
g49
(g50
g51
NtRp4464
(dp4465
g54
(dp4466
g62
I5
ssg63
g4460
sg56
(lp4467
S'127.0.0.1-ab1e7ac7-230e-4a77-8a75-c02e09e1db4b'
p4468
asbasbasbag49
(g65
g51
NtRp4469
(dp4470
g54
(dp4471
sg63
g3086
sg56
(lp4472
g49
(g70
g51
NtRp4473
(dp4474
g54
(dp4475
g74
g75
ssg63
g4469
sg56
(lp4476
S'session_id_name'
p4477
asbag49
(g70
g51
NtRp4478
(dp4479
g54
(dp4480
g81
g82
ssg63
g4469
sg56
(lp4481
S':'
asbag49
(g70
g51
NtRp4482
(dp4483
g54
(dp4484
sg63
g4469
sg56
(lp4485
g49
(g50
g51
NtRp4486
(dp4487
g54
(dp4488
g62
I5
ssg63
g4482
sg56
(lp4489
g3143
asbasbasbag49
(g65
g51
NtRp4490
(dp4491
g54
(dp4492
sg63
g3086
sg56
(lp4493
g49
(g70
g51
NtRp4494
(dp4495
g54
(dp4496
g74
g75
ssg63
g4490
sg56
(lp4497
S'session_locked'
p4498
asbag49
(g70
g51
NtRp4499
(dp4500
g54
(dp4501
g81
g82
ssg63
g4490
sg56
(lp4502
S':'
asbag49
(g70
g51
NtRp4503
(dp4504
g54
(dp4505
sg63
g4490
sg56
(lp4506
g49
(g50
g51
NtRp4507
(dp4508
g54
(dp4509
g62
I5
ssg63
g4503
sg56
(lp4510
g1652
asbasbasbag49
(g65
g51
NtRp4511
(dp4512
g54
(dp4513
sg63
g3086
sg56
(lp4514
g49
(g70
g51
NtRp4515
(dp4516
g54
(dp4517
g74
g75
ssg63
g4511
sg56
(lp4518
S'session_new'
p4519
asbag49
(g70
g51
NtRp4520
(dp4521
g54
(dp4522
g81
g82
ssg63
g4511
sg56
(lp4523
S':'
asbag49
(g70
g51
NtRp4524
(dp4525
g54
(dp4526
sg63
g4511
sg56
(lp4527
g49
(g50
g51
NtRp4528
(dp4529
g54
(dp4530
g62
I5
ssg63
g4524
sg56
(lp4531
g92
asbasbasbag49
(g65
g51
NtRp4532
(dp4533
g54
(dp4534
sg63
g3086
sg56
(lp4535
g49
(g70
g51
NtRp4536
(dp4537
g54
(dp4538
g74
g75
ssg63
g4532
sg56
(lp4539
S'status'
p4540
asbag49
(g70
g51
NtRp4541
(dp4542
g54
(dp4543
g81
g82
ssg63
g4532
sg56
(lp4544
S':'
asbag49
(g70
g51
NtRp4545
(dp4546
g54
(dp4547
sg63
g4532
sg56
(lp4548
g49
(g50
g51
NtRp4549
(dp4550
g54
(dp4551
g62
I5
ssg63
g4545
sg56
(lp4552
S'200'
p4553
asbasbasbag49
(g65
g51
NtRp4554
(dp4555
g54
(dp4556
sg63
g3086
sg56
(lp4557
g49
(g70
g51
NtRp4558
(dp4559
g54
(dp4560
g74
g75
ssg63
g4554
sg56
(lp4561
S'subtitle'
p4562
asbag49
(g70
g51
NtRp4563
(dp4564
g54
(dp4565
g81
g82
ssg63
g4554
sg56
(lp4566
S':'
asbag49
(g70
g51
NtRp4567
(dp4568
g54
(dp4569
sg63
g4554
sg56
(lp4570
g49
(g50
g51
NtRp4571
(dp4572
g54
(dp4573
g62
I5
ssg63
g4567
sg56
(lp4574
g3623
(S's\t\x00\x00\x00Adaptame!'
tRp4575
asbasbasbag49
(g65
g51
NtRp4576
(dp4577
g54
(dp4578
sg63
g3086
sg56
(lp4579
g49
(g70
g51
NtRp4580
(dp4581
g54
(dp4582
g74
g75
ssg63
g4576
sg56
(lp4583
S'title'
p4584
asbag49
(g70
g51
NtRp4585
(dp4586
g54
(dp4587
g81
g82
ssg63
g4576
sg56
(lp4588
S':'
asbag49
(g70
g51
NtRp4589
(dp4590
g54
(dp4591
sg63
g4576
sg56
(lp4592
g49
(g50
g51
NtRp4593
(dp4594
g54
(dp4595
g62
I5
ssg63
g4589
sg56
(lp4596
S'Musica'
p4597
asbasbasbag49
(g65
g51
NtRp4598
(dp4599
g54
(dp4600
sg63
g3086
sg56
(lp4601
g49
(g70
g51
NtRp4602
(dp4603
g54
(dp4604
g74
g75
ssg63
g4598
sg56
(lp4605
g2316
asbag49
(g70
g51
NtRp4606
(dp4607
g54
(dp4608
g81
g82
ssg63
g4598
sg56
(lp4609
S':'
asbag49
(g70
g51
NtRp4610
(dp4611
g54
(dp4612
sg63
g4598
sg56
(lp4613
g49
(g50
g51
NtRp4614
(dp4615
g54
(dp4616
g62
I5
ssg63
g4610
sg56
(lp4617
g2329
asbasbasbag49
(g65
g51
NtRp4618
(dp4619
g54
(dp4620
sg63
g3086
sg56
(lp4621
g49
(g70
g51
NtRp4622
(dp4623
g54
(dp4624
g74
g75
ssg63
g4618
sg56
(lp4625
S'view'
p4626
asbag49
(g70
g51
NtRp4627
(dp4628
g54
(dp4629
g81
g82
ssg63
g4618
sg56
(lp4630
S':'
asbag49
(g70
g51
NtRp4631
(dp4632
g54
(dp4633
sg63
g4618
sg56
(lp4634
g49
(g50
g51
NtRp4635
(dp4636
g54
(dp4637
g62
I5
ssg63
g4631
sg56
(lp4638
S'default/index.html'
p4639
asbasbasbasbasbsS'locals'
p4640
(dp4641
ssS'traceback'
p4642
S'Traceback (most recent call last):\n  File "gluon/restricted.py", line 205, in restricted\n  File "D:\\Dise\xf1o Web\\Proyectos\\Parleyweb\\web2py\\applications\\musica\\controllers/default.py", line 76, in <module>\n  File "gluon/globals.py", line 173, in <lambda>\n  File "D:\\Dise\xf1o Web\\Proyectos\\Parleyweb\\web2py\\applications\\musica\\controllers/default.py", line 18, in index\nTypeError: __call__() takes at least 2 arguments (1 given)\n'
p4643
s.