(dp1
S'output'
p2
S"<type 'exceptions.KeyError'> 'ejemplo_de'"
p3
sS'layer'
p4
S'D:\\Dise\xf1o Web\\Proyectos\\Parleyweb\\web2py\\applications\\parleyweb\\views\\default/mostrar.html'
p5
sS'code'
p6
S'response.write(\'<!DOCTYPE html>\\n<!-- paulirish.com/2008/conditional-stylesheets-vs-css-hacks-answer-neither/ -->\\n<!--[if lt IE 7]><html class="ie ie6 ie-lte9 ie-lte8 ie-lte7 no-js" lang="\', escape=False)\nresponse.write(T.accepted_language or \'en\')\nresponse.write(\'"> <![endif]-->\\n<!--[if IE 7]><html class="ie ie7 ie-lte9 ie-lte8 ie-lte7 no-js" lang="\', escape=False)\nresponse.write(T.accepted_language or \'en\')\nresponse.write(\'"> <![endif]-->\\n<!--[if IE 8]><html class="ie ie8 ie-lte9 ie-lte8 no-js" lang="\', escape=False)\nresponse.write(T.accepted_language or \'en\')\nresponse.write(\'"> <![endif]-->\\n<!--[if IE 9]><html class="ie9 ie-lte9 no-js" lang="\', escape=False)\nresponse.write(T.accepted_language or \'en\')\nresponse.write(\'"> <![endif]-->\\n<!--[if (gt IE 9)|!(IE)]><!--> <html class="no-js" lang="\', escape=False)\nresponse.write(T.accepted_language or \'en\')\nresponse.write(\'"> <!--<![endif]-->\\n<head>\\n  <meta charset="utf-8" />\\n  <!-- www.phpied.com/conditional-comments-block-downloads/ -->\\n  <!-- Always force latest IE rendering engine\\n\\t   (even in intranet) & Chrome Frame\\n\\t   Remove this if you use the .htaccess -->\\n  <!--[if IE]>\\n    <meta http-equiv="X-UA-Compatible" content="IE=edge\', escape=False)\nresponse.write(not request.is_local and \',chrome=1\' or \'\')\nresponse.write(\'">\\n  <![endif]-->\\n  \\n  <title>\', escape=False)\nresponse.write(response.title or request.application)\nresponse.write(\'</title>\\n  \\n  <!-- http://dev.w3.org/html5/markup/meta.name.html -->\\n  <meta name="application-name" content="\', escape=False)\nresponse.write(request.application)\nresponse.write(\'" />\\n  \\n  <!-- Speaking of Google, don\\\'t forget to set your site up:\\n\\t   http://google.com/webmasters -->\\n  <meta name="google-site-verification" content="" />\\n\\n  <!--  Mobile Viewport Fix\\n\\t  j.mp/mobileviewport & davidbcalhoun.com/2010/viewport-metatag\\n\\t  device-width: Occupy full width of the screen in its current orientation\\n\\t  initial-scale = 1.0 retains dimensions instead of zooming out if page height > device height\\n\\t  user-scalable = yes allows the user to zoom in -->\\n  <meta name="viewport" content="width=device-width, initial-scale=1.0, user-scalable=yes">\\n  \\n  <!-- Place favicon.ico and apple-touch-icon.png in the root of your domain and delete these references -->\\n  <link rel="shortcut icon" href="\', escape=False)\nresponse.write(URL(\'static\',\'favicon.ico\'))\nresponse.write(\'" type="image/x-icon">\\n  <link rel="apple-touch-icon" href="\', escape=False)\nresponse.write(URL(\'static\',\'favicon.png\'))\nresponse.write(\'">\\n\\n  <!-- All JavaScript at the bottom, except for Modernizr which enables \\n\\t   HTML5 elements & feature detects -->\\n  <script src="\', escape=False)\nresponse.write(URL(\'static\',\'js/modernizr.custom.js\'))\nresponse.write(\'"></script>  \\n\\n  <!-- include stylesheets -->\\n  \', escape=False)\nresponse.files.append(URL(\'static\',\'css/bootstrap.css\'))\nresponse.files.append(URL(\'static\',\'js/bootstrap.js\'))\nresponse.files.append(URL(\'static\',\'css/parleyweb.css\'))\nresponse.files.append(URL(\'static\',\'css/jquery-ui-1.8.18.custom.css\'))\nresponse.files.append(URL(\'static\',\'js/parleyweb.js\'))\nresponse.files.append(URL(\'static\',\'js/jquery-ui-1.8.18.custom.min.js\'))\nresponse.write(\'\\n\\n  \', escape=False)\nresponse.write(\'<script type="text/javascript"><!--\\n    // These variables are used by the web2py_ajax_init function in web2py_ajax.js (which is loaded below).\\n    var w2p_ajax_confirm_message = "\', escape=False)\nresponse.write(T(\'Are you sure you want to delete this object?\'))\nresponse.write(\'";\\n    var w2p_ajax_date_format = "\', escape=False)\nresponse.write(T(\'%Y-%m-%d\'))\nresponse.write(\'";\\n    var w2p_ajax_datetime_format = "\', escape=False)\nresponse.write(T(\'%Y-%m-%d %H:%M:%S\'))\nresponse.write(\'";\\n    //--></script>\\n\', escape=False)\nresponse.files.insert(0,URL(\'static\',\'js/jquery.js\'))\nresponse.files.insert(1,URL(\'static\',\'css/calendar.css\'))\nresponse.files.insert(2,URL(\'static\',\'js/calendar.js\'))\nresponse.files.insert(3,URL(\'static\',\'js/web2py.js\'))\nresponse.include_meta()\nresponse.include_files()\nresponse.write(\'\\n\', escape=False)\nresponse.write(\'\\n\\n  \\n\\n  \', escape=False)\n# using sidebars need to know what sidebar you want to use\nleft_sidebar_enabled = globals().get(\'left_sidebar_enabled\',False)\nright_sidebar_enabled = globals().get(\'right_sidebar_enabled\',False)\nmiddle_columns = {0:\'sixteen\',1:\'twelve\',2:\'eight\'}[\n(left_sidebar_enabled and 1 or 0)+(right_sidebar_enabled and 1 or 0)]\nresponse.write(\'\\n\\n  <!-- uncomment here to load jquery-ui\\n  <link rel="stylesheet" href="http://ajax.googleapis.com/ajax/libs/jqueryui/1.8.16/themes/base/jquery-ui.css" type="text/css" media="all" />\\n  <script src="http://ajax.googleapis.com/ajax/libs/jqueryui/1.8.16/jquery-ui.min.js" type="text/javascript"></script>\\n  uncomment to load jquery-ui //-->\\n</head>\\n <body>\\n\\n    <div class="navbar navbar-fixed-top">\\n      <div class="navbar-inner">\\n        <div class="container-fluid">\\n          <a class="btn btn-navbar" data-toggle="collapse" data-target=".nav-collapse">\\n            <span class="icon-bar"></span>\\n            <span class="icon-bar"></span>\\n            <span class="icon-bar"></span>\\n          </a>\\n          <a class="brand" href="#">Parleyweb</a>\\n          <div class="nav-collapse">\\n\\t    \', escape=False)\n#=MENU(response.menu, _class="nav active")\nresponse.write(\'\\n            <ul class="nav">\\n              <li>\', escape=False)\nresponse.write(A(T(\'Administracion\'), _href=URL(\'admin\', \'index\')))\nresponse.write(\'</li>\\n            </ul>\\n\\t    \\n            <p class="navbar-text pull-right">\', escape=False)\nresponse.write(\'auth\' in globals() and auth.navbar(separators=(\' \',\' | \',\'\')))\nresponse.write(\'</p>\\n          </div><!--/.nav-collapse -->\\n        </div>\\n      </div>\\n    </div>\\n    <div class="flash alert alert-info"></i>\', escape=False)\nresponse.write(response.flash or \'\')\nresponse.write(\'</div>\\n    <div class="container-fluid">\\n      <div class="row-fluid">\\n        <div class="span3">\\n          <div class="well sidebar-nav">\\n            <ul class="nav nav-list">\\n              <li class="nav-header">\', escape=False)\nresponse.write(T(\'Buscar palabra\'))\nresponse.write(\'</li>\\n\\t      <li>\', escape=False)\nresponse.write(formulario_busqueda)\nresponse.write(\'</li>\\n            </ul>\\n          </div><!--/.well -->\\n        </div><!--/span-->\\n        <div class="span9">\\n\\t  \', escape=False)\nresponse.write(\'\\n\\t    \', escape=False)\nresponse.write(\'\\n\\n   \', escape=False)\nif palabras:\n    response.write(\'                                                             <!-- INICIO IF PALABRAS -->\\n   \\n        \\n        \\n       <h3 class="h3_redondo">\', escape=False)\n    response.write(palabras.palabra.capitalize())\n    response.write(\'</h3>\\n       \\n                                                                                <!-- SI LA PALABRA ES UN VERBO Y SUSTANTIVO A LA VEZ -->\\n       \\n        \', escape=False)\n    if palabras.sustantivo==True and palabras.verbo==True:\n        response.write(\'  <!-- 1 -->\\n        <div class="btn-group botones_mostrar" data-toggle="buttons-checkbox">\\n           <!-- <button class="btn btn-info " onclick=\\\'$("#toggle1-mostrar").slideToggle(200);\\\'>Mostrar como sustantivo</button> -->\\n            <button class="btn btn-info toggle-mostrar-verbo">\\n                <span class="mostrar-verbo"><i class="icon-plus-sign icon-white"></i> Mostrar verbo</span>\\n                <span class="ocultar-verbo hide"><i class="icon-minus-sign icon-white"></i> Ocultar</span>\\n            </button>\\n            <!--<button class="btn btn-info">Ambos</button> -->\\n            <button class="btn btn-info toggle-mostrar-sustantivo">\\n                <span class="mostrar-sustantivo"><i class="icon-plus-sign icon-white"></i> Mostrar sustantivo</span>\\n                <span class="ocultar-sustantivo hide"><i class="icon-minus-sign icon-white"></i> Ocultar</span>\\n            </button>\\n        </div>\\n        <div id="toggle-mostrar-verbo" class="hide">                            <!-- INICIO DIV OCULTO PARA MOSTRAR EL VERBO -->\\n            <div class="toggle-mostrar"><h4>Verbo</h4></div>\\n            <div class="wellparley2">\\n                <h4 class="h4-mostrar">Ejemplos</h4>\\n                <table class="table table-striped table-bordered">\\n                    <thead>\\n                        <tr>\\n                            <th>\', escape=False)\n        response.write(IMG(_src=URL(\'static\', \'images/germany.gif\')))\n        response.write(\'</th>\\n                            <th>\', escape=False)\n        response.write(IMG(_src=URL(\'static\', \'images/spain.gif\')))\n        response.write(\'</th>\\n                            <th>Fuente</th>\\n                        </tr>\\n                    </thead>\\n                    <tbody>\\n                       \\n                        \', escape=False)\n        for registro in ejemplos(db.ejemplos.verbo==True).select(db.ejemplos.ALL):\n            response.write(\'\\n                           \\n                        <tr>\\n                            <td>\\n                                \', escape=False)\n            response.write(registro.ejemplo_de)\n            response.write(\'\\n                            </td>\\n                            <td>\\n                                \', escape=False)\n            response.write(registro.ejemplo_es)\n            response.write(\'\\n                               \\n                            </td>\\n                               \\n                            <td>\\n                                 \', escape=False)\n            if registro.fuente:\n                response.write(\'\\n                                    \', escape=False)\n                response.write(registro.fuente.nombre)\n                response.write(\'\\n                                \', escape=False)\n                pass\n            response.write(\'\\n                            </td>\\n                        </tr>\\n                        \', escape=False)\n            pass\n        response.write(\'\\n                    </tbody>\\n                </table>\\n                \\n            </div>\\n        </div>                                                                  <!-- FIN DIV OCULTO PARA MOSTRAR EL VERBO -->\\n        \\n        \\n        <div id="toggle-mostrar-sustantivo" class="hide">                       <!-- INICIO DIV OCULTO PARA MOSTRAR EL SUSTANTIVO -->\\n            <div class="toggle-mostrar">\\n                <h4>Sustantivo</h4>\\n                <a href="#" class="tip" rel="tooltip" \', escape=False)\n        if palabras.articulo==\'Die\':\n            response.write(\'\\n                                                            title="Femenino"\\n                                                        \', escape=False)\n        elif palabras.articulo==\'Der\':\n            response.write(\'\\n                                                            title="Masculino"\\n                                                        \', escape=False)\n        elif palabras.articulo==\'Das\':\n            response.write(\'\\n                                                            title="Neutro"\\n                                                        \', escape=False)\n        else:\n            response.write(\'\\n                                                            title="No hay"\\n                                                        \', escape=False)\n            pass\n        response.write(\'>\\n                    \', escape=False)\n        response.write(palabras.articulo.capitalize())\n        response.write(\'\\n                </a>\\n                <span>\', escape=False)\n        response.write(palabras.palabra.capitalize())\n        response.write(\'</span>\\n                <span>-</span>\\n                <a href="#" class="tip" rel="tooltip" title="Plural">(\', escape=False)\n        response.write(palabras.plural)\n        response.write(\')</a>\\n                <a href="#" class="float_right tip img ocultar-tip"  rel="tooltip" title="Mostrar"><i class="icon-camera icon-white"></i></a>\\n                <a href="#" class="float_right tip img mostrar-tip" id="ocultar-tip" rel="tooltip" title="Ocultar"><i class="icon-camera icon-white"></i></a>\\n            </div>\\n            <div class="wellparley2">\\n                <div id="imagen-sustantivo" class="hide"> \\n                    \', escape=False)\n        if not palabras.imagen:\n            response.write(\'\\n                        <p>No hay imagen</p>\\n                    \', escape=False)\n        else:\n            response.write(\'\\n                        <img class="img-sustantivo" src="\', escape=False)\n            response.write(URL(\'download\', args=palabras.imagen))\n            response.write(\'" />\\n                    \', escape=False)\n            pass\n        response.write(\'\\n                </div>\\n                <h4 class="h4-mostrar">Ejemplos</h4>\\n                <table class="table table-striped table-bordered">\\n                    <thead>\\n                        <tr>\\n                            <th>\', escape=False)\n        response.write(IMG(_src=URL(\'static\', \'images/germany.gif\')))\n        response.write(\'</th>\\n                            <th>\', escape=False)\n        response.write(IMG(_src=URL(\'static\', \'images/spain.gif\')))\n        response.write(\'</th>\\n                            <th>Fuente</th>\\n                        </tr>\\n                    </thead>\\n                    <tbody>\\n                        \', escape=False)\n        for registro in ejemplos(db.ejemplos.sustantivo==True).select(db.ejemplos.ALL):\n            response.write(\'\\n                        <tr>\\n                            <td>\\n                                \', escape=False)\n            response.write(registro.ejemplo_de)\n            response.write(\'\\n                            </td>\\n                            <td>\\n                                \', escape=False)\n            response.write(registro.ejemplo_es)\n            response.write(\'\\n                            </td>\\n                               \\n                            <td>\\n                                 \', escape=False)\n            if registro.fuente:\n                response.write(\'\\n                                    \', escape=False)\n                response.write(registro.fuente.nombre)\n                response.write(\'\\n                                \', escape=False)\n                pass\n            response.write(\'\\n                            </td>\\n                        </tr>\\n                        \', escape=False)\n            pass\n        response.write(\'\\n                    </tbody>\\n                </table>\\n            </div>\\n        </div>                                                                  <!-- FIN DIV OCULTO PARA MOSTRAR EL SUSTANTIVO -->\\n        \\n                                                                                <!-- FIN SI LA PALABRA ES UN SUSTANTIVO Y VERBO A LA VEZ -->\\n                        \\n                                                                                 <!-- SI LA PALABRA ES SOLO UN SUSTANTIVO -->\\n        \\n        \', escape=False)\n    elif palabras.sustantivo==True:\n        response.write(\' <!-- 2 -->\\n            <div class="toggle-mostrar">\\n                <h4>Sustantivo</h4>\\n                <a href="#" class="tip" rel="tooltip" \', escape=False)\n        if palabras.articulo==\'Die\':\n            response.write(\'\\n                                                            title="Femenino"\\n                                                        \', escape=False)\n        elif palabras.articulo==\'Der\':\n            response.write(\'\\n                                                            title="Masculino"\\n                                                        \', escape=False)\n        elif palabras.articulo==\'Das\':\n            response.write(\'\\n                                                            title="Neutro"\\n                                                        \', escape=False)\n        else:\n            response.write(\'\\n                                                            title="No hay"\\n                                                        \', escape=False)\n            pass\n        response.write(\'>\\n                    \', escape=False)\n        response.write(palabras.articulo.capitalize())\n        response.write(\'\\n                </a>\\n                <span>\', escape=False)\n        response.write(palabras.palabra.capitalize())\n        response.write(\'</span>\\n                <span>-</span>\\n                <a href="#" class="tip" rel="tooltip" title="Plural">(\', escape=False)\n        response.write(palabras.plural)\n        response.write(\')</a>\\n                <a href="#" class="float_right tip img ocultar-tip"  rel="tooltip" title="Mostrar"><i class="icon-camera icon-white"></i></a>\\n                <a href="#" class="float_right tip img mostrar-tip" id="ocultar-tip" rel="tooltip" title="Ocultar"><i class="icon-camera icon-white"></i></a>\\n            </div>\\n            <div class="wellparley2">\\n                <div id="imagen-sustantivo" class="hide"> \\n                    \', escape=False)\n        if not palabras.imagen:\n            response.write(\'\\n                        <p>No hay imagen</p>\\n                    \', escape=False)\n        else:\n            response.write(\'\\n                        <img class="img-sustantivo" src="\', escape=False)\n            response.write(URL(\'download\', args=palabras.imagen))\n            response.write(\'" />\\n                    \', escape=False)\n            pass\n        response.write(\'\\n                </div>\\n                <h4 class="h4-mostrar">Ejemplos</h4>\\n                <table class="table table-striped table-bordered">\\n                    <tbody>\\n                        <thead>\\n                        <tr>\\n                            <th>\', escape=False)\n        response.write(IMG(_src=URL(\'static\', \'images/germany.gif\')))\n        response.write(\'</th>\\n                            <th>\', escape=False)\n        response.write(IMG(_src=URL(\'static\', \'images/spain.gif\')))\n        response.write(\'</th>\\n                            <th>Fuente</th>\\n                        </tr>\\n                    </thead>\\n                          \', escape=False)\n        for registro in ejemplos(db.ejemplos.sustantivo==True).select(db.ejemplos.ALL):\n            response.write(\'\\n                        <tr>\\n                            <td>\\n                                \', escape=False)\n            response.write(registro.ejemplo_de)\n            response.write(\'\\n                            </td>\\n                            <td>\\n                                \', escape=False)\n            response.write(registro.ejemplo_es)\n            response.write(\'\\n                            </td>\\n                               \\n                            <td>\\n                                 \', escape=False)\n            if registro.fuente:\n                response.write(\'\\n                                    \', escape=False)\n                response.write(registro.fuente.nombre)\n                response.write(\'\\n                                \', escape=False)\n                pass\n            response.write(\'\\n                            </td>\\n                        </tr>\\n                        \', escape=False)\n            pass\n        response.write(\'\\n                    </tbody>\\n                </table>\\n            </div>\\n            \\n        \', escape=False)\n    elif palabras.adjetivo==True and palabras.adverbio==True:\n        response.write(\'           <!-- SI LA PALABRAS ES UN ADJETIVO Y UN ADVERBIO -->\\n            <div class="btn-group botones_mostrar" data-toggle="buttons-checkbox">\\n           <!-- <button class="btn btn-info " onclick=\\\'$("#toggle1-mostrar").slideToggle(200);\\\'>Mostrar como sustantivo</button> -->\\n            <button class="btn btn-info toggle-mostrar-verbo">\\n                <span class="mostrar-verbo"><i class="icon-plus-sign icon-white"></i> Mostrar Adverbio</span>\\n                <span class="ocultar-verbo hide"><i class="icon-minus-sign icon-white"></i> Ocultar</span>\\n            </button>\\n            <!--<button class="btn btn-info">Ambos</button> -->\\n            <button class="btn btn-info toggle-mostrar-sustantivo">\\n                <span class="mostrar-sustantivo"><i class="icon-plus-sign icon-white"></i> Mostrar Adjetivo</span>\\n                <span class="ocultar-sustantivo hide"><i class="icon-minus-sign icon-white"></i> Ocultar</span>\\n            </button>\\n        </div>\\n        <div id="toggle-mostrar-verbo" class="hide">                            <!-- INICIO DIV OCULTO PARA MOSTRAR EL ADVERBIO -->\\n            <div class="toggle-mostrar"><h4>Adverbio</h4></div>\\n            <div class="wellparley2">\\n                <h4 class="h4-mostrar">Ejemplos</h4>\\n                <table class="table table-striped table-bordered">\\n                    <thead>\\n                        <tr>\\n                            <th>\', escape=False)\n        response.write(IMG(_src=URL(\'static\', \'images/germany.gif\')))\n        response.write(\'</th>\\n                            <th>\', escape=False)\n        response.write(IMG(_src=URL(\'static\', \'images/spain.gif\')))\n        response.write(\'</th>\\n                            <th>Fuente</th>\\n                        </tr>\\n                    </thead>\\n                    <tbody>\\n                        \', escape=False)\n        for registro in ejemplos(db.ejemplos.adverbio==True).select(db.ejemplos.ALL):\n            response.write(\'\\n                        <tr>\\n                            <td>\\n                                \', escape=False)\n            response.write(registro.ejemplo_de)\n            response.write(\'\\n                            </td>\\n                            <td>\\n                                \', escape=False)\n            response.write(registro.ejemplo_es)\n            response.write(\'\\n                            </td>\\n                               \\n                            <td>\\n                                 \', escape=False)\n            if registro.fuente:\n                response.write(\'\\n                                    \', escape=False)\n                response.write(registro.fuente.nombre)\n                response.write(\'\\n                                \', escape=False)\n                pass\n            response.write(\'\\n                            </td>\\n                        </tr>\\n                        \', escape=False)\n            pass\n        response.write(\'\\n                    </tbody>\\n                </table>\\n                \\n            </div>\\n        </div>                                                                  <!-- FIN DIV OCULTO PARA MOSTRAR EL ADVERBIO -->\\n        \\n        \\n        <div id="toggle-mostrar-sustantivo" class="hide">                       <!-- INICIO DIV OCULTO PARA MOSTRAR EL ADJETIVO -->\\n            <div class="toggle-mostrar">\\n                <h4>Adjetivo</h4>\\n            </div>\\n            <div class="wellparley2">\\n                <h4 class="h4-mostrar">Ejemplos</h4>\\n                <table class="table table-striped table-bordered">\\n                    <thead>\\n                        <tr>\\n                            <th>\', escape=False)\n        response.write(IMG(_src=URL(\'static\', \'images/germany.gif\')))\n        response.write(\'</th>\\n                            <th>\', escape=False)\n        response.write(IMG(_src=URL(\'static\', \'images/spain.gif\')))\n        response.write(\'</th>\\n                            <th>Fuente</th>\\n                        </tr>\\n                    </thead>\\n                    <tbody>\\n                        \', escape=False)\n        for registro in ejemplos(db.ejemplos.adjetivo==True).select(db.ejemplos.ALL):\n            response.write(\'\\n                        <tr>\\n                            <td>\', escape=False)\n            if registro.ejemplo_de:\n                response.write(\'\\n                                \', escape=False)\n                response.write(registro.ejemplo_de)\n                response.write(\'\\n                                \', escape=False)\n            else:\n                response.write(\'\\n                                <p>No hay ejemplo_de</p>\\n                                \', escape=False)\n                pass\n            response.write(\'\\n                            </td>\\n                            <td>\\n                                \', escape=False)\n            response.write(registro.ejemplo_es)\n            response.write(\'\\n                            </td>\\n                               \\n                            <td>\\n                                 \', escape=False)\n            if registro.fuente:\n                response.write(\'\\n                                    \', escape=False)\n                response.write(registro.fuente.nombre)\n                response.write(\'\\n                                \', escape=False)\n                pass\n            response.write(\'\\n                            </td>\\n                        </tr>\\n                        \', escape=False)\n            pass\n        response.write(\'\\n                    </tbody>\\n                </table>\\n            </div>\\n        </div>                                                                  <!-- FIN DIV OCULTO PARA MOSTRAR EL ADJETIVO -->\\n        \\n                                                                                <!-- FIN SI LA PALABRA ES UN ADVERVIO Y ADJETIVO -->\\n            \\n        \', escape=False)\n    elif palabras.adjetivo==True:\n        response.write(\'                                       <!-- SI LA PALABRAS ES UN ADJETIVO  -->\\n            <div class="toggle-mostrar">\\n                <h4>Adjetivo</h4>\\n            </div>\\n            <div class="wellparley2">\\n                <h4 class="h4-mostrar">Ejemplos</h4>\\n                <table class="table table-striped table-bordered">\\n                    <tbody>\\n                        <thead>\\n                        <tr>\\n                            <th>\', escape=False)\n        response.write(IMG(_src=URL(\'static\', \'images/germany.gif\')))\n        response.write(\'</th>\\n                            <th>\', escape=False)\n        response.write(IMG(_src=URL(\'static\', \'images/spain.gif\')))\n        response.write(\'</th>\\n                            <th>Fuente</th>\\n                        </tr>\\n                    </thead>\\n                          \', escape=False)\n        for registro in ejemplos(db.ejemplos.adjetivo==True).select():\n            response.write(\'\\n                        <tr>\\n                            <td>\\n                                \', escape=False)\n            response.write(registro.ejemplo_de)\n            response.write(\'\\n                            </td>\\n                            <td>\\n                                \', escape=False)\n            response.write(registro.ejemplo_es)\n            response.write(\'\\n                            </td>\\n                               \\n                            <td>\\n                                \', escape=False)\n            if registro.fuente:\n                response.write(\'\\n                                    \', escape=False)\n                response.write(registro.fuente.nombre)\n                response.write(\'\\n                                \', escape=False)\n                pass\n            response.write(\'\\n                            </td>\\n                        </tr>\\n                        \', escape=False)\n            pass\n        response.write(\'\\n                    </tbody>\\n                </table>\\n            </div>\\n            \\n        \', escape=False)\n    elif palabras.adverbio==True:\n        response.write(\'           <!-- SI LA PALABRAS ES UN ADVERVIO  -->\\n            <div class="toggle-mostrar">\\n                <h4>Adverbio</h4>\\n            </div>\\n            <div class="wellparley2">\\n                <h4 class="h4-mostrar">Ejemplos</h4>\\n                <table class="table table-striped table-bordered">\\n                    <tbody>\\n                        <thead>\\n                        <tr>\\n                            <th>\', escape=False)\n        response.write(IMG(_src=URL(\'static\', \'images/germany.gif\')))\n        response.write(\'</th>\\n                            <th>\', escape=False)\n        response.write(IMG(_src=URL(\'static\', \'images/spain.gif\')))\n        response.write(\'</th>\\n                            <th>Fuente</th>\\n                        </tr>\\n                    </thead>\\n                          \', escape=False)\n        for registro in ejemplos(db.ejemplos.adverbio==True).select():\n            response.write(\'\\n                        <tr>\\n                            <td>\\n                                \', escape=False)\n            response.write(registro.ejemplo_de)\n            response.write(\'\\n                            </td>\\n                            <td>\\n                                \', escape=False)\n            response.write(registro.ejemplo_es)\n            response.write(\'\\n                            </td>\\n                               \\n                            <td>\\n                                \', escape=False)\n            if registro.fuente:\n                response.write(\'\\n                                    \', escape=False)\n                response.write(registro.fuente.nombre)\n                response.write(\'\\n                                \', escape=False)\n                pass\n            response.write(\'\\n                            </td>\\n                        </tr>\\n                        \', escape=False)\n            pass\n        response.write(\'\\n                    </tbody>\\n                </table>\\n            </div>\\n            \\n            \\n        \', escape=False)\n        pass\n    response.write(\'                                                                <!-- FIN SEGUNDO IF CASOS QUE SE PUEDEN DAR CON LAS PALABRAS -->\\n        \\n    \', escape=False)\n    pass\nresponse.write(\'                                                                    <!-- FIN IF PALABRAS -->\\n \\n\', escape=False)\nresponse.write(\'\\n\\t  \', escape=False)\nresponse.write("\\n          \\n        </div><!--/span-->\\n      </div><!--/row-->\\n\\n      <hr>\\n\\n      <footer>\\n        <p>\\xc2\\xa9 Company 2012</p>\\n      </footer>\\n\\n    </div><!--/.fluid-container-->\\n    \\n    <!-- Le javascript\\n    ================================================== -->\\n    <!-- Placed at the end of the document so the pages load faster \\n    <script>\\n      $(function () {\\n      $(\'.tabs a:last\').tab(\'show\')\\n      })\\n    </script>-->\\n   \\n\\n \\n\\n</body>\\n</html>\\n", escape=False)'
p7
sS'snapshot'
p8
(dp9
S'exception'
p10
(dp11
S'__hash__'
p12
S"<method-wrapper '__hash__' of exceptions.KeyError object at 0x07ACB788>"
p13
sS'__setattr__'
p14
S"<method-wrapper '__setattr__' of exceptions.KeyError object at 0x07ACB788>"
p15
sS'__reduce_ex__'
p16
S'<built-in method __reduce_ex__ of exceptions.KeyError object at 0x07ACB788>'
p17
sS'__getslice__'
p18
S"<method-wrapper '__getslice__' of exceptions.KeyError object at 0x07ACB788>"
p19
sS'__getitem__'
p20
S"<method-wrapper '__getitem__' of exceptions.KeyError object at 0x07ACB788>"
p21
sS'__setstate__'
p22
S'<built-in method __setstate__ of exceptions.KeyError object at 0x07ACB788>'
p23
sS'__reduce__'
p24
S'<built-in method __reduce__ of exceptions.KeyError object at 0x07ACB788>'
p25
sS'__str__'
p26
S"<method-wrapper '__str__' of exceptions.KeyError object at 0x07ACB788>"
p27
sS'args'
p28
S"('ejemplo_de',)"
p29
sS'__getattribute__'
p30
S"<method-wrapper '__getattribute__' of exceptions.KeyError object at 0x07ACB788>"
p31
sS'__class__'
p32
S"<type 'exceptions.KeyError'>"
p33
sS'__delattr__'
p34
S"<method-wrapper '__delattr__' of exceptions.KeyError object at 0x07ACB788>"
p35
sS'__repr__'
p36
S"<method-wrapper '__repr__' of exceptions.KeyError object at 0x07ACB788>"
p37
sS'__dict__'
p38
S'{}'
p39
sS'__doc__'
p40
S"'Mapping key not found.'"
p41
sS'__init__'
p42
S"<method-wrapper '__init__' of exceptions.KeyError object at 0x07ACB788>"
p43
sS'__new__'
p44
S'<built-in method __new__ of type object at 0x1E1CDFB8>'
p45
ssS'evalue'
p46
S"'ejemplo_de'"
p47
sS'request'
p48
ccopy_reg
_reconstructor
p49
(cgluon.html
BEAUTIFY
p50
c__builtin__
object
p51
NtRp52
(dp53
S'attributes'
p54
(dp55
sS'components'
p56
(lp57
g49
(cgluon.html
TABLE
p58
g51
NtRp59
(dp60
g54
(dp61
S'level'
p62
I5
ssS'parent'
p63
Nsg56
(lp64
g49
(cgluon.html
TR
p65
g51
NtRp66
(dp67
g54
(dp68
sg63
g59
sg56
(lp69
g49
(cgluon.html
TD
p70
g51
NtRp71
(dp72
g54
(dp73
S'_style'
p74
S'font-weight:bold;vertical-align:top'
p75
ssg63
g66
sg56
(lp76
S'ajax'
p77
asbag49
(g70
g51
NtRp78
(dp79
g54
(dp80
S'_valign'
p81
S'top'
p82
ssg63
g66
sg56
(lp83
S':'
asbag49
(g70
g51
NtRp84
(dp85
g54
(dp86
sg63
g66
sg56
(lp87
g49
(g50
g51
NtRp88
(dp89
g54
(dp90
g62
I5
ssg63
g84
sg56
(lp91
S'False'
p92
asbasbasbag49
(g65
g51
NtRp93
(dp94
g54
(dp95
sg63
g59
sg56
(lp96
g49
(g70
g51
NtRp97
(dp98
g54
(dp99
g74
g75
ssg63
g93
sg56
(lp100
S'application'
p101
asbag49
(g70
g51
NtRp102
(dp103
g54
(dp104
g81
g82
ssg63
g93
sg56
(lp105
S':'
asbag49
(g70
g51
NtRp106
(dp107
g54
(dp108
sg63
g93
sg56
(lp109
g49
(g50
g51
NtRp110
(dp111
g54
(dp112
g62
I5
ssg63
g106
sg56
(lp113
S'parleyweb'
p114
asbasbasbag49
(g65
g51
NtRp115
(dp116
g54
(dp117
sg63
g59
sg56
(lp118
g49
(g70
g51
NtRp119
(dp120
g54
(dp121
g74
g75
ssg63
g115
sg56
(lp122
g28
asbag49
(g70
g51
NtRp123
(dp124
g54
(dp125
g81
g82
ssg63
g115
sg56
(lp126
S':'
asbag49
(g70
g51
NtRp127
(dp128
g54
(dp129
sg63
g115
sg56
(lp130
g49
(g50
g51
NtRp131
(dp132
g54
(dp133
g62
I5
ssg63
g127
sg56
(lp134
g49
(g58
g51
NtRp135
(dp136
g54
(dp137
g62
I4
ssg63
Nsg56
(lp138
g49
(g65
g51
NtRp139
(dp140
g54
(dp141
sg63
g135
sg56
(lp142
g49
(g70
g51
NtRp143
(dp144
g54
(dp145
sg63
g139
sg56
(lp146
g49
(g50
g51
NtRp147
(dp148
g54
(dp149
g62
I4
ssg63
g143
sg56
(lp150
S'19'
p151
asbasbasbasbasbasbasbag49
(g65
g51
NtRp152
(dp153
g54
(dp154
sg63
g59
sg56
(lp155
g49
(g70
g51
NtRp156
(dp157
g54
(dp158
g74
g75
ssg63
g152
sg56
(lp159
S'body'
p160
asbag49
(g70
g51
NtRp161
(dp162
g54
(dp163
g81
g82
ssg63
g152
sg56
(lp164
S':'
asbag49
(g70
g51
NtRp165
(dp166
g54
(dp167
sg63
g152
sg56
(lp168
g49
(g50
g51
NtRp169
(dp170
g54
(dp171
g62
I5
ssg63
g165
sg56
(lp172
S'<cStringIO.StringO object at 0x070970A0>'
p173
asbasbasbag49
(g65
g51
NtRp174
(dp175
g54
(dp176
sg63
g59
sg56
(lp177
g49
(g70
g51
NtRp178
(dp179
g54
(dp180
g74
g75
ssg63
g174
sg56
(lp181
S'client'
p182
asbag49
(g70
g51
NtRp183
(dp184
g54
(dp185
g81
g82
ssg63
g174
sg56
(lp186
S':'
asbag49
(g70
g51
NtRp187
(dp188
g54
(dp189
sg63
g174
sg56
(lp190
g49
(g50
g51
NtRp191
(dp192
g54
(dp193
g62
I5
ssg63
g187
sg56
(lp194
S'127.0.0.1'
p195
asbasbasbag49
(g65
g51
NtRp196
(dp197
g54
(dp198
sg63
g59
sg56
(lp199
g49
(g70
g51
NtRp200
(dp201
g54
(dp202
g74
g75
ssg63
g196
sg56
(lp203
S'controller'
p204
asbag49
(g70
g51
NtRp205
(dp206
g54
(dp207
g81
g82
ssg63
g196
sg56
(lp208
S':'
asbag49
(g70
g51
NtRp209
(dp210
g54
(dp211
sg63
g196
sg56
(lp212
g49
(g50
g51
NtRp213
(dp214
g54
(dp215
g62
I5
ssg63
g209
sg56
(lp216
S'default'
p217
asbasbasbag49
(g65
g51
NtRp218
(dp219
g54
(dp220
sg63
g59
sg56
(lp221
g49
(g70
g51
NtRp222
(dp223
g54
(dp224
g74
g75
ssg63
g218
sg56
(lp225
S'cookies'
p226
asbag49
(g70
g51
NtRp227
(dp228
g54
(dp229
g81
g82
ssg63
g218
sg56
(lp230
S':'
asbag49
(g70
g51
NtRp231
(dp232
g54
(dp233
sg63
g218
sg56
(lp234
g49
(g50
g51
NtRp235
(dp236
g54
(dp237
g62
I5
ssg63
g231
sg56
(lp238
g49
(g58
g51
NtRp239
(dp240
g54
(dp241
g62
I4
ssg63
Nsg56
(lp242
g49
(g65
g51
NtRp243
(dp244
g54
(dp245
sg63
g239
sg56
(lp246
g49
(g70
g51
NtRp247
(dp248
g54
(dp249
g74
g75
ssg63
g243
sg56
(lp250
S'session_id_admin'
p251
asbag49
(g70
g51
NtRp252
(dp253
g54
(dp254
g81
g82
ssg63
g243
sg56
(lp255
S':'
asbag49
(g70
g51
NtRp256
(dp257
g54
(dp258
sg63
g243
sg56
(lp259
g49
(g50
g51
NtRp260
(dp261
g54
(dp262
g62
I4
ssg63
g256
sg56
(lp263
g49
(g58
g51
NtRp264
(dp265
g54
(dp266
g62
I3
ssg63
Nsg56
(lp267
g49
(g65
g51
NtRp268
(dp269
g54
(dp270
sg63
g264
sg56
(lp271
g49
(g70
g51
NtRp272
(dp273
g54
(dp274
g74
g75
ssg63
g268
sg56
(lp275
S'comment'
p276
asbag49
(g70
g51
NtRp277
(dp278
g54
(dp279
g81
g82
ssg63
g268
sg56
(lp280
S':'
asbag49
(g70
g51
NtRp281
(dp282
g54
(dp283
sg63
g268
sg56
(lp284
g49
(g50
g51
NtRp285
(dp286
g54
(dp287
g62
I3
ssg63
g281
sg56
(lp288
S''
asbasbasbag49
(g65
g51
NtRp289
(dp290
g54
(dp291
sg63
g264
sg56
(lp292
g49
(g70
g51
NtRp293
(dp294
g54
(dp295
g74
g75
ssg63
g289
sg56
(lp296
S'domain'
p297
asbag49
(g70
g51
NtRp298
(dp299
g54
(dp300
g81
g82
ssg63
g289
sg56
(lp301
S':'
asbag49
(g70
g51
NtRp302
(dp303
g54
(dp304
sg63
g289
sg56
(lp305
g49
(g50
g51
NtRp306
(dp307
g54
(dp308
g62
I3
ssg63
g302
sg56
(lp309
S''
asbasbasbag49
(g65
g51
NtRp310
(dp311
g54
(dp312
sg63
g264
sg56
(lp313
g49
(g70
g51
NtRp314
(dp315
g54
(dp316
g74
g75
ssg63
g310
sg56
(lp317
S'expires'
p318
asbag49
(g70
g51
NtRp319
(dp320
g54
(dp321
g81
g82
ssg63
g310
sg56
(lp322
S':'
asbag49
(g70
g51
NtRp323
(dp324
g54
(dp325
sg63
g310
sg56
(lp326
g49
(g50
g51
NtRp327
(dp328
g54
(dp329
g62
I3
ssg63
g323
sg56
(lp330
S''
asbasbasbag49
(g65
g51
NtRp331
(dp332
g54
(dp333
sg63
g264
sg56
(lp334
g49
(g70
g51
NtRp335
(dp336
g54
(dp337
g74
g75
ssg63
g331
sg56
(lp338
S'max-age'
p339
asbag49
(g70
g51
NtRp340
(dp341
g54
(dp342
g81
g82
ssg63
g331
sg56
(lp343
S':'
asbag49
(g70
g51
NtRp344
(dp345
g54
(dp346
sg63
g331
sg56
(lp347
g49
(g50
g51
NtRp348
(dp349
g54
(dp350
g62
I3
ssg63
g344
sg56
(lp351
S''
asbasbasbag49
(g65
g51
NtRp352
(dp353
g54
(dp354
sg63
g264
sg56
(lp355
g49
(g70
g51
NtRp356
(dp357
g54
(dp358
g74
g75
ssg63
g352
sg56
(lp359
S'path'
p360
asbag49
(g70
g51
NtRp361
(dp362
g54
(dp363
g81
g82
ssg63
g352
sg56
(lp364
S':'
asbag49
(g70
g51
NtRp365
(dp366
g54
(dp367
sg63
g352
sg56
(lp368
g49
(g50
g51
NtRp369
(dp370
g54
(dp371
g62
I3
ssg63
g365
sg56
(lp372
S''
asbasbasbag49
(g65
g51
NtRp373
(dp374
g54
(dp375
sg63
g264
sg56
(lp376
g49
(g70
g51
NtRp377
(dp378
g54
(dp379
g74
g75
ssg63
g373
sg56
(lp380
S'secure'
p381
asbag49
(g70
g51
NtRp382
(dp383
g54
(dp384
g81
g82
ssg63
g373
sg56
(lp385
S':'
asbag49
(g70
g51
NtRp386
(dp387
g54
(dp388
sg63
g373
sg56
(lp389
g49
(g50
g51
NtRp390
(dp391
g54
(dp392
g62
I3
ssg63
g386
sg56
(lp393
S''
asbasbasbag49
(g65
g51
NtRp394
(dp395
g54
(dp396
sg63
g264
sg56
(lp397
g49
(g70
g51
NtRp398
(dp399
g54
(dp400
g74
g75
ssg63
g394
sg56
(lp401
S'version'
p402
asbag49
(g70
g51
NtRp403
(dp404
g54
(dp405
g81
g82
ssg63
g394
sg56
(lp406
S':'
asbag49
(g70
g51
NtRp407
(dp408
g54
(dp409
sg63
g394
sg56
(lp410
g49
(g50
g51
NtRp411
(dp412
g54
(dp413
g62
I3
ssg63
g407
sg56
(lp414
S''
asbasbasbasbasbasbasbag49
(g65
g51
NtRp415
(dp416
g54
(dp417
sg63
g239
sg56
(lp418
g49
(g70
g51
NtRp419
(dp420
g54
(dp421
g74
g75
ssg63
g415
sg56
(lp422
S'session_id_parleyweb'
p423
asbag49
(g70
g51
NtRp424
(dp425
g54
(dp426
g81
g82
ssg63
g415
sg56
(lp427
S':'
asbag49
(g70
g51
NtRp428
(dp429
g54
(dp430
sg63
g415
sg56
(lp431
g49
(g50
g51
NtRp432
(dp433
g54
(dp434
g62
I4
ssg63
g428
sg56
(lp435
g49
(g58
g51
NtRp436
(dp437
g54
(dp438
g62
I3
ssg63
Nsg56
(lp439
g49
(g65
g51
NtRp440
(dp441
g54
(dp442
sg63
g436
sg56
(lp443
g49
(g70
g51
NtRp444
(dp445
g54
(dp446
g74
g75
ssg63
g440
sg56
(lp447
g276
asbag49
(g70
g51
NtRp448
(dp449
g54
(dp450
g81
g82
ssg63
g440
sg56
(lp451
S':'
asbag49
(g70
g51
NtRp452
(dp453
g54
(dp454
sg63
g440
sg56
(lp455
g49
(g50
g51
NtRp456
(dp457
g54
(dp458
g62
I3
ssg63
g452
sg56
(lp459
S''
asbasbasbag49
(g65
g51
NtRp460
(dp461
g54
(dp462
sg63
g436
sg56
(lp463
g49
(g70
g51
NtRp464
(dp465
g54
(dp466
g74
g75
ssg63
g460
sg56
(lp467
g297
asbag49
(g70
g51
NtRp468
(dp469
g54
(dp470
g81
g82
ssg63
g460
sg56
(lp471
S':'
asbag49
(g70
g51
NtRp472
(dp473
g54
(dp474
sg63
g460
sg56
(lp475
g49
(g50
g51
NtRp476
(dp477
g54
(dp478
g62
I3
ssg63
g472
sg56
(lp479
S''
asbasbasbag49
(g65
g51
NtRp480
(dp481
g54
(dp482
sg63
g436
sg56
(lp483
g49
(g70
g51
NtRp484
(dp485
g54
(dp486
g74
g75
ssg63
g480
sg56
(lp487
g318
asbag49
(g70
g51
NtRp488
(dp489
g54
(dp490
g81
g82
ssg63
g480
sg56
(lp491
S':'
asbag49
(g70
g51
NtRp492
(dp493
g54
(dp494
sg63
g480
sg56
(lp495
g49
(g50
g51
NtRp496
(dp497
g54
(dp498
g62
I3
ssg63
g492
sg56
(lp499
S''
asbasbasbag49
(g65
g51
NtRp500
(dp501
g54
(dp502
sg63
g436
sg56
(lp503
g49
(g70
g51
NtRp504
(dp505
g54
(dp506
g74
g75
ssg63
g500
sg56
(lp507
g339
asbag49
(g70
g51
NtRp508
(dp509
g54
(dp510
g81
g82
ssg63
g500
sg56
(lp511
S':'
asbag49
(g70
g51
NtRp512
(dp513
g54
(dp514
sg63
g500
sg56
(lp515
g49
(g50
g51
NtRp516
(dp517
g54
(dp518
g62
I3
ssg63
g512
sg56
(lp519
S''
asbasbasbag49
(g65
g51
NtRp520
(dp521
g54
(dp522
sg63
g436
sg56
(lp523
g49
(g70
g51
NtRp524
(dp525
g54
(dp526
g74
g75
ssg63
g520
sg56
(lp527
g360
asbag49
(g70
g51
NtRp528
(dp529
g54
(dp530
g81
g82
ssg63
g520
sg56
(lp531
S':'
asbag49
(g70
g51
NtRp532
(dp533
g54
(dp534
sg63
g520
sg56
(lp535
g49
(g50
g51
NtRp536
(dp537
g54
(dp538
g62
I3
ssg63
g532
sg56
(lp539
S''
asbasbasbag49
(g65
g51
NtRp540
(dp541
g54
(dp542
sg63
g436
sg56
(lp543
g49
(g70
g51
NtRp544
(dp545
g54
(dp546
g74
g75
ssg63
g540
sg56
(lp547
g381
asbag49
(g70
g51
NtRp548
(dp549
g54
(dp550
g81
g82
ssg63
g540
sg56
(lp551
S':'
asbag49
(g70
g51
NtRp552
(dp553
g54
(dp554
sg63
g540
sg56
(lp555
g49
(g50
g51
NtRp556
(dp557
g54
(dp558
g62
I3
ssg63
g552
sg56
(lp559
S''
asbasbasbag49
(g65
g51
NtRp560
(dp561
g54
(dp562
sg63
g436
sg56
(lp563
g49
(g70
g51
NtRp564
(dp565
g54
(dp566
g74
g75
ssg63
g560
sg56
(lp567
g402
asbag49
(g70
g51
NtRp568
(dp569
g54
(dp570
g81
g82
ssg63
g560
sg56
(lp571
S':'
asbag49
(g70
g51
NtRp572
(dp573
g54
(dp574
sg63
g560
sg56
(lp575
g49
(g50
g51
NtRp576
(dp577
g54
(dp578
g62
I3
ssg63
g572
sg56
(lp579
S''
asbasbasbasbasbasbasbag49
(g65
g51
NtRp580
(dp581
g54
(dp582
sg63
g239
sg56
(lp583
g49
(g70
g51
NtRp584
(dp585
g54
(dp586
g74
g75
ssg63
g580
sg56
(lp587
S'session_id_welcome'
p588
asbag49
(g70
g51
NtRp589
(dp590
g54
(dp591
g81
g82
ssg63
g580
sg56
(lp592
S':'
asbag49
(g70
g51
NtRp593
(dp594
g54
(dp595
sg63
g580
sg56
(lp596
g49
(g50
g51
NtRp597
(dp598
g54
(dp599
g62
I4
ssg63
g593
sg56
(lp600
g49
(g58
g51
NtRp601
(dp602
g54
(dp603
g62
I3
ssg63
Nsg56
(lp604
g49
(g65
g51
NtRp605
(dp606
g54
(dp607
sg63
g601
sg56
(lp608
g49
(g70
g51
NtRp609
(dp610
g54
(dp611
g74
g75
ssg63
g605
sg56
(lp612
g276
asbag49
(g70
g51
NtRp613
(dp614
g54
(dp615
g81
g82
ssg63
g605
sg56
(lp616
S':'
asbag49
(g70
g51
NtRp617
(dp618
g54
(dp619
sg63
g605
sg56
(lp620
g49
(g50
g51
NtRp621
(dp622
g54
(dp623
g62
I3
ssg63
g617
sg56
(lp624
S''
asbasbasbag49
(g65
g51
NtRp625
(dp626
g54
(dp627
sg63
g601
sg56
(lp628
g49
(g70
g51
NtRp629
(dp630
g54
(dp631
g74
g75
ssg63
g625
sg56
(lp632
g297
asbag49
(g70
g51
NtRp633
(dp634
g54
(dp635
g81
g82
ssg63
g625
sg56
(lp636
S':'
asbag49
(g70
g51
NtRp637
(dp638
g54
(dp639
sg63
g625
sg56
(lp640
g49
(g50
g51
NtRp641
(dp642
g54
(dp643
g62
I3
ssg63
g637
sg56
(lp644
S''
asbasbasbag49
(g65
g51
NtRp645
(dp646
g54
(dp647
sg63
g601
sg56
(lp648
g49
(g70
g51
NtRp649
(dp650
g54
(dp651
g74
g75
ssg63
g645
sg56
(lp652
g318
asbag49
(g70
g51
NtRp653
(dp654
g54
(dp655
g81
g82
ssg63
g645
sg56
(lp656
S':'
asbag49
(g70
g51
NtRp657
(dp658
g54
(dp659
sg63
g645
sg56
(lp660
g49
(g50
g51
NtRp661
(dp662
g54
(dp663
g62
I3
ssg63
g657
sg56
(lp664
S''
asbasbasbag49
(g65
g51
NtRp665
(dp666
g54
(dp667
sg63
g601
sg56
(lp668
g49
(g70
g51
NtRp669
(dp670
g54
(dp671
g74
g75
ssg63
g665
sg56
(lp672
g339
asbag49
(g70
g51
NtRp673
(dp674
g54
(dp675
g81
g82
ssg63
g665
sg56
(lp676
S':'
asbag49
(g70
g51
NtRp677
(dp678
g54
(dp679
sg63
g665
sg56
(lp680
g49
(g50
g51
NtRp681
(dp682
g54
(dp683
g62
I3
ssg63
g677
sg56
(lp684
S''
asbasbasbag49
(g65
g51
NtRp685
(dp686
g54
(dp687
sg63
g601
sg56
(lp688
g49
(g70
g51
NtRp689
(dp690
g54
(dp691
g74
g75
ssg63
g685
sg56
(lp692
g360
asbag49
(g70
g51
NtRp693
(dp694
g54
(dp695
g81
g82
ssg63
g685
sg56
(lp696
S':'
asbag49
(g70
g51
NtRp697
(dp698
g54
(dp699
sg63
g685
sg56
(lp700
g49
(g50
g51
NtRp701
(dp702
g54
(dp703
g62
I3
ssg63
g697
sg56
(lp704
S''
asbasbasbag49
(g65
g51
NtRp705
(dp706
g54
(dp707
sg63
g601
sg56
(lp708
g49
(g70
g51
NtRp709
(dp710
g54
(dp711
g74
g75
ssg63
g705
sg56
(lp712
g381
asbag49
(g70
g51
NtRp713
(dp714
g54
(dp715
g81
g82
ssg63
g705
sg56
(lp716
S':'
asbag49
(g70
g51
NtRp717
(dp718
g54
(dp719
sg63
g705
sg56
(lp720
g49
(g50
g51
NtRp721
(dp722
g54
(dp723
g62
I3
ssg63
g717
sg56
(lp724
S''
asbasbasbag49
(g65
g51
NtRp725
(dp726
g54
(dp727
sg63
g601
sg56
(lp728
g49
(g70
g51
NtRp729
(dp730
g54
(dp731
g74
g75
ssg63
g725
sg56
(lp732
g402
asbag49
(g70
g51
NtRp733
(dp734
g54
(dp735
g81
g82
ssg63
g725
sg56
(lp736
S':'
asbag49
(g70
g51
NtRp737
(dp738
g54
(dp739
sg63
g725
sg56
(lp740
g49
(g50
g51
NtRp741
(dp742
g54
(dp743
g62
I3
ssg63
g737
sg56
(lp744
S''
asbasbasbasbasbasbasbasbasbasbasbag49
(g65
g51
NtRp745
(dp746
g54
(dp747
sg63
g59
sg56
(lp748
g49
(g70
g51
NtRp749
(dp750
g54
(dp751
g74
g75
ssg63
g745
sg56
(lp752
S'env'
p753
asbag49
(g70
g51
NtRp754
(dp755
g54
(dp756
g81
g82
ssg63
g745
sg56
(lp757
S':'
asbag49
(g70
g51
NtRp758
(dp759
g54
(dp760
sg63
g745
sg56
(lp761
g49
(g50
g51
NtRp762
(dp763
g54
(dp764
g62
I5
ssg63
g758
sg56
(lp765
g49
(g58
g51
NtRp766
(dp767
g54
(dp768
g62
I4
ssg63
Nsg56
(lp769
g49
(g65
g51
NtRp770
(dp771
g54
(dp772
sg63
g766
sg56
(lp773
g49
(g70
g51
NtRp774
(dp775
g54
(dp776
g74
g75
ssg63
g770
sg56
(lp777
S'app_folders'
p778
asbag49
(g70
g51
NtRp779
(dp780
g54
(dp781
g81
g82
ssg63
g770
sg56
(lp782
S':'
asbag49
(g70
g51
NtRp783
(dp784
g54
(dp785
sg63
g770
sg56
(lp786
g49
(g50
g51
NtRp787
(dp788
g54
(dp789
g62
I4
ssg63
g783
sg56
(lp790
S"set(['D:\\\\Dise\\xf1o Web\\\\Proyectos\\\\Parleyweb\\\\web2py\\\\applications\\\\parleyweb\\\\', 'D:\\\\Dise\\xf1o Web\\\\Proyectos\\\\Parleyweb\\\\web2py\\\\applications\\\\welcome\\\\', 'D:\\\\Dise\\xf1o Web\\\\Proyectos\\\\Parleyweb\\\\web2py\\\\applications\\\\admin\\\\'])"
p791
asbasbasbag49
(g65
g51
NtRp792
(dp793
g54
(dp794
sg63
g766
sg56
(lp795
g49
(g70
g51
NtRp796
(dp797
g54
(dp798
g74
g75
ssg63
g792
sg56
(lp799
S'applications_parent'
p800
asbag49
(g70
g51
NtRp801
(dp802
g54
(dp803
g81
g82
ssg63
g792
sg56
(lp804
S':'
asbag49
(g70
g51
NtRp805
(dp806
g54
(dp807
sg63
g792
sg56
(lp808
g49
(g50
g51
NtRp809
(dp810
g54
(dp811
g62
I4
ssg63
g805
sg56
(lp812
S'D:\\Dise\xf1o Web\\Proyectos\\Parleyweb\\web2py'
p813
asbasbasbag49
(g65
g51
NtRp814
(dp815
g54
(dp816
sg63
g766
sg56
(lp817
g49
(g70
g51
NtRp818
(dp819
g54
(dp820
g74
g75
ssg63
g814
sg56
(lp821
S'cmd_args'
p822
asbag49
(g70
g51
NtRp823
(dp824
g54
(dp825
g81
g82
ssg63
g814
sg56
(lp826
S':'
asbag49
(g70
g51
NtRp827
(dp828
g54
(dp829
sg63
g814
sg56
(lp830
g49
(g50
g51
NtRp831
(dp832
g54
(dp833
g62
I4
ssg63
g827
sg56
(lp834
g49
(g58
g51
NtRp835
(dp836
g54
(dp837
g62
I3
ssg63
Nsg56
(lp838
sbasbasbasbag49
(g65
g51
NtRp839
(dp840
g54
(dp841
sg63
g766
sg56
(lp842
g49
(g70
g51
NtRp843
(dp844
g54
(dp845
g74
g75
ssg63
g839
sg56
(lp846
S'cmd_options'
p847
asbag49
(g70
g51
NtRp848
(dp849
g54
(dp850
g81
g82
ssg63
g839
sg56
(lp851
S':'
asbag49
(g70
g51
NtRp852
(dp853
g54
(dp854
sg63
g839
sg56
(lp855
g49
(g50
g51
NtRp856
(dp857
g54
(dp858
g62
I4
ssg63
g852
sg56
(lp859
S"<Values at 0x3110f30: {'verbose': False, 'ip': '127.0.0.1', 'shutdown_timeout': 5, 'taskbar': False, 'nocron': False, 'pid_filename': 'httpserver.pid', 'maxthreads': None, 'softcron': False, 'server_name': 'craxsnet-PC', 'bpython': False, 'nogui': False, 'port': 8000, 'extcron': False, 'debuglevel': 30, 'test': None, 'folder': 'D:\\\\Dise\\xf1o Web\\\\Proyectos\\\\Parleyweb\\\\web2py', 'config': '', 'import_models': False, 'winservice': '', 'shell': None, 'run': '', 'log_filename': 'httpserver.log', 'args': [''], 'socket_timeout': 5, 'ssl_ca_certificate': None, 'scheduler': None, 'profiler_filename': None, 'ssl_private_key': '', 'password': '<ask>', 'request_queue_size': 5, 'ssl_certificate': '', 'cronjob': False, 'numthreads': None, 'quiet': False, 'interfaces': None, 'minthreads': None, 'timeout': 10, 'plain': False, 'nobanner': False}>"
p860
asbasbasbag49
(g65
g51
NtRp861
(dp862
g54
(dp863
sg63
g766
sg56
(lp864
g49
(g70
g51
NtRp865
(dp866
g54
(dp867
g74
g75
ssg63
g861
sg56
(lp868
S'db_sessions'
p869
asbag49
(g70
g51
NtRp870
(dp871
g54
(dp872
g81
g82
ssg63
g861
sg56
(lp873
S':'
asbag49
(g70
g51
NtRp874
(dp875
g54
(dp876
sg63
g861
sg56
(lp877
g49
(g50
g51
NtRp878
(dp879
g54
(dp880
g62
I4
ssg63
g874
sg56
(lp881
S'set([])'
p882
asbasbasbag49
(g65
g51
NtRp883
(dp884
g54
(dp885
sg63
g766
sg56
(lp886
g49
(g70
g51
NtRp887
(dp888
g54
(dp889
g74
g75
ssg63
g883
sg56
(lp890
S'debugging'
p891
asbag49
(g70
g51
NtRp892
(dp893
g54
(dp894
g81
g82
ssg63
g883
sg56
(lp895
S':'
asbag49
(g70
g51
NtRp896
(dp897
g54
(dp898
sg63
g883
sg56
(lp899
g49
(g50
g51
NtRp900
(dp901
g54
(dp902
g62
I4
ssg63
g896
sg56
(lp903
g92
asbasbasbag49
(g65
g51
NtRp904
(dp905
g54
(dp906
sg63
g766
sg56
(lp907
g49
(g70
g51
NtRp908
(dp909
g54
(dp910
g74
g75
ssg63
g904
sg56
(lp911
S'gluon_parent'
p912
asbag49
(g70
g51
NtRp913
(dp914
g54
(dp915
g81
g82
ssg63
g904
sg56
(lp916
S':'
asbag49
(g70
g51
NtRp917
(dp918
g54
(dp919
sg63
g904
sg56
(lp920
g49
(g50
g51
NtRp921
(dp922
g54
(dp923
g62
I4
ssg63
g917
sg56
(lp924
S'D:\\Dise\xf1o Web\\Proyectos\\Parleyweb\\web2py'
p925
asbasbasbag49
(g65
g51
NtRp926
(dp927
g54
(dp928
sg63
g766
sg56
(lp929
g49
(g70
g51
NtRp930
(dp931
g54
(dp932
g74
g75
ssg63
g926
sg56
(lp933
S'http_accept'
p934
asbag49
(g70
g51
NtRp935
(dp936
g54
(dp937
g81
g82
ssg63
g926
sg56
(lp938
S':'
asbag49
(g70
g51
NtRp939
(dp940
g54
(dp941
sg63
g926
sg56
(lp942
g49
(g50
g51
NtRp943
(dp944
g54
(dp945
g62
I4
ssg63
g939
sg56
(lp946
S'text/html,application/xhtml+xml,application/xml;q=0.9,*/*;q=0.8'
p947
asbasbasbag49
(g65
g51
NtRp948
(dp949
g54
(dp950
sg63
g766
sg56
(lp951
g49
(g70
g51
NtRp952
(dp953
g54
(dp954
g74
g75
ssg63
g948
sg56
(lp955
S'http_accept_encoding'
p956
asbag49
(g70
g51
NtRp957
(dp958
g54
(dp959
g81
g82
ssg63
g948
sg56
(lp960
S':'
asbag49
(g70
g51
NtRp961
(dp962
g54
(dp963
sg63
g948
sg56
(lp964
g49
(g50
g51
NtRp965
(dp966
g54
(dp967
g62
I4
ssg63
g961
sg56
(lp968
S'gzip, deflate'
p969
asbasbasbag49
(g65
g51
NtRp970
(dp971
g54
(dp972
sg63
g766
sg56
(lp973
g49
(g70
g51
NtRp974
(dp975
g54
(dp976
g74
g75
ssg63
g970
sg56
(lp977
S'http_accept_language'
p978
asbag49
(g70
g51
NtRp979
(dp980
g54
(dp981
g81
g82
ssg63
g970
sg56
(lp982
S':'
asbag49
(g70
g51
NtRp983
(dp984
g54
(dp985
sg63
g970
sg56
(lp986
g49
(g50
g51
NtRp987
(dp988
g54
(dp989
g62
I4
ssg63
g983
sg56
(lp990
S'es-es,de-de;q=0.8,es;q=0.6,en-us;q=0.4,en;q=0.2'
p991
asbasbasbag49
(g65
g51
NtRp992
(dp993
g54
(dp994
sg63
g766
sg56
(lp995
g49
(g70
g51
NtRp996
(dp997
g54
(dp998
g74
g75
ssg63
g992
sg56
(lp999
S'http_connection'
p1000
asbag49
(g70
g51
NtRp1001
(dp1002
g54
(dp1003
g81
g82
ssg63
g992
sg56
(lp1004
S':'
asbag49
(g70
g51
NtRp1005
(dp1006
g54
(dp1007
sg63
g992
sg56
(lp1008
g49
(g50
g51
NtRp1009
(dp1010
g54
(dp1011
g62
I4
ssg63
g1005
sg56
(lp1012
S'keep-alive'
p1013
asbasbasbag49
(g65
g51
NtRp1014
(dp1015
g54
(dp1016
sg63
g766
sg56
(lp1017
g49
(g70
g51
NtRp1018
(dp1019
g54
(dp1020
g74
g75
ssg63
g1014
sg56
(lp1021
S'http_cookie'
p1022
asbag49
(g70
g51
NtRp1023
(dp1024
g54
(dp1025
g81
g82
ssg63
g1014
sg56
(lp1026
S':'
asbag49
(g70
g51
NtRp1027
(dp1028
g54
(dp1029
sg63
g1014
sg56
(lp1030
g49
(g50
g51
NtRp1031
(dp1032
g54
(dp1033
g62
I4
ssg63
g1027
sg56
(lp1034
S'__utma=96992031.26429765.1325029743.1325029743.1326549329.2; __utmz=96992031.1325029743.1.1.utmcsr=(direct)|utmccn=(direct)|utmcmd=(none); session_id_welcome=127.0.0.1-644b7da8-0d4f-4bbf-b94b-66f6992adfc8; session_id_parleyweb=127.0.0.1-0780c0c1-affd-425a-affb-ac061c4961c7; session_id_admin=127.0.0.1-532b2264-f480-4135-a7d5-01c72ef908a1'
p1035
asbasbasbag49
(g65
g51
NtRp1036
(dp1037
g54
(dp1038
sg63
g766
sg56
(lp1039
g49
(g70
g51
NtRp1040
(dp1041
g54
(dp1042
g74
g75
ssg63
g1036
sg56
(lp1043
S'http_host'
p1044
asbag49
(g70
g51
NtRp1045
(dp1046
g54
(dp1047
g81
g82
ssg63
g1036
sg56
(lp1048
S':'
asbag49
(g70
g51
NtRp1049
(dp1050
g54
(dp1051
sg63
g1036
sg56
(lp1052
g49
(g50
g51
NtRp1053
(dp1054
g54
(dp1055
g62
I4
ssg63
g1049
sg56
(lp1056
S'127.0.0.1:8000'
p1057
asbasbasbag49
(g65
g51
NtRp1058
(dp1059
g54
(dp1060
sg63
g766
sg56
(lp1061
g49
(g70
g51
NtRp1062
(dp1063
g54
(dp1064
g74
g75
ssg63
g1058
sg56
(lp1065
S'http_referer'
p1066
asbag49
(g70
g51
NtRp1067
(dp1068
g54
(dp1069
g81
g82
ssg63
g1058
sg56
(lp1070
S':'
asbag49
(g70
g51
NtRp1071
(dp1072
g54
(dp1073
sg63
g1058
sg56
(lp1074
g49
(g50
g51
NtRp1075
(dp1076
g54
(dp1077
g62
I4
ssg63
g1071
sg56
(lp1078
S'http://127.0.0.1:8000/parleyweb/admin/agregar_palabra'
p1079
asbasbasbag49
(g65
g51
NtRp1080
(dp1081
g54
(dp1082
sg63
g766
sg56
(lp1083
g49
(g70
g51
NtRp1084
(dp1085
g54
(dp1086
g74
g75
ssg63
g1080
sg56
(lp1087
S'http_user_agent'
p1088
asbag49
(g70
g51
NtRp1089
(dp1090
g54
(dp1091
g81
g82
ssg63
g1080
sg56
(lp1092
S':'
asbag49
(g70
g51
NtRp1093
(dp1094
g54
(dp1095
sg63
g1080
sg56
(lp1096
g49
(g50
g51
NtRp1097
(dp1098
g54
(dp1099
g62
I4
ssg63
g1093
sg56
(lp1100
S'Mozilla/5.0 (Windows NT 6.1; WOW64; rv:11.0) Gecko/20100101 Firefox/11.0'
p1101
asbasbasbag49
(g65
g51
NtRp1102
(dp1103
g54
(dp1104
sg63
g766
sg56
(lp1105
g49
(g70
g51
NtRp1106
(dp1107
g54
(dp1108
g74
g75
ssg63
g1102
sg56
(lp1109
S'is_jython'
p1110
asbag49
(g70
g51
NtRp1111
(dp1112
g54
(dp1113
g81
g82
ssg63
g1102
sg56
(lp1114
S':'
asbag49
(g70
g51
NtRp1115
(dp1116
g54
(dp1117
sg63
g1102
sg56
(lp1118
g49
(g50
g51
NtRp1119
(dp1120
g54
(dp1121
g62
I4
ssg63
g1115
sg56
(lp1122
g92
asbasbasbag49
(g65
g51
NtRp1123
(dp1124
g54
(dp1125
sg63
g766
sg56
(lp1126
g49
(g70
g51
NtRp1127
(dp1128
g54
(dp1129
g74
g75
ssg63
g1123
sg56
(lp1130
S'is_pypy'
p1131
asbag49
(g70
g51
NtRp1132
(dp1133
g54
(dp1134
g81
g82
ssg63
g1123
sg56
(lp1135
S':'
asbag49
(g70
g51
NtRp1136
(dp1137
g54
(dp1138
sg63
g1123
sg56
(lp1139
g49
(g50
g51
NtRp1140
(dp1141
g54
(dp1142
g62
I4
ssg63
g1136
sg56
(lp1143
g92
asbasbasbag49
(g65
g51
NtRp1144
(dp1145
g54
(dp1146
sg63
g766
sg56
(lp1147
g49
(g70
g51
NtRp1148
(dp1149
g54
(dp1150
g74
g75
ssg63
g1144
sg56
(lp1151
S'path_info'
p1152
asbag49
(g70
g51
NtRp1153
(dp1154
g54
(dp1155
g81
g82
ssg63
g1144
sg56
(lp1156
S':'
asbag49
(g70
g51
NtRp1157
(dp1158
g54
(dp1159
sg63
g1144
sg56
(lp1160
g49
(g50
g51
NtRp1161
(dp1162
g54
(dp1163
g62
I4
ssg63
g1157
sg56
(lp1164
S'/parleyweb/default/mostrar/19'
p1165
asbasbasbag49
(g65
g51
NtRp1166
(dp1167
g54
(dp1168
sg63
g766
sg56
(lp1169
g49
(g70
g51
NtRp1170
(dp1171
g54
(dp1172
g74
g75
ssg63
g1166
sg56
(lp1173
S'query_string'
p1174
asbag49
(g70
g51
NtRp1175
(dp1176
g54
(dp1177
g81
g82
ssg63
g1166
sg56
(lp1178
S':'
asbag49
(g70
g51
NtRp1179
(dp1180
g54
(dp1181
sg63
g1166
sg56
(lp1182
g49
(g50
g51
NtRp1183
(dp1184
g54
(dp1185
g62
I4
ssg63
g1179
sg56
(lp1186
S''
asbasbasbag49
(g65
g51
NtRp1187
(dp1188
g54
(dp1189
sg63
g766
sg56
(lp1190
g49
(g70
g51
NtRp1191
(dp1192
g54
(dp1193
g74
g75
ssg63
g1187
sg56
(lp1194
S'remote_addr'
p1195
asbag49
(g70
g51
NtRp1196
(dp1197
g54
(dp1198
g81
g82
ssg63
g1187
sg56
(lp1199
S':'
asbag49
(g70
g51
NtRp1200
(dp1201
g54
(dp1202
sg63
g1187
sg56
(lp1203
g49
(g50
g51
NtRp1204
(dp1205
g54
(dp1206
g62
I4
ssg63
g1200
sg56
(lp1207
g195
asbasbasbag49
(g65
g51
NtRp1208
(dp1209
g54
(dp1210
sg63
g766
sg56
(lp1211
g49
(g70
g51
NtRp1212
(dp1213
g54
(dp1214
g74
g75
ssg63
g1208
sg56
(lp1215
S'remote_port'
p1216
asbag49
(g70
g51
NtRp1217
(dp1218
g54
(dp1219
g81
g82
ssg63
g1208
sg56
(lp1220
S':'
asbag49
(g70
g51
NtRp1221
(dp1222
g54
(dp1223
sg63
g1208
sg56
(lp1224
g49
(g50
g51
NtRp1225
(dp1226
g54
(dp1227
g62
I4
ssg63
g1221
sg56
(lp1228
S'52323'
p1229
asbasbasbag49
(g65
g51
NtRp1230
(dp1231
g54
(dp1232
sg63
g766
sg56
(lp1233
g49
(g70
g51
NtRp1234
(dp1235
g54
(dp1236
g74
g75
ssg63
g1230
sg56
(lp1237
S'request_method'
p1238
asbag49
(g70
g51
NtRp1239
(dp1240
g54
(dp1241
g81
g82
ssg63
g1230
sg56
(lp1242
S':'
asbag49
(g70
g51
NtRp1243
(dp1244
g54
(dp1245
sg63
g1230
sg56
(lp1246
g49
(g50
g51
NtRp1247
(dp1248
g54
(dp1249
g62
I4
ssg63
g1243
sg56
(lp1250
S'GET'
p1251
asbasbasbag49
(g65
g51
NtRp1252
(dp1253
g54
(dp1254
sg63
g766
sg56
(lp1255
g49
(g70
g51
NtRp1256
(dp1257
g54
(dp1258
g74
g75
ssg63
g1252
sg56
(lp1259
S'script_name'
p1260
asbag49
(g70
g51
NtRp1261
(dp1262
g54
(dp1263
g81
g82
ssg63
g1252
sg56
(lp1264
S':'
asbag49
(g70
g51
NtRp1265
(dp1266
g54
(dp1267
sg63
g1252
sg56
(lp1268
g49
(g50
g51
NtRp1269
(dp1270
g54
(dp1271
g62
I4
ssg63
g1265
sg56
(lp1272
S''
asbasbasbag49
(g65
g51
NtRp1273
(dp1274
g54
(dp1275
sg63
g766
sg56
(lp1276
g49
(g70
g51
NtRp1277
(dp1278
g54
(dp1279
g74
g75
ssg63
g1273
sg56
(lp1280
S'server_name'
p1281
asbag49
(g70
g51
NtRp1282
(dp1283
g54
(dp1284
g81
g82
ssg63
g1273
sg56
(lp1285
S':'
asbag49
(g70
g51
NtRp1286
(dp1287
g54
(dp1288
sg63
g1273
sg56
(lp1289
g49
(g50
g51
NtRp1290
(dp1291
g54
(dp1292
g62
I4
ssg63
g1286
sg56
(lp1293
S'craxsnet-PC'
p1294
asbasbasbag49
(g65
g51
NtRp1295
(dp1296
g54
(dp1297
sg63
g766
sg56
(lp1298
g49
(g70
g51
NtRp1299
(dp1300
g54
(dp1301
g74
g75
ssg63
g1295
sg56
(lp1302
S'server_port'
p1303
asbag49
(g70
g51
NtRp1304
(dp1305
g54
(dp1306
g81
g82
ssg63
g1295
sg56
(lp1307
S':'
asbag49
(g70
g51
NtRp1308
(dp1309
g54
(dp1310
sg63
g1295
sg56
(lp1311
g49
(g50
g51
NtRp1312
(dp1313
g54
(dp1314
g62
I4
ssg63
g1308
sg56
(lp1315
S'8000'
p1316
asbasbasbag49
(g65
g51
NtRp1317
(dp1318
g54
(dp1319
sg63
g766
sg56
(lp1320
g49
(g70
g51
NtRp1321
(dp1322
g54
(dp1323
g74
g75
ssg63
g1317
sg56
(lp1324
S'server_protocol'
p1325
asbag49
(g70
g51
NtRp1326
(dp1327
g54
(dp1328
g81
g82
ssg63
g1317
sg56
(lp1329
S':'
asbag49
(g70
g51
NtRp1330
(dp1331
g54
(dp1332
sg63
g1317
sg56
(lp1333
g49
(g50
g51
NtRp1334
(dp1335
g54
(dp1336
g62
I4
ssg63
g1330
sg56
(lp1337
S'HTTP/1.1'
p1338
asbasbasbag49
(g65
g51
NtRp1339
(dp1340
g54
(dp1341
sg63
g766
sg56
(lp1342
g49
(g70
g51
NtRp1343
(dp1344
g54
(dp1345
g74
g75
ssg63
g1339
sg56
(lp1346
S'server_software'
p1347
asbag49
(g70
g51
NtRp1348
(dp1349
g54
(dp1350
g81
g82
ssg63
g1339
sg56
(lp1351
S':'
asbag49
(g70
g51
NtRp1352
(dp1353
g54
(dp1354
sg63
g1339
sg56
(lp1355
g49
(g50
g51
NtRp1356
(dp1357
g54
(dp1358
g62
I4
ssg63
g1352
sg56
(lp1359
S'Rocket 1.2.4'
p1360
asbasbasbag49
(g65
g51
NtRp1361
(dp1362
g54
(dp1363
sg63
g766
sg56
(lp1364
g49
(g70
g51
NtRp1365
(dp1366
g54
(dp1367
g74
g75
ssg63
g1361
sg56
(lp1368
S'web2py_crontype'
p1369
asbag49
(g70
g51
NtRp1370
(dp1371
g54
(dp1372
g81
g82
ssg63
g1361
sg56
(lp1373
S':'
asbag49
(g70
g51
NtRp1374
(dp1375
g54
(dp1376
sg63
g1361
sg56
(lp1377
g49
(g50
g51
NtRp1378
(dp1379
g54
(dp1380
g62
I4
ssg63
g1374
sg56
(lp1381
S'hard'
p1382
asbasbasbag49
(g65
g51
NtRp1383
(dp1384
g54
(dp1385
sg63
g766
sg56
(lp1386
g49
(g70
g51
NtRp1387
(dp1388
g54
(dp1389
g74
g75
ssg63
g1383
sg56
(lp1390
S'web2py_path'
p1391
asbag49
(g70
g51
NtRp1392
(dp1393
g54
(dp1394
g81
g82
ssg63
g1383
sg56
(lp1395
S':'
asbag49
(g70
g51
NtRp1396
(dp1397
g54
(dp1398
sg63
g1383
sg56
(lp1399
g49
(g50
g51
NtRp1400
(dp1401
g54
(dp1402
g62
I4
ssg63
g1396
sg56
(lp1403
g813
asbasbasbag49
(g65
g51
NtRp1404
(dp1405
g54
(dp1406
sg63
g766
sg56
(lp1407
g49
(g70
g51
NtRp1408
(dp1409
g54
(dp1410
g74
g75
ssg63
g1404
sg56
(lp1411
S'web2py_version'
p1412
asbag49
(g70
g51
NtRp1413
(dp1414
g54
(dp1415
g81
g82
ssg63
g1404
sg56
(lp1416
S':'
asbag49
(g70
g51
NtRp1417
(dp1418
g54
(dp1419
sg63
g1404
sg56
(lp1420
g49
(g50
g51
NtRp1421
(dp1422
g54
(dp1423
g62
I4
ssg63
g1417
sg56
(lp1424
g49
(g58
g51
NtRp1425
(dp1426
g54
(dp1427
g62
I3
ssg63
Nsg56
(lp1428
g49
(g65
g51
NtRp1429
(dp1430
g54
(dp1431
sg63
g1425
sg56
(lp1432
g49
(g70
g51
NtRp1433
(dp1434
g54
(dp1435
sg63
g1429
sg56
(lp1436
g49
(g50
g51
NtRp1437
(dp1438
g54
(dp1439
g62
I3
ssg63
g1433
sg56
(lp1440
S'1'
asbasbasbag49
(g65
g51
NtRp1441
(dp1442
g54
(dp1443
sg63
g1425
sg56
(lp1444
g49
(g70
g51
NtRp1445
(dp1446
g54
(dp1447
sg63
g1441
sg56
(lp1448
g49
(g50
g51
NtRp1449
(dp1450
g54
(dp1451
g62
I3
ssg63
g1445
sg56
(lp1452
S'99'
p1453
asbasbasbag49
(g65
g51
NtRp1454
(dp1455
g54
(dp1456
sg63
g1425
sg56
(lp1457
g49
(g70
g51
NtRp1458
(dp1459
g54
(dp1460
sg63
g1454
sg56
(lp1461
g49
(g50
g51
NtRp1462
(dp1463
g54
(dp1464
g62
I3
ssg63
g1458
sg56
(lp1465
S'7'
asbasbasbag49
(g65
g51
NtRp1466
(dp1467
g54
(dp1468
sg63
g1425
sg56
(lp1469
g49
(g70
g51
NtRp1470
(dp1471
g54
(dp1472
sg63
g1466
sg56
(lp1473
g49
(g50
g51
NtRp1474
(dp1475
g54
(dp1476
g62
I3
ssg63
g1470
sg56
(lp1477
S'datetime.datetime(2012, 3, 4, 22, 12, 8)'
p1478
asbasbasbag49
(g65
g51
NtRp1479
(dp1480
g54
(dp1481
sg63
g1425
sg56
(lp1482
g49
(g70
g51
NtRp1483
(dp1484
g54
(dp1485
sg63
g1479
sg56
(lp1486
g49
(g50
g51
NtRp1487
(dp1488
g54
(dp1489
g62
I3
ssg63
g1483
sg56
(lp1490
S'stable'
p1491
asbasbasbasbasbasbasbag49
(g65
g51
NtRp1492
(dp1493
g54
(dp1494
sg63
g766
sg56
(lp1495
g49
(g70
g51
NtRp1496
(dp1497
g54
(dp1498
g74
g75
ssg63
g1492
sg56
(lp1499
S'wsgi_errors'
p1500
asbag49
(g70
g51
NtRp1501
(dp1502
g54
(dp1503
g81
g82
ssg63
g1492
sg56
(lp1504
S':'
asbag49
(g70
g51
NtRp1505
(dp1506
g54
(dp1507
sg63
g1492
sg56
(lp1508
g49
(g50
g51
NtRp1509
(dp1510
g54
(dp1511
g62
I4
ssg63
g1505
sg56
(lp1512
S"<open file '<stderr>', mode 'w' at 0x01FB00B0>"
p1513
asbasbasbag49
(g65
g51
NtRp1514
(dp1515
g54
(dp1516
sg63
g766
sg56
(lp1517
g49
(g70
g51
NtRp1518
(dp1519
g54
(dp1520
g74
g75
ssg63
g1514
sg56
(lp1521
S'wsgi_file_wrapper'
p1522
asbag49
(g70
g51
NtRp1523
(dp1524
g54
(dp1525
g81
g82
ssg63
g1514
sg56
(lp1526
S':'
asbag49
(g70
g51
NtRp1527
(dp1528
g54
(dp1529
sg63
g1514
sg56
(lp1530
g49
(g50
g51
NtRp1531
(dp1532
g54
(dp1533
g62
I4
ssg63
g1527
sg56
(lp1534
S'<class wsgiref.util.FileWrapper at 0x02F56390>'
p1535
asbasbasbag49
(g65
g51
NtRp1536
(dp1537
g54
(dp1538
sg63
g766
sg56
(lp1539
g49
(g70
g51
NtRp1540
(dp1541
g54
(dp1542
g74
g75
ssg63
g1536
sg56
(lp1543
S'wsgi_input'
p1544
asbag49
(g70
g51
NtRp1545
(dp1546
g54
(dp1547
g81
g82
ssg63
g1536
sg56
(lp1548
S':'
asbag49
(g70
g51
NtRp1549
(dp1550
g54
(dp1551
sg63
g1536
sg56
(lp1552
g49
(g50
g51
NtRp1553
(dp1554
g54
(dp1555
g62
I4
ssg63
g1549
sg56
(lp1556
S'<socket._fileobject object at 0x032AEE70>'
p1557
asbasbasbag49
(g65
g51
NtRp1558
(dp1559
g54
(dp1560
sg63
g766
sg56
(lp1561
g49
(g70
g51
NtRp1562
(dp1563
g54
(dp1564
g74
g75
ssg63
g1558
sg56
(lp1565
S'wsgi_multiprocess'
p1566
asbag49
(g70
g51
NtRp1567
(dp1568
g54
(dp1569
g81
g82
ssg63
g1558
sg56
(lp1570
S':'
asbag49
(g70
g51
NtRp1571
(dp1572
g54
(dp1573
sg63
g1558
sg56
(lp1574
g49
(g50
g51
NtRp1575
(dp1576
g54
(dp1577
g62
I4
ssg63
g1571
sg56
(lp1578
g92
asbasbasbag49
(g65
g51
NtRp1579
(dp1580
g54
(dp1581
sg63
g766
sg56
(lp1582
g49
(g70
g51
NtRp1583
(dp1584
g54
(dp1585
g74
g75
ssg63
g1579
sg56
(lp1586
S'wsgi_multithread'
p1587
asbag49
(g70
g51
NtRp1588
(dp1589
g54
(dp1590
g81
g82
ssg63
g1579
sg56
(lp1591
S':'
asbag49
(g70
g51
NtRp1592
(dp1593
g54
(dp1594
sg63
g1579
sg56
(lp1595
g49
(g50
g51
NtRp1596
(dp1597
g54
(dp1598
g62
I4
ssg63
g1592
sg56
(lp1599
S'True'
p1600
asbasbasbag49
(g65
g51
NtRp1601
(dp1602
g54
(dp1603
sg63
g766
sg56
(lp1604
g49
(g70
g51
NtRp1605
(dp1606
g54
(dp1607
g74
g75
ssg63
g1601
sg56
(lp1608
S'wsgi_run_once'
p1609
asbag49
(g70
g51
NtRp1610
(dp1611
g54
(dp1612
g81
g82
ssg63
g1601
sg56
(lp1613
S':'
asbag49
(g70
g51
NtRp1614
(dp1615
g54
(dp1616
sg63
g1601
sg56
(lp1617
g49
(g50
g51
NtRp1618
(dp1619
g54
(dp1620
g62
I4
ssg63
g1614
sg56
(lp1621
g92
asbasbasbag49
(g65
g51
NtRp1622
(dp1623
g54
(dp1624
sg63
g766
sg56
(lp1625
g49
(g70
g51
NtRp1626
(dp1627
g54
(dp1628
g74
g75
ssg63
g1622
sg56
(lp1629
S'wsgi_url_scheme'
p1630
asbag49
(g70
g51
NtRp1631
(dp1632
g54
(dp1633
g81
g82
ssg63
g1622
sg56
(lp1634
S':'
asbag49
(g70
g51
NtRp1635
(dp1636
g54
(dp1637
sg63
g1622
sg56
(lp1638
g49
(g50
g51
NtRp1639
(dp1640
g54
(dp1641
g62
I4
ssg63
g1635
sg56
(lp1642
S'http'
p1643
asbasbasbag49
(g65
g51
NtRp1644
(dp1645
g54
(dp1646
sg63
g766
sg56
(lp1647
g49
(g70
g51
NtRp1648
(dp1649
g54
(dp1650
g74
g75
ssg63
g1644
sg56
(lp1651
S'wsgi_version'
p1652
asbag49
(g70
g51
NtRp1653
(dp1654
g54
(dp1655
g81
g82
ssg63
g1644
sg56
(lp1656
S':'
asbag49
(g70
g51
NtRp1657
(dp1658
g54
(dp1659
sg63
g1644
sg56
(lp1660
g49
(g50
g51
NtRp1661
(dp1662
g54
(dp1663
g62
I4
ssg63
g1657
sg56
(lp1664
g49
(g58
g51
NtRp1665
(dp1666
g54
(dp1667
g62
I3
ssg63
Nsg56
(lp1668
g49
(g65
g51
NtRp1669
(dp1670
g54
(dp1671
sg63
g1665
sg56
(lp1672
g49
(g70
g51
NtRp1673
(dp1674
g54
(dp1675
sg63
g1669
sg56
(lp1676
g49
(g50
g51
NtRp1677
(dp1678
g54
(dp1679
g62
I3
ssg63
g1673
sg56
(lp1680
S'1'
asbasbasbag49
(g65
g51
NtRp1681
(dp1682
g54
(dp1683
sg63
g1665
sg56
(lp1684
g49
(g70
g51
NtRp1685
(dp1686
g54
(dp1687
sg63
g1681
sg56
(lp1688
g49
(g50
g51
NtRp1689
(dp1690
g54
(dp1691
g62
I3
ssg63
g1685
sg56
(lp1692
S'0'
asbasbasbasbasbasbasbasbasbasbasbag49
(g65
g51
NtRp1693
(dp1694
g54
(dp1695
sg63
g59
sg56
(lp1696
g49
(g70
g51
NtRp1697
(dp1698
g54
(dp1699
g74
g75
ssg63
g1693
sg56
(lp1700
S'extension'
p1701
asbag49
(g70
g51
NtRp1702
(dp1703
g54
(dp1704
g81
g82
ssg63
g1693
sg56
(lp1705
S':'
asbag49
(g70
g51
NtRp1706
(dp1707
g54
(dp1708
sg63
g1693
sg56
(lp1709
g49
(g50
g51
NtRp1710
(dp1711
g54
(dp1712
g62
I5
ssg63
g1706
sg56
(lp1713
S'html'
p1714
asbasbasbag49
(g65
g51
NtRp1715
(dp1716
g54
(dp1717
sg63
g59
sg56
(lp1718
g49
(g70
g51
NtRp1719
(dp1720
g54
(dp1721
g74
g75
ssg63
g1715
sg56
(lp1722
S'folder'
p1723
asbag49
(g70
g51
NtRp1724
(dp1725
g54
(dp1726
g81
g82
ssg63
g1715
sg56
(lp1727
S':'
asbag49
(g70
g51
NtRp1728
(dp1729
g54
(dp1730
sg63
g1715
sg56
(lp1731
g49
(g50
g51
NtRp1732
(dp1733
g54
(dp1734
g62
I5
ssg63
g1728
sg56
(lp1735
S'D:\\Dise\xf1o Web\\Proyectos\\Parleyweb\\web2py\\applications\\parleyweb\\'
p1736
asbasbasbag49
(g65
g51
NtRp1737
(dp1738
g54
(dp1739
sg63
g59
sg56
(lp1740
g49
(g70
g51
NtRp1741
(dp1742
g54
(dp1743
g74
g75
ssg63
g1737
sg56
(lp1744
S'function'
p1745
asbag49
(g70
g51
NtRp1746
(dp1747
g54
(dp1748
g81
g82
ssg63
g1737
sg56
(lp1749
S':'
asbag49
(g70
g51
NtRp1750
(dp1751
g54
(dp1752
sg63
g1737
sg56
(lp1753
g49
(g50
g51
NtRp1754
(dp1755
g54
(dp1756
g62
I5
ssg63
g1750
sg56
(lp1757
S'mostrar'
p1758
asbasbasbag49
(g65
g51
NtRp1759
(dp1760
g54
(dp1761
sg63
g59
sg56
(lp1762
g49
(g70
g51
NtRp1763
(dp1764
g54
(dp1765
g74
g75
ssg63
g1759
sg56
(lp1766
S'get_vars'
p1767
asbag49
(g70
g51
NtRp1768
(dp1769
g54
(dp1770
g81
g82
ssg63
g1759
sg56
(lp1771
S':'
asbag49
(g70
g51
NtRp1772
(dp1773
g54
(dp1774
sg63
g1759
sg56
(lp1775
g49
(g50
g51
NtRp1776
(dp1777
g54
(dp1778
g62
I5
ssg63
g1772
sg56
(lp1779
g49
(g58
g51
NtRp1780
(dp1781
g54
(dp1782
g62
I4
ssg63
Nsg56
(lp1783
sbasbasbasbag49
(g65
g51
NtRp1784
(dp1785
g54
(dp1786
sg63
g59
sg56
(lp1787
g49
(g70
g51
NtRp1788
(dp1789
g54
(dp1790
g74
g75
ssg63
g1784
sg56
(lp1791
S'global_settings'
p1792
asbag49
(g70
g51
NtRp1793
(dp1794
g54
(dp1795
g81
g82
ssg63
g1784
sg56
(lp1796
S':'
asbag49
(g70
g51
NtRp1797
(dp1798
g54
(dp1799
sg63
g1784
sg56
(lp1800
g49
(g50
g51
NtRp1801
(dp1802
g54
(dp1803
g62
I5
ssg63
g1797
sg56
(lp1804
g49
(g58
g51
NtRp1805
(dp1806
g54
(dp1807
g62
I4
ssg63
Nsg56
(lp1808
g49
(g65
g51
NtRp1809
(dp1810
g54
(dp1811
sg63
g1805
sg56
(lp1812
g49
(g70
g51
NtRp1813
(dp1814
g54
(dp1815
g74
g75
ssg63
g1809
sg56
(lp1816
g778
asbag49
(g70
g51
NtRp1817
(dp1818
g54
(dp1819
g81
g82
ssg63
g1809
sg56
(lp1820
S':'
asbag49
(g70
g51
NtRp1821
(dp1822
g54
(dp1823
sg63
g1809
sg56
(lp1824
g49
(g50
g51
NtRp1825
(dp1826
g54
(dp1827
g62
I4
ssg63
g1821
sg56
(lp1828
S"set(['D:\\\\Dise\\xf1o Web\\\\Proyectos\\\\Parleyweb\\\\web2py\\\\applications\\\\parleyweb\\\\', 'D:\\\\Dise\\xf1o Web\\\\Proyectos\\\\Parleyweb\\\\web2py\\\\applications\\\\welcome\\\\', 'D:\\\\Dise\\xf1o Web\\\\Proyectos\\\\Parleyweb\\\\web2py\\\\applications\\\\admin\\\\'])"
p1829
asbasbasbag49
(g65
g51
NtRp1830
(dp1831
g54
(dp1832
sg63
g1805
sg56
(lp1833
g49
(g70
g51
NtRp1834
(dp1835
g54
(dp1836
g74
g75
ssg63
g1830
sg56
(lp1837
g800
asbag49
(g70
g51
NtRp1838
(dp1839
g54
(dp1840
g81
g82
ssg63
g1830
sg56
(lp1841
S':'
asbag49
(g70
g51
NtRp1842
(dp1843
g54
(dp1844
sg63
g1830
sg56
(lp1845
g49
(g50
g51
NtRp1846
(dp1847
g54
(dp1848
g62
I4
ssg63
g1842
sg56
(lp1849
g813
asbasbasbag49
(g65
g51
NtRp1850
(dp1851
g54
(dp1852
sg63
g1805
sg56
(lp1853
g49
(g70
g51
NtRp1854
(dp1855
g54
(dp1856
g74
g75
ssg63
g1850
sg56
(lp1857
g822
asbag49
(g70
g51
NtRp1858
(dp1859
g54
(dp1860
g81
g82
ssg63
g1850
sg56
(lp1861
S':'
asbag49
(g70
g51
NtRp1862
(dp1863
g54
(dp1864
sg63
g1850
sg56
(lp1865
g49
(g50
g51
NtRp1866
(dp1867
g54
(dp1868
g62
I4
ssg63
g1862
sg56
(lp1869
g49
(g58
g51
NtRp1870
(dp1871
g54
(dp1872
g62
I3
ssg63
Nsg56
(lp1873
sbasbasbasbag49
(g65
g51
NtRp1874
(dp1875
g54
(dp1876
sg63
g1805
sg56
(lp1877
g49
(g70
g51
NtRp1878
(dp1879
g54
(dp1880
g74
g75
ssg63
g1874
sg56
(lp1881
g847
asbag49
(g70
g51
NtRp1882
(dp1883
g54
(dp1884
g81
g82
ssg63
g1874
sg56
(lp1885
S':'
asbag49
(g70
g51
NtRp1886
(dp1887
g54
(dp1888
sg63
g1874
sg56
(lp1889
g49
(g50
g51
NtRp1890
(dp1891
g54
(dp1892
g62
I4
ssg63
g1886
sg56
(lp1893
S"<Values at 0x3110f30: {'verbose': False, 'ip': '127.0.0.1', 'shutdown_timeout': 5, 'taskbar': False, 'nocron': False, 'pid_filename': 'httpserver.pid', 'maxthreads': None, 'softcron': False, 'server_name': 'craxsnet-PC', 'bpython': False, 'nogui': False, 'port': 8000, 'extcron': False, 'debuglevel': 30, 'test': None, 'folder': 'D:\\\\Dise\\xf1o Web\\\\Proyectos\\\\Parleyweb\\\\web2py', 'config': '', 'import_models': False, 'winservice': '', 'shell': None, 'run': '', 'log_filename': 'httpserver.log', 'args': [''], 'socket_timeout': 5, 'ssl_ca_certificate': None, 'scheduler': None, 'profiler_filename': None, 'ssl_private_key': '', 'password': '<ask>', 'request_queue_size': 5, 'ssl_certificate': '', 'cronjob': False, 'numthreads': None, 'quiet': False, 'interfaces': None, 'minthreads': None, 'timeout': 10, 'plain': False, 'nobanner': False}>"
p1894
asbasbasbag49
(g65
g51
NtRp1895
(dp1896
g54
(dp1897
sg63
g1805
sg56
(lp1898
g49
(g70
g51
NtRp1899
(dp1900
g54
(dp1901
g74
g75
ssg63
g1895
sg56
(lp1902
g869
asbag49
(g70
g51
NtRp1903
(dp1904
g54
(dp1905
g81
g82
ssg63
g1895
sg56
(lp1906
S':'
asbag49
(g70
g51
NtRp1907
(dp1908
g54
(dp1909
sg63
g1895
sg56
(lp1910
g49
(g50
g51
NtRp1911
(dp1912
g54
(dp1913
g62
I4
ssg63
g1907
sg56
(lp1914
S'set([])'
p1915
asbasbasbag49
(g65
g51
NtRp1916
(dp1917
g54
(dp1918
sg63
g1805
sg56
(lp1919
g49
(g70
g51
NtRp1920
(dp1921
g54
(dp1922
g74
g75
ssg63
g1916
sg56
(lp1923
g891
asbag49
(g70
g51
NtRp1924
(dp1925
g54
(dp1926
g81
g82
ssg63
g1916
sg56
(lp1927
S':'
asbag49
(g70
g51
NtRp1928
(dp1929
g54
(dp1930
sg63
g1916
sg56
(lp1931
g49
(g50
g51
NtRp1932
(dp1933
g54
(dp1934
g62
I4
ssg63
g1928
sg56
(lp1935
g92
asbasbasbag49
(g65
g51
NtRp1936
(dp1937
g54
(dp1938
sg63
g1805
sg56
(lp1939
g49
(g70
g51
NtRp1940
(dp1941
g54
(dp1942
g74
g75
ssg63
g1936
sg56
(lp1943
g912
asbag49
(g70
g51
NtRp1944
(dp1945
g54
(dp1946
g81
g82
ssg63
g1936
sg56
(lp1947
S':'
asbag49
(g70
g51
NtRp1948
(dp1949
g54
(dp1950
sg63
g1936
sg56
(lp1951
g49
(g50
g51
NtRp1952
(dp1953
g54
(dp1954
g62
I4
ssg63
g1948
sg56
(lp1955
g925
asbasbasbag49
(g65
g51
NtRp1956
(dp1957
g54
(dp1958
sg63
g1805
sg56
(lp1959
g49
(g70
g51
NtRp1960
(dp1961
g54
(dp1962
g74
g75
ssg63
g1956
sg56
(lp1963
g1110
asbag49
(g70
g51
NtRp1964
(dp1965
g54
(dp1966
g81
g82
ssg63
g1956
sg56
(lp1967
S':'
asbag49
(g70
g51
NtRp1968
(dp1969
g54
(dp1970
sg63
g1956
sg56
(lp1971
g49
(g50
g51
NtRp1972
(dp1973
g54
(dp1974
g62
I4
ssg63
g1968
sg56
(lp1975
g92
asbasbasbag49
(g65
g51
NtRp1976
(dp1977
g54
(dp1978
sg63
g1805
sg56
(lp1979
g49
(g70
g51
NtRp1980
(dp1981
g54
(dp1982
g74
g75
ssg63
g1976
sg56
(lp1983
g1131
asbag49
(g70
g51
NtRp1984
(dp1985
g54
(dp1986
g81
g82
ssg63
g1976
sg56
(lp1987
S':'
asbag49
(g70
g51
NtRp1988
(dp1989
g54
(dp1990
sg63
g1976
sg56
(lp1991
g49
(g50
g51
NtRp1992
(dp1993
g54
(dp1994
g62
I4
ssg63
g1988
sg56
(lp1995
g92
asbasbasbag49
(g65
g51
NtRp1996
(dp1997
g54
(dp1998
sg63
g1805
sg56
(lp1999
g49
(g70
g51
NtRp2000
(dp2001
g54
(dp2002
g74
g75
ssg63
g1996
sg56
(lp2003
g1369
asbag49
(g70
g51
NtRp2004
(dp2005
g54
(dp2006
g81
g82
ssg63
g1996
sg56
(lp2007
S':'
asbag49
(g70
g51
NtRp2008
(dp2009
g54
(dp2010
sg63
g1996
sg56
(lp2011
g49
(g50
g51
NtRp2012
(dp2013
g54
(dp2014
g62
I4
ssg63
g2008
sg56
(lp2015
g1382
asbasbasbag49
(g65
g51
NtRp2016
(dp2017
g54
(dp2018
sg63
g1805
sg56
(lp2019
g49
(g70
g51
NtRp2020
(dp2021
g54
(dp2022
g74
g75
ssg63
g2016
sg56
(lp2023
g1412
asbag49
(g70
g51
NtRp2024
(dp2025
g54
(dp2026
g81
g82
ssg63
g2016
sg56
(lp2027
S':'
asbag49
(g70
g51
NtRp2028
(dp2029
g54
(dp2030
sg63
g2016
sg56
(lp2031
g49
(g50
g51
NtRp2032
(dp2033
g54
(dp2034
g62
I4
ssg63
g2028
sg56
(lp2035
g49
(g58
g51
NtRp2036
(dp2037
g54
(dp2038
g62
I3
ssg63
Nsg56
(lp2039
g49
(g65
g51
NtRp2040
(dp2041
g54
(dp2042
sg63
g2036
sg56
(lp2043
g49
(g70
g51
NtRp2044
(dp2045
g54
(dp2046
sg63
g2040
sg56
(lp2047
g49
(g50
g51
NtRp2048
(dp2049
g54
(dp2050
g62
I3
ssg63
g2044
sg56
(lp2051
S'1'
asbasbasbag49
(g65
g51
NtRp2052
(dp2053
g54
(dp2054
sg63
g2036
sg56
(lp2055
g49
(g70
g51
NtRp2056
(dp2057
g54
(dp2058
sg63
g2052
sg56
(lp2059
g49
(g50
g51
NtRp2060
(dp2061
g54
(dp2062
g62
I3
ssg63
g2056
sg56
(lp2063
S'99'
p2064
asbasbasbag49
(g65
g51
NtRp2065
(dp2066
g54
(dp2067
sg63
g2036
sg56
(lp2068
g49
(g70
g51
NtRp2069
(dp2070
g54
(dp2071
sg63
g2065
sg56
(lp2072
g49
(g50
g51
NtRp2073
(dp2074
g54
(dp2075
g62
I3
ssg63
g2069
sg56
(lp2076
S'7'
asbasbasbag49
(g65
g51
NtRp2077
(dp2078
g54
(dp2079
sg63
g2036
sg56
(lp2080
g49
(g70
g51
NtRp2081
(dp2082
g54
(dp2083
sg63
g2077
sg56
(lp2084
g49
(g50
g51
NtRp2085
(dp2086
g54
(dp2087
g62
I3
ssg63
g2081
sg56
(lp2088
S'datetime.datetime(2012, 3, 4, 22, 12, 8)'
p2089
asbasbasbag49
(g65
g51
NtRp2090
(dp2091
g54
(dp2092
sg63
g2036
sg56
(lp2093
g49
(g70
g51
NtRp2094
(dp2095
g54
(dp2096
sg63
g2090
sg56
(lp2097
g49
(g50
g51
NtRp2098
(dp2099
g54
(dp2100
g62
I3
ssg63
g2094
sg56
(lp2101
g1491
asbasbasbasbasbasbasbasbasbasbasbag49
(g65
g51
NtRp2102
(dp2103
g54
(dp2104
sg63
g59
sg56
(lp2105
g49
(g70
g51
NtRp2106
(dp2107
g54
(dp2108
g74
g75
ssg63
g2102
sg56
(lp2109
S'is_https'
p2110
asbag49
(g70
g51
NtRp2111
(dp2112
g54
(dp2113
g81
g82
ssg63
g2102
sg56
(lp2114
S':'
asbag49
(g70
g51
NtRp2115
(dp2116
g54
(dp2117
sg63
g2102
sg56
(lp2118
g49
(g50
g51
NtRp2119
(dp2120
g54
(dp2121
g62
I5
ssg63
g2115
sg56
(lp2122
g92
asbasbasbag49
(g65
g51
NtRp2123
(dp2124
g54
(dp2125
sg63
g59
sg56
(lp2126
g49
(g70
g51
NtRp2127
(dp2128
g54
(dp2129
g74
g75
ssg63
g2123
sg56
(lp2130
S'is_local'
p2131
asbag49
(g70
g51
NtRp2132
(dp2133
g54
(dp2134
g81
g82
ssg63
g2123
sg56
(lp2135
S':'
asbag49
(g70
g51
NtRp2136
(dp2137
g54
(dp2138
sg63
g2123
sg56
(lp2139
g49
(g50
g51
NtRp2140
(dp2141
g54
(dp2142
g62
I5
ssg63
g2136
sg56
(lp2143
g1600
asbasbasbag49
(g65
g51
NtRp2144
(dp2145
g54
(dp2146
sg63
g59
sg56
(lp2147
g49
(g70
g51
NtRp2148
(dp2149
g54
(dp2150
g74
g75
ssg63
g2144
sg56
(lp2151
S'is_restful'
p2152
asbag49
(g70
g51
NtRp2153
(dp2154
g54
(dp2155
g81
g82
ssg63
g2144
sg56
(lp2156
S':'
asbag49
(g70
g51
NtRp2157
(dp2158
g54
(dp2159
sg63
g2144
sg56
(lp2160
g49
(g50
g51
NtRp2161
(dp2162
g54
(dp2163
g62
I5
ssg63
g2157
sg56
(lp2164
g92
asbasbasbag49
(g65
g51
NtRp2165
(dp2166
g54
(dp2167
sg63
g59
sg56
(lp2168
g49
(g70
g51
NtRp2169
(dp2170
g54
(dp2171
g74
g75
ssg63
g2165
sg56
(lp2172
S'now'
p2173
asbag49
(g70
g51
NtRp2174
(dp2175
g54
(dp2176
g81
g82
ssg63
g2165
sg56
(lp2177
S':'
asbag49
(g70
g51
NtRp2178
(dp2179
g54
(dp2180
sg63
g2165
sg56
(lp2181
g49
(g50
g51
NtRp2182
(dp2183
g54
(dp2184
g62
I5
ssg63
g2178
sg56
(lp2185
S'datetime.datetime(2012, 3, 17, 1, 39, 50, 44000)'
p2186
asbasbasbag49
(g65
g51
NtRp2187
(dp2188
g54
(dp2189
sg63
g59
sg56
(lp2190
g49
(g70
g51
NtRp2191
(dp2192
g54
(dp2193
g74
g75
ssg63
g2187
sg56
(lp2194
S'post_vars'
p2195
asbag49
(g70
g51
NtRp2196
(dp2197
g54
(dp2198
g81
g82
ssg63
g2187
sg56
(lp2199
S':'
asbag49
(g70
g51
NtRp2200
(dp2201
g54
(dp2202
sg63
g2187
sg56
(lp2203
g49
(g50
g51
NtRp2204
(dp2205
g54
(dp2206
g62
I5
ssg63
g2200
sg56
(lp2207
g49
(g58
g51
NtRp2208
(dp2209
g54
(dp2210
g62
I4
ssg63
Nsg56
(lp2211
sbasbasbasbag49
(g65
g51
NtRp2212
(dp2213
g54
(dp2214
sg63
g59
sg56
(lp2215
g49
(g70
g51
NtRp2216
(dp2217
g54
(dp2218
g74
g75
ssg63
g2212
sg56
(lp2219
S'raw_args'
p2220
asbag49
(g70
g51
NtRp2221
(dp2222
g54
(dp2223
g81
g82
ssg63
g2212
sg56
(lp2224
S':'
asbag49
(g70
g51
NtRp2225
(dp2226
g54
(dp2227
sg63
g2212
sg56
(lp2228
g49
(g50
g51
NtRp2229
(dp2230
g54
(dp2231
g62
I5
ssg63
g2225
sg56
(lp2232
S'19'
p2233
asbasbasbag49
(g65
g51
NtRp2234
(dp2235
g54
(dp2236
sg63
g59
sg56
(lp2237
g49
(g70
g51
NtRp2238
(dp2239
g54
(dp2240
g74
g75
ssg63
g2234
sg56
(lp2241
S'url'
p2242
asbag49
(g70
g51
NtRp2243
(dp2244
g54
(dp2245
g81
g82
ssg63
g2234
sg56
(lp2246
S':'
asbag49
(g70
g51
NtRp2247
(dp2248
g54
(dp2249
sg63
g2234
sg56
(lp2250
g49
(g50
g51
NtRp2251
(dp2252
g54
(dp2253
g62
I5
ssg63
g2247
sg56
(lp2254
S'/parleyweb/default/mostrar/19'
p2255
asbasbasbag49
(g65
g51
NtRp2256
(dp2257
g54
(dp2258
sg63
g59
sg56
(lp2259
g49
(g70
g51
NtRp2260
(dp2261
g54
(dp2262
g74
g75
ssg63
g2256
sg56
(lp2263
S'utcnow'
p2264
asbag49
(g70
g51
NtRp2265
(dp2266
g54
(dp2267
g81
g82
ssg63
g2256
sg56
(lp2268
S':'
asbag49
(g70
g51
NtRp2269
(dp2270
g54
(dp2271
sg63
g2256
sg56
(lp2272
g49
(g50
g51
NtRp2273
(dp2274
g54
(dp2275
g62
I5
ssg63
g2269
sg56
(lp2276
S'datetime.datetime(2012, 3, 17, 0, 39, 50, 44000)'
p2277
asbasbasbag49
(g65
g51
NtRp2278
(dp2279
g54
(dp2280
sg63
g59
sg56
(lp2281
g49
(g70
g51
NtRp2282
(dp2283
g54
(dp2284
g74
g75
ssg63
g2278
sg56
(lp2285
S'uuid'
p2286
asbag49
(g70
g51
NtRp2287
(dp2288
g54
(dp2289
g81
g82
ssg63
g2278
sg56
(lp2290
S':'
asbag49
(g70
g51
NtRp2291
(dp2292
g54
(dp2293
sg63
g2278
sg56
(lp2294
g49
(g50
g51
NtRp2295
(dp2296
g54
(dp2297
g62
I5
ssg63
g2291
sg56
(lp2298
S'parleyweb/127.0.0.1.2012-03-17.01-39-50.413c27ff-914d-4923-9043-dd38866abc6d'
p2299
asbasbasbag49
(g65
g51
NtRp2300
(dp2301
g54
(dp2302
sg63
g59
sg56
(lp2303
g49
(g70
g51
NtRp2304
(dp2305
g54
(dp2306
g74
g75
ssg63
g2300
sg56
(lp2307
S'vars'
p2308
asbag49
(g70
g51
NtRp2309
(dp2310
g54
(dp2311
g81
g82
ssg63
g2300
sg56
(lp2312
S':'
asbag49
(g70
g51
NtRp2313
(dp2314
g54
(dp2315
sg63
g2300
sg56
(lp2316
g49
(g50
g51
NtRp2317
(dp2318
g54
(dp2319
g62
I5
ssg63
g2313
sg56
(lp2320
g49
(g58
g51
NtRp2321
(dp2322
g54
(dp2323
g62
I4
ssg63
Nsg56
(lp2324
sbasbasbasbag49
(g65
g51
NtRp2325
(dp2326
g54
(dp2327
sg63
g59
sg56
(lp2328
g49
(g70
g51
NtRp2329
(dp2330
g54
(dp2331
g74
g75
ssg63
g2325
sg56
(lp2332
S'wsgi'
p2333
asbag49
(g70
g51
NtRp2334
(dp2335
g54
(dp2336
g81
g82
ssg63
g2325
sg56
(lp2337
S':'
asbag49
(g70
g51
NtRp2338
(dp2339
g54
(dp2340
sg63
g2325
sg56
(lp2341
g49
(g50
g51
NtRp2342
(dp2343
g54
(dp2344
g62
I5
ssg63
g2338
sg56
(lp2345
g49
(g58
g51
NtRp2346
(dp2347
g54
(dp2348
g62
I4
ssg63
Nsg56
(lp2349
g49
(g65
g51
NtRp2350
(dp2351
g54
(dp2352
sg63
g2346
sg56
(lp2353
g49
(g70
g51
NtRp2354
(dp2355
g54
(dp2356
g74
g75
ssg63
g2350
sg56
(lp2357
S'environ'
p2358
asbag49
(g70
g51
NtRp2359
(dp2360
g54
(dp2361
g81
g82
ssg63
g2350
sg56
(lp2362
S':'
asbag49
(g70
g51
NtRp2363
(dp2364
g54
(dp2365
sg63
g2350
sg56
(lp2366
g49
(g50
g51
NtRp2367
(dp2368
g54
(dp2369
g62
I4
ssg63
g2363
sg56
(lp2370
g49
(g58
g51
NtRp2371
(dp2372
g54
(dp2373
g62
I3
ssg63
Nsg56
(lp2374
g49
(g65
g51
NtRp2375
(dp2376
g54
(dp2377
sg63
g2371
sg56
(lp2378
g49
(g70
g51
NtRp2379
(dp2380
g54
(dp2381
g74
g75
ssg63
g2375
sg56
(lp2382
S'HTTP_ACCEPT'
p2383
asbag49
(g70
g51
NtRp2384
(dp2385
g54
(dp2386
g81
g82
ssg63
g2375
sg56
(lp2387
S':'
asbag49
(g70
g51
NtRp2388
(dp2389
g54
(dp2390
sg63
g2375
sg56
(lp2391
g49
(g50
g51
NtRp2392
(dp2393
g54
(dp2394
g62
I3
ssg63
g2388
sg56
(lp2395
g947
asbasbasbag49
(g65
g51
NtRp2396
(dp2397
g54
(dp2398
sg63
g2371
sg56
(lp2399
g49
(g70
g51
NtRp2400
(dp2401
g54
(dp2402
g74
g75
ssg63
g2396
sg56
(lp2403
S'HTTP_ACCEPT_ENCODING'
p2404
asbag49
(g70
g51
NtRp2405
(dp2406
g54
(dp2407
g81
g82
ssg63
g2396
sg56
(lp2408
S':'
asbag49
(g70
g51
NtRp2409
(dp2410
g54
(dp2411
sg63
g2396
sg56
(lp2412
g49
(g50
g51
NtRp2413
(dp2414
g54
(dp2415
g62
I3
ssg63
g2409
sg56
(lp2416
g969
asbasbasbag49
(g65
g51
NtRp2417
(dp2418
g54
(dp2419
sg63
g2371
sg56
(lp2420
g49
(g70
g51
NtRp2421
(dp2422
g54
(dp2423
g74
g75
ssg63
g2417
sg56
(lp2424
S'HTTP_ACCEPT_LANGUAGE'
p2425
asbag49
(g70
g51
NtRp2426
(dp2427
g54
(dp2428
g81
g82
ssg63
g2417
sg56
(lp2429
S':'
asbag49
(g70
g51
NtRp2430
(dp2431
g54
(dp2432
sg63
g2417
sg56
(lp2433
g49
(g50
g51
NtRp2434
(dp2435
g54
(dp2436
g62
I3
ssg63
g2430
sg56
(lp2437
g991
asbasbasbag49
(g65
g51
NtRp2438
(dp2439
g54
(dp2440
sg63
g2371
sg56
(lp2441
g49
(g70
g51
NtRp2442
(dp2443
g54
(dp2444
g74
g75
ssg63
g2438
sg56
(lp2445
S'HTTP_CONNECTION'
p2446
asbag49
(g70
g51
NtRp2447
(dp2448
g54
(dp2449
g81
g82
ssg63
g2438
sg56
(lp2450
S':'
asbag49
(g70
g51
NtRp2451
(dp2452
g54
(dp2453
sg63
g2438
sg56
(lp2454
g49
(g50
g51
NtRp2455
(dp2456
g54
(dp2457
g62
I3
ssg63
g2451
sg56
(lp2458
g1013
asbasbasbag49
(g65
g51
NtRp2459
(dp2460
g54
(dp2461
sg63
g2371
sg56
(lp2462
g49
(g70
g51
NtRp2463
(dp2464
g54
(dp2465
g74
g75
ssg63
g2459
sg56
(lp2466
S'HTTP_COOKIE'
p2467
asbag49
(g70
g51
NtRp2468
(dp2469
g54
(dp2470
g81
g82
ssg63
g2459
sg56
(lp2471
S':'
asbag49
(g70
g51
NtRp2472
(dp2473
g54
(dp2474
sg63
g2459
sg56
(lp2475
g49
(g50
g51
NtRp2476
(dp2477
g54
(dp2478
g62
I3
ssg63
g2472
sg56
(lp2479
g1035
asbasbasbag49
(g65
g51
NtRp2480
(dp2481
g54
(dp2482
sg63
g2371
sg56
(lp2483
g49
(g70
g51
NtRp2484
(dp2485
g54
(dp2486
g74
g75
ssg63
g2480
sg56
(lp2487
S'HTTP_HOST'
p2488
asbag49
(g70
g51
NtRp2489
(dp2490
g54
(dp2491
g81
g82
ssg63
g2480
sg56
(lp2492
S':'
asbag49
(g70
g51
NtRp2493
(dp2494
g54
(dp2495
sg63
g2480
sg56
(lp2496
g49
(g50
g51
NtRp2497
(dp2498
g54
(dp2499
g62
I3
ssg63
g2493
sg56
(lp2500
g1057
asbasbasbag49
(g65
g51
NtRp2501
(dp2502
g54
(dp2503
sg63
g2371
sg56
(lp2504
g49
(g70
g51
NtRp2505
(dp2506
g54
(dp2507
g74
g75
ssg63
g2501
sg56
(lp2508
S'HTTP_REFERER'
p2509
asbag49
(g70
g51
NtRp2510
(dp2511
g54
(dp2512
g81
g82
ssg63
g2501
sg56
(lp2513
S':'
asbag49
(g70
g51
NtRp2514
(dp2515
g54
(dp2516
sg63
g2501
sg56
(lp2517
g49
(g50
g51
NtRp2518
(dp2519
g54
(dp2520
g62
I3
ssg63
g2514
sg56
(lp2521
g1079
asbasbasbag49
(g65
g51
NtRp2522
(dp2523
g54
(dp2524
sg63
g2371
sg56
(lp2525
g49
(g70
g51
NtRp2526
(dp2527
g54
(dp2528
g74
g75
ssg63
g2522
sg56
(lp2529
S'HTTP_USER_AGENT'
p2530
asbag49
(g70
g51
NtRp2531
(dp2532
g54
(dp2533
g81
g82
ssg63
g2522
sg56
(lp2534
S':'
asbag49
(g70
g51
NtRp2535
(dp2536
g54
(dp2537
sg63
g2522
sg56
(lp2538
g49
(g50
g51
NtRp2539
(dp2540
g54
(dp2541
g62
I3
ssg63
g2535
sg56
(lp2542
g1101
asbasbasbag49
(g65
g51
NtRp2543
(dp2544
g54
(dp2545
sg63
g2371
sg56
(lp2546
g49
(g70
g51
NtRp2547
(dp2548
g54
(dp2549
g74
g75
ssg63
g2543
sg56
(lp2550
S'PATH_INFO'
p2551
asbag49
(g70
g51
NtRp2552
(dp2553
g54
(dp2554
g81
g82
ssg63
g2543
sg56
(lp2555
S':'
asbag49
(g70
g51
NtRp2556
(dp2557
g54
(dp2558
sg63
g2543
sg56
(lp2559
g49
(g50
g51
NtRp2560
(dp2561
g54
(dp2562
g62
I3
ssg63
g2556
sg56
(lp2563
g1165
asbasbasbag49
(g65
g51
NtRp2564
(dp2565
g54
(dp2566
sg63
g2371
sg56
(lp2567
g49
(g70
g51
NtRp2568
(dp2569
g54
(dp2570
g74
g75
ssg63
g2564
sg56
(lp2571
S'QUERY_STRING'
p2572
asbag49
(g70
g51
NtRp2573
(dp2574
g54
(dp2575
g81
g82
ssg63
g2564
sg56
(lp2576
S':'
asbag49
(g70
g51
NtRp2577
(dp2578
g54
(dp2579
sg63
g2564
sg56
(lp2580
g49
(g50
g51
NtRp2581
(dp2582
g54
(dp2583
g62
I3
ssg63
g2577
sg56
(lp2584
S''
asbasbasbag49
(g65
g51
NtRp2585
(dp2586
g54
(dp2587
sg63
g2371
sg56
(lp2588
g49
(g70
g51
NtRp2589
(dp2590
g54
(dp2591
g74
g75
ssg63
g2585
sg56
(lp2592
S'REMOTE_ADDR'
p2593
asbag49
(g70
g51
NtRp2594
(dp2595
g54
(dp2596
g81
g82
ssg63
g2585
sg56
(lp2597
S':'
asbag49
(g70
g51
NtRp2598
(dp2599
g54
(dp2600
sg63
g2585
sg56
(lp2601
g49
(g50
g51
NtRp2602
(dp2603
g54
(dp2604
g62
I3
ssg63
g2598
sg56
(lp2605
g195
asbasbasbag49
(g65
g51
NtRp2606
(dp2607
g54
(dp2608
sg63
g2371
sg56
(lp2609
g49
(g70
g51
NtRp2610
(dp2611
g54
(dp2612
g74
g75
ssg63
g2606
sg56
(lp2613
S'REMOTE_PORT'
p2614
asbag49
(g70
g51
NtRp2615
(dp2616
g54
(dp2617
g81
g82
ssg63
g2606
sg56
(lp2618
S':'
asbag49
(g70
g51
NtRp2619
(dp2620
g54
(dp2621
sg63
g2606
sg56
(lp2622
g49
(g50
g51
NtRp2623
(dp2624
g54
(dp2625
g62
I3
ssg63
g2619
sg56
(lp2626
g1229
asbasbasbag49
(g65
g51
NtRp2627
(dp2628
g54
(dp2629
sg63
g2371
sg56
(lp2630
g49
(g70
g51
NtRp2631
(dp2632
g54
(dp2633
g74
g75
ssg63
g2627
sg56
(lp2634
S'REQUEST_METHOD'
p2635
asbag49
(g70
g51
NtRp2636
(dp2637
g54
(dp2638
g81
g82
ssg63
g2627
sg56
(lp2639
S':'
asbag49
(g70
g51
NtRp2640
(dp2641
g54
(dp2642
sg63
g2627
sg56
(lp2643
g49
(g50
g51
NtRp2644
(dp2645
g54
(dp2646
g62
I3
ssg63
g2640
sg56
(lp2647
g1251
asbasbasbag49
(g65
g51
NtRp2648
(dp2649
g54
(dp2650
sg63
g2371
sg56
(lp2651
g49
(g70
g51
NtRp2652
(dp2653
g54
(dp2654
g74
g75
ssg63
g2648
sg56
(lp2655
S'SCRIPT_NAME'
p2656
asbag49
(g70
g51
NtRp2657
(dp2658
g54
(dp2659
g81
g82
ssg63
g2648
sg56
(lp2660
S':'
asbag49
(g70
g51
NtRp2661
(dp2662
g54
(dp2663
sg63
g2648
sg56
(lp2664
g49
(g50
g51
NtRp2665
(dp2666
g54
(dp2667
g62
I3
ssg63
g2661
sg56
(lp2668
S''
asbasbasbag49
(g65
g51
NtRp2669
(dp2670
g54
(dp2671
sg63
g2371
sg56
(lp2672
g49
(g70
g51
NtRp2673
(dp2674
g54
(dp2675
g74
g75
ssg63
g2669
sg56
(lp2676
S'SERVER_NAME'
p2677
asbag49
(g70
g51
NtRp2678
(dp2679
g54
(dp2680
g81
g82
ssg63
g2669
sg56
(lp2681
S':'
asbag49
(g70
g51
NtRp2682
(dp2683
g54
(dp2684
sg63
g2669
sg56
(lp2685
g49
(g50
g51
NtRp2686
(dp2687
g54
(dp2688
g62
I3
ssg63
g2682
sg56
(lp2689
g1294
asbasbasbag49
(g65
g51
NtRp2690
(dp2691
g54
(dp2692
sg63
g2371
sg56
(lp2693
g49
(g70
g51
NtRp2694
(dp2695
g54
(dp2696
g74
g75
ssg63
g2690
sg56
(lp2697
S'SERVER_PORT'
p2698
asbag49
(g70
g51
NtRp2699
(dp2700
g54
(dp2701
g81
g82
ssg63
g2690
sg56
(lp2702
S':'
asbag49
(g70
g51
NtRp2703
(dp2704
g54
(dp2705
sg63
g2690
sg56
(lp2706
g49
(g50
g51
NtRp2707
(dp2708
g54
(dp2709
g62
I3
ssg63
g2703
sg56
(lp2710
g1316
asbasbasbag49
(g65
g51
NtRp2711
(dp2712
g54
(dp2713
sg63
g2371
sg56
(lp2714
g49
(g70
g51
NtRp2715
(dp2716
g54
(dp2717
g74
g75
ssg63
g2711
sg56
(lp2718
S'SERVER_PROTOCOL'
p2719
asbag49
(g70
g51
NtRp2720
(dp2721
g54
(dp2722
g81
g82
ssg63
g2711
sg56
(lp2723
S':'
asbag49
(g70
g51
NtRp2724
(dp2725
g54
(dp2726
sg63
g2711
sg56
(lp2727
g49
(g50
g51
NtRp2728
(dp2729
g54
(dp2730
g62
I3
ssg63
g2724
sg56
(lp2731
g1338
asbasbasbag49
(g65
g51
NtRp2732
(dp2733
g54
(dp2734
sg63
g2371
sg56
(lp2735
g49
(g70
g51
NtRp2736
(dp2737
g54
(dp2738
g74
g75
ssg63
g2732
sg56
(lp2739
S'SERVER_SOFTWARE'
p2740
asbag49
(g70
g51
NtRp2741
(dp2742
g54
(dp2743
g81
g82
ssg63
g2732
sg56
(lp2744
S':'
asbag49
(g70
g51
NtRp2745
(dp2746
g54
(dp2747
sg63
g2732
sg56
(lp2748
g49
(g50
g51
NtRp2749
(dp2750
g54
(dp2751
g62
I3
ssg63
g2745
sg56
(lp2752
g1360
asbasbasbag49
(g65
g51
NtRp2753
(dp2754
g54
(dp2755
sg63
g2371
sg56
(lp2756
g49
(g70
g51
NtRp2757
(dp2758
g54
(dp2759
g74
g75
ssg63
g2753
sg56
(lp2760
S'wsgi.errors'
p2761
asbag49
(g70
g51
NtRp2762
(dp2763
g54
(dp2764
g81
g82
ssg63
g2753
sg56
(lp2765
S':'
asbag49
(g70
g51
NtRp2766
(dp2767
g54
(dp2768
sg63
g2753
sg56
(lp2769
g49
(g50
g51
NtRp2770
(dp2771
g54
(dp2772
g62
I3
ssg63
g2766
sg56
(lp2773
S"<open file '<stderr>', mode 'w' at 0x01FB00B0>"
p2774
asbasbasbag49
(g65
g51
NtRp2775
(dp2776
g54
(dp2777
sg63
g2371
sg56
(lp2778
g49
(g70
g51
NtRp2779
(dp2780
g54
(dp2781
g74
g75
ssg63
g2775
sg56
(lp2782
S'wsgi.file_wrapper'
p2783
asbag49
(g70
g51
NtRp2784
(dp2785
g54
(dp2786
g81
g82
ssg63
g2775
sg56
(lp2787
S':'
asbag49
(g70
g51
NtRp2788
(dp2789
g54
(dp2790
sg63
g2775
sg56
(lp2791
g49
(g50
g51
NtRp2792
(dp2793
g54
(dp2794
g62
I3
ssg63
g2788
sg56
(lp2795
S'<class wsgiref.util.FileWrapper at 0x02F56390>'
p2796
asbasbasbag49
(g65
g51
NtRp2797
(dp2798
g54
(dp2799
sg63
g2371
sg56
(lp2800
g49
(g70
g51
NtRp2801
(dp2802
g54
(dp2803
g74
g75
ssg63
g2797
sg56
(lp2804
S'wsgi.input'
p2805
asbag49
(g70
g51
NtRp2806
(dp2807
g54
(dp2808
g81
g82
ssg63
g2797
sg56
(lp2809
S':'
asbag49
(g70
g51
NtRp2810
(dp2811
g54
(dp2812
sg63
g2797
sg56
(lp2813
g49
(g50
g51
NtRp2814
(dp2815
g54
(dp2816
g62
I3
ssg63
g2810
sg56
(lp2817
S'<cStringIO.StringO object at 0x070970A0>'
p2818
asbasbasbag49
(g65
g51
NtRp2819
(dp2820
g54
(dp2821
sg63
g2371
sg56
(lp2822
g49
(g70
g51
NtRp2823
(dp2824
g54
(dp2825
g74
g75
ssg63
g2819
sg56
(lp2826
S'wsgi.multiprocess'
p2827
asbag49
(g70
g51
NtRp2828
(dp2829
g54
(dp2830
g81
g82
ssg63
g2819
sg56
(lp2831
S':'
asbag49
(g70
g51
NtRp2832
(dp2833
g54
(dp2834
sg63
g2819
sg56
(lp2835
g49
(g50
g51
NtRp2836
(dp2837
g54
(dp2838
g62
I3
ssg63
g2832
sg56
(lp2839
g92
asbasbasbag49
(g65
g51
NtRp2840
(dp2841
g54
(dp2842
sg63
g2371
sg56
(lp2843
g49
(g70
g51
NtRp2844
(dp2845
g54
(dp2846
g74
g75
ssg63
g2840
sg56
(lp2847
S'wsgi.multithread'
p2848
asbag49
(g70
g51
NtRp2849
(dp2850
g54
(dp2851
g81
g82
ssg63
g2840
sg56
(lp2852
S':'
asbag49
(g70
g51
NtRp2853
(dp2854
g54
(dp2855
sg63
g2840
sg56
(lp2856
g49
(g50
g51
NtRp2857
(dp2858
g54
(dp2859
g62
I3
ssg63
g2853
sg56
(lp2860
g1600
asbasbasbag49
(g65
g51
NtRp2861
(dp2862
g54
(dp2863
sg63
g2371
sg56
(lp2864
g49
(g70
g51
NtRp2865
(dp2866
g54
(dp2867
g74
g75
ssg63
g2861
sg56
(lp2868
S'wsgi.run_once'
p2869
asbag49
(g70
g51
NtRp2870
(dp2871
g54
(dp2872
g81
g82
ssg63
g2861
sg56
(lp2873
S':'
asbag49
(g70
g51
NtRp2874
(dp2875
g54
(dp2876
sg63
g2861
sg56
(lp2877
g49
(g50
g51
NtRp2878
(dp2879
g54
(dp2880
g62
I3
ssg63
g2874
sg56
(lp2881
g92
asbasbasbag49
(g65
g51
NtRp2882
(dp2883
g54
(dp2884
sg63
g2371
sg56
(lp2885
g49
(g70
g51
NtRp2886
(dp2887
g54
(dp2888
g74
g75
ssg63
g2882
sg56
(lp2889
S'wsgi.url_scheme'
p2890
asbag49
(g70
g51
NtRp2891
(dp2892
g54
(dp2893
g81
g82
ssg63
g2882
sg56
(lp2894
S':'
asbag49
(g70
g51
NtRp2895
(dp2896
g54
(dp2897
sg63
g2882
sg56
(lp2898
g49
(g50
g51
NtRp2899
(dp2900
g54
(dp2901
g62
I3
ssg63
g2895
sg56
(lp2902
g1643
asbasbasbag49
(g65
g51
NtRp2903
(dp2904
g54
(dp2905
sg63
g2371
sg56
(lp2906
g49
(g70
g51
NtRp2907
(dp2908
g54
(dp2909
g74
g75
ssg63
g2903
sg56
(lp2910
S'wsgi.version'
p2911
asbag49
(g70
g51
NtRp2912
(dp2913
g54
(dp2914
g81
g82
ssg63
g2903
sg56
(lp2915
S':'
asbag49
(g70
g51
NtRp2916
(dp2917
g54
(dp2918
sg63
g2903
sg56
(lp2919
g49
(g50
g51
NtRp2920
(dp2921
g54
(dp2922
g62
I3
ssg63
g2916
sg56
(lp2923
S'1'
asbasbasbasbasbasbasbasbasbasbasbasbasbsS'frames'
p2924
(lp2925
(dp2926
S'file'
p2927
S'D:\\Dise\xf1o Web\\Proyectos\\Parleyweb\\web2py\\gluon\\restricted.py'
p2928
sS'dump'
p2929
(dp2930
sS'lnum'
p2931
I205
sS'lines'
p2932
(dp2933
sS'call'
p2934
S'(code=\'response.write(\\\'<!DOCTYPE html>\\\\n<!-- paulirish....>\\\\n   \\\\n\\\\n \\\\n\\\\n</body>\\\\n</html>\\\\n", escape=False)\', environment={\'A\': <class \'gluon.html.A\'>, \'Auth\': <class \'gluon.tools.Auth\'>, \'B\': <class \'gluon.html.B\'>, \'BEAUTIFY\': <class \'gluon.html.BEAUTIFY\'>, \'BODY\': <class \'gluon.html.BODY\'>, \'BR\': <class \'gluon.html.BR\'>, \'BUTTON\': <class \'gluon.html.BUTTON\'>, \'CAT\': <class \'gluon.html.CAT\'>, \'CENTER\': <class \'gluon.html.CENTER\'>, \'CLEANUP\': <class \'gluon.validators.CLEANUP\'>, ...}, layer=\'D:\\\\Dise\\xf1o Web\\\\Proyectos\\\\Parleyweb\\\\web2py\\\\applications\\\\parleyweb\\\\views\\\\default/mostrar.html\')'
p2935
sS'func'
p2936
S'restricted'
p2937
sa(dp2938
g2927
S'D:\\Dise\xf1o Web\\Proyectos\\Parleyweb\\web2py\\applications\\parleyweb\\views\\default\\mostrar.html'
p2939
sg2929
(dp2940
sg2931
I228
sg2932
(dp2941
I224
S"        response.write(IMG(_src=URL('static', 'images/spain.gif')))"
p2942
sI225
S"        response.write('</th>\\n                            <th>Fuente</th>\\n                        </tr>\\n                    </thead>\\n                          ', escape=False)"
p2943
sI226
S'        for registro in ejemplos(db.ejemplos.adjetivo==True).select():'
p2944
sI227
S"            response.write('\\n                        <tr>\\n                            <td>\\n                                ', escape=False)"
p2945
sI228
S'            response.write(registro.ejemplo_de)'
p2946
sI229
S"            response.write('\\n                            </td>\\n                            <td>\\n                                ', escape=False)"
p2947
sI230
S'            response.write(registro.ejemplo_es)'
p2948
sI231
S"            response.write('\\n                            </td>\\n                               \\n                            <td>\\n                                ', escape=False)"
p2949
sI232
S'            if registro.fuente:'
p2950
sI233
S"                response.write('\\n                                    ', escape=False)"
p2951
sI234
S'                response.write(registro.fuente.nombre)'
p2952
sI235
S"                response.write('\\n                                ', escape=False)"
p2953
sI236
S'                pass'
p2954
sI237
S"            response.write('\\n                            </td>\\n                        </tr>\\n                        ', escape=False)"
p2955
sI238
S'            pass'
p2956
sI219
S"        response.write('\\n                    </tbody>\\n                </table>\\n            </div>\\n        </div>                                                                  <!-- FIN DIV OCULTO PARA MOSTRAR EL ADJETIVO -->\\n        \\n                                                                                <!-- FIN SI LA PALABRA ES UN ADVERVIO Y ADJETIVO -->\\n            \\n        ', escape=False)"
p2957
sI220
S'    elif palabras.adjetivo==True:'
p2958
sI221
S'        response.write(\'                                       <!-- SI LA PALABRAS ES UN ADJETIVO  -->\\n            <div class="toggle-mostrar">\\n                <h4>Adjetivo</h4>\\n            </div>\\n            <div class="wellparley2">\\n                <h4 class="h4-mostrar">Ejemplos</h4>\\n                <table class="table table-striped table-bordered">\\n                    <tbody>\\n                        <thead>\\n                        <tr>\\n                            <th>\', escape=False)'
p2959
sI222
S"        response.write(IMG(_src=URL('static', 'images/germany.gif')))"
p2960
sI223
S"        response.write('</th>\\n                            <th>', escape=False)"
p2961
ssg2934
S'()'
p2962
sg2936
S'<module>'
p2963
sa(dp2964
g2927
S'D:\\Dise\xf1o Web\\Proyectos\\Parleyweb\\web2py\\gluon\\dal.py'
p2965
sg2929
(dp2966
sg2931
I5657
sg2932
(dp2967
sg2934
S"(self=<Row {'palabras': <Row {'presente_1': '', 'image...te_record': <function <lambda> at 0x06FFFDB0>}>}>, key='ejemplo_de')"
p2968
sg2936
S'__getattr__'
p2969
sa(dp2970
g2927
S'D:\\Dise\xf1o Web\\Proyectos\\Parleyweb\\web2py\\gluon\\dal.py'
p2971
sg2929
(dp2972
sg2931
I5648
sg2932
(dp2973
sg2934
S"(self=<Row {'palabras': <Row {'presente_1': '', 'image...te_record': <function <lambda> at 0x06FFFDB0>}>}>, key='ejemplo_de')"
p2974
sg2936
g20
sasS'pyver'
p2975
S'Python 2.5.4: D:\\Dise\xf1o Web\\Proyectos\\Parleyweb\\web2py\\web2py.exe'
p2976
sS'session'
p2977
g49
(g50
g51
NtRp2978
(dp2979
g54
(dp2980
sg56
(lp2981
g49
(g58
g51
NtRp2982
(dp2983
g54
(dp2984
g62
I5
ssg63
Nsg56
(lp2985
sbasbsS'etype'
p2986
S"<type 'exceptions.KeyError'>"
p2987
sS'date'
p2988
S'Sat Mar 17 01:39:50 2012'
p2989
sS'response'
p2990
g49
(g50
g51
NtRp2991
(dp2992
g54
(dp2993
sg56
(lp2994
g49
(g58
g51
NtRp2995
(dp2996
g54
(dp2997
g62
I5
ssg63
Nsg56
(lp2998
g49
(g65
g51
NtRp2999
(dp3000
g54
(dp3001
sg63
g2995
sg56
(lp3002
g49
(g70
g51
NtRp3003
(dp3004
g54
(dp3005
g74
g75
ssg63
g2999
sg56
(lp3006
g160
asbag49
(g70
g51
NtRp3007
(dp3008
g54
(dp3009
g81
g82
ssg63
g2999
sg56
(lp3010
S':'
asbag49
(g70
g51
NtRp3011
(dp3012
g54
(dp3013
sg63
g2999
sg56
(lp3014
g49
(g50
g51
NtRp3015
(dp3016
g54
(dp3017
g62
I5
ssg63
g3011
sg56
(lp3018
S'<cStringIO.StringO object at 0x076CEF40>'
p3019
asbasbasbag49
(g65
g51
NtRp3020
(dp3021
g54
(dp3022
sg63
g2995
sg56
(lp3023
g49
(g70
g51
NtRp3024
(dp3025
g54
(dp3026
g74
g75
ssg63
g3020
sg56
(lp3027
g226
asbag49
(g70
g51
NtRp3028
(dp3029
g54
(dp3030
g81
g82
ssg63
g3020
sg56
(lp3031
S':'
asbag49
(g70
g51
NtRp3032
(dp3033
g54
(dp3034
sg63
g3020
sg56
(lp3035
g49
(g50
g51
NtRp3036
(dp3037
g54
(dp3038
g62
I5
ssg63
g3032
sg56
(lp3039
g49
(g58
g51
NtRp3040
(dp3041
g54
(dp3042
g62
I4
ssg63
Nsg56
(lp3043
g49
(g65
g51
NtRp3044
(dp3045
g54
(dp3046
sg63
g3040
sg56
(lp3047
g49
(g70
g51
NtRp3048
(dp3049
g54
(dp3050
g74
g75
ssg63
g3044
sg56
(lp3051
S'session_id_parleyweb'
p3052
asbag49
(g70
g51
NtRp3053
(dp3054
g54
(dp3055
g81
g82
ssg63
g3044
sg56
(lp3056
S':'
asbag49
(g70
g51
NtRp3057
(dp3058
g54
(dp3059
sg63
g3044
sg56
(lp3060
g49
(g50
g51
NtRp3061
(dp3062
g54
(dp3063
g62
I4
ssg63
g3057
sg56
(lp3064
g49
(g58
g51
NtRp3065
(dp3066
g54
(dp3067
g62
I3
ssg63
Nsg56
(lp3068
g49
(g65
g51
NtRp3069
(dp3070
g54
(dp3071
sg63
g3065
sg56
(lp3072
g49
(g70
g51
NtRp3073
(dp3074
g54
(dp3075
g74
g75
ssg63
g3069
sg56
(lp3076
g276
asbag49
(g70
g51
NtRp3077
(dp3078
g54
(dp3079
g81
g82
ssg63
g3069
sg56
(lp3080
S':'
asbag49
(g70
g51
NtRp3081
(dp3082
g54
(dp3083
sg63
g3069
sg56
(lp3084
g49
(g50
g51
NtRp3085
(dp3086
g54
(dp3087
g62
I3
ssg63
g3081
sg56
(lp3088
S''
asbasbasbag49
(g65
g51
NtRp3089
(dp3090
g54
(dp3091
sg63
g3065
sg56
(lp3092
g49
(g70
g51
NtRp3093
(dp3094
g54
(dp3095
g74
g75
ssg63
g3089
sg56
(lp3096
g297
asbag49
(g70
g51
NtRp3097
(dp3098
g54
(dp3099
g81
g82
ssg63
g3089
sg56
(lp3100
S':'
asbag49
(g70
g51
NtRp3101
(dp3102
g54
(dp3103
sg63
g3089
sg56
(lp3104
g49
(g50
g51
NtRp3105
(dp3106
g54
(dp3107
g62
I3
ssg63
g3101
sg56
(lp3108
S''
asbasbasbag49
(g65
g51
NtRp3109
(dp3110
g54
(dp3111
sg63
g3065
sg56
(lp3112
g49
(g70
g51
NtRp3113
(dp3114
g54
(dp3115
g74
g75
ssg63
g3109
sg56
(lp3116
g318
asbag49
(g70
g51
NtRp3117
(dp3118
g54
(dp3119
g81
g82
ssg63
g3109
sg56
(lp3120
S':'
asbag49
(g70
g51
NtRp3121
(dp3122
g54
(dp3123
sg63
g3109
sg56
(lp3124
g49
(g50
g51
NtRp3125
(dp3126
g54
(dp3127
g62
I3
ssg63
g3121
sg56
(lp3128
S''
asbasbasbag49
(g65
g51
NtRp3129
(dp3130
g54
(dp3131
sg63
g3065
sg56
(lp3132
g49
(g70
g51
NtRp3133
(dp3134
g54
(dp3135
g74
g75
ssg63
g3129
sg56
(lp3136
g339
asbag49
(g70
g51
NtRp3137
(dp3138
g54
(dp3139
g81
g82
ssg63
g3129
sg56
(lp3140
S':'
asbag49
(g70
g51
NtRp3141
(dp3142
g54
(dp3143
sg63
g3129
sg56
(lp3144
g49
(g50
g51
NtRp3145
(dp3146
g54
(dp3147
g62
I3
ssg63
g3141
sg56
(lp3148
S''
asbasbasbag49
(g65
g51
NtRp3149
(dp3150
g54
(dp3151
sg63
g3065
sg56
(lp3152
g49
(g70
g51
NtRp3153
(dp3154
g54
(dp3155
g74
g75
ssg63
g3149
sg56
(lp3156
g360
asbag49
(g70
g51
NtRp3157
(dp3158
g54
(dp3159
g81
g82
ssg63
g3149
sg56
(lp3160
S':'
asbag49
(g70
g51
NtRp3161
(dp3162
g54
(dp3163
sg63
g3149
sg56
(lp3164
g49
(g50
g51
NtRp3165
(dp3166
g54
(dp3167
g62
I3
ssg63
g3161
sg56
(lp3168
S'/'
asbasbasbag49
(g65
g51
NtRp3169
(dp3170
g54
(dp3171
sg63
g3065
sg56
(lp3172
g49
(g70
g51
NtRp3173
(dp3174
g54
(dp3175
g74
g75
ssg63
g3169
sg56
(lp3176
g381
asbag49
(g70
g51
NtRp3177
(dp3178
g54
(dp3179
g81
g82
ssg63
g3169
sg56
(lp3180
S':'
asbag49
(g70
g51
NtRp3181
(dp3182
g54
(dp3183
sg63
g3169
sg56
(lp3184
g49
(g50
g51
NtRp3185
(dp3186
g54
(dp3187
g62
I3
ssg63
g3181
sg56
(lp3188
S''
asbasbasbag49
(g65
g51
NtRp3189
(dp3190
g54
(dp3191
sg63
g3065
sg56
(lp3192
g49
(g70
g51
NtRp3193
(dp3194
g54
(dp3195
g74
g75
ssg63
g3189
sg56
(lp3196
g402
asbag49
(g70
g51
NtRp3197
(dp3198
g54
(dp3199
g81
g82
ssg63
g3189
sg56
(lp3200
S':'
asbag49
(g70
g51
NtRp3201
(dp3202
g54
(dp3203
sg63
g3189
sg56
(lp3204
g49
(g50
g51
NtRp3205
(dp3206
g54
(dp3207
g62
I3
ssg63
g3201
sg56
(lp3208
S''
asbasbasbasbasbasbasbasbasbasbasbag49
(g65
g51
NtRp3209
(dp3210
g54
(dp3211
sg63
g2995
sg56
(lp3212
g49
(g70
g51
NtRp3213
(dp3214
g54
(dp3215
g74
g75
ssg63
g3209
sg56
(lp3216
S'delimiters'
p3217
asbag49
(g70
g51
NtRp3218
(dp3219
g54
(dp3220
g81
g82
ssg63
g3209
sg56
(lp3221
S':'
asbag49
(g70
g51
NtRp3222
(dp3223
g54
(dp3224
sg63
g3209
sg56
(lp3225
g49
(g50
g51
NtRp3226
(dp3227
g54
(dp3228
g62
I5
ssg63
g3222
sg56
(lp3229
g49
(g58
g51
NtRp3230
(dp3231
g54
(dp3232
g62
I4
ssg63
Nsg56
(lp3233
g49
(g65
g51
NtRp3234
(dp3235
g54
(dp3236
sg63
g3230
sg56
(lp3237
g49
(g70
g51
NtRp3238
(dp3239
g54
(dp3240
sg63
g3234
sg56
(lp3241
g49
(g50
g51
NtRp3242
(dp3243
g54
(dp3244
g62
I4
ssg63
g3238
sg56
(lp3245
S'{{'
p3246
asbasbasbag49
(g65
g51
NtRp3247
(dp3248
g54
(dp3249
sg63
g3230
sg56
(lp3250
g49
(g70
g51
NtRp3251
(dp3252
g54
(dp3253
sg63
g3247
sg56
(lp3254
g49
(g50
g51
NtRp3255
(dp3256
g54
(dp3257
g62
I4
ssg63
g3251
sg56
(lp3258
S'}}'
p3259
asbasbasbasbasbasbasbag49
(g65
g51
NtRp3260
(dp3261
g54
(dp3262
sg63
g2995
sg56
(lp3263
g49
(g70
g51
NtRp3264
(dp3265
g54
(dp3266
g74
g75
ssg63
g3260
sg56
(lp3267
S'files'
p3268
asbag49
(g70
g51
NtRp3269
(dp3270
g54
(dp3271
g81
g82
ssg63
g3260
sg56
(lp3272
S':'
asbag49
(g70
g51
NtRp3273
(dp3274
g54
(dp3275
sg63
g3260
sg56
(lp3276
g49
(g50
g51
NtRp3277
(dp3278
g54
(dp3279
g62
I5
ssg63
g3273
sg56
(lp3280
g49
(g58
g51
NtRp3281
(dp3282
g54
(dp3283
g62
I4
ssg63
Nsg56
(lp3284
g49
(g65
g51
NtRp3285
(dp3286
g54
(dp3287
sg63
g3281
sg56
(lp3288
g49
(g70
g51
NtRp3289
(dp3290
g54
(dp3291
sg63
g3285
sg56
(lp3292
g49
(g50
g51
NtRp3293
(dp3294
g54
(dp3295
g62
I4
ssg63
g3289
sg56
(lp3296
S'/parleyweb/static/js/jquery.js'
p3297
asbasbasbag49
(g65
g51
NtRp3298
(dp3299
g54
(dp3300
sg63
g3281
sg56
(lp3301
g49
(g70
g51
NtRp3302
(dp3303
g54
(dp3304
sg63
g3298
sg56
(lp3305
g49
(g50
g51
NtRp3306
(dp3307
g54
(dp3308
g62
I4
ssg63
g3302
sg56
(lp3309
S'/parleyweb/static/css/calendar.css'
p3310
asbasbasbag49
(g65
g51
NtRp3311
(dp3312
g54
(dp3313
sg63
g3281
sg56
(lp3314
g49
(g70
g51
NtRp3315
(dp3316
g54
(dp3317
sg63
g3311
sg56
(lp3318
g49
(g50
g51
NtRp3319
(dp3320
g54
(dp3321
g62
I4
ssg63
g3315
sg56
(lp3322
S'/parleyweb/static/js/calendar.js'
p3323
asbasbasbag49
(g65
g51
NtRp3324
(dp3325
g54
(dp3326
sg63
g3281
sg56
(lp3327
g49
(g70
g51
NtRp3328
(dp3329
g54
(dp3330
sg63
g3324
sg56
(lp3331
g49
(g50
g51
NtRp3332
(dp3333
g54
(dp3334
g62
I4
ssg63
g3328
sg56
(lp3335
S'/parleyweb/static/js/web2py.js'
p3336
asbasbasbag49
(g65
g51
NtRp3337
(dp3338
g54
(dp3339
sg63
g3281
sg56
(lp3340
g49
(g70
g51
NtRp3341
(dp3342
g54
(dp3343
sg63
g3337
sg56
(lp3344
g49
(g50
g51
NtRp3345
(dp3346
g54
(dp3347
g62
I4
ssg63
g3341
sg56
(lp3348
S'/parleyweb/static/css/bootstrap.css'
p3349
asbasbasbag49
(g65
g51
NtRp3350
(dp3351
g54
(dp3352
sg63
g3281
sg56
(lp3353
g49
(g70
g51
NtRp3354
(dp3355
g54
(dp3356
sg63
g3350
sg56
(lp3357
g49
(g50
g51
NtRp3358
(dp3359
g54
(dp3360
g62
I4
ssg63
g3354
sg56
(lp3361
S'/parleyweb/static/js/bootstrap.js'
p3362
asbasbasbag49
(g65
g51
NtRp3363
(dp3364
g54
(dp3365
sg63
g3281
sg56
(lp3366
g49
(g70
g51
NtRp3367
(dp3368
g54
(dp3369
sg63
g3363
sg56
(lp3370
g49
(g50
g51
NtRp3371
(dp3372
g54
(dp3373
g62
I4
ssg63
g3367
sg56
(lp3374
S'/parleyweb/static/css/parleyweb.css'
p3375
asbasbasbag49
(g65
g51
NtRp3376
(dp3377
g54
(dp3378
sg63
g3281
sg56
(lp3379
g49
(g70
g51
NtRp3380
(dp3381
g54
(dp3382
sg63
g3376
sg56
(lp3383
g49
(g50
g51
NtRp3384
(dp3385
g54
(dp3386
g62
I4
ssg63
g3380
sg56
(lp3387
S'/parleyweb/static/css/jquery-ui-1.8.18.custom.css'
p3388
asbasbasbag49
(g65
g51
NtRp3389
(dp3390
g54
(dp3391
sg63
g3281
sg56
(lp3392
g49
(g70
g51
NtRp3393
(dp3394
g54
(dp3395
sg63
g3389
sg56
(lp3396
g49
(g50
g51
NtRp3397
(dp3398
g54
(dp3399
g62
I4
ssg63
g3393
sg56
(lp3400
S'/parleyweb/static/js/parleyweb.js'
p3401
asbasbasbag49
(g65
g51
NtRp3402
(dp3403
g54
(dp3404
sg63
g3281
sg56
(lp3405
g49
(g70
g51
NtRp3406
(dp3407
g54
(dp3408
sg63
g3402
sg56
(lp3409
g49
(g50
g51
NtRp3410
(dp3411
g54
(dp3412
g62
I4
ssg63
g3406
sg56
(lp3413
S'/parleyweb/static/js/jquery-ui-1.8.18.custom.min.js'
p3414
asbasbasbasbasbasbasbag49
(g65
g51
NtRp3415
(dp3416
g54
(dp3417
sg63
g2995
sg56
(lp3418
g49
(g70
g51
NtRp3419
(dp3420
g54
(dp3421
g74
g75
ssg63
g3415
sg56
(lp3422
S'flash'
p3423
asbag49
(g70
g51
NtRp3424
(dp3425
g54
(dp3426
g81
g82
ssg63
g3415
sg56
(lp3427
S':'
asbag49
(g70
g51
NtRp3428
(dp3429
g54
(dp3430
sg63
g3415
sg56
(lp3431
g49
(g50
g51
NtRp3432
(dp3433
g54
(dp3434
g62
I5
ssg63
g3428
sg56
(lp3435
S''
asbasbasbag49
(g65
g51
NtRp3436
(dp3437
g54
(dp3438
sg63
g2995
sg56
(lp3439
g49
(g70
g51
NtRp3440
(dp3441
g54
(dp3442
g74
g75
ssg63
g3436
sg56
(lp3443
S'generic_patterns'
p3444
asbag49
(g70
g51
NtRp3445
(dp3446
g54
(dp3447
g81
g82
ssg63
g3436
sg56
(lp3448
S':'
asbag49
(g70
g51
NtRp3449
(dp3450
g54
(dp3451
sg63
g3436
sg56
(lp3452
g49
(g50
g51
NtRp3453
(dp3454
g54
(dp3455
g62
I5
ssg63
g3449
sg56
(lp3456
g49
(g58
g51
NtRp3457
(dp3458
g54
(dp3459
g62
I4
ssg63
Nsg56
(lp3460
g49
(g65
g51
NtRp3461
(dp3462
g54
(dp3463
sg63
g3457
sg56
(lp3464
g49
(g70
g51
NtRp3465
(dp3466
g54
(dp3467
sg63
g3461
sg56
(lp3468
g49
(g50
g51
NtRp3469
(dp3470
g54
(dp3471
g62
I4
ssg63
g3465
sg56
(lp3472
S'*'
asbasbasbasbasbasbasbag49
(g65
g51
NtRp3473
(dp3474
g54
(dp3475
sg63
g2995
sg56
(lp3476
g49
(g70
g51
NtRp3477
(dp3478
g54
(dp3479
g74
g75
ssg63
g3473
sg56
(lp3480
S'headers'
p3481
asbag49
(g70
g51
NtRp3482
(dp3483
g54
(dp3484
g81
g82
ssg63
g3473
sg56
(lp3485
S':'
asbag49
(g70
g51
NtRp3486
(dp3487
g54
(dp3488
sg63
g3473
sg56
(lp3489
g49
(g50
g51
NtRp3490
(dp3491
g54
(dp3492
g62
I5
ssg63
g3486
sg56
(lp3493
g49
(g58
g51
NtRp3494
(dp3495
g54
(dp3496
g62
I4
ssg63
Nsg56
(lp3497
g49
(g65
g51
NtRp3498
(dp3499
g54
(dp3500
sg63
g3494
sg56
(lp3501
g49
(g70
g51
NtRp3502
(dp3503
g54
(dp3504
g74
g75
ssg63
g3498
sg56
(lp3505
S'Cache-Control'
p3506
asbag49
(g70
g51
NtRp3507
(dp3508
g54
(dp3509
g81
g82
ssg63
g3498
sg56
(lp3510
S':'
asbag49
(g70
g51
NtRp3511
(dp3512
g54
(dp3513
sg63
g3498
sg56
(lp3514
g49
(g50
g51
NtRp3515
(dp3516
g54
(dp3517
g62
I4
ssg63
g3511
sg56
(lp3518
S'no-store, no-cache, must-revalidate, post-check=0, pre-check=0'
p3519
asbasbasbag49
(g65
g51
NtRp3520
(dp3521
g54
(dp3522
sg63
g3494
sg56
(lp3523
g49
(g70
g51
NtRp3524
(dp3525
g54
(dp3526
g74
g75
ssg63
g3520
sg56
(lp3527
S'Content-Type'
p3528
asbag49
(g70
g51
NtRp3529
(dp3530
g54
(dp3531
g81
g82
ssg63
g3520
sg56
(lp3532
S':'
asbag49
(g70
g51
NtRp3533
(dp3534
g54
(dp3535
sg63
g3520
sg56
(lp3536
g49
(g50
g51
NtRp3537
(dp3538
g54
(dp3539
g62
I4
ssg63
g3533
sg56
(lp3540
S'text/html; charset=utf-8'
p3541
asbasbasbag49
(g65
g51
NtRp3542
(dp3543
g54
(dp3544
sg63
g3494
sg56
(lp3545
g49
(g70
g51
NtRp3546
(dp3547
g54
(dp3548
g74
g75
ssg63
g3542
sg56
(lp3549
S'Expires'
p3550
asbag49
(g70
g51
NtRp3551
(dp3552
g54
(dp3553
g81
g82
ssg63
g3542
sg56
(lp3554
S':'
asbag49
(g70
g51
NtRp3555
(dp3556
g54
(dp3557
sg63
g3542
sg56
(lp3558
g49
(g50
g51
NtRp3559
(dp3560
g54
(dp3561
g62
I4
ssg63
g3555
sg56
(lp3562
S'Sat, 17 Mar 2012 00:39:50 GMT'
p3563
asbasbasbag49
(g65
g51
NtRp3564
(dp3565
g54
(dp3566
sg63
g3494
sg56
(lp3567
g49
(g70
g51
NtRp3568
(dp3569
g54
(dp3570
g74
g75
ssg63
g3564
sg56
(lp3571
S'Pragma'
p3572
asbag49
(g70
g51
NtRp3573
(dp3574
g54
(dp3575
g81
g82
ssg63
g3564
sg56
(lp3576
S':'
asbag49
(g70
g51
NtRp3577
(dp3578
g54
(dp3579
sg63
g3564
sg56
(lp3580
g49
(g50
g51
NtRp3581
(dp3582
g54
(dp3583
g62
I4
ssg63
g3577
sg56
(lp3584
S'no-cache'
p3585
asbasbasbag49
(g65
g51
NtRp3586
(dp3587
g54
(dp3588
sg63
g3494
sg56
(lp3589
g49
(g70
g51
NtRp3590
(dp3591
g54
(dp3592
g74
g75
ssg63
g3586
sg56
(lp3593
S'X-Powered-By'
p3594
asbag49
(g70
g51
NtRp3595
(dp3596
g54
(dp3597
g81
g82
ssg63
g3586
sg56
(lp3598
S':'
asbag49
(g70
g51
NtRp3599
(dp3600
g54
(dp3601
sg63
g3586
sg56
(lp3602
g49
(g50
g51
NtRp3603
(dp3604
g54
(dp3605
g62
I4
ssg63
g3599
sg56
(lp3606
S'web2py'
p3607
asbasbasbasbasbasbasbag49
(g65
g51
NtRp3608
(dp3609
g54
(dp3610
sg63
g2995
sg56
(lp3611
g49
(g70
g51
NtRp3612
(dp3613
g54
(dp3614
g74
g75
ssg63
g3608
sg56
(lp3615
S'menu'
p3616
asbag49
(g70
g51
NtRp3617
(dp3618
g54
(dp3619
g81
g82
ssg63
g3608
sg56
(lp3620
S':'
asbag49
(g70
g51
NtRp3621
(dp3622
g54
(dp3623
sg63
g3608
sg56
(lp3624
g49
(g50
g51
NtRp3625
(dp3626
g54
(dp3627
g62
I5
ssg63
g3621
sg56
(lp3628
g49
(g58
g51
NtRp3629
(dp3630
g54
(dp3631
g62
I4
ssg63
Nsg56
(lp3632
g49
(g65
g51
NtRp3633
(dp3634
g54
(dp3635
sg63
g3629
sg56
(lp3636
g49
(g70
g51
NtRp3637
(dp3638
g54
(dp3639
sg63
g3633
sg56
(lp3640
g49
(g50
g51
NtRp3641
(dp3642
g54
(dp3643
g62
I4
ssg63
g3637
sg56
(lp3644
g49
(g58
g51
NtRp3645
(dp3646
g54
(dp3647
g62
I3
ssg63
Nsg56
(lp3648
g49
(g65
g51
NtRp3649
(dp3650
g54
(dp3651
sg63
g3645
sg56
(lp3652
g49
(g70
g51
NtRp3653
(dp3654
g54
(dp3655
sg63
g3649
sg56
(lp3656
g49
(g50
g51
NtRp3657
(dp3658
g54
(dp3659
g62
I3
ssg63
g3653
sg56
(lp3660
cgluon.languages
lazyT_unpickle
p3661
(S't\x04\x00\x00\x00Home'
tRp3662
asbasbasbag49
(g65
g51
NtRp3663
(dp3664
g54
(dp3665
sg63
g3645
sg56
(lp3666
g49
(g70
g51
NtRp3667
(dp3668
g54
(dp3669
sg63
g3663
sg56
(lp3670
g49
(g50
g51
NtRp3671
(dp3672
g54
(dp3673
g62
I3
ssg63
g3667
sg56
(lp3674
g92
asbasbasbag49
(g65
g51
NtRp3675
(dp3676
g54
(dp3677
sg63
g3645
sg56
(lp3678
g49
(g70
g51
NtRp3679
(dp3680
g54
(dp3681
sg63
g3675
sg56
(lp3682
g49
(g50
g51
NtRp3683
(dp3684
g54
(dp3685
g62
I3
ssg63
g3679
sg56
(lp3686
S'/parleyweb/default/index'
p3687
asbasbasbag49
(g65
g51
NtRp3688
(dp3689
g54
(dp3690
sg63
g3645
sg56
(lp3691
g49
(g70
g51
NtRp3692
(dp3693
g54
(dp3694
sg63
g3688
sg56
(lp3695
g49
(g50
g51
NtRp3696
(dp3697
g54
(dp3698
g62
I3
ssg63
g3692
sg56
(lp3699
g49
(g58
g51
NtRp3700
(dp3701
g54
(dp3702
g62
I2
ssg63
Nsg56
(lp3703
sbasbasbasbasbasbasbasbasbasbasbasbag49
(g65
g51
NtRp3704
(dp3705
g54
(dp3706
sg63
g2995
sg56
(lp3707
g49
(g70
g51
NtRp3708
(dp3709
g54
(dp3710
g74
g75
ssg63
g3704
sg56
(lp3711
S'meta'
p3712
asbag49
(g70
g51
NtRp3713
(dp3714
g54
(dp3715
g81
g82
ssg63
g3704
sg56
(lp3716
S':'
asbag49
(g70
g51
NtRp3717
(dp3718
g54
(dp3719
sg63
g3704
sg56
(lp3720
g49
(g50
g51
NtRp3721
(dp3722
g54
(dp3723
g62
I5
ssg63
g3717
sg56
(lp3724
g49
(g58
g51
NtRp3725
(dp3726
g54
(dp3727
g62
I4
ssg63
Nsg56
(lp3728
g49
(g65
g51
NtRp3729
(dp3730
g54
(dp3731
sg63
g3725
sg56
(lp3732
g49
(g70
g51
NtRp3733
(dp3734
g54
(dp3735
g74
g75
ssg63
g3729
sg56
(lp3736
S'author'
p3737
asbag49
(g70
g51
NtRp3738
(dp3739
g54
(dp3740
g81
g82
ssg63
g3729
sg56
(lp3741
S':'
asbag49
(g70
g51
NtRp3742
(dp3743
g54
(dp3744
sg63
g3729
sg56
(lp3745
g49
(g50
g51
NtRp3746
(dp3747
g54
(dp3748
g62
I4
ssg63
g3742
sg56
(lp3749
S'Your Name <you@example.com>'
p3750
asbasbasbag49
(g65
g51
NtRp3751
(dp3752
g54
(dp3753
sg63
g3725
sg56
(lp3754
g49
(g70
g51
NtRp3755
(dp3756
g54
(dp3757
g74
g75
ssg63
g3751
sg56
(lp3758
S'copyright'
p3759
asbag49
(g70
g51
NtRp3760
(dp3761
g54
(dp3762
g81
g82
ssg63
g3751
sg56
(lp3763
S':'
asbag49
(g70
g51
NtRp3764
(dp3765
g54
(dp3766
sg63
g3751
sg56
(lp3767
g49
(g50
g51
NtRp3768
(dp3769
g54
(dp3770
g62
I4
ssg63
g3764
sg56
(lp3771
S'Copyright 2011'
p3772
asbasbasbag49
(g65
g51
NtRp3773
(dp3774
g54
(dp3775
sg63
g3725
sg56
(lp3776
g49
(g70
g51
NtRp3777
(dp3778
g54
(dp3779
g74
g75
ssg63
g3773
sg56
(lp3780
S'description'
p3781
asbag49
(g70
g51
NtRp3782
(dp3783
g54
(dp3784
g81
g82
ssg63
g3773
sg56
(lp3785
S':'
asbag49
(g70
g51
NtRp3786
(dp3787
g54
(dp3788
sg63
g3773
sg56
(lp3789
g49
(g50
g51
NtRp3790
(dp3791
g54
(dp3792
g62
I4
ssg63
g3786
sg56
(lp3793
S'a cool new app'
p3794
asbasbasbag49
(g65
g51
NtRp3795
(dp3796
g54
(dp3797
sg63
g3725
sg56
(lp3798
g49
(g70
g51
NtRp3799
(dp3800
g54
(dp3801
g74
g75
ssg63
g3795
sg56
(lp3802
S'generator'
p3803
asbag49
(g70
g51
NtRp3804
(dp3805
g54
(dp3806
g81
g82
ssg63
g3795
sg56
(lp3807
S':'
asbag49
(g70
g51
NtRp3808
(dp3809
g54
(dp3810
sg63
g3795
sg56
(lp3811
g49
(g50
g51
NtRp3812
(dp3813
g54
(dp3814
g62
I4
ssg63
g3808
sg56
(lp3815
S'Web2py Web Framework'
p3816
asbasbasbag49
(g65
g51
NtRp3817
(dp3818
g54
(dp3819
sg63
g3725
sg56
(lp3820
g49
(g70
g51
NtRp3821
(dp3822
g54
(dp3823
g74
g75
ssg63
g3817
sg56
(lp3824
S'keywords'
p3825
asbag49
(g70
g51
NtRp3826
(dp3827
g54
(dp3828
g81
g82
ssg63
g3817
sg56
(lp3829
S':'
asbag49
(g70
g51
NtRp3830
(dp3831
g54
(dp3832
sg63
g3817
sg56
(lp3833
g49
(g50
g51
NtRp3834
(dp3835
g54
(dp3836
g62
I4
ssg63
g3830
sg56
(lp3837
S'web2py, python, framework'
p3838
asbasbasbasbasbasbasbag49
(g65
g51
NtRp3839
(dp3840
g54
(dp3841
sg63
g2995
sg56
(lp3842
g49
(g70
g51
NtRp3843
(dp3844
g54
(dp3845
g74
g75
ssg63
g3839
sg56
(lp3846
S'postprocessing'
p3847
asbag49
(g70
g51
NtRp3848
(dp3849
g54
(dp3850
g81
g82
ssg63
g3839
sg56
(lp3851
S':'
asbag49
(g70
g51
NtRp3852
(dp3853
g54
(dp3854
sg63
g3839
sg56
(lp3855
g49
(g50
g51
NtRp3856
(dp3857
g54
(dp3858
g62
I5
ssg63
g3852
sg56
(lp3859
g49
(g58
g51
NtRp3860
(dp3861
g54
(dp3862
g62
I4
ssg63
Nsg56
(lp3863
sbasbasbasbag49
(g65
g51
NtRp3864
(dp3865
g54
(dp3866
sg63
g2995
sg56
(lp3867
g49
(g70
g51
NtRp3868
(dp3869
g54
(dp3870
g74
g75
ssg63
g3864
sg56
(lp3871
S'session_file'
p3872
asbag49
(g70
g51
NtRp3873
(dp3874
g54
(dp3875
g81
g82
ssg63
g3864
sg56
(lp3876
S':'
asbag49
(g70
g51
NtRp3877
(dp3878
g54
(dp3879
sg63
g3864
sg56
(lp3880
g49
(g50
g51
NtRp3881
(dp3882
g54
(dp3883
g62
I5
ssg63
g3877
sg56
(lp3884
S"<open file 'D:\\Dise\xf1o Web\\Proyectos\\Parleyweb\\web2py\\applications\\parleyweb\\sessions\\127.0.0.1-0780c0c1-affd-425a-affb-ac061c4961c7', mode 'rb+' at 0x07247410>"
p3885
asbasbasbag49
(g65
g51
NtRp3886
(dp3887
g54
(dp3888
sg63
g2995
sg56
(lp3889
g49
(g70
g51
NtRp3890
(dp3891
g54
(dp3892
g74
g75
ssg63
g3886
sg56
(lp3893
S'session_filename'
p3894
asbag49
(g70
g51
NtRp3895
(dp3896
g54
(dp3897
g81
g82
ssg63
g3886
sg56
(lp3898
S':'
asbag49
(g70
g51
NtRp3899
(dp3900
g54
(dp3901
sg63
g3886
sg56
(lp3902
g49
(g50
g51
NtRp3903
(dp3904
g54
(dp3905
g62
I5
ssg63
g3899
sg56
(lp3906
S'D:\\Dise\xf1o Web\\Proyectos\\Parleyweb\\web2py\\applications\\parleyweb\\sessions\\127.0.0.1-0780c0c1-affd-425a-affb-ac061c4961c7'
p3907
asbasbasbag49
(g65
g51
NtRp3908
(dp3909
g54
(dp3910
sg63
g2995
sg56
(lp3911
g49
(g70
g51
NtRp3912
(dp3913
g54
(dp3914
g74
g75
ssg63
g3908
sg56
(lp3915
S'session_id'
p3916
asbag49
(g70
g51
NtRp3917
(dp3918
g54
(dp3919
g81
g82
ssg63
g3908
sg56
(lp3920
S':'
asbag49
(g70
g51
NtRp3921
(dp3922
g54
(dp3923
sg63
g3908
sg56
(lp3924
g49
(g50
g51
NtRp3925
(dp3926
g54
(dp3927
g62
I5
ssg63
g3921
sg56
(lp3928
S'127.0.0.1-0780c0c1-affd-425a-affb-ac061c4961c7'
p3929
asbasbasbag49
(g65
g51
NtRp3930
(dp3931
g54
(dp3932
sg63
g2995
sg56
(lp3933
g49
(g70
g51
NtRp3934
(dp3935
g54
(dp3936
g74
g75
ssg63
g3930
sg56
(lp3937
S'session_id_name'
p3938
asbag49
(g70
g51
NtRp3939
(dp3940
g54
(dp3941
g81
g82
ssg63
g3930
sg56
(lp3942
S':'
asbag49
(g70
g51
NtRp3943
(dp3944
g54
(dp3945
sg63
g3930
sg56
(lp3946
g49
(g50
g51
NtRp3947
(dp3948
g54
(dp3949
g62
I5
ssg63
g3943
sg56
(lp3950
g3052
asbasbasbag49
(g65
g51
NtRp3951
(dp3952
g54
(dp3953
sg63
g2995
sg56
(lp3954
g49
(g70
g51
NtRp3955
(dp3956
g54
(dp3957
g74
g75
ssg63
g3951
sg56
(lp3958
S'session_locked'
p3959
asbag49
(g70
g51
NtRp3960
(dp3961
g54
(dp3962
g81
g82
ssg63
g3951
sg56
(lp3963
S':'
asbag49
(g70
g51
NtRp3964
(dp3965
g54
(dp3966
sg63
g3951
sg56
(lp3967
g49
(g50
g51
NtRp3968
(dp3969
g54
(dp3970
g62
I5
ssg63
g3964
sg56
(lp3971
g1600
asbasbasbag49
(g65
g51
NtRp3972
(dp3973
g54
(dp3974
sg63
g2995
sg56
(lp3975
g49
(g70
g51
NtRp3976
(dp3977
g54
(dp3978
g74
g75
ssg63
g3972
sg56
(lp3979
S'session_new'
p3980
asbag49
(g70
g51
NtRp3981
(dp3982
g54
(dp3983
g81
g82
ssg63
g3972
sg56
(lp3984
S':'
asbag49
(g70
g51
NtRp3985
(dp3986
g54
(dp3987
sg63
g3972
sg56
(lp3988
g49
(g50
g51
NtRp3989
(dp3990
g54
(dp3991
g62
I5
ssg63
g3985
sg56
(lp3992
g92
asbasbasbag49
(g65
g51
NtRp3993
(dp3994
g54
(dp3995
sg63
g2995
sg56
(lp3996
g49
(g70
g51
NtRp3997
(dp3998
g54
(dp3999
g74
g75
ssg63
g3993
sg56
(lp4000
S'status'
p4001
asbag49
(g70
g51
NtRp4002
(dp4003
g54
(dp4004
g81
g82
ssg63
g3993
sg56
(lp4005
S':'
asbag49
(g70
g51
NtRp4006
(dp4007
g54
(dp4008
sg63
g3993
sg56
(lp4009
g49
(g50
g51
NtRp4010
(dp4011
g54
(dp4012
g62
I5
ssg63
g4006
sg56
(lp4013
S'200'
p4014
asbasbasbag49
(g65
g51
NtRp4015
(dp4016
g54
(dp4017
sg63
g2995
sg56
(lp4018
g49
(g70
g51
NtRp4019
(dp4020
g54
(dp4021
g74
g75
ssg63
g4015
sg56
(lp4022
S'subtitle'
p4023
asbag49
(g70
g51
NtRp4024
(dp4025
g54
(dp4026
g81
g82
ssg63
g4015
sg56
(lp4027
S':'
asbag49
(g70
g51
NtRp4028
(dp4029
g54
(dp4030
sg63
g4015
sg56
(lp4031
g49
(g50
g51
NtRp4032
(dp4033
g54
(dp4034
g62
I5
ssg63
g4028
sg56
(lp4035
g3661
(S's\t\x00\x00\x00Adaptame!'
tRp4036
asbasbasbag49
(g65
g51
NtRp4037
(dp4038
g54
(dp4039
sg63
g2995
sg56
(lp4040
g49
(g70
g51
NtRp4041
(dp4042
g54
(dp4043
g74
g75
ssg63
g4037
sg56
(lp4044
S'title'
p4045
asbag49
(g70
g51
NtRp4046
(dp4047
g54
(dp4048
g81
g82
ssg63
g4037
sg56
(lp4049
S':'
asbag49
(g70
g51
NtRp4050
(dp4051
g54
(dp4052
sg63
g4037
sg56
(lp4053
g49
(g50
g51
NtRp4054
(dp4055
g54
(dp4056
g62
I5
ssg63
g4050
sg56
(lp4057
S'Parleyweb'
p4058
asbasbasbag49
(g65
g51
NtRp4059
(dp4060
g54
(dp4061
sg63
g2995
sg56
(lp4062
g49
(g70
g51
NtRp4063
(dp4064
g54
(dp4065
g74
g75
ssg63
g4059
sg56
(lp4066
g2286
asbag49
(g70
g51
NtRp4067
(dp4068
g54
(dp4069
g81
g82
ssg63
g4059
sg56
(lp4070
S':'
asbag49
(g70
g51
NtRp4071
(dp4072
g54
(dp4073
sg63
g4059
sg56
(lp4074
g49
(g50
g51
NtRp4075
(dp4076
g54
(dp4077
g62
I5
ssg63
g4071
sg56
(lp4078
g2299
asbasbasbag49
(g65
g51
NtRp4079
(dp4080
g54
(dp4081
sg63
g2995
sg56
(lp4082
g49
(g70
g51
NtRp4083
(dp4084
g54
(dp4085
g74
g75
ssg63
g4079
sg56
(lp4086
S'view'
p4087
asbag49
(g70
g51
NtRp4088
(dp4089
g54
(dp4090
g81
g82
ssg63
g4079
sg56
(lp4091
S':'
asbag49
(g70
g51
NtRp4092
(dp4093
g54
(dp4094
sg63
g4079
sg56
(lp4095
g49
(g50
g51
NtRp4096
(dp4097
g54
(dp4098
g62
I5
ssg63
g4092
sg56
(lp4099
S'default/mostrar.html'
p4100
asbasbasbasbasbsS'locals'
p4101
(dp4102
S'self'
p4103
S"<Row {'palabras': <Row {'presente_1': '', 'image...te_record': <function <lambda> at 0x06FFFDB0>}>}>"
p4104
sS'm'
S'None'
p4105
sS'key'
p4106
S"'ejemplo_de'"
p4107
sssS'traceback'
p4108
S'Traceback (most recent call last):\n  File "gluon/restricted.py", line 205, in restricted\n  File "D:\\Dise\xf1o Web\\Proyectos\\Parleyweb\\web2py\\applications\\parleyweb\\views\\default/mostrar.html", line 228, in <module>\n  File "gluon/dal.py", line 5657, in __getattr__\n  File "gluon/dal.py", line 5648, in __getitem__\nKeyError: \'ejemplo_de\'\n'
p4109
s.