(dp1
S'output'
p2
S"<type 'exceptions.AttributeError'> 'Rows' object has no attribute 'ejemplos'"
p3
sS'layer'
p4
S'D:\\Dise\xf1o Web\\Proyectos\\Parleyweb\\web2py\\applications\\parleyweb\\views\\admin/buscar_ejemplos2.html'
p5
sS'code'
p6
S'response.write(\'<!DOCTYPE html>\\n<!-- paulirish.com/2008/conditional-stylesheets-vs-css-hacks-answer-neither/ -->\\n<!--[if lt IE 7]><html class="ie ie6 ie-lte9 ie-lte8 ie-lte7 no-js" lang="\', escape=False)\nresponse.write(T.accepted_language or \'en\')\nresponse.write(\'"> <![endif]-->\\n<!--[if IE 7]><html class="ie ie7 ie-lte9 ie-lte8 ie-lte7 no-js" lang="\', escape=False)\nresponse.write(T.accepted_language or \'en\')\nresponse.write(\'"> <![endif]-->\\n<!--[if IE 8]><html class="ie ie8 ie-lte9 ie-lte8 no-js" lang="\', escape=False)\nresponse.write(T.accepted_language or \'en\')\nresponse.write(\'"> <![endif]-->\\n<!--[if IE 9]><html class="ie9 ie-lte9 no-js" lang="\', escape=False)\nresponse.write(T.accepted_language or \'en\')\nresponse.write(\'"> <![endif]-->\\n<!--[if (gt IE 9)|!(IE)]><!--> <html class="no-js" lang="\', escape=False)\nresponse.write(T.accepted_language or \'en\')\nresponse.write(\'"> <!--<![endif]-->\\n<head>\\n  <meta charset="utf-8" />\\n  <!-- www.phpied.com/conditional-comments-block-downloads/ -->\\n  <!-- Always force latest IE rendering engine\\n\\t   (even in intranet) & Chrome Frame\\n\\t   Remove this if you use the .htaccess -->\\n  <!--[if IE]>\\n    <meta http-equiv="X-UA-Compatible" content="IE=edge\', escape=False)\nresponse.write(not request.is_local and \',chrome=1\' or \'\')\nresponse.write(\'">\\n  <![endif]-->\\n  \\n  <title>\', escape=False)\nresponse.write(response.title or request.application)\nresponse.write(\'</title>\\n  \\n  <!-- http://dev.w3.org/html5/markup/meta.name.html -->\\n  <meta name="application-name" content="\', escape=False)\nresponse.write(request.application)\nresponse.write(\'" />\\n  \\n  <!-- Speaking of Google, don\\\'t forget to set your site up:\\n\\t   http://google.com/webmasters -->\\n  <meta name="google-site-verification" content="" />\\n\\n  <!--  Mobile Viewport Fix\\n\\t  j.mp/mobileviewport & davidbcalhoun.com/2010/viewport-metatag\\n\\t  device-width: Occupy full width of the screen in its current orientation\\n\\t  initial-scale = 1.0 retains dimensions instead of zooming out if page height > device height\\n\\t  user-scalable = yes allows the user to zoom in -->\\n  <meta name="viewport" content="width=device-width, initial-scale=1.0, user-scalable=yes">\\n  \\n  <!-- Place favicon.ico and apple-touch-icon.png in the root of your domain and delete these references -->\\n  <link rel="shortcut icon" href="\', escape=False)\nresponse.write(URL(\'static\',\'favicon.ico\'))\nresponse.write(\'" type="image/x-icon">\\n  <link rel="apple-touch-icon" href="\', escape=False)\nresponse.write(URL(\'static\',\'favicon.png\'))\nresponse.write(\'">\\n\\n  <!-- All JavaScript at the bottom, except for Modernizr which enables \\n\\t   HTML5 elements & feature detects -->\\n  <script src="\', escape=False)\nresponse.write(URL(\'static\',\'js/modernizr.custom.js\'))\nresponse.write(\'"></script>  \\n\\n  <!-- include stylesheets -->\\n  \', escape=False)\nresponse.files.append(URL(\'static\',\'css/bootstrap.css\'))\nresponse.files.append(URL(\'static\',\'js/bootstrap.js\'))\nresponse.files.append(URL(\'static\',\'js/jquery.tokeninput.js\'))\nresponse.files.append(URL(\'static\',\'css/parleyweb.css\'))\nresponse.files.append(URL(\'static\',\'css/jqtransform.css\'))\nresponse.files.append(URL(\'static\',\'js/parleyweb.js\'))\nresponse.files.append(URL(\'static\',\'js/jquery.jqtransform.js\'))\nresponse.write(\'\\n\\n  \', escape=False)\nresponse.write(\'<script type="text/javascript"><!--\\n    // These variables are used by the web2py_ajax_init function in web2py_ajax.js (which is loaded below).\\n    var w2p_ajax_confirm_message = "\', escape=False)\nresponse.write(T(\'Are you sure you want to delete this object?\'))\nresponse.write(\'";\\n    var w2p_ajax_date_format = "\', escape=False)\nresponse.write(T(\'%Y-%m-%d\'))\nresponse.write(\'";\\n    var w2p_ajax_datetime_format = "\', escape=False)\nresponse.write(T(\'%Y-%m-%d %H:%M:%S\'))\nresponse.write(\'";\\n    //--></script>\\n\', escape=False)\nresponse.files.insert(0,URL(\'static\',\'js/jquery.js\'))\nresponse.files.insert(1,URL(\'static\',\'css/calendar.css\'))\nresponse.files.insert(2,URL(\'static\',\'js/calendar.js\'))\nresponse.files.insert(3,URL(\'static\',\'js/web2py.js\'))\nresponse.include_meta()\nresponse.include_files()\nresponse.write(\'\\n\', escape=False)\nresponse.write(\'\\n\\n  \\n\\n  \', escape=False)\n# using sidebars need to know what sidebar you want to use\nleft_sidebar_enabled = globals().get(\'left_sidebar_enabled\',False)\nright_sidebar_enabled = globals().get(\'right_sidebar_enabled\',False)\nmiddle_columns = {0:\'sixteen\',1:\'twelve\',2:\'eight\'}[\n(left_sidebar_enabled and 1 or 0)+(right_sidebar_enabled and 1 or 0)]\nresponse.write(\'\\n\\n  <!-- uncomment here to load jquery-ui\\n  <link rel="stylesheet" href="http://ajax.googleapis.com/ajax/libs/jqueryui/1.8.16/themes/base/jquery-ui.css" type="text/css" media="all" />\\n  <script src="http://ajax.googleapis.com/ajax/libs/jqueryui/1.8.16/jquery-ui.min.js" type="text/javascript"></script>\\n  uncomment to load jquery-ui //-->\\n</head>\\n <body>\\n\\n    <div class="navbar navbar-fixed-top">\\n      <div class="navbar-inner">\\n        <div class="container-fluid">\\n          <a class="btn btn-navbar" data-toggle="collapse" data-target=".nav-collapse">\\n            <span class="icon-bar"></span>\\n            <span class="icon-bar"></span>\\n            <span class="icon-bar"></span>\\n          </a>\\n          <a class="brand" href=\', escape=False)\nresponse.write(URL(\'index\'))\nresponse.write(\'>Administracion</a>\\n          <div class="nav-collapse">\\n\\t    \', escape=False)\n#=MENU(response.menu, _class="nav active")\nresponse.write(\'\\n            <ul class="nav">\\n\\t      <li>\', escape=False)\nresponse.write(A(T(\'Parleyweb\'), _href=URL(\'default\',\'index\')))\nresponse.write(\'</li>\\n\\t      <!--<li class="dropdown" id="menu2">\\n\\t\\t<a class="dropdown-toggle" data-toggle="dropdown" href="web2py-utilidades"}}>\\n\\t\\t\', escape=False)\nresponse.write(T(\'Web2py utilidades\'))\nresponse.write(\'\\n\\t\\t<b class="caret"></b>\\n\\t\\t</a>\\n\\t\\t<ul class="dropdown-menu">\\n\\t\\t<li>\', escape=False)\nresponse.write(A(T(\'Sqlgrid palabra\'), _href=URL(\'admin\',\'agregar_palabra_grid\')))\nresponse.write(\'</li>\\n\\t\\t</ul>\\n\\t      </li> -->\\n            </ul> \\n\\t    \\n            <p class="navbar-text pull-right">\', escape=False)\nresponse.write(\'auth\' in globals() and auth.navbar(separators=(\' \',\' | \',\'\')))\nresponse.write(\'</p>\\n          </div><!--/.nav-collapse -->\\n        </div>\\n      </div>\\n    </div>\\n    <div class="flash alert alert-info"></i>\', escape=False)\nresponse.write(response.flash or \'\')\nresponse.write(\'</div>\\n    <div class="container-fluid">\\n      <div class="row-fluid">\\n\\t\\n        <div class="span3">\\n\\t  \\n          <div class="well sidebar-nav">\\n            <ul class="nav nav-list">\\n              <li class="nav-header">Agregar</li>\\n              <li>\', escape=False)\nresponse.write(A(T(\'Palabra\'), _href=URL(\'admin\',\'agregar_palabra\')))\nresponse.write(\'</li>\\n\\t      <li>\', escape=False)\nresponse.write(A(T(\'Ejemplo\'), _href=URL(\'admin\',\'agregar_ejemplo\')))\nresponse.write(\'</li>\\n\\t      <li>\', escape=False)\nresponse.write(A(T(\'Fuente\'), _href=URL(\'admin\',\'agregar_fuente\')))\nresponse.write(\'</li>\\n\\t      <li>\', escape=False)\nresponse.write(A(T(\'Glosario\'), _href=URL(\'admin\',\'agregar_glosario\')))\nresponse.write(\'</li>\\n\\t      \', escape=False)\nresponse.write(\'\\n\\t      \', escape=False)\nresponse.write(\'\\n              <li class="nav-header">Estadisticas</li>\\n\\t      \', escape=False)\nresponse.write(\'\\n\\t      \', escape=False)\nresponse.write(\'\\n    \\n            </ul>\\n          </div><!--/.well -->\\n\\t \\n        </div><!--/span-->\\n\\t\\n\\t \\n\\t\\n        <div class="span9">\\n\\t  \', escape=False)\nresponse.write(\'\\n\\t  \\n           \\n\\t   \', escape=False)\nresponse.write(\'\\r\\n    <div class="opciones"> \\r\\n        <h3>Ejemplos con <span class="palabra_destacada">\', escape=False)\nresponse.write(request.raw_args)\nresponse.write(\'</span></h3>\\r\\n        <div class="wellparley">\\r\\n            <table class="table table-striped table-bordered">\\r\\n                <thead>\\r\\n                    <th>Ejemplos</th>\\r\\n                    <th>relacionar</th>\\r\\n                </thead>\\r\\n                <tbody>\\r\\n                    <tr>\', escape=False)\nresponse.write(buscar.ejemplos.ejemplo_de)\nresponse.write(\'</tr>\\r\\n                    <tr></tr>\\r\\n                </tbody>\\r\\n            </table>\\r\\n        </div>\\r\\n    </div>\\r\\n\\r\\n\\r\\n\\r\\n\\r\\n\\r\\n\', escape=False)\n#=buscar\nresponse.write(\'\\r\\n\', escape=False)\n#=request.raw_args\nresponse.write(\'\\n\\t  \\n\\t  \\n\\t  \', escape=False)\nresponse.write(\'\\n        </div>\\n          \\n          \\n        </div><!--/span-->\\n      </div><!--/row-->\\n\\n      <hr>\\n\\n      <footer>\\n        <p>\\xc2\\xa9 Company 2012</p>\\n      </footer>\\n\\n    </div><!--/.fluid-container-->\\n    \\n    <!-- Le javascript\\n    ================================================== -->\\n    <!-- Placed at the end of the document so the pages load faster \\n    <script>\\n      $(function () {\\n      $(\\\'.tabs a:last\\\').tab(\\\'show\\\')\\n      })\\n    </script>-->\\n    <script>\\n      $(\\\'#borrar_palabra\\\').modal(\\\'show\\\')\\n    </script>\\n    <script>\\n      $(\\\'#editar_palabra\\\').modal(\\\'show\\\')\\n    </script>\\n    <script>\\n      $(\\\'#borrar_ejemplo\\\').modal(\\\'show\\\')\\n    </script>\\n    <script>\\n      $(\\\'#editar-ejemplo\\\').modal(\\\'show\\\')\\n    </script>\\n    <script>\\n      $(\\\'#borrar_fuente\\\').modal(\\\'show\\\')\\n    </script>\\n    <script>\\n      $(\\\'#editar-fuente\\\').modal(\\\'show\\\')\\n    </script>\\n    <script type="text/javascript">\\n      $(function() {\\n\\t  //find all form with class jqtransform and apply the plugin\\n\\t  $("form.jqtransform").jqTransform();\\n      });\\n</script>\\n    \\n\\n \\n\\n</body>\\n</html>\\n\', escape=False)'
p7
sS'snapshot'
p8
(dp9
S'exception'
p10
(dp11
S'__hash__'
p12
S"<method-wrapper '__hash__' of exceptions.AttributeError object at 0x072F56E8>"
p13
sS'__setattr__'
p14
S"<method-wrapper '__setattr__' of exceptions.AttributeError object at 0x072F56E8>"
p15
sS'__reduce_ex__'
p16
S'<built-in method __reduce_ex__ of exceptions.AttributeError object at 0x072F56E8>'
p17
sS'__getslice__'
p18
S"<method-wrapper '__getslice__' of exceptions.AttributeError object at 0x072F56E8>"
p19
sS'__getitem__'
p20
S"<method-wrapper '__getitem__' of exceptions.AttributeError object at 0x072F56E8>"
p21
sS'__setstate__'
p22
S'<built-in method __setstate__ of exceptions.AttributeError object at 0x072F56E8>'
p23
sS'__reduce__'
p24
S'<built-in method __reduce__ of exceptions.AttributeError object at 0x072F56E8>'
p25
sS'__str__'
p26
S"<method-wrapper '__str__' of exceptions.AttributeError object at 0x072F56E8>"
p27
sS'args'
p28
S'("\'Rows\' object has no attribute \'ejemplos\'",)'
p29
sS'__getattribute__'
p30
S"<method-wrapper '__getattribute__' of exceptions.AttributeError object at 0x072F56E8>"
p31
sS'__class__'
p32
S"<type 'exceptions.AttributeError'>"
p33
sS'__delattr__'
p34
S"<method-wrapper '__delattr__' of exceptions.AttributeError object at 0x072F56E8>"
p35
sS'__repr__'
p36
S"<method-wrapper '__repr__' of exceptions.AttributeError object at 0x072F56E8>"
p37
sS'__dict__'
p38
S'{}'
p39
sS'__doc__'
p40
S"'Attribute not found.'"
p41
sS'__init__'
p42
S"<method-wrapper '__init__' of exceptions.AttributeError object at 0x072F56E8>"
p43
sS'__new__'
p44
S'<built-in method __new__ of type object at 0x1E1CDA68>'
p45
ssS'evalue'
p46
S"'Rows' object has no attribute 'ejemplos'"
p47
sS'request'
p48
ccopy_reg
_reconstructor
p49
(cgluon.html
BEAUTIFY
p50
c__builtin__
object
p51
NtRp52
(dp53
S'attributes'
p54
(dp55
sS'components'
p56
(lp57
g49
(cgluon.html
TABLE
p58
g51
NtRp59
(dp60
g54
(dp61
S'level'
p62
I5
ssS'parent'
p63
Nsg56
(lp64
g49
(cgluon.html
TR
p65
g51
NtRp66
(dp67
g54
(dp68
sg63
g59
sg56
(lp69
g49
(cgluon.html
TD
p70
g51
NtRp71
(dp72
g54
(dp73
S'_style'
p74
S'font-weight:bold;vertical-align:top'
p75
ssg63
g66
sg56
(lp76
S'ajax'
p77
asbag49
(g70
g51
NtRp78
(dp79
g54
(dp80
S'_valign'
p81
S'top'
p82
ssg63
g66
sg56
(lp83
S':'
asbag49
(g70
g51
NtRp84
(dp85
g54
(dp86
sg63
g66
sg56
(lp87
g49
(g50
g51
NtRp88
(dp89
g54
(dp90
g62
I5
ssg63
g84
sg56
(lp91
S'False'
p92
asbasbasbag49
(g65
g51
NtRp93
(dp94
g54
(dp95
sg63
g59
sg56
(lp96
g49
(g70
g51
NtRp97
(dp98
g54
(dp99
g74
g75
ssg63
g93
sg56
(lp100
S'application'
p101
asbag49
(g70
g51
NtRp102
(dp103
g54
(dp104
g81
g82
ssg63
g93
sg56
(lp105
S':'
asbag49
(g70
g51
NtRp106
(dp107
g54
(dp108
sg63
g93
sg56
(lp109
g49
(g50
g51
NtRp110
(dp111
g54
(dp112
g62
I5
ssg63
g106
sg56
(lp113
S'parleyweb'
p114
asbasbasbag49
(g65
g51
NtRp115
(dp116
g54
(dp117
sg63
g59
sg56
(lp118
g49
(g70
g51
NtRp119
(dp120
g54
(dp121
g74
g75
ssg63
g115
sg56
(lp122
S'body'
p123
asbag49
(g70
g51
NtRp124
(dp125
g54
(dp126
g81
g82
ssg63
g115
sg56
(lp127
S':'
asbag49
(g70
g51
NtRp128
(dp129
g54
(dp130
sg63
g115
sg56
(lp131
g49
(g50
g51
NtRp132
(dp133
g54
(dp134
g62
I5
ssg63
g128
sg56
(lp135
S'<cStringIO.StringO object at 0x075AA6A0>'
p136
asbasbasbag49
(g65
g51
NtRp137
(dp138
g54
(dp139
sg63
g59
sg56
(lp140
g49
(g70
g51
NtRp141
(dp142
g54
(dp143
g74
g75
ssg63
g137
sg56
(lp144
S'client'
p145
asbag49
(g70
g51
NtRp146
(dp147
g54
(dp148
g81
g82
ssg63
g137
sg56
(lp149
S':'
asbag49
(g70
g51
NtRp150
(dp151
g54
(dp152
sg63
g137
sg56
(lp153
g49
(g50
g51
NtRp154
(dp155
g54
(dp156
g62
I5
ssg63
g150
sg56
(lp157
S'127.0.0.1'
p158
asbasbasbag49
(g65
g51
NtRp159
(dp160
g54
(dp161
sg63
g59
sg56
(lp162
g49
(g70
g51
NtRp163
(dp164
g54
(dp165
g74
g75
ssg63
g159
sg56
(lp166
S'controller'
p167
asbag49
(g70
g51
NtRp168
(dp169
g54
(dp170
g81
g82
ssg63
g159
sg56
(lp171
S':'
asbag49
(g70
g51
NtRp172
(dp173
g54
(dp174
sg63
g159
sg56
(lp175
g49
(g50
g51
NtRp176
(dp177
g54
(dp178
g62
I5
ssg63
g172
sg56
(lp179
S'admin'
p180
asbasbasbag49
(g65
g51
NtRp181
(dp182
g54
(dp183
sg63
g59
sg56
(lp184
g49
(g70
g51
NtRp185
(dp186
g54
(dp187
g74
g75
ssg63
g181
sg56
(lp188
S'cookies'
p189
asbag49
(g70
g51
NtRp190
(dp191
g54
(dp192
g81
g82
ssg63
g181
sg56
(lp193
S':'
asbag49
(g70
g51
NtRp194
(dp195
g54
(dp196
sg63
g181
sg56
(lp197
g49
(g50
g51
NtRp198
(dp199
g54
(dp200
g62
I5
ssg63
g194
sg56
(lp201
g49
(g58
g51
NtRp202
(dp203
g54
(dp204
g62
I4
ssg63
Nsg56
(lp205
g49
(g65
g51
NtRp206
(dp207
g54
(dp208
sg63
g202
sg56
(lp209
g49
(g70
g51
NtRp210
(dp211
g54
(dp212
g74
g75
ssg63
g206
sg56
(lp213
S'session_id_admin'
p214
asbag49
(g70
g51
NtRp215
(dp216
g54
(dp217
g81
g82
ssg63
g206
sg56
(lp218
S':'
asbag49
(g70
g51
NtRp219
(dp220
g54
(dp221
sg63
g206
sg56
(lp222
g49
(g50
g51
NtRp223
(dp224
g54
(dp225
g62
I4
ssg63
g219
sg56
(lp226
g49
(g58
g51
NtRp227
(dp228
g54
(dp229
g62
I3
ssg63
Nsg56
(lp230
g49
(g65
g51
NtRp231
(dp232
g54
(dp233
sg63
g227
sg56
(lp234
g49
(g70
g51
NtRp235
(dp236
g54
(dp237
g74
g75
ssg63
g231
sg56
(lp238
S'comment'
p239
asbag49
(g70
g51
NtRp240
(dp241
g54
(dp242
g81
g82
ssg63
g231
sg56
(lp243
S':'
asbag49
(g70
g51
NtRp244
(dp245
g54
(dp246
sg63
g231
sg56
(lp247
g49
(g50
g51
NtRp248
(dp249
g54
(dp250
g62
I3
ssg63
g244
sg56
(lp251
S''
asbasbasbag49
(g65
g51
NtRp252
(dp253
g54
(dp254
sg63
g227
sg56
(lp255
g49
(g70
g51
NtRp256
(dp257
g54
(dp258
g74
g75
ssg63
g252
sg56
(lp259
S'domain'
p260
asbag49
(g70
g51
NtRp261
(dp262
g54
(dp263
g81
g82
ssg63
g252
sg56
(lp264
S':'
asbag49
(g70
g51
NtRp265
(dp266
g54
(dp267
sg63
g252
sg56
(lp268
g49
(g50
g51
NtRp269
(dp270
g54
(dp271
g62
I3
ssg63
g265
sg56
(lp272
S''
asbasbasbag49
(g65
g51
NtRp273
(dp274
g54
(dp275
sg63
g227
sg56
(lp276
g49
(g70
g51
NtRp277
(dp278
g54
(dp279
g74
g75
ssg63
g273
sg56
(lp280
S'expires'
p281
asbag49
(g70
g51
NtRp282
(dp283
g54
(dp284
g81
g82
ssg63
g273
sg56
(lp285
S':'
asbag49
(g70
g51
NtRp286
(dp287
g54
(dp288
sg63
g273
sg56
(lp289
g49
(g50
g51
NtRp290
(dp291
g54
(dp292
g62
I3
ssg63
g286
sg56
(lp293
S''
asbasbasbag49
(g65
g51
NtRp294
(dp295
g54
(dp296
sg63
g227
sg56
(lp297
g49
(g70
g51
NtRp298
(dp299
g54
(dp300
g74
g75
ssg63
g294
sg56
(lp301
S'max-age'
p302
asbag49
(g70
g51
NtRp303
(dp304
g54
(dp305
g81
g82
ssg63
g294
sg56
(lp306
S':'
asbag49
(g70
g51
NtRp307
(dp308
g54
(dp309
sg63
g294
sg56
(lp310
g49
(g50
g51
NtRp311
(dp312
g54
(dp313
g62
I3
ssg63
g307
sg56
(lp314
S''
asbasbasbag49
(g65
g51
NtRp315
(dp316
g54
(dp317
sg63
g227
sg56
(lp318
g49
(g70
g51
NtRp319
(dp320
g54
(dp321
g74
g75
ssg63
g315
sg56
(lp322
S'path'
p323
asbag49
(g70
g51
NtRp324
(dp325
g54
(dp326
g81
g82
ssg63
g315
sg56
(lp327
S':'
asbag49
(g70
g51
NtRp328
(dp329
g54
(dp330
sg63
g315
sg56
(lp331
g49
(g50
g51
NtRp332
(dp333
g54
(dp334
g62
I3
ssg63
g328
sg56
(lp335
S''
asbasbasbag49
(g65
g51
NtRp336
(dp337
g54
(dp338
sg63
g227
sg56
(lp339
g49
(g70
g51
NtRp340
(dp341
g54
(dp342
g74
g75
ssg63
g336
sg56
(lp343
S'secure'
p344
asbag49
(g70
g51
NtRp345
(dp346
g54
(dp347
g81
g82
ssg63
g336
sg56
(lp348
S':'
asbag49
(g70
g51
NtRp349
(dp350
g54
(dp351
sg63
g336
sg56
(lp352
g49
(g50
g51
NtRp353
(dp354
g54
(dp355
g62
I3
ssg63
g349
sg56
(lp356
S''
asbasbasbag49
(g65
g51
NtRp357
(dp358
g54
(dp359
sg63
g227
sg56
(lp360
g49
(g70
g51
NtRp361
(dp362
g54
(dp363
g74
g75
ssg63
g357
sg56
(lp364
S'version'
p365
asbag49
(g70
g51
NtRp366
(dp367
g54
(dp368
g81
g82
ssg63
g357
sg56
(lp369
S':'
asbag49
(g70
g51
NtRp370
(dp371
g54
(dp372
sg63
g357
sg56
(lp373
g49
(g50
g51
NtRp374
(dp375
g54
(dp376
g62
I3
ssg63
g370
sg56
(lp377
S''
asbasbasbasbasbasbasbag49
(g65
g51
NtRp378
(dp379
g54
(dp380
sg63
g202
sg56
(lp381
g49
(g70
g51
NtRp382
(dp383
g54
(dp384
g74
g75
ssg63
g378
sg56
(lp385
S'session_id_parleyweb'
p386
asbag49
(g70
g51
NtRp387
(dp388
g54
(dp389
g81
g82
ssg63
g378
sg56
(lp390
S':'
asbag49
(g70
g51
NtRp391
(dp392
g54
(dp393
sg63
g378
sg56
(lp394
g49
(g50
g51
NtRp395
(dp396
g54
(dp397
g62
I4
ssg63
g391
sg56
(lp398
g49
(g58
g51
NtRp399
(dp400
g54
(dp401
g62
I3
ssg63
Nsg56
(lp402
g49
(g65
g51
NtRp403
(dp404
g54
(dp405
sg63
g399
sg56
(lp406
g49
(g70
g51
NtRp407
(dp408
g54
(dp409
g74
g75
ssg63
g403
sg56
(lp410
g239
asbag49
(g70
g51
NtRp411
(dp412
g54
(dp413
g81
g82
ssg63
g403
sg56
(lp414
S':'
asbag49
(g70
g51
NtRp415
(dp416
g54
(dp417
sg63
g403
sg56
(lp418
g49
(g50
g51
NtRp419
(dp420
g54
(dp421
g62
I3
ssg63
g415
sg56
(lp422
S''
asbasbasbag49
(g65
g51
NtRp423
(dp424
g54
(dp425
sg63
g399
sg56
(lp426
g49
(g70
g51
NtRp427
(dp428
g54
(dp429
g74
g75
ssg63
g423
sg56
(lp430
g260
asbag49
(g70
g51
NtRp431
(dp432
g54
(dp433
g81
g82
ssg63
g423
sg56
(lp434
S':'
asbag49
(g70
g51
NtRp435
(dp436
g54
(dp437
sg63
g423
sg56
(lp438
g49
(g50
g51
NtRp439
(dp440
g54
(dp441
g62
I3
ssg63
g435
sg56
(lp442
S''
asbasbasbag49
(g65
g51
NtRp443
(dp444
g54
(dp445
sg63
g399
sg56
(lp446
g49
(g70
g51
NtRp447
(dp448
g54
(dp449
g74
g75
ssg63
g443
sg56
(lp450
g281
asbag49
(g70
g51
NtRp451
(dp452
g54
(dp453
g81
g82
ssg63
g443
sg56
(lp454
S':'
asbag49
(g70
g51
NtRp455
(dp456
g54
(dp457
sg63
g443
sg56
(lp458
g49
(g50
g51
NtRp459
(dp460
g54
(dp461
g62
I3
ssg63
g455
sg56
(lp462
S''
asbasbasbag49
(g65
g51
NtRp463
(dp464
g54
(dp465
sg63
g399
sg56
(lp466
g49
(g70
g51
NtRp467
(dp468
g54
(dp469
g74
g75
ssg63
g463
sg56
(lp470
g302
asbag49
(g70
g51
NtRp471
(dp472
g54
(dp473
g81
g82
ssg63
g463
sg56
(lp474
S':'
asbag49
(g70
g51
NtRp475
(dp476
g54
(dp477
sg63
g463
sg56
(lp478
g49
(g50
g51
NtRp479
(dp480
g54
(dp481
g62
I3
ssg63
g475
sg56
(lp482
S''
asbasbasbag49
(g65
g51
NtRp483
(dp484
g54
(dp485
sg63
g399
sg56
(lp486
g49
(g70
g51
NtRp487
(dp488
g54
(dp489
g74
g75
ssg63
g483
sg56
(lp490
g323
asbag49
(g70
g51
NtRp491
(dp492
g54
(dp493
g81
g82
ssg63
g483
sg56
(lp494
S':'
asbag49
(g70
g51
NtRp495
(dp496
g54
(dp497
sg63
g483
sg56
(lp498
g49
(g50
g51
NtRp499
(dp500
g54
(dp501
g62
I3
ssg63
g495
sg56
(lp502
S''
asbasbasbag49
(g65
g51
NtRp503
(dp504
g54
(dp505
sg63
g399
sg56
(lp506
g49
(g70
g51
NtRp507
(dp508
g54
(dp509
g74
g75
ssg63
g503
sg56
(lp510
g344
asbag49
(g70
g51
NtRp511
(dp512
g54
(dp513
g81
g82
ssg63
g503
sg56
(lp514
S':'
asbag49
(g70
g51
NtRp515
(dp516
g54
(dp517
sg63
g503
sg56
(lp518
g49
(g50
g51
NtRp519
(dp520
g54
(dp521
g62
I3
ssg63
g515
sg56
(lp522
S''
asbasbasbag49
(g65
g51
NtRp523
(dp524
g54
(dp525
sg63
g399
sg56
(lp526
g49
(g70
g51
NtRp527
(dp528
g54
(dp529
g74
g75
ssg63
g523
sg56
(lp530
g365
asbag49
(g70
g51
NtRp531
(dp532
g54
(dp533
g81
g82
ssg63
g523
sg56
(lp534
S':'
asbag49
(g70
g51
NtRp535
(dp536
g54
(dp537
sg63
g523
sg56
(lp538
g49
(g50
g51
NtRp539
(dp540
g54
(dp541
g62
I3
ssg63
g535
sg56
(lp542
S''
asbasbasbasbasbasbasbasbasbasbasbag49
(g65
g51
NtRp543
(dp544
g54
(dp545
sg63
g59
sg56
(lp546
g49
(g70
g51
NtRp547
(dp548
g54
(dp549
g74
g75
ssg63
g543
sg56
(lp550
S'env'
p551
asbag49
(g70
g51
NtRp552
(dp553
g54
(dp554
g81
g82
ssg63
g543
sg56
(lp555
S':'
asbag49
(g70
g51
NtRp556
(dp557
g54
(dp558
sg63
g543
sg56
(lp559
g49
(g50
g51
NtRp560
(dp561
g54
(dp562
g62
I5
ssg63
g556
sg56
(lp563
g49
(g58
g51
NtRp564
(dp565
g54
(dp566
g62
I4
ssg63
Nsg56
(lp567
g49
(g65
g51
NtRp568
(dp569
g54
(dp570
sg63
g564
sg56
(lp571
g49
(g70
g51
NtRp572
(dp573
g54
(dp574
g74
g75
ssg63
g568
sg56
(lp575
S'app_folders'
p576
asbag49
(g70
g51
NtRp577
(dp578
g54
(dp579
g81
g82
ssg63
g568
sg56
(lp580
S':'
asbag49
(g70
g51
NtRp581
(dp582
g54
(dp583
sg63
g568
sg56
(lp584
g49
(g50
g51
NtRp585
(dp586
g54
(dp587
g62
I4
ssg63
g581
sg56
(lp588
S"set(['D:\\\\Dise\\xf1o Web\\\\Proyectos\\\\Parleyweb\\\\web2py\\\\applications\\\\parleyweb\\\\', 'D:\\\\Dise\\xf1o Web\\\\Proyectos\\\\Parleyweb\\\\web2py\\\\applications\\\\admin\\\\'])"
p589
asbasbasbag49
(g65
g51
NtRp590
(dp591
g54
(dp592
sg63
g564
sg56
(lp593
g49
(g70
g51
NtRp594
(dp595
g54
(dp596
g74
g75
ssg63
g590
sg56
(lp597
S'applications_parent'
p598
asbag49
(g70
g51
NtRp599
(dp600
g54
(dp601
g81
g82
ssg63
g590
sg56
(lp602
S':'
asbag49
(g70
g51
NtRp603
(dp604
g54
(dp605
sg63
g590
sg56
(lp606
g49
(g50
g51
NtRp607
(dp608
g54
(dp609
g62
I4
ssg63
g603
sg56
(lp610
S'D:\\Dise\xf1o Web\\Proyectos\\Parleyweb\\web2py'
p611
asbasbasbag49
(g65
g51
NtRp612
(dp613
g54
(dp614
sg63
g564
sg56
(lp615
g49
(g70
g51
NtRp616
(dp617
g54
(dp618
g74
g75
ssg63
g612
sg56
(lp619
S'cmd_args'
p620
asbag49
(g70
g51
NtRp621
(dp622
g54
(dp623
g81
g82
ssg63
g612
sg56
(lp624
S':'
asbag49
(g70
g51
NtRp625
(dp626
g54
(dp627
sg63
g612
sg56
(lp628
g49
(g50
g51
NtRp629
(dp630
g54
(dp631
g62
I4
ssg63
g625
sg56
(lp632
g49
(g58
g51
NtRp633
(dp634
g54
(dp635
g62
I3
ssg63
Nsg56
(lp636
sbasbasbasbag49
(g65
g51
NtRp637
(dp638
g54
(dp639
sg63
g564
sg56
(lp640
g49
(g70
g51
NtRp641
(dp642
g54
(dp643
g74
g75
ssg63
g637
sg56
(lp644
S'cmd_options'
p645
asbag49
(g70
g51
NtRp646
(dp647
g54
(dp648
g81
g82
ssg63
g637
sg56
(lp649
S':'
asbag49
(g70
g51
NtRp650
(dp651
g54
(dp652
sg63
g637
sg56
(lp653
g49
(g50
g51
NtRp654
(dp655
g54
(dp656
g62
I4
ssg63
g650
sg56
(lp657
S"<Values at 0x317c238: {'verbose': False, 'ip': '127.0.0.1', 'shutdown_timeout': 5, 'taskbar': False, 'nocron': False, 'pid_filename': 'httpserver.pid', 'maxthreads': None, 'softcron': False, 'server_name': 'craxsnet-PC', 'bpython': False, 'nogui': False, 'port': 8000, 'extcron': False, 'debuglevel': 30, 'test': None, 'folder': 'D:\\\\Dise\\xf1o Web\\\\Proyectos\\\\Parleyweb\\\\web2py', 'config': '', 'import_models': False, 'winservice': '', 'shell': None, 'run': '', 'log_filename': 'httpserver.log', 'args': [''], 'socket_timeout': 5, 'ssl_ca_certificate': None, 'scheduler': None, 'profiler_filename': None, 'ssl_private_key': '', 'password': '<ask>', 'request_queue_size': 5, 'ssl_certificate': '', 'cronjob': False, 'numthreads': None, 'quiet': False, 'interfaces': None, 'minthreads': None, 'timeout': 10, 'plain': False, 'nobanner': False}>"
p658
asbasbasbag49
(g65
g51
NtRp659
(dp660
g54
(dp661
sg63
g564
sg56
(lp662
g49
(g70
g51
NtRp663
(dp664
g54
(dp665
g74
g75
ssg63
g659
sg56
(lp666
S'db_sessions'
p667
asbag49
(g70
g51
NtRp668
(dp669
g54
(dp670
g81
g82
ssg63
g659
sg56
(lp671
S':'
asbag49
(g70
g51
NtRp672
(dp673
g54
(dp674
sg63
g659
sg56
(lp675
g49
(g50
g51
NtRp676
(dp677
g54
(dp678
g62
I4
ssg63
g672
sg56
(lp679
S'set([])'
p680
asbasbasbag49
(g65
g51
NtRp681
(dp682
g54
(dp683
sg63
g564
sg56
(lp684
g49
(g70
g51
NtRp685
(dp686
g54
(dp687
g74
g75
ssg63
g681
sg56
(lp688
S'debugging'
p689
asbag49
(g70
g51
NtRp690
(dp691
g54
(dp692
g81
g82
ssg63
g681
sg56
(lp693
S':'
asbag49
(g70
g51
NtRp694
(dp695
g54
(dp696
sg63
g681
sg56
(lp697
g49
(g50
g51
NtRp698
(dp699
g54
(dp700
g62
I4
ssg63
g694
sg56
(lp701
g92
asbasbasbag49
(g65
g51
NtRp702
(dp703
g54
(dp704
sg63
g564
sg56
(lp705
g49
(g70
g51
NtRp706
(dp707
g54
(dp708
g74
g75
ssg63
g702
sg56
(lp709
S'gluon_parent'
p710
asbag49
(g70
g51
NtRp711
(dp712
g54
(dp713
g81
g82
ssg63
g702
sg56
(lp714
S':'
asbag49
(g70
g51
NtRp715
(dp716
g54
(dp717
sg63
g702
sg56
(lp718
g49
(g50
g51
NtRp719
(dp720
g54
(dp721
g62
I4
ssg63
g715
sg56
(lp722
S'D:\\Dise\xf1o Web\\Proyectos\\Parleyweb\\web2py'
p723
asbasbasbag49
(g65
g51
NtRp724
(dp725
g54
(dp726
sg63
g564
sg56
(lp727
g49
(g70
g51
NtRp728
(dp729
g54
(dp730
g74
g75
ssg63
g724
sg56
(lp731
S'http_accept'
p732
asbag49
(g70
g51
NtRp733
(dp734
g54
(dp735
g81
g82
ssg63
g724
sg56
(lp736
S':'
asbag49
(g70
g51
NtRp737
(dp738
g54
(dp739
sg63
g724
sg56
(lp740
g49
(g50
g51
NtRp741
(dp742
g54
(dp743
g62
I4
ssg63
g737
sg56
(lp744
S'text/html,application/xhtml+xml,application/xml;q=0.9,*/*;q=0.8'
p745
asbasbasbag49
(g65
g51
NtRp746
(dp747
g54
(dp748
sg63
g564
sg56
(lp749
g49
(g70
g51
NtRp750
(dp751
g54
(dp752
g74
g75
ssg63
g746
sg56
(lp753
S'http_accept_encoding'
p754
asbag49
(g70
g51
NtRp755
(dp756
g54
(dp757
g81
g82
ssg63
g746
sg56
(lp758
S':'
asbag49
(g70
g51
NtRp759
(dp760
g54
(dp761
sg63
g746
sg56
(lp762
g49
(g50
g51
NtRp763
(dp764
g54
(dp765
g62
I4
ssg63
g759
sg56
(lp766
S'gzip, deflate'
p767
asbasbasbag49
(g65
g51
NtRp768
(dp769
g54
(dp770
sg63
g564
sg56
(lp771
g49
(g70
g51
NtRp772
(dp773
g54
(dp774
g74
g75
ssg63
g768
sg56
(lp775
S'http_accept_language'
p776
asbag49
(g70
g51
NtRp777
(dp778
g54
(dp779
g81
g82
ssg63
g768
sg56
(lp780
S':'
asbag49
(g70
g51
NtRp781
(dp782
g54
(dp783
sg63
g768
sg56
(lp784
g49
(g50
g51
NtRp785
(dp786
g54
(dp787
g62
I4
ssg63
g781
sg56
(lp788
S'es-es,de-de;q=0.8,es;q=0.6,en-us;q=0.4,en;q=0.2'
p789
asbasbasbag49
(g65
g51
NtRp790
(dp791
g54
(dp792
sg63
g564
sg56
(lp793
g49
(g70
g51
NtRp794
(dp795
g54
(dp796
g74
g75
ssg63
g790
sg56
(lp797
S'http_cache_control'
p798
asbag49
(g70
g51
NtRp799
(dp800
g54
(dp801
g81
g82
ssg63
g790
sg56
(lp802
S':'
asbag49
(g70
g51
NtRp803
(dp804
g54
(dp805
sg63
g790
sg56
(lp806
g49
(g50
g51
NtRp807
(dp808
g54
(dp809
g62
I4
ssg63
g803
sg56
(lp810
S'max-age=0'
p811
asbasbasbag49
(g65
g51
NtRp812
(dp813
g54
(dp814
sg63
g564
sg56
(lp815
g49
(g70
g51
NtRp816
(dp817
g54
(dp818
g74
g75
ssg63
g812
sg56
(lp819
S'http_connection'
p820
asbag49
(g70
g51
NtRp821
(dp822
g54
(dp823
g81
g82
ssg63
g812
sg56
(lp824
S':'
asbag49
(g70
g51
NtRp825
(dp826
g54
(dp827
sg63
g812
sg56
(lp828
g49
(g50
g51
NtRp829
(dp830
g54
(dp831
g62
I4
ssg63
g825
sg56
(lp832
S'keep-alive'
p833
asbasbasbag49
(g65
g51
NtRp834
(dp835
g54
(dp836
sg63
g564
sg56
(lp837
g49
(g70
g51
NtRp838
(dp839
g54
(dp840
g74
g75
ssg63
g834
sg56
(lp841
S'http_cookie'
p842
asbag49
(g70
g51
NtRp843
(dp844
g54
(dp845
g81
g82
ssg63
g834
sg56
(lp846
S':'
asbag49
(g70
g51
NtRp847
(dp848
g54
(dp849
sg63
g834
sg56
(lp850
g49
(g50
g51
NtRp851
(dp852
g54
(dp853
g62
I4
ssg63
g847
sg56
(lp854
S'__utma=96992031.26429765.1325029743.1325029743.1326549329.2; __utmz=96992031.1325029743.1.1.utmcsr=(direct)|utmccn=(direct)|utmcmd=(none); session_id_parleyweb=127.0.0.1-952a0b04-8409-4285-9f42-eb3b31ae2e5f; session_id_admin=127.0.0.1-afc94e65-f78d-4b78-9a01-9f00fdeb3fa0'
p855
asbasbasbag49
(g65
g51
NtRp856
(dp857
g54
(dp858
sg63
g564
sg56
(lp859
g49
(g70
g51
NtRp860
(dp861
g54
(dp862
g74
g75
ssg63
g856
sg56
(lp863
S'http_host'
p864
asbag49
(g70
g51
NtRp865
(dp866
g54
(dp867
g81
g82
ssg63
g856
sg56
(lp868
S':'
asbag49
(g70
g51
NtRp869
(dp870
g54
(dp871
sg63
g856
sg56
(lp872
g49
(g50
g51
NtRp873
(dp874
g54
(dp875
g62
I4
ssg63
g869
sg56
(lp876
S'127.0.0.1:8000'
p877
asbasbasbag49
(g65
g51
NtRp878
(dp879
g54
(dp880
sg63
g564
sg56
(lp881
g49
(g70
g51
NtRp882
(dp883
g54
(dp884
g74
g75
ssg63
g878
sg56
(lp885
S'http_referer'
p886
asbag49
(g70
g51
NtRp887
(dp888
g54
(dp889
g81
g82
ssg63
g878
sg56
(lp890
S':'
asbag49
(g70
g51
NtRp891
(dp892
g54
(dp893
sg63
g878
sg56
(lp894
g49
(g50
g51
NtRp895
(dp896
g54
(dp897
g62
I4
ssg63
g891
sg56
(lp898
S'http://127.0.0.1:8000/parleyweb/admin/buscar_ejemplos/vor'
p899
asbasbasbag49
(g65
g51
NtRp900
(dp901
g54
(dp902
sg63
g564
sg56
(lp903
g49
(g70
g51
NtRp904
(dp905
g54
(dp906
g74
g75
ssg63
g900
sg56
(lp907
S'http_user_agent'
p908
asbag49
(g70
g51
NtRp909
(dp910
g54
(dp911
g81
g82
ssg63
g900
sg56
(lp912
S':'
asbag49
(g70
g51
NtRp913
(dp914
g54
(dp915
sg63
g900
sg56
(lp916
g49
(g50
g51
NtRp917
(dp918
g54
(dp919
g62
I4
ssg63
g913
sg56
(lp920
S'Mozilla/5.0 (Windows NT 6.1; WOW64; rv:10.0.2) Gecko/20100101 Firefox/10.0.2'
p921
asbasbasbag49
(g65
g51
NtRp922
(dp923
g54
(dp924
sg63
g564
sg56
(lp925
g49
(g70
g51
NtRp926
(dp927
g54
(dp928
g74
g75
ssg63
g922
sg56
(lp929
S'is_jython'
p930
asbag49
(g70
g51
NtRp931
(dp932
g54
(dp933
g81
g82
ssg63
g922
sg56
(lp934
S':'
asbag49
(g70
g51
NtRp935
(dp936
g54
(dp937
sg63
g922
sg56
(lp938
g49
(g50
g51
NtRp939
(dp940
g54
(dp941
g62
I4
ssg63
g935
sg56
(lp942
g92
asbasbasbag49
(g65
g51
NtRp943
(dp944
g54
(dp945
sg63
g564
sg56
(lp946
g49
(g70
g51
NtRp947
(dp948
g54
(dp949
g74
g75
ssg63
g943
sg56
(lp950
S'is_pypy'
p951
asbag49
(g70
g51
NtRp952
(dp953
g54
(dp954
g81
g82
ssg63
g943
sg56
(lp955
S':'
asbag49
(g70
g51
NtRp956
(dp957
g54
(dp958
sg63
g943
sg56
(lp959
g49
(g50
g51
NtRp960
(dp961
g54
(dp962
g62
I4
ssg63
g956
sg56
(lp963
g92
asbasbasbag49
(g65
g51
NtRp964
(dp965
g54
(dp966
sg63
g564
sg56
(lp967
g49
(g70
g51
NtRp968
(dp969
g54
(dp970
g74
g75
ssg63
g964
sg56
(lp971
S'path_info'
p972
asbag49
(g70
g51
NtRp973
(dp974
g54
(dp975
g81
g82
ssg63
g964
sg56
(lp976
S':'
asbag49
(g70
g51
NtRp977
(dp978
g54
(dp979
sg63
g964
sg56
(lp980
g49
(g50
g51
NtRp981
(dp982
g54
(dp983
g62
I4
ssg63
g977
sg56
(lp984
S'/parleyweb/admin/buscar_ejemplos2/vor'
p985
asbasbasbag49
(g65
g51
NtRp986
(dp987
g54
(dp988
sg63
g564
sg56
(lp989
g49
(g70
g51
NtRp990
(dp991
g54
(dp992
g74
g75
ssg63
g986
sg56
(lp993
S'query_string'
p994
asbag49
(g70
g51
NtRp995
(dp996
g54
(dp997
g81
g82
ssg63
g986
sg56
(lp998
S':'
asbag49
(g70
g51
NtRp999
(dp1000
g54
(dp1001
sg63
g986
sg56
(lp1002
g49
(g50
g51
NtRp1003
(dp1004
g54
(dp1005
g62
I4
ssg63
g999
sg56
(lp1006
S''
asbasbasbag49
(g65
g51
NtRp1007
(dp1008
g54
(dp1009
sg63
g564
sg56
(lp1010
g49
(g70
g51
NtRp1011
(dp1012
g54
(dp1013
g74
g75
ssg63
g1007
sg56
(lp1014
S'remote_addr'
p1015
asbag49
(g70
g51
NtRp1016
(dp1017
g54
(dp1018
g81
g82
ssg63
g1007
sg56
(lp1019
S':'
asbag49
(g70
g51
NtRp1020
(dp1021
g54
(dp1022
sg63
g1007
sg56
(lp1023
g49
(g50
g51
NtRp1024
(dp1025
g54
(dp1026
g62
I4
ssg63
g1020
sg56
(lp1027
g158
asbasbasbag49
(g65
g51
NtRp1028
(dp1029
g54
(dp1030
sg63
g564
sg56
(lp1031
g49
(g70
g51
NtRp1032
(dp1033
g54
(dp1034
g74
g75
ssg63
g1028
sg56
(lp1035
S'remote_port'
p1036
asbag49
(g70
g51
NtRp1037
(dp1038
g54
(dp1039
g81
g82
ssg63
g1028
sg56
(lp1040
S':'
asbag49
(g70
g51
NtRp1041
(dp1042
g54
(dp1043
sg63
g1028
sg56
(lp1044
g49
(g50
g51
NtRp1045
(dp1046
g54
(dp1047
g62
I4
ssg63
g1041
sg56
(lp1048
S'53810'
p1049
asbasbasbag49
(g65
g51
NtRp1050
(dp1051
g54
(dp1052
sg63
g564
sg56
(lp1053
g49
(g70
g51
NtRp1054
(dp1055
g54
(dp1056
g74
g75
ssg63
g1050
sg56
(lp1057
S'request_method'
p1058
asbag49
(g70
g51
NtRp1059
(dp1060
g54
(dp1061
g81
g82
ssg63
g1050
sg56
(lp1062
S':'
asbag49
(g70
g51
NtRp1063
(dp1064
g54
(dp1065
sg63
g1050
sg56
(lp1066
g49
(g50
g51
NtRp1067
(dp1068
g54
(dp1069
g62
I4
ssg63
g1063
sg56
(lp1070
S'GET'
p1071
asbasbasbag49
(g65
g51
NtRp1072
(dp1073
g54
(dp1074
sg63
g564
sg56
(lp1075
g49
(g70
g51
NtRp1076
(dp1077
g54
(dp1078
g74
g75
ssg63
g1072
sg56
(lp1079
S'request_uri'
p1080
asbag49
(g70
g51
NtRp1081
(dp1082
g54
(dp1083
g81
g82
ssg63
g1072
sg56
(lp1084
S':'
asbag49
(g70
g51
NtRp1085
(dp1086
g54
(dp1087
sg63
g1072
sg56
(lp1088
g49
(g50
g51
NtRp1089
(dp1090
g54
(dp1091
g62
I4
ssg63
g1085
sg56
(lp1092
g985
asbasbasbag49
(g65
g51
NtRp1093
(dp1094
g54
(dp1095
sg63
g564
sg56
(lp1096
g49
(g70
g51
NtRp1097
(dp1098
g54
(dp1099
g74
g75
ssg63
g1093
sg56
(lp1100
S'script_name'
p1101
asbag49
(g70
g51
NtRp1102
(dp1103
g54
(dp1104
g81
g82
ssg63
g1093
sg56
(lp1105
S':'
asbag49
(g70
g51
NtRp1106
(dp1107
g54
(dp1108
sg63
g1093
sg56
(lp1109
g49
(g50
g51
NtRp1110
(dp1111
g54
(dp1112
g62
I4
ssg63
g1106
sg56
(lp1113
S''
asbasbasbag49
(g65
g51
NtRp1114
(dp1115
g54
(dp1116
sg63
g564
sg56
(lp1117
g49
(g70
g51
NtRp1118
(dp1119
g54
(dp1120
g74
g75
ssg63
g1114
sg56
(lp1121
S'server_name'
p1122
asbag49
(g70
g51
NtRp1123
(dp1124
g54
(dp1125
g81
g82
ssg63
g1114
sg56
(lp1126
S':'
asbag49
(g70
g51
NtRp1127
(dp1128
g54
(dp1129
sg63
g1114
sg56
(lp1130
g49
(g50
g51
NtRp1131
(dp1132
g54
(dp1133
g62
I4
ssg63
g1127
sg56
(lp1134
S'craxsnet-PC'
p1135
asbasbasbag49
(g65
g51
NtRp1136
(dp1137
g54
(dp1138
sg63
g564
sg56
(lp1139
g49
(g70
g51
NtRp1140
(dp1141
g54
(dp1142
g74
g75
ssg63
g1136
sg56
(lp1143
S'server_port'
p1144
asbag49
(g70
g51
NtRp1145
(dp1146
g54
(dp1147
g81
g82
ssg63
g1136
sg56
(lp1148
S':'
asbag49
(g70
g51
NtRp1149
(dp1150
g54
(dp1151
sg63
g1136
sg56
(lp1152
g49
(g50
g51
NtRp1153
(dp1154
g54
(dp1155
g62
I4
ssg63
g1149
sg56
(lp1156
S'8000'
p1157
asbasbasbag49
(g65
g51
NtRp1158
(dp1159
g54
(dp1160
sg63
g564
sg56
(lp1161
g49
(g70
g51
NtRp1162
(dp1163
g54
(dp1164
g74
g75
ssg63
g1158
sg56
(lp1165
S'server_protocol'
p1166
asbag49
(g70
g51
NtRp1167
(dp1168
g54
(dp1169
g81
g82
ssg63
g1158
sg56
(lp1170
S':'
asbag49
(g70
g51
NtRp1171
(dp1172
g54
(dp1173
sg63
g1158
sg56
(lp1174
g49
(g50
g51
NtRp1175
(dp1176
g54
(dp1177
g62
I4
ssg63
g1171
sg56
(lp1178
S'HTTP/1.1'
p1179
asbasbasbag49
(g65
g51
NtRp1180
(dp1181
g54
(dp1182
sg63
g564
sg56
(lp1183
g49
(g70
g51
NtRp1184
(dp1185
g54
(dp1186
g74
g75
ssg63
g1180
sg56
(lp1187
S'server_software'
p1188
asbag49
(g70
g51
NtRp1189
(dp1190
g54
(dp1191
g81
g82
ssg63
g1180
sg56
(lp1192
S':'
asbag49
(g70
g51
NtRp1193
(dp1194
g54
(dp1195
sg63
g1180
sg56
(lp1196
g49
(g50
g51
NtRp1197
(dp1198
g54
(dp1199
g62
I4
ssg63
g1193
sg56
(lp1200
S'Rocket 1.2.4'
p1201
asbasbasbag49
(g65
g51
NtRp1202
(dp1203
g54
(dp1204
sg63
g564
sg56
(lp1205
g49
(g70
g51
NtRp1206
(dp1207
g54
(dp1208
g74
g75
ssg63
g1202
sg56
(lp1209
S'web2py_crontype'
p1210
asbag49
(g70
g51
NtRp1211
(dp1212
g54
(dp1213
g81
g82
ssg63
g1202
sg56
(lp1214
S':'
asbag49
(g70
g51
NtRp1215
(dp1216
g54
(dp1217
sg63
g1202
sg56
(lp1218
g49
(g50
g51
NtRp1219
(dp1220
g54
(dp1221
g62
I4
ssg63
g1215
sg56
(lp1222
S'hard'
p1223
asbasbasbag49
(g65
g51
NtRp1224
(dp1225
g54
(dp1226
sg63
g564
sg56
(lp1227
g49
(g70
g51
NtRp1228
(dp1229
g54
(dp1230
g74
g75
ssg63
g1224
sg56
(lp1231
S'web2py_original_uri'
p1232
asbag49
(g70
g51
NtRp1233
(dp1234
g54
(dp1235
g81
g82
ssg63
g1224
sg56
(lp1236
S':'
asbag49
(g70
g51
NtRp1237
(dp1238
g54
(dp1239
sg63
g1224
sg56
(lp1240
g49
(g50
g51
NtRp1241
(dp1242
g54
(dp1243
g62
I4
ssg63
g1237
sg56
(lp1244
S'/parleyweb/admin/buscar_ejemplos2/vor'
p1245
asbasbasbag49
(g65
g51
NtRp1246
(dp1247
g54
(dp1248
sg63
g564
sg56
(lp1249
g49
(g70
g51
NtRp1250
(dp1251
g54
(dp1252
g74
g75
ssg63
g1246
sg56
(lp1253
S'web2py_path'
p1254
asbag49
(g70
g51
NtRp1255
(dp1256
g54
(dp1257
g81
g82
ssg63
g1246
sg56
(lp1258
S':'
asbag49
(g70
g51
NtRp1259
(dp1260
g54
(dp1261
sg63
g1246
sg56
(lp1262
g49
(g50
g51
NtRp1263
(dp1264
g54
(dp1265
g62
I4
ssg63
g1259
sg56
(lp1266
g611
asbasbasbag49
(g65
g51
NtRp1267
(dp1268
g54
(dp1269
sg63
g564
sg56
(lp1270
g49
(g70
g51
NtRp1271
(dp1272
g54
(dp1273
g74
g75
ssg63
g1267
sg56
(lp1274
S'web2py_version'
p1275
asbag49
(g70
g51
NtRp1276
(dp1277
g54
(dp1278
g81
g82
ssg63
g1267
sg56
(lp1279
S':'
asbag49
(g70
g51
NtRp1280
(dp1281
g54
(dp1282
sg63
g1267
sg56
(lp1283
g49
(g50
g51
NtRp1284
(dp1285
g54
(dp1286
g62
I4
ssg63
g1280
sg56
(lp1287
g49
(g58
g51
NtRp1288
(dp1289
g54
(dp1290
g62
I3
ssg63
Nsg56
(lp1291
g49
(g65
g51
NtRp1292
(dp1293
g54
(dp1294
sg63
g1288
sg56
(lp1295
g49
(g70
g51
NtRp1296
(dp1297
g54
(dp1298
sg63
g1292
sg56
(lp1299
g49
(g50
g51
NtRp1300
(dp1301
g54
(dp1302
g62
I3
ssg63
g1296
sg56
(lp1303
S'1'
asbasbasbag49
(g65
g51
NtRp1304
(dp1305
g54
(dp1306
sg63
g1288
sg56
(lp1307
g49
(g70
g51
NtRp1308
(dp1309
g54
(dp1310
sg63
g1304
sg56
(lp1311
g49
(g50
g51
NtRp1312
(dp1313
g54
(dp1314
g62
I3
ssg63
g1308
sg56
(lp1315
S'99'
p1316
asbasbasbag49
(g65
g51
NtRp1317
(dp1318
g54
(dp1319
sg63
g1288
sg56
(lp1320
g49
(g70
g51
NtRp1321
(dp1322
g54
(dp1323
sg63
g1317
sg56
(lp1324
g49
(g50
g51
NtRp1325
(dp1326
g54
(dp1327
g62
I3
ssg63
g1321
sg56
(lp1328
S'7'
asbasbasbag49
(g65
g51
NtRp1329
(dp1330
g54
(dp1331
sg63
g1288
sg56
(lp1332
g49
(g70
g51
NtRp1333
(dp1334
g54
(dp1335
sg63
g1329
sg56
(lp1336
g49
(g50
g51
NtRp1337
(dp1338
g54
(dp1339
g62
I3
ssg63
g1333
sg56
(lp1340
S'datetime.datetime(2012, 3, 4, 22, 12, 8)'
p1341
asbasbasbag49
(g65
g51
NtRp1342
(dp1343
g54
(dp1344
sg63
g1288
sg56
(lp1345
g49
(g70
g51
NtRp1346
(dp1347
g54
(dp1348
sg63
g1342
sg56
(lp1349
g49
(g50
g51
NtRp1350
(dp1351
g54
(dp1352
g62
I3
ssg63
g1346
sg56
(lp1353
S'stable'
p1354
asbasbasbasbasbasbasbag49
(g65
g51
NtRp1355
(dp1356
g54
(dp1357
sg63
g564
sg56
(lp1358
g49
(g70
g51
NtRp1359
(dp1360
g54
(dp1361
g74
g75
ssg63
g1355
sg56
(lp1362
S'wsgi_errors'
p1363
asbag49
(g70
g51
NtRp1364
(dp1365
g54
(dp1366
g81
g82
ssg63
g1355
sg56
(lp1367
S':'
asbag49
(g70
g51
NtRp1368
(dp1369
g54
(dp1370
sg63
g1355
sg56
(lp1371
g49
(g50
g51
NtRp1372
(dp1373
g54
(dp1374
g62
I4
ssg63
g1368
sg56
(lp1375
S"<open file '<stderr>', mode 'w' at 0x004200B0>"
p1376
asbasbasbag49
(g65
g51
NtRp1377
(dp1378
g54
(dp1379
sg63
g564
sg56
(lp1380
g49
(g70
g51
NtRp1381
(dp1382
g54
(dp1383
g74
g75
ssg63
g1377
sg56
(lp1384
S'wsgi_file_wrapper'
p1385
asbag49
(g70
g51
NtRp1386
(dp1387
g54
(dp1388
g81
g82
ssg63
g1377
sg56
(lp1389
S':'
asbag49
(g70
g51
NtRp1390
(dp1391
g54
(dp1392
sg63
g1377
sg56
(lp1393
g49
(g50
g51
NtRp1394
(dp1395
g54
(dp1396
g62
I4
ssg63
g1390
sg56
(lp1397
S'<class wsgiref.util.FileWrapper at 0x02F82390>'
p1398
asbasbasbag49
(g65
g51
NtRp1399
(dp1400
g54
(dp1401
sg63
g564
sg56
(lp1402
g49
(g70
g51
NtRp1403
(dp1404
g54
(dp1405
g74
g75
ssg63
g1399
sg56
(lp1406
S'wsgi_input'
p1407
asbag49
(g70
g51
NtRp1408
(dp1409
g54
(dp1410
g81
g82
ssg63
g1399
sg56
(lp1411
S':'
asbag49
(g70
g51
NtRp1412
(dp1413
g54
(dp1414
sg63
g1399
sg56
(lp1415
g49
(g50
g51
NtRp1416
(dp1417
g54
(dp1418
g62
I4
ssg63
g1412
sg56
(lp1419
S'<socket._fileobject object at 0x071DDEF0>'
p1420
asbasbasbag49
(g65
g51
NtRp1421
(dp1422
g54
(dp1423
sg63
g564
sg56
(lp1424
g49
(g70
g51
NtRp1425
(dp1426
g54
(dp1427
g74
g75
ssg63
g1421
sg56
(lp1428
S'wsgi_multiprocess'
p1429
asbag49
(g70
g51
NtRp1430
(dp1431
g54
(dp1432
g81
g82
ssg63
g1421
sg56
(lp1433
S':'
asbag49
(g70
g51
NtRp1434
(dp1435
g54
(dp1436
sg63
g1421
sg56
(lp1437
g49
(g50
g51
NtRp1438
(dp1439
g54
(dp1440
g62
I4
ssg63
g1434
sg56
(lp1441
g92
asbasbasbag49
(g65
g51
NtRp1442
(dp1443
g54
(dp1444
sg63
g564
sg56
(lp1445
g49
(g70
g51
NtRp1446
(dp1447
g54
(dp1448
g74
g75
ssg63
g1442
sg56
(lp1449
S'wsgi_multithread'
p1450
asbag49
(g70
g51
NtRp1451
(dp1452
g54
(dp1453
g81
g82
ssg63
g1442
sg56
(lp1454
S':'
asbag49
(g70
g51
NtRp1455
(dp1456
g54
(dp1457
sg63
g1442
sg56
(lp1458
g49
(g50
g51
NtRp1459
(dp1460
g54
(dp1461
g62
I4
ssg63
g1455
sg56
(lp1462
S'True'
p1463
asbasbasbag49
(g65
g51
NtRp1464
(dp1465
g54
(dp1466
sg63
g564
sg56
(lp1467
g49
(g70
g51
NtRp1468
(dp1469
g54
(dp1470
g74
g75
ssg63
g1464
sg56
(lp1471
S'wsgi_run_once'
p1472
asbag49
(g70
g51
NtRp1473
(dp1474
g54
(dp1475
g81
g82
ssg63
g1464
sg56
(lp1476
S':'
asbag49
(g70
g51
NtRp1477
(dp1478
g54
(dp1479
sg63
g1464
sg56
(lp1480
g49
(g50
g51
NtRp1481
(dp1482
g54
(dp1483
g62
I4
ssg63
g1477
sg56
(lp1484
g92
asbasbasbag49
(g65
g51
NtRp1485
(dp1486
g54
(dp1487
sg63
g564
sg56
(lp1488
g49
(g70
g51
NtRp1489
(dp1490
g54
(dp1491
g74
g75
ssg63
g1485
sg56
(lp1492
S'wsgi_url_scheme'
p1493
asbag49
(g70
g51
NtRp1494
(dp1495
g54
(dp1496
g81
g82
ssg63
g1485
sg56
(lp1497
S':'
asbag49
(g70
g51
NtRp1498
(dp1499
g54
(dp1500
sg63
g1485
sg56
(lp1501
g49
(g50
g51
NtRp1502
(dp1503
g54
(dp1504
g62
I4
ssg63
g1498
sg56
(lp1505
S'http'
p1506
asbasbasbag49
(g65
g51
NtRp1507
(dp1508
g54
(dp1509
sg63
g564
sg56
(lp1510
g49
(g70
g51
NtRp1511
(dp1512
g54
(dp1513
g74
g75
ssg63
g1507
sg56
(lp1514
S'wsgi_version'
p1515
asbag49
(g70
g51
NtRp1516
(dp1517
g54
(dp1518
g81
g82
ssg63
g1507
sg56
(lp1519
S':'
asbag49
(g70
g51
NtRp1520
(dp1521
g54
(dp1522
sg63
g1507
sg56
(lp1523
g49
(g50
g51
NtRp1524
(dp1525
g54
(dp1526
g62
I4
ssg63
g1520
sg56
(lp1527
g49
(g58
g51
NtRp1528
(dp1529
g54
(dp1530
g62
I3
ssg63
Nsg56
(lp1531
g49
(g65
g51
NtRp1532
(dp1533
g54
(dp1534
sg63
g1528
sg56
(lp1535
g49
(g70
g51
NtRp1536
(dp1537
g54
(dp1538
sg63
g1532
sg56
(lp1539
g49
(g50
g51
NtRp1540
(dp1541
g54
(dp1542
g62
I3
ssg63
g1536
sg56
(lp1543
S'1'
asbasbasbag49
(g65
g51
NtRp1544
(dp1545
g54
(dp1546
sg63
g1528
sg56
(lp1547
g49
(g70
g51
NtRp1548
(dp1549
g54
(dp1550
sg63
g1544
sg56
(lp1551
g49
(g50
g51
NtRp1552
(dp1553
g54
(dp1554
g62
I3
ssg63
g1548
sg56
(lp1555
S'0'
asbasbasbasbasbasbasbasbasbasbasbag49
(g65
g51
NtRp1556
(dp1557
g54
(dp1558
sg63
g59
sg56
(lp1559
g49
(g70
g51
NtRp1560
(dp1561
g54
(dp1562
g74
g75
ssg63
g1556
sg56
(lp1563
S'extension'
p1564
asbag49
(g70
g51
NtRp1565
(dp1566
g54
(dp1567
g81
g82
ssg63
g1556
sg56
(lp1568
S':'
asbag49
(g70
g51
NtRp1569
(dp1570
g54
(dp1571
sg63
g1556
sg56
(lp1572
g49
(g50
g51
NtRp1573
(dp1574
g54
(dp1575
g62
I5
ssg63
g1569
sg56
(lp1576
S'html'
p1577
asbasbasbag49
(g65
g51
NtRp1578
(dp1579
g54
(dp1580
sg63
g59
sg56
(lp1581
g49
(g70
g51
NtRp1582
(dp1583
g54
(dp1584
g74
g75
ssg63
g1578
sg56
(lp1585
S'folder'
p1586
asbag49
(g70
g51
NtRp1587
(dp1588
g54
(dp1589
g81
g82
ssg63
g1578
sg56
(lp1590
S':'
asbag49
(g70
g51
NtRp1591
(dp1592
g54
(dp1593
sg63
g1578
sg56
(lp1594
g49
(g50
g51
NtRp1595
(dp1596
g54
(dp1597
g62
I5
ssg63
g1591
sg56
(lp1598
S'D:\\Dise\xf1o Web\\Proyectos\\Parleyweb\\web2py\\applications\\parleyweb\\'
p1599
asbasbasbag49
(g65
g51
NtRp1600
(dp1601
g54
(dp1602
sg63
g59
sg56
(lp1603
g49
(g70
g51
NtRp1604
(dp1605
g54
(dp1606
g74
g75
ssg63
g1600
sg56
(lp1607
S'function'
p1608
asbag49
(g70
g51
NtRp1609
(dp1610
g54
(dp1611
g81
g82
ssg63
g1600
sg56
(lp1612
S':'
asbag49
(g70
g51
NtRp1613
(dp1614
g54
(dp1615
sg63
g1600
sg56
(lp1616
g49
(g50
g51
NtRp1617
(dp1618
g54
(dp1619
g62
I5
ssg63
g1613
sg56
(lp1620
S'buscar_ejemplos2'
p1621
asbasbasbag49
(g65
g51
NtRp1622
(dp1623
g54
(dp1624
sg63
g59
sg56
(lp1625
g49
(g70
g51
NtRp1626
(dp1627
g54
(dp1628
g74
g75
ssg63
g1622
sg56
(lp1629
S'get_vars'
p1630
asbag49
(g70
g51
NtRp1631
(dp1632
g54
(dp1633
g81
g82
ssg63
g1622
sg56
(lp1634
S':'
asbag49
(g70
g51
NtRp1635
(dp1636
g54
(dp1637
sg63
g1622
sg56
(lp1638
g49
(g50
g51
NtRp1639
(dp1640
g54
(dp1641
g62
I5
ssg63
g1635
sg56
(lp1642
g49
(g58
g51
NtRp1643
(dp1644
g54
(dp1645
g62
I4
ssg63
Nsg56
(lp1646
sbasbasbasbag49
(g65
g51
NtRp1647
(dp1648
g54
(dp1649
sg63
g59
sg56
(lp1650
g49
(g70
g51
NtRp1651
(dp1652
g54
(dp1653
g74
g75
ssg63
g1647
sg56
(lp1654
S'global_settings'
p1655
asbag49
(g70
g51
NtRp1656
(dp1657
g54
(dp1658
g81
g82
ssg63
g1647
sg56
(lp1659
S':'
asbag49
(g70
g51
NtRp1660
(dp1661
g54
(dp1662
sg63
g1647
sg56
(lp1663
g49
(g50
g51
NtRp1664
(dp1665
g54
(dp1666
g62
I5
ssg63
g1660
sg56
(lp1667
g49
(g58
g51
NtRp1668
(dp1669
g54
(dp1670
g62
I4
ssg63
Nsg56
(lp1671
g49
(g65
g51
NtRp1672
(dp1673
g54
(dp1674
sg63
g1668
sg56
(lp1675
g49
(g70
g51
NtRp1676
(dp1677
g54
(dp1678
g74
g75
ssg63
g1672
sg56
(lp1679
g576
asbag49
(g70
g51
NtRp1680
(dp1681
g54
(dp1682
g81
g82
ssg63
g1672
sg56
(lp1683
S':'
asbag49
(g70
g51
NtRp1684
(dp1685
g54
(dp1686
sg63
g1672
sg56
(lp1687
g49
(g50
g51
NtRp1688
(dp1689
g54
(dp1690
g62
I4
ssg63
g1684
sg56
(lp1691
S"set(['D:\\\\Dise\\xf1o Web\\\\Proyectos\\\\Parleyweb\\\\web2py\\\\applications\\\\parleyweb\\\\', 'D:\\\\Dise\\xf1o Web\\\\Proyectos\\\\Parleyweb\\\\web2py\\\\applications\\\\admin\\\\'])"
p1692
asbasbasbag49
(g65
g51
NtRp1693
(dp1694
g54
(dp1695
sg63
g1668
sg56
(lp1696
g49
(g70
g51
NtRp1697
(dp1698
g54
(dp1699
g74
g75
ssg63
g1693
sg56
(lp1700
g598
asbag49
(g70
g51
NtRp1701
(dp1702
g54
(dp1703
g81
g82
ssg63
g1693
sg56
(lp1704
S':'
asbag49
(g70
g51
NtRp1705
(dp1706
g54
(dp1707
sg63
g1693
sg56
(lp1708
g49
(g50
g51
NtRp1709
(dp1710
g54
(dp1711
g62
I4
ssg63
g1705
sg56
(lp1712
g611
asbasbasbag49
(g65
g51
NtRp1713
(dp1714
g54
(dp1715
sg63
g1668
sg56
(lp1716
g49
(g70
g51
NtRp1717
(dp1718
g54
(dp1719
g74
g75
ssg63
g1713
sg56
(lp1720
g620
asbag49
(g70
g51
NtRp1721
(dp1722
g54
(dp1723
g81
g82
ssg63
g1713
sg56
(lp1724
S':'
asbag49
(g70
g51
NtRp1725
(dp1726
g54
(dp1727
sg63
g1713
sg56
(lp1728
g49
(g50
g51
NtRp1729
(dp1730
g54
(dp1731
g62
I4
ssg63
g1725
sg56
(lp1732
g49
(g58
g51
NtRp1733
(dp1734
g54
(dp1735
g62
I3
ssg63
Nsg56
(lp1736
sbasbasbasbag49
(g65
g51
NtRp1737
(dp1738
g54
(dp1739
sg63
g1668
sg56
(lp1740
g49
(g70
g51
NtRp1741
(dp1742
g54
(dp1743
g74
g75
ssg63
g1737
sg56
(lp1744
g645
asbag49
(g70
g51
NtRp1745
(dp1746
g54
(dp1747
g81
g82
ssg63
g1737
sg56
(lp1748
S':'
asbag49
(g70
g51
NtRp1749
(dp1750
g54
(dp1751
sg63
g1737
sg56
(lp1752
g49
(g50
g51
NtRp1753
(dp1754
g54
(dp1755
g62
I4
ssg63
g1749
sg56
(lp1756
S"<Values at 0x317c238: {'verbose': False, 'ip': '127.0.0.1', 'shutdown_timeout': 5, 'taskbar': False, 'nocron': False, 'pid_filename': 'httpserver.pid', 'maxthreads': None, 'softcron': False, 'server_name': 'craxsnet-PC', 'bpython': False, 'nogui': False, 'port': 8000, 'extcron': False, 'debuglevel': 30, 'test': None, 'folder': 'D:\\\\Dise\\xf1o Web\\\\Proyectos\\\\Parleyweb\\\\web2py', 'config': '', 'import_models': False, 'winservice': '', 'shell': None, 'run': '', 'log_filename': 'httpserver.log', 'args': [''], 'socket_timeout': 5, 'ssl_ca_certificate': None, 'scheduler': None, 'profiler_filename': None, 'ssl_private_key': '', 'password': '<ask>', 'request_queue_size': 5, 'ssl_certificate': '', 'cronjob': False, 'numthreads': None, 'quiet': False, 'interfaces': None, 'minthreads': None, 'timeout': 10, 'plain': False, 'nobanner': False}>"
p1757
asbasbasbag49
(g65
g51
NtRp1758
(dp1759
g54
(dp1760
sg63
g1668
sg56
(lp1761
g49
(g70
g51
NtRp1762
(dp1763
g54
(dp1764
g74
g75
ssg63
g1758
sg56
(lp1765
g667
asbag49
(g70
g51
NtRp1766
(dp1767
g54
(dp1768
g81
g82
ssg63
g1758
sg56
(lp1769
S':'
asbag49
(g70
g51
NtRp1770
(dp1771
g54
(dp1772
sg63
g1758
sg56
(lp1773
g49
(g50
g51
NtRp1774
(dp1775
g54
(dp1776
g62
I4
ssg63
g1770
sg56
(lp1777
S'set([])'
p1778
asbasbasbag49
(g65
g51
NtRp1779
(dp1780
g54
(dp1781
sg63
g1668
sg56
(lp1782
g49
(g70
g51
NtRp1783
(dp1784
g54
(dp1785
g74
g75
ssg63
g1779
sg56
(lp1786
g689
asbag49
(g70
g51
NtRp1787
(dp1788
g54
(dp1789
g81
g82
ssg63
g1779
sg56
(lp1790
S':'
asbag49
(g70
g51
NtRp1791
(dp1792
g54
(dp1793
sg63
g1779
sg56
(lp1794
g49
(g50
g51
NtRp1795
(dp1796
g54
(dp1797
g62
I4
ssg63
g1791
sg56
(lp1798
g92
asbasbasbag49
(g65
g51
NtRp1799
(dp1800
g54
(dp1801
sg63
g1668
sg56
(lp1802
g49
(g70
g51
NtRp1803
(dp1804
g54
(dp1805
g74
g75
ssg63
g1799
sg56
(lp1806
g710
asbag49
(g70
g51
NtRp1807
(dp1808
g54
(dp1809
g81
g82
ssg63
g1799
sg56
(lp1810
S':'
asbag49
(g70
g51
NtRp1811
(dp1812
g54
(dp1813
sg63
g1799
sg56
(lp1814
g49
(g50
g51
NtRp1815
(dp1816
g54
(dp1817
g62
I4
ssg63
g1811
sg56
(lp1818
g723
asbasbasbag49
(g65
g51
NtRp1819
(dp1820
g54
(dp1821
sg63
g1668
sg56
(lp1822
g49
(g70
g51
NtRp1823
(dp1824
g54
(dp1825
g74
g75
ssg63
g1819
sg56
(lp1826
g930
asbag49
(g70
g51
NtRp1827
(dp1828
g54
(dp1829
g81
g82
ssg63
g1819
sg56
(lp1830
S':'
asbag49
(g70
g51
NtRp1831
(dp1832
g54
(dp1833
sg63
g1819
sg56
(lp1834
g49
(g50
g51
NtRp1835
(dp1836
g54
(dp1837
g62
I4
ssg63
g1831
sg56
(lp1838
g92
asbasbasbag49
(g65
g51
NtRp1839
(dp1840
g54
(dp1841
sg63
g1668
sg56
(lp1842
g49
(g70
g51
NtRp1843
(dp1844
g54
(dp1845
g74
g75
ssg63
g1839
sg56
(lp1846
g951
asbag49
(g70
g51
NtRp1847
(dp1848
g54
(dp1849
g81
g82
ssg63
g1839
sg56
(lp1850
S':'
asbag49
(g70
g51
NtRp1851
(dp1852
g54
(dp1853
sg63
g1839
sg56
(lp1854
g49
(g50
g51
NtRp1855
(dp1856
g54
(dp1857
g62
I4
ssg63
g1851
sg56
(lp1858
g92
asbasbasbag49
(g65
g51
NtRp1859
(dp1860
g54
(dp1861
sg63
g1668
sg56
(lp1862
g49
(g70
g51
NtRp1863
(dp1864
g54
(dp1865
g74
g75
ssg63
g1859
sg56
(lp1866
g1210
asbag49
(g70
g51
NtRp1867
(dp1868
g54
(dp1869
g81
g82
ssg63
g1859
sg56
(lp1870
S':'
asbag49
(g70
g51
NtRp1871
(dp1872
g54
(dp1873
sg63
g1859
sg56
(lp1874
g49
(g50
g51
NtRp1875
(dp1876
g54
(dp1877
g62
I4
ssg63
g1871
sg56
(lp1878
g1223
asbasbasbag49
(g65
g51
NtRp1879
(dp1880
g54
(dp1881
sg63
g1668
sg56
(lp1882
g49
(g70
g51
NtRp1883
(dp1884
g54
(dp1885
g74
g75
ssg63
g1879
sg56
(lp1886
g1275
asbag49
(g70
g51
NtRp1887
(dp1888
g54
(dp1889
g81
g82
ssg63
g1879
sg56
(lp1890
S':'
asbag49
(g70
g51
NtRp1891
(dp1892
g54
(dp1893
sg63
g1879
sg56
(lp1894
g49
(g50
g51
NtRp1895
(dp1896
g54
(dp1897
g62
I4
ssg63
g1891
sg56
(lp1898
g49
(g58
g51
NtRp1899
(dp1900
g54
(dp1901
g62
I3
ssg63
Nsg56
(lp1902
g49
(g65
g51
NtRp1903
(dp1904
g54
(dp1905
sg63
g1899
sg56
(lp1906
g49
(g70
g51
NtRp1907
(dp1908
g54
(dp1909
sg63
g1903
sg56
(lp1910
g49
(g50
g51
NtRp1911
(dp1912
g54
(dp1913
g62
I3
ssg63
g1907
sg56
(lp1914
S'1'
asbasbasbag49
(g65
g51
NtRp1915
(dp1916
g54
(dp1917
sg63
g1899
sg56
(lp1918
g49
(g70
g51
NtRp1919
(dp1920
g54
(dp1921
sg63
g1915
sg56
(lp1922
g49
(g50
g51
NtRp1923
(dp1924
g54
(dp1925
g62
I3
ssg63
g1919
sg56
(lp1926
S'99'
p1927
asbasbasbag49
(g65
g51
NtRp1928
(dp1929
g54
(dp1930
sg63
g1899
sg56
(lp1931
g49
(g70
g51
NtRp1932
(dp1933
g54
(dp1934
sg63
g1928
sg56
(lp1935
g49
(g50
g51
NtRp1936
(dp1937
g54
(dp1938
g62
I3
ssg63
g1932
sg56
(lp1939
S'7'
asbasbasbag49
(g65
g51
NtRp1940
(dp1941
g54
(dp1942
sg63
g1899
sg56
(lp1943
g49
(g70
g51
NtRp1944
(dp1945
g54
(dp1946
sg63
g1940
sg56
(lp1947
g49
(g50
g51
NtRp1948
(dp1949
g54
(dp1950
g62
I3
ssg63
g1944
sg56
(lp1951
S'datetime.datetime(2012, 3, 4, 22, 12, 8)'
p1952
asbasbasbag49
(g65
g51
NtRp1953
(dp1954
g54
(dp1955
sg63
g1899
sg56
(lp1956
g49
(g70
g51
NtRp1957
(dp1958
g54
(dp1959
sg63
g1953
sg56
(lp1960
g49
(g50
g51
NtRp1961
(dp1962
g54
(dp1963
g62
I3
ssg63
g1957
sg56
(lp1964
g1354
asbasbasbasbasbasbasbasbasbasbasbag49
(g65
g51
NtRp1965
(dp1966
g54
(dp1967
sg63
g59
sg56
(lp1968
g49
(g70
g51
NtRp1969
(dp1970
g54
(dp1971
g74
g75
ssg63
g1965
sg56
(lp1972
S'is_https'
p1973
asbag49
(g70
g51
NtRp1974
(dp1975
g54
(dp1976
g81
g82
ssg63
g1965
sg56
(lp1977
S':'
asbag49
(g70
g51
NtRp1978
(dp1979
g54
(dp1980
sg63
g1965
sg56
(lp1981
g49
(g50
g51
NtRp1982
(dp1983
g54
(dp1984
g62
I5
ssg63
g1978
sg56
(lp1985
g92
asbasbasbag49
(g65
g51
NtRp1986
(dp1987
g54
(dp1988
sg63
g59
sg56
(lp1989
g49
(g70
g51
NtRp1990
(dp1991
g54
(dp1992
g74
g75
ssg63
g1986
sg56
(lp1993
S'is_local'
p1994
asbag49
(g70
g51
NtRp1995
(dp1996
g54
(dp1997
g81
g82
ssg63
g1986
sg56
(lp1998
S':'
asbag49
(g70
g51
NtRp1999
(dp2000
g54
(dp2001
sg63
g1986
sg56
(lp2002
g49
(g50
g51
NtRp2003
(dp2004
g54
(dp2005
g62
I5
ssg63
g1999
sg56
(lp2006
g1463
asbasbasbag49
(g65
g51
NtRp2007
(dp2008
g54
(dp2009
sg63
g59
sg56
(lp2010
g49
(g70
g51
NtRp2011
(dp2012
g54
(dp2013
g74
g75
ssg63
g2007
sg56
(lp2014
S'is_restful'
p2015
asbag49
(g70
g51
NtRp2016
(dp2017
g54
(dp2018
g81
g82
ssg63
g2007
sg56
(lp2019
S':'
asbag49
(g70
g51
NtRp2020
(dp2021
g54
(dp2022
sg63
g2007
sg56
(lp2023
g49
(g50
g51
NtRp2024
(dp2025
g54
(dp2026
g62
I5
ssg63
g2020
sg56
(lp2027
g92
asbasbasbag49
(g65
g51
NtRp2028
(dp2029
g54
(dp2030
sg63
g59
sg56
(lp2031
g49
(g70
g51
NtRp2032
(dp2033
g54
(dp2034
g74
g75
ssg63
g2028
sg56
(lp2035
S'now'
p2036
asbag49
(g70
g51
NtRp2037
(dp2038
g54
(dp2039
g81
g82
ssg63
g2028
sg56
(lp2040
S':'
asbag49
(g70
g51
NtRp2041
(dp2042
g54
(dp2043
sg63
g2028
sg56
(lp2044
g49
(g50
g51
NtRp2045
(dp2046
g54
(dp2047
g62
I5
ssg63
g2041
sg56
(lp2048
S'datetime.datetime(2012, 3, 14, 22, 35, 23, 438000)'
p2049
asbasbasbag49
(g65
g51
NtRp2050
(dp2051
g54
(dp2052
sg63
g59
sg56
(lp2053
g49
(g70
g51
NtRp2054
(dp2055
g54
(dp2056
g74
g75
ssg63
g2050
sg56
(lp2057
S'post_vars'
p2058
asbag49
(g70
g51
NtRp2059
(dp2060
g54
(dp2061
g81
g82
ssg63
g2050
sg56
(lp2062
S':'
asbag49
(g70
g51
NtRp2063
(dp2064
g54
(dp2065
sg63
g2050
sg56
(lp2066
g49
(g50
g51
NtRp2067
(dp2068
g54
(dp2069
g62
I5
ssg63
g2063
sg56
(lp2070
g49
(g58
g51
NtRp2071
(dp2072
g54
(dp2073
g62
I4
ssg63
Nsg56
(lp2074
sbasbasbasbag49
(g65
g51
NtRp2075
(dp2076
g54
(dp2077
sg63
g59
sg56
(lp2078
g49
(g70
g51
NtRp2079
(dp2080
g54
(dp2081
g74
g75
ssg63
g2075
sg56
(lp2082
S'raw_args'
p2083
asbag49
(g70
g51
NtRp2084
(dp2085
g54
(dp2086
g81
g82
ssg63
g2075
sg56
(lp2087
S':'
asbag49
(g70
g51
NtRp2088
(dp2089
g54
(dp2090
sg63
g2075
sg56
(lp2091
g49
(g50
g51
NtRp2092
(dp2093
g54
(dp2094
g62
I5
ssg63
g2088
sg56
(lp2095
S'vor'
p2096
asbasbasbag49
(g65
g51
NtRp2097
(dp2098
g54
(dp2099
sg63
g59
sg56
(lp2100
g49
(g70
g51
NtRp2101
(dp2102
g54
(dp2103
g74
g75
ssg63
g2097
sg56
(lp2104
S'url'
p2105
asbag49
(g70
g51
NtRp2106
(dp2107
g54
(dp2108
g81
g82
ssg63
g2097
sg56
(lp2109
S':'
asbag49
(g70
g51
NtRp2110
(dp2111
g54
(dp2112
sg63
g2097
sg56
(lp2113
g49
(g50
g51
NtRp2114
(dp2115
g54
(dp2116
g62
I5
ssg63
g2110
sg56
(lp2117
S'/parleyweb/admin/buscar_ejemplos2'
p2118
asbasbasbag49
(g65
g51
NtRp2119
(dp2120
g54
(dp2121
sg63
g59
sg56
(lp2122
g49
(g70
g51
NtRp2123
(dp2124
g54
(dp2125
g74
g75
ssg63
g2119
sg56
(lp2126
S'utcnow'
p2127
asbag49
(g70
g51
NtRp2128
(dp2129
g54
(dp2130
g81
g82
ssg63
g2119
sg56
(lp2131
S':'
asbag49
(g70
g51
NtRp2132
(dp2133
g54
(dp2134
sg63
g2119
sg56
(lp2135
g49
(g50
g51
NtRp2136
(dp2137
g54
(dp2138
g62
I5
ssg63
g2132
sg56
(lp2139
S'datetime.datetime(2012, 3, 14, 21, 35, 23, 438000)'
p2140
asbasbasbag49
(g65
g51
NtRp2141
(dp2142
g54
(dp2143
sg63
g59
sg56
(lp2144
g49
(g70
g51
NtRp2145
(dp2146
g54
(dp2147
g74
g75
ssg63
g2141
sg56
(lp2148
S'uuid'
p2149
asbag49
(g70
g51
NtRp2150
(dp2151
g54
(dp2152
g81
g82
ssg63
g2141
sg56
(lp2153
S':'
asbag49
(g70
g51
NtRp2154
(dp2155
g54
(dp2156
sg63
g2141
sg56
(lp2157
g49
(g50
g51
NtRp2158
(dp2159
g54
(dp2160
g62
I5
ssg63
g2154
sg56
(lp2161
S'parleyweb/127.0.0.1.2012-03-14.22-35-23.8bee035f-28fe-4c85-bc04-948b50d8fba1'
p2162
asbasbasbag49
(g65
g51
NtRp2163
(dp2164
g54
(dp2165
sg63
g59
sg56
(lp2166
g49
(g70
g51
NtRp2167
(dp2168
g54
(dp2169
g74
g75
ssg63
g2163
sg56
(lp2170
S'vars'
p2171
asbag49
(g70
g51
NtRp2172
(dp2173
g54
(dp2174
g81
g82
ssg63
g2163
sg56
(lp2175
S':'
asbag49
(g70
g51
NtRp2176
(dp2177
g54
(dp2178
sg63
g2163
sg56
(lp2179
g49
(g50
g51
NtRp2180
(dp2181
g54
(dp2182
g62
I5
ssg63
g2176
sg56
(lp2183
g49
(g58
g51
NtRp2184
(dp2185
g54
(dp2186
g62
I4
ssg63
Nsg56
(lp2187
sbasbasbasbag49
(g65
g51
NtRp2188
(dp2189
g54
(dp2190
sg63
g59
sg56
(lp2191
g49
(g70
g51
NtRp2192
(dp2193
g54
(dp2194
g74
g75
ssg63
g2188
sg56
(lp2195
S'wsgi'
p2196
asbag49
(g70
g51
NtRp2197
(dp2198
g54
(dp2199
g81
g82
ssg63
g2188
sg56
(lp2200
S':'
asbag49
(g70
g51
NtRp2201
(dp2202
g54
(dp2203
sg63
g2188
sg56
(lp2204
g49
(g50
g51
NtRp2205
(dp2206
g54
(dp2207
g62
I5
ssg63
g2201
sg56
(lp2208
g49
(g58
g51
NtRp2209
(dp2210
g54
(dp2211
g62
I4
ssg63
Nsg56
(lp2212
g49
(g65
g51
NtRp2213
(dp2214
g54
(dp2215
sg63
g2209
sg56
(lp2216
g49
(g70
g51
NtRp2217
(dp2218
g54
(dp2219
g74
g75
ssg63
g2213
sg56
(lp2220
S'environ'
p2221
asbag49
(g70
g51
NtRp2222
(dp2223
g54
(dp2224
g81
g82
ssg63
g2213
sg56
(lp2225
S':'
asbag49
(g70
g51
NtRp2226
(dp2227
g54
(dp2228
sg63
g2213
sg56
(lp2229
g49
(g50
g51
NtRp2230
(dp2231
g54
(dp2232
g62
I4
ssg63
g2226
sg56
(lp2233
g49
(g58
g51
NtRp2234
(dp2235
g54
(dp2236
g62
I3
ssg63
Nsg56
(lp2237
g49
(g65
g51
NtRp2238
(dp2239
g54
(dp2240
sg63
g2234
sg56
(lp2241
g49
(g70
g51
NtRp2242
(dp2243
g54
(dp2244
g74
g75
ssg63
g2238
sg56
(lp2245
S'HTTP_ACCEPT'
p2246
asbag49
(g70
g51
NtRp2247
(dp2248
g54
(dp2249
g81
g82
ssg63
g2238
sg56
(lp2250
S':'
asbag49
(g70
g51
NtRp2251
(dp2252
g54
(dp2253
sg63
g2238
sg56
(lp2254
g49
(g50
g51
NtRp2255
(dp2256
g54
(dp2257
g62
I3
ssg63
g2251
sg56
(lp2258
g745
asbasbasbag49
(g65
g51
NtRp2259
(dp2260
g54
(dp2261
sg63
g2234
sg56
(lp2262
g49
(g70
g51
NtRp2263
(dp2264
g54
(dp2265
g74
g75
ssg63
g2259
sg56
(lp2266
S'HTTP_ACCEPT_ENCODING'
p2267
asbag49
(g70
g51
NtRp2268
(dp2269
g54
(dp2270
g81
g82
ssg63
g2259
sg56
(lp2271
S':'
asbag49
(g70
g51
NtRp2272
(dp2273
g54
(dp2274
sg63
g2259
sg56
(lp2275
g49
(g50
g51
NtRp2276
(dp2277
g54
(dp2278
g62
I3
ssg63
g2272
sg56
(lp2279
g767
asbasbasbag49
(g65
g51
NtRp2280
(dp2281
g54
(dp2282
sg63
g2234
sg56
(lp2283
g49
(g70
g51
NtRp2284
(dp2285
g54
(dp2286
g74
g75
ssg63
g2280
sg56
(lp2287
S'HTTP_ACCEPT_LANGUAGE'
p2288
asbag49
(g70
g51
NtRp2289
(dp2290
g54
(dp2291
g81
g82
ssg63
g2280
sg56
(lp2292
S':'
asbag49
(g70
g51
NtRp2293
(dp2294
g54
(dp2295
sg63
g2280
sg56
(lp2296
g49
(g50
g51
NtRp2297
(dp2298
g54
(dp2299
g62
I3
ssg63
g2293
sg56
(lp2300
g789
asbasbasbag49
(g65
g51
NtRp2301
(dp2302
g54
(dp2303
sg63
g2234
sg56
(lp2304
g49
(g70
g51
NtRp2305
(dp2306
g54
(dp2307
g74
g75
ssg63
g2301
sg56
(lp2308
S'HTTP_CACHE_CONTROL'
p2309
asbag49
(g70
g51
NtRp2310
(dp2311
g54
(dp2312
g81
g82
ssg63
g2301
sg56
(lp2313
S':'
asbag49
(g70
g51
NtRp2314
(dp2315
g54
(dp2316
sg63
g2301
sg56
(lp2317
g49
(g50
g51
NtRp2318
(dp2319
g54
(dp2320
g62
I3
ssg63
g2314
sg56
(lp2321
g811
asbasbasbag49
(g65
g51
NtRp2322
(dp2323
g54
(dp2324
sg63
g2234
sg56
(lp2325
g49
(g70
g51
NtRp2326
(dp2327
g54
(dp2328
g74
g75
ssg63
g2322
sg56
(lp2329
S'HTTP_CONNECTION'
p2330
asbag49
(g70
g51
NtRp2331
(dp2332
g54
(dp2333
g81
g82
ssg63
g2322
sg56
(lp2334
S':'
asbag49
(g70
g51
NtRp2335
(dp2336
g54
(dp2337
sg63
g2322
sg56
(lp2338
g49
(g50
g51
NtRp2339
(dp2340
g54
(dp2341
g62
I3
ssg63
g2335
sg56
(lp2342
g833
asbasbasbag49
(g65
g51
NtRp2343
(dp2344
g54
(dp2345
sg63
g2234
sg56
(lp2346
g49
(g70
g51
NtRp2347
(dp2348
g54
(dp2349
g74
g75
ssg63
g2343
sg56
(lp2350
S'HTTP_COOKIE'
p2351
asbag49
(g70
g51
NtRp2352
(dp2353
g54
(dp2354
g81
g82
ssg63
g2343
sg56
(lp2355
S':'
asbag49
(g70
g51
NtRp2356
(dp2357
g54
(dp2358
sg63
g2343
sg56
(lp2359
g49
(g50
g51
NtRp2360
(dp2361
g54
(dp2362
g62
I3
ssg63
g2356
sg56
(lp2363
g855
asbasbasbag49
(g65
g51
NtRp2364
(dp2365
g54
(dp2366
sg63
g2234
sg56
(lp2367
g49
(g70
g51
NtRp2368
(dp2369
g54
(dp2370
g74
g75
ssg63
g2364
sg56
(lp2371
S'HTTP_HOST'
p2372
asbag49
(g70
g51
NtRp2373
(dp2374
g54
(dp2375
g81
g82
ssg63
g2364
sg56
(lp2376
S':'
asbag49
(g70
g51
NtRp2377
(dp2378
g54
(dp2379
sg63
g2364
sg56
(lp2380
g49
(g50
g51
NtRp2381
(dp2382
g54
(dp2383
g62
I3
ssg63
g2377
sg56
(lp2384
g877
asbasbasbag49
(g65
g51
NtRp2385
(dp2386
g54
(dp2387
sg63
g2234
sg56
(lp2388
g49
(g70
g51
NtRp2389
(dp2390
g54
(dp2391
g74
g75
ssg63
g2385
sg56
(lp2392
S'HTTP_REFERER'
p2393
asbag49
(g70
g51
NtRp2394
(dp2395
g54
(dp2396
g81
g82
ssg63
g2385
sg56
(lp2397
S':'
asbag49
(g70
g51
NtRp2398
(dp2399
g54
(dp2400
sg63
g2385
sg56
(lp2401
g49
(g50
g51
NtRp2402
(dp2403
g54
(dp2404
g62
I3
ssg63
g2398
sg56
(lp2405
g899
asbasbasbag49
(g65
g51
NtRp2406
(dp2407
g54
(dp2408
sg63
g2234
sg56
(lp2409
g49
(g70
g51
NtRp2410
(dp2411
g54
(dp2412
g74
g75
ssg63
g2406
sg56
(lp2413
S'HTTP_USER_AGENT'
p2414
asbag49
(g70
g51
NtRp2415
(dp2416
g54
(dp2417
g81
g82
ssg63
g2406
sg56
(lp2418
S':'
asbag49
(g70
g51
NtRp2419
(dp2420
g54
(dp2421
sg63
g2406
sg56
(lp2422
g49
(g50
g51
NtRp2423
(dp2424
g54
(dp2425
g62
I3
ssg63
g2419
sg56
(lp2426
g921
asbasbasbag49
(g65
g51
NtRp2427
(dp2428
g54
(dp2429
sg63
g2234
sg56
(lp2430
g49
(g70
g51
NtRp2431
(dp2432
g54
(dp2433
g74
g75
ssg63
g2427
sg56
(lp2434
S'PATH_INFO'
p2435
asbag49
(g70
g51
NtRp2436
(dp2437
g54
(dp2438
g81
g82
ssg63
g2427
sg56
(lp2439
S':'
asbag49
(g70
g51
NtRp2440
(dp2441
g54
(dp2442
sg63
g2427
sg56
(lp2443
g49
(g50
g51
NtRp2444
(dp2445
g54
(dp2446
g62
I3
ssg63
g2440
sg56
(lp2447
g985
asbasbasbag49
(g65
g51
NtRp2448
(dp2449
g54
(dp2450
sg63
g2234
sg56
(lp2451
g49
(g70
g51
NtRp2452
(dp2453
g54
(dp2454
g74
g75
ssg63
g2448
sg56
(lp2455
S'QUERY_STRING'
p2456
asbag49
(g70
g51
NtRp2457
(dp2458
g54
(dp2459
g81
g82
ssg63
g2448
sg56
(lp2460
S':'
asbag49
(g70
g51
NtRp2461
(dp2462
g54
(dp2463
sg63
g2448
sg56
(lp2464
g49
(g50
g51
NtRp2465
(dp2466
g54
(dp2467
g62
I3
ssg63
g2461
sg56
(lp2468
S''
asbasbasbag49
(g65
g51
NtRp2469
(dp2470
g54
(dp2471
sg63
g2234
sg56
(lp2472
g49
(g70
g51
NtRp2473
(dp2474
g54
(dp2475
g74
g75
ssg63
g2469
sg56
(lp2476
S'REMOTE_ADDR'
p2477
asbag49
(g70
g51
NtRp2478
(dp2479
g54
(dp2480
g81
g82
ssg63
g2469
sg56
(lp2481
S':'
asbag49
(g70
g51
NtRp2482
(dp2483
g54
(dp2484
sg63
g2469
sg56
(lp2485
g49
(g50
g51
NtRp2486
(dp2487
g54
(dp2488
g62
I3
ssg63
g2482
sg56
(lp2489
g158
asbasbasbag49
(g65
g51
NtRp2490
(dp2491
g54
(dp2492
sg63
g2234
sg56
(lp2493
g49
(g70
g51
NtRp2494
(dp2495
g54
(dp2496
g74
g75
ssg63
g2490
sg56
(lp2497
S'REMOTE_PORT'
p2498
asbag49
(g70
g51
NtRp2499
(dp2500
g54
(dp2501
g81
g82
ssg63
g2490
sg56
(lp2502
S':'
asbag49
(g70
g51
NtRp2503
(dp2504
g54
(dp2505
sg63
g2490
sg56
(lp2506
g49
(g50
g51
NtRp2507
(dp2508
g54
(dp2509
g62
I3
ssg63
g2503
sg56
(lp2510
g1049
asbasbasbag49
(g65
g51
NtRp2511
(dp2512
g54
(dp2513
sg63
g2234
sg56
(lp2514
g49
(g70
g51
NtRp2515
(dp2516
g54
(dp2517
g74
g75
ssg63
g2511
sg56
(lp2518
S'REQUEST_METHOD'
p2519
asbag49
(g70
g51
NtRp2520
(dp2521
g54
(dp2522
g81
g82
ssg63
g2511
sg56
(lp2523
S':'
asbag49
(g70
g51
NtRp2524
(dp2525
g54
(dp2526
sg63
g2511
sg56
(lp2527
g49
(g50
g51
NtRp2528
(dp2529
g54
(dp2530
g62
I3
ssg63
g2524
sg56
(lp2531
g1071
asbasbasbag49
(g65
g51
NtRp2532
(dp2533
g54
(dp2534
sg63
g2234
sg56
(lp2535
g49
(g70
g51
NtRp2536
(dp2537
g54
(dp2538
g74
g75
ssg63
g2532
sg56
(lp2539
S'REQUEST_URI'
p2540
asbag49
(g70
g51
NtRp2541
(dp2542
g54
(dp2543
g81
g82
ssg63
g2532
sg56
(lp2544
S':'
asbag49
(g70
g51
NtRp2545
(dp2546
g54
(dp2547
sg63
g2532
sg56
(lp2548
g49
(g50
g51
NtRp2549
(dp2550
g54
(dp2551
g62
I3
ssg63
g2545
sg56
(lp2552
g985
asbasbasbag49
(g65
g51
NtRp2553
(dp2554
g54
(dp2555
sg63
g2234
sg56
(lp2556
g49
(g70
g51
NtRp2557
(dp2558
g54
(dp2559
g74
g75
ssg63
g2553
sg56
(lp2560
S'SCRIPT_NAME'
p2561
asbag49
(g70
g51
NtRp2562
(dp2563
g54
(dp2564
g81
g82
ssg63
g2553
sg56
(lp2565
S':'
asbag49
(g70
g51
NtRp2566
(dp2567
g54
(dp2568
sg63
g2553
sg56
(lp2569
g49
(g50
g51
NtRp2570
(dp2571
g54
(dp2572
g62
I3
ssg63
g2566
sg56
(lp2573
S''
asbasbasbag49
(g65
g51
NtRp2574
(dp2575
g54
(dp2576
sg63
g2234
sg56
(lp2577
g49
(g70
g51
NtRp2578
(dp2579
g54
(dp2580
g74
g75
ssg63
g2574
sg56
(lp2581
S'SERVER_NAME'
p2582
asbag49
(g70
g51
NtRp2583
(dp2584
g54
(dp2585
g81
g82
ssg63
g2574
sg56
(lp2586
S':'
asbag49
(g70
g51
NtRp2587
(dp2588
g54
(dp2589
sg63
g2574
sg56
(lp2590
g49
(g50
g51
NtRp2591
(dp2592
g54
(dp2593
g62
I3
ssg63
g2587
sg56
(lp2594
g1135
asbasbasbag49
(g65
g51
NtRp2595
(dp2596
g54
(dp2597
sg63
g2234
sg56
(lp2598
g49
(g70
g51
NtRp2599
(dp2600
g54
(dp2601
g74
g75
ssg63
g2595
sg56
(lp2602
S'SERVER_PORT'
p2603
asbag49
(g70
g51
NtRp2604
(dp2605
g54
(dp2606
g81
g82
ssg63
g2595
sg56
(lp2607
S':'
asbag49
(g70
g51
NtRp2608
(dp2609
g54
(dp2610
sg63
g2595
sg56
(lp2611
g49
(g50
g51
NtRp2612
(dp2613
g54
(dp2614
g62
I3
ssg63
g2608
sg56
(lp2615
g1157
asbasbasbag49
(g65
g51
NtRp2616
(dp2617
g54
(dp2618
sg63
g2234
sg56
(lp2619
g49
(g70
g51
NtRp2620
(dp2621
g54
(dp2622
g74
g75
ssg63
g2616
sg56
(lp2623
S'SERVER_PROTOCOL'
p2624
asbag49
(g70
g51
NtRp2625
(dp2626
g54
(dp2627
g81
g82
ssg63
g2616
sg56
(lp2628
S':'
asbag49
(g70
g51
NtRp2629
(dp2630
g54
(dp2631
sg63
g2616
sg56
(lp2632
g49
(g50
g51
NtRp2633
(dp2634
g54
(dp2635
g62
I3
ssg63
g2629
sg56
(lp2636
g1179
asbasbasbag49
(g65
g51
NtRp2637
(dp2638
g54
(dp2639
sg63
g2234
sg56
(lp2640
g49
(g70
g51
NtRp2641
(dp2642
g54
(dp2643
g74
g75
ssg63
g2637
sg56
(lp2644
S'SERVER_SOFTWARE'
p2645
asbag49
(g70
g51
NtRp2646
(dp2647
g54
(dp2648
g81
g82
ssg63
g2637
sg56
(lp2649
S':'
asbag49
(g70
g51
NtRp2650
(dp2651
g54
(dp2652
sg63
g2637
sg56
(lp2653
g49
(g50
g51
NtRp2654
(dp2655
g54
(dp2656
g62
I3
ssg63
g2650
sg56
(lp2657
g1201
asbasbasbag49
(g65
g51
NtRp2658
(dp2659
g54
(dp2660
sg63
g2234
sg56
(lp2661
g49
(g70
g51
NtRp2662
(dp2663
g54
(dp2664
g74
g75
ssg63
g2658
sg56
(lp2665
S'WEB2PY_ORIGINAL_URI'
p2666
asbag49
(g70
g51
NtRp2667
(dp2668
g54
(dp2669
g81
g82
ssg63
g2658
sg56
(lp2670
S':'
asbag49
(g70
g51
NtRp2671
(dp2672
g54
(dp2673
sg63
g2658
sg56
(lp2674
g49
(g50
g51
NtRp2675
(dp2676
g54
(dp2677
g62
I3
ssg63
g2671
sg56
(lp2678
g1245
asbasbasbag49
(g65
g51
NtRp2679
(dp2680
g54
(dp2681
sg63
g2234
sg56
(lp2682
g49
(g70
g51
NtRp2683
(dp2684
g54
(dp2685
g74
g75
ssg63
g2679
sg56
(lp2686
S'wsgi.errors'
p2687
asbag49
(g70
g51
NtRp2688
(dp2689
g54
(dp2690
g81
g82
ssg63
g2679
sg56
(lp2691
S':'
asbag49
(g70
g51
NtRp2692
(dp2693
g54
(dp2694
sg63
g2679
sg56
(lp2695
g49
(g50
g51
NtRp2696
(dp2697
g54
(dp2698
g62
I3
ssg63
g2692
sg56
(lp2699
S"<open file '<stderr>', mode 'w' at 0x004200B0>"
p2700
asbasbasbag49
(g65
g51
NtRp2701
(dp2702
g54
(dp2703
sg63
g2234
sg56
(lp2704
g49
(g70
g51
NtRp2705
(dp2706
g54
(dp2707
g74
g75
ssg63
g2701
sg56
(lp2708
S'wsgi.file_wrapper'
p2709
asbag49
(g70
g51
NtRp2710
(dp2711
g54
(dp2712
g81
g82
ssg63
g2701
sg56
(lp2713
S':'
asbag49
(g70
g51
NtRp2714
(dp2715
g54
(dp2716
sg63
g2701
sg56
(lp2717
g49
(g50
g51
NtRp2718
(dp2719
g54
(dp2720
g62
I3
ssg63
g2714
sg56
(lp2721
S'<class wsgiref.util.FileWrapper at 0x02F82390>'
p2722
asbasbasbag49
(g65
g51
NtRp2723
(dp2724
g54
(dp2725
sg63
g2234
sg56
(lp2726
g49
(g70
g51
NtRp2727
(dp2728
g54
(dp2729
g74
g75
ssg63
g2723
sg56
(lp2730
S'wsgi.input'
p2731
asbag49
(g70
g51
NtRp2732
(dp2733
g54
(dp2734
g81
g82
ssg63
g2723
sg56
(lp2735
S':'
asbag49
(g70
g51
NtRp2736
(dp2737
g54
(dp2738
sg63
g2723
sg56
(lp2739
g49
(g50
g51
NtRp2740
(dp2741
g54
(dp2742
g62
I3
ssg63
g2736
sg56
(lp2743
S'<cStringIO.StringO object at 0x075AA6A0>'
p2744
asbasbasbag49
(g65
g51
NtRp2745
(dp2746
g54
(dp2747
sg63
g2234
sg56
(lp2748
g49
(g70
g51
NtRp2749
(dp2750
g54
(dp2751
g74
g75
ssg63
g2745
sg56
(lp2752
S'wsgi.multiprocess'
p2753
asbag49
(g70
g51
NtRp2754
(dp2755
g54
(dp2756
g81
g82
ssg63
g2745
sg56
(lp2757
S':'
asbag49
(g70
g51
NtRp2758
(dp2759
g54
(dp2760
sg63
g2745
sg56
(lp2761
g49
(g50
g51
NtRp2762
(dp2763
g54
(dp2764
g62
I3
ssg63
g2758
sg56
(lp2765
g92
asbasbasbag49
(g65
g51
NtRp2766
(dp2767
g54
(dp2768
sg63
g2234
sg56
(lp2769
g49
(g70
g51
NtRp2770
(dp2771
g54
(dp2772
g74
g75
ssg63
g2766
sg56
(lp2773
S'wsgi.multithread'
p2774
asbag49
(g70
g51
NtRp2775
(dp2776
g54
(dp2777
g81
g82
ssg63
g2766
sg56
(lp2778
S':'
asbag49
(g70
g51
NtRp2779
(dp2780
g54
(dp2781
sg63
g2766
sg56
(lp2782
g49
(g50
g51
NtRp2783
(dp2784
g54
(dp2785
g62
I3
ssg63
g2779
sg56
(lp2786
g1463
asbasbasbag49
(g65
g51
NtRp2787
(dp2788
g54
(dp2789
sg63
g2234
sg56
(lp2790
g49
(g70
g51
NtRp2791
(dp2792
g54
(dp2793
g74
g75
ssg63
g2787
sg56
(lp2794
S'wsgi.run_once'
p2795
asbag49
(g70
g51
NtRp2796
(dp2797
g54
(dp2798
g81
g82
ssg63
g2787
sg56
(lp2799
S':'
asbag49
(g70
g51
NtRp2800
(dp2801
g54
(dp2802
sg63
g2787
sg56
(lp2803
g49
(g50
g51
NtRp2804
(dp2805
g54
(dp2806
g62
I3
ssg63
g2800
sg56
(lp2807
g92
asbasbasbag49
(g65
g51
NtRp2808
(dp2809
g54
(dp2810
sg63
g2234
sg56
(lp2811
g49
(g70
g51
NtRp2812
(dp2813
g54
(dp2814
g74
g75
ssg63
g2808
sg56
(lp2815
S'wsgi.url_scheme'
p2816
asbag49
(g70
g51
NtRp2817
(dp2818
g54
(dp2819
g81
g82
ssg63
g2808
sg56
(lp2820
S':'
asbag49
(g70
g51
NtRp2821
(dp2822
g54
(dp2823
sg63
g2808
sg56
(lp2824
g49
(g50
g51
NtRp2825
(dp2826
g54
(dp2827
g62
I3
ssg63
g2821
sg56
(lp2828
g1506
asbasbasbag49
(g65
g51
NtRp2829
(dp2830
g54
(dp2831
sg63
g2234
sg56
(lp2832
g49
(g70
g51
NtRp2833
(dp2834
g54
(dp2835
g74
g75
ssg63
g2829
sg56
(lp2836
S'wsgi.version'
p2837
asbag49
(g70
g51
NtRp2838
(dp2839
g54
(dp2840
g81
g82
ssg63
g2829
sg56
(lp2841
S':'
asbag49
(g70
g51
NtRp2842
(dp2843
g54
(dp2844
sg63
g2829
sg56
(lp2845
g49
(g50
g51
NtRp2846
(dp2847
g54
(dp2848
g62
I3
ssg63
g2842
sg56
(lp2849
S'1'
asbasbasbasbasbasbasbasbasbasbasbasbasbsS'frames'
p2850
(lp2851
(dp2852
S'file'
p2853
S'D:\\Dise\xf1o Web\\Proyectos\\Parleyweb\\web2py\\gluon\\restricted.py'
p2854
sS'dump'
p2855
(dp2856
sS'lnum'
p2857
I205
sS'lines'
p2858
(dp2859
sS'call'
p2860
S'(code=r"response.write(\'<!DOCTYPE html>\\n<!-- paulirish....\\n    \\n\\n \\n\\n</body>\\n</html>\\n\', escape=False)", environment={\'A\': <class \'gluon.html.A\'>, \'Auth\': <class \'gluon.tools.Auth\'>, \'B\': <class \'gluon.html.B\'>, \'BEAUTIFY\': <class \'gluon.html.BEAUTIFY\'>, \'BODY\': <class \'gluon.html.BODY\'>, \'BR\': <class \'gluon.html.BR\'>, \'BUTTON\': <class \'gluon.html.BUTTON\'>, \'CAT\': <class \'gluon.html.CAT\'>, \'CENTER\': <class \'gluon.html.CENTER\'>, \'CLEANUP\': <class \'gluon.validators.CLEANUP\'>, ...}, layer=\'D:\\\\Dise\\xf1o Web\\\\Proyectos\\\\Parleyweb\\\\web2py\\\\applications\\\\parleyweb\\\\views\\\\admin/buscar_ejemplos2.html\')'
p2861
sS'func'
p2862
S'restricted'
p2863
sa(dp2864
g2853
S'D:\\Dise\xf1o Web\\Proyectos\\Parleyweb\\web2py\\applications\\parleyweb\\views\\admin\\buscar_ejemplos2.html'
p2865
sg2855
(dp2866
sg2857
I83
sg2858
(dp2867
I74
S"response.write('</li>\\n\\t      ', escape=False)"
p2868
sI75
S"response.write('\\n\\t      ', escape=False)"
p2869
sI76
S'response.write(\'\\n              <li class="nav-header">Estadisticas</li>\\n\\t      \', escape=False)'
p2870
sI77
S"response.write('\\n\\t      ', escape=False)"
p2871
sI78
S'response.write(\'\\n    \\n            </ul>\\n          </div><!--/.well -->\\n\\t \\n        </div><!--/span-->\\n\\t\\n\\t \\n\\t\\n        <div class="span9">\\n\\t  \', escape=False)'
p2872
sI79
S"response.write('\\n\\t  \\n           \\n\\t   ', escape=False)"
p2873
sI80
S'response.write(\'\\r\\n    <div class="opciones"> \\r\\n        <h3>Ejemplos con <span class="palabra_destacada">\', escape=False)'
p2874
sI81
S'response.write(request.raw_args)'
p2875
sI82
S'response.write(\'</span></h3>\\r\\n        <div class="wellparley">\\r\\n            <table class="table table-striped table-bordered">\\r\\n                <thead>\\r\\n                    <th>Ejemplos</th>\\r\\n                    <th>relacionar</th>\\r\\n                </thead>\\r\\n                <tbody>\\r\\n                    <tr>\', escape=False)'
p2876
sI83
S'response.write(buscar.ejemplos.ejemplo_de)'
p2877
sI84
S"response.write('</tr>\\r\\n                    <tr></tr>\\r\\n                </tbody>\\r\\n            </table>\\r\\n        </div>\\r\\n    </div>\\r\\n\\r\\n\\r\\n\\r\\n\\r\\n\\r\\n', escape=False)"
p2878
sI85
S'#=buscar'
p2879
sI86
S"response.write('\\r\\n', escape=False)"
p2880
sI87
S'#=request.raw_args'
p2881
sI88
S"response.write('\\n\\t  \\n\\t  \\n\\t  ', escape=False)"
p2882
sI89
S'response.write(\'\\n        </div>\\n          \\n          \\n        </div><!--/span-->\\n      </div><!--/row-->\\n\\n      <hr>\\n\\n      <footer>\\n        <p>\\xc2\\xa9 Company 2012</p>\\n      </footer>\\n\\n    </div><!--/.fluid-container-->\\n    \\n    <!-- Le javascript\\n    ================================================== -->\\n    <!-- Placed at the end of the document so the pages load faster \\n    <script>\\n      $(function () {\\n      $(\\\'.tabs a:last\\\').tab(\\\'show\\\')\\n      })\\n    </script>-->\\n    <script>\\n      $(\\\'#borrar_palabra\\\').modal(\\\'show\\\')\\n    </script>\\n    <script>\\n      $(\\\'#editar_palabra\\\').modal(\\\'show\\\')\\n    </script>\\n    <script>\\n      $(\\\'#borrar_ejemplo\\\').modal(\\\'show\\\')\\n    </script>\\n    <script>\\n      $(\\\'#editar-ejemplo\\\').modal(\\\'show\\\')\\n    </script>\\n    <script>\\n      $(\\\'#borrar_fuente\\\').modal(\\\'show\\\')\\n    </script>\\n    <script>\\n      $(\\\'#editar-fuente\\\').modal(\\\'show\\\')\\n    </script>\\n    <script type="text/javascript">\\n      $(function() {\\n\\t  //find all form with class jqtransform and apply the plugin\\n\\t  $("form.jqtransform").jqTransform();\\n      });\\n</script>\\n    \\n\\n \\n\\n</body>\\n</html>\\n\', escape=False)'
p2883
ssg2860
S'()'
p2884
sg2862
S'<module>'
p2885
sasS'pyver'
p2886
S'Python 2.5.4: D:\\Dise\xf1o Web\\Proyectos\\Parleyweb\\web2py\\web2py.exe'
p2887
sS'session'
p2888
g49
(g50
g51
NtRp2889
(dp2890
g54
(dp2891
sg56
(lp2892
g49
(g58
g51
NtRp2893
(dp2894
g54
(dp2895
g62
I5
ssg63
Nsg56
(lp2896
sbasbsS'etype'
p2897
S"<type 'exceptions.AttributeError'>"
p2898
sS'date'
p2899
S'Wed Mar 14 22:35:23 2012'
p2900
sS'response'
p2901
g49
(g50
g51
NtRp2902
(dp2903
g54
(dp2904
sg56
(lp2905
g49
(g58
g51
NtRp2906
(dp2907
g54
(dp2908
g62
I5
ssg63
Nsg56
(lp2909
g49
(g65
g51
NtRp2910
(dp2911
g54
(dp2912
sg63
g2906
sg56
(lp2913
g49
(g70
g51
NtRp2914
(dp2915
g54
(dp2916
g74
g75
ssg63
g2910
sg56
(lp2917
g123
asbag49
(g70
g51
NtRp2918
(dp2919
g54
(dp2920
g81
g82
ssg63
g2910
sg56
(lp2921
S':'
asbag49
(g70
g51
NtRp2922
(dp2923
g54
(dp2924
sg63
g2910
sg56
(lp2925
g49
(g50
g51
NtRp2926
(dp2927
g54
(dp2928
g62
I5
ssg63
g2922
sg56
(lp2929
S'<cStringIO.StringO object at 0x07760DA0>'
p2930
asbasbasbag49
(g65
g51
NtRp2931
(dp2932
g54
(dp2933
sg63
g2906
sg56
(lp2934
g49
(g70
g51
NtRp2935
(dp2936
g54
(dp2937
g74
g75
ssg63
g2931
sg56
(lp2938
g189
asbag49
(g70
g51
NtRp2939
(dp2940
g54
(dp2941
g81
g82
ssg63
g2931
sg56
(lp2942
S':'
asbag49
(g70
g51
NtRp2943
(dp2944
g54
(dp2945
sg63
g2931
sg56
(lp2946
g49
(g50
g51
NtRp2947
(dp2948
g54
(dp2949
g62
I5
ssg63
g2943
sg56
(lp2950
g49
(g58
g51
NtRp2951
(dp2952
g54
(dp2953
g62
I4
ssg63
Nsg56
(lp2954
g49
(g65
g51
NtRp2955
(dp2956
g54
(dp2957
sg63
g2951
sg56
(lp2958
g49
(g70
g51
NtRp2959
(dp2960
g54
(dp2961
g74
g75
ssg63
g2955
sg56
(lp2962
S'session_id_parleyweb'
p2963
asbag49
(g70
g51
NtRp2964
(dp2965
g54
(dp2966
g81
g82
ssg63
g2955
sg56
(lp2967
S':'
asbag49
(g70
g51
NtRp2968
(dp2969
g54
(dp2970
sg63
g2955
sg56
(lp2971
g49
(g50
g51
NtRp2972
(dp2973
g54
(dp2974
g62
I4
ssg63
g2968
sg56
(lp2975
g49
(g58
g51
NtRp2976
(dp2977
g54
(dp2978
g62
I3
ssg63
Nsg56
(lp2979
g49
(g65
g51
NtRp2980
(dp2981
g54
(dp2982
sg63
g2976
sg56
(lp2983
g49
(g70
g51
NtRp2984
(dp2985
g54
(dp2986
g74
g75
ssg63
g2980
sg56
(lp2987
g239
asbag49
(g70
g51
NtRp2988
(dp2989
g54
(dp2990
g81
g82
ssg63
g2980
sg56
(lp2991
S':'
asbag49
(g70
g51
NtRp2992
(dp2993
g54
(dp2994
sg63
g2980
sg56
(lp2995
g49
(g50
g51
NtRp2996
(dp2997
g54
(dp2998
g62
I3
ssg63
g2992
sg56
(lp2999
S''
asbasbasbag49
(g65
g51
NtRp3000
(dp3001
g54
(dp3002
sg63
g2976
sg56
(lp3003
g49
(g70
g51
NtRp3004
(dp3005
g54
(dp3006
g74
g75
ssg63
g3000
sg56
(lp3007
g260
asbag49
(g70
g51
NtRp3008
(dp3009
g54
(dp3010
g81
g82
ssg63
g3000
sg56
(lp3011
S':'
asbag49
(g70
g51
NtRp3012
(dp3013
g54
(dp3014
sg63
g3000
sg56
(lp3015
g49
(g50
g51
NtRp3016
(dp3017
g54
(dp3018
g62
I3
ssg63
g3012
sg56
(lp3019
S''
asbasbasbag49
(g65
g51
NtRp3020
(dp3021
g54
(dp3022
sg63
g2976
sg56
(lp3023
g49
(g70
g51
NtRp3024
(dp3025
g54
(dp3026
g74
g75
ssg63
g3020
sg56
(lp3027
g281
asbag49
(g70
g51
NtRp3028
(dp3029
g54
(dp3030
g81
g82
ssg63
g3020
sg56
(lp3031
S':'
asbag49
(g70
g51
NtRp3032
(dp3033
g54
(dp3034
sg63
g3020
sg56
(lp3035
g49
(g50
g51
NtRp3036
(dp3037
g54
(dp3038
g62
I3
ssg63
g3032
sg56
(lp3039
S''
asbasbasbag49
(g65
g51
NtRp3040
(dp3041
g54
(dp3042
sg63
g2976
sg56
(lp3043
g49
(g70
g51
NtRp3044
(dp3045
g54
(dp3046
g74
g75
ssg63
g3040
sg56
(lp3047
g302
asbag49
(g70
g51
NtRp3048
(dp3049
g54
(dp3050
g81
g82
ssg63
g3040
sg56
(lp3051
S':'
asbag49
(g70
g51
NtRp3052
(dp3053
g54
(dp3054
sg63
g3040
sg56
(lp3055
g49
(g50
g51
NtRp3056
(dp3057
g54
(dp3058
g62
I3
ssg63
g3052
sg56
(lp3059
S''
asbasbasbag49
(g65
g51
NtRp3060
(dp3061
g54
(dp3062
sg63
g2976
sg56
(lp3063
g49
(g70
g51
NtRp3064
(dp3065
g54
(dp3066
g74
g75
ssg63
g3060
sg56
(lp3067
g323
asbag49
(g70
g51
NtRp3068
(dp3069
g54
(dp3070
g81
g82
ssg63
g3060
sg56
(lp3071
S':'
asbag49
(g70
g51
NtRp3072
(dp3073
g54
(dp3074
sg63
g3060
sg56
(lp3075
g49
(g50
g51
NtRp3076
(dp3077
g54
(dp3078
g62
I3
ssg63
g3072
sg56
(lp3079
S'/'
asbasbasbag49
(g65
g51
NtRp3080
(dp3081
g54
(dp3082
sg63
g2976
sg56
(lp3083
g49
(g70
g51
NtRp3084
(dp3085
g54
(dp3086
g74
g75
ssg63
g3080
sg56
(lp3087
g344
asbag49
(g70
g51
NtRp3088
(dp3089
g54
(dp3090
g81
g82
ssg63
g3080
sg56
(lp3091
S':'
asbag49
(g70
g51
NtRp3092
(dp3093
g54
(dp3094
sg63
g3080
sg56
(lp3095
g49
(g50
g51
NtRp3096
(dp3097
g54
(dp3098
g62
I3
ssg63
g3092
sg56
(lp3099
S''
asbasbasbag49
(g65
g51
NtRp3100
(dp3101
g54
(dp3102
sg63
g2976
sg56
(lp3103
g49
(g70
g51
NtRp3104
(dp3105
g54
(dp3106
g74
g75
ssg63
g3100
sg56
(lp3107
g365
asbag49
(g70
g51
NtRp3108
(dp3109
g54
(dp3110
g81
g82
ssg63
g3100
sg56
(lp3111
S':'
asbag49
(g70
g51
NtRp3112
(dp3113
g54
(dp3114
sg63
g3100
sg56
(lp3115
g49
(g50
g51
NtRp3116
(dp3117
g54
(dp3118
g62
I3
ssg63
g3112
sg56
(lp3119
S''
asbasbasbasbasbasbasbasbasbasbasbag49
(g65
g51
NtRp3120
(dp3121
g54
(dp3122
sg63
g2906
sg56
(lp3123
g49
(g70
g51
NtRp3124
(dp3125
g54
(dp3126
g74
g75
ssg63
g3120
sg56
(lp3127
S'delimiters'
p3128
asbag49
(g70
g51
NtRp3129
(dp3130
g54
(dp3131
g81
g82
ssg63
g3120
sg56
(lp3132
S':'
asbag49
(g70
g51
NtRp3133
(dp3134
g54
(dp3135
sg63
g3120
sg56
(lp3136
g49
(g50
g51
NtRp3137
(dp3138
g54
(dp3139
g62
I5
ssg63
g3133
sg56
(lp3140
g49
(g58
g51
NtRp3141
(dp3142
g54
(dp3143
g62
I4
ssg63
Nsg56
(lp3144
g49
(g65
g51
NtRp3145
(dp3146
g54
(dp3147
sg63
g3141
sg56
(lp3148
g49
(g70
g51
NtRp3149
(dp3150
g54
(dp3151
sg63
g3145
sg56
(lp3152
g49
(g50
g51
NtRp3153
(dp3154
g54
(dp3155
g62
I4
ssg63
g3149
sg56
(lp3156
S'{{'
p3157
asbasbasbag49
(g65
g51
NtRp3158
(dp3159
g54
(dp3160
sg63
g3141
sg56
(lp3161
g49
(g70
g51
NtRp3162
(dp3163
g54
(dp3164
sg63
g3158
sg56
(lp3165
g49
(g50
g51
NtRp3166
(dp3167
g54
(dp3168
g62
I4
ssg63
g3162
sg56
(lp3169
S'}}'
p3170
asbasbasbasbasbasbasbag49
(g65
g51
NtRp3171
(dp3172
g54
(dp3173
sg63
g2906
sg56
(lp3174
g49
(g70
g51
NtRp3175
(dp3176
g54
(dp3177
g74
g75
ssg63
g3171
sg56
(lp3178
S'files'
p3179
asbag49
(g70
g51
NtRp3180
(dp3181
g54
(dp3182
g81
g82
ssg63
g3171
sg56
(lp3183
S':'
asbag49
(g70
g51
NtRp3184
(dp3185
g54
(dp3186
sg63
g3171
sg56
(lp3187
g49
(g50
g51
NtRp3188
(dp3189
g54
(dp3190
g62
I5
ssg63
g3184
sg56
(lp3191
g49
(g58
g51
NtRp3192
(dp3193
g54
(dp3194
g62
I4
ssg63
Nsg56
(lp3195
g49
(g65
g51
NtRp3196
(dp3197
g54
(dp3198
sg63
g3192
sg56
(lp3199
g49
(g70
g51
NtRp3200
(dp3201
g54
(dp3202
sg63
g3196
sg56
(lp3203
g49
(g50
g51
NtRp3204
(dp3205
g54
(dp3206
g62
I4
ssg63
g3200
sg56
(lp3207
S'/parleyweb/static/js/jquery.js'
p3208
asbasbasbag49
(g65
g51
NtRp3209
(dp3210
g54
(dp3211
sg63
g3192
sg56
(lp3212
g49
(g70
g51
NtRp3213
(dp3214
g54
(dp3215
sg63
g3209
sg56
(lp3216
g49
(g50
g51
NtRp3217
(dp3218
g54
(dp3219
g62
I4
ssg63
g3213
sg56
(lp3220
S'/parleyweb/static/css/calendar.css'
p3221
asbasbasbag49
(g65
g51
NtRp3222
(dp3223
g54
(dp3224
sg63
g3192
sg56
(lp3225
g49
(g70
g51
NtRp3226
(dp3227
g54
(dp3228
sg63
g3222
sg56
(lp3229
g49
(g50
g51
NtRp3230
(dp3231
g54
(dp3232
g62
I4
ssg63
g3226
sg56
(lp3233
S'/parleyweb/static/js/calendar.js'
p3234
asbasbasbag49
(g65
g51
NtRp3235
(dp3236
g54
(dp3237
sg63
g3192
sg56
(lp3238
g49
(g70
g51
NtRp3239
(dp3240
g54
(dp3241
sg63
g3235
sg56
(lp3242
g49
(g50
g51
NtRp3243
(dp3244
g54
(dp3245
g62
I4
ssg63
g3239
sg56
(lp3246
S'/parleyweb/static/js/web2py.js'
p3247
asbasbasbag49
(g65
g51
NtRp3248
(dp3249
g54
(dp3250
sg63
g3192
sg56
(lp3251
g49
(g70
g51
NtRp3252
(dp3253
g54
(dp3254
sg63
g3248
sg56
(lp3255
g49
(g50
g51
NtRp3256
(dp3257
g54
(dp3258
g62
I4
ssg63
g3252
sg56
(lp3259
S'/parleyweb/static/css/bootstrap.css'
p3260
asbasbasbag49
(g65
g51
NtRp3261
(dp3262
g54
(dp3263
sg63
g3192
sg56
(lp3264
g49
(g70
g51
NtRp3265
(dp3266
g54
(dp3267
sg63
g3261
sg56
(lp3268
g49
(g50
g51
NtRp3269
(dp3270
g54
(dp3271
g62
I4
ssg63
g3265
sg56
(lp3272
S'/parleyweb/static/js/bootstrap.js'
p3273
asbasbasbag49
(g65
g51
NtRp3274
(dp3275
g54
(dp3276
sg63
g3192
sg56
(lp3277
g49
(g70
g51
NtRp3278
(dp3279
g54
(dp3280
sg63
g3274
sg56
(lp3281
g49
(g50
g51
NtRp3282
(dp3283
g54
(dp3284
g62
I4
ssg63
g3278
sg56
(lp3285
S'/parleyweb/static/js/jquery.tokeninput.js'
p3286
asbasbasbag49
(g65
g51
NtRp3287
(dp3288
g54
(dp3289
sg63
g3192
sg56
(lp3290
g49
(g70
g51
NtRp3291
(dp3292
g54
(dp3293
sg63
g3287
sg56
(lp3294
g49
(g50
g51
NtRp3295
(dp3296
g54
(dp3297
g62
I4
ssg63
g3291
sg56
(lp3298
S'/parleyweb/static/css/parleyweb.css'
p3299
asbasbasbag49
(g65
g51
NtRp3300
(dp3301
g54
(dp3302
sg63
g3192
sg56
(lp3303
g49
(g70
g51
NtRp3304
(dp3305
g54
(dp3306
sg63
g3300
sg56
(lp3307
g49
(g50
g51
NtRp3308
(dp3309
g54
(dp3310
g62
I4
ssg63
g3304
sg56
(lp3311
S'/parleyweb/static/css/jqtransform.css'
p3312
asbasbasbag49
(g65
g51
NtRp3313
(dp3314
g54
(dp3315
sg63
g3192
sg56
(lp3316
g49
(g70
g51
NtRp3317
(dp3318
g54
(dp3319
sg63
g3313
sg56
(lp3320
g49
(g50
g51
NtRp3321
(dp3322
g54
(dp3323
g62
I4
ssg63
g3317
sg56
(lp3324
S'/parleyweb/static/js/parleyweb.js'
p3325
asbasbasbag49
(g65
g51
NtRp3326
(dp3327
g54
(dp3328
sg63
g3192
sg56
(lp3329
g49
(g70
g51
NtRp3330
(dp3331
g54
(dp3332
sg63
g3326
sg56
(lp3333
g49
(g50
g51
NtRp3334
(dp3335
g54
(dp3336
g62
I4
ssg63
g3330
sg56
(lp3337
S'/parleyweb/static/js/jquery.jqtransform.js'
p3338
asbasbasbasbasbasbasbag49
(g65
g51
NtRp3339
(dp3340
g54
(dp3341
sg63
g2906
sg56
(lp3342
g49
(g70
g51
NtRp3343
(dp3344
g54
(dp3345
g74
g75
ssg63
g3339
sg56
(lp3346
S'flash'
p3347
asbag49
(g70
g51
NtRp3348
(dp3349
g54
(dp3350
g81
g82
ssg63
g3339
sg56
(lp3351
S':'
asbag49
(g70
g51
NtRp3352
(dp3353
g54
(dp3354
sg63
g3339
sg56
(lp3355
g49
(g50
g51
NtRp3356
(dp3357
g54
(dp3358
g62
I5
ssg63
g3352
sg56
(lp3359
S''
asbasbasbag49
(g65
g51
NtRp3360
(dp3361
g54
(dp3362
sg63
g2906
sg56
(lp3363
g49
(g70
g51
NtRp3364
(dp3365
g54
(dp3366
g74
g75
ssg63
g3360
sg56
(lp3367
S'generic_patterns'
p3368
asbag49
(g70
g51
NtRp3369
(dp3370
g54
(dp3371
g81
g82
ssg63
g3360
sg56
(lp3372
S':'
asbag49
(g70
g51
NtRp3373
(dp3374
g54
(dp3375
sg63
g3360
sg56
(lp3376
g49
(g50
g51
NtRp3377
(dp3378
g54
(dp3379
g62
I5
ssg63
g3373
sg56
(lp3380
g49
(g58
g51
NtRp3381
(dp3382
g54
(dp3383
g62
I4
ssg63
Nsg56
(lp3384
g49
(g65
g51
NtRp3385
(dp3386
g54
(dp3387
sg63
g3381
sg56
(lp3388
g49
(g70
g51
NtRp3389
(dp3390
g54
(dp3391
sg63
g3385
sg56
(lp3392
g49
(g50
g51
NtRp3393
(dp3394
g54
(dp3395
g62
I4
ssg63
g3389
sg56
(lp3396
S'*'
asbasbasbasbasbasbasbag49
(g65
g51
NtRp3397
(dp3398
g54
(dp3399
sg63
g2906
sg56
(lp3400
g49
(g70
g51
NtRp3401
(dp3402
g54
(dp3403
g74
g75
ssg63
g3397
sg56
(lp3404
S'headers'
p3405
asbag49
(g70
g51
NtRp3406
(dp3407
g54
(dp3408
g81
g82
ssg63
g3397
sg56
(lp3409
S':'
asbag49
(g70
g51
NtRp3410
(dp3411
g54
(dp3412
sg63
g3397
sg56
(lp3413
g49
(g50
g51
NtRp3414
(dp3415
g54
(dp3416
g62
I5
ssg63
g3410
sg56
(lp3417
g49
(g58
g51
NtRp3418
(dp3419
g54
(dp3420
g62
I4
ssg63
Nsg56
(lp3421
g49
(g65
g51
NtRp3422
(dp3423
g54
(dp3424
sg63
g3418
sg56
(lp3425
g49
(g70
g51
NtRp3426
(dp3427
g54
(dp3428
g74
g75
ssg63
g3422
sg56
(lp3429
S'Cache-Control'
p3430
asbag49
(g70
g51
NtRp3431
(dp3432
g54
(dp3433
g81
g82
ssg63
g3422
sg56
(lp3434
S':'
asbag49
(g70
g51
NtRp3435
(dp3436
g54
(dp3437
sg63
g3422
sg56
(lp3438
g49
(g50
g51
NtRp3439
(dp3440
g54
(dp3441
g62
I4
ssg63
g3435
sg56
(lp3442
S'no-store, no-cache, must-revalidate, post-check=0, pre-check=0'
p3443
asbasbasbag49
(g65
g51
NtRp3444
(dp3445
g54
(dp3446
sg63
g3418
sg56
(lp3447
g49
(g70
g51
NtRp3448
(dp3449
g54
(dp3450
g74
g75
ssg63
g3444
sg56
(lp3451
S'Content-Type'
p3452
asbag49
(g70
g51
NtRp3453
(dp3454
g54
(dp3455
g81
g82
ssg63
g3444
sg56
(lp3456
S':'
asbag49
(g70
g51
NtRp3457
(dp3458
g54
(dp3459
sg63
g3444
sg56
(lp3460
g49
(g50
g51
NtRp3461
(dp3462
g54
(dp3463
g62
I4
ssg63
g3457
sg56
(lp3464
S'text/html; charset=utf-8'
p3465
asbasbasbag49
(g65
g51
NtRp3466
(dp3467
g54
(dp3468
sg63
g3418
sg56
(lp3469
g49
(g70
g51
NtRp3470
(dp3471
g54
(dp3472
g74
g75
ssg63
g3466
sg56
(lp3473
S'Expires'
p3474
asbag49
(g70
g51
NtRp3475
(dp3476
g54
(dp3477
g81
g82
ssg63
g3466
sg56
(lp3478
S':'
asbag49
(g70
g51
NtRp3479
(dp3480
g54
(dp3481
sg63
g3466
sg56
(lp3482
g49
(g50
g51
NtRp3483
(dp3484
g54
(dp3485
g62
I4
ssg63
g3479
sg56
(lp3486
S'Wed, 14 Mar 2012 21:35:23 GMT'
p3487
asbasbasbag49
(g65
g51
NtRp3488
(dp3489
g54
(dp3490
sg63
g3418
sg56
(lp3491
g49
(g70
g51
NtRp3492
(dp3493
g54
(dp3494
g74
g75
ssg63
g3488
sg56
(lp3495
S'Pragma'
p3496
asbag49
(g70
g51
NtRp3497
(dp3498
g54
(dp3499
g81
g82
ssg63
g3488
sg56
(lp3500
S':'
asbag49
(g70
g51
NtRp3501
(dp3502
g54
(dp3503
sg63
g3488
sg56
(lp3504
g49
(g50
g51
NtRp3505
(dp3506
g54
(dp3507
g62
I4
ssg63
g3501
sg56
(lp3508
S'no-cache'
p3509
asbasbasbag49
(g65
g51
NtRp3510
(dp3511
g54
(dp3512
sg63
g3418
sg56
(lp3513
g49
(g70
g51
NtRp3514
(dp3515
g54
(dp3516
g74
g75
ssg63
g3510
sg56
(lp3517
S'X-Powered-By'
p3518
asbag49
(g70
g51
NtRp3519
(dp3520
g54
(dp3521
g81
g82
ssg63
g3510
sg56
(lp3522
S':'
asbag49
(g70
g51
NtRp3523
(dp3524
g54
(dp3525
sg63
g3510
sg56
(lp3526
g49
(g50
g51
NtRp3527
(dp3528
g54
(dp3529
g62
I4
ssg63
g3523
sg56
(lp3530
S'web2py'
p3531
asbasbasbasbasbasbasbag49
(g65
g51
NtRp3532
(dp3533
g54
(dp3534
sg63
g2906
sg56
(lp3535
g49
(g70
g51
NtRp3536
(dp3537
g54
(dp3538
g74
g75
ssg63
g3532
sg56
(lp3539
S'menu'
p3540
asbag49
(g70
g51
NtRp3541
(dp3542
g54
(dp3543
g81
g82
ssg63
g3532
sg56
(lp3544
S':'
asbag49
(g70
g51
NtRp3545
(dp3546
g54
(dp3547
sg63
g3532
sg56
(lp3548
g49
(g50
g51
NtRp3549
(dp3550
g54
(dp3551
g62
I5
ssg63
g3545
sg56
(lp3552
g49
(g58
g51
NtRp3553
(dp3554
g54
(dp3555
g62
I4
ssg63
Nsg56
(lp3556
g49
(g65
g51
NtRp3557
(dp3558
g54
(dp3559
sg63
g3553
sg56
(lp3560
g49
(g70
g51
NtRp3561
(dp3562
g54
(dp3563
sg63
g3557
sg56
(lp3564
g49
(g50
g51
NtRp3565
(dp3566
g54
(dp3567
g62
I4
ssg63
g3561
sg56
(lp3568
g49
(g58
g51
NtRp3569
(dp3570
g54
(dp3571
g62
I3
ssg63
Nsg56
(lp3572
g49
(g65
g51
NtRp3573
(dp3574
g54
(dp3575
sg63
g3569
sg56
(lp3576
g49
(g70
g51
NtRp3577
(dp3578
g54
(dp3579
sg63
g3573
sg56
(lp3580
g49
(g50
g51
NtRp3581
(dp3582
g54
(dp3583
g62
I3
ssg63
g3577
sg56
(lp3584
cgluon.languages
lazyT_unpickle
p3585
(S't\x04\x00\x00\x00Home'
tRp3586
asbasbasbag49
(g65
g51
NtRp3587
(dp3588
g54
(dp3589
sg63
g3569
sg56
(lp3590
g49
(g70
g51
NtRp3591
(dp3592
g54
(dp3593
sg63
g3587
sg56
(lp3594
g49
(g50
g51
NtRp3595
(dp3596
g54
(dp3597
g62
I3
ssg63
g3591
sg56
(lp3598
g92
asbasbasbag49
(g65
g51
NtRp3599
(dp3600
g54
(dp3601
sg63
g3569
sg56
(lp3602
g49
(g70
g51
NtRp3603
(dp3604
g54
(dp3605
sg63
g3599
sg56
(lp3606
g49
(g50
g51
NtRp3607
(dp3608
g54
(dp3609
g62
I3
ssg63
g3603
sg56
(lp3610
S'/parleyweb/default/index'
p3611
asbasbasbag49
(g65
g51
NtRp3612
(dp3613
g54
(dp3614
sg63
g3569
sg56
(lp3615
g49
(g70
g51
NtRp3616
(dp3617
g54
(dp3618
sg63
g3612
sg56
(lp3619
g49
(g50
g51
NtRp3620
(dp3621
g54
(dp3622
g62
I3
ssg63
g3616
sg56
(lp3623
g49
(g58
g51
NtRp3624
(dp3625
g54
(dp3626
g62
I2
ssg63
Nsg56
(lp3627
sbasbasbasbasbasbasbasbasbasbasbasbag49
(g65
g51
NtRp3628
(dp3629
g54
(dp3630
sg63
g2906
sg56
(lp3631
g49
(g70
g51
NtRp3632
(dp3633
g54
(dp3634
g74
g75
ssg63
g3628
sg56
(lp3635
S'meta'
p3636
asbag49
(g70
g51
NtRp3637
(dp3638
g54
(dp3639
g81
g82
ssg63
g3628
sg56
(lp3640
S':'
asbag49
(g70
g51
NtRp3641
(dp3642
g54
(dp3643
sg63
g3628
sg56
(lp3644
g49
(g50
g51
NtRp3645
(dp3646
g54
(dp3647
g62
I5
ssg63
g3641
sg56
(lp3648
g49
(g58
g51
NtRp3649
(dp3650
g54
(dp3651
g62
I4
ssg63
Nsg56
(lp3652
g49
(g65
g51
NtRp3653
(dp3654
g54
(dp3655
sg63
g3649
sg56
(lp3656
g49
(g70
g51
NtRp3657
(dp3658
g54
(dp3659
g74
g75
ssg63
g3653
sg56
(lp3660
S'author'
p3661
asbag49
(g70
g51
NtRp3662
(dp3663
g54
(dp3664
g81
g82
ssg63
g3653
sg56
(lp3665
S':'
asbag49
(g70
g51
NtRp3666
(dp3667
g54
(dp3668
sg63
g3653
sg56
(lp3669
g49
(g50
g51
NtRp3670
(dp3671
g54
(dp3672
g62
I4
ssg63
g3666
sg56
(lp3673
S'Your Name <you@example.com>'
p3674
asbasbasbag49
(g65
g51
NtRp3675
(dp3676
g54
(dp3677
sg63
g3649
sg56
(lp3678
g49
(g70
g51
NtRp3679
(dp3680
g54
(dp3681
g74
g75
ssg63
g3675
sg56
(lp3682
S'copyright'
p3683
asbag49
(g70
g51
NtRp3684
(dp3685
g54
(dp3686
g81
g82
ssg63
g3675
sg56
(lp3687
S':'
asbag49
(g70
g51
NtRp3688
(dp3689
g54
(dp3690
sg63
g3675
sg56
(lp3691
g49
(g50
g51
NtRp3692
(dp3693
g54
(dp3694
g62
I4
ssg63
g3688
sg56
(lp3695
S'Copyright 2011'
p3696
asbasbasbag49
(g65
g51
NtRp3697
(dp3698
g54
(dp3699
sg63
g3649
sg56
(lp3700
g49
(g70
g51
NtRp3701
(dp3702
g54
(dp3703
g74
g75
ssg63
g3697
sg56
(lp3704
S'description'
p3705
asbag49
(g70
g51
NtRp3706
(dp3707
g54
(dp3708
g81
g82
ssg63
g3697
sg56
(lp3709
S':'
asbag49
(g70
g51
NtRp3710
(dp3711
g54
(dp3712
sg63
g3697
sg56
(lp3713
g49
(g50
g51
NtRp3714
(dp3715
g54
(dp3716
g62
I4
ssg63
g3710
sg56
(lp3717
S'a cool new app'
p3718
asbasbasbag49
(g65
g51
NtRp3719
(dp3720
g54
(dp3721
sg63
g3649
sg56
(lp3722
g49
(g70
g51
NtRp3723
(dp3724
g54
(dp3725
g74
g75
ssg63
g3719
sg56
(lp3726
S'generator'
p3727
asbag49
(g70
g51
NtRp3728
(dp3729
g54
(dp3730
g81
g82
ssg63
g3719
sg56
(lp3731
S':'
asbag49
(g70
g51
NtRp3732
(dp3733
g54
(dp3734
sg63
g3719
sg56
(lp3735
g49
(g50
g51
NtRp3736
(dp3737
g54
(dp3738
g62
I4
ssg63
g3732
sg56
(lp3739
S'Web2py Web Framework'
p3740
asbasbasbag49
(g65
g51
NtRp3741
(dp3742
g54
(dp3743
sg63
g3649
sg56
(lp3744
g49
(g70
g51
NtRp3745
(dp3746
g54
(dp3747
g74
g75
ssg63
g3741
sg56
(lp3748
S'keywords'
p3749
asbag49
(g70
g51
NtRp3750
(dp3751
g54
(dp3752
g81
g82
ssg63
g3741
sg56
(lp3753
S':'
asbag49
(g70
g51
NtRp3754
(dp3755
g54
(dp3756
sg63
g3741
sg56
(lp3757
g49
(g50
g51
NtRp3758
(dp3759
g54
(dp3760
g62
I4
ssg63
g3754
sg56
(lp3761
S'web2py, python, framework'
p3762
asbasbasbasbasbasbasbag49
(g65
g51
NtRp3763
(dp3764
g54
(dp3765
sg63
g2906
sg56
(lp3766
g49
(g70
g51
NtRp3767
(dp3768
g54
(dp3769
g74
g75
ssg63
g3763
sg56
(lp3770
S'postprocessing'
p3771
asbag49
(g70
g51
NtRp3772
(dp3773
g54
(dp3774
g81
g82
ssg63
g3763
sg56
(lp3775
S':'
asbag49
(g70
g51
NtRp3776
(dp3777
g54
(dp3778
sg63
g3763
sg56
(lp3779
g49
(g50
g51
NtRp3780
(dp3781
g54
(dp3782
g62
I5
ssg63
g3776
sg56
(lp3783
g49
(g58
g51
NtRp3784
(dp3785
g54
(dp3786
g62
I4
ssg63
Nsg56
(lp3787
sbasbasbasbag49
(g65
g51
NtRp3788
(dp3789
g54
(dp3790
sg63
g2906
sg56
(lp3791
g49
(g70
g51
NtRp3792
(dp3793
g54
(dp3794
g74
g75
ssg63
g3788
sg56
(lp3795
S'session_file'
p3796
asbag49
(g70
g51
NtRp3797
(dp3798
g54
(dp3799
g81
g82
ssg63
g3788
sg56
(lp3800
S':'
asbag49
(g70
g51
NtRp3801
(dp3802
g54
(dp3803
sg63
g3788
sg56
(lp3804
g49
(g50
g51
NtRp3805
(dp3806
g54
(dp3807
g62
I5
ssg63
g3801
sg56
(lp3808
S"<open file 'D:\\Dise\xf1o Web\\Proyectos\\Parleyweb\\web2py\\applications\\parleyweb\\sessions\\127.0.0.1-952a0b04-8409-4285-9f42-eb3b31ae2e5f', mode 'rb+' at 0x071CEDA0>"
p3809
asbasbasbag49
(g65
g51
NtRp3810
(dp3811
g54
(dp3812
sg63
g2906
sg56
(lp3813
g49
(g70
g51
NtRp3814
(dp3815
g54
(dp3816
g74
g75
ssg63
g3810
sg56
(lp3817
S'session_filename'
p3818
asbag49
(g70
g51
NtRp3819
(dp3820
g54
(dp3821
g81
g82
ssg63
g3810
sg56
(lp3822
S':'
asbag49
(g70
g51
NtRp3823
(dp3824
g54
(dp3825
sg63
g3810
sg56
(lp3826
g49
(g50
g51
NtRp3827
(dp3828
g54
(dp3829
g62
I5
ssg63
g3823
sg56
(lp3830
S'D:\\Dise\xf1o Web\\Proyectos\\Parleyweb\\web2py\\applications\\parleyweb\\sessions\\127.0.0.1-952a0b04-8409-4285-9f42-eb3b31ae2e5f'
p3831
asbasbasbag49
(g65
g51
NtRp3832
(dp3833
g54
(dp3834
sg63
g2906
sg56
(lp3835
g49
(g70
g51
NtRp3836
(dp3837
g54
(dp3838
g74
g75
ssg63
g3832
sg56
(lp3839
S'session_id'
p3840
asbag49
(g70
g51
NtRp3841
(dp3842
g54
(dp3843
g81
g82
ssg63
g3832
sg56
(lp3844
S':'
asbag49
(g70
g51
NtRp3845
(dp3846
g54
(dp3847
sg63
g3832
sg56
(lp3848
g49
(g50
g51
NtRp3849
(dp3850
g54
(dp3851
g62
I5
ssg63
g3845
sg56
(lp3852
S'127.0.0.1-952a0b04-8409-4285-9f42-eb3b31ae2e5f'
p3853
asbasbasbag49
(g65
g51
NtRp3854
(dp3855
g54
(dp3856
sg63
g2906
sg56
(lp3857
g49
(g70
g51
NtRp3858
(dp3859
g54
(dp3860
g74
g75
ssg63
g3854
sg56
(lp3861
S'session_id_name'
p3862
asbag49
(g70
g51
NtRp3863
(dp3864
g54
(dp3865
g81
g82
ssg63
g3854
sg56
(lp3866
S':'
asbag49
(g70
g51
NtRp3867
(dp3868
g54
(dp3869
sg63
g3854
sg56
(lp3870
g49
(g50
g51
NtRp3871
(dp3872
g54
(dp3873
g62
I5
ssg63
g3867
sg56
(lp3874
g2963
asbasbasbag49
(g65
g51
NtRp3875
(dp3876
g54
(dp3877
sg63
g2906
sg56
(lp3878
g49
(g70
g51
NtRp3879
(dp3880
g54
(dp3881
g74
g75
ssg63
g3875
sg56
(lp3882
S'session_locked'
p3883
asbag49
(g70
g51
NtRp3884
(dp3885
g54
(dp3886
g81
g82
ssg63
g3875
sg56
(lp3887
S':'
asbag49
(g70
g51
NtRp3888
(dp3889
g54
(dp3890
sg63
g3875
sg56
(lp3891
g49
(g50
g51
NtRp3892
(dp3893
g54
(dp3894
g62
I5
ssg63
g3888
sg56
(lp3895
g1463
asbasbasbag49
(g65
g51
NtRp3896
(dp3897
g54
(dp3898
sg63
g2906
sg56
(lp3899
g49
(g70
g51
NtRp3900
(dp3901
g54
(dp3902
g74
g75
ssg63
g3896
sg56
(lp3903
S'session_new'
p3904
asbag49
(g70
g51
NtRp3905
(dp3906
g54
(dp3907
g81
g82
ssg63
g3896
sg56
(lp3908
S':'
asbag49
(g70
g51
NtRp3909
(dp3910
g54
(dp3911
sg63
g3896
sg56
(lp3912
g49
(g50
g51
NtRp3913
(dp3914
g54
(dp3915
g62
I5
ssg63
g3909
sg56
(lp3916
g92
asbasbasbag49
(g65
g51
NtRp3917
(dp3918
g54
(dp3919
sg63
g2906
sg56
(lp3920
g49
(g70
g51
NtRp3921
(dp3922
g54
(dp3923
g74
g75
ssg63
g3917
sg56
(lp3924
S'status'
p3925
asbag49
(g70
g51
NtRp3926
(dp3927
g54
(dp3928
g81
g82
ssg63
g3917
sg56
(lp3929
S':'
asbag49
(g70
g51
NtRp3930
(dp3931
g54
(dp3932
sg63
g3917
sg56
(lp3933
g49
(g50
g51
NtRp3934
(dp3935
g54
(dp3936
g62
I5
ssg63
g3930
sg56
(lp3937
S'200'
p3938
asbasbasbag49
(g65
g51
NtRp3939
(dp3940
g54
(dp3941
sg63
g2906
sg56
(lp3942
g49
(g70
g51
NtRp3943
(dp3944
g54
(dp3945
g74
g75
ssg63
g3939
sg56
(lp3946
S'subtitle'
p3947
asbag49
(g70
g51
NtRp3948
(dp3949
g54
(dp3950
g81
g82
ssg63
g3939
sg56
(lp3951
S':'
asbag49
(g70
g51
NtRp3952
(dp3953
g54
(dp3954
sg63
g3939
sg56
(lp3955
g49
(g50
g51
NtRp3956
(dp3957
g54
(dp3958
g62
I5
ssg63
g3952
sg56
(lp3959
g3585
(S's\t\x00\x00\x00Adaptame!'
tRp3960
asbasbasbag49
(g65
g51
NtRp3961
(dp3962
g54
(dp3963
sg63
g2906
sg56
(lp3964
g49
(g70
g51
NtRp3965
(dp3966
g54
(dp3967
g74
g75
ssg63
g3961
sg56
(lp3968
S'title'
p3969
asbag49
(g70
g51
NtRp3970
(dp3971
g54
(dp3972
g81
g82
ssg63
g3961
sg56
(lp3973
S':'
asbag49
(g70
g51
NtRp3974
(dp3975
g54
(dp3976
sg63
g3961
sg56
(lp3977
g49
(g50
g51
NtRp3978
(dp3979
g54
(dp3980
g62
I5
ssg63
g3974
sg56
(lp3981
S'Parleyweb'
p3982
asbasbasbag49
(g65
g51
NtRp3983
(dp3984
g54
(dp3985
sg63
g2906
sg56
(lp3986
g49
(g70
g51
NtRp3987
(dp3988
g54
(dp3989
g74
g75
ssg63
g3983
sg56
(lp3990
g2149
asbag49
(g70
g51
NtRp3991
(dp3992
g54
(dp3993
g81
g82
ssg63
g3983
sg56
(lp3994
S':'
asbag49
(g70
g51
NtRp3995
(dp3996
g54
(dp3997
sg63
g3983
sg56
(lp3998
g49
(g50
g51
NtRp3999
(dp4000
g54
(dp4001
g62
I5
ssg63
g3995
sg56
(lp4002
g2162
asbasbasbag49
(g65
g51
NtRp4003
(dp4004
g54
(dp4005
sg63
g2906
sg56
(lp4006
g49
(g70
g51
NtRp4007
(dp4008
g54
(dp4009
g74
g75
ssg63
g4003
sg56
(lp4010
S'view'
p4011
asbag49
(g70
g51
NtRp4012
(dp4013
g54
(dp4014
g81
g82
ssg63
g4003
sg56
(lp4015
S':'
asbag49
(g70
g51
NtRp4016
(dp4017
g54
(dp4018
sg63
g4003
sg56
(lp4019
g49
(g50
g51
NtRp4020
(dp4021
g54
(dp4022
g62
I5
ssg63
g4016
sg56
(lp4023
S'admin/buscar_ejemplos2.html'
p4024
asbasbasbasbasbsS'locals'
p4025
(dp4026
S'Service'
p4027
S"<class 'gluon.tools.Service'>"
p4028
sS'OBJECT'
p4029
S"<class 'gluon.html.OBJECT'>"
p4030
sS'SQLDB'
p4031
S"<class 'gluon.dal.DAL'>"
p4032
sg2888
S"<Storage {'_formkey[busqueda/create]': 'cd95e535...reate]': '4fd02e11-8ce1-433e-a86b-9a0c6833f281'}>"
p4033
sS'LINK'
p4034
S"<class 'gluon.html.LINK'>"
p4035
sS'BR'
p4036
S"<class 'gluon.html.BR'>"
p4037
sS'local_import'
p4038
S'<function <lambda> at 0x071DD270>'
p4039
sS'OPTGROUP'
p4040
S"<class 'gluon.html.OPTGROUP'>"
p4041
sS'PRE'
p4042
S"<class 'gluon.html.PRE'>"
p4043
sS'IS_INT_IN_RANGE'
p4044
S"<class 'gluon.validators.IS_INT_IN_RANGE'>"
p4045
sS'left_sidebar_enabled'
p4046
g92
sS'IS_LOWER'
p4047
S"<class 'gluon.validators.IS_LOWER'>"
p4048
sS'IS_STRONG'
p4049
S"<class 'gluon.validators.IS_STRONG'>"
p4050
sS'cache'
p4051
S'<gluon.cache.Cache object at 0x075AACB0>'
p4052
sS'IS_IN_DB'
p4053
S"<class 'gluon.validators.IS_IN_DB'>"
p4054
sS'TAG'
p4055
S'<gluon.html.__TAG__ object at 0x02861D50>'
p4056
sS'buscar'
p4057
S'<gluon.dal.Rows object at 0x0728F310>'
p4058
sS'SQLField'
p4059
S"<class 'gluon.dal.Field'>"
p4060
sS'mail'
p4061
S'<gluon.tools.Mail object at 0x075791D0>'
p4062
sS'BODY'
p4063
S"<class 'gluon.html.BODY'>"
p4064
sS'IS_DATE_IN_RANGE'
p4065
S"<class 'gluon.validators.IS_DATE_IN_RANGE'>"
p4066
sS'TH'
p4067
S"<class 'gluon.html.TH'>"
p4068
sS'URL'
p4069
S'<function URL at 0x028C6EB0>'
p4070
sS'__file__'
p4071
S"'D:\\\\Dise\\xf1o Web\\\\Proyectos\\\\Parleyweb\\\\web2py\\\\applications\\\\parleyweb\\\\views\\\\admin/buscar_ejemplos2.html'"
p4072
sS'db'
p4073
S"<DAL {'auth_event': <Table {'origin': <gluon.dal..._key': <gluon.dal.Field object at 0x075AA710>}>}>"
p4074
sS'auth'
p4075
S'<gluon.tools.Auth object at 0x07579610>'
p4076
sS'P'
S"<class 'gluon.html.P'>"
p4077
sS'TFOOT'
p4078
S"<class 'gluon.html.TFOOT'>"
p4079
sS'XHTML'
p4080
S"<class 'gluon.html.XHTML'>"
p4081
sS'ON'
p4082
g1463
sS'OL'
p4083
S"<class 'gluon.html.OL'>"
p4084
sS'TEXTAREA'
p4085
S"<class 'gluon.html.TEXTAREA'>"
p4086
sS'MENU'
p4087
S"<class 'gluon.html.MENU'>"
p4088
sS'LOAD'
p4089
S'<function LOAD at 0x02BB17B0>'
p4090
sS'CODE'
p4091
S"<class 'gluon.html.CODE'>"
p4092
sS'HTTP'
p4093
S"<class 'gluon.http.HTTP'>"
p4094
sS'HR'
p4095
S"<class 'gluon.html.HR'>"
p4096
sS'IS_DATETIME'
p4097
S"<class 'gluon.validators.IS_DATETIME'>"
p4098
sS'HEAD'
p4099
S"<class 'gluon.html.HEAD'>"
p4100
sS'LABEL'
p4101
S"<class 'gluon.html.LABEL'>"
p4102
sS'CLEANUP'
p4103
S"<class 'gluon.validators.CLEANUP'>"
p4104
sS'plugins'
p4105
S'<gluon.tools.PluginManager object at 0x069AF430>'
p4106
sS'SELECT'
p4107
S"<class 'gluon.html.SELECT'>"
p4108
sS'use_janrain'
p4109
S'<function use_janrain at 0x033758F0>'
p4110
sS'CENTER'
p4111
S"<class 'gluon.html.CENTER'>"
p4112
sS'prettydate'
p4113
S'<function prettydate at 0x03372EF0>'
p4114
sS'Crud'
p4115
S"<class 'gluon.tools.Crud'>"
p4116
sS'Auth'
p4117
S"<class 'gluon.tools.Auth'>"
p4118
sS'__builtins__'
p4119
S"{'ArithmeticError': <type 'exceptions.ArithmeticError'>, 'AssertionError': <type 'exceptions.AssertionError'>, 'AttributeError': <type 'exceptions.AttributeError'>, 'BaseException': <type 'exceptions.BaseException'>, 'DeprecationWarning': <type 'exceptions.DeprecationWarning'>, 'EOFError': <type 'exceptions.EOFError'>, 'Ellipsis': Ellipsis, 'EnvironmentError': <type 'exceptions.EnvironmentError'>, 'Exception': <type 'exceptions.Exception'>, 'False': False, ...}"
p4120
sS'HTML'
p4121
S"<class 'gluon.html.HTML'>"
p4122
sS'SQLFORM'
p4123
S"<class 'gluon.sqlhtml.SQLFORM'>"
p4124
sS'EM'
p4125
S"<class 'gluon.html.EM'>"
p4126
sS'redirect'
p4127
S'<function redirect at 0x02527B70>'
p4128
sS'FIELDSET'
p4129
S"<class 'gluon.html.FIELDSET'>"
p4130
sS'IS_EQUAL_TO'
p4131
S"<class 'gluon.validators.IS_EQUAL_TO'>"
p4132
sS'embed64'
p4133
S'<function embed64 at 0x028D59F0>'
p4134
sS'IS_LIST_OF'
p4135
S"<class 'gluon.validators.IS_LIST_OF'>"
p4136
sS'__name__'
p4137
S"'__restricted__'"
p4138
sS'EMBED'
p4139
S"<class 'gluon.html.EMBED'>"
p4140
sS'_'
S'<function _ at 0x071DD430>'
p4141
sS'FORM'
p4142
S"<class 'gluon.html.FORM'>"
p4143
sS'H2'
p4144
S"<class 'gluon.html.H2'>"
p4145
sS'H3'
p4146
S"<class 'gluon.html.H3'>"
p4147
sS'BUTTON'
p4148
S"<class 'gluon.html.BUTTON'>"
p4149
sS'H1'
p4150
S"<class 'gluon.html.H1'>"
p4151
sS'H6'
p4152
S"<class 'gluon.html.H6'>"
p4153
sS'H4'
p4154
S"<class 'gluon.html.H4'>"
p4155
sS'H5'
p4156
S"<class 'gluon.html.H5'>"
p4157
sS'UL'
p4158
S"<class 'gluon.html.UL'>"
p4159
sS'IS_UPPER'
p4160
S"<class 'gluon.validators.IS_UPPER'>"
p4161
sS'xmlescape'
p4162
S'<function xmlescape at 0x028C6E30>'
p4163
sS'IS_TIME'
p4164
S"<class 'gluon.validators.IS_TIME'>"
p4165
sS'OPTION'
p4166
S"<class 'gluon.html.OPTION'>"
p4167
sS'TITLE'
p4168
S"<class 'gluon.html.TITLE'>"
p4169
sS'CRYPT'
p4170
S"<class 'gluon.validators.CRYPT'>"
p4171
sS'IS_EMPTY_OR'
p4172
S"<class 'gluon.validators.IS_EMPTY_OR'>"
p4173
sS'MARKMIN'
p4174
S"<class 'gluon.html.MARKMIN'>"
p4175
sS'INPUT'
p4176
S"<class 'gluon.html.INPUT'>"
p4177
sS'COL'
p4178
S"<class 'gluon.html.COL'>"
p4179
sS'service'
p4180
S'<gluon.tools.Service object at 0x0757C830>'
p4181
sS'SCRIPT'
p4182
S"<class 'gluon.html.SCRIPT'>"
p4183
sS'TABLE'
p4184
S"<class 'gluon.html.TABLE'>"
p4185
sS'IS_IPV4'
p4186
S"<class 'gluon.validators.IS_IPV4'>"
p4187
sS'IS_LENGTH'
p4188
S"<class 'gluon.validators.IS_LENGTH'>"
p4189
sS'XML'
p4190
S"<class 'gluon.html.XML'>"
p4191
sS'B'
S"<class 'gluon.html.B'>"
p4192
sS'IMG'
p4193
S"<class 'gluon.html.IMG'>"
p4194
sS'SQLTABLE'
p4195
S"<class 'gluon.sqlhtml.SQLTABLE'>"
p4196
sS'IS_MATCH'
p4197
S"<class 'gluon.validators.IS_MATCH'>"
p4198
sS'IS_ALPHANUMERIC'
p4199
S"<class 'gluon.validators.IS_ALPHANUMERIC'>"
p4200
sS'SPAN'
p4201
S"<class 'gluon.html.SPAN'>"
p4202
sS'IS_SLUG'
p4203
S"<class 'gluon.validators.IS_SLUG'>"
p4204
sS'BEAUTIFY'
p4205
S"<class 'gluon.html.BEAUTIFY'>"
p4206
sS'META'
p4207
S"<class 'gluon.html.META'>"
p4208
sS'IS_DATE'
p4209
S"<class 'gluon.validators.IS_DATE'>"
p4210
sS'IS_EMAIL'
p4211
S"<class 'gluon.validators.IS_EMAIL'>"
p4212
sS'IS_NOT_EMPTY'
p4213
S"<class 'gluon.validators.IS_NOT_EMPTY'>"
p4214
sS'IS_FLOAT_IN_RANGE'
p4215
S"<class 'gluon.validators.IS_FLOAT_IN_RANGE'>"
p4216
sS'TBODY'
p4217
S"<class 'gluon.html.TBODY'>"
p4218
sS'CAT'
p4219
S"<class 'gluon.html.CAT'>"
p4220
sS'Field'
p4221
S"<class 'gluon.dal.Field'>"
p4222
sS'middle_columns'
p4223
S"'sixteen'"
p4224
sS'DIV'
p4225
S"<class 'gluon.html.DIV'>"
p4226
sS'LEGEND'
p4227
S"<class 'gluon.html.LEGEND'>"
p4228
sS'COLGROUP'
p4229
S"<class 'gluon.html.COLGROUP'>"
p4230
sS'DAL'
p4231
S"<class 'gluon.dal.DAL'>"
p4232
sS'TT'
p4233
S"<class 'gluon.html.TT'>"
p4234
sS'TR'
p4235
S"<class 'gluon.html.TR'>"
p4236
sS'LI'
p4237
S"<class 'gluon.html.LI'>"
p4238
sS'right_sidebar_enabled'
p4239
g92
sS'IFRAME'
p4240
S"<class 'gluon.html.IFRAME'>"
p4241
sS'TD'
p4242
S"<class 'gluon.html.TD'>"
p4243
sS'PluginManager'
p4244
S"<class 'gluon.tools.PluginManager'>"
p4245
sS'IS_URL'
p4246
S"<class 'gluon.validators.IS_URL'>"
p4247
sS'A'
S"<class 'gluon.html.A'>"
p4248
sS'STYLE'
p4249
S"<class 'gluon.html.STYLE'>"
p4250
sS'IS_DATETIME_IN_RANGE'
p4251
S"<class 'gluon.validators.IS_DATETIME_IN_RANGE'>"
p4252
sS'IS_IMAGE'
p4253
S"<class 'gluon.validators.IS_IMAGE'>"
p4254
sS'I'
S"<class 'gluon.html.I'>"
p4255
sS'crud'
p4256
S'<gluon.tools.Crud object at 0x0757CFB0>'
p4257
sS'IS_NOT_IN_DB'
p4258
S"<class 'gluon.validators.IS_NOT_IN_DB'>"
p4259
sg2901
S"<Storage {'body': <cStringIO.StringO object at 0...71DDE30>, 'view': 'admin/buscar_ejemplos2.html'}>"
p4260
sS'THEAD'
p4261
S"<class 'gluon.html.THEAD'>"
p4262
sS'IS_NULL_OR'
p4263
S"<class 'gluon.validators.IS_EMPTY_OR'>"
p4264
sg48
S"<Storage {'body': <cStringIO.StringO object at 0..._vars': <Storage {}>, 'post_vars': <Storage {}>}>"
p4265
sS'IS_EXPR'
p4266
S"<class 'gluon.validators.IS_EXPR'>"
p4267
sS'T'
S'<gluon.languages.translator object at 0x075AAF50>'
p4268
sS'IS_IN_SET'
p4269
S"<class 'gluon.validators.IS_IN_SET'>"
p4270
sS'IS_UPLOAD_FILENAME'
p4271
S"<class 'gluon.validators.IS_UPLOAD_FILENAME'>"
p4272
sS'IS_DECIMAL_IN_RANGE'
p4273
S"<class 'gluon.validators.IS_DECIMAL_IN_RANGE'>"
p4274
sssS'traceback'
p4275
S'Traceback (most recent call last):\n  File "gluon/restricted.py", line 205, in restricted\n  File "D:\\Dise\xf1o Web\\Proyectos\\Parleyweb\\web2py\\applications\\parleyweb\\views\\admin/buscar_ejemplos2.html", line 83, in <module>\nAttributeError: \'Rows\' object has no attribute \'ejemplos\'\n'
p4276
s.