(dp1
S'output'
p2
S"<type 'exceptions.NameError'> global name 'startswith_prueba' is not defined"
p3
sS'layer'
p4
S'D:\\Dise\xf1o Web\\Proyectos\\Parleyweb\\web2py\\applications\\parleyweb\\controllers/default.py'
p5
sS'code'
p6
S'# -*- coding: utf-8 -*-\n# this file is released under public domain and you can use without limitations\n\n#########################################################################\n## This is a samples controller\n## - index is the default action of any application\n## - user is required for authentication and authorization\n## - download is for downloading files uploaded in the db (does streaming)\n## - call exposes all registered services (none by default)\n#########################################################################\n\ndef index():\n    """\n    example action using the internationalization operator T and flash\n    rendered by views/default/index.html or views/generic.html\n    """\n    contains_prueba = db(db.ejemplos.ejemplo_de.upper().contains(\'zeug\')).select()\n    #startswith_prueba = db(db.ejemplos.ejemplo_de.startswith(\'l\')).select()\n    return dict(contains_prueba = contains_prueba, startswith_prueba = startswith_prueba  )\n\n\n    \n    \n\ndef user():\n    """\n    exposes:\n    http://..../[app]/default/user/login\n    http://..../[app]/default/user/logout\n    http://..../[app]/default/user/register\n    http://..../[app]/default/user/profile\n    http://..../[app]/default/user/retrieve_password\n    http://..../[app]/default/user/change_password\n    use @auth.requires_login()\n        @auth.requires_membership(\'group name\')\n        @auth.requires_permission(\'read\',\'table name\',record_id)\n    to decorate functions that need access control\n    """\n    return dict(form=auth())\n\n\ndef download():\n    """\n    allows downloading of uploaded files\n    http://..../[app]/default/download/[filename]\n    """\n    return response.download(request,db)\n\n\ndef call():\n    """\n    exposes services. for example:\n    http://..../[app]/default/call/jsonrpc\n    decorate with @services.jsonrpc the functions to expose\n    supports xml, json, xmlrpc, jsonrpc, amfrpc, rss, csv\n    """\n    return service()\n\n\n@auth.requires_signature()\ndef data():\n    """\n    http://..../[app]/default/data/tables\n    http://..../[app]/default/data/create/[table]\n    http://..../[app]/default/data/read/[table]/[id]\n    http://..../[app]/default/data/update/[table]/[id]\n    http://..../[app]/default/data/delete/[table]/[id]\n    http://..../[app]/default/data/select/[table]\n    http://..../[app]/default/data/search/[table]\n    but URLs must be signed, i.e. linked with\n      A(\'table\',_href=URL(\'data/tables\',user_signature=True))\n    or with the signed load operator\n      LOAD(\'default\',\'data.load\',args=\'tables\',ajax=True,user_signature=True)\n    """\n    return dict(form=crud())\n\ndef mostrar():\n    palabras = db((db.palabras.id==request.args(0))).select().first()\n    igualar = db((db.palabras.id==db.palabra_ejemplo.palabra)&(db.ejemplos.id==db.palabra_ejemplo.ejemplo))\n    ejemplos = igualar(db.palabras.id==request.args(0))\n   # prueba = ejemplos(db.ejemplos.tipo==\'sustantivo\').select(db.ejemplos.ALL)\n    \n    return dict(palabras=palabras, ejemplos=ejemplos)\n\n\n\n\n\n\n\n\n\n\n\n\n\n\n\n\n\n\n\n\n\n\n\n\n\n\n\n\n\n\n\n\nresponse._vars=response._caller(index)\n'
p7
sS'snapshot'
p8
(dp9
S'exception'
p10
(dp11
S'__hash__'
p12
S"<method-wrapper '__hash__' of exceptions.NameError object at 0x07951788>"
p13
sS'__setattr__'
p14
S"<method-wrapper '__setattr__' of exceptions.NameError object at 0x07951788>"
p15
sS'__reduce_ex__'
p16
S'<built-in method __reduce_ex__ of exceptions.NameError object at 0x07951788>'
p17
sS'__getslice__'
p18
S"<method-wrapper '__getslice__' of exceptions.NameError object at 0x07951788>"
p19
sS'__getitem__'
p20
S"<method-wrapper '__getitem__' of exceptions.NameError object at 0x07951788>"
p21
sS'__setstate__'
p22
S'<built-in method __setstate__ of exceptions.NameError object at 0x07951788>'
p23
sS'__reduce__'
p24
S'<built-in method __reduce__ of exceptions.NameError object at 0x07951788>'
p25
sS'__str__'
p26
S"<method-wrapper '__str__' of exceptions.NameError object at 0x07951788>"
p27
sS'args'
p28
S'("global name \'startswith_prueba\' is not defined",)'
p29
sS'__getattribute__'
p30
S"<method-wrapper '__getattribute__' of exceptions.NameError object at 0x07951788>"
p31
sS'__class__'
p32
S"<type 'exceptions.NameError'>"
p33
sS'__delattr__'
p34
S"<method-wrapper '__delattr__' of exceptions.NameError object at 0x07951788>"
p35
sS'__repr__'
p36
S"<method-wrapper '__repr__' of exceptions.NameError object at 0x07951788>"
p37
sS'__dict__'
p38
S'{}'
p39
sS'__doc__'
p40
S"'Name not found globally.'"
p41
sS'__init__'
p42
S"<method-wrapper '__init__' of exceptions.NameError object at 0x07951788>"
p43
sS'__new__'
p44
S'<built-in method __new__ of type object at 0x1E1CD8D8>'
p45
ssS'evalue'
p46
S"global name 'startswith_prueba' is not defined"
p47
sS'request'
p48
ccopy_reg
_reconstructor
p49
(cgluon.html
BEAUTIFY
p50
c__builtin__
object
p51
NtRp52
(dp53
S'attributes'
p54
(dp55
sS'components'
p56
(lp57
g49
(cgluon.html
TABLE
p58
g51
NtRp59
(dp60
g54
(dp61
S'level'
p62
I5
ssS'parent'
p63
Nsg56
(lp64
g49
(cgluon.html
TR
p65
g51
NtRp66
(dp67
g54
(dp68
sg63
g59
sg56
(lp69
g49
(cgluon.html
TD
p70
g51
NtRp71
(dp72
g54
(dp73
S'_style'
p74
S'font-weight:bold;vertical-align:top'
p75
ssg63
g66
sg56
(lp76
S'ajax'
p77
asbag49
(g70
g51
NtRp78
(dp79
g54
(dp80
S'_valign'
p81
S'top'
p82
ssg63
g66
sg56
(lp83
S':'
asbag49
(g70
g51
NtRp84
(dp85
g54
(dp86
sg63
g66
sg56
(lp87
g49
(g50
g51
NtRp88
(dp89
g54
(dp90
g62
I5
ssg63
g84
sg56
(lp91
S'False'
p92
asbasbasbag49
(g65
g51
NtRp93
(dp94
g54
(dp95
sg63
g59
sg56
(lp96
g49
(g70
g51
NtRp97
(dp98
g54
(dp99
g74
g75
ssg63
g93
sg56
(lp100
S'application'
p101
asbag49
(g70
g51
NtRp102
(dp103
g54
(dp104
g81
g82
ssg63
g93
sg56
(lp105
S':'
asbag49
(g70
g51
NtRp106
(dp107
g54
(dp108
sg63
g93
sg56
(lp109
g49
(g50
g51
NtRp110
(dp111
g54
(dp112
g62
I5
ssg63
g106
sg56
(lp113
S'parleyweb'
p114
asbasbasbag49
(g65
g51
NtRp115
(dp116
g54
(dp117
sg63
g59
sg56
(lp118
g49
(g70
g51
NtRp119
(dp120
g54
(dp121
g74
g75
ssg63
g115
sg56
(lp122
g28
asbag49
(g70
g51
NtRp123
(dp124
g54
(dp125
g81
g82
ssg63
g115
sg56
(lp126
S':'
asbag49
(g70
g51
NtRp127
(dp128
g54
(dp129
sg63
g115
sg56
(lp130
g49
(g50
g51
NtRp131
(dp132
g54
(dp133
g62
I5
ssg63
g127
sg56
(lp134
g49
(g58
g51
NtRp135
(dp136
g54
(dp137
g62
I4
ssg63
Nsg56
(lp138
sbasbasbasbag49
(g65
g51
NtRp139
(dp140
g54
(dp141
sg63
g59
sg56
(lp142
g49
(g70
g51
NtRp143
(dp144
g54
(dp145
g74
g75
ssg63
g139
sg56
(lp146
S'body'
p147
asbag49
(g70
g51
NtRp148
(dp149
g54
(dp150
g81
g82
ssg63
g139
sg56
(lp151
S':'
asbag49
(g70
g51
NtRp152
(dp153
g54
(dp154
sg63
g139
sg56
(lp155
g49
(g50
g51
NtRp156
(dp157
g54
(dp158
g62
I5
ssg63
g152
sg56
(lp159
S'<cStringIO.StringO object at 0x06BA27E0>'
p160
asbasbasbag49
(g65
g51
NtRp161
(dp162
g54
(dp163
sg63
g59
sg56
(lp164
g49
(g70
g51
NtRp165
(dp166
g54
(dp167
g74
g75
ssg63
g161
sg56
(lp168
S'client'
p169
asbag49
(g70
g51
NtRp170
(dp171
g54
(dp172
g81
g82
ssg63
g161
sg56
(lp173
S':'
asbag49
(g70
g51
NtRp174
(dp175
g54
(dp176
sg63
g161
sg56
(lp177
g49
(g50
g51
NtRp178
(dp179
g54
(dp180
g62
I5
ssg63
g174
sg56
(lp181
S'127.0.0.1'
p182
asbasbasbag49
(g65
g51
NtRp183
(dp184
g54
(dp185
sg63
g59
sg56
(lp186
g49
(g70
g51
NtRp187
(dp188
g54
(dp189
g74
g75
ssg63
g183
sg56
(lp190
S'controller'
p191
asbag49
(g70
g51
NtRp192
(dp193
g54
(dp194
g81
g82
ssg63
g183
sg56
(lp195
S':'
asbag49
(g70
g51
NtRp196
(dp197
g54
(dp198
sg63
g183
sg56
(lp199
g49
(g50
g51
NtRp200
(dp201
g54
(dp202
g62
I5
ssg63
g196
sg56
(lp203
S'default'
p204
asbasbasbag49
(g65
g51
NtRp205
(dp206
g54
(dp207
sg63
g59
sg56
(lp208
g49
(g70
g51
NtRp209
(dp210
g54
(dp211
g74
g75
ssg63
g205
sg56
(lp212
S'cookies'
p213
asbag49
(g70
g51
NtRp214
(dp215
g54
(dp216
g81
g82
ssg63
g205
sg56
(lp217
S':'
asbag49
(g70
g51
NtRp218
(dp219
g54
(dp220
sg63
g205
sg56
(lp221
g49
(g50
g51
NtRp222
(dp223
g54
(dp224
g62
I5
ssg63
g218
sg56
(lp225
g49
(g58
g51
NtRp226
(dp227
g54
(dp228
g62
I4
ssg63
Nsg56
(lp229
g49
(g65
g51
NtRp230
(dp231
g54
(dp232
sg63
g226
sg56
(lp233
g49
(g70
g51
NtRp234
(dp235
g54
(dp236
g74
g75
ssg63
g230
sg56
(lp237
S'session_id_admin'
p238
asbag49
(g70
g51
NtRp239
(dp240
g54
(dp241
g81
g82
ssg63
g230
sg56
(lp242
S':'
asbag49
(g70
g51
NtRp243
(dp244
g54
(dp245
sg63
g230
sg56
(lp246
g49
(g50
g51
NtRp247
(dp248
g54
(dp249
g62
I4
ssg63
g243
sg56
(lp250
g49
(g58
g51
NtRp251
(dp252
g54
(dp253
g62
I3
ssg63
Nsg56
(lp254
g49
(g65
g51
NtRp255
(dp256
g54
(dp257
sg63
g251
sg56
(lp258
g49
(g70
g51
NtRp259
(dp260
g54
(dp261
g74
g75
ssg63
g255
sg56
(lp262
S'comment'
p263
asbag49
(g70
g51
NtRp264
(dp265
g54
(dp266
g81
g82
ssg63
g255
sg56
(lp267
S':'
asbag49
(g70
g51
NtRp268
(dp269
g54
(dp270
sg63
g255
sg56
(lp271
g49
(g50
g51
NtRp272
(dp273
g54
(dp274
g62
I3
ssg63
g268
sg56
(lp275
S''
asbasbasbag49
(g65
g51
NtRp276
(dp277
g54
(dp278
sg63
g251
sg56
(lp279
g49
(g70
g51
NtRp280
(dp281
g54
(dp282
g74
g75
ssg63
g276
sg56
(lp283
S'domain'
p284
asbag49
(g70
g51
NtRp285
(dp286
g54
(dp287
g81
g82
ssg63
g276
sg56
(lp288
S':'
asbag49
(g70
g51
NtRp289
(dp290
g54
(dp291
sg63
g276
sg56
(lp292
g49
(g50
g51
NtRp293
(dp294
g54
(dp295
g62
I3
ssg63
g289
sg56
(lp296
S''
asbasbasbag49
(g65
g51
NtRp297
(dp298
g54
(dp299
sg63
g251
sg56
(lp300
g49
(g70
g51
NtRp301
(dp302
g54
(dp303
g74
g75
ssg63
g297
sg56
(lp304
S'expires'
p305
asbag49
(g70
g51
NtRp306
(dp307
g54
(dp308
g81
g82
ssg63
g297
sg56
(lp309
S':'
asbag49
(g70
g51
NtRp310
(dp311
g54
(dp312
sg63
g297
sg56
(lp313
g49
(g50
g51
NtRp314
(dp315
g54
(dp316
g62
I3
ssg63
g310
sg56
(lp317
S''
asbasbasbag49
(g65
g51
NtRp318
(dp319
g54
(dp320
sg63
g251
sg56
(lp321
g49
(g70
g51
NtRp322
(dp323
g54
(dp324
g74
g75
ssg63
g318
sg56
(lp325
S'max-age'
p326
asbag49
(g70
g51
NtRp327
(dp328
g54
(dp329
g81
g82
ssg63
g318
sg56
(lp330
S':'
asbag49
(g70
g51
NtRp331
(dp332
g54
(dp333
sg63
g318
sg56
(lp334
g49
(g50
g51
NtRp335
(dp336
g54
(dp337
g62
I3
ssg63
g331
sg56
(lp338
S''
asbasbasbag49
(g65
g51
NtRp339
(dp340
g54
(dp341
sg63
g251
sg56
(lp342
g49
(g70
g51
NtRp343
(dp344
g54
(dp345
g74
g75
ssg63
g339
sg56
(lp346
S'path'
p347
asbag49
(g70
g51
NtRp348
(dp349
g54
(dp350
g81
g82
ssg63
g339
sg56
(lp351
S':'
asbag49
(g70
g51
NtRp352
(dp353
g54
(dp354
sg63
g339
sg56
(lp355
g49
(g50
g51
NtRp356
(dp357
g54
(dp358
g62
I3
ssg63
g352
sg56
(lp359
S''
asbasbasbag49
(g65
g51
NtRp360
(dp361
g54
(dp362
sg63
g251
sg56
(lp363
g49
(g70
g51
NtRp364
(dp365
g54
(dp366
g74
g75
ssg63
g360
sg56
(lp367
S'secure'
p368
asbag49
(g70
g51
NtRp369
(dp370
g54
(dp371
g81
g82
ssg63
g360
sg56
(lp372
S':'
asbag49
(g70
g51
NtRp373
(dp374
g54
(dp375
sg63
g360
sg56
(lp376
g49
(g50
g51
NtRp377
(dp378
g54
(dp379
g62
I3
ssg63
g373
sg56
(lp380
S''
asbasbasbag49
(g65
g51
NtRp381
(dp382
g54
(dp383
sg63
g251
sg56
(lp384
g49
(g70
g51
NtRp385
(dp386
g54
(dp387
g74
g75
ssg63
g381
sg56
(lp388
S'version'
p389
asbag49
(g70
g51
NtRp390
(dp391
g54
(dp392
g81
g82
ssg63
g381
sg56
(lp393
S':'
asbag49
(g70
g51
NtRp394
(dp395
g54
(dp396
sg63
g381
sg56
(lp397
g49
(g50
g51
NtRp398
(dp399
g54
(dp400
g62
I3
ssg63
g394
sg56
(lp401
S''
asbasbasbasbasbasbasbag49
(g65
g51
NtRp402
(dp403
g54
(dp404
sg63
g226
sg56
(lp405
g49
(g70
g51
NtRp406
(dp407
g54
(dp408
g74
g75
ssg63
g402
sg56
(lp409
S'session_id_klaas'
p410
asbag49
(g70
g51
NtRp411
(dp412
g54
(dp413
g81
g82
ssg63
g402
sg56
(lp414
S':'
asbag49
(g70
g51
NtRp415
(dp416
g54
(dp417
sg63
g402
sg56
(lp418
g49
(g50
g51
NtRp419
(dp420
g54
(dp421
g62
I4
ssg63
g415
sg56
(lp422
g49
(g58
g51
NtRp423
(dp424
g54
(dp425
g62
I3
ssg63
Nsg56
(lp426
g49
(g65
g51
NtRp427
(dp428
g54
(dp429
sg63
g423
sg56
(lp430
g49
(g70
g51
NtRp431
(dp432
g54
(dp433
g74
g75
ssg63
g427
sg56
(lp434
g263
asbag49
(g70
g51
NtRp435
(dp436
g54
(dp437
g81
g82
ssg63
g427
sg56
(lp438
S':'
asbag49
(g70
g51
NtRp439
(dp440
g54
(dp441
sg63
g427
sg56
(lp442
g49
(g50
g51
NtRp443
(dp444
g54
(dp445
g62
I3
ssg63
g439
sg56
(lp446
S''
asbasbasbag49
(g65
g51
NtRp447
(dp448
g54
(dp449
sg63
g423
sg56
(lp450
g49
(g70
g51
NtRp451
(dp452
g54
(dp453
g74
g75
ssg63
g447
sg56
(lp454
g284
asbag49
(g70
g51
NtRp455
(dp456
g54
(dp457
g81
g82
ssg63
g447
sg56
(lp458
S':'
asbag49
(g70
g51
NtRp459
(dp460
g54
(dp461
sg63
g447
sg56
(lp462
g49
(g50
g51
NtRp463
(dp464
g54
(dp465
g62
I3
ssg63
g459
sg56
(lp466
S''
asbasbasbag49
(g65
g51
NtRp467
(dp468
g54
(dp469
sg63
g423
sg56
(lp470
g49
(g70
g51
NtRp471
(dp472
g54
(dp473
g74
g75
ssg63
g467
sg56
(lp474
g305
asbag49
(g70
g51
NtRp475
(dp476
g54
(dp477
g81
g82
ssg63
g467
sg56
(lp478
S':'
asbag49
(g70
g51
NtRp479
(dp480
g54
(dp481
sg63
g467
sg56
(lp482
g49
(g50
g51
NtRp483
(dp484
g54
(dp485
g62
I3
ssg63
g479
sg56
(lp486
S''
asbasbasbag49
(g65
g51
NtRp487
(dp488
g54
(dp489
sg63
g423
sg56
(lp490
g49
(g70
g51
NtRp491
(dp492
g54
(dp493
g74
g75
ssg63
g487
sg56
(lp494
g326
asbag49
(g70
g51
NtRp495
(dp496
g54
(dp497
g81
g82
ssg63
g487
sg56
(lp498
S':'
asbag49
(g70
g51
NtRp499
(dp500
g54
(dp501
sg63
g487
sg56
(lp502
g49
(g50
g51
NtRp503
(dp504
g54
(dp505
g62
I3
ssg63
g499
sg56
(lp506
S''
asbasbasbag49
(g65
g51
NtRp507
(dp508
g54
(dp509
sg63
g423
sg56
(lp510
g49
(g70
g51
NtRp511
(dp512
g54
(dp513
g74
g75
ssg63
g507
sg56
(lp514
g347
asbag49
(g70
g51
NtRp515
(dp516
g54
(dp517
g81
g82
ssg63
g507
sg56
(lp518
S':'
asbag49
(g70
g51
NtRp519
(dp520
g54
(dp521
sg63
g507
sg56
(lp522
g49
(g50
g51
NtRp523
(dp524
g54
(dp525
g62
I3
ssg63
g519
sg56
(lp526
S''
asbasbasbag49
(g65
g51
NtRp527
(dp528
g54
(dp529
sg63
g423
sg56
(lp530
g49
(g70
g51
NtRp531
(dp532
g54
(dp533
g74
g75
ssg63
g527
sg56
(lp534
g368
asbag49
(g70
g51
NtRp535
(dp536
g54
(dp537
g81
g82
ssg63
g527
sg56
(lp538
S':'
asbag49
(g70
g51
NtRp539
(dp540
g54
(dp541
sg63
g527
sg56
(lp542
g49
(g50
g51
NtRp543
(dp544
g54
(dp545
g62
I3
ssg63
g539
sg56
(lp546
S''
asbasbasbag49
(g65
g51
NtRp547
(dp548
g54
(dp549
sg63
g423
sg56
(lp550
g49
(g70
g51
NtRp551
(dp552
g54
(dp553
g74
g75
ssg63
g547
sg56
(lp554
g389
asbag49
(g70
g51
NtRp555
(dp556
g54
(dp557
g81
g82
ssg63
g547
sg56
(lp558
S':'
asbag49
(g70
g51
NtRp559
(dp560
g54
(dp561
sg63
g547
sg56
(lp562
g49
(g50
g51
NtRp563
(dp564
g54
(dp565
g62
I3
ssg63
g559
sg56
(lp566
S''
asbasbasbasbasbasbasbag49
(g65
g51
NtRp567
(dp568
g54
(dp569
sg63
g226
sg56
(lp570
g49
(g70
g51
NtRp571
(dp572
g54
(dp573
g74
g75
ssg63
g567
sg56
(lp574
S'session_id_parleyweb'
p575
asbag49
(g70
g51
NtRp576
(dp577
g54
(dp578
g81
g82
ssg63
g567
sg56
(lp579
S':'
asbag49
(g70
g51
NtRp580
(dp581
g54
(dp582
sg63
g567
sg56
(lp583
g49
(g50
g51
NtRp584
(dp585
g54
(dp586
g62
I4
ssg63
g580
sg56
(lp587
g49
(g58
g51
NtRp588
(dp589
g54
(dp590
g62
I3
ssg63
Nsg56
(lp591
g49
(g65
g51
NtRp592
(dp593
g54
(dp594
sg63
g588
sg56
(lp595
g49
(g70
g51
NtRp596
(dp597
g54
(dp598
g74
g75
ssg63
g592
sg56
(lp599
g263
asbag49
(g70
g51
NtRp600
(dp601
g54
(dp602
g81
g82
ssg63
g592
sg56
(lp603
S':'
asbag49
(g70
g51
NtRp604
(dp605
g54
(dp606
sg63
g592
sg56
(lp607
g49
(g50
g51
NtRp608
(dp609
g54
(dp610
g62
I3
ssg63
g604
sg56
(lp611
S''
asbasbasbag49
(g65
g51
NtRp612
(dp613
g54
(dp614
sg63
g588
sg56
(lp615
g49
(g70
g51
NtRp616
(dp617
g54
(dp618
g74
g75
ssg63
g612
sg56
(lp619
g284
asbag49
(g70
g51
NtRp620
(dp621
g54
(dp622
g81
g82
ssg63
g612
sg56
(lp623
S':'
asbag49
(g70
g51
NtRp624
(dp625
g54
(dp626
sg63
g612
sg56
(lp627
g49
(g50
g51
NtRp628
(dp629
g54
(dp630
g62
I3
ssg63
g624
sg56
(lp631
S''
asbasbasbag49
(g65
g51
NtRp632
(dp633
g54
(dp634
sg63
g588
sg56
(lp635
g49
(g70
g51
NtRp636
(dp637
g54
(dp638
g74
g75
ssg63
g632
sg56
(lp639
g305
asbag49
(g70
g51
NtRp640
(dp641
g54
(dp642
g81
g82
ssg63
g632
sg56
(lp643
S':'
asbag49
(g70
g51
NtRp644
(dp645
g54
(dp646
sg63
g632
sg56
(lp647
g49
(g50
g51
NtRp648
(dp649
g54
(dp650
g62
I3
ssg63
g644
sg56
(lp651
S''
asbasbasbag49
(g65
g51
NtRp652
(dp653
g54
(dp654
sg63
g588
sg56
(lp655
g49
(g70
g51
NtRp656
(dp657
g54
(dp658
g74
g75
ssg63
g652
sg56
(lp659
g326
asbag49
(g70
g51
NtRp660
(dp661
g54
(dp662
g81
g82
ssg63
g652
sg56
(lp663
S':'
asbag49
(g70
g51
NtRp664
(dp665
g54
(dp666
sg63
g652
sg56
(lp667
g49
(g50
g51
NtRp668
(dp669
g54
(dp670
g62
I3
ssg63
g664
sg56
(lp671
S''
asbasbasbag49
(g65
g51
NtRp672
(dp673
g54
(dp674
sg63
g588
sg56
(lp675
g49
(g70
g51
NtRp676
(dp677
g54
(dp678
g74
g75
ssg63
g672
sg56
(lp679
g347
asbag49
(g70
g51
NtRp680
(dp681
g54
(dp682
g81
g82
ssg63
g672
sg56
(lp683
S':'
asbag49
(g70
g51
NtRp684
(dp685
g54
(dp686
sg63
g672
sg56
(lp687
g49
(g50
g51
NtRp688
(dp689
g54
(dp690
g62
I3
ssg63
g684
sg56
(lp691
S''
asbasbasbag49
(g65
g51
NtRp692
(dp693
g54
(dp694
sg63
g588
sg56
(lp695
g49
(g70
g51
NtRp696
(dp697
g54
(dp698
g74
g75
ssg63
g692
sg56
(lp699
g368
asbag49
(g70
g51
NtRp700
(dp701
g54
(dp702
g81
g82
ssg63
g692
sg56
(lp703
S':'
asbag49
(g70
g51
NtRp704
(dp705
g54
(dp706
sg63
g692
sg56
(lp707
g49
(g50
g51
NtRp708
(dp709
g54
(dp710
g62
I3
ssg63
g704
sg56
(lp711
S''
asbasbasbag49
(g65
g51
NtRp712
(dp713
g54
(dp714
sg63
g588
sg56
(lp715
g49
(g70
g51
NtRp716
(dp717
g54
(dp718
g74
g75
ssg63
g712
sg56
(lp719
g389
asbag49
(g70
g51
NtRp720
(dp721
g54
(dp722
g81
g82
ssg63
g712
sg56
(lp723
S':'
asbag49
(g70
g51
NtRp724
(dp725
g54
(dp726
sg63
g712
sg56
(lp727
g49
(g50
g51
NtRp728
(dp729
g54
(dp730
g62
I3
ssg63
g724
sg56
(lp731
S''
asbasbasbasbasbasbasbag49
(g65
g51
NtRp732
(dp733
g54
(dp734
sg63
g226
sg56
(lp735
g49
(g70
g51
NtRp736
(dp737
g54
(dp738
g74
g75
ssg63
g732
sg56
(lp739
S'session_id_welcome'
p740
asbag49
(g70
g51
NtRp741
(dp742
g54
(dp743
g81
g82
ssg63
g732
sg56
(lp744
S':'
asbag49
(g70
g51
NtRp745
(dp746
g54
(dp747
sg63
g732
sg56
(lp748
g49
(g50
g51
NtRp749
(dp750
g54
(dp751
g62
I4
ssg63
g745
sg56
(lp752
g49
(g58
g51
NtRp753
(dp754
g54
(dp755
g62
I3
ssg63
Nsg56
(lp756
g49
(g65
g51
NtRp757
(dp758
g54
(dp759
sg63
g753
sg56
(lp760
g49
(g70
g51
NtRp761
(dp762
g54
(dp763
g74
g75
ssg63
g757
sg56
(lp764
g263
asbag49
(g70
g51
NtRp765
(dp766
g54
(dp767
g81
g82
ssg63
g757
sg56
(lp768
S':'
asbag49
(g70
g51
NtRp769
(dp770
g54
(dp771
sg63
g757
sg56
(lp772
g49
(g50
g51
NtRp773
(dp774
g54
(dp775
g62
I3
ssg63
g769
sg56
(lp776
S''
asbasbasbag49
(g65
g51
NtRp777
(dp778
g54
(dp779
sg63
g753
sg56
(lp780
g49
(g70
g51
NtRp781
(dp782
g54
(dp783
g74
g75
ssg63
g777
sg56
(lp784
g284
asbag49
(g70
g51
NtRp785
(dp786
g54
(dp787
g81
g82
ssg63
g777
sg56
(lp788
S':'
asbag49
(g70
g51
NtRp789
(dp790
g54
(dp791
sg63
g777
sg56
(lp792
g49
(g50
g51
NtRp793
(dp794
g54
(dp795
g62
I3
ssg63
g789
sg56
(lp796
S''
asbasbasbag49
(g65
g51
NtRp797
(dp798
g54
(dp799
sg63
g753
sg56
(lp800
g49
(g70
g51
NtRp801
(dp802
g54
(dp803
g74
g75
ssg63
g797
sg56
(lp804
g305
asbag49
(g70
g51
NtRp805
(dp806
g54
(dp807
g81
g82
ssg63
g797
sg56
(lp808
S':'
asbag49
(g70
g51
NtRp809
(dp810
g54
(dp811
sg63
g797
sg56
(lp812
g49
(g50
g51
NtRp813
(dp814
g54
(dp815
g62
I3
ssg63
g809
sg56
(lp816
S''
asbasbasbag49
(g65
g51
NtRp817
(dp818
g54
(dp819
sg63
g753
sg56
(lp820
g49
(g70
g51
NtRp821
(dp822
g54
(dp823
g74
g75
ssg63
g817
sg56
(lp824
g326
asbag49
(g70
g51
NtRp825
(dp826
g54
(dp827
g81
g82
ssg63
g817
sg56
(lp828
S':'
asbag49
(g70
g51
NtRp829
(dp830
g54
(dp831
sg63
g817
sg56
(lp832
g49
(g50
g51
NtRp833
(dp834
g54
(dp835
g62
I3
ssg63
g829
sg56
(lp836
S''
asbasbasbag49
(g65
g51
NtRp837
(dp838
g54
(dp839
sg63
g753
sg56
(lp840
g49
(g70
g51
NtRp841
(dp842
g54
(dp843
g74
g75
ssg63
g837
sg56
(lp844
g347
asbag49
(g70
g51
NtRp845
(dp846
g54
(dp847
g81
g82
ssg63
g837
sg56
(lp848
S':'
asbag49
(g70
g51
NtRp849
(dp850
g54
(dp851
sg63
g837
sg56
(lp852
g49
(g50
g51
NtRp853
(dp854
g54
(dp855
g62
I3
ssg63
g849
sg56
(lp856
S''
asbasbasbag49
(g65
g51
NtRp857
(dp858
g54
(dp859
sg63
g753
sg56
(lp860
g49
(g70
g51
NtRp861
(dp862
g54
(dp863
g74
g75
ssg63
g857
sg56
(lp864
g368
asbag49
(g70
g51
NtRp865
(dp866
g54
(dp867
g81
g82
ssg63
g857
sg56
(lp868
S':'
asbag49
(g70
g51
NtRp869
(dp870
g54
(dp871
sg63
g857
sg56
(lp872
g49
(g50
g51
NtRp873
(dp874
g54
(dp875
g62
I3
ssg63
g869
sg56
(lp876
S''
asbasbasbag49
(g65
g51
NtRp877
(dp878
g54
(dp879
sg63
g753
sg56
(lp880
g49
(g70
g51
NtRp881
(dp882
g54
(dp883
g74
g75
ssg63
g877
sg56
(lp884
g389
asbag49
(g70
g51
NtRp885
(dp886
g54
(dp887
g81
g82
ssg63
g877
sg56
(lp888
S':'
asbag49
(g70
g51
NtRp889
(dp890
g54
(dp891
sg63
g877
sg56
(lp892
g49
(g50
g51
NtRp893
(dp894
g54
(dp895
g62
I3
ssg63
g889
sg56
(lp896
S''
asbasbasbasbasbasbasbasbasbasbasbag49
(g65
g51
NtRp897
(dp898
g54
(dp899
sg63
g59
sg56
(lp900
g49
(g70
g51
NtRp901
(dp902
g54
(dp903
g74
g75
ssg63
g897
sg56
(lp904
S'env'
p905
asbag49
(g70
g51
NtRp906
(dp907
g54
(dp908
g81
g82
ssg63
g897
sg56
(lp909
S':'
asbag49
(g70
g51
NtRp910
(dp911
g54
(dp912
sg63
g897
sg56
(lp913
g49
(g50
g51
NtRp914
(dp915
g54
(dp916
g62
I5
ssg63
g910
sg56
(lp917
g49
(g58
g51
NtRp918
(dp919
g54
(dp920
g62
I4
ssg63
Nsg56
(lp921
g49
(g65
g51
NtRp922
(dp923
g54
(dp924
sg63
g918
sg56
(lp925
g49
(g70
g51
NtRp926
(dp927
g54
(dp928
g74
g75
ssg63
g922
sg56
(lp929
S'app_folders'
p930
asbag49
(g70
g51
NtRp931
(dp932
g54
(dp933
g81
g82
ssg63
g922
sg56
(lp934
S':'
asbag49
(g70
g51
NtRp935
(dp936
g54
(dp937
sg63
g922
sg56
(lp938
g49
(g50
g51
NtRp939
(dp940
g54
(dp941
g62
I4
ssg63
g935
sg56
(lp942
S"set(['D:\\\\Dise\\xf1o Web\\\\Proyectos\\\\Parleyweb\\\\web2py\\\\applications\\\\parleyweb\\\\', 'D:\\\\Dise\\xf1o Web\\\\Proyectos\\\\Parleyweb\\\\web2py\\\\applications\\\\welcome\\\\', 'D:\\\\Dise\\xf1o Web\\\\Proyectos\\\\Parleyweb\\\\web2py\\\\applications\\\\admin\\\\'])"
p943
asbasbasbag49
(g65
g51
NtRp944
(dp945
g54
(dp946
sg63
g918
sg56
(lp947
g49
(g70
g51
NtRp948
(dp949
g54
(dp950
g74
g75
ssg63
g944
sg56
(lp951
S'applications_parent'
p952
asbag49
(g70
g51
NtRp953
(dp954
g54
(dp955
g81
g82
ssg63
g944
sg56
(lp956
S':'
asbag49
(g70
g51
NtRp957
(dp958
g54
(dp959
sg63
g944
sg56
(lp960
g49
(g50
g51
NtRp961
(dp962
g54
(dp963
g62
I4
ssg63
g957
sg56
(lp964
S'D:\\Dise\xf1o Web\\Proyectos\\Parleyweb\\web2py'
p965
asbasbasbag49
(g65
g51
NtRp966
(dp967
g54
(dp968
sg63
g918
sg56
(lp969
g49
(g70
g51
NtRp970
(dp971
g54
(dp972
g74
g75
ssg63
g966
sg56
(lp973
S'cmd_args'
p974
asbag49
(g70
g51
NtRp975
(dp976
g54
(dp977
g81
g82
ssg63
g966
sg56
(lp978
S':'
asbag49
(g70
g51
NtRp979
(dp980
g54
(dp981
sg63
g966
sg56
(lp982
g49
(g50
g51
NtRp983
(dp984
g54
(dp985
g62
I4
ssg63
g979
sg56
(lp986
g49
(g58
g51
NtRp987
(dp988
g54
(dp989
g62
I3
ssg63
Nsg56
(lp990
sbasbasbasbag49
(g65
g51
NtRp991
(dp992
g54
(dp993
sg63
g918
sg56
(lp994
g49
(g70
g51
NtRp995
(dp996
g54
(dp997
g74
g75
ssg63
g991
sg56
(lp998
S'cmd_options'
p999
asbag49
(g70
g51
NtRp1000
(dp1001
g54
(dp1002
g81
g82
ssg63
g991
sg56
(lp1003
S':'
asbag49
(g70
g51
NtRp1004
(dp1005
g54
(dp1006
sg63
g991
sg56
(lp1007
g49
(g50
g51
NtRp1008
(dp1009
g54
(dp1010
g62
I4
ssg63
g1004
sg56
(lp1011
S"<Values at 0x331ff30: {'verbose': False, 'ip': '127.0.0.1', 'shutdown_timeout': 5, 'taskbar': False, 'nocron': False, 'pid_filename': 'httpserver.pid', 'maxthreads': None, 'softcron': False, 'server_name': 'craxsnet-PC', 'bpython': False, 'nogui': False, 'port': 8000, 'extcron': False, 'debuglevel': 30, 'test': None, 'folder': 'D:\\\\Dise\\xf1o Web\\\\Proyectos\\\\Parleyweb\\\\web2py', 'config': '', 'import_models': False, 'winservice': '', 'shell': None, 'run': '', 'log_filename': 'httpserver.log', 'args': [''], 'socket_timeout': 5, 'ssl_ca_certificate': None, 'scheduler': None, 'profiler_filename': None, 'ssl_private_key': '', 'password': '<ask>', 'request_queue_size': 5, 'ssl_certificate': '', 'cronjob': False, 'numthreads': None, 'quiet': False, 'interfaces': None, 'minthreads': None, 'timeout': 10, 'plain': False, 'nobanner': False}>"
p1012
asbasbasbag49
(g65
g51
NtRp1013
(dp1014
g54
(dp1015
sg63
g918
sg56
(lp1016
g49
(g70
g51
NtRp1017
(dp1018
g54
(dp1019
g74
g75
ssg63
g1013
sg56
(lp1020
S'db_sessions'
p1021
asbag49
(g70
g51
NtRp1022
(dp1023
g54
(dp1024
g81
g82
ssg63
g1013
sg56
(lp1025
S':'
asbag49
(g70
g51
NtRp1026
(dp1027
g54
(dp1028
sg63
g1013
sg56
(lp1029
g49
(g50
g51
NtRp1030
(dp1031
g54
(dp1032
g62
I4
ssg63
g1026
sg56
(lp1033
S'set([])'
p1034
asbasbasbag49
(g65
g51
NtRp1035
(dp1036
g54
(dp1037
sg63
g918
sg56
(lp1038
g49
(g70
g51
NtRp1039
(dp1040
g54
(dp1041
g74
g75
ssg63
g1035
sg56
(lp1042
S'debugging'
p1043
asbag49
(g70
g51
NtRp1044
(dp1045
g54
(dp1046
g81
g82
ssg63
g1035
sg56
(lp1047
S':'
asbag49
(g70
g51
NtRp1048
(dp1049
g54
(dp1050
sg63
g1035
sg56
(lp1051
g49
(g50
g51
NtRp1052
(dp1053
g54
(dp1054
g62
I4
ssg63
g1048
sg56
(lp1055
g92
asbasbasbag49
(g65
g51
NtRp1056
(dp1057
g54
(dp1058
sg63
g918
sg56
(lp1059
g49
(g70
g51
NtRp1060
(dp1061
g54
(dp1062
g74
g75
ssg63
g1056
sg56
(lp1063
S'gluon_parent'
p1064
asbag49
(g70
g51
NtRp1065
(dp1066
g54
(dp1067
g81
g82
ssg63
g1056
sg56
(lp1068
S':'
asbag49
(g70
g51
NtRp1069
(dp1070
g54
(dp1071
sg63
g1056
sg56
(lp1072
g49
(g50
g51
NtRp1073
(dp1074
g54
(dp1075
g62
I4
ssg63
g1069
sg56
(lp1076
S'D:\\Dise\xf1o Web\\Proyectos\\Parleyweb\\web2py'
p1077
asbasbasbag49
(g65
g51
NtRp1078
(dp1079
g54
(dp1080
sg63
g918
sg56
(lp1081
g49
(g70
g51
NtRp1082
(dp1083
g54
(dp1084
g74
g75
ssg63
g1078
sg56
(lp1085
S'http_accept'
p1086
asbag49
(g70
g51
NtRp1087
(dp1088
g54
(dp1089
g81
g82
ssg63
g1078
sg56
(lp1090
S':'
asbag49
(g70
g51
NtRp1091
(dp1092
g54
(dp1093
sg63
g1078
sg56
(lp1094
g49
(g50
g51
NtRp1095
(dp1096
g54
(dp1097
g62
I4
ssg63
g1091
sg56
(lp1098
S'text/html,application/xhtml+xml,application/xml;q=0.9,*/*;q=0.8'
p1099
asbasbasbag49
(g65
g51
NtRp1100
(dp1101
g54
(dp1102
sg63
g918
sg56
(lp1103
g49
(g70
g51
NtRp1104
(dp1105
g54
(dp1106
g74
g75
ssg63
g1100
sg56
(lp1107
S'http_accept_encoding'
p1108
asbag49
(g70
g51
NtRp1109
(dp1110
g54
(dp1111
g81
g82
ssg63
g1100
sg56
(lp1112
S':'
asbag49
(g70
g51
NtRp1113
(dp1114
g54
(dp1115
sg63
g1100
sg56
(lp1116
g49
(g50
g51
NtRp1117
(dp1118
g54
(dp1119
g62
I4
ssg63
g1113
sg56
(lp1120
S'gzip, deflate'
p1121
asbasbasbag49
(g65
g51
NtRp1122
(dp1123
g54
(dp1124
sg63
g918
sg56
(lp1125
g49
(g70
g51
NtRp1126
(dp1127
g54
(dp1128
g74
g75
ssg63
g1122
sg56
(lp1129
S'http_accept_language'
p1130
asbag49
(g70
g51
NtRp1131
(dp1132
g54
(dp1133
g81
g82
ssg63
g1122
sg56
(lp1134
S':'
asbag49
(g70
g51
NtRp1135
(dp1136
g54
(dp1137
sg63
g1122
sg56
(lp1138
g49
(g50
g51
NtRp1139
(dp1140
g54
(dp1141
g62
I4
ssg63
g1135
sg56
(lp1142
S'es-es,de-de;q=0.8,es;q=0.6,en-us;q=0.4,en;q=0.2'
p1143
asbasbasbag49
(g65
g51
NtRp1144
(dp1145
g54
(dp1146
sg63
g918
sg56
(lp1147
g49
(g70
g51
NtRp1148
(dp1149
g54
(dp1150
g74
g75
ssg63
g1144
sg56
(lp1151
S'http_cache_control'
p1152
asbag49
(g70
g51
NtRp1153
(dp1154
g54
(dp1155
g81
g82
ssg63
g1144
sg56
(lp1156
S':'
asbag49
(g70
g51
NtRp1157
(dp1158
g54
(dp1159
sg63
g1144
sg56
(lp1160
g49
(g50
g51
NtRp1161
(dp1162
g54
(dp1163
g62
I4
ssg63
g1157
sg56
(lp1164
S'max-age=0'
p1165
asbasbasbag49
(g65
g51
NtRp1166
(dp1167
g54
(dp1168
sg63
g918
sg56
(lp1169
g49
(g70
g51
NtRp1170
(dp1171
g54
(dp1172
g74
g75
ssg63
g1166
sg56
(lp1173
S'http_connection'
p1174
asbag49
(g70
g51
NtRp1175
(dp1176
g54
(dp1177
g81
g82
ssg63
g1166
sg56
(lp1178
S':'
asbag49
(g70
g51
NtRp1179
(dp1180
g54
(dp1181
sg63
g1166
sg56
(lp1182
g49
(g50
g51
NtRp1183
(dp1184
g54
(dp1185
g62
I4
ssg63
g1179
sg56
(lp1186
S'keep-alive'
p1187
asbasbasbag49
(g65
g51
NtRp1188
(dp1189
g54
(dp1190
sg63
g918
sg56
(lp1191
g49
(g70
g51
NtRp1192
(dp1193
g54
(dp1194
g74
g75
ssg63
g1188
sg56
(lp1195
S'http_cookie'
p1196
asbag49
(g70
g51
NtRp1197
(dp1198
g54
(dp1199
g81
g82
ssg63
g1188
sg56
(lp1200
S':'
asbag49
(g70
g51
NtRp1201
(dp1202
g54
(dp1203
sg63
g1188
sg56
(lp1204
g49
(g50
g51
NtRp1205
(dp1206
g54
(dp1207
g62
I4
ssg63
g1201
sg56
(lp1208
S'__utma=96992031.26429765.1325029743.1325029743.1326549329.2; __utmz=96992031.1325029743.1.1.utmcsr=(direct)|utmccn=(direct)|utmcmd=(none); session_id_klaas=127.0.0.1-22979940-8cc3-49bc-9f44-0623615d817e; session_id_welcome=127.0.0.1-8cf99883-574c-4d14-bcc4-fd47a1240754; session_id_parleyweb=127.0.0.1-2049810e-c086-402c-857f-06991c56216c; session_id_admin=127.0.0.1-6fdcfcda-6c0c-425c-b11c-f2681aab7aa0'
p1209
asbasbasbag49
(g65
g51
NtRp1210
(dp1211
g54
(dp1212
sg63
g918
sg56
(lp1213
g49
(g70
g51
NtRp1214
(dp1215
g54
(dp1216
g74
g75
ssg63
g1210
sg56
(lp1217
S'http_host'
p1218
asbag49
(g70
g51
NtRp1219
(dp1220
g54
(dp1221
g81
g82
ssg63
g1210
sg56
(lp1222
S':'
asbag49
(g70
g51
NtRp1223
(dp1224
g54
(dp1225
sg63
g1210
sg56
(lp1226
g49
(g50
g51
NtRp1227
(dp1228
g54
(dp1229
g62
I4
ssg63
g1223
sg56
(lp1230
S'127.0.0.1:8000'
p1231
asbasbasbag49
(g65
g51
NtRp1232
(dp1233
g54
(dp1234
sg63
g918
sg56
(lp1235
g49
(g70
g51
NtRp1236
(dp1237
g54
(dp1238
g74
g75
ssg63
g1232
sg56
(lp1239
S'http_referer'
p1240
asbag49
(g70
g51
NtRp1241
(dp1242
g54
(dp1243
g81
g82
ssg63
g1232
sg56
(lp1244
S':'
asbag49
(g70
g51
NtRp1245
(dp1246
g54
(dp1247
sg63
g1232
sg56
(lp1248
g49
(g50
g51
NtRp1249
(dp1250
g54
(dp1251
g62
I4
ssg63
g1245
sg56
(lp1252
S'http://127.0.0.1:8000/parleyweb/admin/index'
p1253
asbasbasbag49
(g65
g51
NtRp1254
(dp1255
g54
(dp1256
sg63
g918
sg56
(lp1257
g49
(g70
g51
NtRp1258
(dp1259
g54
(dp1260
g74
g75
ssg63
g1254
sg56
(lp1261
S'http_user_agent'
p1262
asbag49
(g70
g51
NtRp1263
(dp1264
g54
(dp1265
g81
g82
ssg63
g1254
sg56
(lp1266
S':'
asbag49
(g70
g51
NtRp1267
(dp1268
g54
(dp1269
sg63
g1254
sg56
(lp1270
g49
(g50
g51
NtRp1271
(dp1272
g54
(dp1273
g62
I4
ssg63
g1267
sg56
(lp1274
S'Mozilla/5.0 (Windows NT 6.1; WOW64; rv:10.0.2) Gecko/20100101 Firefox/10.0.2'
p1275
asbasbasbag49
(g65
g51
NtRp1276
(dp1277
g54
(dp1278
sg63
g918
sg56
(lp1279
g49
(g70
g51
NtRp1280
(dp1281
g54
(dp1282
g74
g75
ssg63
g1276
sg56
(lp1283
S'is_jython'
p1284
asbag49
(g70
g51
NtRp1285
(dp1286
g54
(dp1287
g81
g82
ssg63
g1276
sg56
(lp1288
S':'
asbag49
(g70
g51
NtRp1289
(dp1290
g54
(dp1291
sg63
g1276
sg56
(lp1292
g49
(g50
g51
NtRp1293
(dp1294
g54
(dp1295
g62
I4
ssg63
g1289
sg56
(lp1296
g92
asbasbasbag49
(g65
g51
NtRp1297
(dp1298
g54
(dp1299
sg63
g918
sg56
(lp1300
g49
(g70
g51
NtRp1301
(dp1302
g54
(dp1303
g74
g75
ssg63
g1297
sg56
(lp1304
S'is_pypy'
p1305
asbag49
(g70
g51
NtRp1306
(dp1307
g54
(dp1308
g81
g82
ssg63
g1297
sg56
(lp1309
S':'
asbag49
(g70
g51
NtRp1310
(dp1311
g54
(dp1312
sg63
g1297
sg56
(lp1313
g49
(g50
g51
NtRp1314
(dp1315
g54
(dp1316
g62
I4
ssg63
g1310
sg56
(lp1317
g92
asbasbasbag49
(g65
g51
NtRp1318
(dp1319
g54
(dp1320
sg63
g918
sg56
(lp1321
g49
(g70
g51
NtRp1322
(dp1323
g54
(dp1324
g74
g75
ssg63
g1318
sg56
(lp1325
S'path_info'
p1326
asbag49
(g70
g51
NtRp1327
(dp1328
g54
(dp1329
g81
g82
ssg63
g1318
sg56
(lp1330
S':'
asbag49
(g70
g51
NtRp1331
(dp1332
g54
(dp1333
sg63
g1318
sg56
(lp1334
g49
(g50
g51
NtRp1335
(dp1336
g54
(dp1337
g62
I4
ssg63
g1331
sg56
(lp1338
S'/parleyweb/default/index'
p1339
asbasbasbag49
(g65
g51
NtRp1340
(dp1341
g54
(dp1342
sg63
g918
sg56
(lp1343
g49
(g70
g51
NtRp1344
(dp1345
g54
(dp1346
g74
g75
ssg63
g1340
sg56
(lp1347
S'query_string'
p1348
asbag49
(g70
g51
NtRp1349
(dp1350
g54
(dp1351
g81
g82
ssg63
g1340
sg56
(lp1352
S':'
asbag49
(g70
g51
NtRp1353
(dp1354
g54
(dp1355
sg63
g1340
sg56
(lp1356
g49
(g50
g51
NtRp1357
(dp1358
g54
(dp1359
g62
I4
ssg63
g1353
sg56
(lp1360
S''
asbasbasbag49
(g65
g51
NtRp1361
(dp1362
g54
(dp1363
sg63
g918
sg56
(lp1364
g49
(g70
g51
NtRp1365
(dp1366
g54
(dp1367
g74
g75
ssg63
g1361
sg56
(lp1368
S'remote_addr'
p1369
asbag49
(g70
g51
NtRp1370
(dp1371
g54
(dp1372
g81
g82
ssg63
g1361
sg56
(lp1373
S':'
asbag49
(g70
g51
NtRp1374
(dp1375
g54
(dp1376
sg63
g1361
sg56
(lp1377
g49
(g50
g51
NtRp1378
(dp1379
g54
(dp1380
g62
I4
ssg63
g1374
sg56
(lp1381
g182
asbasbasbag49
(g65
g51
NtRp1382
(dp1383
g54
(dp1384
sg63
g918
sg56
(lp1385
g49
(g70
g51
NtRp1386
(dp1387
g54
(dp1388
g74
g75
ssg63
g1382
sg56
(lp1389
S'remote_port'
p1390
asbag49
(g70
g51
NtRp1391
(dp1392
g54
(dp1393
g81
g82
ssg63
g1382
sg56
(lp1394
S':'
asbag49
(g70
g51
NtRp1395
(dp1396
g54
(dp1397
sg63
g1382
sg56
(lp1398
g49
(g50
g51
NtRp1399
(dp1400
g54
(dp1401
g62
I4
ssg63
g1395
sg56
(lp1402
S'52970'
p1403
asbasbasbag49
(g65
g51
NtRp1404
(dp1405
g54
(dp1406
sg63
g918
sg56
(lp1407
g49
(g70
g51
NtRp1408
(dp1409
g54
(dp1410
g74
g75
ssg63
g1404
sg56
(lp1411
S'request_method'
p1412
asbag49
(g70
g51
NtRp1413
(dp1414
g54
(dp1415
g81
g82
ssg63
g1404
sg56
(lp1416
S':'
asbag49
(g70
g51
NtRp1417
(dp1418
g54
(dp1419
sg63
g1404
sg56
(lp1420
g49
(g50
g51
NtRp1421
(dp1422
g54
(dp1423
g62
I4
ssg63
g1417
sg56
(lp1424
S'GET'
p1425
asbasbasbag49
(g65
g51
NtRp1426
(dp1427
g54
(dp1428
sg63
g918
sg56
(lp1429
g49
(g70
g51
NtRp1430
(dp1431
g54
(dp1432
g74
g75
ssg63
g1426
sg56
(lp1433
S'script_name'
p1434
asbag49
(g70
g51
NtRp1435
(dp1436
g54
(dp1437
g81
g82
ssg63
g1426
sg56
(lp1438
S':'
asbag49
(g70
g51
NtRp1439
(dp1440
g54
(dp1441
sg63
g1426
sg56
(lp1442
g49
(g50
g51
NtRp1443
(dp1444
g54
(dp1445
g62
I4
ssg63
g1439
sg56
(lp1446
S''
asbasbasbag49
(g65
g51
NtRp1447
(dp1448
g54
(dp1449
sg63
g918
sg56
(lp1450
g49
(g70
g51
NtRp1451
(dp1452
g54
(dp1453
g74
g75
ssg63
g1447
sg56
(lp1454
S'server_name'
p1455
asbag49
(g70
g51
NtRp1456
(dp1457
g54
(dp1458
g81
g82
ssg63
g1447
sg56
(lp1459
S':'
asbag49
(g70
g51
NtRp1460
(dp1461
g54
(dp1462
sg63
g1447
sg56
(lp1463
g49
(g50
g51
NtRp1464
(dp1465
g54
(dp1466
g62
I4
ssg63
g1460
sg56
(lp1467
S'craxsnet-PC'
p1468
asbasbasbag49
(g65
g51
NtRp1469
(dp1470
g54
(dp1471
sg63
g918
sg56
(lp1472
g49
(g70
g51
NtRp1473
(dp1474
g54
(dp1475
g74
g75
ssg63
g1469
sg56
(lp1476
S'server_port'
p1477
asbag49
(g70
g51
NtRp1478
(dp1479
g54
(dp1480
g81
g82
ssg63
g1469
sg56
(lp1481
S':'
asbag49
(g70
g51
NtRp1482
(dp1483
g54
(dp1484
sg63
g1469
sg56
(lp1485
g49
(g50
g51
NtRp1486
(dp1487
g54
(dp1488
g62
I4
ssg63
g1482
sg56
(lp1489
S'8000'
p1490
asbasbasbag49
(g65
g51
NtRp1491
(dp1492
g54
(dp1493
sg63
g918
sg56
(lp1494
g49
(g70
g51
NtRp1495
(dp1496
g54
(dp1497
g74
g75
ssg63
g1491
sg56
(lp1498
S'server_protocol'
p1499
asbag49
(g70
g51
NtRp1500
(dp1501
g54
(dp1502
g81
g82
ssg63
g1491
sg56
(lp1503
S':'
asbag49
(g70
g51
NtRp1504
(dp1505
g54
(dp1506
sg63
g1491
sg56
(lp1507
g49
(g50
g51
NtRp1508
(dp1509
g54
(dp1510
g62
I4
ssg63
g1504
sg56
(lp1511
S'HTTP/1.1'
p1512
asbasbasbag49
(g65
g51
NtRp1513
(dp1514
g54
(dp1515
sg63
g918
sg56
(lp1516
g49
(g70
g51
NtRp1517
(dp1518
g54
(dp1519
g74
g75
ssg63
g1513
sg56
(lp1520
S'server_software'
p1521
asbag49
(g70
g51
NtRp1522
(dp1523
g54
(dp1524
g81
g82
ssg63
g1513
sg56
(lp1525
S':'
asbag49
(g70
g51
NtRp1526
(dp1527
g54
(dp1528
sg63
g1513
sg56
(lp1529
g49
(g50
g51
NtRp1530
(dp1531
g54
(dp1532
g62
I4
ssg63
g1526
sg56
(lp1533
S'Rocket 1.2.4'
p1534
asbasbasbag49
(g65
g51
NtRp1535
(dp1536
g54
(dp1537
sg63
g918
sg56
(lp1538
g49
(g70
g51
NtRp1539
(dp1540
g54
(dp1541
g74
g75
ssg63
g1535
sg56
(lp1542
S'web2py_crontype'
p1543
asbag49
(g70
g51
NtRp1544
(dp1545
g54
(dp1546
g81
g82
ssg63
g1535
sg56
(lp1547
S':'
asbag49
(g70
g51
NtRp1548
(dp1549
g54
(dp1550
sg63
g1535
sg56
(lp1551
g49
(g50
g51
NtRp1552
(dp1553
g54
(dp1554
g62
I4
ssg63
g1548
sg56
(lp1555
S'hard'
p1556
asbasbasbag49
(g65
g51
NtRp1557
(dp1558
g54
(dp1559
sg63
g918
sg56
(lp1560
g49
(g70
g51
NtRp1561
(dp1562
g54
(dp1563
g74
g75
ssg63
g1557
sg56
(lp1564
S'web2py_path'
p1565
asbag49
(g70
g51
NtRp1566
(dp1567
g54
(dp1568
g81
g82
ssg63
g1557
sg56
(lp1569
S':'
asbag49
(g70
g51
NtRp1570
(dp1571
g54
(dp1572
sg63
g1557
sg56
(lp1573
g49
(g50
g51
NtRp1574
(dp1575
g54
(dp1576
g62
I4
ssg63
g1570
sg56
(lp1577
g965
asbasbasbag49
(g65
g51
NtRp1578
(dp1579
g54
(dp1580
sg63
g918
sg56
(lp1581
g49
(g70
g51
NtRp1582
(dp1583
g54
(dp1584
g74
g75
ssg63
g1578
sg56
(lp1585
S'web2py_version'
p1586
asbag49
(g70
g51
NtRp1587
(dp1588
g54
(dp1589
g81
g82
ssg63
g1578
sg56
(lp1590
S':'
asbag49
(g70
g51
NtRp1591
(dp1592
g54
(dp1593
sg63
g1578
sg56
(lp1594
g49
(g50
g51
NtRp1595
(dp1596
g54
(dp1597
g62
I4
ssg63
g1591
sg56
(lp1598
g49
(g58
g51
NtRp1599
(dp1600
g54
(dp1601
g62
I3
ssg63
Nsg56
(lp1602
g49
(g65
g51
NtRp1603
(dp1604
g54
(dp1605
sg63
g1599
sg56
(lp1606
g49
(g70
g51
NtRp1607
(dp1608
g54
(dp1609
sg63
g1603
sg56
(lp1610
g49
(g50
g51
NtRp1611
(dp1612
g54
(dp1613
g62
I3
ssg63
g1607
sg56
(lp1614
S'1'
asbasbasbag49
(g65
g51
NtRp1615
(dp1616
g54
(dp1617
sg63
g1599
sg56
(lp1618
g49
(g70
g51
NtRp1619
(dp1620
g54
(dp1621
sg63
g1615
sg56
(lp1622
g49
(g50
g51
NtRp1623
(dp1624
g54
(dp1625
g62
I3
ssg63
g1619
sg56
(lp1626
S'99'
p1627
asbasbasbag49
(g65
g51
NtRp1628
(dp1629
g54
(dp1630
sg63
g1599
sg56
(lp1631
g49
(g70
g51
NtRp1632
(dp1633
g54
(dp1634
sg63
g1628
sg56
(lp1635
g49
(g50
g51
NtRp1636
(dp1637
g54
(dp1638
g62
I3
ssg63
g1632
sg56
(lp1639
S'7'
asbasbasbag49
(g65
g51
NtRp1640
(dp1641
g54
(dp1642
sg63
g1599
sg56
(lp1643
g49
(g70
g51
NtRp1644
(dp1645
g54
(dp1646
sg63
g1640
sg56
(lp1647
g49
(g50
g51
NtRp1648
(dp1649
g54
(dp1650
g62
I3
ssg63
g1644
sg56
(lp1651
S'datetime.datetime(2012, 3, 4, 22, 12, 8)'
p1652
asbasbasbag49
(g65
g51
NtRp1653
(dp1654
g54
(dp1655
sg63
g1599
sg56
(lp1656
g49
(g70
g51
NtRp1657
(dp1658
g54
(dp1659
sg63
g1653
sg56
(lp1660
g49
(g50
g51
NtRp1661
(dp1662
g54
(dp1663
g62
I3
ssg63
g1657
sg56
(lp1664
S'stable'
p1665
asbasbasbasbasbasbasbag49
(g65
g51
NtRp1666
(dp1667
g54
(dp1668
sg63
g918
sg56
(lp1669
g49
(g70
g51
NtRp1670
(dp1671
g54
(dp1672
g74
g75
ssg63
g1666
sg56
(lp1673
S'wsgi_errors'
p1674
asbag49
(g70
g51
NtRp1675
(dp1676
g54
(dp1677
g81
g82
ssg63
g1666
sg56
(lp1678
S':'
asbag49
(g70
g51
NtRp1679
(dp1680
g54
(dp1681
sg63
g1666
sg56
(lp1682
g49
(g50
g51
NtRp1683
(dp1684
g54
(dp1685
g62
I4
ssg63
g1679
sg56
(lp1686
S"<open file '<stderr>', mode 'w' at 0x004200B0>"
p1687
asbasbasbag49
(g65
g51
NtRp1688
(dp1689
g54
(dp1690
sg63
g918
sg56
(lp1691
g49
(g70
g51
NtRp1692
(dp1693
g54
(dp1694
g74
g75
ssg63
g1688
sg56
(lp1695
S'wsgi_file_wrapper'
p1696
asbag49
(g70
g51
NtRp1697
(dp1698
g54
(dp1699
g81
g82
ssg63
g1688
sg56
(lp1700
S':'
asbag49
(g70
g51
NtRp1701
(dp1702
g54
(dp1703
sg63
g1688
sg56
(lp1704
g49
(g50
g51
NtRp1705
(dp1706
g54
(dp1707
g62
I4
ssg63
g1701
sg56
(lp1708
S'<class wsgiref.util.FileWrapper at 0x03115390>'
p1709
asbasbasbag49
(g65
g51
NtRp1710
(dp1711
g54
(dp1712
sg63
g918
sg56
(lp1713
g49
(g70
g51
NtRp1714
(dp1715
g54
(dp1716
g74
g75
ssg63
g1710
sg56
(lp1717
S'wsgi_input'
p1718
asbag49
(g70
g51
NtRp1719
(dp1720
g54
(dp1721
g81
g82
ssg63
g1710
sg56
(lp1722
S':'
asbag49
(g70
g51
NtRp1723
(dp1724
g54
(dp1725
sg63
g1710
sg56
(lp1726
g49
(g50
g51
NtRp1727
(dp1728
g54
(dp1729
g62
I4
ssg63
g1723
sg56
(lp1730
S'<socket._fileobject object at 0x06C14AB0>'
p1731
asbasbasbag49
(g65
g51
NtRp1732
(dp1733
g54
(dp1734
sg63
g918
sg56
(lp1735
g49
(g70
g51
NtRp1736
(dp1737
g54
(dp1738
g74
g75
ssg63
g1732
sg56
(lp1739
S'wsgi_multiprocess'
p1740
asbag49
(g70
g51
NtRp1741
(dp1742
g54
(dp1743
g81
g82
ssg63
g1732
sg56
(lp1744
S':'
asbag49
(g70
g51
NtRp1745
(dp1746
g54
(dp1747
sg63
g1732
sg56
(lp1748
g49
(g50
g51
NtRp1749
(dp1750
g54
(dp1751
g62
I4
ssg63
g1745
sg56
(lp1752
g92
asbasbasbag49
(g65
g51
NtRp1753
(dp1754
g54
(dp1755
sg63
g918
sg56
(lp1756
g49
(g70
g51
NtRp1757
(dp1758
g54
(dp1759
g74
g75
ssg63
g1753
sg56
(lp1760
S'wsgi_multithread'
p1761
asbag49
(g70
g51
NtRp1762
(dp1763
g54
(dp1764
g81
g82
ssg63
g1753
sg56
(lp1765
S':'
asbag49
(g70
g51
NtRp1766
(dp1767
g54
(dp1768
sg63
g1753
sg56
(lp1769
g49
(g50
g51
NtRp1770
(dp1771
g54
(dp1772
g62
I4
ssg63
g1766
sg56
(lp1773
S'True'
p1774
asbasbasbag49
(g65
g51
NtRp1775
(dp1776
g54
(dp1777
sg63
g918
sg56
(lp1778
g49
(g70
g51
NtRp1779
(dp1780
g54
(dp1781
g74
g75
ssg63
g1775
sg56
(lp1782
S'wsgi_run_once'
p1783
asbag49
(g70
g51
NtRp1784
(dp1785
g54
(dp1786
g81
g82
ssg63
g1775
sg56
(lp1787
S':'
asbag49
(g70
g51
NtRp1788
(dp1789
g54
(dp1790
sg63
g1775
sg56
(lp1791
g49
(g50
g51
NtRp1792
(dp1793
g54
(dp1794
g62
I4
ssg63
g1788
sg56
(lp1795
g92
asbasbasbag49
(g65
g51
NtRp1796
(dp1797
g54
(dp1798
sg63
g918
sg56
(lp1799
g49
(g70
g51
NtRp1800
(dp1801
g54
(dp1802
g74
g75
ssg63
g1796
sg56
(lp1803
S'wsgi_url_scheme'
p1804
asbag49
(g70
g51
NtRp1805
(dp1806
g54
(dp1807
g81
g82
ssg63
g1796
sg56
(lp1808
S':'
asbag49
(g70
g51
NtRp1809
(dp1810
g54
(dp1811
sg63
g1796
sg56
(lp1812
g49
(g50
g51
NtRp1813
(dp1814
g54
(dp1815
g62
I4
ssg63
g1809
sg56
(lp1816
S'http'
p1817
asbasbasbag49
(g65
g51
NtRp1818
(dp1819
g54
(dp1820
sg63
g918
sg56
(lp1821
g49
(g70
g51
NtRp1822
(dp1823
g54
(dp1824
g74
g75
ssg63
g1818
sg56
(lp1825
S'wsgi_version'
p1826
asbag49
(g70
g51
NtRp1827
(dp1828
g54
(dp1829
g81
g82
ssg63
g1818
sg56
(lp1830
S':'
asbag49
(g70
g51
NtRp1831
(dp1832
g54
(dp1833
sg63
g1818
sg56
(lp1834
g49
(g50
g51
NtRp1835
(dp1836
g54
(dp1837
g62
I4
ssg63
g1831
sg56
(lp1838
g49
(g58
g51
NtRp1839
(dp1840
g54
(dp1841
g62
I3
ssg63
Nsg56
(lp1842
g49
(g65
g51
NtRp1843
(dp1844
g54
(dp1845
sg63
g1839
sg56
(lp1846
g49
(g70
g51
NtRp1847
(dp1848
g54
(dp1849
sg63
g1843
sg56
(lp1850
g49
(g50
g51
NtRp1851
(dp1852
g54
(dp1853
g62
I3
ssg63
g1847
sg56
(lp1854
S'1'
asbasbasbag49
(g65
g51
NtRp1855
(dp1856
g54
(dp1857
sg63
g1839
sg56
(lp1858
g49
(g70
g51
NtRp1859
(dp1860
g54
(dp1861
sg63
g1855
sg56
(lp1862
g49
(g50
g51
NtRp1863
(dp1864
g54
(dp1865
g62
I3
ssg63
g1859
sg56
(lp1866
S'0'
asbasbasbasbasbasbasbasbasbasbasbag49
(g65
g51
NtRp1867
(dp1868
g54
(dp1869
sg63
g59
sg56
(lp1870
g49
(g70
g51
NtRp1871
(dp1872
g54
(dp1873
g74
g75
ssg63
g1867
sg56
(lp1874
S'extension'
p1875
asbag49
(g70
g51
NtRp1876
(dp1877
g54
(dp1878
g81
g82
ssg63
g1867
sg56
(lp1879
S':'
asbag49
(g70
g51
NtRp1880
(dp1881
g54
(dp1882
sg63
g1867
sg56
(lp1883
g49
(g50
g51
NtRp1884
(dp1885
g54
(dp1886
g62
I5
ssg63
g1880
sg56
(lp1887
S'html'
p1888
asbasbasbag49
(g65
g51
NtRp1889
(dp1890
g54
(dp1891
sg63
g59
sg56
(lp1892
g49
(g70
g51
NtRp1893
(dp1894
g54
(dp1895
g74
g75
ssg63
g1889
sg56
(lp1896
S'folder'
p1897
asbag49
(g70
g51
NtRp1898
(dp1899
g54
(dp1900
g81
g82
ssg63
g1889
sg56
(lp1901
S':'
asbag49
(g70
g51
NtRp1902
(dp1903
g54
(dp1904
sg63
g1889
sg56
(lp1905
g49
(g50
g51
NtRp1906
(dp1907
g54
(dp1908
g62
I5
ssg63
g1902
sg56
(lp1909
S'D:\\Dise\xf1o Web\\Proyectos\\Parleyweb\\web2py\\applications\\parleyweb\\'
p1910
asbasbasbag49
(g65
g51
NtRp1911
(dp1912
g54
(dp1913
sg63
g59
sg56
(lp1914
g49
(g70
g51
NtRp1915
(dp1916
g54
(dp1917
g74
g75
ssg63
g1911
sg56
(lp1918
S'function'
p1919
asbag49
(g70
g51
NtRp1920
(dp1921
g54
(dp1922
g81
g82
ssg63
g1911
sg56
(lp1923
S':'
asbag49
(g70
g51
NtRp1924
(dp1925
g54
(dp1926
sg63
g1911
sg56
(lp1927
g49
(g50
g51
NtRp1928
(dp1929
g54
(dp1930
g62
I5
ssg63
g1924
sg56
(lp1931
S'index'
p1932
asbasbasbag49
(g65
g51
NtRp1933
(dp1934
g54
(dp1935
sg63
g59
sg56
(lp1936
g49
(g70
g51
NtRp1937
(dp1938
g54
(dp1939
g74
g75
ssg63
g1933
sg56
(lp1940
S'get_vars'
p1941
asbag49
(g70
g51
NtRp1942
(dp1943
g54
(dp1944
g81
g82
ssg63
g1933
sg56
(lp1945
S':'
asbag49
(g70
g51
NtRp1946
(dp1947
g54
(dp1948
sg63
g1933
sg56
(lp1949
g49
(g50
g51
NtRp1950
(dp1951
g54
(dp1952
g62
I5
ssg63
g1946
sg56
(lp1953
g49
(g58
g51
NtRp1954
(dp1955
g54
(dp1956
g62
I4
ssg63
Nsg56
(lp1957
sbasbasbasbag49
(g65
g51
NtRp1958
(dp1959
g54
(dp1960
sg63
g59
sg56
(lp1961
g49
(g70
g51
NtRp1962
(dp1963
g54
(dp1964
g74
g75
ssg63
g1958
sg56
(lp1965
S'global_settings'
p1966
asbag49
(g70
g51
NtRp1967
(dp1968
g54
(dp1969
g81
g82
ssg63
g1958
sg56
(lp1970
S':'
asbag49
(g70
g51
NtRp1971
(dp1972
g54
(dp1973
sg63
g1958
sg56
(lp1974
g49
(g50
g51
NtRp1975
(dp1976
g54
(dp1977
g62
I5
ssg63
g1971
sg56
(lp1978
g49
(g58
g51
NtRp1979
(dp1980
g54
(dp1981
g62
I4
ssg63
Nsg56
(lp1982
g49
(g65
g51
NtRp1983
(dp1984
g54
(dp1985
sg63
g1979
sg56
(lp1986
g49
(g70
g51
NtRp1987
(dp1988
g54
(dp1989
g74
g75
ssg63
g1983
sg56
(lp1990
g930
asbag49
(g70
g51
NtRp1991
(dp1992
g54
(dp1993
g81
g82
ssg63
g1983
sg56
(lp1994
S':'
asbag49
(g70
g51
NtRp1995
(dp1996
g54
(dp1997
sg63
g1983
sg56
(lp1998
g49
(g50
g51
NtRp1999
(dp2000
g54
(dp2001
g62
I4
ssg63
g1995
sg56
(lp2002
S"set(['D:\\\\Dise\\xf1o Web\\\\Proyectos\\\\Parleyweb\\\\web2py\\\\applications\\\\parleyweb\\\\', 'D:\\\\Dise\\xf1o Web\\\\Proyectos\\\\Parleyweb\\\\web2py\\\\applications\\\\welcome\\\\', 'D:\\\\Dise\\xf1o Web\\\\Proyectos\\\\Parleyweb\\\\web2py\\\\applications\\\\admin\\\\'])"
p2003
asbasbasbag49
(g65
g51
NtRp2004
(dp2005
g54
(dp2006
sg63
g1979
sg56
(lp2007
g49
(g70
g51
NtRp2008
(dp2009
g54
(dp2010
g74
g75
ssg63
g2004
sg56
(lp2011
g952
asbag49
(g70
g51
NtRp2012
(dp2013
g54
(dp2014
g81
g82
ssg63
g2004
sg56
(lp2015
S':'
asbag49
(g70
g51
NtRp2016
(dp2017
g54
(dp2018
sg63
g2004
sg56
(lp2019
g49
(g50
g51
NtRp2020
(dp2021
g54
(dp2022
g62
I4
ssg63
g2016
sg56
(lp2023
g965
asbasbasbag49
(g65
g51
NtRp2024
(dp2025
g54
(dp2026
sg63
g1979
sg56
(lp2027
g49
(g70
g51
NtRp2028
(dp2029
g54
(dp2030
g74
g75
ssg63
g2024
sg56
(lp2031
g974
asbag49
(g70
g51
NtRp2032
(dp2033
g54
(dp2034
g81
g82
ssg63
g2024
sg56
(lp2035
S':'
asbag49
(g70
g51
NtRp2036
(dp2037
g54
(dp2038
sg63
g2024
sg56
(lp2039
g49
(g50
g51
NtRp2040
(dp2041
g54
(dp2042
g62
I4
ssg63
g2036
sg56
(lp2043
g49
(g58
g51
NtRp2044
(dp2045
g54
(dp2046
g62
I3
ssg63
Nsg56
(lp2047
sbasbasbasbag49
(g65
g51
NtRp2048
(dp2049
g54
(dp2050
sg63
g1979
sg56
(lp2051
g49
(g70
g51
NtRp2052
(dp2053
g54
(dp2054
g74
g75
ssg63
g2048
sg56
(lp2055
g999
asbag49
(g70
g51
NtRp2056
(dp2057
g54
(dp2058
g81
g82
ssg63
g2048
sg56
(lp2059
S':'
asbag49
(g70
g51
NtRp2060
(dp2061
g54
(dp2062
sg63
g2048
sg56
(lp2063
g49
(g50
g51
NtRp2064
(dp2065
g54
(dp2066
g62
I4
ssg63
g2060
sg56
(lp2067
S"<Values at 0x331ff30: {'verbose': False, 'ip': '127.0.0.1', 'shutdown_timeout': 5, 'taskbar': False, 'nocron': False, 'pid_filename': 'httpserver.pid', 'maxthreads': None, 'softcron': False, 'server_name': 'craxsnet-PC', 'bpython': False, 'nogui': False, 'port': 8000, 'extcron': False, 'debuglevel': 30, 'test': None, 'folder': 'D:\\\\Dise\\xf1o Web\\\\Proyectos\\\\Parleyweb\\\\web2py', 'config': '', 'import_models': False, 'winservice': '', 'shell': None, 'run': '', 'log_filename': 'httpserver.log', 'args': [''], 'socket_timeout': 5, 'ssl_ca_certificate': None, 'scheduler': None, 'profiler_filename': None, 'ssl_private_key': '', 'password': '<ask>', 'request_queue_size': 5, 'ssl_certificate': '', 'cronjob': False, 'numthreads': None, 'quiet': False, 'interfaces': None, 'minthreads': None, 'timeout': 10, 'plain': False, 'nobanner': False}>"
p2068
asbasbasbag49
(g65
g51
NtRp2069
(dp2070
g54
(dp2071
sg63
g1979
sg56
(lp2072
g49
(g70
g51
NtRp2073
(dp2074
g54
(dp2075
g74
g75
ssg63
g2069
sg56
(lp2076
g1021
asbag49
(g70
g51
NtRp2077
(dp2078
g54
(dp2079
g81
g82
ssg63
g2069
sg56
(lp2080
S':'
asbag49
(g70
g51
NtRp2081
(dp2082
g54
(dp2083
sg63
g2069
sg56
(lp2084
g49
(g50
g51
NtRp2085
(dp2086
g54
(dp2087
g62
I4
ssg63
g2081
sg56
(lp2088
S'set([])'
p2089
asbasbasbag49
(g65
g51
NtRp2090
(dp2091
g54
(dp2092
sg63
g1979
sg56
(lp2093
g49
(g70
g51
NtRp2094
(dp2095
g54
(dp2096
g74
g75
ssg63
g2090
sg56
(lp2097
g1043
asbag49
(g70
g51
NtRp2098
(dp2099
g54
(dp2100
g81
g82
ssg63
g2090
sg56
(lp2101
S':'
asbag49
(g70
g51
NtRp2102
(dp2103
g54
(dp2104
sg63
g2090
sg56
(lp2105
g49
(g50
g51
NtRp2106
(dp2107
g54
(dp2108
g62
I4
ssg63
g2102
sg56
(lp2109
g92
asbasbasbag49
(g65
g51
NtRp2110
(dp2111
g54
(dp2112
sg63
g1979
sg56
(lp2113
g49
(g70
g51
NtRp2114
(dp2115
g54
(dp2116
g74
g75
ssg63
g2110
sg56
(lp2117
g1064
asbag49
(g70
g51
NtRp2118
(dp2119
g54
(dp2120
g81
g82
ssg63
g2110
sg56
(lp2121
S':'
asbag49
(g70
g51
NtRp2122
(dp2123
g54
(dp2124
sg63
g2110
sg56
(lp2125
g49
(g50
g51
NtRp2126
(dp2127
g54
(dp2128
g62
I4
ssg63
g2122
sg56
(lp2129
g1077
asbasbasbag49
(g65
g51
NtRp2130
(dp2131
g54
(dp2132
sg63
g1979
sg56
(lp2133
g49
(g70
g51
NtRp2134
(dp2135
g54
(dp2136
g74
g75
ssg63
g2130
sg56
(lp2137
g1284
asbag49
(g70
g51
NtRp2138
(dp2139
g54
(dp2140
g81
g82
ssg63
g2130
sg56
(lp2141
S':'
asbag49
(g70
g51
NtRp2142
(dp2143
g54
(dp2144
sg63
g2130
sg56
(lp2145
g49
(g50
g51
NtRp2146
(dp2147
g54
(dp2148
g62
I4
ssg63
g2142
sg56
(lp2149
g92
asbasbasbag49
(g65
g51
NtRp2150
(dp2151
g54
(dp2152
sg63
g1979
sg56
(lp2153
g49
(g70
g51
NtRp2154
(dp2155
g54
(dp2156
g74
g75
ssg63
g2150
sg56
(lp2157
g1305
asbag49
(g70
g51
NtRp2158
(dp2159
g54
(dp2160
g81
g82
ssg63
g2150
sg56
(lp2161
S':'
asbag49
(g70
g51
NtRp2162
(dp2163
g54
(dp2164
sg63
g2150
sg56
(lp2165
g49
(g50
g51
NtRp2166
(dp2167
g54
(dp2168
g62
I4
ssg63
g2162
sg56
(lp2169
g92
asbasbasbag49
(g65
g51
NtRp2170
(dp2171
g54
(dp2172
sg63
g1979
sg56
(lp2173
g49
(g70
g51
NtRp2174
(dp2175
g54
(dp2176
g74
g75
ssg63
g2170
sg56
(lp2177
g1543
asbag49
(g70
g51
NtRp2178
(dp2179
g54
(dp2180
g81
g82
ssg63
g2170
sg56
(lp2181
S':'
asbag49
(g70
g51
NtRp2182
(dp2183
g54
(dp2184
sg63
g2170
sg56
(lp2185
g49
(g50
g51
NtRp2186
(dp2187
g54
(dp2188
g62
I4
ssg63
g2182
sg56
(lp2189
g1556
asbasbasbag49
(g65
g51
NtRp2190
(dp2191
g54
(dp2192
sg63
g1979
sg56
(lp2193
g49
(g70
g51
NtRp2194
(dp2195
g54
(dp2196
g74
g75
ssg63
g2190
sg56
(lp2197
g1586
asbag49
(g70
g51
NtRp2198
(dp2199
g54
(dp2200
g81
g82
ssg63
g2190
sg56
(lp2201
S':'
asbag49
(g70
g51
NtRp2202
(dp2203
g54
(dp2204
sg63
g2190
sg56
(lp2205
g49
(g50
g51
NtRp2206
(dp2207
g54
(dp2208
g62
I4
ssg63
g2202
sg56
(lp2209
g49
(g58
g51
NtRp2210
(dp2211
g54
(dp2212
g62
I3
ssg63
Nsg56
(lp2213
g49
(g65
g51
NtRp2214
(dp2215
g54
(dp2216
sg63
g2210
sg56
(lp2217
g49
(g70
g51
NtRp2218
(dp2219
g54
(dp2220
sg63
g2214
sg56
(lp2221
g49
(g50
g51
NtRp2222
(dp2223
g54
(dp2224
g62
I3
ssg63
g2218
sg56
(lp2225
S'1'
asbasbasbag49
(g65
g51
NtRp2226
(dp2227
g54
(dp2228
sg63
g2210
sg56
(lp2229
g49
(g70
g51
NtRp2230
(dp2231
g54
(dp2232
sg63
g2226
sg56
(lp2233
g49
(g50
g51
NtRp2234
(dp2235
g54
(dp2236
g62
I3
ssg63
g2230
sg56
(lp2237
S'99'
p2238
asbasbasbag49
(g65
g51
NtRp2239
(dp2240
g54
(dp2241
sg63
g2210
sg56
(lp2242
g49
(g70
g51
NtRp2243
(dp2244
g54
(dp2245
sg63
g2239
sg56
(lp2246
g49
(g50
g51
NtRp2247
(dp2248
g54
(dp2249
g62
I3
ssg63
g2243
sg56
(lp2250
S'7'
asbasbasbag49
(g65
g51
NtRp2251
(dp2252
g54
(dp2253
sg63
g2210
sg56
(lp2254
g49
(g70
g51
NtRp2255
(dp2256
g54
(dp2257
sg63
g2251
sg56
(lp2258
g49
(g50
g51
NtRp2259
(dp2260
g54
(dp2261
g62
I3
ssg63
g2255
sg56
(lp2262
S'datetime.datetime(2012, 3, 4, 22, 12, 8)'
p2263
asbasbasbag49
(g65
g51
NtRp2264
(dp2265
g54
(dp2266
sg63
g2210
sg56
(lp2267
g49
(g70
g51
NtRp2268
(dp2269
g54
(dp2270
sg63
g2264
sg56
(lp2271
g49
(g50
g51
NtRp2272
(dp2273
g54
(dp2274
g62
I3
ssg63
g2268
sg56
(lp2275
g1665
asbasbasbasbasbasbasbasbasbasbasbag49
(g65
g51
NtRp2276
(dp2277
g54
(dp2278
sg63
g59
sg56
(lp2279
g49
(g70
g51
NtRp2280
(dp2281
g54
(dp2282
g74
g75
ssg63
g2276
sg56
(lp2283
S'is_https'
p2284
asbag49
(g70
g51
NtRp2285
(dp2286
g54
(dp2287
g81
g82
ssg63
g2276
sg56
(lp2288
S':'
asbag49
(g70
g51
NtRp2289
(dp2290
g54
(dp2291
sg63
g2276
sg56
(lp2292
g49
(g50
g51
NtRp2293
(dp2294
g54
(dp2295
g62
I5
ssg63
g2289
sg56
(lp2296
g92
asbasbasbag49
(g65
g51
NtRp2297
(dp2298
g54
(dp2299
sg63
g59
sg56
(lp2300
g49
(g70
g51
NtRp2301
(dp2302
g54
(dp2303
g74
g75
ssg63
g2297
sg56
(lp2304
S'is_local'
p2305
asbag49
(g70
g51
NtRp2306
(dp2307
g54
(dp2308
g81
g82
ssg63
g2297
sg56
(lp2309
S':'
asbag49
(g70
g51
NtRp2310
(dp2311
g54
(dp2312
sg63
g2297
sg56
(lp2313
g49
(g50
g51
NtRp2314
(dp2315
g54
(dp2316
g62
I5
ssg63
g2310
sg56
(lp2317
g1774
asbasbasbag49
(g65
g51
NtRp2318
(dp2319
g54
(dp2320
sg63
g59
sg56
(lp2321
g49
(g70
g51
NtRp2322
(dp2323
g54
(dp2324
g74
g75
ssg63
g2318
sg56
(lp2325
S'is_restful'
p2326
asbag49
(g70
g51
NtRp2327
(dp2328
g54
(dp2329
g81
g82
ssg63
g2318
sg56
(lp2330
S':'
asbag49
(g70
g51
NtRp2331
(dp2332
g54
(dp2333
sg63
g2318
sg56
(lp2334
g49
(g50
g51
NtRp2335
(dp2336
g54
(dp2337
g62
I5
ssg63
g2331
sg56
(lp2338
g92
asbasbasbag49
(g65
g51
NtRp2339
(dp2340
g54
(dp2341
sg63
g59
sg56
(lp2342
g49
(g70
g51
NtRp2343
(dp2344
g54
(dp2345
g74
g75
ssg63
g2339
sg56
(lp2346
S'now'
p2347
asbag49
(g70
g51
NtRp2348
(dp2349
g54
(dp2350
g81
g82
ssg63
g2339
sg56
(lp2351
S':'
asbag49
(g70
g51
NtRp2352
(dp2353
g54
(dp2354
sg63
g2339
sg56
(lp2355
g49
(g50
g51
NtRp2356
(dp2357
g54
(dp2358
g62
I5
ssg63
g2352
sg56
(lp2359
S'datetime.datetime(2012, 3, 12, 23, 21, 24, 799000)'
p2360
asbasbasbag49
(g65
g51
NtRp2361
(dp2362
g54
(dp2363
sg63
g59
sg56
(lp2364
g49
(g70
g51
NtRp2365
(dp2366
g54
(dp2367
g74
g75
ssg63
g2361
sg56
(lp2368
S'post_vars'
p2369
asbag49
(g70
g51
NtRp2370
(dp2371
g54
(dp2372
g81
g82
ssg63
g2361
sg56
(lp2373
S':'
asbag49
(g70
g51
NtRp2374
(dp2375
g54
(dp2376
sg63
g2361
sg56
(lp2377
g49
(g50
g51
NtRp2378
(dp2379
g54
(dp2380
g62
I5
ssg63
g2374
sg56
(lp2381
g49
(g58
g51
NtRp2382
(dp2383
g54
(dp2384
g62
I4
ssg63
Nsg56
(lp2385
sbasbasbasbag49
(g65
g51
NtRp2386
(dp2387
g54
(dp2388
sg63
g59
sg56
(lp2389
g49
(g70
g51
NtRp2390
(dp2391
g54
(dp2392
g74
g75
ssg63
g2386
sg56
(lp2393
S'url'
p2394
asbag49
(g70
g51
NtRp2395
(dp2396
g54
(dp2397
g81
g82
ssg63
g2386
sg56
(lp2398
S':'
asbag49
(g70
g51
NtRp2399
(dp2400
g54
(dp2401
sg63
g2386
sg56
(lp2402
g49
(g50
g51
NtRp2403
(dp2404
g54
(dp2405
g62
I5
ssg63
g2399
sg56
(lp2406
S'/parleyweb/default/index'
p2407
asbasbasbag49
(g65
g51
NtRp2408
(dp2409
g54
(dp2410
sg63
g59
sg56
(lp2411
g49
(g70
g51
NtRp2412
(dp2413
g54
(dp2414
g74
g75
ssg63
g2408
sg56
(lp2415
S'utcnow'
p2416
asbag49
(g70
g51
NtRp2417
(dp2418
g54
(dp2419
g81
g82
ssg63
g2408
sg56
(lp2420
S':'
asbag49
(g70
g51
NtRp2421
(dp2422
g54
(dp2423
sg63
g2408
sg56
(lp2424
g49
(g50
g51
NtRp2425
(dp2426
g54
(dp2427
g62
I5
ssg63
g2421
sg56
(lp2428
S'datetime.datetime(2012, 3, 12, 22, 21, 24, 800000)'
p2429
asbasbasbag49
(g65
g51
NtRp2430
(dp2431
g54
(dp2432
sg63
g59
sg56
(lp2433
g49
(g70
g51
NtRp2434
(dp2435
g54
(dp2436
g74
g75
ssg63
g2430
sg56
(lp2437
S'uuid'
p2438
asbag49
(g70
g51
NtRp2439
(dp2440
g54
(dp2441
g81
g82
ssg63
g2430
sg56
(lp2442
S':'
asbag49
(g70
g51
NtRp2443
(dp2444
g54
(dp2445
sg63
g2430
sg56
(lp2446
g49
(g50
g51
NtRp2447
(dp2448
g54
(dp2449
g62
I5
ssg63
g2443
sg56
(lp2450
S'parleyweb/127.0.0.1.2012-03-12.23-21-24.789e99e8-8474-4a80-90a0-909e46176b96'
p2451
asbasbasbag49
(g65
g51
NtRp2452
(dp2453
g54
(dp2454
sg63
g59
sg56
(lp2455
g49
(g70
g51
NtRp2456
(dp2457
g54
(dp2458
g74
g75
ssg63
g2452
sg56
(lp2459
S'vars'
p2460
asbag49
(g70
g51
NtRp2461
(dp2462
g54
(dp2463
g81
g82
ssg63
g2452
sg56
(lp2464
S':'
asbag49
(g70
g51
NtRp2465
(dp2466
g54
(dp2467
sg63
g2452
sg56
(lp2468
g49
(g50
g51
NtRp2469
(dp2470
g54
(dp2471
g62
I5
ssg63
g2465
sg56
(lp2472
g49
(g58
g51
NtRp2473
(dp2474
g54
(dp2475
g62
I4
ssg63
Nsg56
(lp2476
sbasbasbasbag49
(g65
g51
NtRp2477
(dp2478
g54
(dp2479
sg63
g59
sg56
(lp2480
g49
(g70
g51
NtRp2481
(dp2482
g54
(dp2483
g74
g75
ssg63
g2477
sg56
(lp2484
S'wsgi'
p2485
asbag49
(g70
g51
NtRp2486
(dp2487
g54
(dp2488
g81
g82
ssg63
g2477
sg56
(lp2489
S':'
asbag49
(g70
g51
NtRp2490
(dp2491
g54
(dp2492
sg63
g2477
sg56
(lp2493
g49
(g50
g51
NtRp2494
(dp2495
g54
(dp2496
g62
I5
ssg63
g2490
sg56
(lp2497
g49
(g58
g51
NtRp2498
(dp2499
g54
(dp2500
g62
I4
ssg63
Nsg56
(lp2501
g49
(g65
g51
NtRp2502
(dp2503
g54
(dp2504
sg63
g2498
sg56
(lp2505
g49
(g70
g51
NtRp2506
(dp2507
g54
(dp2508
g74
g75
ssg63
g2502
sg56
(lp2509
S'environ'
p2510
asbag49
(g70
g51
NtRp2511
(dp2512
g54
(dp2513
g81
g82
ssg63
g2502
sg56
(lp2514
S':'
asbag49
(g70
g51
NtRp2515
(dp2516
g54
(dp2517
sg63
g2502
sg56
(lp2518
g49
(g50
g51
NtRp2519
(dp2520
g54
(dp2521
g62
I4
ssg63
g2515
sg56
(lp2522
g49
(g58
g51
NtRp2523
(dp2524
g54
(dp2525
g62
I3
ssg63
Nsg56
(lp2526
g49
(g65
g51
NtRp2527
(dp2528
g54
(dp2529
sg63
g2523
sg56
(lp2530
g49
(g70
g51
NtRp2531
(dp2532
g54
(dp2533
g74
g75
ssg63
g2527
sg56
(lp2534
S'HTTP_ACCEPT'
p2535
asbag49
(g70
g51
NtRp2536
(dp2537
g54
(dp2538
g81
g82
ssg63
g2527
sg56
(lp2539
S':'
asbag49
(g70
g51
NtRp2540
(dp2541
g54
(dp2542
sg63
g2527
sg56
(lp2543
g49
(g50
g51
NtRp2544
(dp2545
g54
(dp2546
g62
I3
ssg63
g2540
sg56
(lp2547
g1099
asbasbasbag49
(g65
g51
NtRp2548
(dp2549
g54
(dp2550
sg63
g2523
sg56
(lp2551
g49
(g70
g51
NtRp2552
(dp2553
g54
(dp2554
g74
g75
ssg63
g2548
sg56
(lp2555
S'HTTP_ACCEPT_ENCODING'
p2556
asbag49
(g70
g51
NtRp2557
(dp2558
g54
(dp2559
g81
g82
ssg63
g2548
sg56
(lp2560
S':'
asbag49
(g70
g51
NtRp2561
(dp2562
g54
(dp2563
sg63
g2548
sg56
(lp2564
g49
(g50
g51
NtRp2565
(dp2566
g54
(dp2567
g62
I3
ssg63
g2561
sg56
(lp2568
g1121
asbasbasbag49
(g65
g51
NtRp2569
(dp2570
g54
(dp2571
sg63
g2523
sg56
(lp2572
g49
(g70
g51
NtRp2573
(dp2574
g54
(dp2575
g74
g75
ssg63
g2569
sg56
(lp2576
S'HTTP_ACCEPT_LANGUAGE'
p2577
asbag49
(g70
g51
NtRp2578
(dp2579
g54
(dp2580
g81
g82
ssg63
g2569
sg56
(lp2581
S':'
asbag49
(g70
g51
NtRp2582
(dp2583
g54
(dp2584
sg63
g2569
sg56
(lp2585
g49
(g50
g51
NtRp2586
(dp2587
g54
(dp2588
g62
I3
ssg63
g2582
sg56
(lp2589
g1143
asbasbasbag49
(g65
g51
NtRp2590
(dp2591
g54
(dp2592
sg63
g2523
sg56
(lp2593
g49
(g70
g51
NtRp2594
(dp2595
g54
(dp2596
g74
g75
ssg63
g2590
sg56
(lp2597
S'HTTP_CACHE_CONTROL'
p2598
asbag49
(g70
g51
NtRp2599
(dp2600
g54
(dp2601
g81
g82
ssg63
g2590
sg56
(lp2602
S':'
asbag49
(g70
g51
NtRp2603
(dp2604
g54
(dp2605
sg63
g2590
sg56
(lp2606
g49
(g50
g51
NtRp2607
(dp2608
g54
(dp2609
g62
I3
ssg63
g2603
sg56
(lp2610
g1165
asbasbasbag49
(g65
g51
NtRp2611
(dp2612
g54
(dp2613
sg63
g2523
sg56
(lp2614
g49
(g70
g51
NtRp2615
(dp2616
g54
(dp2617
g74
g75
ssg63
g2611
sg56
(lp2618
S'HTTP_CONNECTION'
p2619
asbag49
(g70
g51
NtRp2620
(dp2621
g54
(dp2622
g81
g82
ssg63
g2611
sg56
(lp2623
S':'
asbag49
(g70
g51
NtRp2624
(dp2625
g54
(dp2626
sg63
g2611
sg56
(lp2627
g49
(g50
g51
NtRp2628
(dp2629
g54
(dp2630
g62
I3
ssg63
g2624
sg56
(lp2631
g1187
asbasbasbag49
(g65
g51
NtRp2632
(dp2633
g54
(dp2634
sg63
g2523
sg56
(lp2635
g49
(g70
g51
NtRp2636
(dp2637
g54
(dp2638
g74
g75
ssg63
g2632
sg56
(lp2639
S'HTTP_COOKIE'
p2640
asbag49
(g70
g51
NtRp2641
(dp2642
g54
(dp2643
g81
g82
ssg63
g2632
sg56
(lp2644
S':'
asbag49
(g70
g51
NtRp2645
(dp2646
g54
(dp2647
sg63
g2632
sg56
(lp2648
g49
(g50
g51
NtRp2649
(dp2650
g54
(dp2651
g62
I3
ssg63
g2645
sg56
(lp2652
g1209
asbasbasbag49
(g65
g51
NtRp2653
(dp2654
g54
(dp2655
sg63
g2523
sg56
(lp2656
g49
(g70
g51
NtRp2657
(dp2658
g54
(dp2659
g74
g75
ssg63
g2653
sg56
(lp2660
S'HTTP_HOST'
p2661
asbag49
(g70
g51
NtRp2662
(dp2663
g54
(dp2664
g81
g82
ssg63
g2653
sg56
(lp2665
S':'
asbag49
(g70
g51
NtRp2666
(dp2667
g54
(dp2668
sg63
g2653
sg56
(lp2669
g49
(g50
g51
NtRp2670
(dp2671
g54
(dp2672
g62
I3
ssg63
g2666
sg56
(lp2673
g1231
asbasbasbag49
(g65
g51
NtRp2674
(dp2675
g54
(dp2676
sg63
g2523
sg56
(lp2677
g49
(g70
g51
NtRp2678
(dp2679
g54
(dp2680
g74
g75
ssg63
g2674
sg56
(lp2681
S'HTTP_REFERER'
p2682
asbag49
(g70
g51
NtRp2683
(dp2684
g54
(dp2685
g81
g82
ssg63
g2674
sg56
(lp2686
S':'
asbag49
(g70
g51
NtRp2687
(dp2688
g54
(dp2689
sg63
g2674
sg56
(lp2690
g49
(g50
g51
NtRp2691
(dp2692
g54
(dp2693
g62
I3
ssg63
g2687
sg56
(lp2694
g1253
asbasbasbag49
(g65
g51
NtRp2695
(dp2696
g54
(dp2697
sg63
g2523
sg56
(lp2698
g49
(g70
g51
NtRp2699
(dp2700
g54
(dp2701
g74
g75
ssg63
g2695
sg56
(lp2702
S'HTTP_USER_AGENT'
p2703
asbag49
(g70
g51
NtRp2704
(dp2705
g54
(dp2706
g81
g82
ssg63
g2695
sg56
(lp2707
S':'
asbag49
(g70
g51
NtRp2708
(dp2709
g54
(dp2710
sg63
g2695
sg56
(lp2711
g49
(g50
g51
NtRp2712
(dp2713
g54
(dp2714
g62
I3
ssg63
g2708
sg56
(lp2715
g1275
asbasbasbag49
(g65
g51
NtRp2716
(dp2717
g54
(dp2718
sg63
g2523
sg56
(lp2719
g49
(g70
g51
NtRp2720
(dp2721
g54
(dp2722
g74
g75
ssg63
g2716
sg56
(lp2723
S'PATH_INFO'
p2724
asbag49
(g70
g51
NtRp2725
(dp2726
g54
(dp2727
g81
g82
ssg63
g2716
sg56
(lp2728
S':'
asbag49
(g70
g51
NtRp2729
(dp2730
g54
(dp2731
sg63
g2716
sg56
(lp2732
g49
(g50
g51
NtRp2733
(dp2734
g54
(dp2735
g62
I3
ssg63
g2729
sg56
(lp2736
g1339
asbasbasbag49
(g65
g51
NtRp2737
(dp2738
g54
(dp2739
sg63
g2523
sg56
(lp2740
g49
(g70
g51
NtRp2741
(dp2742
g54
(dp2743
g74
g75
ssg63
g2737
sg56
(lp2744
S'QUERY_STRING'
p2745
asbag49
(g70
g51
NtRp2746
(dp2747
g54
(dp2748
g81
g82
ssg63
g2737
sg56
(lp2749
S':'
asbag49
(g70
g51
NtRp2750
(dp2751
g54
(dp2752
sg63
g2737
sg56
(lp2753
g49
(g50
g51
NtRp2754
(dp2755
g54
(dp2756
g62
I3
ssg63
g2750
sg56
(lp2757
S''
asbasbasbag49
(g65
g51
NtRp2758
(dp2759
g54
(dp2760
sg63
g2523
sg56
(lp2761
g49
(g70
g51
NtRp2762
(dp2763
g54
(dp2764
g74
g75
ssg63
g2758
sg56
(lp2765
S'REMOTE_ADDR'
p2766
asbag49
(g70
g51
NtRp2767
(dp2768
g54
(dp2769
g81
g82
ssg63
g2758
sg56
(lp2770
S':'
asbag49
(g70
g51
NtRp2771
(dp2772
g54
(dp2773
sg63
g2758
sg56
(lp2774
g49
(g50
g51
NtRp2775
(dp2776
g54
(dp2777
g62
I3
ssg63
g2771
sg56
(lp2778
g182
asbasbasbag49
(g65
g51
NtRp2779
(dp2780
g54
(dp2781
sg63
g2523
sg56
(lp2782
g49
(g70
g51
NtRp2783
(dp2784
g54
(dp2785
g74
g75
ssg63
g2779
sg56
(lp2786
S'REMOTE_PORT'
p2787
asbag49
(g70
g51
NtRp2788
(dp2789
g54
(dp2790
g81
g82
ssg63
g2779
sg56
(lp2791
S':'
asbag49
(g70
g51
NtRp2792
(dp2793
g54
(dp2794
sg63
g2779
sg56
(lp2795
g49
(g50
g51
NtRp2796
(dp2797
g54
(dp2798
g62
I3
ssg63
g2792
sg56
(lp2799
g1403
asbasbasbag49
(g65
g51
NtRp2800
(dp2801
g54
(dp2802
sg63
g2523
sg56
(lp2803
g49
(g70
g51
NtRp2804
(dp2805
g54
(dp2806
g74
g75
ssg63
g2800
sg56
(lp2807
S'REQUEST_METHOD'
p2808
asbag49
(g70
g51
NtRp2809
(dp2810
g54
(dp2811
g81
g82
ssg63
g2800
sg56
(lp2812
S':'
asbag49
(g70
g51
NtRp2813
(dp2814
g54
(dp2815
sg63
g2800
sg56
(lp2816
g49
(g50
g51
NtRp2817
(dp2818
g54
(dp2819
g62
I3
ssg63
g2813
sg56
(lp2820
g1425
asbasbasbag49
(g65
g51
NtRp2821
(dp2822
g54
(dp2823
sg63
g2523
sg56
(lp2824
g49
(g70
g51
NtRp2825
(dp2826
g54
(dp2827
g74
g75
ssg63
g2821
sg56
(lp2828
S'SCRIPT_NAME'
p2829
asbag49
(g70
g51
NtRp2830
(dp2831
g54
(dp2832
g81
g82
ssg63
g2821
sg56
(lp2833
S':'
asbag49
(g70
g51
NtRp2834
(dp2835
g54
(dp2836
sg63
g2821
sg56
(lp2837
g49
(g50
g51
NtRp2838
(dp2839
g54
(dp2840
g62
I3
ssg63
g2834
sg56
(lp2841
S''
asbasbasbag49
(g65
g51
NtRp2842
(dp2843
g54
(dp2844
sg63
g2523
sg56
(lp2845
g49
(g70
g51
NtRp2846
(dp2847
g54
(dp2848
g74
g75
ssg63
g2842
sg56
(lp2849
S'SERVER_NAME'
p2850
asbag49
(g70
g51
NtRp2851
(dp2852
g54
(dp2853
g81
g82
ssg63
g2842
sg56
(lp2854
S':'
asbag49
(g70
g51
NtRp2855
(dp2856
g54
(dp2857
sg63
g2842
sg56
(lp2858
g49
(g50
g51
NtRp2859
(dp2860
g54
(dp2861
g62
I3
ssg63
g2855
sg56
(lp2862
g1468
asbasbasbag49
(g65
g51
NtRp2863
(dp2864
g54
(dp2865
sg63
g2523
sg56
(lp2866
g49
(g70
g51
NtRp2867
(dp2868
g54
(dp2869
g74
g75
ssg63
g2863
sg56
(lp2870
S'SERVER_PORT'
p2871
asbag49
(g70
g51
NtRp2872
(dp2873
g54
(dp2874
g81
g82
ssg63
g2863
sg56
(lp2875
S':'
asbag49
(g70
g51
NtRp2876
(dp2877
g54
(dp2878
sg63
g2863
sg56
(lp2879
g49
(g50
g51
NtRp2880
(dp2881
g54
(dp2882
g62
I3
ssg63
g2876
sg56
(lp2883
g1490
asbasbasbag49
(g65
g51
NtRp2884
(dp2885
g54
(dp2886
sg63
g2523
sg56
(lp2887
g49
(g70
g51
NtRp2888
(dp2889
g54
(dp2890
g74
g75
ssg63
g2884
sg56
(lp2891
S'SERVER_PROTOCOL'
p2892
asbag49
(g70
g51
NtRp2893
(dp2894
g54
(dp2895
g81
g82
ssg63
g2884
sg56
(lp2896
S':'
asbag49
(g70
g51
NtRp2897
(dp2898
g54
(dp2899
sg63
g2884
sg56
(lp2900
g49
(g50
g51
NtRp2901
(dp2902
g54
(dp2903
g62
I3
ssg63
g2897
sg56
(lp2904
g1512
asbasbasbag49
(g65
g51
NtRp2905
(dp2906
g54
(dp2907
sg63
g2523
sg56
(lp2908
g49
(g70
g51
NtRp2909
(dp2910
g54
(dp2911
g74
g75
ssg63
g2905
sg56
(lp2912
S'SERVER_SOFTWARE'
p2913
asbag49
(g70
g51
NtRp2914
(dp2915
g54
(dp2916
g81
g82
ssg63
g2905
sg56
(lp2917
S':'
asbag49
(g70
g51
NtRp2918
(dp2919
g54
(dp2920
sg63
g2905
sg56
(lp2921
g49
(g50
g51
NtRp2922
(dp2923
g54
(dp2924
g62
I3
ssg63
g2918
sg56
(lp2925
g1534
asbasbasbag49
(g65
g51
NtRp2926
(dp2927
g54
(dp2928
sg63
g2523
sg56
(lp2929
g49
(g70
g51
NtRp2930
(dp2931
g54
(dp2932
g74
g75
ssg63
g2926
sg56
(lp2933
S'wsgi.errors'
p2934
asbag49
(g70
g51
NtRp2935
(dp2936
g54
(dp2937
g81
g82
ssg63
g2926
sg56
(lp2938
S':'
asbag49
(g70
g51
NtRp2939
(dp2940
g54
(dp2941
sg63
g2926
sg56
(lp2942
g49
(g50
g51
NtRp2943
(dp2944
g54
(dp2945
g62
I3
ssg63
g2939
sg56
(lp2946
S"<open file '<stderr>', mode 'w' at 0x004200B0>"
p2947
asbasbasbag49
(g65
g51
NtRp2948
(dp2949
g54
(dp2950
sg63
g2523
sg56
(lp2951
g49
(g70
g51
NtRp2952
(dp2953
g54
(dp2954
g74
g75
ssg63
g2948
sg56
(lp2955
S'wsgi.file_wrapper'
p2956
asbag49
(g70
g51
NtRp2957
(dp2958
g54
(dp2959
g81
g82
ssg63
g2948
sg56
(lp2960
S':'
asbag49
(g70
g51
NtRp2961
(dp2962
g54
(dp2963
sg63
g2948
sg56
(lp2964
g49
(g50
g51
NtRp2965
(dp2966
g54
(dp2967
g62
I3
ssg63
g2961
sg56
(lp2968
S'<class wsgiref.util.FileWrapper at 0x03115390>'
p2969
asbasbasbag49
(g65
g51
NtRp2970
(dp2971
g54
(dp2972
sg63
g2523
sg56
(lp2973
g49
(g70
g51
NtRp2974
(dp2975
g54
(dp2976
g74
g75
ssg63
g2970
sg56
(lp2977
S'wsgi.input'
p2978
asbag49
(g70
g51
NtRp2979
(dp2980
g54
(dp2981
g81
g82
ssg63
g2970
sg56
(lp2982
S':'
asbag49
(g70
g51
NtRp2983
(dp2984
g54
(dp2985
sg63
g2970
sg56
(lp2986
g49
(g50
g51
NtRp2987
(dp2988
g54
(dp2989
g62
I3
ssg63
g2983
sg56
(lp2990
S'<cStringIO.StringO object at 0x06BA27E0>'
p2991
asbasbasbag49
(g65
g51
NtRp2992
(dp2993
g54
(dp2994
sg63
g2523
sg56
(lp2995
g49
(g70
g51
NtRp2996
(dp2997
g54
(dp2998
g74
g75
ssg63
g2992
sg56
(lp2999
S'wsgi.multiprocess'
p3000
asbag49
(g70
g51
NtRp3001
(dp3002
g54
(dp3003
g81
g82
ssg63
g2992
sg56
(lp3004
S':'
asbag49
(g70
g51
NtRp3005
(dp3006
g54
(dp3007
sg63
g2992
sg56
(lp3008
g49
(g50
g51
NtRp3009
(dp3010
g54
(dp3011
g62
I3
ssg63
g3005
sg56
(lp3012
g92
asbasbasbag49
(g65
g51
NtRp3013
(dp3014
g54
(dp3015
sg63
g2523
sg56
(lp3016
g49
(g70
g51
NtRp3017
(dp3018
g54
(dp3019
g74
g75
ssg63
g3013
sg56
(lp3020
S'wsgi.multithread'
p3021
asbag49
(g70
g51
NtRp3022
(dp3023
g54
(dp3024
g81
g82
ssg63
g3013
sg56
(lp3025
S':'
asbag49
(g70
g51
NtRp3026
(dp3027
g54
(dp3028
sg63
g3013
sg56
(lp3029
g49
(g50
g51
NtRp3030
(dp3031
g54
(dp3032
g62
I3
ssg63
g3026
sg56
(lp3033
g1774
asbasbasbag49
(g65
g51
NtRp3034
(dp3035
g54
(dp3036
sg63
g2523
sg56
(lp3037
g49
(g70
g51
NtRp3038
(dp3039
g54
(dp3040
g74
g75
ssg63
g3034
sg56
(lp3041
S'wsgi.run_once'
p3042
asbag49
(g70
g51
NtRp3043
(dp3044
g54
(dp3045
g81
g82
ssg63
g3034
sg56
(lp3046
S':'
asbag49
(g70
g51
NtRp3047
(dp3048
g54
(dp3049
sg63
g3034
sg56
(lp3050
g49
(g50
g51
NtRp3051
(dp3052
g54
(dp3053
g62
I3
ssg63
g3047
sg56
(lp3054
g92
asbasbasbag49
(g65
g51
NtRp3055
(dp3056
g54
(dp3057
sg63
g2523
sg56
(lp3058
g49
(g70
g51
NtRp3059
(dp3060
g54
(dp3061
g74
g75
ssg63
g3055
sg56
(lp3062
S'wsgi.url_scheme'
p3063
asbag49
(g70
g51
NtRp3064
(dp3065
g54
(dp3066
g81
g82
ssg63
g3055
sg56
(lp3067
S':'
asbag49
(g70
g51
NtRp3068
(dp3069
g54
(dp3070
sg63
g3055
sg56
(lp3071
g49
(g50
g51
NtRp3072
(dp3073
g54
(dp3074
g62
I3
ssg63
g3068
sg56
(lp3075
g1817
asbasbasbag49
(g65
g51
NtRp3076
(dp3077
g54
(dp3078
sg63
g2523
sg56
(lp3079
g49
(g70
g51
NtRp3080
(dp3081
g54
(dp3082
g74
g75
ssg63
g3076
sg56
(lp3083
S'wsgi.version'
p3084
asbag49
(g70
g51
NtRp3085
(dp3086
g54
(dp3087
g81
g82
ssg63
g3076
sg56
(lp3088
S':'
asbag49
(g70
g51
NtRp3089
(dp3090
g54
(dp3091
sg63
g3076
sg56
(lp3092
g49
(g50
g51
NtRp3093
(dp3094
g54
(dp3095
g62
I3
ssg63
g3089
sg56
(lp3096
S'1'
asbasbasbasbasbasbasbasbasbasbasbasbasbsS'frames'
p3097
(lp3098
(dp3099
S'file'
p3100
S'D:\\Dise\xf1o Web\\Proyectos\\Parleyweb\\web2py\\gluon\\restricted.py'
p3101
sS'dump'
p3102
(dp3103
sS'lnum'
p3104
I205
sS'lines'
p3105
(dp3106
sS'call'
p3107
S"(code='# -*- coding: utf-8 -*-\\n# this file is released ...\\n\\n\\n\\n\\n\\n\\n\\n\\n\\nresponse._vars=response._caller(index)\\n', environment={'A': <class 'gluon.html.A'>, 'Auth': <class 'gluon.tools.Auth'>, 'B': <class 'gluon.html.B'>, 'BEAUTIFY': <class 'gluon.html.BEAUTIFY'>, 'BODY': <class 'gluon.html.BODY'>, 'BR': <class 'gluon.html.BR'>, 'BUTTON': <class 'gluon.html.BUTTON'>, 'CAT': <class 'gluon.html.CAT'>, 'CENTER': <class 'gluon.html.CENTER'>, 'CLEANUP': <class 'gluon.validators.CLEANUP'>, ...}, layer='D:\\\\Dise\\xf1o Web\\\\Proyectos\\\\Parleyweb\\\\web2py\\\\applications\\\\parleyweb\\\\controllers/default.py')"
p3108
sS'func'
p3109
S'restricted'
p3110
sa(dp3111
g3100
S'D:\\Dise\xf1o Web\\Proyectos\\Parleyweb\\web2py\\applications\\parleyweb\\controllers\\default.py'
p3112
sg3102
(dp3113
sg3104
I116
sg3105
(dp3114
I105
S''
sI106
S''
sI107
S''
sI108
S''
sI109
S''
sI110
S''
sI111
S''
sI112
S''
sI113
S''
sI114
S''
ssg3107
S'()'
p3115
sg3109
S'<module>'
p3116
sa(dp3117
g3100
S'D:\\Dise\xf1o Web\\Proyectos\\Parleyweb\\web2py\\gluon\\globals.py'
p3118
sg3102
(dp3119
sg3104
I173
sg3105
(dp3120
sg3107
S'(f=<function index at 0x06E86170>)'
p3121
sg3109
S'<lambda>'
p3122
sa(dp3123
g3100
S'D:\\Dise\xf1o Web\\Proyectos\\Parleyweb\\web2py\\applications\\parleyweb\\controllers\\default.py'
p3124
sg3102
(dp3125
sg3104
I19
sg3105
(dp3126
I14
S'    example action using the internationalization operator T and flash'
p3127
sI15
S'    rendered by views/default/index.html or views/generic.html'
p3128
sI16
S'    """'
p3129
sI17
S"    contains_prueba = db(db.ejemplos.ejemplo_de.upper().contains('zeug')).select()"
p3130
sI18
S"    #startswith_prueba = db(db.ejemplos.ejemplo_de.startswith('l')).select()"
p3131
sI19
S'    return dict(contains_prueba = contains_prueba, startswith_prueba = startswith_prueba  )'
p3132
sI20
S''
sI21
S''
sI22
S''
sI23
S''
ssg3107
S'()'
p3133
sg3109
S'index'
p3134
sasS'pyver'
p3135
S'Python 2.5.4: D:\\Dise\xf1o Web\\Proyectos\\Parleyweb\\web2py\\web2py.exe'
p3136
sS'session'
p3137
g49
(g50
g51
NtRp3138
(dp3139
g54
(dp3140
sg56
(lp3141
g49
(g58
g51
NtRp3142
(dp3143
g54
(dp3144
g62
I5
ssg63
Nsg56
(lp3145
g49
(g65
g51
NtRp3146
(dp3147
g54
(dp3148
sg63
g3142
sg56
(lp3149
g49
(g70
g51
NtRp3150
(dp3151
g54
(dp3152
g74
g75
ssg63
g3146
sg56
(lp3153
S'last_query'
p3154
asbag49
(g70
g51
NtRp3155
(dp3156
g54
(dp3157
g81
g82
ssg63
g3146
sg56
(lp3158
S':'
asbag49
(g70
g51
NtRp3159
(dp3160
g54
(dp3161
sg63
g3146
sg56
(lp3162
g49
(g50
g51
NtRp3163
(dp3164
g54
(dp3165
g62
I5
ssg63
g3159
sg56
(lp3166
S'db.palabra_ejemplo.id>0'
p3167
asbasbasbasbasbsS'etype'
p3168
S"<type 'exceptions.NameError'>"
p3169
sS'date'
p3170
S'Mon Mar 12 23:21:24 2012'
p3171
sS'response'
p3172
g49
(g50
g51
NtRp3173
(dp3174
g54
(dp3175
sg56
(lp3176
g49
(g58
g51
NtRp3177
(dp3178
g54
(dp3179
g62
I5
ssg63
Nsg56
(lp3180
g49
(g65
g51
NtRp3181
(dp3182
g54
(dp3183
sg63
g3177
sg56
(lp3184
g49
(g70
g51
NtRp3185
(dp3186
g54
(dp3187
g74
g75
ssg63
g3181
sg56
(lp3188
g147
asbag49
(g70
g51
NtRp3189
(dp3190
g54
(dp3191
g81
g82
ssg63
g3181
sg56
(lp3192
S':'
asbag49
(g70
g51
NtRp3193
(dp3194
g54
(dp3195
sg63
g3181
sg56
(lp3196
g49
(g50
g51
NtRp3197
(dp3198
g54
(dp3199
g62
I5
ssg63
g3193
sg56
(lp3200
S'<cStringIO.StringO object at 0x07871240>'
p3201
asbasbasbag49
(g65
g51
NtRp3202
(dp3203
g54
(dp3204
sg63
g3177
sg56
(lp3205
g49
(g70
g51
NtRp3206
(dp3207
g54
(dp3208
g74
g75
ssg63
g3202
sg56
(lp3209
g213
asbag49
(g70
g51
NtRp3210
(dp3211
g54
(dp3212
g81
g82
ssg63
g3202
sg56
(lp3213
S':'
asbag49
(g70
g51
NtRp3214
(dp3215
g54
(dp3216
sg63
g3202
sg56
(lp3217
g49
(g50
g51
NtRp3218
(dp3219
g54
(dp3220
g62
I5
ssg63
g3214
sg56
(lp3221
g49
(g58
g51
NtRp3222
(dp3223
g54
(dp3224
g62
I4
ssg63
Nsg56
(lp3225
g49
(g65
g51
NtRp3226
(dp3227
g54
(dp3228
sg63
g3222
sg56
(lp3229
g49
(g70
g51
NtRp3230
(dp3231
g54
(dp3232
g74
g75
ssg63
g3226
sg56
(lp3233
S'session_id_parleyweb'
p3234
asbag49
(g70
g51
NtRp3235
(dp3236
g54
(dp3237
g81
g82
ssg63
g3226
sg56
(lp3238
S':'
asbag49
(g70
g51
NtRp3239
(dp3240
g54
(dp3241
sg63
g3226
sg56
(lp3242
g49
(g50
g51
NtRp3243
(dp3244
g54
(dp3245
g62
I4
ssg63
g3239
sg56
(lp3246
g49
(g58
g51
NtRp3247
(dp3248
g54
(dp3249
g62
I3
ssg63
Nsg56
(lp3250
g49
(g65
g51
NtRp3251
(dp3252
g54
(dp3253
sg63
g3247
sg56
(lp3254
g49
(g70
g51
NtRp3255
(dp3256
g54
(dp3257
g74
g75
ssg63
g3251
sg56
(lp3258
g263
asbag49
(g70
g51
NtRp3259
(dp3260
g54
(dp3261
g81
g82
ssg63
g3251
sg56
(lp3262
S':'
asbag49
(g70
g51
NtRp3263
(dp3264
g54
(dp3265
sg63
g3251
sg56
(lp3266
g49
(g50
g51
NtRp3267
(dp3268
g54
(dp3269
g62
I3
ssg63
g3263
sg56
(lp3270
S''
asbasbasbag49
(g65
g51
NtRp3271
(dp3272
g54
(dp3273
sg63
g3247
sg56
(lp3274
g49
(g70
g51
NtRp3275
(dp3276
g54
(dp3277
g74
g75
ssg63
g3271
sg56
(lp3278
g284
asbag49
(g70
g51
NtRp3279
(dp3280
g54
(dp3281
g81
g82
ssg63
g3271
sg56
(lp3282
S':'
asbag49
(g70
g51
NtRp3283
(dp3284
g54
(dp3285
sg63
g3271
sg56
(lp3286
g49
(g50
g51
NtRp3287
(dp3288
g54
(dp3289
g62
I3
ssg63
g3283
sg56
(lp3290
S''
asbasbasbag49
(g65
g51
NtRp3291
(dp3292
g54
(dp3293
sg63
g3247
sg56
(lp3294
g49
(g70
g51
NtRp3295
(dp3296
g54
(dp3297
g74
g75
ssg63
g3291
sg56
(lp3298
g305
asbag49
(g70
g51
NtRp3299
(dp3300
g54
(dp3301
g81
g82
ssg63
g3291
sg56
(lp3302
S':'
asbag49
(g70
g51
NtRp3303
(dp3304
g54
(dp3305
sg63
g3291
sg56
(lp3306
g49
(g50
g51
NtRp3307
(dp3308
g54
(dp3309
g62
I3
ssg63
g3303
sg56
(lp3310
S''
asbasbasbag49
(g65
g51
NtRp3311
(dp3312
g54
(dp3313
sg63
g3247
sg56
(lp3314
g49
(g70
g51
NtRp3315
(dp3316
g54
(dp3317
g74
g75
ssg63
g3311
sg56
(lp3318
g326
asbag49
(g70
g51
NtRp3319
(dp3320
g54
(dp3321
g81
g82
ssg63
g3311
sg56
(lp3322
S':'
asbag49
(g70
g51
NtRp3323
(dp3324
g54
(dp3325
sg63
g3311
sg56
(lp3326
g49
(g50
g51
NtRp3327
(dp3328
g54
(dp3329
g62
I3
ssg63
g3323
sg56
(lp3330
S''
asbasbasbag49
(g65
g51
NtRp3331
(dp3332
g54
(dp3333
sg63
g3247
sg56
(lp3334
g49
(g70
g51
NtRp3335
(dp3336
g54
(dp3337
g74
g75
ssg63
g3331
sg56
(lp3338
g347
asbag49
(g70
g51
NtRp3339
(dp3340
g54
(dp3341
g81
g82
ssg63
g3331
sg56
(lp3342
S':'
asbag49
(g70
g51
NtRp3343
(dp3344
g54
(dp3345
sg63
g3331
sg56
(lp3346
g49
(g50
g51
NtRp3347
(dp3348
g54
(dp3349
g62
I3
ssg63
g3343
sg56
(lp3350
S'/'
asbasbasbag49
(g65
g51
NtRp3351
(dp3352
g54
(dp3353
sg63
g3247
sg56
(lp3354
g49
(g70
g51
NtRp3355
(dp3356
g54
(dp3357
g74
g75
ssg63
g3351
sg56
(lp3358
g368
asbag49
(g70
g51
NtRp3359
(dp3360
g54
(dp3361
g81
g82
ssg63
g3351
sg56
(lp3362
S':'
asbag49
(g70
g51
NtRp3363
(dp3364
g54
(dp3365
sg63
g3351
sg56
(lp3366
g49
(g50
g51
NtRp3367
(dp3368
g54
(dp3369
g62
I3
ssg63
g3363
sg56
(lp3370
S''
asbasbasbag49
(g65
g51
NtRp3371
(dp3372
g54
(dp3373
sg63
g3247
sg56
(lp3374
g49
(g70
g51
NtRp3375
(dp3376
g54
(dp3377
g74
g75
ssg63
g3371
sg56
(lp3378
g389
asbag49
(g70
g51
NtRp3379
(dp3380
g54
(dp3381
g81
g82
ssg63
g3371
sg56
(lp3382
S':'
asbag49
(g70
g51
NtRp3383
(dp3384
g54
(dp3385
sg63
g3371
sg56
(lp3386
g49
(g50
g51
NtRp3387
(dp3388
g54
(dp3389
g62
I3
ssg63
g3383
sg56
(lp3390
S''
asbasbasbasbasbasbasbasbasbasbasbag49
(g65
g51
NtRp3391
(dp3392
g54
(dp3393
sg63
g3177
sg56
(lp3394
g49
(g70
g51
NtRp3395
(dp3396
g54
(dp3397
g74
g75
ssg63
g3391
sg56
(lp3398
S'delimiters'
p3399
asbag49
(g70
g51
NtRp3400
(dp3401
g54
(dp3402
g81
g82
ssg63
g3391
sg56
(lp3403
S':'
asbag49
(g70
g51
NtRp3404
(dp3405
g54
(dp3406
sg63
g3391
sg56
(lp3407
g49
(g50
g51
NtRp3408
(dp3409
g54
(dp3410
g62
I5
ssg63
g3404
sg56
(lp3411
g49
(g58
g51
NtRp3412
(dp3413
g54
(dp3414
g62
I4
ssg63
Nsg56
(lp3415
g49
(g65
g51
NtRp3416
(dp3417
g54
(dp3418
sg63
g3412
sg56
(lp3419
g49
(g70
g51
NtRp3420
(dp3421
g54
(dp3422
sg63
g3416
sg56
(lp3423
g49
(g50
g51
NtRp3424
(dp3425
g54
(dp3426
g62
I4
ssg63
g3420
sg56
(lp3427
S'{{'
p3428
asbasbasbag49
(g65
g51
NtRp3429
(dp3430
g54
(dp3431
sg63
g3412
sg56
(lp3432
g49
(g70
g51
NtRp3433
(dp3434
g54
(dp3435
sg63
g3429
sg56
(lp3436
g49
(g50
g51
NtRp3437
(dp3438
g54
(dp3439
g62
I4
ssg63
g3433
sg56
(lp3440
S'}}'
p3441
asbasbasbasbasbasbasbag49
(g65
g51
NtRp3442
(dp3443
g54
(dp3444
sg63
g3177
sg56
(lp3445
g49
(g70
g51
NtRp3446
(dp3447
g54
(dp3448
g74
g75
ssg63
g3442
sg56
(lp3449
S'files'
p3450
asbag49
(g70
g51
NtRp3451
(dp3452
g54
(dp3453
g81
g82
ssg63
g3442
sg56
(lp3454
S':'
asbag49
(g70
g51
NtRp3455
(dp3456
g54
(dp3457
sg63
g3442
sg56
(lp3458
g49
(g50
g51
NtRp3459
(dp3460
g54
(dp3461
g62
I5
ssg63
g3455
sg56
(lp3462
g49
(g58
g51
NtRp3463
(dp3464
g54
(dp3465
g62
I4
ssg63
Nsg56
(lp3466
sbasbasbasbag49
(g65
g51
NtRp3467
(dp3468
g54
(dp3469
sg63
g3177
sg56
(lp3470
g49
(g70
g51
NtRp3471
(dp3472
g54
(dp3473
g74
g75
ssg63
g3467
sg56
(lp3474
S'flash'
p3475
asbag49
(g70
g51
NtRp3476
(dp3477
g54
(dp3478
g81
g82
ssg63
g3467
sg56
(lp3479
S':'
asbag49
(g70
g51
NtRp3480
(dp3481
g54
(dp3482
sg63
g3467
sg56
(lp3483
g49
(g50
g51
NtRp3484
(dp3485
g54
(dp3486
g62
I5
ssg63
g3480
sg56
(lp3487
S''
asbasbasbag49
(g65
g51
NtRp3488
(dp3489
g54
(dp3490
sg63
g3177
sg56
(lp3491
g49
(g70
g51
NtRp3492
(dp3493
g54
(dp3494
g74
g75
ssg63
g3488
sg56
(lp3495
S'generic_patterns'
p3496
asbag49
(g70
g51
NtRp3497
(dp3498
g54
(dp3499
g81
g82
ssg63
g3488
sg56
(lp3500
S':'
asbag49
(g70
g51
NtRp3501
(dp3502
g54
(dp3503
sg63
g3488
sg56
(lp3504
g49
(g50
g51
NtRp3505
(dp3506
g54
(dp3507
g62
I5
ssg63
g3501
sg56
(lp3508
g49
(g58
g51
NtRp3509
(dp3510
g54
(dp3511
g62
I4
ssg63
Nsg56
(lp3512
g49
(g65
g51
NtRp3513
(dp3514
g54
(dp3515
sg63
g3509
sg56
(lp3516
g49
(g70
g51
NtRp3517
(dp3518
g54
(dp3519
sg63
g3513
sg56
(lp3520
g49
(g50
g51
NtRp3521
(dp3522
g54
(dp3523
g62
I4
ssg63
g3517
sg56
(lp3524
S'*'
asbasbasbasbasbasbasbag49
(g65
g51
NtRp3525
(dp3526
g54
(dp3527
sg63
g3177
sg56
(lp3528
g49
(g70
g51
NtRp3529
(dp3530
g54
(dp3531
g74
g75
ssg63
g3525
sg56
(lp3532
S'headers'
p3533
asbag49
(g70
g51
NtRp3534
(dp3535
g54
(dp3536
g81
g82
ssg63
g3525
sg56
(lp3537
S':'
asbag49
(g70
g51
NtRp3538
(dp3539
g54
(dp3540
sg63
g3525
sg56
(lp3541
g49
(g50
g51
NtRp3542
(dp3543
g54
(dp3544
g62
I5
ssg63
g3538
sg56
(lp3545
g49
(g58
g51
NtRp3546
(dp3547
g54
(dp3548
g62
I4
ssg63
Nsg56
(lp3549
g49
(g65
g51
NtRp3550
(dp3551
g54
(dp3552
sg63
g3546
sg56
(lp3553
g49
(g70
g51
NtRp3554
(dp3555
g54
(dp3556
g74
g75
ssg63
g3550
sg56
(lp3557
S'Cache-Control'
p3558
asbag49
(g70
g51
NtRp3559
(dp3560
g54
(dp3561
g81
g82
ssg63
g3550
sg56
(lp3562
S':'
asbag49
(g70
g51
NtRp3563
(dp3564
g54
(dp3565
sg63
g3550
sg56
(lp3566
g49
(g50
g51
NtRp3567
(dp3568
g54
(dp3569
g62
I4
ssg63
g3563
sg56
(lp3570
S'no-store, no-cache, must-revalidate, post-check=0, pre-check=0'
p3571
asbasbasbag49
(g65
g51
NtRp3572
(dp3573
g54
(dp3574
sg63
g3546
sg56
(lp3575
g49
(g70
g51
NtRp3576
(dp3577
g54
(dp3578
g74
g75
ssg63
g3572
sg56
(lp3579
S'Content-Type'
p3580
asbag49
(g70
g51
NtRp3581
(dp3582
g54
(dp3583
g81
g82
ssg63
g3572
sg56
(lp3584
S':'
asbag49
(g70
g51
NtRp3585
(dp3586
g54
(dp3587
sg63
g3572
sg56
(lp3588
g49
(g50
g51
NtRp3589
(dp3590
g54
(dp3591
g62
I4
ssg63
g3585
sg56
(lp3592
S'text/html; charset=utf-8'
p3593
asbasbasbag49
(g65
g51
NtRp3594
(dp3595
g54
(dp3596
sg63
g3546
sg56
(lp3597
g49
(g70
g51
NtRp3598
(dp3599
g54
(dp3600
g74
g75
ssg63
g3594
sg56
(lp3601
S'Expires'
p3602
asbag49
(g70
g51
NtRp3603
(dp3604
g54
(dp3605
g81
g82
ssg63
g3594
sg56
(lp3606
S':'
asbag49
(g70
g51
NtRp3607
(dp3608
g54
(dp3609
sg63
g3594
sg56
(lp3610
g49
(g50
g51
NtRp3611
(dp3612
g54
(dp3613
g62
I4
ssg63
g3607
sg56
(lp3614
S'Mon, 12 Mar 2012 22:21:24 GMT'
p3615
asbasbasbag49
(g65
g51
NtRp3616
(dp3617
g54
(dp3618
sg63
g3546
sg56
(lp3619
g49
(g70
g51
NtRp3620
(dp3621
g54
(dp3622
g74
g75
ssg63
g3616
sg56
(lp3623
S'Pragma'
p3624
asbag49
(g70
g51
NtRp3625
(dp3626
g54
(dp3627
g81
g82
ssg63
g3616
sg56
(lp3628
S':'
asbag49
(g70
g51
NtRp3629
(dp3630
g54
(dp3631
sg63
g3616
sg56
(lp3632
g49
(g50
g51
NtRp3633
(dp3634
g54
(dp3635
g62
I4
ssg63
g3629
sg56
(lp3636
S'no-cache'
p3637
asbasbasbag49
(g65
g51
NtRp3638
(dp3639
g54
(dp3640
sg63
g3546
sg56
(lp3641
g49
(g70
g51
NtRp3642
(dp3643
g54
(dp3644
g74
g75
ssg63
g3638
sg56
(lp3645
S'X-Powered-By'
p3646
asbag49
(g70
g51
NtRp3647
(dp3648
g54
(dp3649
g81
g82
ssg63
g3638
sg56
(lp3650
S':'
asbag49
(g70
g51
NtRp3651
(dp3652
g54
(dp3653
sg63
g3638
sg56
(lp3654
g49
(g50
g51
NtRp3655
(dp3656
g54
(dp3657
g62
I4
ssg63
g3651
sg56
(lp3658
S'web2py'
p3659
asbasbasbasbasbasbasbag49
(g65
g51
NtRp3660
(dp3661
g54
(dp3662
sg63
g3177
sg56
(lp3663
g49
(g70
g51
NtRp3664
(dp3665
g54
(dp3666
g74
g75
ssg63
g3660
sg56
(lp3667
S'menu'
p3668
asbag49
(g70
g51
NtRp3669
(dp3670
g54
(dp3671
g81
g82
ssg63
g3660
sg56
(lp3672
S':'
asbag49
(g70
g51
NtRp3673
(dp3674
g54
(dp3675
sg63
g3660
sg56
(lp3676
g49
(g50
g51
NtRp3677
(dp3678
g54
(dp3679
g62
I5
ssg63
g3673
sg56
(lp3680
g49
(g58
g51
NtRp3681
(dp3682
g54
(dp3683
g62
I4
ssg63
Nsg56
(lp3684
g49
(g65
g51
NtRp3685
(dp3686
g54
(dp3687
sg63
g3681
sg56
(lp3688
g49
(g70
g51
NtRp3689
(dp3690
g54
(dp3691
sg63
g3685
sg56
(lp3692
g49
(g50
g51
NtRp3693
(dp3694
g54
(dp3695
g62
I4
ssg63
g3689
sg56
(lp3696
g49
(g58
g51
NtRp3697
(dp3698
g54
(dp3699
g62
I3
ssg63
Nsg56
(lp3700
g49
(g65
g51
NtRp3701
(dp3702
g54
(dp3703
sg63
g3697
sg56
(lp3704
g49
(g70
g51
NtRp3705
(dp3706
g54
(dp3707
sg63
g3701
sg56
(lp3708
g49
(g50
g51
NtRp3709
(dp3710
g54
(dp3711
g62
I3
ssg63
g3705
sg56
(lp3712
cgluon.languages
lazyT_unpickle
p3713
(S't\x04\x00\x00\x00Home'
tRp3714
asbasbasbag49
(g65
g51
NtRp3715
(dp3716
g54
(dp3717
sg63
g3697
sg56
(lp3718
g49
(g70
g51
NtRp3719
(dp3720
g54
(dp3721
sg63
g3715
sg56
(lp3722
g49
(g50
g51
NtRp3723
(dp3724
g54
(dp3725
g62
I3
ssg63
g3719
sg56
(lp3726
g92
asbasbasbag49
(g65
g51
NtRp3727
(dp3728
g54
(dp3729
sg63
g3697
sg56
(lp3730
g49
(g70
g51
NtRp3731
(dp3732
g54
(dp3733
sg63
g3727
sg56
(lp3734
g49
(g50
g51
NtRp3735
(dp3736
g54
(dp3737
g62
I3
ssg63
g3731
sg56
(lp3738
S'/parleyweb/default/index'
p3739
asbasbasbag49
(g65
g51
NtRp3740
(dp3741
g54
(dp3742
sg63
g3697
sg56
(lp3743
g49
(g70
g51
NtRp3744
(dp3745
g54
(dp3746
sg63
g3740
sg56
(lp3747
g49
(g50
g51
NtRp3748
(dp3749
g54
(dp3750
g62
I3
ssg63
g3744
sg56
(lp3751
g49
(g58
g51
NtRp3752
(dp3753
g54
(dp3754
g62
I2
ssg63
Nsg56
(lp3755
sbasbasbasbasbasbasbasbasbasbasbasbag49
(g65
g51
NtRp3756
(dp3757
g54
(dp3758
sg63
g3177
sg56
(lp3759
g49
(g70
g51
NtRp3760
(dp3761
g54
(dp3762
g74
g75
ssg63
g3756
sg56
(lp3763
S'meta'
p3764
asbag49
(g70
g51
NtRp3765
(dp3766
g54
(dp3767
g81
g82
ssg63
g3756
sg56
(lp3768
S':'
asbag49
(g70
g51
NtRp3769
(dp3770
g54
(dp3771
sg63
g3756
sg56
(lp3772
g49
(g50
g51
NtRp3773
(dp3774
g54
(dp3775
g62
I5
ssg63
g3769
sg56
(lp3776
g49
(g58
g51
NtRp3777
(dp3778
g54
(dp3779
g62
I4
ssg63
Nsg56
(lp3780
g49
(g65
g51
NtRp3781
(dp3782
g54
(dp3783
sg63
g3777
sg56
(lp3784
g49
(g70
g51
NtRp3785
(dp3786
g54
(dp3787
g74
g75
ssg63
g3781
sg56
(lp3788
S'author'
p3789
asbag49
(g70
g51
NtRp3790
(dp3791
g54
(dp3792
g81
g82
ssg63
g3781
sg56
(lp3793
S':'
asbag49
(g70
g51
NtRp3794
(dp3795
g54
(dp3796
sg63
g3781
sg56
(lp3797
g49
(g50
g51
NtRp3798
(dp3799
g54
(dp3800
g62
I4
ssg63
g3794
sg56
(lp3801
S'Your Name <you@example.com>'
p3802
asbasbasbag49
(g65
g51
NtRp3803
(dp3804
g54
(dp3805
sg63
g3777
sg56
(lp3806
g49
(g70
g51
NtRp3807
(dp3808
g54
(dp3809
g74
g75
ssg63
g3803
sg56
(lp3810
S'copyright'
p3811
asbag49
(g70
g51
NtRp3812
(dp3813
g54
(dp3814
g81
g82
ssg63
g3803
sg56
(lp3815
S':'
asbag49
(g70
g51
NtRp3816
(dp3817
g54
(dp3818
sg63
g3803
sg56
(lp3819
g49
(g50
g51
NtRp3820
(dp3821
g54
(dp3822
g62
I4
ssg63
g3816
sg56
(lp3823
S'Copyright 2011'
p3824
asbasbasbag49
(g65
g51
NtRp3825
(dp3826
g54
(dp3827
sg63
g3777
sg56
(lp3828
g49
(g70
g51
NtRp3829
(dp3830
g54
(dp3831
g74
g75
ssg63
g3825
sg56
(lp3832
S'description'
p3833
asbag49
(g70
g51
NtRp3834
(dp3835
g54
(dp3836
g81
g82
ssg63
g3825
sg56
(lp3837
S':'
asbag49
(g70
g51
NtRp3838
(dp3839
g54
(dp3840
sg63
g3825
sg56
(lp3841
g49
(g50
g51
NtRp3842
(dp3843
g54
(dp3844
g62
I4
ssg63
g3838
sg56
(lp3845
S'a cool new app'
p3846
asbasbasbag49
(g65
g51
NtRp3847
(dp3848
g54
(dp3849
sg63
g3777
sg56
(lp3850
g49
(g70
g51
NtRp3851
(dp3852
g54
(dp3853
g74
g75
ssg63
g3847
sg56
(lp3854
S'generator'
p3855
asbag49
(g70
g51
NtRp3856
(dp3857
g54
(dp3858
g81
g82
ssg63
g3847
sg56
(lp3859
S':'
asbag49
(g70
g51
NtRp3860
(dp3861
g54
(dp3862
sg63
g3847
sg56
(lp3863
g49
(g50
g51
NtRp3864
(dp3865
g54
(dp3866
g62
I4
ssg63
g3860
sg56
(lp3867
S'Web2py Web Framework'
p3868
asbasbasbag49
(g65
g51
NtRp3869
(dp3870
g54
(dp3871
sg63
g3777
sg56
(lp3872
g49
(g70
g51
NtRp3873
(dp3874
g54
(dp3875
g74
g75
ssg63
g3869
sg56
(lp3876
S'keywords'
p3877
asbag49
(g70
g51
NtRp3878
(dp3879
g54
(dp3880
g81
g82
ssg63
g3869
sg56
(lp3881
S':'
asbag49
(g70
g51
NtRp3882
(dp3883
g54
(dp3884
sg63
g3869
sg56
(lp3885
g49
(g50
g51
NtRp3886
(dp3887
g54
(dp3888
g62
I4
ssg63
g3882
sg56
(lp3889
S'web2py, python, framework'
p3890
asbasbasbasbasbasbasbag49
(g65
g51
NtRp3891
(dp3892
g54
(dp3893
sg63
g3177
sg56
(lp3894
g49
(g70
g51
NtRp3895
(dp3896
g54
(dp3897
g74
g75
ssg63
g3891
sg56
(lp3898
S'postprocessing'
p3899
asbag49
(g70
g51
NtRp3900
(dp3901
g54
(dp3902
g81
g82
ssg63
g3891
sg56
(lp3903
S':'
asbag49
(g70
g51
NtRp3904
(dp3905
g54
(dp3906
sg63
g3891
sg56
(lp3907
g49
(g50
g51
NtRp3908
(dp3909
g54
(dp3910
g62
I5
ssg63
g3904
sg56
(lp3911
g49
(g58
g51
NtRp3912
(dp3913
g54
(dp3914
g62
I4
ssg63
Nsg56
(lp3915
sbasbasbasbag49
(g65
g51
NtRp3916
(dp3917
g54
(dp3918
sg63
g3177
sg56
(lp3919
g49
(g70
g51
NtRp3920
(dp3921
g54
(dp3922
g74
g75
ssg63
g3916
sg56
(lp3923
S'session_file'
p3924
asbag49
(g70
g51
NtRp3925
(dp3926
g54
(dp3927
g81
g82
ssg63
g3916
sg56
(lp3928
S':'
asbag49
(g70
g51
NtRp3929
(dp3930
g54
(dp3931
sg63
g3916
sg56
(lp3932
g49
(g50
g51
NtRp3933
(dp3934
g54
(dp3935
g62
I5
ssg63
g3929
sg56
(lp3936
S"<open file 'D:\\Dise\xf1o Web\\Proyectos\\Parleyweb\\web2py\\applications\\parleyweb\\sessions\\127.0.0.1-2049810e-c086-402c-857f-06991c56216c', mode 'rb+' at 0x07930650>"
p3937
asbasbasbag49
(g65
g51
NtRp3938
(dp3939
g54
(dp3940
sg63
g3177
sg56
(lp3941
g49
(g70
g51
NtRp3942
(dp3943
g54
(dp3944
g74
g75
ssg63
g3938
sg56
(lp3945
S'session_filename'
p3946
asbag49
(g70
g51
NtRp3947
(dp3948
g54
(dp3949
g81
g82
ssg63
g3938
sg56
(lp3950
S':'
asbag49
(g70
g51
NtRp3951
(dp3952
g54
(dp3953
sg63
g3938
sg56
(lp3954
g49
(g50
g51
NtRp3955
(dp3956
g54
(dp3957
g62
I5
ssg63
g3951
sg56
(lp3958
S'D:\\Dise\xf1o Web\\Proyectos\\Parleyweb\\web2py\\applications\\parleyweb\\sessions\\127.0.0.1-2049810e-c086-402c-857f-06991c56216c'
p3959
asbasbasbag49
(g65
g51
NtRp3960
(dp3961
g54
(dp3962
sg63
g3177
sg56
(lp3963
g49
(g70
g51
NtRp3964
(dp3965
g54
(dp3966
g74
g75
ssg63
g3960
sg56
(lp3967
S'session_id'
p3968
asbag49
(g70
g51
NtRp3969
(dp3970
g54
(dp3971
g81
g82
ssg63
g3960
sg56
(lp3972
S':'
asbag49
(g70
g51
NtRp3973
(dp3974
g54
(dp3975
sg63
g3960
sg56
(lp3976
g49
(g50
g51
NtRp3977
(dp3978
g54
(dp3979
g62
I5
ssg63
g3973
sg56
(lp3980
S'127.0.0.1-2049810e-c086-402c-857f-06991c56216c'
p3981
asbasbasbag49
(g65
g51
NtRp3982
(dp3983
g54
(dp3984
sg63
g3177
sg56
(lp3985
g49
(g70
g51
NtRp3986
(dp3987
g54
(dp3988
g74
g75
ssg63
g3982
sg56
(lp3989
S'session_id_name'
p3990
asbag49
(g70
g51
NtRp3991
(dp3992
g54
(dp3993
g81
g82
ssg63
g3982
sg56
(lp3994
S':'
asbag49
(g70
g51
NtRp3995
(dp3996
g54
(dp3997
sg63
g3982
sg56
(lp3998
g49
(g50
g51
NtRp3999
(dp4000
g54
(dp4001
g62
I5
ssg63
g3995
sg56
(lp4002
g3234
asbasbasbag49
(g65
g51
NtRp4003
(dp4004
g54
(dp4005
sg63
g3177
sg56
(lp4006
g49
(g70
g51
NtRp4007
(dp4008
g54
(dp4009
g74
g75
ssg63
g4003
sg56
(lp4010
S'session_locked'
p4011
asbag49
(g70
g51
NtRp4012
(dp4013
g54
(dp4014
g81
g82
ssg63
g4003
sg56
(lp4015
S':'
asbag49
(g70
g51
NtRp4016
(dp4017
g54
(dp4018
sg63
g4003
sg56
(lp4019
g49
(g50
g51
NtRp4020
(dp4021
g54
(dp4022
g62
I5
ssg63
g4016
sg56
(lp4023
g1774
asbasbasbag49
(g65
g51
NtRp4024
(dp4025
g54
(dp4026
sg63
g3177
sg56
(lp4027
g49
(g70
g51
NtRp4028
(dp4029
g54
(dp4030
g74
g75
ssg63
g4024
sg56
(lp4031
S'session_new'
p4032
asbag49
(g70
g51
NtRp4033
(dp4034
g54
(dp4035
g81
g82
ssg63
g4024
sg56
(lp4036
S':'
asbag49
(g70
g51
NtRp4037
(dp4038
g54
(dp4039
sg63
g4024
sg56
(lp4040
g49
(g50
g51
NtRp4041
(dp4042
g54
(dp4043
g62
I5
ssg63
g4037
sg56
(lp4044
g92
asbasbasbag49
(g65
g51
NtRp4045
(dp4046
g54
(dp4047
sg63
g3177
sg56
(lp4048
g49
(g70
g51
NtRp4049
(dp4050
g54
(dp4051
g74
g75
ssg63
g4045
sg56
(lp4052
S'status'
p4053
asbag49
(g70
g51
NtRp4054
(dp4055
g54
(dp4056
g81
g82
ssg63
g4045
sg56
(lp4057
S':'
asbag49
(g70
g51
NtRp4058
(dp4059
g54
(dp4060
sg63
g4045
sg56
(lp4061
g49
(g50
g51
NtRp4062
(dp4063
g54
(dp4064
g62
I5
ssg63
g4058
sg56
(lp4065
S'200'
p4066
asbasbasbag49
(g65
g51
NtRp4067
(dp4068
g54
(dp4069
sg63
g3177
sg56
(lp4070
g49
(g70
g51
NtRp4071
(dp4072
g54
(dp4073
g74
g75
ssg63
g4067
sg56
(lp4074
S'subtitle'
p4075
asbag49
(g70
g51
NtRp4076
(dp4077
g54
(dp4078
g81
g82
ssg63
g4067
sg56
(lp4079
S':'
asbag49
(g70
g51
NtRp4080
(dp4081
g54
(dp4082
sg63
g4067
sg56
(lp4083
g49
(g50
g51
NtRp4084
(dp4085
g54
(dp4086
g62
I5
ssg63
g4080
sg56
(lp4087
g3713
(S's\t\x00\x00\x00Adaptame!'
tRp4088
asbasbasbag49
(g65
g51
NtRp4089
(dp4090
g54
(dp4091
sg63
g3177
sg56
(lp4092
g49
(g70
g51
NtRp4093
(dp4094
g54
(dp4095
g74
g75
ssg63
g4089
sg56
(lp4096
S'title'
p4097
asbag49
(g70
g51
NtRp4098
(dp4099
g54
(dp4100
g81
g82
ssg63
g4089
sg56
(lp4101
S':'
asbag49
(g70
g51
NtRp4102
(dp4103
g54
(dp4104
sg63
g4089
sg56
(lp4105
g49
(g50
g51
NtRp4106
(dp4107
g54
(dp4108
g62
I5
ssg63
g4102
sg56
(lp4109
S'Parleyweb'
p4110
asbasbasbag49
(g65
g51
NtRp4111
(dp4112
g54
(dp4113
sg63
g3177
sg56
(lp4114
g49
(g70
g51
NtRp4115
(dp4116
g54
(dp4117
g74
g75
ssg63
g4111
sg56
(lp4118
g2438
asbag49
(g70
g51
NtRp4119
(dp4120
g54
(dp4121
g81
g82
ssg63
g4111
sg56
(lp4122
S':'
asbag49
(g70
g51
NtRp4123
(dp4124
g54
(dp4125
sg63
g4111
sg56
(lp4126
g49
(g50
g51
NtRp4127
(dp4128
g54
(dp4129
g62
I5
ssg63
g4123
sg56
(lp4130
g2451
asbasbasbag49
(g65
g51
NtRp4131
(dp4132
g54
(dp4133
sg63
g3177
sg56
(lp4134
g49
(g70
g51
NtRp4135
(dp4136
g54
(dp4137
g74
g75
ssg63
g4131
sg56
(lp4138
S'view'
p4139
asbag49
(g70
g51
NtRp4140
(dp4141
g54
(dp4142
g81
g82
ssg63
g4131
sg56
(lp4143
S':'
asbag49
(g70
g51
NtRp4144
(dp4145
g54
(dp4146
sg63
g4131
sg56
(lp4147
g49
(g50
g51
NtRp4148
(dp4149
g54
(dp4150
g62
I5
ssg63
g4144
sg56
(lp4151
S'default/index.html'
p4152
asbasbasbasbasbsS'locals'
p4153
(dp4154
S'contains_prueba'
p4155
S'<gluon.dal.Rows object at 0x075215B0>'
p4156
sssS'traceback'
p4157
S'Traceback (most recent call last):\n  File "gluon/restricted.py", line 205, in restricted\n  File "D:\\Dise\xf1o Web\\Proyectos\\Parleyweb\\web2py\\applications\\parleyweb\\controllers/default.py", line 116, in <module>\n  File "gluon/globals.py", line 173, in <lambda>\n  File "D:\\Dise\xf1o Web\\Proyectos\\Parleyweb\\web2py\\applications\\parleyweb\\controllers/default.py", line 19, in index\nNameError: global name \'startswith_prueba\' is not defined\n'
p4158
s.