(dp1
S'output'
p2
S'<class \'sqlite3.OperationalError\'> near "WHERE": syntax error'
p3
sS'layer'
p4
S'D:\\Dise\xf1o Web\\Proyectos\\Parleyweb\\web2py\\applications\\webparley\\models\\db.py'
p5
sS'code'
p6
S'# -*- coding: utf-8 -*-\n\n#########################################################################\n## This scaffolding model makes your app work on Google App Engine too\n## File is released under public domain and you can use without limitations\n#########################################################################\n\n## if SSL/HTTPS is properly configured and you want all HTTP requests to\n## be redirected to HTTPS, uncomment the line below:\n# request.requires_https()\n\nif not request.env.web2py_runtime_gae:\n    ## if NOT running on Google App Engine use SQLite or other DB\n    db = DAL(\'sqlite://storage.sqlite\')\nelse:\n    ## connect to Google BigTable (optional \'google:datastore://namespace\')\n    db = DAL(\'google:datastore\')\n    ## store sessions and tickets there\n    session.connect(request, response, db = db)\n    ## or store session in Memcache, Redis, etc.\n    ## from gluon.contrib.memdb import MEMDB\n    ## from google.appengine.api.memcache import Client\n    ## session.connect(request, response, db = MEMDB(Client()))\n\n## by default give a view/generic.extension to all actions from localhost\n## none otherwise. a pattern can be \'controller/function.extension\'\nresponse.generic_patterns = [\'*\'] if request.is_local else []\n## (optional) optimize handling of static files\n# response.optimize_css = \'concat,minify,inline\'\n# response.optimize_js = \'concat,minify,inline\'\n\n#########################################################################\n## Here is sample code if you need for\n## - email capabilities\n## - authentication (registration, login, logout, ... )\n## - authorization (role based authorization)\n## - services (xml, csv, json, xmlrpc, jsonrpc, amf, rss)\n## - old style crud actions\n## (more options discussed in gluon/tools.py)\n#########################################################################\n\nfrom gluon.tools import Auth, Crud, Service, PluginManager, prettydate\nauth = Auth(db, hmac_key=Auth.get_or_create_key())\ncrud, service, plugins = Crud(db), Service(), PluginManager()\n\n\n\n## create all tables needed by auth if not custom tables\nauth.define_tables()\n\n## configure email\nmail=auth.settings.mailer\nmail.settings.server = \'logging\' or \'smtp.gmail.com:587\'\nmail.settings.sender = \'you@gmail.com\'\nmail.settings.login = \'username:password\'\n\n## configure auth policy\nauth.settings.registration_requires_verification = False\nauth.settings.registration_requires_approval = False\nauth.settings.reset_password_requires_verification = True\n\n## if you need to use OpenID, Facebook, MySpace, Twitter, Linkedin, etc.\n## register with janrain.com, write your domain:api_key in private/janrain.key\nfrom gluon.contrib.login_methods.rpx_account import use_janrain\nuse_janrain(auth,filename=\'private/janrain.key\')\n\n#########################################################################\n## Define your tables below (or better in another model file) for example\n##\n## >>> db.define_table(\'mytable\',Field(\'myfield\',\'string\'))\n##\n## Fields can be \'string\',\'text\',\'password\',\'integer\',\'double\',\'boolean\'\n##       \'date\',\'time\',\'datetime\',\'blob\',\'upload\', \'reference TABLENAME\'\n## There is an implicit \'id integer autoincrement\' field\n## Consult manual for more options, validators, etc.\n##\n## More API examples for controllers:\n##\n## >>> db.mytable.insert(myfield=\'value\')\n## >>> rows=db(db.mytable.myfield==\'value\').select(db.mytable.ALL)\n## >>> for row in rows: print row.id, row.myfield\n#########################################################################\n\ndb.define_table(\'glosarios\',\n                Field(\'nombre_glosario\', unique=True), # no puede estar repetido\n                #Field(\'descripcion_glosario\',  widget=SQLFORM.widgets.text.widget), #poner widget mostrar como campo text\n                format = \'%(nombre_glosario)s\'\n                )\n\ndb.define_table(\'palabras\',\n                Field(\'palabra\', \'string\', unique=True),\n                Field(\'sustantivo\', \'boolean\'),\n                Field(\'articulo\'),\n                Field(\'plural\', \'string\'),\n                Field(\'imagen\', \'upload\'),\n                Field(\'adverbio\', \'boolean\'),\n                Field(\'adjetivo\', \'boolean\'),\n                # verbo\n                Field(\'verbo\', \'boolean\'),\n                Field(\'verbo_irregular\', \'boolean\'),\n                Field(\'participio2\', \'string\'),\n                Field(\'reflexivo\', \'boolean\'),\n                Field(\'presente_1\'),\n                Field(\'presente_2\'),\n                Field(\'presente_3\'),\n                Field(\'presente_1_p\'),\n                Field(\'presente_2_p\'),\n                Field(\'presente_3_p\'),\n                Field(\'anadir_glosario\', \'boolean\'),\n                Field(\'glosario\', \'list:reference glosarios\')\n                )\n\ndb.define_table(\'fuentes\',\n                Field(\'nombre\', \'string\')\n                )\n\ndb.define_table(\'ejemplos\',\n                Field(\'ejemplo_de\', \'text\'),  # no puede estar vacio\n                Field(\'ejemplo_es\', \'text\'),   # puede estar vacio\n                Field(\'adverbio\', \'boolean\'),\n                Field(\'verbo\', \'boolean\'),\n                Field(\'adjetivo\', \'boolean\'),\n                Field(\'sustantivo\', \'boolean\'),\n                Field(\'preposicion\', \'boolean\'),\n                Field(\'fuente\', db.fuentes)\n                )\ndb.define_table(\'palabra_ejemplo\',  # refereciada por los Id\n                Field(\'palabra\', db.palabras),   # no puede estar vacio\n                Field(\'ejemplo\', db.ejemplos))   # no puede estar vacio\n\n## Tablas para los widget de autocompletar ##\n\ndb.define_table(\'autocompletar_palabra\',\n                Field(\'palabra\')\n                )\n\ndb.define_table(\'busqueda\',\n                 Field(\'buscar_palabra\')\n                 )\n\ndb.define_table(\'busqueda_front\',\n                 Field(\'buscar_palabra\')\n                 )\n\n### Validacion glosario referece ###\n#db.palabras.glosario.requires = IS_IN_DB(db,\'glosarios.id\',db.glosarios._format,multiple=True)\n\n\n### Validaciones tabla glosario ###\n#db.glosarios.nombre_glosario.requires = IS_NOT_IN_DB(db,\'glosarios.nombre_glosario\')\n\n### Autocompletar palabra ###\n#db.autocompletar_palabra.palabra.widget = SQLFORM.widgets.autocomplete(\n  #   request, db.palabras.palabra, limitby=(0,10), min_length=1)\n\n### Autocompletar busqueda ###\ndb.busqueda.buscar_palabra.widget = SQLFORM.widgets.autocomplete(\n     request, db.palabras.palabra, limitby=(0,10), min_length=1)\n\n### Autocompletar busqueda front ###\ndb.busqueda_front.buscar_palabra.widget = SQLFORM.widgets.autocomplete(\n     request, db.palabras.palabra, limitby=(0,10), min_length=1)\n\n\n### Validacion tabla palabras ###\n#db.palabras.palabra.represent = lambda palabra: palabra.capitalize()\ndb.palabras.articulo.requires = IS_EMPTY_OR(IS_IN_SET([\'Die\', \'Der\', \'Das\'],zero=T(\'Elige uno\'),\n         error_message=T(\'Elige Die, Der o Das\')))\n#db.palabras.glosario.requires = IS_EMPTY_OR(IS_IN_DB(db, \'glosarios.id\', \'%(nombre_glosario)s\'))\n\n\n \n### WIDGET AUTOCOMPLETAR para la tabla fuentes ###\ndb.ejemplos.fuente.widget = SQLFORM.widgets.autocomplete(\n     request, db.fuentes.nombre, id_field=db.fuentes.id, min_length=1)\ndb.fuentes.nombre.requires = IS_NOT_EMPTY()\n\n### Validierung EJEMPLOS ###\ndb.ejemplos.ejemplo_de.requires = IS_NOT_EMPTY()\ndb.ejemplos.ejemplo_es.requires = IS_NOT_EMPTY()\n\n\n### WIDGET AUTOCOMPLETAR para la tabla palabra_ejemplo ###\ndb.palabra_ejemplo.palabra.widget = SQLFORM.widgets.autocomplete(\n     request, db.palabras.palabra, id_field=db.palabras.id, min_length=1)\ndb.palabra_ejemplo.ejemplo.widget = SQLFORM.widgets.autocomplete(\n     request, db.ejemplos.ejemplo_de, id_field=db.ejemplos.id, min_length=1)\n\n### Caja de busqueda de palabra administracion ###\nform_busqueda_palabra_admin = SQLFORM(db.busqueda, formstyle=\'divs\', _id="buscar_palabra_admin", submit_button=\'Enviar\')\nif form_busqueda_palabra_admin.accepts(request.vars, session, dbio=False): # metodo para validar las entradas del formulario, dbio=False no guarda en la bases de datos\n    a = db(db.palabras.palabra==request.post_vars.buscar_palabra).select().first()\n    if not a:\n        redirect(URL(\'agregar_palabra\', vars=dict(a=request.post_vars.buscar_palabra)))\n        \n    else:\n        id_palabra = db(db.palabras.palabra==request.post_vars.buscar_palabra).select().first()\n        redirect(URL(\'mostrar_palabra\', args=id_palabra.id))\n        \n### Caja de busqueda de palabra la pagina principal ###\nform_busqueda_palabra_front = SQLFORM(db.busqueda_front, formstyle=\'divs\', _id="buscar_palabra_front", submit_button=\'Buscar\')\nif form_busqueda_palabra_front.accepts(request.vars, session, dbio=False): # metodo para validar las entradas del formulario, dbio=False no guarda en la bases de datos\n    a = db(db.palabras.palabra==request.post_vars.buscar_palabra).select().first()\n    if not a:\n        session.flash = "Palabra no existe"\n    else:\n        id_palabra = db(db.palabras.palabra==request.post_vars.buscar_palabra).select().first()\n        redirect(URL(\'default\', \'mostrar\', args=id_palabra.id))\n\n\n### buscar e imprimir glosarios ###\nbuscar_glosarios = db().select(db.glosarios.nombre_glosario)\n\n### Contar los registro de las tablas principales ###\ntotal_palabras = db(db.palabras > 0).count()\ntotal_ejemplos = db(db.ejemplos > 0).count()\n\n####################################################################\n#                    Codigo para pegar y copiar\n#\n# db.palabras.palabra.requires = IS_NOT_IN_DB(db,\'palabras.palabra\') << Devuelve un error si el campo se encuentra en la DB o si estas vacio. tambien se le debe colocar el  unique=True  >> \n# db.palabras.palabra.requires = IS_NOT_EMPTY() << no es necesario si se usa este validador >>\n# db.palabra_ejemplo.ejemplo.requires = IS_IN_DB(db, \'ejemplo.id\', \'%(ejemplo)s\') << este validador crea una lista >>\n# db.palabras.articulo.requires = IS_IN_SET([\'Die\', \'Der\', \'Das\'],zero=T(\'Elige uno\'), error_message=T(\'Elige Die, Der o Das\'))\n#  db.busqueda.buscar_palabra.widget = SQLFORM.widgets.autocomplete(request, db.palabras.palabra, limitby=(0,10), min_length=2)      \n#db.busqueda.buscar_palabra.widget = SQLFORM.widgets.autocomplete(request, db.palabras.palabra, id_field=db.palabras.id, min_length=1)\n#\n#\n#\n#\n#\n#\n#\n#\n#\n#\n#\n#\n#\n\n'
p7
sS'snapshot'
p8
(dp9
S'exception'
p10
(dp11
S'__hash__'
p12
S"<method-wrapper '__hash__' of OperationalError object at 0x075F6A08>"
p13
sS'__module__'
p14
S"'sqlite3'"
p15
sS'__reduce_ex__'
p16
S'<built-in method __reduce_ex__ of OperationalError object at 0x075F6A08>'
p17
sS'__getslice__'
p18
S"<method-wrapper '__getslice__' of OperationalError object at 0x075F6A08>"
p19
sS'__getitem__'
p20
S"<method-wrapper '__getitem__' of OperationalError object at 0x075F6A08>"
p21
sS'__setstate__'
p22
S'<built-in method __setstate__ of OperationalError object at 0x075F6A08>'
p23
sS'__reduce__'
p24
S'<built-in method __reduce__ of OperationalError object at 0x075F6A08>'
p25
sS'__str__'
p26
S"<method-wrapper '__str__' of OperationalError object at 0x075F6A08>"
p27
sS'args'
p28
S'(\'near "WHERE": syntax error\',)'
p29
sS'__getattribute__'
p30
S"<method-wrapper '__getattribute__' of OperationalError object at 0x075F6A08>"
p31
sS'__class__'
p32
S"<class 'sqlite3.OperationalError'>"
p33
sS'__delattr__'
p34
S"<method-wrapper '__delattr__' of OperationalError object at 0x075F6A08>"
p35
sS'__repr__'
p36
S"<method-wrapper '__repr__' of OperationalError object at 0x075F6A08>"
p37
sS'__setattr__'
p38
S"<method-wrapper '__setattr__' of OperationalError object at 0x075F6A08>"
p39
sS'__dict__'
p40
S'{}'
p41
sS'__weakref__'
p42
S'None'
p43
sS'__doc__'
p44
S'None'
p45
sS'__init__'
p46
S"<method-wrapper '__init__' of OperationalError object at 0x075F6A08>"
p47
sS'__new__'
p48
S'<built-in method __new__ of type object at 0x1E1CCCB0>'
p49
ssS'evalue'
p50
S'near "WHERE": syntax error'
p51
sS'request'
p52
ccopy_reg
_reconstructor
p53
(cgluon.html
BEAUTIFY
p54
c__builtin__
object
p55
NtRp56
(dp57
S'attributes'
p58
(dp59
sS'components'
p60
(lp61
g53
(cgluon.html
TABLE
p62
g55
NtRp63
(dp64
g58
(dp65
S'level'
p66
I5
ssS'parent'
p67
Nsg60
(lp68
g53
(cgluon.html
TR
p69
g55
NtRp70
(dp71
g58
(dp72
sg67
g63
sg60
(lp73
g53
(cgluon.html
TD
p74
g55
NtRp75
(dp76
g58
(dp77
S'_style'
p78
S'font-weight:bold;vertical-align:top'
p79
ssg67
g70
sg60
(lp80
S'ajax'
p81
asbag53
(g74
g55
NtRp82
(dp83
g58
(dp84
S'_valign'
p85
S'top'
p86
ssg67
g70
sg60
(lp87
S':'
asbag53
(g74
g55
NtRp88
(dp89
g58
(dp90
sg67
g70
sg60
(lp91
g53
(g54
g55
NtRp92
(dp93
g58
(dp94
g66
I5
ssg67
g88
sg60
(lp95
S'False'
p96
asbasbasbag53
(g69
g55
NtRp97
(dp98
g58
(dp99
sg67
g63
sg60
(lp100
g53
(g74
g55
NtRp101
(dp102
g58
(dp103
g78
g79
ssg67
g97
sg60
(lp104
S'application'
p105
asbag53
(g74
g55
NtRp106
(dp107
g58
(dp108
g85
g86
ssg67
g97
sg60
(lp109
S':'
asbag53
(g74
g55
NtRp110
(dp111
g58
(dp112
sg67
g97
sg60
(lp113
g53
(g54
g55
NtRp114
(dp115
g58
(dp116
g66
I5
ssg67
g110
sg60
(lp117
S'webparley'
p118
asbasbasbag53
(g69
g55
NtRp119
(dp120
g58
(dp121
sg67
g63
sg60
(lp122
g53
(g74
g55
NtRp123
(dp124
g58
(dp125
g78
g79
ssg67
g119
sg60
(lp126
g28
asbag53
(g74
g55
NtRp127
(dp128
g58
(dp129
g85
g86
ssg67
g119
sg60
(lp130
S':'
asbag53
(g74
g55
NtRp131
(dp132
g58
(dp133
sg67
g119
sg60
(lp134
g53
(g54
g55
NtRp135
(dp136
g58
(dp137
g66
I5
ssg67
g131
sg60
(lp138
g53
(g62
g55
NtRp139
(dp140
g58
(dp141
g66
I4
ssg67
Nsg60
(lp142
sbasbasbasbag53
(g69
g55
NtRp143
(dp144
g58
(dp145
sg67
g63
sg60
(lp146
g53
(g74
g55
NtRp147
(dp148
g58
(dp149
g78
g79
ssg67
g143
sg60
(lp150
S'body'
p151
asbag53
(g74
g55
NtRp152
(dp153
g58
(dp154
g85
g86
ssg67
g143
sg60
(lp155
S':'
asbag53
(g74
g55
NtRp156
(dp157
g58
(dp158
sg67
g143
sg60
(lp159
g53
(g54
g55
NtRp160
(dp161
g58
(dp162
g66
I5
ssg67
g156
sg60
(lp163
S'<cStringIO.StringO object at 0x032B63C0>'
p164
asbasbasbag53
(g69
g55
NtRp165
(dp166
g58
(dp167
sg67
g63
sg60
(lp168
g53
(g74
g55
NtRp169
(dp170
g58
(dp171
g78
g79
ssg67
g165
sg60
(lp172
S'client'
p173
asbag53
(g74
g55
NtRp174
(dp175
g58
(dp176
g85
g86
ssg67
g165
sg60
(lp177
S':'
asbag53
(g74
g55
NtRp178
(dp179
g58
(dp180
sg67
g165
sg60
(lp181
g53
(g54
g55
NtRp182
(dp183
g58
(dp184
g66
I5
ssg67
g178
sg60
(lp185
S'127.0.0.1'
p186
asbasbasbag53
(g69
g55
NtRp187
(dp188
g58
(dp189
sg67
g63
sg60
(lp190
g53
(g74
g55
NtRp191
(dp192
g58
(dp193
g78
g79
ssg67
g187
sg60
(lp194
S'controller'
p195
asbag53
(g74
g55
NtRp196
(dp197
g58
(dp198
g85
g86
ssg67
g187
sg60
(lp199
S':'
asbag53
(g74
g55
NtRp200
(dp201
g58
(dp202
sg67
g187
sg60
(lp203
g53
(g54
g55
NtRp204
(dp205
g58
(dp206
g66
I5
ssg67
g200
sg60
(lp207
S'admin'
p208
asbasbasbag53
(g69
g55
NtRp209
(dp210
g58
(dp211
sg67
g63
sg60
(lp212
g53
(g74
g55
NtRp213
(dp214
g58
(dp215
g78
g79
ssg67
g209
sg60
(lp216
S'cookies'
p217
asbag53
(g74
g55
NtRp218
(dp219
g58
(dp220
g85
g86
ssg67
g209
sg60
(lp221
S':'
asbag53
(g74
g55
NtRp222
(dp223
g58
(dp224
sg67
g209
sg60
(lp225
g53
(g54
g55
NtRp226
(dp227
g58
(dp228
g66
I5
ssg67
g222
sg60
(lp229
g53
(g62
g55
NtRp230
(dp231
g58
(dp232
g66
I4
ssg67
Nsg60
(lp233
g53
(g69
g55
NtRp234
(dp235
g58
(dp236
sg67
g230
sg60
(lp237
g53
(g74
g55
NtRp238
(dp239
g58
(dp240
g78
g79
ssg67
g234
sg60
(lp241
S'session_id_admin'
p242
asbag53
(g74
g55
NtRp243
(dp244
g58
(dp245
g85
g86
ssg67
g234
sg60
(lp246
S':'
asbag53
(g74
g55
NtRp247
(dp248
g58
(dp249
sg67
g234
sg60
(lp250
g53
(g54
g55
NtRp251
(dp252
g58
(dp253
g66
I4
ssg67
g247
sg60
(lp254
g53
(g62
g55
NtRp255
(dp256
g58
(dp257
g66
I3
ssg67
Nsg60
(lp258
g53
(g69
g55
NtRp259
(dp260
g58
(dp261
sg67
g255
sg60
(lp262
g53
(g74
g55
NtRp263
(dp264
g58
(dp265
g78
g79
ssg67
g259
sg60
(lp266
S'comment'
p267
asbag53
(g74
g55
NtRp268
(dp269
g58
(dp270
g85
g86
ssg67
g259
sg60
(lp271
S':'
asbag53
(g74
g55
NtRp272
(dp273
g58
(dp274
sg67
g259
sg60
(lp275
g53
(g54
g55
NtRp276
(dp277
g58
(dp278
g66
I3
ssg67
g272
sg60
(lp279
S''
asbasbasbag53
(g69
g55
NtRp280
(dp281
g58
(dp282
sg67
g255
sg60
(lp283
g53
(g74
g55
NtRp284
(dp285
g58
(dp286
g78
g79
ssg67
g280
sg60
(lp287
S'domain'
p288
asbag53
(g74
g55
NtRp289
(dp290
g58
(dp291
g85
g86
ssg67
g280
sg60
(lp292
S':'
asbag53
(g74
g55
NtRp293
(dp294
g58
(dp295
sg67
g280
sg60
(lp296
g53
(g54
g55
NtRp297
(dp298
g58
(dp299
g66
I3
ssg67
g293
sg60
(lp300
S''
asbasbasbag53
(g69
g55
NtRp301
(dp302
g58
(dp303
sg67
g255
sg60
(lp304
g53
(g74
g55
NtRp305
(dp306
g58
(dp307
g78
g79
ssg67
g301
sg60
(lp308
S'expires'
p309
asbag53
(g74
g55
NtRp310
(dp311
g58
(dp312
g85
g86
ssg67
g301
sg60
(lp313
S':'
asbag53
(g74
g55
NtRp314
(dp315
g58
(dp316
sg67
g301
sg60
(lp317
g53
(g54
g55
NtRp318
(dp319
g58
(dp320
g66
I3
ssg67
g314
sg60
(lp321
S''
asbasbasbag53
(g69
g55
NtRp322
(dp323
g58
(dp324
sg67
g255
sg60
(lp325
g53
(g74
g55
NtRp326
(dp327
g58
(dp328
g78
g79
ssg67
g322
sg60
(lp329
S'max-age'
p330
asbag53
(g74
g55
NtRp331
(dp332
g58
(dp333
g85
g86
ssg67
g322
sg60
(lp334
S':'
asbag53
(g74
g55
NtRp335
(dp336
g58
(dp337
sg67
g322
sg60
(lp338
g53
(g54
g55
NtRp339
(dp340
g58
(dp341
g66
I3
ssg67
g335
sg60
(lp342
S''
asbasbasbag53
(g69
g55
NtRp343
(dp344
g58
(dp345
sg67
g255
sg60
(lp346
g53
(g74
g55
NtRp347
(dp348
g58
(dp349
g78
g79
ssg67
g343
sg60
(lp350
S'path'
p351
asbag53
(g74
g55
NtRp352
(dp353
g58
(dp354
g85
g86
ssg67
g343
sg60
(lp355
S':'
asbag53
(g74
g55
NtRp356
(dp357
g58
(dp358
sg67
g343
sg60
(lp359
g53
(g54
g55
NtRp360
(dp361
g58
(dp362
g66
I3
ssg67
g356
sg60
(lp363
S''
asbasbasbag53
(g69
g55
NtRp364
(dp365
g58
(dp366
sg67
g255
sg60
(lp367
g53
(g74
g55
NtRp368
(dp369
g58
(dp370
g78
g79
ssg67
g364
sg60
(lp371
S'secure'
p372
asbag53
(g74
g55
NtRp373
(dp374
g58
(dp375
g85
g86
ssg67
g364
sg60
(lp376
S':'
asbag53
(g74
g55
NtRp377
(dp378
g58
(dp379
sg67
g364
sg60
(lp380
g53
(g54
g55
NtRp381
(dp382
g58
(dp383
g66
I3
ssg67
g377
sg60
(lp384
S''
asbasbasbag53
(g69
g55
NtRp385
(dp386
g58
(dp387
sg67
g255
sg60
(lp388
g53
(g74
g55
NtRp389
(dp390
g58
(dp391
g78
g79
ssg67
g385
sg60
(lp392
S'version'
p393
asbag53
(g74
g55
NtRp394
(dp395
g58
(dp396
g85
g86
ssg67
g385
sg60
(lp397
S':'
asbag53
(g74
g55
NtRp398
(dp399
g58
(dp400
sg67
g385
sg60
(lp401
g53
(g54
g55
NtRp402
(dp403
g58
(dp404
g66
I3
ssg67
g398
sg60
(lp405
S''
asbasbasbasbasbasbasbag53
(g69
g55
NtRp406
(dp407
g58
(dp408
sg67
g230
sg60
(lp409
g53
(g74
g55
NtRp410
(dp411
g58
(dp412
g78
g79
ssg67
g406
sg60
(lp413
S'session_id_webparley'
p414
asbag53
(g74
g55
NtRp415
(dp416
g58
(dp417
g85
g86
ssg67
g406
sg60
(lp418
S':'
asbag53
(g74
g55
NtRp419
(dp420
g58
(dp421
sg67
g406
sg60
(lp422
g53
(g54
g55
NtRp423
(dp424
g58
(dp425
g66
I4
ssg67
g419
sg60
(lp426
g53
(g62
g55
NtRp427
(dp428
g58
(dp429
g66
I3
ssg67
Nsg60
(lp430
g53
(g69
g55
NtRp431
(dp432
g58
(dp433
sg67
g427
sg60
(lp434
g53
(g74
g55
NtRp435
(dp436
g58
(dp437
g78
g79
ssg67
g431
sg60
(lp438
g267
asbag53
(g74
g55
NtRp439
(dp440
g58
(dp441
g85
g86
ssg67
g431
sg60
(lp442
S':'
asbag53
(g74
g55
NtRp443
(dp444
g58
(dp445
sg67
g431
sg60
(lp446
g53
(g54
g55
NtRp447
(dp448
g58
(dp449
g66
I3
ssg67
g443
sg60
(lp450
S''
asbasbasbag53
(g69
g55
NtRp451
(dp452
g58
(dp453
sg67
g427
sg60
(lp454
g53
(g74
g55
NtRp455
(dp456
g58
(dp457
g78
g79
ssg67
g451
sg60
(lp458
g288
asbag53
(g74
g55
NtRp459
(dp460
g58
(dp461
g85
g86
ssg67
g451
sg60
(lp462
S':'
asbag53
(g74
g55
NtRp463
(dp464
g58
(dp465
sg67
g451
sg60
(lp466
g53
(g54
g55
NtRp467
(dp468
g58
(dp469
g66
I3
ssg67
g463
sg60
(lp470
S''
asbasbasbag53
(g69
g55
NtRp471
(dp472
g58
(dp473
sg67
g427
sg60
(lp474
g53
(g74
g55
NtRp475
(dp476
g58
(dp477
g78
g79
ssg67
g471
sg60
(lp478
g309
asbag53
(g74
g55
NtRp479
(dp480
g58
(dp481
g85
g86
ssg67
g471
sg60
(lp482
S':'
asbag53
(g74
g55
NtRp483
(dp484
g58
(dp485
sg67
g471
sg60
(lp486
g53
(g54
g55
NtRp487
(dp488
g58
(dp489
g66
I3
ssg67
g483
sg60
(lp490
S''
asbasbasbag53
(g69
g55
NtRp491
(dp492
g58
(dp493
sg67
g427
sg60
(lp494
g53
(g74
g55
NtRp495
(dp496
g58
(dp497
g78
g79
ssg67
g491
sg60
(lp498
g330
asbag53
(g74
g55
NtRp499
(dp500
g58
(dp501
g85
g86
ssg67
g491
sg60
(lp502
S':'
asbag53
(g74
g55
NtRp503
(dp504
g58
(dp505
sg67
g491
sg60
(lp506
g53
(g54
g55
NtRp507
(dp508
g58
(dp509
g66
I3
ssg67
g503
sg60
(lp510
S''
asbasbasbag53
(g69
g55
NtRp511
(dp512
g58
(dp513
sg67
g427
sg60
(lp514
g53
(g74
g55
NtRp515
(dp516
g58
(dp517
g78
g79
ssg67
g511
sg60
(lp518
g351
asbag53
(g74
g55
NtRp519
(dp520
g58
(dp521
g85
g86
ssg67
g511
sg60
(lp522
S':'
asbag53
(g74
g55
NtRp523
(dp524
g58
(dp525
sg67
g511
sg60
(lp526
g53
(g54
g55
NtRp527
(dp528
g58
(dp529
g66
I3
ssg67
g523
sg60
(lp530
S''
asbasbasbag53
(g69
g55
NtRp531
(dp532
g58
(dp533
sg67
g427
sg60
(lp534
g53
(g74
g55
NtRp535
(dp536
g58
(dp537
g78
g79
ssg67
g531
sg60
(lp538
g372
asbag53
(g74
g55
NtRp539
(dp540
g58
(dp541
g85
g86
ssg67
g531
sg60
(lp542
S':'
asbag53
(g74
g55
NtRp543
(dp544
g58
(dp545
sg67
g531
sg60
(lp546
g53
(g54
g55
NtRp547
(dp548
g58
(dp549
g66
I3
ssg67
g543
sg60
(lp550
S''
asbasbasbag53
(g69
g55
NtRp551
(dp552
g58
(dp553
sg67
g427
sg60
(lp554
g53
(g74
g55
NtRp555
(dp556
g58
(dp557
g78
g79
ssg67
g551
sg60
(lp558
g393
asbag53
(g74
g55
NtRp559
(dp560
g58
(dp561
g85
g86
ssg67
g551
sg60
(lp562
S':'
asbag53
(g74
g55
NtRp563
(dp564
g58
(dp565
sg67
g551
sg60
(lp566
g53
(g54
g55
NtRp567
(dp568
g58
(dp569
g66
I3
ssg67
g563
sg60
(lp570
S''
asbasbasbasbasbasbasbasbasbasbasbag53
(g69
g55
NtRp571
(dp572
g58
(dp573
sg67
g63
sg60
(lp574
g53
(g74
g55
NtRp575
(dp576
g58
(dp577
g78
g79
ssg67
g571
sg60
(lp578
S'env'
p579
asbag53
(g74
g55
NtRp580
(dp581
g58
(dp582
g85
g86
ssg67
g571
sg60
(lp583
S':'
asbag53
(g74
g55
NtRp584
(dp585
g58
(dp586
sg67
g571
sg60
(lp587
g53
(g54
g55
NtRp588
(dp589
g58
(dp590
g66
I5
ssg67
g584
sg60
(lp591
g53
(g62
g55
NtRp592
(dp593
g58
(dp594
g66
I4
ssg67
Nsg60
(lp595
g53
(g69
g55
NtRp596
(dp597
g58
(dp598
sg67
g592
sg60
(lp599
g53
(g74
g55
NtRp600
(dp601
g58
(dp602
g78
g79
ssg67
g596
sg60
(lp603
S'app_folders'
p604
asbag53
(g74
g55
NtRp605
(dp606
g58
(dp607
g85
g86
ssg67
g596
sg60
(lp608
S':'
asbag53
(g74
g55
NtRp609
(dp610
g58
(dp611
sg67
g596
sg60
(lp612
g53
(g54
g55
NtRp613
(dp614
g58
(dp615
g66
I4
ssg67
g609
sg60
(lp616
S"set(['D:\\\\Dise\\xf1o Web\\\\Proyectos\\\\Parleyweb\\\\web2py\\\\applications\\\\admin\\\\', 'D:\\\\Dise\\xf1o Web\\\\Proyectos\\\\Parleyweb\\\\web2py\\\\applications\\\\webparley\\\\'])"
p617
asbasbasbag53
(g69
g55
NtRp618
(dp619
g58
(dp620
sg67
g592
sg60
(lp621
g53
(g74
g55
NtRp622
(dp623
g58
(dp624
g78
g79
ssg67
g618
sg60
(lp625
S'applications_parent'
p626
asbag53
(g74
g55
NtRp627
(dp628
g58
(dp629
g85
g86
ssg67
g618
sg60
(lp630
S':'
asbag53
(g74
g55
NtRp631
(dp632
g58
(dp633
sg67
g618
sg60
(lp634
g53
(g54
g55
NtRp635
(dp636
g58
(dp637
g66
I4
ssg67
g631
sg60
(lp638
S'D:\\Dise\xf1o Web\\Proyectos\\Parleyweb\\web2py'
p639
asbasbasbag53
(g69
g55
NtRp640
(dp641
g58
(dp642
sg67
g592
sg60
(lp643
g53
(g74
g55
NtRp644
(dp645
g58
(dp646
g78
g79
ssg67
g640
sg60
(lp647
S'cmd_args'
p648
asbag53
(g74
g55
NtRp649
(dp650
g58
(dp651
g85
g86
ssg67
g640
sg60
(lp652
S':'
asbag53
(g74
g55
NtRp653
(dp654
g58
(dp655
sg67
g640
sg60
(lp656
g53
(g54
g55
NtRp657
(dp658
g58
(dp659
g66
I4
ssg67
g653
sg60
(lp660
g53
(g62
g55
NtRp661
(dp662
g58
(dp663
g66
I3
ssg67
Nsg60
(lp664
sbasbasbasbag53
(g69
g55
NtRp665
(dp666
g58
(dp667
sg67
g592
sg60
(lp668
g53
(g74
g55
NtRp669
(dp670
g58
(dp671
g78
g79
ssg67
g665
sg60
(lp672
S'cmd_options'
p673
asbag53
(g74
g55
NtRp674
(dp675
g58
(dp676
g85
g86
ssg67
g665
sg60
(lp677
S':'
asbag53
(g74
g55
NtRp678
(dp679
g58
(dp680
sg67
g665
sg60
(lp681
g53
(g54
g55
NtRp682
(dp683
g58
(dp684
g66
I4
ssg67
g678
sg60
(lp685
S"<Values at 0x30cc260: {'verbose': False, 'ip': '127.0.0.1', 'shutdown_timeout': 5, 'taskbar': False, 'nocron': False, 'pid_filename': 'httpserver.pid', 'maxthreads': None, 'softcron': False, 'server_name': 'craxsnet-PC', 'bpython': False, 'nogui': False, 'port': 8000, 'extcron': False, 'debuglevel': 30, 'test': None, 'folder': 'D:\\\\Dise\\xf1o Web\\\\Proyectos\\\\Parleyweb\\\\web2py', 'config': '', 'import_models': False, 'winservice': '', 'shell': None, 'run': '', 'log_filename': 'httpserver.log', 'args': [''], 'socket_timeout': 5, 'ssl_ca_certificate': None, 'scheduler': None, 'profiler_filename': None, 'ssl_private_key': '', 'password': '<ask>', 'request_queue_size': 5, 'ssl_certificate': '', 'cronjob': False, 'numthreads': None, 'quiet': False, 'interfaces': None, 'minthreads': None, 'timeout': 10, 'plain': False, 'nobanner': False}>"
p686
asbasbasbag53
(g69
g55
NtRp687
(dp688
g58
(dp689
sg67
g592
sg60
(lp690
g53
(g74
g55
NtRp691
(dp692
g58
(dp693
g78
g79
ssg67
g687
sg60
(lp694
S'db_sessions'
p695
asbag53
(g74
g55
NtRp696
(dp697
g58
(dp698
g85
g86
ssg67
g687
sg60
(lp699
S':'
asbag53
(g74
g55
NtRp700
(dp701
g58
(dp702
sg67
g687
sg60
(lp703
g53
(g54
g55
NtRp704
(dp705
g58
(dp706
g66
I4
ssg67
g700
sg60
(lp707
S'set([])'
p708
asbasbasbag53
(g69
g55
NtRp709
(dp710
g58
(dp711
sg67
g592
sg60
(lp712
g53
(g74
g55
NtRp713
(dp714
g58
(dp715
g78
g79
ssg67
g709
sg60
(lp716
S'debugging'
p717
asbag53
(g74
g55
NtRp718
(dp719
g58
(dp720
g85
g86
ssg67
g709
sg60
(lp721
S':'
asbag53
(g74
g55
NtRp722
(dp723
g58
(dp724
sg67
g709
sg60
(lp725
g53
(g54
g55
NtRp726
(dp727
g58
(dp728
g66
I4
ssg67
g722
sg60
(lp729
g96
asbasbasbag53
(g69
g55
NtRp730
(dp731
g58
(dp732
sg67
g592
sg60
(lp733
g53
(g74
g55
NtRp734
(dp735
g58
(dp736
g78
g79
ssg67
g730
sg60
(lp737
S'gluon_parent'
p738
asbag53
(g74
g55
NtRp739
(dp740
g58
(dp741
g85
g86
ssg67
g730
sg60
(lp742
S':'
asbag53
(g74
g55
NtRp743
(dp744
g58
(dp745
sg67
g730
sg60
(lp746
g53
(g54
g55
NtRp747
(dp748
g58
(dp749
g66
I4
ssg67
g743
sg60
(lp750
S'D:\\Dise\xf1o Web\\Proyectos\\Parleyweb\\web2py'
p751
asbasbasbag53
(g69
g55
NtRp752
(dp753
g58
(dp754
sg67
g592
sg60
(lp755
g53
(g74
g55
NtRp756
(dp757
g58
(dp758
g78
g79
ssg67
g752
sg60
(lp759
S'http_accept'
p760
asbag53
(g74
g55
NtRp761
(dp762
g58
(dp763
g85
g86
ssg67
g752
sg60
(lp764
S':'
asbag53
(g74
g55
NtRp765
(dp766
g58
(dp767
sg67
g752
sg60
(lp768
g53
(g54
g55
NtRp769
(dp770
g58
(dp771
g66
I4
ssg67
g765
sg60
(lp772
S'text/html,application/xhtml+xml,application/xml;q=0.9,*/*;q=0.8'
p773
asbasbasbag53
(g69
g55
NtRp774
(dp775
g58
(dp776
sg67
g592
sg60
(lp777
g53
(g74
g55
NtRp778
(dp779
g58
(dp780
g78
g79
ssg67
g774
sg60
(lp781
S'http_accept_encoding'
p782
asbag53
(g74
g55
NtRp783
(dp784
g58
(dp785
g85
g86
ssg67
g774
sg60
(lp786
S':'
asbag53
(g74
g55
NtRp787
(dp788
g58
(dp789
sg67
g774
sg60
(lp790
g53
(g54
g55
NtRp791
(dp792
g58
(dp793
g66
I4
ssg67
g787
sg60
(lp794
S'gzip, deflate'
p795
asbasbasbag53
(g69
g55
NtRp796
(dp797
g58
(dp798
sg67
g592
sg60
(lp799
g53
(g74
g55
NtRp800
(dp801
g58
(dp802
g78
g79
ssg67
g796
sg60
(lp803
S'http_accept_language'
p804
asbag53
(g74
g55
NtRp805
(dp806
g58
(dp807
g85
g86
ssg67
g796
sg60
(lp808
S':'
asbag53
(g74
g55
NtRp809
(dp810
g58
(dp811
sg67
g796
sg60
(lp812
g53
(g54
g55
NtRp813
(dp814
g58
(dp815
g66
I4
ssg67
g809
sg60
(lp816
S'es-es,de-de;q=0.8,es;q=0.6,en-us;q=0.4,en;q=0.2'
p817
asbasbasbag53
(g69
g55
NtRp818
(dp819
g58
(dp820
sg67
g592
sg60
(lp821
g53
(g74
g55
NtRp822
(dp823
g58
(dp824
g78
g79
ssg67
g818
sg60
(lp825
S'http_cache_control'
p826
asbag53
(g74
g55
NtRp827
(dp828
g58
(dp829
g85
g86
ssg67
g818
sg60
(lp830
S':'
asbag53
(g74
g55
NtRp831
(dp832
g58
(dp833
sg67
g818
sg60
(lp834
g53
(g54
g55
NtRp835
(dp836
g58
(dp837
g66
I4
ssg67
g831
sg60
(lp838
S'max-age=0'
p839
asbasbasbag53
(g69
g55
NtRp840
(dp841
g58
(dp842
sg67
g592
sg60
(lp843
g53
(g74
g55
NtRp844
(dp845
g58
(dp846
g78
g79
ssg67
g840
sg60
(lp847
S'http_connection'
p848
asbag53
(g74
g55
NtRp849
(dp850
g58
(dp851
g85
g86
ssg67
g840
sg60
(lp852
S':'
asbag53
(g74
g55
NtRp853
(dp854
g58
(dp855
sg67
g840
sg60
(lp856
g53
(g54
g55
NtRp857
(dp858
g58
(dp859
g66
I4
ssg67
g853
sg60
(lp860
S'keep-alive'
p861
asbasbasbag53
(g69
g55
NtRp862
(dp863
g58
(dp864
sg67
g592
sg60
(lp865
g53
(g74
g55
NtRp866
(dp867
g58
(dp868
g78
g79
ssg67
g862
sg60
(lp869
S'http_cookie'
p870
asbag53
(g74
g55
NtRp871
(dp872
g58
(dp873
g85
g86
ssg67
g862
sg60
(lp874
S':'
asbag53
(g74
g55
NtRp875
(dp876
g58
(dp877
sg67
g862
sg60
(lp878
g53
(g54
g55
NtRp879
(dp880
g58
(dp881
g66
I4
ssg67
g875
sg60
(lp882
S'__utma=96992031.26429765.1325029743.1325029743.1326549329.2; __utmz=96992031.1325029743.1.1.utmcsr=(direct)|utmccn=(direct)|utmcmd=(none); session_id_webparley=127.0.0.1-5b8ea652-b766-4d37-b1d1-5389be8daee2; session_id_admin=127.0.0.1-2b8b5ac1-a943-4285-9bf9-c0b4227e345c'
p883
asbasbasbag53
(g69
g55
NtRp884
(dp885
g58
(dp886
sg67
g592
sg60
(lp887
g53
(g74
g55
NtRp888
(dp889
g58
(dp890
g78
g79
ssg67
g884
sg60
(lp891
S'http_host'
p892
asbag53
(g74
g55
NtRp893
(dp894
g58
(dp895
g85
g86
ssg67
g884
sg60
(lp896
S':'
asbag53
(g74
g55
NtRp897
(dp898
g58
(dp899
sg67
g884
sg60
(lp900
g53
(g54
g55
NtRp901
(dp902
g58
(dp903
g66
I4
ssg67
g897
sg60
(lp904
S'127.0.0.1:8000'
p905
asbasbasbag53
(g69
g55
NtRp906
(dp907
g58
(dp908
sg67
g592
sg60
(lp909
g53
(g74
g55
NtRp910
(dp911
g58
(dp912
g78
g79
ssg67
g906
sg60
(lp913
S'http_referer'
p914
asbag53
(g74
g55
NtRp915
(dp916
g58
(dp917
g85
g86
ssg67
g906
sg60
(lp918
S':'
asbag53
(g74
g55
NtRp919
(dp920
g58
(dp921
sg67
g906
sg60
(lp922
g53
(g54
g55
NtRp923
(dp924
g58
(dp925
g66
I4
ssg67
g919
sg60
(lp926
S'http://127.0.0.1:8000/webparley/appadmin/select/db?query=db.palabras.id%3E0'
p927
asbasbasbag53
(g69
g55
NtRp928
(dp929
g58
(dp930
sg67
g592
sg60
(lp931
g53
(g74
g55
NtRp932
(dp933
g58
(dp934
g78
g79
ssg67
g928
sg60
(lp935
S'http_user_agent'
p936
asbag53
(g74
g55
NtRp937
(dp938
g58
(dp939
g85
g86
ssg67
g928
sg60
(lp940
S':'
asbag53
(g74
g55
NtRp941
(dp942
g58
(dp943
sg67
g928
sg60
(lp944
g53
(g54
g55
NtRp945
(dp946
g58
(dp947
g66
I4
ssg67
g941
sg60
(lp948
S'Mozilla/5.0 (Windows NT 6.1; WOW64; rv:11.0) Gecko/20100101 Firefox/11.0'
p949
asbasbasbag53
(g69
g55
NtRp950
(dp951
g58
(dp952
sg67
g592
sg60
(lp953
g53
(g74
g55
NtRp954
(dp955
g58
(dp956
g78
g79
ssg67
g950
sg60
(lp957
S'is_jython'
p958
asbag53
(g74
g55
NtRp959
(dp960
g58
(dp961
g85
g86
ssg67
g950
sg60
(lp962
S':'
asbag53
(g74
g55
NtRp963
(dp964
g58
(dp965
sg67
g950
sg60
(lp966
g53
(g54
g55
NtRp967
(dp968
g58
(dp969
g66
I4
ssg67
g963
sg60
(lp970
g96
asbasbasbag53
(g69
g55
NtRp971
(dp972
g58
(dp973
sg67
g592
sg60
(lp974
g53
(g74
g55
NtRp975
(dp976
g58
(dp977
g78
g79
ssg67
g971
sg60
(lp978
S'is_pypy'
p979
asbag53
(g74
g55
NtRp980
(dp981
g58
(dp982
g85
g86
ssg67
g971
sg60
(lp983
S':'
asbag53
(g74
g55
NtRp984
(dp985
g58
(dp986
sg67
g971
sg60
(lp987
g53
(g54
g55
NtRp988
(dp989
g58
(dp990
g66
I4
ssg67
g984
sg60
(lp991
g96
asbasbasbag53
(g69
g55
NtRp992
(dp993
g58
(dp994
sg67
g592
sg60
(lp995
g53
(g74
g55
NtRp996
(dp997
g58
(dp998
g78
g79
ssg67
g992
sg60
(lp999
S'path_info'
p1000
asbag53
(g74
g55
NtRp1001
(dp1002
g58
(dp1003
g85
g86
ssg67
g992
sg60
(lp1004
S':'
asbag53
(g74
g55
NtRp1005
(dp1006
g58
(dp1007
sg67
g992
sg60
(lp1008
g53
(g54
g55
NtRp1009
(dp1010
g58
(dp1011
g66
I4
ssg67
g1005
sg60
(lp1012
S'/webparley/admin/index'
p1013
asbasbasbag53
(g69
g55
NtRp1014
(dp1015
g58
(dp1016
sg67
g592
sg60
(lp1017
g53
(g74
g55
NtRp1018
(dp1019
g58
(dp1020
g78
g79
ssg67
g1014
sg60
(lp1021
S'query_string'
p1022
asbag53
(g74
g55
NtRp1023
(dp1024
g58
(dp1025
g85
g86
ssg67
g1014
sg60
(lp1026
S':'
asbag53
(g74
g55
NtRp1027
(dp1028
g58
(dp1029
sg67
g1014
sg60
(lp1030
g53
(g54
g55
NtRp1031
(dp1032
g58
(dp1033
g66
I4
ssg67
g1027
sg60
(lp1034
S''
asbasbasbag53
(g69
g55
NtRp1035
(dp1036
g58
(dp1037
sg67
g592
sg60
(lp1038
g53
(g74
g55
NtRp1039
(dp1040
g58
(dp1041
g78
g79
ssg67
g1035
sg60
(lp1042
S'remote_addr'
p1043
asbag53
(g74
g55
NtRp1044
(dp1045
g58
(dp1046
g85
g86
ssg67
g1035
sg60
(lp1047
S':'
asbag53
(g74
g55
NtRp1048
(dp1049
g58
(dp1050
sg67
g1035
sg60
(lp1051
g53
(g54
g55
NtRp1052
(dp1053
g58
(dp1054
g66
I4
ssg67
g1048
sg60
(lp1055
g186
asbasbasbag53
(g69
g55
NtRp1056
(dp1057
g58
(dp1058
sg67
g592
sg60
(lp1059
g53
(g74
g55
NtRp1060
(dp1061
g58
(dp1062
g78
g79
ssg67
g1056
sg60
(lp1063
S'remote_port'
p1064
asbag53
(g74
g55
NtRp1065
(dp1066
g58
(dp1067
g85
g86
ssg67
g1056
sg60
(lp1068
S':'
asbag53
(g74
g55
NtRp1069
(dp1070
g58
(dp1071
sg67
g1056
sg60
(lp1072
g53
(g54
g55
NtRp1073
(dp1074
g58
(dp1075
g66
I4
ssg67
g1069
sg60
(lp1076
S'50051'
p1077
asbasbasbag53
(g69
g55
NtRp1078
(dp1079
g58
(dp1080
sg67
g592
sg60
(lp1081
g53
(g74
g55
NtRp1082
(dp1083
g58
(dp1084
g78
g79
ssg67
g1078
sg60
(lp1085
S'request_method'
p1086
asbag53
(g74
g55
NtRp1087
(dp1088
g58
(dp1089
g85
g86
ssg67
g1078
sg60
(lp1090
S':'
asbag53
(g74
g55
NtRp1091
(dp1092
g58
(dp1093
sg67
g1078
sg60
(lp1094
g53
(g54
g55
NtRp1095
(dp1096
g58
(dp1097
g66
I4
ssg67
g1091
sg60
(lp1098
S'GET'
p1099
asbasbasbag53
(g69
g55
NtRp1100
(dp1101
g58
(dp1102
sg67
g592
sg60
(lp1103
g53
(g74
g55
NtRp1104
(dp1105
g58
(dp1106
g78
g79
ssg67
g1100
sg60
(lp1107
S'request_uri'
p1108
asbag53
(g74
g55
NtRp1109
(dp1110
g58
(dp1111
g85
g86
ssg67
g1100
sg60
(lp1112
S':'
asbag53
(g74
g55
NtRp1113
(dp1114
g58
(dp1115
sg67
g1100
sg60
(lp1116
g53
(g54
g55
NtRp1117
(dp1118
g58
(dp1119
g66
I4
ssg67
g1113
sg60
(lp1120
g1013
asbasbasbag53
(g69
g55
NtRp1121
(dp1122
g58
(dp1123
sg67
g592
sg60
(lp1124
g53
(g74
g55
NtRp1125
(dp1126
g58
(dp1127
g78
g79
ssg67
g1121
sg60
(lp1128
S'script_name'
p1129
asbag53
(g74
g55
NtRp1130
(dp1131
g58
(dp1132
g85
g86
ssg67
g1121
sg60
(lp1133
S':'
asbag53
(g74
g55
NtRp1134
(dp1135
g58
(dp1136
sg67
g1121
sg60
(lp1137
g53
(g54
g55
NtRp1138
(dp1139
g58
(dp1140
g66
I4
ssg67
g1134
sg60
(lp1141
S''
asbasbasbag53
(g69
g55
NtRp1142
(dp1143
g58
(dp1144
sg67
g592
sg60
(lp1145
g53
(g74
g55
NtRp1146
(dp1147
g58
(dp1148
g78
g79
ssg67
g1142
sg60
(lp1149
S'server_name'
p1150
asbag53
(g74
g55
NtRp1151
(dp1152
g58
(dp1153
g85
g86
ssg67
g1142
sg60
(lp1154
S':'
asbag53
(g74
g55
NtRp1155
(dp1156
g58
(dp1157
sg67
g1142
sg60
(lp1158
g53
(g54
g55
NtRp1159
(dp1160
g58
(dp1161
g66
I4
ssg67
g1155
sg60
(lp1162
S'craxsnet-PC'
p1163
asbasbasbag53
(g69
g55
NtRp1164
(dp1165
g58
(dp1166
sg67
g592
sg60
(lp1167
g53
(g74
g55
NtRp1168
(dp1169
g58
(dp1170
g78
g79
ssg67
g1164
sg60
(lp1171
S'server_port'
p1172
asbag53
(g74
g55
NtRp1173
(dp1174
g58
(dp1175
g85
g86
ssg67
g1164
sg60
(lp1176
S':'
asbag53
(g74
g55
NtRp1177
(dp1178
g58
(dp1179
sg67
g1164
sg60
(lp1180
g53
(g54
g55
NtRp1181
(dp1182
g58
(dp1183
g66
I4
ssg67
g1177
sg60
(lp1184
S'8000'
p1185
asbasbasbag53
(g69
g55
NtRp1186
(dp1187
g58
(dp1188
sg67
g592
sg60
(lp1189
g53
(g74
g55
NtRp1190
(dp1191
g58
(dp1192
g78
g79
ssg67
g1186
sg60
(lp1193
S'server_protocol'
p1194
asbag53
(g74
g55
NtRp1195
(dp1196
g58
(dp1197
g85
g86
ssg67
g1186
sg60
(lp1198
S':'
asbag53
(g74
g55
NtRp1199
(dp1200
g58
(dp1201
sg67
g1186
sg60
(lp1202
g53
(g54
g55
NtRp1203
(dp1204
g58
(dp1205
g66
I4
ssg67
g1199
sg60
(lp1206
S'HTTP/1.1'
p1207
asbasbasbag53
(g69
g55
NtRp1208
(dp1209
g58
(dp1210
sg67
g592
sg60
(lp1211
g53
(g74
g55
NtRp1212
(dp1213
g58
(dp1214
g78
g79
ssg67
g1208
sg60
(lp1215
S'server_software'
p1216
asbag53
(g74
g55
NtRp1217
(dp1218
g58
(dp1219
g85
g86
ssg67
g1208
sg60
(lp1220
S':'
asbag53
(g74
g55
NtRp1221
(dp1222
g58
(dp1223
sg67
g1208
sg60
(lp1224
g53
(g54
g55
NtRp1225
(dp1226
g58
(dp1227
g66
I4
ssg67
g1221
sg60
(lp1228
S'Rocket 1.2.4'
p1229
asbasbasbag53
(g69
g55
NtRp1230
(dp1231
g58
(dp1232
sg67
g592
sg60
(lp1233
g53
(g74
g55
NtRp1234
(dp1235
g58
(dp1236
g78
g79
ssg67
g1230
sg60
(lp1237
S'web2py_crontype'
p1238
asbag53
(g74
g55
NtRp1239
(dp1240
g58
(dp1241
g85
g86
ssg67
g1230
sg60
(lp1242
S':'
asbag53
(g74
g55
NtRp1243
(dp1244
g58
(dp1245
sg67
g1230
sg60
(lp1246
g53
(g54
g55
NtRp1247
(dp1248
g58
(dp1249
g66
I4
ssg67
g1243
sg60
(lp1250
S'hard'
p1251
asbasbasbag53
(g69
g55
NtRp1252
(dp1253
g58
(dp1254
sg67
g592
sg60
(lp1255
g53
(g74
g55
NtRp1256
(dp1257
g58
(dp1258
g78
g79
ssg67
g1252
sg60
(lp1259
S'web2py_original_uri'
p1260
asbag53
(g74
g55
NtRp1261
(dp1262
g58
(dp1263
g85
g86
ssg67
g1252
sg60
(lp1264
S':'
asbag53
(g74
g55
NtRp1265
(dp1266
g58
(dp1267
sg67
g1252
sg60
(lp1268
g53
(g54
g55
NtRp1269
(dp1270
g58
(dp1271
g66
I4
ssg67
g1265
sg60
(lp1272
S'/webparley/admin/index'
p1273
asbasbasbag53
(g69
g55
NtRp1274
(dp1275
g58
(dp1276
sg67
g592
sg60
(lp1277
g53
(g74
g55
NtRp1278
(dp1279
g58
(dp1280
g78
g79
ssg67
g1274
sg60
(lp1281
S'web2py_path'
p1282
asbag53
(g74
g55
NtRp1283
(dp1284
g58
(dp1285
g85
g86
ssg67
g1274
sg60
(lp1286
S':'
asbag53
(g74
g55
NtRp1287
(dp1288
g58
(dp1289
sg67
g1274
sg60
(lp1290
g53
(g54
g55
NtRp1291
(dp1292
g58
(dp1293
g66
I4
ssg67
g1287
sg60
(lp1294
g639
asbasbasbag53
(g69
g55
NtRp1295
(dp1296
g58
(dp1297
sg67
g592
sg60
(lp1298
g53
(g74
g55
NtRp1299
(dp1300
g58
(dp1301
g78
g79
ssg67
g1295
sg60
(lp1302
S'web2py_version'
p1303
asbag53
(g74
g55
NtRp1304
(dp1305
g58
(dp1306
g85
g86
ssg67
g1295
sg60
(lp1307
S':'
asbag53
(g74
g55
NtRp1308
(dp1309
g58
(dp1310
sg67
g1295
sg60
(lp1311
g53
(g54
g55
NtRp1312
(dp1313
g58
(dp1314
g66
I4
ssg67
g1308
sg60
(lp1315
g53
(g62
g55
NtRp1316
(dp1317
g58
(dp1318
g66
I3
ssg67
Nsg60
(lp1319
g53
(g69
g55
NtRp1320
(dp1321
g58
(dp1322
sg67
g1316
sg60
(lp1323
g53
(g74
g55
NtRp1324
(dp1325
g58
(dp1326
sg67
g1320
sg60
(lp1327
g53
(g54
g55
NtRp1328
(dp1329
g58
(dp1330
g66
I3
ssg67
g1324
sg60
(lp1331
S'1'
asbasbasbag53
(g69
g55
NtRp1332
(dp1333
g58
(dp1334
sg67
g1316
sg60
(lp1335
g53
(g74
g55
NtRp1336
(dp1337
g58
(dp1338
sg67
g1332
sg60
(lp1339
g53
(g54
g55
NtRp1340
(dp1341
g58
(dp1342
g66
I3
ssg67
g1336
sg60
(lp1343
S'99'
p1344
asbasbasbag53
(g69
g55
NtRp1345
(dp1346
g58
(dp1347
sg67
g1316
sg60
(lp1348
g53
(g74
g55
NtRp1349
(dp1350
g58
(dp1351
sg67
g1345
sg60
(lp1352
g53
(g54
g55
NtRp1353
(dp1354
g58
(dp1355
g66
I3
ssg67
g1349
sg60
(lp1356
S'7'
asbasbasbag53
(g69
g55
NtRp1357
(dp1358
g58
(dp1359
sg67
g1316
sg60
(lp1360
g53
(g74
g55
NtRp1361
(dp1362
g58
(dp1363
sg67
g1357
sg60
(lp1364
g53
(g54
g55
NtRp1365
(dp1366
g58
(dp1367
g66
I3
ssg67
g1361
sg60
(lp1368
S'datetime.datetime(2012, 3, 4, 22, 12, 8)'
p1369
asbasbasbag53
(g69
g55
NtRp1370
(dp1371
g58
(dp1372
sg67
g1316
sg60
(lp1373
g53
(g74
g55
NtRp1374
(dp1375
g58
(dp1376
sg67
g1370
sg60
(lp1377
g53
(g54
g55
NtRp1378
(dp1379
g58
(dp1380
g66
I3
ssg67
g1374
sg60
(lp1381
S'stable'
p1382
asbasbasbasbasbasbasbag53
(g69
g55
NtRp1383
(dp1384
g58
(dp1385
sg67
g592
sg60
(lp1386
g53
(g74
g55
NtRp1387
(dp1388
g58
(dp1389
g78
g79
ssg67
g1383
sg60
(lp1390
S'wsgi_errors'
p1391
asbag53
(g74
g55
NtRp1392
(dp1393
g58
(dp1394
g85
g86
ssg67
g1383
sg60
(lp1395
S':'
asbag53
(g74
g55
NtRp1396
(dp1397
g58
(dp1398
sg67
g1383
sg60
(lp1399
g53
(g54
g55
NtRp1400
(dp1401
g58
(dp1402
g66
I4
ssg67
g1396
sg60
(lp1403
S"<open file '<stderr>', mode 'w' at 0x002400B0>"
p1404
asbasbasbag53
(g69
g55
NtRp1405
(dp1406
g58
(dp1407
sg67
g592
sg60
(lp1408
g53
(g74
g55
NtRp1409
(dp1410
g58
(dp1411
g78
g79
ssg67
g1405
sg60
(lp1412
S'wsgi_file_wrapper'
p1413
asbag53
(g74
g55
NtRp1414
(dp1415
g58
(dp1416
g85
g86
ssg67
g1405
sg60
(lp1417
S':'
asbag53
(g74
g55
NtRp1418
(dp1419
g58
(dp1420
sg67
g1405
sg60
(lp1421
g53
(g54
g55
NtRp1422
(dp1423
g58
(dp1424
g66
I4
ssg67
g1418
sg60
(lp1425
S'<class wsgiref.util.FileWrapper at 0x02EC9390>'
p1426
asbasbasbag53
(g69
g55
NtRp1427
(dp1428
g58
(dp1429
sg67
g592
sg60
(lp1430
g53
(g74
g55
NtRp1431
(dp1432
g58
(dp1433
g78
g79
ssg67
g1427
sg60
(lp1434
S'wsgi_input'
p1435
asbag53
(g74
g55
NtRp1436
(dp1437
g58
(dp1438
g85
g86
ssg67
g1427
sg60
(lp1439
S':'
asbag53
(g74
g55
NtRp1440
(dp1441
g58
(dp1442
sg67
g1427
sg60
(lp1443
g53
(g54
g55
NtRp1444
(dp1445
g58
(dp1446
g66
I4
ssg67
g1440
sg60
(lp1447
S'<socket._fileobject object at 0x0733E7F0>'
p1448
asbasbasbag53
(g69
g55
NtRp1449
(dp1450
g58
(dp1451
sg67
g592
sg60
(lp1452
g53
(g74
g55
NtRp1453
(dp1454
g58
(dp1455
g78
g79
ssg67
g1449
sg60
(lp1456
S'wsgi_multiprocess'
p1457
asbag53
(g74
g55
NtRp1458
(dp1459
g58
(dp1460
g85
g86
ssg67
g1449
sg60
(lp1461
S':'
asbag53
(g74
g55
NtRp1462
(dp1463
g58
(dp1464
sg67
g1449
sg60
(lp1465
g53
(g54
g55
NtRp1466
(dp1467
g58
(dp1468
g66
I4
ssg67
g1462
sg60
(lp1469
g96
asbasbasbag53
(g69
g55
NtRp1470
(dp1471
g58
(dp1472
sg67
g592
sg60
(lp1473
g53
(g74
g55
NtRp1474
(dp1475
g58
(dp1476
g78
g79
ssg67
g1470
sg60
(lp1477
S'wsgi_multithread'
p1478
asbag53
(g74
g55
NtRp1479
(dp1480
g58
(dp1481
g85
g86
ssg67
g1470
sg60
(lp1482
S':'
asbag53
(g74
g55
NtRp1483
(dp1484
g58
(dp1485
sg67
g1470
sg60
(lp1486
g53
(g54
g55
NtRp1487
(dp1488
g58
(dp1489
g66
I4
ssg67
g1483
sg60
(lp1490
S'True'
p1491
asbasbasbag53
(g69
g55
NtRp1492
(dp1493
g58
(dp1494
sg67
g592
sg60
(lp1495
g53
(g74
g55
NtRp1496
(dp1497
g58
(dp1498
g78
g79
ssg67
g1492
sg60
(lp1499
S'wsgi_run_once'
p1500
asbag53
(g74
g55
NtRp1501
(dp1502
g58
(dp1503
g85
g86
ssg67
g1492
sg60
(lp1504
S':'
asbag53
(g74
g55
NtRp1505
(dp1506
g58
(dp1507
sg67
g1492
sg60
(lp1508
g53
(g54
g55
NtRp1509
(dp1510
g58
(dp1511
g66
I4
ssg67
g1505
sg60
(lp1512
g96
asbasbasbag53
(g69
g55
NtRp1513
(dp1514
g58
(dp1515
sg67
g592
sg60
(lp1516
g53
(g74
g55
NtRp1517
(dp1518
g58
(dp1519
g78
g79
ssg67
g1513
sg60
(lp1520
S'wsgi_url_scheme'
p1521
asbag53
(g74
g55
NtRp1522
(dp1523
g58
(dp1524
g85
g86
ssg67
g1513
sg60
(lp1525
S':'
asbag53
(g74
g55
NtRp1526
(dp1527
g58
(dp1528
sg67
g1513
sg60
(lp1529
g53
(g54
g55
NtRp1530
(dp1531
g58
(dp1532
g66
I4
ssg67
g1526
sg60
(lp1533
S'http'
p1534
asbasbasbag53
(g69
g55
NtRp1535
(dp1536
g58
(dp1537
sg67
g592
sg60
(lp1538
g53
(g74
g55
NtRp1539
(dp1540
g58
(dp1541
g78
g79
ssg67
g1535
sg60
(lp1542
S'wsgi_version'
p1543
asbag53
(g74
g55
NtRp1544
(dp1545
g58
(dp1546
g85
g86
ssg67
g1535
sg60
(lp1547
S':'
asbag53
(g74
g55
NtRp1548
(dp1549
g58
(dp1550
sg67
g1535
sg60
(lp1551
g53
(g54
g55
NtRp1552
(dp1553
g58
(dp1554
g66
I4
ssg67
g1548
sg60
(lp1555
g53
(g62
g55
NtRp1556
(dp1557
g58
(dp1558
g66
I3
ssg67
Nsg60
(lp1559
g53
(g69
g55
NtRp1560
(dp1561
g58
(dp1562
sg67
g1556
sg60
(lp1563
g53
(g74
g55
NtRp1564
(dp1565
g58
(dp1566
sg67
g1560
sg60
(lp1567
g53
(g54
g55
NtRp1568
(dp1569
g58
(dp1570
g66
I3
ssg67
g1564
sg60
(lp1571
S'1'
asbasbasbag53
(g69
g55
NtRp1572
(dp1573
g58
(dp1574
sg67
g1556
sg60
(lp1575
g53
(g74
g55
NtRp1576
(dp1577
g58
(dp1578
sg67
g1572
sg60
(lp1579
g53
(g54
g55
NtRp1580
(dp1581
g58
(dp1582
g66
I3
ssg67
g1576
sg60
(lp1583
S'0'
asbasbasbasbasbasbasbasbasbasbasbag53
(g69
g55
NtRp1584
(dp1585
g58
(dp1586
sg67
g63
sg60
(lp1587
g53
(g74
g55
NtRp1588
(dp1589
g58
(dp1590
g78
g79
ssg67
g1584
sg60
(lp1591
S'extension'
p1592
asbag53
(g74
g55
NtRp1593
(dp1594
g58
(dp1595
g85
g86
ssg67
g1584
sg60
(lp1596
S':'
asbag53
(g74
g55
NtRp1597
(dp1598
g58
(dp1599
sg67
g1584
sg60
(lp1600
g53
(g54
g55
NtRp1601
(dp1602
g58
(dp1603
g66
I5
ssg67
g1597
sg60
(lp1604
S'html'
p1605
asbasbasbag53
(g69
g55
NtRp1606
(dp1607
g58
(dp1608
sg67
g63
sg60
(lp1609
g53
(g74
g55
NtRp1610
(dp1611
g58
(dp1612
g78
g79
ssg67
g1606
sg60
(lp1613
S'folder'
p1614
asbag53
(g74
g55
NtRp1615
(dp1616
g58
(dp1617
g85
g86
ssg67
g1606
sg60
(lp1618
S':'
asbag53
(g74
g55
NtRp1619
(dp1620
g58
(dp1621
sg67
g1606
sg60
(lp1622
g53
(g54
g55
NtRp1623
(dp1624
g58
(dp1625
g66
I5
ssg67
g1619
sg60
(lp1626
S'D:\\Dise\xf1o Web\\Proyectos\\Parleyweb\\web2py\\applications\\webparley\\'
p1627
asbasbasbag53
(g69
g55
NtRp1628
(dp1629
g58
(dp1630
sg67
g63
sg60
(lp1631
g53
(g74
g55
NtRp1632
(dp1633
g58
(dp1634
g78
g79
ssg67
g1628
sg60
(lp1635
S'function'
p1636
asbag53
(g74
g55
NtRp1637
(dp1638
g58
(dp1639
g85
g86
ssg67
g1628
sg60
(lp1640
S':'
asbag53
(g74
g55
NtRp1641
(dp1642
g58
(dp1643
sg67
g1628
sg60
(lp1644
g53
(g54
g55
NtRp1645
(dp1646
g58
(dp1647
g66
I5
ssg67
g1641
sg60
(lp1648
S'index'
p1649
asbasbasbag53
(g69
g55
NtRp1650
(dp1651
g58
(dp1652
sg67
g63
sg60
(lp1653
g53
(g74
g55
NtRp1654
(dp1655
g58
(dp1656
g78
g79
ssg67
g1650
sg60
(lp1657
S'get_vars'
p1658
asbag53
(g74
g55
NtRp1659
(dp1660
g58
(dp1661
g85
g86
ssg67
g1650
sg60
(lp1662
S':'
asbag53
(g74
g55
NtRp1663
(dp1664
g58
(dp1665
sg67
g1650
sg60
(lp1666
g53
(g54
g55
NtRp1667
(dp1668
g58
(dp1669
g66
I5
ssg67
g1663
sg60
(lp1670
g53
(g62
g55
NtRp1671
(dp1672
g58
(dp1673
g66
I4
ssg67
Nsg60
(lp1674
sbasbasbasbag53
(g69
g55
NtRp1675
(dp1676
g58
(dp1677
sg67
g63
sg60
(lp1678
g53
(g74
g55
NtRp1679
(dp1680
g58
(dp1681
g78
g79
ssg67
g1675
sg60
(lp1682
S'global_settings'
p1683
asbag53
(g74
g55
NtRp1684
(dp1685
g58
(dp1686
g85
g86
ssg67
g1675
sg60
(lp1687
S':'
asbag53
(g74
g55
NtRp1688
(dp1689
g58
(dp1690
sg67
g1675
sg60
(lp1691
g53
(g54
g55
NtRp1692
(dp1693
g58
(dp1694
g66
I5
ssg67
g1688
sg60
(lp1695
g53
(g62
g55
NtRp1696
(dp1697
g58
(dp1698
g66
I4
ssg67
Nsg60
(lp1699
g53
(g69
g55
NtRp1700
(dp1701
g58
(dp1702
sg67
g1696
sg60
(lp1703
g53
(g74
g55
NtRp1704
(dp1705
g58
(dp1706
g78
g79
ssg67
g1700
sg60
(lp1707
g604
asbag53
(g74
g55
NtRp1708
(dp1709
g58
(dp1710
g85
g86
ssg67
g1700
sg60
(lp1711
S':'
asbag53
(g74
g55
NtRp1712
(dp1713
g58
(dp1714
sg67
g1700
sg60
(lp1715
g53
(g54
g55
NtRp1716
(dp1717
g58
(dp1718
g66
I4
ssg67
g1712
sg60
(lp1719
S"set(['D:\\\\Dise\\xf1o Web\\\\Proyectos\\\\Parleyweb\\\\web2py\\\\applications\\\\admin\\\\', 'D:\\\\Dise\\xf1o Web\\\\Proyectos\\\\Parleyweb\\\\web2py\\\\applications\\\\webparley\\\\'])"
p1720
asbasbasbag53
(g69
g55
NtRp1721
(dp1722
g58
(dp1723
sg67
g1696
sg60
(lp1724
g53
(g74
g55
NtRp1725
(dp1726
g58
(dp1727
g78
g79
ssg67
g1721
sg60
(lp1728
g626
asbag53
(g74
g55
NtRp1729
(dp1730
g58
(dp1731
g85
g86
ssg67
g1721
sg60
(lp1732
S':'
asbag53
(g74
g55
NtRp1733
(dp1734
g58
(dp1735
sg67
g1721
sg60
(lp1736
g53
(g54
g55
NtRp1737
(dp1738
g58
(dp1739
g66
I4
ssg67
g1733
sg60
(lp1740
g639
asbasbasbag53
(g69
g55
NtRp1741
(dp1742
g58
(dp1743
sg67
g1696
sg60
(lp1744
g53
(g74
g55
NtRp1745
(dp1746
g58
(dp1747
g78
g79
ssg67
g1741
sg60
(lp1748
g648
asbag53
(g74
g55
NtRp1749
(dp1750
g58
(dp1751
g85
g86
ssg67
g1741
sg60
(lp1752
S':'
asbag53
(g74
g55
NtRp1753
(dp1754
g58
(dp1755
sg67
g1741
sg60
(lp1756
g53
(g54
g55
NtRp1757
(dp1758
g58
(dp1759
g66
I4
ssg67
g1753
sg60
(lp1760
g53
(g62
g55
NtRp1761
(dp1762
g58
(dp1763
g66
I3
ssg67
Nsg60
(lp1764
sbasbasbasbag53
(g69
g55
NtRp1765
(dp1766
g58
(dp1767
sg67
g1696
sg60
(lp1768
g53
(g74
g55
NtRp1769
(dp1770
g58
(dp1771
g78
g79
ssg67
g1765
sg60
(lp1772
g673
asbag53
(g74
g55
NtRp1773
(dp1774
g58
(dp1775
g85
g86
ssg67
g1765
sg60
(lp1776
S':'
asbag53
(g74
g55
NtRp1777
(dp1778
g58
(dp1779
sg67
g1765
sg60
(lp1780
g53
(g54
g55
NtRp1781
(dp1782
g58
(dp1783
g66
I4
ssg67
g1777
sg60
(lp1784
S"<Values at 0x30cc260: {'verbose': False, 'ip': '127.0.0.1', 'shutdown_timeout': 5, 'taskbar': False, 'nocron': False, 'pid_filename': 'httpserver.pid', 'maxthreads': None, 'softcron': False, 'server_name': 'craxsnet-PC', 'bpython': False, 'nogui': False, 'port': 8000, 'extcron': False, 'debuglevel': 30, 'test': None, 'folder': 'D:\\\\Dise\\xf1o Web\\\\Proyectos\\\\Parleyweb\\\\web2py', 'config': '', 'import_models': False, 'winservice': '', 'shell': None, 'run': '', 'log_filename': 'httpserver.log', 'args': [''], 'socket_timeout': 5, 'ssl_ca_certificate': None, 'scheduler': None, 'profiler_filename': None, 'ssl_private_key': '', 'password': '<ask>', 'request_queue_size': 5, 'ssl_certificate': '', 'cronjob': False, 'numthreads': None, 'quiet': False, 'interfaces': None, 'minthreads': None, 'timeout': 10, 'plain': False, 'nobanner': False}>"
p1785
asbasbasbag53
(g69
g55
NtRp1786
(dp1787
g58
(dp1788
sg67
g1696
sg60
(lp1789
g53
(g74
g55
NtRp1790
(dp1791
g58
(dp1792
g78
g79
ssg67
g1786
sg60
(lp1793
g695
asbag53
(g74
g55
NtRp1794
(dp1795
g58
(dp1796
g85
g86
ssg67
g1786
sg60
(lp1797
S':'
asbag53
(g74
g55
NtRp1798
(dp1799
g58
(dp1800
sg67
g1786
sg60
(lp1801
g53
(g54
g55
NtRp1802
(dp1803
g58
(dp1804
g66
I4
ssg67
g1798
sg60
(lp1805
S'set([])'
p1806
asbasbasbag53
(g69
g55
NtRp1807
(dp1808
g58
(dp1809
sg67
g1696
sg60
(lp1810
g53
(g74
g55
NtRp1811
(dp1812
g58
(dp1813
g78
g79
ssg67
g1807
sg60
(lp1814
g717
asbag53
(g74
g55
NtRp1815
(dp1816
g58
(dp1817
g85
g86
ssg67
g1807
sg60
(lp1818
S':'
asbag53
(g74
g55
NtRp1819
(dp1820
g58
(dp1821
sg67
g1807
sg60
(lp1822
g53
(g54
g55
NtRp1823
(dp1824
g58
(dp1825
g66
I4
ssg67
g1819
sg60
(lp1826
g96
asbasbasbag53
(g69
g55
NtRp1827
(dp1828
g58
(dp1829
sg67
g1696
sg60
(lp1830
g53
(g74
g55
NtRp1831
(dp1832
g58
(dp1833
g78
g79
ssg67
g1827
sg60
(lp1834
g738
asbag53
(g74
g55
NtRp1835
(dp1836
g58
(dp1837
g85
g86
ssg67
g1827
sg60
(lp1838
S':'
asbag53
(g74
g55
NtRp1839
(dp1840
g58
(dp1841
sg67
g1827
sg60
(lp1842
g53
(g54
g55
NtRp1843
(dp1844
g58
(dp1845
g66
I4
ssg67
g1839
sg60
(lp1846
g751
asbasbasbag53
(g69
g55
NtRp1847
(dp1848
g58
(dp1849
sg67
g1696
sg60
(lp1850
g53
(g74
g55
NtRp1851
(dp1852
g58
(dp1853
g78
g79
ssg67
g1847
sg60
(lp1854
g958
asbag53
(g74
g55
NtRp1855
(dp1856
g58
(dp1857
g85
g86
ssg67
g1847
sg60
(lp1858
S':'
asbag53
(g74
g55
NtRp1859
(dp1860
g58
(dp1861
sg67
g1847
sg60
(lp1862
g53
(g54
g55
NtRp1863
(dp1864
g58
(dp1865
g66
I4
ssg67
g1859
sg60
(lp1866
g96
asbasbasbag53
(g69
g55
NtRp1867
(dp1868
g58
(dp1869
sg67
g1696
sg60
(lp1870
g53
(g74
g55
NtRp1871
(dp1872
g58
(dp1873
g78
g79
ssg67
g1867
sg60
(lp1874
g979
asbag53
(g74
g55
NtRp1875
(dp1876
g58
(dp1877
g85
g86
ssg67
g1867
sg60
(lp1878
S':'
asbag53
(g74
g55
NtRp1879
(dp1880
g58
(dp1881
sg67
g1867
sg60
(lp1882
g53
(g54
g55
NtRp1883
(dp1884
g58
(dp1885
g66
I4
ssg67
g1879
sg60
(lp1886
g96
asbasbasbag53
(g69
g55
NtRp1887
(dp1888
g58
(dp1889
sg67
g1696
sg60
(lp1890
g53
(g74
g55
NtRp1891
(dp1892
g58
(dp1893
g78
g79
ssg67
g1887
sg60
(lp1894
g1238
asbag53
(g74
g55
NtRp1895
(dp1896
g58
(dp1897
g85
g86
ssg67
g1887
sg60
(lp1898
S':'
asbag53
(g74
g55
NtRp1899
(dp1900
g58
(dp1901
sg67
g1887
sg60
(lp1902
g53
(g54
g55
NtRp1903
(dp1904
g58
(dp1905
g66
I4
ssg67
g1899
sg60
(lp1906
g1251
asbasbasbag53
(g69
g55
NtRp1907
(dp1908
g58
(dp1909
sg67
g1696
sg60
(lp1910
g53
(g74
g55
NtRp1911
(dp1912
g58
(dp1913
g78
g79
ssg67
g1907
sg60
(lp1914
g1303
asbag53
(g74
g55
NtRp1915
(dp1916
g58
(dp1917
g85
g86
ssg67
g1907
sg60
(lp1918
S':'
asbag53
(g74
g55
NtRp1919
(dp1920
g58
(dp1921
sg67
g1907
sg60
(lp1922
g53
(g54
g55
NtRp1923
(dp1924
g58
(dp1925
g66
I4
ssg67
g1919
sg60
(lp1926
g53
(g62
g55
NtRp1927
(dp1928
g58
(dp1929
g66
I3
ssg67
Nsg60
(lp1930
g53
(g69
g55
NtRp1931
(dp1932
g58
(dp1933
sg67
g1927
sg60
(lp1934
g53
(g74
g55
NtRp1935
(dp1936
g58
(dp1937
sg67
g1931
sg60
(lp1938
g53
(g54
g55
NtRp1939
(dp1940
g58
(dp1941
g66
I3
ssg67
g1935
sg60
(lp1942
S'1'
asbasbasbag53
(g69
g55
NtRp1943
(dp1944
g58
(dp1945
sg67
g1927
sg60
(lp1946
g53
(g74
g55
NtRp1947
(dp1948
g58
(dp1949
sg67
g1943
sg60
(lp1950
g53
(g54
g55
NtRp1951
(dp1952
g58
(dp1953
g66
I3
ssg67
g1947
sg60
(lp1954
S'99'
p1955
asbasbasbag53
(g69
g55
NtRp1956
(dp1957
g58
(dp1958
sg67
g1927
sg60
(lp1959
g53
(g74
g55
NtRp1960
(dp1961
g58
(dp1962
sg67
g1956
sg60
(lp1963
g53
(g54
g55
NtRp1964
(dp1965
g58
(dp1966
g66
I3
ssg67
g1960
sg60
(lp1967
S'7'
asbasbasbag53
(g69
g55
NtRp1968
(dp1969
g58
(dp1970
sg67
g1927
sg60
(lp1971
g53
(g74
g55
NtRp1972
(dp1973
g58
(dp1974
sg67
g1968
sg60
(lp1975
g53
(g54
g55
NtRp1976
(dp1977
g58
(dp1978
g66
I3
ssg67
g1972
sg60
(lp1979
S'datetime.datetime(2012, 3, 4, 22, 12, 8)'
p1980
asbasbasbag53
(g69
g55
NtRp1981
(dp1982
g58
(dp1983
sg67
g1927
sg60
(lp1984
g53
(g74
g55
NtRp1985
(dp1986
g58
(dp1987
sg67
g1981
sg60
(lp1988
g53
(g54
g55
NtRp1989
(dp1990
g58
(dp1991
g66
I3
ssg67
g1985
sg60
(lp1992
g1382
asbasbasbasbasbasbasbasbasbasbasbag53
(g69
g55
NtRp1993
(dp1994
g58
(dp1995
sg67
g63
sg60
(lp1996
g53
(g74
g55
NtRp1997
(dp1998
g58
(dp1999
g78
g79
ssg67
g1993
sg60
(lp2000
S'is_https'
p2001
asbag53
(g74
g55
NtRp2002
(dp2003
g58
(dp2004
g85
g86
ssg67
g1993
sg60
(lp2005
S':'
asbag53
(g74
g55
NtRp2006
(dp2007
g58
(dp2008
sg67
g1993
sg60
(lp2009
g53
(g54
g55
NtRp2010
(dp2011
g58
(dp2012
g66
I5
ssg67
g2006
sg60
(lp2013
g96
asbasbasbag53
(g69
g55
NtRp2014
(dp2015
g58
(dp2016
sg67
g63
sg60
(lp2017
g53
(g74
g55
NtRp2018
(dp2019
g58
(dp2020
g78
g79
ssg67
g2014
sg60
(lp2021
S'is_local'
p2022
asbag53
(g74
g55
NtRp2023
(dp2024
g58
(dp2025
g85
g86
ssg67
g2014
sg60
(lp2026
S':'
asbag53
(g74
g55
NtRp2027
(dp2028
g58
(dp2029
sg67
g2014
sg60
(lp2030
g53
(g54
g55
NtRp2031
(dp2032
g58
(dp2033
g66
I5
ssg67
g2027
sg60
(lp2034
g1491
asbasbasbag53
(g69
g55
NtRp2035
(dp2036
g58
(dp2037
sg67
g63
sg60
(lp2038
g53
(g74
g55
NtRp2039
(dp2040
g58
(dp2041
g78
g79
ssg67
g2035
sg60
(lp2042
S'is_restful'
p2043
asbag53
(g74
g55
NtRp2044
(dp2045
g58
(dp2046
g85
g86
ssg67
g2035
sg60
(lp2047
S':'
asbag53
(g74
g55
NtRp2048
(dp2049
g58
(dp2050
sg67
g2035
sg60
(lp2051
g53
(g54
g55
NtRp2052
(dp2053
g58
(dp2054
g66
I5
ssg67
g2048
sg60
(lp2055
g96
asbasbasbag53
(g69
g55
NtRp2056
(dp2057
g58
(dp2058
sg67
g63
sg60
(lp2059
g53
(g74
g55
NtRp2060
(dp2061
g58
(dp2062
g78
g79
ssg67
g2056
sg60
(lp2063
S'now'
p2064
asbag53
(g74
g55
NtRp2065
(dp2066
g58
(dp2067
g85
g86
ssg67
g2056
sg60
(lp2068
S':'
asbag53
(g74
g55
NtRp2069
(dp2070
g58
(dp2071
sg67
g2056
sg60
(lp2072
g53
(g54
g55
NtRp2073
(dp2074
g58
(dp2075
g66
I5
ssg67
g2069
sg60
(lp2076
S'datetime.datetime(2012, 3, 22, 21, 36, 17, 627000)'
p2077
asbasbasbag53
(g69
g55
NtRp2078
(dp2079
g58
(dp2080
sg67
g63
sg60
(lp2081
g53
(g74
g55
NtRp2082
(dp2083
g58
(dp2084
g78
g79
ssg67
g2078
sg60
(lp2085
S'post_vars'
p2086
asbag53
(g74
g55
NtRp2087
(dp2088
g58
(dp2089
g85
g86
ssg67
g2078
sg60
(lp2090
S':'
asbag53
(g74
g55
NtRp2091
(dp2092
g58
(dp2093
sg67
g2078
sg60
(lp2094
g53
(g54
g55
NtRp2095
(dp2096
g58
(dp2097
g66
I5
ssg67
g2091
sg60
(lp2098
g53
(g62
g55
NtRp2099
(dp2100
g58
(dp2101
g66
I4
ssg67
Nsg60
(lp2102
sbasbasbasbag53
(g69
g55
NtRp2103
(dp2104
g58
(dp2105
sg67
g63
sg60
(lp2106
g53
(g74
g55
NtRp2107
(dp2108
g58
(dp2109
g78
g79
ssg67
g2103
sg60
(lp2110
S'url'
p2111
asbag53
(g74
g55
NtRp2112
(dp2113
g58
(dp2114
g85
g86
ssg67
g2103
sg60
(lp2115
S':'
asbag53
(g74
g55
NtRp2116
(dp2117
g58
(dp2118
sg67
g2103
sg60
(lp2119
g53
(g54
g55
NtRp2120
(dp2121
g58
(dp2122
g66
I5
ssg67
g2116
sg60
(lp2123
S'/webparley/admin/index'
p2124
asbasbasbag53
(g69
g55
NtRp2125
(dp2126
g58
(dp2127
sg67
g63
sg60
(lp2128
g53
(g74
g55
NtRp2129
(dp2130
g58
(dp2131
g78
g79
ssg67
g2125
sg60
(lp2132
S'utcnow'
p2133
asbag53
(g74
g55
NtRp2134
(dp2135
g58
(dp2136
g85
g86
ssg67
g2125
sg60
(lp2137
S':'
asbag53
(g74
g55
NtRp2138
(dp2139
g58
(dp2140
sg67
g2125
sg60
(lp2141
g53
(g54
g55
NtRp2142
(dp2143
g58
(dp2144
g66
I5
ssg67
g2138
sg60
(lp2145
S'datetime.datetime(2012, 3, 22, 20, 36, 17, 627000)'
p2146
asbasbasbag53
(g69
g55
NtRp2147
(dp2148
g58
(dp2149
sg67
g63
sg60
(lp2150
g53
(g74
g55
NtRp2151
(dp2152
g58
(dp2153
g78
g79
ssg67
g2147
sg60
(lp2154
S'uuid'
p2155
asbag53
(g74
g55
NtRp2156
(dp2157
g58
(dp2158
g85
g86
ssg67
g2147
sg60
(lp2159
S':'
asbag53
(g74
g55
NtRp2160
(dp2161
g58
(dp2162
sg67
g2147
sg60
(lp2163
g53
(g54
g55
NtRp2164
(dp2165
g58
(dp2166
g66
I5
ssg67
g2160
sg60
(lp2167
S'webparley/127.0.0.1.2012-03-22.21-36-17.add4a03e-8e46-44f3-b806-57fa65595620'
p2168
asbasbasbag53
(g69
g55
NtRp2169
(dp2170
g58
(dp2171
sg67
g63
sg60
(lp2172
g53
(g74
g55
NtRp2173
(dp2174
g58
(dp2175
g78
g79
ssg67
g2169
sg60
(lp2176
S'vars'
p2177
asbag53
(g74
g55
NtRp2178
(dp2179
g58
(dp2180
g85
g86
ssg67
g2169
sg60
(lp2181
S':'
asbag53
(g74
g55
NtRp2182
(dp2183
g58
(dp2184
sg67
g2169
sg60
(lp2185
g53
(g54
g55
NtRp2186
(dp2187
g58
(dp2188
g66
I5
ssg67
g2182
sg60
(lp2189
g53
(g62
g55
NtRp2190
(dp2191
g58
(dp2192
g66
I4
ssg67
Nsg60
(lp2193
sbasbasbasbag53
(g69
g55
NtRp2194
(dp2195
g58
(dp2196
sg67
g63
sg60
(lp2197
g53
(g74
g55
NtRp2198
(dp2199
g58
(dp2200
g78
g79
ssg67
g2194
sg60
(lp2201
S'wsgi'
p2202
asbag53
(g74
g55
NtRp2203
(dp2204
g58
(dp2205
g85
g86
ssg67
g2194
sg60
(lp2206
S':'
asbag53
(g74
g55
NtRp2207
(dp2208
g58
(dp2209
sg67
g2194
sg60
(lp2210
g53
(g54
g55
NtRp2211
(dp2212
g58
(dp2213
g66
I5
ssg67
g2207
sg60
(lp2214
g53
(g62
g55
NtRp2215
(dp2216
g58
(dp2217
g66
I4
ssg67
Nsg60
(lp2218
g53
(g69
g55
NtRp2219
(dp2220
g58
(dp2221
sg67
g2215
sg60
(lp2222
g53
(g74
g55
NtRp2223
(dp2224
g58
(dp2225
g78
g79
ssg67
g2219
sg60
(lp2226
S'environ'
p2227
asbag53
(g74
g55
NtRp2228
(dp2229
g58
(dp2230
g85
g86
ssg67
g2219
sg60
(lp2231
S':'
asbag53
(g74
g55
NtRp2232
(dp2233
g58
(dp2234
sg67
g2219
sg60
(lp2235
g53
(g54
g55
NtRp2236
(dp2237
g58
(dp2238
g66
I4
ssg67
g2232
sg60
(lp2239
g53
(g62
g55
NtRp2240
(dp2241
g58
(dp2242
g66
I3
ssg67
Nsg60
(lp2243
g53
(g69
g55
NtRp2244
(dp2245
g58
(dp2246
sg67
g2240
sg60
(lp2247
g53
(g74
g55
NtRp2248
(dp2249
g58
(dp2250
g78
g79
ssg67
g2244
sg60
(lp2251
S'HTTP_ACCEPT'
p2252
asbag53
(g74
g55
NtRp2253
(dp2254
g58
(dp2255
g85
g86
ssg67
g2244
sg60
(lp2256
S':'
asbag53
(g74
g55
NtRp2257
(dp2258
g58
(dp2259
sg67
g2244
sg60
(lp2260
g53
(g54
g55
NtRp2261
(dp2262
g58
(dp2263
g66
I3
ssg67
g2257
sg60
(lp2264
g773
asbasbasbag53
(g69
g55
NtRp2265
(dp2266
g58
(dp2267
sg67
g2240
sg60
(lp2268
g53
(g74
g55
NtRp2269
(dp2270
g58
(dp2271
g78
g79
ssg67
g2265
sg60
(lp2272
S'HTTP_ACCEPT_ENCODING'
p2273
asbag53
(g74
g55
NtRp2274
(dp2275
g58
(dp2276
g85
g86
ssg67
g2265
sg60
(lp2277
S':'
asbag53
(g74
g55
NtRp2278
(dp2279
g58
(dp2280
sg67
g2265
sg60
(lp2281
g53
(g54
g55
NtRp2282
(dp2283
g58
(dp2284
g66
I3
ssg67
g2278
sg60
(lp2285
g795
asbasbasbag53
(g69
g55
NtRp2286
(dp2287
g58
(dp2288
sg67
g2240
sg60
(lp2289
g53
(g74
g55
NtRp2290
(dp2291
g58
(dp2292
g78
g79
ssg67
g2286
sg60
(lp2293
S'HTTP_ACCEPT_LANGUAGE'
p2294
asbag53
(g74
g55
NtRp2295
(dp2296
g58
(dp2297
g85
g86
ssg67
g2286
sg60
(lp2298
S':'
asbag53
(g74
g55
NtRp2299
(dp2300
g58
(dp2301
sg67
g2286
sg60
(lp2302
g53
(g54
g55
NtRp2303
(dp2304
g58
(dp2305
g66
I3
ssg67
g2299
sg60
(lp2306
g817
asbasbasbag53
(g69
g55
NtRp2307
(dp2308
g58
(dp2309
sg67
g2240
sg60
(lp2310
g53
(g74
g55
NtRp2311
(dp2312
g58
(dp2313
g78
g79
ssg67
g2307
sg60
(lp2314
S'HTTP_CACHE_CONTROL'
p2315
asbag53
(g74
g55
NtRp2316
(dp2317
g58
(dp2318
g85
g86
ssg67
g2307
sg60
(lp2319
S':'
asbag53
(g74
g55
NtRp2320
(dp2321
g58
(dp2322
sg67
g2307
sg60
(lp2323
g53
(g54
g55
NtRp2324
(dp2325
g58
(dp2326
g66
I3
ssg67
g2320
sg60
(lp2327
g839
asbasbasbag53
(g69
g55
NtRp2328
(dp2329
g58
(dp2330
sg67
g2240
sg60
(lp2331
g53
(g74
g55
NtRp2332
(dp2333
g58
(dp2334
g78
g79
ssg67
g2328
sg60
(lp2335
S'HTTP_CONNECTION'
p2336
asbag53
(g74
g55
NtRp2337
(dp2338
g58
(dp2339
g85
g86
ssg67
g2328
sg60
(lp2340
S':'
asbag53
(g74
g55
NtRp2341
(dp2342
g58
(dp2343
sg67
g2328
sg60
(lp2344
g53
(g54
g55
NtRp2345
(dp2346
g58
(dp2347
g66
I3
ssg67
g2341
sg60
(lp2348
g861
asbasbasbag53
(g69
g55
NtRp2349
(dp2350
g58
(dp2351
sg67
g2240
sg60
(lp2352
g53
(g74
g55
NtRp2353
(dp2354
g58
(dp2355
g78
g79
ssg67
g2349
sg60
(lp2356
S'HTTP_COOKIE'
p2357
asbag53
(g74
g55
NtRp2358
(dp2359
g58
(dp2360
g85
g86
ssg67
g2349
sg60
(lp2361
S':'
asbag53
(g74
g55
NtRp2362
(dp2363
g58
(dp2364
sg67
g2349
sg60
(lp2365
g53
(g54
g55
NtRp2366
(dp2367
g58
(dp2368
g66
I3
ssg67
g2362
sg60
(lp2369
g883
asbasbasbag53
(g69
g55
NtRp2370
(dp2371
g58
(dp2372
sg67
g2240
sg60
(lp2373
g53
(g74
g55
NtRp2374
(dp2375
g58
(dp2376
g78
g79
ssg67
g2370
sg60
(lp2377
S'HTTP_HOST'
p2378
asbag53
(g74
g55
NtRp2379
(dp2380
g58
(dp2381
g85
g86
ssg67
g2370
sg60
(lp2382
S':'
asbag53
(g74
g55
NtRp2383
(dp2384
g58
(dp2385
sg67
g2370
sg60
(lp2386
g53
(g54
g55
NtRp2387
(dp2388
g58
(dp2389
g66
I3
ssg67
g2383
sg60
(lp2390
g905
asbasbasbag53
(g69
g55
NtRp2391
(dp2392
g58
(dp2393
sg67
g2240
sg60
(lp2394
g53
(g74
g55
NtRp2395
(dp2396
g58
(dp2397
g78
g79
ssg67
g2391
sg60
(lp2398
S'HTTP_REFERER'
p2399
asbag53
(g74
g55
NtRp2400
(dp2401
g58
(dp2402
g85
g86
ssg67
g2391
sg60
(lp2403
S':'
asbag53
(g74
g55
NtRp2404
(dp2405
g58
(dp2406
sg67
g2391
sg60
(lp2407
g53
(g54
g55
NtRp2408
(dp2409
g58
(dp2410
g66
I3
ssg67
g2404
sg60
(lp2411
g927
asbasbasbag53
(g69
g55
NtRp2412
(dp2413
g58
(dp2414
sg67
g2240
sg60
(lp2415
g53
(g74
g55
NtRp2416
(dp2417
g58
(dp2418
g78
g79
ssg67
g2412
sg60
(lp2419
S'HTTP_USER_AGENT'
p2420
asbag53
(g74
g55
NtRp2421
(dp2422
g58
(dp2423
g85
g86
ssg67
g2412
sg60
(lp2424
S':'
asbag53
(g74
g55
NtRp2425
(dp2426
g58
(dp2427
sg67
g2412
sg60
(lp2428
g53
(g54
g55
NtRp2429
(dp2430
g58
(dp2431
g66
I3
ssg67
g2425
sg60
(lp2432
g949
asbasbasbag53
(g69
g55
NtRp2433
(dp2434
g58
(dp2435
sg67
g2240
sg60
(lp2436
g53
(g74
g55
NtRp2437
(dp2438
g58
(dp2439
g78
g79
ssg67
g2433
sg60
(lp2440
S'PATH_INFO'
p2441
asbag53
(g74
g55
NtRp2442
(dp2443
g58
(dp2444
g85
g86
ssg67
g2433
sg60
(lp2445
S':'
asbag53
(g74
g55
NtRp2446
(dp2447
g58
(dp2448
sg67
g2433
sg60
(lp2449
g53
(g54
g55
NtRp2450
(dp2451
g58
(dp2452
g66
I3
ssg67
g2446
sg60
(lp2453
g1013
asbasbasbag53
(g69
g55
NtRp2454
(dp2455
g58
(dp2456
sg67
g2240
sg60
(lp2457
g53
(g74
g55
NtRp2458
(dp2459
g58
(dp2460
g78
g79
ssg67
g2454
sg60
(lp2461
S'QUERY_STRING'
p2462
asbag53
(g74
g55
NtRp2463
(dp2464
g58
(dp2465
g85
g86
ssg67
g2454
sg60
(lp2466
S':'
asbag53
(g74
g55
NtRp2467
(dp2468
g58
(dp2469
sg67
g2454
sg60
(lp2470
g53
(g54
g55
NtRp2471
(dp2472
g58
(dp2473
g66
I3
ssg67
g2467
sg60
(lp2474
S''
asbasbasbag53
(g69
g55
NtRp2475
(dp2476
g58
(dp2477
sg67
g2240
sg60
(lp2478
g53
(g74
g55
NtRp2479
(dp2480
g58
(dp2481
g78
g79
ssg67
g2475
sg60
(lp2482
S'REMOTE_ADDR'
p2483
asbag53
(g74
g55
NtRp2484
(dp2485
g58
(dp2486
g85
g86
ssg67
g2475
sg60
(lp2487
S':'
asbag53
(g74
g55
NtRp2488
(dp2489
g58
(dp2490
sg67
g2475
sg60
(lp2491
g53
(g54
g55
NtRp2492
(dp2493
g58
(dp2494
g66
I3
ssg67
g2488
sg60
(lp2495
g186
asbasbasbag53
(g69
g55
NtRp2496
(dp2497
g58
(dp2498
sg67
g2240
sg60
(lp2499
g53
(g74
g55
NtRp2500
(dp2501
g58
(dp2502
g78
g79
ssg67
g2496
sg60
(lp2503
S'REMOTE_PORT'
p2504
asbag53
(g74
g55
NtRp2505
(dp2506
g58
(dp2507
g85
g86
ssg67
g2496
sg60
(lp2508
S':'
asbag53
(g74
g55
NtRp2509
(dp2510
g58
(dp2511
sg67
g2496
sg60
(lp2512
g53
(g54
g55
NtRp2513
(dp2514
g58
(dp2515
g66
I3
ssg67
g2509
sg60
(lp2516
g1077
asbasbasbag53
(g69
g55
NtRp2517
(dp2518
g58
(dp2519
sg67
g2240
sg60
(lp2520
g53
(g74
g55
NtRp2521
(dp2522
g58
(dp2523
g78
g79
ssg67
g2517
sg60
(lp2524
S'REQUEST_METHOD'
p2525
asbag53
(g74
g55
NtRp2526
(dp2527
g58
(dp2528
g85
g86
ssg67
g2517
sg60
(lp2529
S':'
asbag53
(g74
g55
NtRp2530
(dp2531
g58
(dp2532
sg67
g2517
sg60
(lp2533
g53
(g54
g55
NtRp2534
(dp2535
g58
(dp2536
g66
I3
ssg67
g2530
sg60
(lp2537
g1099
asbasbasbag53
(g69
g55
NtRp2538
(dp2539
g58
(dp2540
sg67
g2240
sg60
(lp2541
g53
(g74
g55
NtRp2542
(dp2543
g58
(dp2544
g78
g79
ssg67
g2538
sg60
(lp2545
S'REQUEST_URI'
p2546
asbag53
(g74
g55
NtRp2547
(dp2548
g58
(dp2549
g85
g86
ssg67
g2538
sg60
(lp2550
S':'
asbag53
(g74
g55
NtRp2551
(dp2552
g58
(dp2553
sg67
g2538
sg60
(lp2554
g53
(g54
g55
NtRp2555
(dp2556
g58
(dp2557
g66
I3
ssg67
g2551
sg60
(lp2558
g1013
asbasbasbag53
(g69
g55
NtRp2559
(dp2560
g58
(dp2561
sg67
g2240
sg60
(lp2562
g53
(g74
g55
NtRp2563
(dp2564
g58
(dp2565
g78
g79
ssg67
g2559
sg60
(lp2566
S'SCRIPT_NAME'
p2567
asbag53
(g74
g55
NtRp2568
(dp2569
g58
(dp2570
g85
g86
ssg67
g2559
sg60
(lp2571
S':'
asbag53
(g74
g55
NtRp2572
(dp2573
g58
(dp2574
sg67
g2559
sg60
(lp2575
g53
(g54
g55
NtRp2576
(dp2577
g58
(dp2578
g66
I3
ssg67
g2572
sg60
(lp2579
S''
asbasbasbag53
(g69
g55
NtRp2580
(dp2581
g58
(dp2582
sg67
g2240
sg60
(lp2583
g53
(g74
g55
NtRp2584
(dp2585
g58
(dp2586
g78
g79
ssg67
g2580
sg60
(lp2587
S'SERVER_NAME'
p2588
asbag53
(g74
g55
NtRp2589
(dp2590
g58
(dp2591
g85
g86
ssg67
g2580
sg60
(lp2592
S':'
asbag53
(g74
g55
NtRp2593
(dp2594
g58
(dp2595
sg67
g2580
sg60
(lp2596
g53
(g54
g55
NtRp2597
(dp2598
g58
(dp2599
g66
I3
ssg67
g2593
sg60
(lp2600
g1163
asbasbasbag53
(g69
g55
NtRp2601
(dp2602
g58
(dp2603
sg67
g2240
sg60
(lp2604
g53
(g74
g55
NtRp2605
(dp2606
g58
(dp2607
g78
g79
ssg67
g2601
sg60
(lp2608
S'SERVER_PORT'
p2609
asbag53
(g74
g55
NtRp2610
(dp2611
g58
(dp2612
g85
g86
ssg67
g2601
sg60
(lp2613
S':'
asbag53
(g74
g55
NtRp2614
(dp2615
g58
(dp2616
sg67
g2601
sg60
(lp2617
g53
(g54
g55
NtRp2618
(dp2619
g58
(dp2620
g66
I3
ssg67
g2614
sg60
(lp2621
g1185
asbasbasbag53
(g69
g55
NtRp2622
(dp2623
g58
(dp2624
sg67
g2240
sg60
(lp2625
g53
(g74
g55
NtRp2626
(dp2627
g58
(dp2628
g78
g79
ssg67
g2622
sg60
(lp2629
S'SERVER_PROTOCOL'
p2630
asbag53
(g74
g55
NtRp2631
(dp2632
g58
(dp2633
g85
g86
ssg67
g2622
sg60
(lp2634
S':'
asbag53
(g74
g55
NtRp2635
(dp2636
g58
(dp2637
sg67
g2622
sg60
(lp2638
g53
(g54
g55
NtRp2639
(dp2640
g58
(dp2641
g66
I3
ssg67
g2635
sg60
(lp2642
g1207
asbasbasbag53
(g69
g55
NtRp2643
(dp2644
g58
(dp2645
sg67
g2240
sg60
(lp2646
g53
(g74
g55
NtRp2647
(dp2648
g58
(dp2649
g78
g79
ssg67
g2643
sg60
(lp2650
S'SERVER_SOFTWARE'
p2651
asbag53
(g74
g55
NtRp2652
(dp2653
g58
(dp2654
g85
g86
ssg67
g2643
sg60
(lp2655
S':'
asbag53
(g74
g55
NtRp2656
(dp2657
g58
(dp2658
sg67
g2643
sg60
(lp2659
g53
(g54
g55
NtRp2660
(dp2661
g58
(dp2662
g66
I3
ssg67
g2656
sg60
(lp2663
g1229
asbasbasbag53
(g69
g55
NtRp2664
(dp2665
g58
(dp2666
sg67
g2240
sg60
(lp2667
g53
(g74
g55
NtRp2668
(dp2669
g58
(dp2670
g78
g79
ssg67
g2664
sg60
(lp2671
S'WEB2PY_ORIGINAL_URI'
p2672
asbag53
(g74
g55
NtRp2673
(dp2674
g58
(dp2675
g85
g86
ssg67
g2664
sg60
(lp2676
S':'
asbag53
(g74
g55
NtRp2677
(dp2678
g58
(dp2679
sg67
g2664
sg60
(lp2680
g53
(g54
g55
NtRp2681
(dp2682
g58
(dp2683
g66
I3
ssg67
g2677
sg60
(lp2684
g1273
asbasbasbag53
(g69
g55
NtRp2685
(dp2686
g58
(dp2687
sg67
g2240
sg60
(lp2688
g53
(g74
g55
NtRp2689
(dp2690
g58
(dp2691
g78
g79
ssg67
g2685
sg60
(lp2692
S'wsgi.errors'
p2693
asbag53
(g74
g55
NtRp2694
(dp2695
g58
(dp2696
g85
g86
ssg67
g2685
sg60
(lp2697
S':'
asbag53
(g74
g55
NtRp2698
(dp2699
g58
(dp2700
sg67
g2685
sg60
(lp2701
g53
(g54
g55
NtRp2702
(dp2703
g58
(dp2704
g66
I3
ssg67
g2698
sg60
(lp2705
S"<open file '<stderr>', mode 'w' at 0x002400B0>"
p2706
asbasbasbag53
(g69
g55
NtRp2707
(dp2708
g58
(dp2709
sg67
g2240
sg60
(lp2710
g53
(g74
g55
NtRp2711
(dp2712
g58
(dp2713
g78
g79
ssg67
g2707
sg60
(lp2714
S'wsgi.file_wrapper'
p2715
asbag53
(g74
g55
NtRp2716
(dp2717
g58
(dp2718
g85
g86
ssg67
g2707
sg60
(lp2719
S':'
asbag53
(g74
g55
NtRp2720
(dp2721
g58
(dp2722
sg67
g2707
sg60
(lp2723
g53
(g54
g55
NtRp2724
(dp2725
g58
(dp2726
g66
I3
ssg67
g2720
sg60
(lp2727
S'<class wsgiref.util.FileWrapper at 0x02EC9390>'
p2728
asbasbasbag53
(g69
g55
NtRp2729
(dp2730
g58
(dp2731
sg67
g2240
sg60
(lp2732
g53
(g74
g55
NtRp2733
(dp2734
g58
(dp2735
g78
g79
ssg67
g2729
sg60
(lp2736
S'wsgi.input'
p2737
asbag53
(g74
g55
NtRp2738
(dp2739
g58
(dp2740
g85
g86
ssg67
g2729
sg60
(lp2741
S':'
asbag53
(g74
g55
NtRp2742
(dp2743
g58
(dp2744
sg67
g2729
sg60
(lp2745
g53
(g54
g55
NtRp2746
(dp2747
g58
(dp2748
g66
I3
ssg67
g2742
sg60
(lp2749
S'<cStringIO.StringO object at 0x032B63C0>'
p2750
asbasbasbag53
(g69
g55
NtRp2751
(dp2752
g58
(dp2753
sg67
g2240
sg60
(lp2754
g53
(g74
g55
NtRp2755
(dp2756
g58
(dp2757
g78
g79
ssg67
g2751
sg60
(lp2758
S'wsgi.multiprocess'
p2759
asbag53
(g74
g55
NtRp2760
(dp2761
g58
(dp2762
g85
g86
ssg67
g2751
sg60
(lp2763
S':'
asbag53
(g74
g55
NtRp2764
(dp2765
g58
(dp2766
sg67
g2751
sg60
(lp2767
g53
(g54
g55
NtRp2768
(dp2769
g58
(dp2770
g66
I3
ssg67
g2764
sg60
(lp2771
g96
asbasbasbag53
(g69
g55
NtRp2772
(dp2773
g58
(dp2774
sg67
g2240
sg60
(lp2775
g53
(g74
g55
NtRp2776
(dp2777
g58
(dp2778
g78
g79
ssg67
g2772
sg60
(lp2779
S'wsgi.multithread'
p2780
asbag53
(g74
g55
NtRp2781
(dp2782
g58
(dp2783
g85
g86
ssg67
g2772
sg60
(lp2784
S':'
asbag53
(g74
g55
NtRp2785
(dp2786
g58
(dp2787
sg67
g2772
sg60
(lp2788
g53
(g54
g55
NtRp2789
(dp2790
g58
(dp2791
g66
I3
ssg67
g2785
sg60
(lp2792
g1491
asbasbasbag53
(g69
g55
NtRp2793
(dp2794
g58
(dp2795
sg67
g2240
sg60
(lp2796
g53
(g74
g55
NtRp2797
(dp2798
g58
(dp2799
g78
g79
ssg67
g2793
sg60
(lp2800
S'wsgi.run_once'
p2801
asbag53
(g74
g55
NtRp2802
(dp2803
g58
(dp2804
g85
g86
ssg67
g2793
sg60
(lp2805
S':'
asbag53
(g74
g55
NtRp2806
(dp2807
g58
(dp2808
sg67
g2793
sg60
(lp2809
g53
(g54
g55
NtRp2810
(dp2811
g58
(dp2812
g66
I3
ssg67
g2806
sg60
(lp2813
g96
asbasbasbag53
(g69
g55
NtRp2814
(dp2815
g58
(dp2816
sg67
g2240
sg60
(lp2817
g53
(g74
g55
NtRp2818
(dp2819
g58
(dp2820
g78
g79
ssg67
g2814
sg60
(lp2821
S'wsgi.url_scheme'
p2822
asbag53
(g74
g55
NtRp2823
(dp2824
g58
(dp2825
g85
g86
ssg67
g2814
sg60
(lp2826
S':'
asbag53
(g74
g55
NtRp2827
(dp2828
g58
(dp2829
sg67
g2814
sg60
(lp2830
g53
(g54
g55
NtRp2831
(dp2832
g58
(dp2833
g66
I3
ssg67
g2827
sg60
(lp2834
g1534
asbasbasbag53
(g69
g55
NtRp2835
(dp2836
g58
(dp2837
sg67
g2240
sg60
(lp2838
g53
(g74
g55
NtRp2839
(dp2840
g58
(dp2841
g78
g79
ssg67
g2835
sg60
(lp2842
S'wsgi.version'
p2843
asbag53
(g74
g55
NtRp2844
(dp2845
g58
(dp2846
g85
g86
ssg67
g2835
sg60
(lp2847
S':'
asbag53
(g74
g55
NtRp2848
(dp2849
g58
(dp2850
sg67
g2835
sg60
(lp2851
g53
(g54
g55
NtRp2852
(dp2853
g58
(dp2854
g66
I3
ssg67
g2848
sg60
(lp2855
S'1'
asbasbasbasbasbasbasbasbasbasbasbasbasbsS'frames'
p2856
(lp2857
(dp2858
S'file'
p2859
S'D:\\Dise\xf1o Web\\Proyectos\\Parleyweb\\web2py\\gluon\\restricted.py'
p2860
sS'dump'
p2861
(dp2862
sS'lnum'
p2863
I205
sS'lines'
p2864
(dp2865
sS'call'
p2866
S"(code='# -*- coding: utf-8 -*-\\n\\n#######################...ras.id, min_length=1)\\n#\\n#\\n#\\n#\\n#\\n#\\n#\\n#\\n#\\n#\\n#\\n#\\n#\\n\\n', environment={'A': <class 'gluon.html.A'>, 'Auth': <class 'gluon.tools.Auth'>, 'B': <class 'gluon.html.B'>, 'BEAUTIFY': <class 'gluon.html.BEAUTIFY'>, 'BODY': <class 'gluon.html.BODY'>, 'BR': <class 'gluon.html.BR'>, 'BUTTON': <class 'gluon.html.BUTTON'>, 'CAT': <class 'gluon.html.CAT'>, 'CENTER': <class 'gluon.html.CENTER'>, 'CLEANUP': <class 'gluon.validators.CLEANUP'>, ...}, layer='D:\\\\Dise\\xf1o Web\\\\Proyectos\\\\Parleyweb\\\\web2py\\\\applications\\\\webparley\\\\models\\\\db.py')"
p2867
sS'func'
p2868
S'restricted'
p2869
sa(dp2870
g2859
S'D:\\Dise\xf1o Web\\Proyectos\\Parleyweb\\web2py\\applications\\webparley\\models\\db.py'
p2871
sg2861
(dp2872
sg2863
I215
sg2864
(dp2873
I210
S''
sI211
S'### buscar e imprimir glosarios ###'
p2874
sI212
S'buscar_glosarios = db().select(db.glosarios.nombre_glosario)'
p2875
sI213
S''
sI214
S'### Contar los registro de las tablas principales ###'
p2876
sI215
S'total_palabras = db(db.palabras > 0).count()'
p2877
sI216
S'total_ejemplos = db(db.ejemplos > 0).count()'
p2878
sI217
S''
sI218
S'####################################################################'
p2879
sI219
S'#                    Codigo para pegar y copiar'
p2880
ssg2866
S'()'
p2881
sg2868
S'<module>'
p2882
sa(dp2883
g2859
S'D:\\Dise\xf1o Web\\Proyectos\\Parleyweb\\web2py\\gluon\\dal.py'
p2884
sg2861
(dp2885
sg2863
I7573
sg2864
(dp2886
sg2866
S'(self=<gluon.dal.Set object at 0x06ED33F0>, distinct=None)'
p2887
sg2868
S'count'
p2888
sa(dp2889
g2859
S'D:\\Dise\xf1o Web\\Proyectos\\Parleyweb\\web2py\\gluon\\dal.py'
p2890
sg2861
(dp2891
sg2863
I1339
sg2864
(dp2892
sg2866
S'(self=<gluon.dal.SQLiteAdapter object at 0x032B6970>, query=True, distinct=None)'
p2893
sg2868
g2888
sa(dp2894
g2859
S'D:\\Dise\xf1o Web\\Proyectos\\Parleyweb\\web2py\\gluon\\dal.py'
p2895
sg2861
(dp2896
sg2863
I1392
sg2864
(dp2897
sg2866
S"(self=<gluon.dal.SQLiteAdapter object at 0x032B6970>, *a=('SELECT count(*) FROM  WHERE True;',), **b={})"
p2898
sg2868
S'execute'
p2899
sa(dp2900
g2859
S'D:\\Dise\xf1o Web\\Proyectos\\Parleyweb\\web2py\\gluon\\dal.py'
p2901
sg2861
(dp2902
sg2863
I1386
sg2864
(dp2903
sg2866
S"(self=<gluon.dal.SQLiteAdapter object at 0x032B6970>, *a=('SELECT count(*) FROM  WHERE True;',), **b={})"
p2904
sg2868
S'log_execute'
p2905
sasS'pyver'
p2906
S'Python 2.5.4: D:\\Dise\xf1o Web\\Proyectos\\Parleyweb\\web2py\\web2py.exe'
p2907
sS'session'
p2908
g53
(g54
g55
NtRp2909
(dp2910
g58
(dp2911
sg60
(lp2912
g53
(g62
g55
NtRp2913
(dp2914
g58
(dp2915
g66
I5
ssg67
Nsg60
(lp2916
g53
(g69
g55
NtRp2917
(dp2918
g58
(dp2919
sg67
g2913
sg60
(lp2920
g53
(g74
g55
NtRp2921
(dp2922
g58
(dp2923
g78
g79
ssg67
g2917
sg60
(lp2924
S'last_query'
p2925
asbag53
(g74
g55
NtRp2926
(dp2927
g58
(dp2928
g85
g86
ssg67
g2917
sg60
(lp2929
S':'
asbag53
(g74
g55
NtRp2930
(dp2931
g58
(dp2932
sg67
g2917
sg60
(lp2933
g53
(g54
g55
NtRp2934
(dp2935
g58
(dp2936
g66
I5
ssg67
g2930
sg60
(lp2937
S'db.palabras.id>0'
p2938
asbasbasbasbasbsS'etype'
p2939
S"<class 'sqlite3.OperationalError'>"
p2940
sS'date'
p2941
S'Thu Mar 22 21:36:17 2012'
p2942
sS'response'
p2943
g53
(g54
g55
NtRp2944
(dp2945
g58
(dp2946
sg60
(lp2947
g53
(g62
g55
NtRp2948
(dp2949
g58
(dp2950
g66
I5
ssg67
Nsg60
(lp2951
g53
(g69
g55
NtRp2952
(dp2953
g58
(dp2954
sg67
g2948
sg60
(lp2955
g53
(g74
g55
NtRp2956
(dp2957
g58
(dp2958
g78
g79
ssg67
g2952
sg60
(lp2959
g151
asbag53
(g74
g55
NtRp2960
(dp2961
g58
(dp2962
g85
g86
ssg67
g2952
sg60
(lp2963
S':'
asbag53
(g74
g55
NtRp2964
(dp2965
g58
(dp2966
sg67
g2952
sg60
(lp2967
g53
(g54
g55
NtRp2968
(dp2969
g58
(dp2970
g66
I5
ssg67
g2964
sg60
(lp2971
S'<cStringIO.StringO object at 0x030D0B40>'
p2972
asbasbasbag53
(g69
g55
NtRp2973
(dp2974
g58
(dp2975
sg67
g2948
sg60
(lp2976
g53
(g74
g55
NtRp2977
(dp2978
g58
(dp2979
g78
g79
ssg67
g2973
sg60
(lp2980
g217
asbag53
(g74
g55
NtRp2981
(dp2982
g58
(dp2983
g85
g86
ssg67
g2973
sg60
(lp2984
S':'
asbag53
(g74
g55
NtRp2985
(dp2986
g58
(dp2987
sg67
g2973
sg60
(lp2988
g53
(g54
g55
NtRp2989
(dp2990
g58
(dp2991
g66
I5
ssg67
g2985
sg60
(lp2992
g53
(g62
g55
NtRp2993
(dp2994
g58
(dp2995
g66
I4
ssg67
Nsg60
(lp2996
g53
(g69
g55
NtRp2997
(dp2998
g58
(dp2999
sg67
g2993
sg60
(lp3000
g53
(g74
g55
NtRp3001
(dp3002
g58
(dp3003
g78
g79
ssg67
g2997
sg60
(lp3004
S'session_id_webparley'
p3005
asbag53
(g74
g55
NtRp3006
(dp3007
g58
(dp3008
g85
g86
ssg67
g2997
sg60
(lp3009
S':'
asbag53
(g74
g55
NtRp3010
(dp3011
g58
(dp3012
sg67
g2997
sg60
(lp3013
g53
(g54
g55
NtRp3014
(dp3015
g58
(dp3016
g66
I4
ssg67
g3010
sg60
(lp3017
g53
(g62
g55
NtRp3018
(dp3019
g58
(dp3020
g66
I3
ssg67
Nsg60
(lp3021
g53
(g69
g55
NtRp3022
(dp3023
g58
(dp3024
sg67
g3018
sg60
(lp3025
g53
(g74
g55
NtRp3026
(dp3027
g58
(dp3028
g78
g79
ssg67
g3022
sg60
(lp3029
g267
asbag53
(g74
g55
NtRp3030
(dp3031
g58
(dp3032
g85
g86
ssg67
g3022
sg60
(lp3033
S':'
asbag53
(g74
g55
NtRp3034
(dp3035
g58
(dp3036
sg67
g3022
sg60
(lp3037
g53
(g54
g55
NtRp3038
(dp3039
g58
(dp3040
g66
I3
ssg67
g3034
sg60
(lp3041
S''
asbasbasbag53
(g69
g55
NtRp3042
(dp3043
g58
(dp3044
sg67
g3018
sg60
(lp3045
g53
(g74
g55
NtRp3046
(dp3047
g58
(dp3048
g78
g79
ssg67
g3042
sg60
(lp3049
g288
asbag53
(g74
g55
NtRp3050
(dp3051
g58
(dp3052
g85
g86
ssg67
g3042
sg60
(lp3053
S':'
asbag53
(g74
g55
NtRp3054
(dp3055
g58
(dp3056
sg67
g3042
sg60
(lp3057
g53
(g54
g55
NtRp3058
(dp3059
g58
(dp3060
g66
I3
ssg67
g3054
sg60
(lp3061
S''
asbasbasbag53
(g69
g55
NtRp3062
(dp3063
g58
(dp3064
sg67
g3018
sg60
(lp3065
g53
(g74
g55
NtRp3066
(dp3067
g58
(dp3068
g78
g79
ssg67
g3062
sg60
(lp3069
g309
asbag53
(g74
g55
NtRp3070
(dp3071
g58
(dp3072
g85
g86
ssg67
g3062
sg60
(lp3073
S':'
asbag53
(g74
g55
NtRp3074
(dp3075
g58
(dp3076
sg67
g3062
sg60
(lp3077
g53
(g54
g55
NtRp3078
(dp3079
g58
(dp3080
g66
I3
ssg67
g3074
sg60
(lp3081
S''
asbasbasbag53
(g69
g55
NtRp3082
(dp3083
g58
(dp3084
sg67
g3018
sg60
(lp3085
g53
(g74
g55
NtRp3086
(dp3087
g58
(dp3088
g78
g79
ssg67
g3082
sg60
(lp3089
g330
asbag53
(g74
g55
NtRp3090
(dp3091
g58
(dp3092
g85
g86
ssg67
g3082
sg60
(lp3093
S':'
asbag53
(g74
g55
NtRp3094
(dp3095
g58
(dp3096
sg67
g3082
sg60
(lp3097
g53
(g54
g55
NtRp3098
(dp3099
g58
(dp3100
g66
I3
ssg67
g3094
sg60
(lp3101
S''
asbasbasbag53
(g69
g55
NtRp3102
(dp3103
g58
(dp3104
sg67
g3018
sg60
(lp3105
g53
(g74
g55
NtRp3106
(dp3107
g58
(dp3108
g78
g79
ssg67
g3102
sg60
(lp3109
g351
asbag53
(g74
g55
NtRp3110
(dp3111
g58
(dp3112
g85
g86
ssg67
g3102
sg60
(lp3113
S':'
asbag53
(g74
g55
NtRp3114
(dp3115
g58
(dp3116
sg67
g3102
sg60
(lp3117
g53
(g54
g55
NtRp3118
(dp3119
g58
(dp3120
g66
I3
ssg67
g3114
sg60
(lp3121
S'/'
asbasbasbag53
(g69
g55
NtRp3122
(dp3123
g58
(dp3124
sg67
g3018
sg60
(lp3125
g53
(g74
g55
NtRp3126
(dp3127
g58
(dp3128
g78
g79
ssg67
g3122
sg60
(lp3129
g372
asbag53
(g74
g55
NtRp3130
(dp3131
g58
(dp3132
g85
g86
ssg67
g3122
sg60
(lp3133
S':'
asbag53
(g74
g55
NtRp3134
(dp3135
g58
(dp3136
sg67
g3122
sg60
(lp3137
g53
(g54
g55
NtRp3138
(dp3139
g58
(dp3140
g66
I3
ssg67
g3134
sg60
(lp3141
S''
asbasbasbag53
(g69
g55
NtRp3142
(dp3143
g58
(dp3144
sg67
g3018
sg60
(lp3145
g53
(g74
g55
NtRp3146
(dp3147
g58
(dp3148
g78
g79
ssg67
g3142
sg60
(lp3149
g393
asbag53
(g74
g55
NtRp3150
(dp3151
g58
(dp3152
g85
g86
ssg67
g3142
sg60
(lp3153
S':'
asbag53
(g74
g55
NtRp3154
(dp3155
g58
(dp3156
sg67
g3142
sg60
(lp3157
g53
(g54
g55
NtRp3158
(dp3159
g58
(dp3160
g66
I3
ssg67
g3154
sg60
(lp3161
S''
asbasbasbasbasbasbasbasbasbasbasbag53
(g69
g55
NtRp3162
(dp3163
g58
(dp3164
sg67
g2948
sg60
(lp3165
g53
(g74
g55
NtRp3166
(dp3167
g58
(dp3168
g78
g79
ssg67
g3162
sg60
(lp3169
S'delimiters'
p3170
asbag53
(g74
g55
NtRp3171
(dp3172
g58
(dp3173
g85
g86
ssg67
g3162
sg60
(lp3174
S':'
asbag53
(g74
g55
NtRp3175
(dp3176
g58
(dp3177
sg67
g3162
sg60
(lp3178
g53
(g54
g55
NtRp3179
(dp3180
g58
(dp3181
g66
I5
ssg67
g3175
sg60
(lp3182
g53
(g62
g55
NtRp3183
(dp3184
g58
(dp3185
g66
I4
ssg67
Nsg60
(lp3186
g53
(g69
g55
NtRp3187
(dp3188
g58
(dp3189
sg67
g3183
sg60
(lp3190
g53
(g74
g55
NtRp3191
(dp3192
g58
(dp3193
sg67
g3187
sg60
(lp3194
g53
(g54
g55
NtRp3195
(dp3196
g58
(dp3197
g66
I4
ssg67
g3191
sg60
(lp3198
S'{{'
p3199
asbasbasbag53
(g69
g55
NtRp3200
(dp3201
g58
(dp3202
sg67
g3183
sg60
(lp3203
g53
(g74
g55
NtRp3204
(dp3205
g58
(dp3206
sg67
g3200
sg60
(lp3207
g53
(g54
g55
NtRp3208
(dp3209
g58
(dp3210
g66
I4
ssg67
g3204
sg60
(lp3211
S'}}'
p3212
asbasbasbasbasbasbasbag53
(g69
g55
NtRp3213
(dp3214
g58
(dp3215
sg67
g2948
sg60
(lp3216
g53
(g74
g55
NtRp3217
(dp3218
g58
(dp3219
g78
g79
ssg67
g3213
sg60
(lp3220
S'files'
p3221
asbag53
(g74
g55
NtRp3222
(dp3223
g58
(dp3224
g85
g86
ssg67
g3213
sg60
(lp3225
S':'
asbag53
(g74
g55
NtRp3226
(dp3227
g58
(dp3228
sg67
g3213
sg60
(lp3229
g53
(g54
g55
NtRp3230
(dp3231
g58
(dp3232
g66
I5
ssg67
g3226
sg60
(lp3233
g53
(g62
g55
NtRp3234
(dp3235
g58
(dp3236
g66
I4
ssg67
Nsg60
(lp3237
sbasbasbasbag53
(g69
g55
NtRp3238
(dp3239
g58
(dp3240
sg67
g2948
sg60
(lp3241
g53
(g74
g55
NtRp3242
(dp3243
g58
(dp3244
g78
g79
ssg67
g3238
sg60
(lp3245
S'flash'
p3246
asbag53
(g74
g55
NtRp3247
(dp3248
g58
(dp3249
g85
g86
ssg67
g3238
sg60
(lp3250
S':'
asbag53
(g74
g55
NtRp3251
(dp3252
g58
(dp3253
sg67
g3238
sg60
(lp3254
g53
(g54
g55
NtRp3255
(dp3256
g58
(dp3257
g66
I5
ssg67
g3251
sg60
(lp3258
S''
asbasbasbag53
(g69
g55
NtRp3259
(dp3260
g58
(dp3261
sg67
g2948
sg60
(lp3262
g53
(g74
g55
NtRp3263
(dp3264
g58
(dp3265
g78
g79
ssg67
g3259
sg60
(lp3266
S'generic_patterns'
p3267
asbag53
(g74
g55
NtRp3268
(dp3269
g58
(dp3270
g85
g86
ssg67
g3259
sg60
(lp3271
S':'
asbag53
(g74
g55
NtRp3272
(dp3273
g58
(dp3274
sg67
g3259
sg60
(lp3275
g53
(g54
g55
NtRp3276
(dp3277
g58
(dp3278
g66
I5
ssg67
g3272
sg60
(lp3279
g53
(g62
g55
NtRp3280
(dp3281
g58
(dp3282
g66
I4
ssg67
Nsg60
(lp3283
g53
(g69
g55
NtRp3284
(dp3285
g58
(dp3286
sg67
g3280
sg60
(lp3287
g53
(g74
g55
NtRp3288
(dp3289
g58
(dp3290
sg67
g3284
sg60
(lp3291
g53
(g54
g55
NtRp3292
(dp3293
g58
(dp3294
g66
I4
ssg67
g3288
sg60
(lp3295
S'*'
asbasbasbasbasbasbasbag53
(g69
g55
NtRp3296
(dp3297
g58
(dp3298
sg67
g2948
sg60
(lp3299
g53
(g74
g55
NtRp3300
(dp3301
g58
(dp3302
g78
g79
ssg67
g3296
sg60
(lp3303
S'headers'
p3304
asbag53
(g74
g55
NtRp3305
(dp3306
g58
(dp3307
g85
g86
ssg67
g3296
sg60
(lp3308
S':'
asbag53
(g74
g55
NtRp3309
(dp3310
g58
(dp3311
sg67
g3296
sg60
(lp3312
g53
(g54
g55
NtRp3313
(dp3314
g58
(dp3315
g66
I5
ssg67
g3309
sg60
(lp3316
g53
(g62
g55
NtRp3317
(dp3318
g58
(dp3319
g66
I4
ssg67
Nsg60
(lp3320
g53
(g69
g55
NtRp3321
(dp3322
g58
(dp3323
sg67
g3317
sg60
(lp3324
g53
(g74
g55
NtRp3325
(dp3326
g58
(dp3327
g78
g79
ssg67
g3321
sg60
(lp3328
S'Cache-Control'
p3329
asbag53
(g74
g55
NtRp3330
(dp3331
g58
(dp3332
g85
g86
ssg67
g3321
sg60
(lp3333
S':'
asbag53
(g74
g55
NtRp3334
(dp3335
g58
(dp3336
sg67
g3321
sg60
(lp3337
g53
(g54
g55
NtRp3338
(dp3339
g58
(dp3340
g66
I4
ssg67
g3334
sg60
(lp3341
S'no-store, no-cache, must-revalidate, post-check=0, pre-check=0'
p3342
asbasbasbag53
(g69
g55
NtRp3343
(dp3344
g58
(dp3345
sg67
g3317
sg60
(lp3346
g53
(g74
g55
NtRp3347
(dp3348
g58
(dp3349
g78
g79
ssg67
g3343
sg60
(lp3350
S'Content-Type'
p3351
asbag53
(g74
g55
NtRp3352
(dp3353
g58
(dp3354
g85
g86
ssg67
g3343
sg60
(lp3355
S':'
asbag53
(g74
g55
NtRp3356
(dp3357
g58
(dp3358
sg67
g3343
sg60
(lp3359
g53
(g54
g55
NtRp3360
(dp3361
g58
(dp3362
g66
I4
ssg67
g3356
sg60
(lp3363
S'text/html; charset=utf-8'
p3364
asbasbasbag53
(g69
g55
NtRp3365
(dp3366
g58
(dp3367
sg67
g3317
sg60
(lp3368
g53
(g74
g55
NtRp3369
(dp3370
g58
(dp3371
g78
g79
ssg67
g3365
sg60
(lp3372
S'Expires'
p3373
asbag53
(g74
g55
NtRp3374
(dp3375
g58
(dp3376
g85
g86
ssg67
g3365
sg60
(lp3377
S':'
asbag53
(g74
g55
NtRp3378
(dp3379
g58
(dp3380
sg67
g3365
sg60
(lp3381
g53
(g54
g55
NtRp3382
(dp3383
g58
(dp3384
g66
I4
ssg67
g3378
sg60
(lp3385
S'Thu, 22 Mar 2012 20:36:17 GMT'
p3386
asbasbasbag53
(g69
g55
NtRp3387
(dp3388
g58
(dp3389
sg67
g3317
sg60
(lp3390
g53
(g74
g55
NtRp3391
(dp3392
g58
(dp3393
g78
g79
ssg67
g3387
sg60
(lp3394
S'Pragma'
p3395
asbag53
(g74
g55
NtRp3396
(dp3397
g58
(dp3398
g85
g86
ssg67
g3387
sg60
(lp3399
S':'
asbag53
(g74
g55
NtRp3400
(dp3401
g58
(dp3402
sg67
g3387
sg60
(lp3403
g53
(g54
g55
NtRp3404
(dp3405
g58
(dp3406
g66
I4
ssg67
g3400
sg60
(lp3407
S'no-cache'
p3408
asbasbasbag53
(g69
g55
NtRp3409
(dp3410
g58
(dp3411
sg67
g3317
sg60
(lp3412
g53
(g74
g55
NtRp3413
(dp3414
g58
(dp3415
g78
g79
ssg67
g3409
sg60
(lp3416
S'X-Powered-By'
p3417
asbag53
(g74
g55
NtRp3418
(dp3419
g58
(dp3420
g85
g86
ssg67
g3409
sg60
(lp3421
S':'
asbag53
(g74
g55
NtRp3422
(dp3423
g58
(dp3424
sg67
g3409
sg60
(lp3425
g53
(g54
g55
NtRp3426
(dp3427
g58
(dp3428
g66
I4
ssg67
g3422
sg60
(lp3429
S'web2py'
p3430
asbasbasbasbasbasbasbag53
(g69
g55
NtRp3431
(dp3432
g58
(dp3433
sg67
g2948
sg60
(lp3434
g53
(g74
g55
NtRp3435
(dp3436
g58
(dp3437
g78
g79
ssg67
g3431
sg60
(lp3438
S'menu'
p3439
asbag53
(g74
g55
NtRp3440
(dp3441
g58
(dp3442
g85
g86
ssg67
g3431
sg60
(lp3443
S':'
asbag53
(g74
g55
NtRp3444
(dp3445
g58
(dp3446
sg67
g3431
sg60
(lp3447
g53
(g54
g55
NtRp3448
(dp3449
g58
(dp3450
g66
I5
ssg67
g3444
sg60
(lp3451
g53
(g62
g55
NtRp3452
(dp3453
g58
(dp3454
g66
I4
ssg67
Nsg60
(lp3455
sbasbasbasbag53
(g69
g55
NtRp3456
(dp3457
g58
(dp3458
sg67
g2948
sg60
(lp3459
g53
(g74
g55
NtRp3460
(dp3461
g58
(dp3462
g78
g79
ssg67
g3456
sg60
(lp3463
S'meta'
p3464
asbag53
(g74
g55
NtRp3465
(dp3466
g58
(dp3467
g85
g86
ssg67
g3456
sg60
(lp3468
S':'
asbag53
(g74
g55
NtRp3469
(dp3470
g58
(dp3471
sg67
g3456
sg60
(lp3472
g53
(g54
g55
NtRp3473
(dp3474
g58
(dp3475
g66
I5
ssg67
g3469
sg60
(lp3476
g53
(g62
g55
NtRp3477
(dp3478
g58
(dp3479
g66
I4
ssg67
Nsg60
(lp3480
sbasbasbasbag53
(g69
g55
NtRp3481
(dp3482
g58
(dp3483
sg67
g2948
sg60
(lp3484
g53
(g74
g55
NtRp3485
(dp3486
g58
(dp3487
g78
g79
ssg67
g3481
sg60
(lp3488
S'postprocessing'
p3489
asbag53
(g74
g55
NtRp3490
(dp3491
g58
(dp3492
g85
g86
ssg67
g3481
sg60
(lp3493
S':'
asbag53
(g74
g55
NtRp3494
(dp3495
g58
(dp3496
sg67
g3481
sg60
(lp3497
g53
(g54
g55
NtRp3498
(dp3499
g58
(dp3500
g66
I5
ssg67
g3494
sg60
(lp3501
g53
(g62
g55
NtRp3502
(dp3503
g58
(dp3504
g66
I4
ssg67
Nsg60
(lp3505
sbasbasbasbag53
(g69
g55
NtRp3506
(dp3507
g58
(dp3508
sg67
g2948
sg60
(lp3509
g53
(g74
g55
NtRp3510
(dp3511
g58
(dp3512
g78
g79
ssg67
g3506
sg60
(lp3513
S'session_file'
p3514
asbag53
(g74
g55
NtRp3515
(dp3516
g58
(dp3517
g85
g86
ssg67
g3506
sg60
(lp3518
S':'
asbag53
(g74
g55
NtRp3519
(dp3520
g58
(dp3521
sg67
g3506
sg60
(lp3522
g53
(g54
g55
NtRp3523
(dp3524
g58
(dp3525
g66
I5
ssg67
g3519
sg60
(lp3526
S"<open file 'D:\\Dise\xf1o Web\\Proyectos\\Parleyweb\\web2py\\applications\\webparley\\sessions\\127.0.0.1-5b8ea652-b766-4d37-b1d1-5389be8daee2', mode 'rb+' at 0x0797C338>"
p3527
asbasbasbag53
(g69
g55
NtRp3528
(dp3529
g58
(dp3530
sg67
g2948
sg60
(lp3531
g53
(g74
g55
NtRp3532
(dp3533
g58
(dp3534
g78
g79
ssg67
g3528
sg60
(lp3535
S'session_filename'
p3536
asbag53
(g74
g55
NtRp3537
(dp3538
g58
(dp3539
g85
g86
ssg67
g3528
sg60
(lp3540
S':'
asbag53
(g74
g55
NtRp3541
(dp3542
g58
(dp3543
sg67
g3528
sg60
(lp3544
g53
(g54
g55
NtRp3545
(dp3546
g58
(dp3547
g66
I5
ssg67
g3541
sg60
(lp3548
S'D:\\Dise\xf1o Web\\Proyectos\\Parleyweb\\web2py\\applications\\webparley\\sessions\\127.0.0.1-5b8ea652-b766-4d37-b1d1-5389be8daee2'
p3549
asbasbasbag53
(g69
g55
NtRp3550
(dp3551
g58
(dp3552
sg67
g2948
sg60
(lp3553
g53
(g74
g55
NtRp3554
(dp3555
g58
(dp3556
g78
g79
ssg67
g3550
sg60
(lp3557
S'session_id'
p3558
asbag53
(g74
g55
NtRp3559
(dp3560
g58
(dp3561
g85
g86
ssg67
g3550
sg60
(lp3562
S':'
asbag53
(g74
g55
NtRp3563
(dp3564
g58
(dp3565
sg67
g3550
sg60
(lp3566
g53
(g54
g55
NtRp3567
(dp3568
g58
(dp3569
g66
I5
ssg67
g3563
sg60
(lp3570
S'127.0.0.1-5b8ea652-b766-4d37-b1d1-5389be8daee2'
p3571
asbasbasbag53
(g69
g55
NtRp3572
(dp3573
g58
(dp3574
sg67
g2948
sg60
(lp3575
g53
(g74
g55
NtRp3576
(dp3577
g58
(dp3578
g78
g79
ssg67
g3572
sg60
(lp3579
S'session_id_name'
p3580
asbag53
(g74
g55
NtRp3581
(dp3582
g58
(dp3583
g85
g86
ssg67
g3572
sg60
(lp3584
S':'
asbag53
(g74
g55
NtRp3585
(dp3586
g58
(dp3587
sg67
g3572
sg60
(lp3588
g53
(g54
g55
NtRp3589
(dp3590
g58
(dp3591
g66
I5
ssg67
g3585
sg60
(lp3592
g3005
asbasbasbag53
(g69
g55
NtRp3593
(dp3594
g58
(dp3595
sg67
g2948
sg60
(lp3596
g53
(g74
g55
NtRp3597
(dp3598
g58
(dp3599
g78
g79
ssg67
g3593
sg60
(lp3600
S'session_locked'
p3601
asbag53
(g74
g55
NtRp3602
(dp3603
g58
(dp3604
g85
g86
ssg67
g3593
sg60
(lp3605
S':'
asbag53
(g74
g55
NtRp3606
(dp3607
g58
(dp3608
sg67
g3593
sg60
(lp3609
g53
(g54
g55
NtRp3610
(dp3611
g58
(dp3612
g66
I5
ssg67
g3606
sg60
(lp3613
g1491
asbasbasbag53
(g69
g55
NtRp3614
(dp3615
g58
(dp3616
sg67
g2948
sg60
(lp3617
g53
(g74
g55
NtRp3618
(dp3619
g58
(dp3620
g78
g79
ssg67
g3614
sg60
(lp3621
S'session_new'
p3622
asbag53
(g74
g55
NtRp3623
(dp3624
g58
(dp3625
g85
g86
ssg67
g3614
sg60
(lp3626
S':'
asbag53
(g74
g55
NtRp3627
(dp3628
g58
(dp3629
sg67
g3614
sg60
(lp3630
g53
(g54
g55
NtRp3631
(dp3632
g58
(dp3633
g66
I5
ssg67
g3627
sg60
(lp3634
g96
asbasbasbag53
(g69
g55
NtRp3635
(dp3636
g58
(dp3637
sg67
g2948
sg60
(lp3638
g53
(g74
g55
NtRp3639
(dp3640
g58
(dp3641
g78
g79
ssg67
g3635
sg60
(lp3642
S'status'
p3643
asbag53
(g74
g55
NtRp3644
(dp3645
g58
(dp3646
g85
g86
ssg67
g3635
sg60
(lp3647
S':'
asbag53
(g74
g55
NtRp3648
(dp3649
g58
(dp3650
sg67
g3635
sg60
(lp3651
g53
(g54
g55
NtRp3652
(dp3653
g58
(dp3654
g66
I5
ssg67
g3648
sg60
(lp3655
S'200'
p3656
asbasbasbag53
(g69
g55
NtRp3657
(dp3658
g58
(dp3659
sg67
g2948
sg60
(lp3660
g53
(g74
g55
NtRp3661
(dp3662
g58
(dp3663
g78
g79
ssg67
g3657
sg60
(lp3664
g2155
asbag53
(g74
g55
NtRp3665
(dp3666
g58
(dp3667
g85
g86
ssg67
g3657
sg60
(lp3668
S':'
asbag53
(g74
g55
NtRp3669
(dp3670
g58
(dp3671
sg67
g3657
sg60
(lp3672
g53
(g54
g55
NtRp3673
(dp3674
g58
(dp3675
g66
I5
ssg67
g3669
sg60
(lp3676
g2168
asbasbasbag53
(g69
g55
NtRp3677
(dp3678
g58
(dp3679
sg67
g2948
sg60
(lp3680
g53
(g74
g55
NtRp3681
(dp3682
g58
(dp3683
g78
g79
ssg67
g3677
sg60
(lp3684
S'view'
p3685
asbag53
(g74
g55
NtRp3686
(dp3687
g58
(dp3688
g85
g86
ssg67
g3677
sg60
(lp3689
S':'
asbag53
(g74
g55
NtRp3690
(dp3691
g58
(dp3692
sg67
g3677
sg60
(lp3693
g53
(g54
g55
NtRp3694
(dp3695
g58
(dp3696
g66
I5
ssg67
g3690
sg60
(lp3697
S'admin/index.html'
p3698
asbasbasbasbasbsS'locals'
p3699
(dp3700
S'a'
S"('SELECT count(*) FROM  WHERE True;',)"
p3701
sS'self'
p3702
S'<gluon.dal.SQLiteAdapter object at 0x032B6970>'
p3703
sS'b'
g41
sS't0'
p3704
S'1332448577.7'
p3705
sssS'traceback'
p3706
S'Traceback (most recent call last):\n  File "gluon/restricted.py", line 205, in restricted\n  File "D:\\Dise\xf1o Web\\Proyectos\\Parleyweb\\web2py\\applications\\webparley\\models\\db.py", line 215, in <module>\n  File "gluon/dal.py", line 7573, in count\n  File "gluon/dal.py", line 1339, in count\n  File "gluon/dal.py", line 1392, in execute\n  File "gluon/dal.py", line 1386, in log_execute\nOperationalError: near "WHERE": syntax error\n'
p3707
s.