(dp1
S'output'
p2
S"<type 'exceptions.NameError'> name 'date' is not defined"
p3
sS'layer'
p4
S'D:\\Dise\xf1o Web\\Proyectos\\Parleyweb\\web2py\\applications\\webparley\\models\\db.py'
p5
sS'code'
p6
S'# -*- coding: utf-8 -*-\n\n#########################################################################\n## This scaffolding model makes your app work on Google App Engine too\n## File is released under public domain and you can use without limitations\n#########################################################################\n\n## if SSL/HTTPS is properly configured and you want all HTTP requests to\n## be redirected to HTTPS, uncomment the line below:\n# request.requires_https()\n\nif not request.env.web2py_runtime_gae:\n    ## if NOT running on Google App Engine use SQLite or other DB\n    db = DAL(\'sqlite://storage.sqlite\')\nelse:\n    ## connect to Google BigTable (optional \'google:datastore://namespace\')\n    db = DAL(\'google:datastore\')\n    ## store sessions and tickets there\n    session.connect(request, response, db = db)\n    ## or store session in Memcache, Redis, etc.\n    ## from gluon.contrib.memdb import MEMDB\n    ## from google.appengine.api.memcache import Client\n    ## session.connect(request, response, db = MEMDB(Client()))\n\n## by default give a view/generic.extension to all actions from localhost\n## none otherwise. a pattern can be \'controller/function.extension\'\nresponse.generic_patterns = [\'*\'] if request.is_local else []\n## (optional) optimize handling of static files\n# response.optimize_css = \'concat,minify,inline\'\n# response.optimize_js = \'concat,minify,inline\'\n\n#########################################################################\n## Here is sample code if you need for\n## - email capabilities\n## - authentication (registration, login, logout, ... )\n## - authorization (role based authorization)\n## - services (xml, csv, json, xmlrpc, jsonrpc, amf, rss)\n## - old style crud actions\n## (more options discussed in gluon/tools.py)\n#########################################################################\n\nfrom gluon.tools import Auth, Crud, Service, PluginManager, prettydate\nauth = Auth(db, hmac_key=Auth.get_or_create_key())\ncrud, service, plugins = Crud(db), Service(), PluginManager()\n\n\n\n## create all tables needed by auth if not custom tables\nauth.define_tables()\n\n## configure email\nmail=auth.settings.mailer\nmail.settings.server = \'logging\' or \'smtp.gmail.com:587\'\nmail.settings.sender = \'you@gmail.com\'\nmail.settings.login = \'username:password\'\n\n## configure auth policy\nauth.settings.registration_requires_verification = False\nauth.settings.registration_requires_approval = False\nauth.settings.reset_password_requires_verification = True\n\n## if you need to use OpenID, Facebook, MySpace, Twitter, Linkedin, etc.\n## register with janrain.com, write your domain:api_key in private/janrain.key\nfrom gluon.contrib.login_methods.rpx_account import use_janrain\nuse_janrain(auth,filename=\'private/janrain.key\')\n\n#########################################################################\n## Define your tables below (or better in another model file) for example\n##\n## >>> db.define_table(\'mytable\',Field(\'myfield\',\'string\'))\n##\n## Fields can be \'string\',\'text\',\'password\',\'integer\',\'double\',\'boolean\'\n##       \'date\',\'time\',\'datetime\',\'blob\',\'upload\', \'reference TABLENAME\'\n## There is an implicit \'id integer autoincrement\' field\n## Consult manual for more options, validators, etc.\n##\n## More API examples for controllers:\n##\n## >>> db.mytable.insert(myfield=\'value\')\n## >>> rows=db(db.mytable.myfield==\'value\').select(db.mytable.ALL)\n## >>> for row in rows: print row.id, row.myfield\n#########################################################################\ndb.define_table(\'Tag\',\n   Field(\'Name\', unique=True),\n   format = \'%(Name)s\')\n\ndb.define_table(\'Image\',\n   Field(\'Nom\'),\n   Field(\'Date_Creation\',date),\n   Field(\'Tag\',\'list:reference Tag\'),\n   format = \'%(Nom)s\')\n\n\ndb.define_table(\'glosarios\',\n                Field(\'nombre_glosario\', unique=True), # no puede estar repetido\n                Field(\'descripcion_glosario\',  widget=SQLFORM.widgets.text.widget), #poner widget mostrar como campo text\n                format = \'%(nombre_glosario)s%(descripcion_glosario)s\'\n                )\n\ndb.define_table(\'palabras\',\n                Field(\'palabra\', \'string\', unique=True),\n                Field(\'sustantivo\', \'boolean\'),\n                Field(\'articulo\'),\n                Field(\'plural\', \'string\'),\n                Field(\'imagen\', \'upload\'),\n                Field(\'adverbio\', \'boolean\'),\n                Field(\'adjetivo\', \'boolean\'),\n                # verbo\n                Field(\'verbo\', \'boolean\'),\n                Field(\'verbo_irregular\', \'boolean\'),\n                Field(\'participio2\', \'string\'),\n                Field(\'reflexivo\', \'boolean\'),\n                Field(\'presente_1\'),\n                Field(\'presente_2\'),\n                Field(\'presente_3\'),\n                Field(\'presente_1_p\'),\n                Field(\'presente_2_p\'),\n                Field(\'presente_3_p\'),\n                Field(\'anadir_glosario\', \'boolean\'),\n                Field(\'glosario\', \'list:reference glosarios\')\n                )\n\ndb.define_table(\'fuentes\',\n                Field(\'nombre\', \'string\')\n                )\n\ndb.define_table(\'ejemplos\',\n                Field(\'ejemplo_de\', \'text\'),  # no puede estar vacio\n                Field(\'ejemplo_es\', \'text\'),   # puede estar vacio\n                Field(\'adverbio\', \'boolean\'),\n                Field(\'verbo\', \'boolean\'),\n                Field(\'adjetivo\', \'boolean\'),\n                Field(\'sustantivo\', \'boolean\'),\n                Field(\'preposicion\', \'boolean\'),\n                Field(\'fuente\', db.fuentes)\n                )\ndb.define_table(\'palabra_ejemplo\',  # refereciada por los Id\n                Field(\'palabra\', db.palabras),   # no puede estar vacio\n                Field(\'ejemplo\', db.ejemplos))   # no puede estar vacio\n\n## Tablas para los widget de autocompletar ##\n\ndb.define_table(\'autocompletar_palabra\',\n                Field(\'palabra\')\n                )\n\ndb.define_table(\'busqueda\',\n                 Field(\'buscar_palabra\')\n                 )\n\ndb.define_table(\'busqueda_front\',\n                 Field(\'buscar_palabra\')\n                 )\n\n### Validacion glosario referece ###\n#db.palabras.glosario.requires = IS_IN_DB(db,\'glosarios.id\',db.glosarios._format,multiple=True)\n\n\n### Validaciones tabla glosario ###\ndb.glosarios.nombre_glosario.requires = IS_NOT_IN_DB(db,\'glosarios.nombre_glosario\')\n\n### Autocompletar palabra ###\n#db.autocompletar_palabra.palabra.widget = SQLFORM.widgets.autocomplete(\n  #   request, db.palabras.palabra, limitby=(0,10), min_length=1)\n\n### Autocompletar busqueda ###\ndb.busqueda.buscar_palabra.widget = SQLFORM.widgets.autocomplete(\n     request, db.palabras.palabra, limitby=(0,10), min_length=1)\n\n### Autocompletar busqueda front ###\ndb.busqueda_front.buscar_palabra.widget = SQLFORM.widgets.autocomplete(\n     request, db.palabras.palabra, limitby=(0,10), min_length=1)\n\n\n### Validacion tabla palabras ###\n#db.palabras.palabra.represent = lambda palabra: palabra.capitalize()\ndb.palabras.articulo.requires = IS_EMPTY_OR(IS_IN_SET([\'Die\', \'Der\', \'Das\'],zero=T(\'Elige uno\'),\n         error_message=T(\'Elige Die, Der o Das\')))\ndb.palabras.glosario.requires = IS_EMPTY_OR(IS_IN_DB(db, \'glosarios.id\', \'%(nombre_glosario)s\'))\n\n\n \n### WIDGET AUTOCOMPLETAR para la tabla fuentes ###\ndb.ejemplos.fuente.widget = SQLFORM.widgets.autocomplete(\n     request, db.fuentes.nombre, id_field=db.fuentes.id, min_length=1)\ndb.fuentes.nombre.requires = IS_NOT_EMPTY()\n\n### Validierung EJEMPLOS ###\ndb.ejemplos.ejemplo_de.requires = IS_NOT_EMPTY()\ndb.ejemplos.ejemplo_es.requires = IS_NOT_EMPTY()\n\n\n### WIDGET AUTOCOMPLETAR para la tabla palabra_ejemplo ###\ndb.palabra_ejemplo.palabra.widget = SQLFORM.widgets.autocomplete(\n     request, db.palabras.palabra, id_field=db.palabras.id, min_length=1)\ndb.palabra_ejemplo.ejemplo.widget = SQLFORM.widgets.autocomplete(\n     request, db.ejemplos.ejemplo_de, id_field=db.ejemplos.id, min_length=1)\n\n### Caja de busqueda de palabra administracion ###\nform_busqueda_palabra_admin = SQLFORM(db.busqueda, formstyle=\'divs\', _id="buscar_palabra_admin", submit_button=\'Enviar\')\nif form_busqueda_palabra_admin.accepts(request.vars, session, dbio=False): # metodo para validar las entradas del formulario, dbio=False no guarda en la bases de datos\n    a = db(db.palabras.palabra==request.post_vars.buscar_palabra).select().first()\n    if not a:\n        redirect(URL(\'agregar_palabra\', vars=dict(a=request.post_vars.buscar_palabra)))\n        \n    else:\n        id_palabra = db(db.palabras.palabra==request.post_vars.buscar_palabra).select().first()\n        redirect(URL(\'mostrar_palabra\', args=id_palabra.id))\n        \n### Caja de busqueda de palabra la pagina principal ###\nform_busqueda_palabra_front = SQLFORM(db.busqueda_front, formstyle=\'divs\', _id="buscar_palabra_front", submit_button=\'Buscar\')\nif form_busqueda_palabra_front.accepts(request.vars, session, dbio=False): # metodo para validar las entradas del formulario, dbio=False no guarda en la bases de datos\n    a = db(db.palabras.palabra==request.post_vars.buscar_palabra).select().first()\n    if not a:\n        session.flash = "Palabra no existe"\n    else:\n        id_palabra = db(db.palabras.palabra==request.post_vars.buscar_palabra).select().first()\n        redirect(URL(\'default\', \'mostrar\', args=id_palabra.id))\n\n\n\n\n####################################################################\n#                    Codigo para pegar y copiar\n#\n# db.palabras.palabra.requires = IS_NOT_IN_DB(db,\'palabras.palabra\') << Devuelve un error si el campo se encuentra en la DB o si estas vacio. tambien se le debe colocar el  unique=True  >> \n# db.palabras.palabra.requires = IS_NOT_EMPTY() << no es necesario si se usa este validador >>\n# db.palabra_ejemplo.ejemplo.requires = IS_IN_DB(db, \'ejemplo.id\', \'%(ejemplo)s\') << este validador crea una lista >>\n# db.palabras.articulo.requires = IS_IN_SET([\'Die\', \'Der\', \'Das\'],zero=T(\'Elige uno\'), error_message=T(\'Elige Die, Der o Das\'))\n#  db.busqueda.buscar_palabra.widget = SQLFORM.widgets.autocomplete(request, db.palabras.palabra, limitby=(0,10), min_length=2)      \n#db.busqueda.buscar_palabra.widget = SQLFORM.widgets.autocomplete(request, db.palabras.palabra, id_field=db.palabras.id, min_length=1)\n#\n#\n#\n#\n#\n#\n#\n#\n#\n#\n#\n#\n#\n\n'
p7
sS'snapshot'
p8
(dp9
S'exception'
p10
(dp11
S'__hash__'
p12
S"<method-wrapper '__hash__' of exceptions.NameError object at 0x0605C170>"
p13
sS'__setattr__'
p14
S"<method-wrapper '__setattr__' of exceptions.NameError object at 0x0605C170>"
p15
sS'__reduce_ex__'
p16
S'<built-in method __reduce_ex__ of exceptions.NameError object at 0x0605C170>'
p17
sS'__getslice__'
p18
S"<method-wrapper '__getslice__' of exceptions.NameError object at 0x0605C170>"
p19
sS'__getitem__'
p20
S"<method-wrapper '__getitem__' of exceptions.NameError object at 0x0605C170>"
p21
sS'__setstate__'
p22
S'<built-in method __setstate__ of exceptions.NameError object at 0x0605C170>'
p23
sS'__reduce__'
p24
S'<built-in method __reduce__ of exceptions.NameError object at 0x0605C170>'
p25
sS'__str__'
p26
S"<method-wrapper '__str__' of exceptions.NameError object at 0x0605C170>"
p27
sS'args'
p28
S'("name \'date\' is not defined",)'
p29
sS'__getattribute__'
p30
S"<method-wrapper '__getattribute__' of exceptions.NameError object at 0x0605C170>"
p31
sS'__class__'
p32
S"<type 'exceptions.NameError'>"
p33
sS'__delattr__'
p34
S"<method-wrapper '__delattr__' of exceptions.NameError object at 0x0605C170>"
p35
sS'__repr__'
p36
S"<method-wrapper '__repr__' of exceptions.NameError object at 0x0605C170>"
p37
sS'__dict__'
p38
S'{}'
p39
sS'__doc__'
p40
S"'Name not found globally.'"
p41
sS'__init__'
p42
S"<method-wrapper '__init__' of exceptions.NameError object at 0x0605C170>"
p43
sS'__new__'
p44
S'<built-in method __new__ of type object at 0x1E1CD8D8>'
p45
ssS'evalue'
p46
S"name 'date' is not defined"
p47
sS'request'
p48
ccopy_reg
_reconstructor
p49
(cgluon.html
BEAUTIFY
p50
c__builtin__
object
p51
NtRp52
(dp53
S'attributes'
p54
(dp55
sS'components'
p56
(lp57
g49
(cgluon.html
TABLE
p58
g51
NtRp59
(dp60
g54
(dp61
S'level'
p62
I5
ssS'parent'
p63
Nsg56
(lp64
g49
(cgluon.html
TR
p65
g51
NtRp66
(dp67
g54
(dp68
sg63
g59
sg56
(lp69
g49
(cgluon.html
TD
p70
g51
NtRp71
(dp72
g54
(dp73
S'_style'
p74
S'font-weight:bold;vertical-align:top'
p75
ssg63
g66
sg56
(lp76
S'ajax'
p77
asbag49
(g70
g51
NtRp78
(dp79
g54
(dp80
S'_valign'
p81
S'top'
p82
ssg63
g66
sg56
(lp83
S':'
asbag49
(g70
g51
NtRp84
(dp85
g54
(dp86
sg63
g66
sg56
(lp87
g49
(g50
g51
NtRp88
(dp89
g54
(dp90
g62
I5
ssg63
g84
sg56
(lp91
S'False'
p92
asbasbasbag49
(g65
g51
NtRp93
(dp94
g54
(dp95
sg63
g59
sg56
(lp96
g49
(g70
g51
NtRp97
(dp98
g54
(dp99
g74
g75
ssg63
g93
sg56
(lp100
S'application'
p101
asbag49
(g70
g51
NtRp102
(dp103
g54
(dp104
g81
g82
ssg63
g93
sg56
(lp105
S':'
asbag49
(g70
g51
NtRp106
(dp107
g54
(dp108
sg63
g93
sg56
(lp109
g49
(g50
g51
NtRp110
(dp111
g54
(dp112
g62
I5
ssg63
g106
sg56
(lp113
S'webparley'
p114
asbasbasbag49
(g65
g51
NtRp115
(dp116
g54
(dp117
sg63
g59
sg56
(lp118
g49
(g70
g51
NtRp119
(dp120
g54
(dp121
g74
g75
ssg63
g115
sg56
(lp122
g28
asbag49
(g70
g51
NtRp123
(dp124
g54
(dp125
g81
g82
ssg63
g115
sg56
(lp126
S':'
asbag49
(g70
g51
NtRp127
(dp128
g54
(dp129
sg63
g115
sg56
(lp130
g49
(g50
g51
NtRp131
(dp132
g54
(dp133
g62
I5
ssg63
g127
sg56
(lp134
g49
(g58
g51
NtRp135
(dp136
g54
(dp137
g62
I4
ssg63
Nsg56
(lp138
g49
(g65
g51
NtRp139
(dp140
g54
(dp141
sg63
g135
sg56
(lp142
g49
(g70
g51
NtRp143
(dp144
g54
(dp145
sg63
g139
sg56
(lp146
g49
(g50
g51
NtRp147
(dp148
g54
(dp149
g62
I4
ssg63
g143
sg56
(lp150
S'db'
p151
asbasbasbag49
(g65
g51
NtRp152
(dp153
g54
(dp154
sg63
g135
sg56
(lp155
g49
(g70
g51
NtRp156
(dp157
g54
(dp158
sg63
g152
sg56
(lp159
g49
(g50
g51
NtRp160
(dp161
g54
(dp162
g62
I4
ssg63
g156
sg56
(lp163
S'palabras'
p164
asbasbasbasbasbasbasbag49
(g65
g51
NtRp165
(dp166
g54
(dp167
sg63
g59
sg56
(lp168
g49
(g70
g51
NtRp169
(dp170
g54
(dp171
g74
g75
ssg63
g165
sg56
(lp172
S'body'
p173
asbag49
(g70
g51
NtRp174
(dp175
g54
(dp176
g81
g82
ssg63
g165
sg56
(lp177
S':'
asbag49
(g70
g51
NtRp178
(dp179
g54
(dp180
sg63
g165
sg56
(lp181
g49
(g50
g51
NtRp182
(dp183
g54
(dp184
g62
I5
ssg63
g178
sg56
(lp185
S'<cStringIO.StringO object at 0x06758E80>'
p186
asbasbasbag49
(g65
g51
NtRp187
(dp188
g54
(dp189
sg63
g59
sg56
(lp190
g49
(g70
g51
NtRp191
(dp192
g54
(dp193
g74
g75
ssg63
g187
sg56
(lp194
S'client'
p195
asbag49
(g70
g51
NtRp196
(dp197
g54
(dp198
g81
g82
ssg63
g187
sg56
(lp199
S':'
asbag49
(g70
g51
NtRp200
(dp201
g54
(dp202
sg63
g187
sg56
(lp203
g49
(g50
g51
NtRp204
(dp205
g54
(dp206
g62
I5
ssg63
g200
sg56
(lp207
S'127.0.0.1'
p208
asbasbasbag49
(g65
g51
NtRp209
(dp210
g54
(dp211
sg63
g59
sg56
(lp212
g49
(g70
g51
NtRp213
(dp214
g54
(dp215
g74
g75
ssg63
g209
sg56
(lp216
S'controller'
p217
asbag49
(g70
g51
NtRp218
(dp219
g54
(dp220
g81
g82
ssg63
g209
sg56
(lp221
S':'
asbag49
(g70
g51
NtRp222
(dp223
g54
(dp224
sg63
g209
sg56
(lp225
g49
(g50
g51
NtRp226
(dp227
g54
(dp228
g62
I5
ssg63
g222
sg56
(lp229
S'appadmin'
p230
asbasbasbag49
(g65
g51
NtRp231
(dp232
g54
(dp233
sg63
g59
sg56
(lp234
g49
(g70
g51
NtRp235
(dp236
g54
(dp237
g74
g75
ssg63
g231
sg56
(lp238
S'cookies'
p239
asbag49
(g70
g51
NtRp240
(dp241
g54
(dp242
g81
g82
ssg63
g231
sg56
(lp243
S':'
asbag49
(g70
g51
NtRp244
(dp245
g54
(dp246
sg63
g231
sg56
(lp247
g49
(g50
g51
NtRp248
(dp249
g54
(dp250
g62
I5
ssg63
g244
sg56
(lp251
g49
(g58
g51
NtRp252
(dp253
g54
(dp254
g62
I4
ssg63
Nsg56
(lp255
g49
(g65
g51
NtRp256
(dp257
g54
(dp258
sg63
g252
sg56
(lp259
g49
(g70
g51
NtRp260
(dp261
g54
(dp262
g74
g75
ssg63
g256
sg56
(lp263
S'session_id_admin'
p264
asbag49
(g70
g51
NtRp265
(dp266
g54
(dp267
g81
g82
ssg63
g256
sg56
(lp268
S':'
asbag49
(g70
g51
NtRp269
(dp270
g54
(dp271
sg63
g256
sg56
(lp272
g49
(g50
g51
NtRp273
(dp274
g54
(dp275
g62
I4
ssg63
g269
sg56
(lp276
g49
(g58
g51
NtRp277
(dp278
g54
(dp279
g62
I3
ssg63
Nsg56
(lp280
g49
(g65
g51
NtRp281
(dp282
g54
(dp283
sg63
g277
sg56
(lp284
g49
(g70
g51
NtRp285
(dp286
g54
(dp287
g74
g75
ssg63
g281
sg56
(lp288
S'comment'
p289
asbag49
(g70
g51
NtRp290
(dp291
g54
(dp292
g81
g82
ssg63
g281
sg56
(lp293
S':'
asbag49
(g70
g51
NtRp294
(dp295
g54
(dp296
sg63
g281
sg56
(lp297
g49
(g50
g51
NtRp298
(dp299
g54
(dp300
g62
I3
ssg63
g294
sg56
(lp301
S''
asbasbasbag49
(g65
g51
NtRp302
(dp303
g54
(dp304
sg63
g277
sg56
(lp305
g49
(g70
g51
NtRp306
(dp307
g54
(dp308
g74
g75
ssg63
g302
sg56
(lp309
S'domain'
p310
asbag49
(g70
g51
NtRp311
(dp312
g54
(dp313
g81
g82
ssg63
g302
sg56
(lp314
S':'
asbag49
(g70
g51
NtRp315
(dp316
g54
(dp317
sg63
g302
sg56
(lp318
g49
(g50
g51
NtRp319
(dp320
g54
(dp321
g62
I3
ssg63
g315
sg56
(lp322
S''
asbasbasbag49
(g65
g51
NtRp323
(dp324
g54
(dp325
sg63
g277
sg56
(lp326
g49
(g70
g51
NtRp327
(dp328
g54
(dp329
g74
g75
ssg63
g323
sg56
(lp330
S'expires'
p331
asbag49
(g70
g51
NtRp332
(dp333
g54
(dp334
g81
g82
ssg63
g323
sg56
(lp335
S':'
asbag49
(g70
g51
NtRp336
(dp337
g54
(dp338
sg63
g323
sg56
(lp339
g49
(g50
g51
NtRp340
(dp341
g54
(dp342
g62
I3
ssg63
g336
sg56
(lp343
S''
asbasbasbag49
(g65
g51
NtRp344
(dp345
g54
(dp346
sg63
g277
sg56
(lp347
g49
(g70
g51
NtRp348
(dp349
g54
(dp350
g74
g75
ssg63
g344
sg56
(lp351
S'max-age'
p352
asbag49
(g70
g51
NtRp353
(dp354
g54
(dp355
g81
g82
ssg63
g344
sg56
(lp356
S':'
asbag49
(g70
g51
NtRp357
(dp358
g54
(dp359
sg63
g344
sg56
(lp360
g49
(g50
g51
NtRp361
(dp362
g54
(dp363
g62
I3
ssg63
g357
sg56
(lp364
S''
asbasbasbag49
(g65
g51
NtRp365
(dp366
g54
(dp367
sg63
g277
sg56
(lp368
g49
(g70
g51
NtRp369
(dp370
g54
(dp371
g74
g75
ssg63
g365
sg56
(lp372
S'path'
p373
asbag49
(g70
g51
NtRp374
(dp375
g54
(dp376
g81
g82
ssg63
g365
sg56
(lp377
S':'
asbag49
(g70
g51
NtRp378
(dp379
g54
(dp380
sg63
g365
sg56
(lp381
g49
(g50
g51
NtRp382
(dp383
g54
(dp384
g62
I3
ssg63
g378
sg56
(lp385
S''
asbasbasbag49
(g65
g51
NtRp386
(dp387
g54
(dp388
sg63
g277
sg56
(lp389
g49
(g70
g51
NtRp390
(dp391
g54
(dp392
g74
g75
ssg63
g386
sg56
(lp393
S'secure'
p394
asbag49
(g70
g51
NtRp395
(dp396
g54
(dp397
g81
g82
ssg63
g386
sg56
(lp398
S':'
asbag49
(g70
g51
NtRp399
(dp400
g54
(dp401
sg63
g386
sg56
(lp402
g49
(g50
g51
NtRp403
(dp404
g54
(dp405
g62
I3
ssg63
g399
sg56
(lp406
S''
asbasbasbag49
(g65
g51
NtRp407
(dp408
g54
(dp409
sg63
g277
sg56
(lp410
g49
(g70
g51
NtRp411
(dp412
g54
(dp413
g74
g75
ssg63
g407
sg56
(lp414
S'version'
p415
asbag49
(g70
g51
NtRp416
(dp417
g54
(dp418
g81
g82
ssg63
g407
sg56
(lp419
S':'
asbag49
(g70
g51
NtRp420
(dp421
g54
(dp422
sg63
g407
sg56
(lp423
g49
(g50
g51
NtRp424
(dp425
g54
(dp426
g62
I3
ssg63
g420
sg56
(lp427
S''
asbasbasbasbasbasbasbag49
(g65
g51
NtRp428
(dp429
g54
(dp430
sg63
g252
sg56
(lp431
g49
(g70
g51
NtRp432
(dp433
g54
(dp434
g74
g75
ssg63
g428
sg56
(lp435
S'session_id_webparley'
p436
asbag49
(g70
g51
NtRp437
(dp438
g54
(dp439
g81
g82
ssg63
g428
sg56
(lp440
S':'
asbag49
(g70
g51
NtRp441
(dp442
g54
(dp443
sg63
g428
sg56
(lp444
g49
(g50
g51
NtRp445
(dp446
g54
(dp447
g62
I4
ssg63
g441
sg56
(lp448
g49
(g58
g51
NtRp449
(dp450
g54
(dp451
g62
I3
ssg63
Nsg56
(lp452
g49
(g65
g51
NtRp453
(dp454
g54
(dp455
sg63
g449
sg56
(lp456
g49
(g70
g51
NtRp457
(dp458
g54
(dp459
g74
g75
ssg63
g453
sg56
(lp460
g289
asbag49
(g70
g51
NtRp461
(dp462
g54
(dp463
g81
g82
ssg63
g453
sg56
(lp464
S':'
asbag49
(g70
g51
NtRp465
(dp466
g54
(dp467
sg63
g453
sg56
(lp468
g49
(g50
g51
NtRp469
(dp470
g54
(dp471
g62
I3
ssg63
g465
sg56
(lp472
S''
asbasbasbag49
(g65
g51
NtRp473
(dp474
g54
(dp475
sg63
g449
sg56
(lp476
g49
(g70
g51
NtRp477
(dp478
g54
(dp479
g74
g75
ssg63
g473
sg56
(lp480
g310
asbag49
(g70
g51
NtRp481
(dp482
g54
(dp483
g81
g82
ssg63
g473
sg56
(lp484
S':'
asbag49
(g70
g51
NtRp485
(dp486
g54
(dp487
sg63
g473
sg56
(lp488
g49
(g50
g51
NtRp489
(dp490
g54
(dp491
g62
I3
ssg63
g485
sg56
(lp492
S''
asbasbasbag49
(g65
g51
NtRp493
(dp494
g54
(dp495
sg63
g449
sg56
(lp496
g49
(g70
g51
NtRp497
(dp498
g54
(dp499
g74
g75
ssg63
g493
sg56
(lp500
g331
asbag49
(g70
g51
NtRp501
(dp502
g54
(dp503
g81
g82
ssg63
g493
sg56
(lp504
S':'
asbag49
(g70
g51
NtRp505
(dp506
g54
(dp507
sg63
g493
sg56
(lp508
g49
(g50
g51
NtRp509
(dp510
g54
(dp511
g62
I3
ssg63
g505
sg56
(lp512
S''
asbasbasbag49
(g65
g51
NtRp513
(dp514
g54
(dp515
sg63
g449
sg56
(lp516
g49
(g70
g51
NtRp517
(dp518
g54
(dp519
g74
g75
ssg63
g513
sg56
(lp520
g352
asbag49
(g70
g51
NtRp521
(dp522
g54
(dp523
g81
g82
ssg63
g513
sg56
(lp524
S':'
asbag49
(g70
g51
NtRp525
(dp526
g54
(dp527
sg63
g513
sg56
(lp528
g49
(g50
g51
NtRp529
(dp530
g54
(dp531
g62
I3
ssg63
g525
sg56
(lp532
S''
asbasbasbag49
(g65
g51
NtRp533
(dp534
g54
(dp535
sg63
g449
sg56
(lp536
g49
(g70
g51
NtRp537
(dp538
g54
(dp539
g74
g75
ssg63
g533
sg56
(lp540
g373
asbag49
(g70
g51
NtRp541
(dp542
g54
(dp543
g81
g82
ssg63
g533
sg56
(lp544
S':'
asbag49
(g70
g51
NtRp545
(dp546
g54
(dp547
sg63
g533
sg56
(lp548
g49
(g50
g51
NtRp549
(dp550
g54
(dp551
g62
I3
ssg63
g545
sg56
(lp552
S''
asbasbasbag49
(g65
g51
NtRp553
(dp554
g54
(dp555
sg63
g449
sg56
(lp556
g49
(g70
g51
NtRp557
(dp558
g54
(dp559
g74
g75
ssg63
g553
sg56
(lp560
g394
asbag49
(g70
g51
NtRp561
(dp562
g54
(dp563
g81
g82
ssg63
g553
sg56
(lp564
S':'
asbag49
(g70
g51
NtRp565
(dp566
g54
(dp567
sg63
g553
sg56
(lp568
g49
(g50
g51
NtRp569
(dp570
g54
(dp571
g62
I3
ssg63
g565
sg56
(lp572
S''
asbasbasbag49
(g65
g51
NtRp573
(dp574
g54
(dp575
sg63
g449
sg56
(lp576
g49
(g70
g51
NtRp577
(dp578
g54
(dp579
g74
g75
ssg63
g573
sg56
(lp580
g415
asbag49
(g70
g51
NtRp581
(dp582
g54
(dp583
g81
g82
ssg63
g573
sg56
(lp584
S':'
asbag49
(g70
g51
NtRp585
(dp586
g54
(dp587
sg63
g573
sg56
(lp588
g49
(g50
g51
NtRp589
(dp590
g54
(dp591
g62
I3
ssg63
g585
sg56
(lp592
S''
asbasbasbasbasbasbasbasbasbasbasbag49
(g65
g51
NtRp593
(dp594
g54
(dp595
sg63
g59
sg56
(lp596
g49
(g70
g51
NtRp597
(dp598
g54
(dp599
g74
g75
ssg63
g593
sg56
(lp600
S'env'
p601
asbag49
(g70
g51
NtRp602
(dp603
g54
(dp604
g81
g82
ssg63
g593
sg56
(lp605
S':'
asbag49
(g70
g51
NtRp606
(dp607
g54
(dp608
sg63
g593
sg56
(lp609
g49
(g50
g51
NtRp610
(dp611
g54
(dp612
g62
I5
ssg63
g606
sg56
(lp613
g49
(g58
g51
NtRp614
(dp615
g54
(dp616
g62
I4
ssg63
Nsg56
(lp617
g49
(g65
g51
NtRp618
(dp619
g54
(dp620
sg63
g614
sg56
(lp621
g49
(g70
g51
NtRp622
(dp623
g54
(dp624
g74
g75
ssg63
g618
sg56
(lp625
S'app_folders'
p626
asbag49
(g70
g51
NtRp627
(dp628
g54
(dp629
g81
g82
ssg63
g618
sg56
(lp630
S':'
asbag49
(g70
g51
NtRp631
(dp632
g54
(dp633
sg63
g618
sg56
(lp634
g49
(g50
g51
NtRp635
(dp636
g54
(dp637
g62
I4
ssg63
g631
sg56
(lp638
S"set(['D:\\\\Dise\\xf1o Web\\\\Proyectos\\\\Parleyweb\\\\web2py\\\\applications\\\\admin\\\\', 'D:\\\\Dise\\xf1o Web\\\\Proyectos\\\\Parleyweb\\\\web2py\\\\applications\\\\webparley\\\\'])"
p639
asbasbasbag49
(g65
g51
NtRp640
(dp641
g54
(dp642
sg63
g614
sg56
(lp643
g49
(g70
g51
NtRp644
(dp645
g54
(dp646
g74
g75
ssg63
g640
sg56
(lp647
S'applications_parent'
p648
asbag49
(g70
g51
NtRp649
(dp650
g54
(dp651
g81
g82
ssg63
g640
sg56
(lp652
S':'
asbag49
(g70
g51
NtRp653
(dp654
g54
(dp655
sg63
g640
sg56
(lp656
g49
(g50
g51
NtRp657
(dp658
g54
(dp659
g62
I4
ssg63
g653
sg56
(lp660
S'D:\\Dise\xf1o Web\\Proyectos\\Parleyweb\\web2py'
p661
asbasbasbag49
(g65
g51
NtRp662
(dp663
g54
(dp664
sg63
g614
sg56
(lp665
g49
(g70
g51
NtRp666
(dp667
g54
(dp668
g74
g75
ssg63
g662
sg56
(lp669
S'cmd_args'
p670
asbag49
(g70
g51
NtRp671
(dp672
g54
(dp673
g81
g82
ssg63
g662
sg56
(lp674
S':'
asbag49
(g70
g51
NtRp675
(dp676
g54
(dp677
sg63
g662
sg56
(lp678
g49
(g50
g51
NtRp679
(dp680
g54
(dp681
g62
I4
ssg63
g675
sg56
(lp682
g49
(g58
g51
NtRp683
(dp684
g54
(dp685
g62
I3
ssg63
Nsg56
(lp686
sbasbasbasbag49
(g65
g51
NtRp687
(dp688
g54
(dp689
sg63
g614
sg56
(lp690
g49
(g70
g51
NtRp691
(dp692
g54
(dp693
g74
g75
ssg63
g687
sg56
(lp694
S'cmd_options'
p695
asbag49
(g70
g51
NtRp696
(dp697
g54
(dp698
g81
g82
ssg63
g687
sg56
(lp699
S':'
asbag49
(g70
g51
NtRp700
(dp701
g54
(dp702
sg63
g687
sg56
(lp703
g49
(g50
g51
NtRp704
(dp705
g54
(dp706
g62
I4
ssg63
g700
sg56
(lp707
S"<Values at 0x2e1c260: {'verbose': False, 'ip': '127.0.0.1', 'shutdown_timeout': 5, 'taskbar': False, 'nocron': False, 'pid_filename': 'httpserver.pid', 'maxthreads': None, 'softcron': False, 'server_name': 'craxsnet-PC', 'bpython': False, 'nogui': False, 'port': 8000, 'extcron': False, 'debuglevel': 30, 'test': None, 'folder': 'D:\\\\Dise\\xf1o Web\\\\Proyectos\\\\Parleyweb\\\\web2py', 'config': '', 'import_models': False, 'winservice': '', 'shell': None, 'run': '', 'log_filename': 'httpserver.log', 'args': [''], 'socket_timeout': 5, 'ssl_ca_certificate': None, 'scheduler': None, 'profiler_filename': None, 'ssl_private_key': '', 'password': '<ask>', 'request_queue_size': 5, 'ssl_certificate': '', 'cronjob': False, 'numthreads': None, 'quiet': False, 'interfaces': None, 'minthreads': None, 'timeout': 10, 'plain': False, 'nobanner': False}>"
p708
asbasbasbag49
(g65
g51
NtRp709
(dp710
g54
(dp711
sg63
g614
sg56
(lp712
g49
(g70
g51
NtRp713
(dp714
g54
(dp715
g74
g75
ssg63
g709
sg56
(lp716
S'db_sessions'
p717
asbag49
(g70
g51
NtRp718
(dp719
g54
(dp720
g81
g82
ssg63
g709
sg56
(lp721
S':'
asbag49
(g70
g51
NtRp722
(dp723
g54
(dp724
sg63
g709
sg56
(lp725
g49
(g50
g51
NtRp726
(dp727
g54
(dp728
g62
I4
ssg63
g722
sg56
(lp729
S'set([])'
p730
asbasbasbag49
(g65
g51
NtRp731
(dp732
g54
(dp733
sg63
g614
sg56
(lp734
g49
(g70
g51
NtRp735
(dp736
g54
(dp737
g74
g75
ssg63
g731
sg56
(lp738
S'debugging'
p739
asbag49
(g70
g51
NtRp740
(dp741
g54
(dp742
g81
g82
ssg63
g731
sg56
(lp743
S':'
asbag49
(g70
g51
NtRp744
(dp745
g54
(dp746
sg63
g731
sg56
(lp747
g49
(g50
g51
NtRp748
(dp749
g54
(dp750
g62
I4
ssg63
g744
sg56
(lp751
g92
asbasbasbag49
(g65
g51
NtRp752
(dp753
g54
(dp754
sg63
g614
sg56
(lp755
g49
(g70
g51
NtRp756
(dp757
g54
(dp758
g74
g75
ssg63
g752
sg56
(lp759
S'gluon_parent'
p760
asbag49
(g70
g51
NtRp761
(dp762
g54
(dp763
g81
g82
ssg63
g752
sg56
(lp764
S':'
asbag49
(g70
g51
NtRp765
(dp766
g54
(dp767
sg63
g752
sg56
(lp768
g49
(g50
g51
NtRp769
(dp770
g54
(dp771
g62
I4
ssg63
g765
sg56
(lp772
S'D:\\Dise\xf1o Web\\Proyectos\\Parleyweb\\web2py'
p773
asbasbasbag49
(g65
g51
NtRp774
(dp775
g54
(dp776
sg63
g614
sg56
(lp777
g49
(g70
g51
NtRp778
(dp779
g54
(dp780
g74
g75
ssg63
g774
sg56
(lp781
S'http_accept'
p782
asbag49
(g70
g51
NtRp783
(dp784
g54
(dp785
g81
g82
ssg63
g774
sg56
(lp786
S':'
asbag49
(g70
g51
NtRp787
(dp788
g54
(dp789
sg63
g774
sg56
(lp790
g49
(g50
g51
NtRp791
(dp792
g54
(dp793
g62
I4
ssg63
g787
sg56
(lp794
S'text/html,application/xhtml+xml,application/xml;q=0.9,*/*;q=0.8'
p795
asbasbasbag49
(g65
g51
NtRp796
(dp797
g54
(dp798
sg63
g614
sg56
(lp799
g49
(g70
g51
NtRp800
(dp801
g54
(dp802
g74
g75
ssg63
g796
sg56
(lp803
S'http_accept_encoding'
p804
asbag49
(g70
g51
NtRp805
(dp806
g54
(dp807
g81
g82
ssg63
g796
sg56
(lp808
S':'
asbag49
(g70
g51
NtRp809
(dp810
g54
(dp811
sg63
g796
sg56
(lp812
g49
(g50
g51
NtRp813
(dp814
g54
(dp815
g62
I4
ssg63
g809
sg56
(lp816
S'gzip, deflate'
p817
asbasbasbag49
(g65
g51
NtRp818
(dp819
g54
(dp820
sg63
g614
sg56
(lp821
g49
(g70
g51
NtRp822
(dp823
g54
(dp824
g74
g75
ssg63
g818
sg56
(lp825
S'http_accept_language'
p826
asbag49
(g70
g51
NtRp827
(dp828
g54
(dp829
g81
g82
ssg63
g818
sg56
(lp830
S':'
asbag49
(g70
g51
NtRp831
(dp832
g54
(dp833
sg63
g818
sg56
(lp834
g49
(g50
g51
NtRp835
(dp836
g54
(dp837
g62
I4
ssg63
g831
sg56
(lp838
S'es-es,de-de;q=0.8,es;q=0.6,en-us;q=0.4,en;q=0.2'
p839
asbasbasbag49
(g65
g51
NtRp840
(dp841
g54
(dp842
sg63
g614
sg56
(lp843
g49
(g70
g51
NtRp844
(dp845
g54
(dp846
g74
g75
ssg63
g840
sg56
(lp847
S'http_connection'
p848
asbag49
(g70
g51
NtRp849
(dp850
g54
(dp851
g81
g82
ssg63
g840
sg56
(lp852
S':'
asbag49
(g70
g51
NtRp853
(dp854
g54
(dp855
sg63
g840
sg56
(lp856
g49
(g50
g51
NtRp857
(dp858
g54
(dp859
g62
I4
ssg63
g853
sg56
(lp860
S'keep-alive'
p861
asbasbasbag49
(g65
g51
NtRp862
(dp863
g54
(dp864
sg63
g614
sg56
(lp865
g49
(g70
g51
NtRp866
(dp867
g54
(dp868
g74
g75
ssg63
g862
sg56
(lp869
S'http_cookie'
p870
asbag49
(g70
g51
NtRp871
(dp872
g54
(dp873
g81
g82
ssg63
g862
sg56
(lp874
S':'
asbag49
(g70
g51
NtRp875
(dp876
g54
(dp877
sg63
g862
sg56
(lp878
g49
(g50
g51
NtRp879
(dp880
g54
(dp881
g62
I4
ssg63
g875
sg56
(lp882
S'__utma=96992031.26429765.1325029743.1325029743.1326549329.2; __utmz=96992031.1325029743.1.1.utmcsr=(direct)|utmccn=(direct)|utmcmd=(none); session_id_webparley=127.0.0.1-a9f7f88d-d8a4-49c6-b6ff-46adf43325c3; session_id_admin=127.0.0.1-151c9a0a-3b68-45aa-b754-394a2432667a'
p883
asbasbasbag49
(g65
g51
NtRp884
(dp885
g54
(dp886
sg63
g614
sg56
(lp887
g49
(g70
g51
NtRp888
(dp889
g54
(dp890
g74
g75
ssg63
g884
sg56
(lp891
S'http_host'
p892
asbag49
(g70
g51
NtRp893
(dp894
g54
(dp895
g81
g82
ssg63
g884
sg56
(lp896
S':'
asbag49
(g70
g51
NtRp897
(dp898
g54
(dp899
sg63
g884
sg56
(lp900
g49
(g50
g51
NtRp901
(dp902
g54
(dp903
g62
I4
ssg63
g897
sg56
(lp904
S'127.0.0.1:8000'
p905
asbasbasbag49
(g65
g51
NtRp906
(dp907
g54
(dp908
sg63
g614
sg56
(lp909
g49
(g70
g51
NtRp910
(dp911
g54
(dp912
g74
g75
ssg63
g906
sg56
(lp913
S'http_referer'
p914
asbag49
(g70
g51
NtRp915
(dp916
g54
(dp917
g81
g82
ssg63
g906
sg56
(lp918
S':'
asbag49
(g70
g51
NtRp919
(dp920
g54
(dp921
sg63
g906
sg56
(lp922
g49
(g50
g51
NtRp923
(dp924
g54
(dp925
g62
I4
ssg63
g919
sg56
(lp926
S'http://127.0.0.1:8000/webparley/appadmin/select/db?query=db.palabras.id%3E0'
p927
asbasbasbag49
(g65
g51
NtRp928
(dp929
g54
(dp930
sg63
g614
sg56
(lp931
g49
(g70
g51
NtRp932
(dp933
g54
(dp934
g74
g75
ssg63
g928
sg56
(lp935
S'http_user_agent'
p936
asbag49
(g70
g51
NtRp937
(dp938
g54
(dp939
g81
g82
ssg63
g928
sg56
(lp940
S':'
asbag49
(g70
g51
NtRp941
(dp942
g54
(dp943
sg63
g928
sg56
(lp944
g49
(g50
g51
NtRp945
(dp946
g54
(dp947
g62
I4
ssg63
g941
sg56
(lp948
S'Mozilla/5.0 (Windows NT 6.1; WOW64; rv:11.0) Gecko/20100101 Firefox/11.0'
p949
asbasbasbag49
(g65
g51
NtRp950
(dp951
g54
(dp952
sg63
g614
sg56
(lp953
g49
(g70
g51
NtRp954
(dp955
g54
(dp956
g74
g75
ssg63
g950
sg56
(lp957
S'is_jython'
p958
asbag49
(g70
g51
NtRp959
(dp960
g54
(dp961
g81
g82
ssg63
g950
sg56
(lp962
S':'
asbag49
(g70
g51
NtRp963
(dp964
g54
(dp965
sg63
g950
sg56
(lp966
g49
(g50
g51
NtRp967
(dp968
g54
(dp969
g62
I4
ssg63
g963
sg56
(lp970
g92
asbasbasbag49
(g65
g51
NtRp971
(dp972
g54
(dp973
sg63
g614
sg56
(lp974
g49
(g70
g51
NtRp975
(dp976
g54
(dp977
g74
g75
ssg63
g971
sg56
(lp978
S'is_pypy'
p979
asbag49
(g70
g51
NtRp980
(dp981
g54
(dp982
g81
g82
ssg63
g971
sg56
(lp983
S':'
asbag49
(g70
g51
NtRp984
(dp985
g54
(dp986
sg63
g971
sg56
(lp987
g49
(g50
g51
NtRp988
(dp989
g54
(dp990
g62
I4
ssg63
g984
sg56
(lp991
g92
asbasbasbag49
(g65
g51
NtRp992
(dp993
g54
(dp994
sg63
g614
sg56
(lp995
g49
(g70
g51
NtRp996
(dp997
g54
(dp998
g74
g75
ssg63
g992
sg56
(lp999
S'path_info'
p1000
asbag49
(g70
g51
NtRp1001
(dp1002
g54
(dp1003
g81
g82
ssg63
g992
sg56
(lp1004
S':'
asbag49
(g70
g51
NtRp1005
(dp1006
g54
(dp1007
sg63
g992
sg56
(lp1008
g49
(g50
g51
NtRp1009
(dp1010
g54
(dp1011
g62
I4
ssg63
g1005
sg56
(lp1012
S'/webparley/appadmin/insert/db/palabras'
p1013
asbasbasbag49
(g65
g51
NtRp1014
(dp1015
g54
(dp1016
sg63
g614
sg56
(lp1017
g49
(g70
g51
NtRp1018
(dp1019
g54
(dp1020
g74
g75
ssg63
g1014
sg56
(lp1021
S'query_string'
p1022
asbag49
(g70
g51
NtRp1023
(dp1024
g54
(dp1025
g81
g82
ssg63
g1014
sg56
(lp1026
S':'
asbag49
(g70
g51
NtRp1027
(dp1028
g54
(dp1029
sg63
g1014
sg56
(lp1030
g49
(g50
g51
NtRp1031
(dp1032
g54
(dp1033
g62
I4
ssg63
g1027
sg56
(lp1034
S''
asbasbasbag49
(g65
g51
NtRp1035
(dp1036
g54
(dp1037
sg63
g614
sg56
(lp1038
g49
(g70
g51
NtRp1039
(dp1040
g54
(dp1041
g74
g75
ssg63
g1035
sg56
(lp1042
S'remote_addr'
p1043
asbag49
(g70
g51
NtRp1044
(dp1045
g54
(dp1046
g81
g82
ssg63
g1035
sg56
(lp1047
S':'
asbag49
(g70
g51
NtRp1048
(dp1049
g54
(dp1050
sg63
g1035
sg56
(lp1051
g49
(g50
g51
NtRp1052
(dp1053
g54
(dp1054
g62
I4
ssg63
g1048
sg56
(lp1055
g208
asbasbasbag49
(g65
g51
NtRp1056
(dp1057
g54
(dp1058
sg63
g614
sg56
(lp1059
g49
(g70
g51
NtRp1060
(dp1061
g54
(dp1062
g74
g75
ssg63
g1056
sg56
(lp1063
S'remote_port'
p1064
asbag49
(g70
g51
NtRp1065
(dp1066
g54
(dp1067
g81
g82
ssg63
g1056
sg56
(lp1068
S':'
asbag49
(g70
g51
NtRp1069
(dp1070
g54
(dp1071
sg63
g1056
sg56
(lp1072
g49
(g50
g51
NtRp1073
(dp1074
g54
(dp1075
g62
I4
ssg63
g1069
sg56
(lp1076
S'64587'
p1077
asbasbasbag49
(g65
g51
NtRp1078
(dp1079
g54
(dp1080
sg63
g614
sg56
(lp1081
g49
(g70
g51
NtRp1082
(dp1083
g54
(dp1084
g74
g75
ssg63
g1078
sg56
(lp1085
S'request_method'
p1086
asbag49
(g70
g51
NtRp1087
(dp1088
g54
(dp1089
g81
g82
ssg63
g1078
sg56
(lp1090
S':'
asbag49
(g70
g51
NtRp1091
(dp1092
g54
(dp1093
sg63
g1078
sg56
(lp1094
g49
(g50
g51
NtRp1095
(dp1096
g54
(dp1097
g62
I4
ssg63
g1091
sg56
(lp1098
S'GET'
p1099
asbasbasbag49
(g65
g51
NtRp1100
(dp1101
g54
(dp1102
sg63
g614
sg56
(lp1103
g49
(g70
g51
NtRp1104
(dp1105
g54
(dp1106
g74
g75
ssg63
g1100
sg56
(lp1107
S'request_uri'
p1108
asbag49
(g70
g51
NtRp1109
(dp1110
g54
(dp1111
g81
g82
ssg63
g1100
sg56
(lp1112
S':'
asbag49
(g70
g51
NtRp1113
(dp1114
g54
(dp1115
sg63
g1100
sg56
(lp1116
g49
(g50
g51
NtRp1117
(dp1118
g54
(dp1119
g62
I4
ssg63
g1113
sg56
(lp1120
g1013
asbasbasbag49
(g65
g51
NtRp1121
(dp1122
g54
(dp1123
sg63
g614
sg56
(lp1124
g49
(g70
g51
NtRp1125
(dp1126
g54
(dp1127
g74
g75
ssg63
g1121
sg56
(lp1128
S'script_name'
p1129
asbag49
(g70
g51
NtRp1130
(dp1131
g54
(dp1132
g81
g82
ssg63
g1121
sg56
(lp1133
S':'
asbag49
(g70
g51
NtRp1134
(dp1135
g54
(dp1136
sg63
g1121
sg56
(lp1137
g49
(g50
g51
NtRp1138
(dp1139
g54
(dp1140
g62
I4
ssg63
g1134
sg56
(lp1141
S''
asbasbasbag49
(g65
g51
NtRp1142
(dp1143
g54
(dp1144
sg63
g614
sg56
(lp1145
g49
(g70
g51
NtRp1146
(dp1147
g54
(dp1148
g74
g75
ssg63
g1142
sg56
(lp1149
S'server_name'
p1150
asbag49
(g70
g51
NtRp1151
(dp1152
g54
(dp1153
g81
g82
ssg63
g1142
sg56
(lp1154
S':'
asbag49
(g70
g51
NtRp1155
(dp1156
g54
(dp1157
sg63
g1142
sg56
(lp1158
g49
(g50
g51
NtRp1159
(dp1160
g54
(dp1161
g62
I4
ssg63
g1155
sg56
(lp1162
S'craxsnet-PC'
p1163
asbasbasbag49
(g65
g51
NtRp1164
(dp1165
g54
(dp1166
sg63
g614
sg56
(lp1167
g49
(g70
g51
NtRp1168
(dp1169
g54
(dp1170
g74
g75
ssg63
g1164
sg56
(lp1171
S'server_port'
p1172
asbag49
(g70
g51
NtRp1173
(dp1174
g54
(dp1175
g81
g82
ssg63
g1164
sg56
(lp1176
S':'
asbag49
(g70
g51
NtRp1177
(dp1178
g54
(dp1179
sg63
g1164
sg56
(lp1180
g49
(g50
g51
NtRp1181
(dp1182
g54
(dp1183
g62
I4
ssg63
g1177
sg56
(lp1184
S'8000'
p1185
asbasbasbag49
(g65
g51
NtRp1186
(dp1187
g54
(dp1188
sg63
g614
sg56
(lp1189
g49
(g70
g51
NtRp1190
(dp1191
g54
(dp1192
g74
g75
ssg63
g1186
sg56
(lp1193
S'server_protocol'
p1194
asbag49
(g70
g51
NtRp1195
(dp1196
g54
(dp1197
g81
g82
ssg63
g1186
sg56
(lp1198
S':'
asbag49
(g70
g51
NtRp1199
(dp1200
g54
(dp1201
sg63
g1186
sg56
(lp1202
g49
(g50
g51
NtRp1203
(dp1204
g54
(dp1205
g62
I4
ssg63
g1199
sg56
(lp1206
S'HTTP/1.1'
p1207
asbasbasbag49
(g65
g51
NtRp1208
(dp1209
g54
(dp1210
sg63
g614
sg56
(lp1211
g49
(g70
g51
NtRp1212
(dp1213
g54
(dp1214
g74
g75
ssg63
g1208
sg56
(lp1215
S'server_software'
p1216
asbag49
(g70
g51
NtRp1217
(dp1218
g54
(dp1219
g81
g82
ssg63
g1208
sg56
(lp1220
S':'
asbag49
(g70
g51
NtRp1221
(dp1222
g54
(dp1223
sg63
g1208
sg56
(lp1224
g49
(g50
g51
NtRp1225
(dp1226
g54
(dp1227
g62
I4
ssg63
g1221
sg56
(lp1228
S'Rocket 1.2.4'
p1229
asbasbasbag49
(g65
g51
NtRp1230
(dp1231
g54
(dp1232
sg63
g614
sg56
(lp1233
g49
(g70
g51
NtRp1234
(dp1235
g54
(dp1236
g74
g75
ssg63
g1230
sg56
(lp1237
S'web2py_crontype'
p1238
asbag49
(g70
g51
NtRp1239
(dp1240
g54
(dp1241
g81
g82
ssg63
g1230
sg56
(lp1242
S':'
asbag49
(g70
g51
NtRp1243
(dp1244
g54
(dp1245
sg63
g1230
sg56
(lp1246
g49
(g50
g51
NtRp1247
(dp1248
g54
(dp1249
g62
I4
ssg63
g1243
sg56
(lp1250
S'hard'
p1251
asbasbasbag49
(g65
g51
NtRp1252
(dp1253
g54
(dp1254
sg63
g614
sg56
(lp1255
g49
(g70
g51
NtRp1256
(dp1257
g54
(dp1258
g74
g75
ssg63
g1252
sg56
(lp1259
S'web2py_original_uri'
p1260
asbag49
(g70
g51
NtRp1261
(dp1262
g54
(dp1263
g81
g82
ssg63
g1252
sg56
(lp1264
S':'
asbag49
(g70
g51
NtRp1265
(dp1266
g54
(dp1267
sg63
g1252
sg56
(lp1268
g49
(g50
g51
NtRp1269
(dp1270
g54
(dp1271
g62
I4
ssg63
g1265
sg56
(lp1272
S'/webparley/appadmin/insert/db/palabras'
p1273
asbasbasbag49
(g65
g51
NtRp1274
(dp1275
g54
(dp1276
sg63
g614
sg56
(lp1277
g49
(g70
g51
NtRp1278
(dp1279
g54
(dp1280
g74
g75
ssg63
g1274
sg56
(lp1281
S'web2py_path'
p1282
asbag49
(g70
g51
NtRp1283
(dp1284
g54
(dp1285
g81
g82
ssg63
g1274
sg56
(lp1286
S':'
asbag49
(g70
g51
NtRp1287
(dp1288
g54
(dp1289
sg63
g1274
sg56
(lp1290
g49
(g50
g51
NtRp1291
(dp1292
g54
(dp1293
g62
I4
ssg63
g1287
sg56
(lp1294
g661
asbasbasbag49
(g65
g51
NtRp1295
(dp1296
g54
(dp1297
sg63
g614
sg56
(lp1298
g49
(g70
g51
NtRp1299
(dp1300
g54
(dp1301
g74
g75
ssg63
g1295
sg56
(lp1302
S'web2py_version'
p1303
asbag49
(g70
g51
NtRp1304
(dp1305
g54
(dp1306
g81
g82
ssg63
g1295
sg56
(lp1307
S':'
asbag49
(g70
g51
NtRp1308
(dp1309
g54
(dp1310
sg63
g1295
sg56
(lp1311
g49
(g50
g51
NtRp1312
(dp1313
g54
(dp1314
g62
I4
ssg63
g1308
sg56
(lp1315
g49
(g58
g51
NtRp1316
(dp1317
g54
(dp1318
g62
I3
ssg63
Nsg56
(lp1319
g49
(g65
g51
NtRp1320
(dp1321
g54
(dp1322
sg63
g1316
sg56
(lp1323
g49
(g70
g51
NtRp1324
(dp1325
g54
(dp1326
sg63
g1320
sg56
(lp1327
g49
(g50
g51
NtRp1328
(dp1329
g54
(dp1330
g62
I3
ssg63
g1324
sg56
(lp1331
S'1'
asbasbasbag49
(g65
g51
NtRp1332
(dp1333
g54
(dp1334
sg63
g1316
sg56
(lp1335
g49
(g70
g51
NtRp1336
(dp1337
g54
(dp1338
sg63
g1332
sg56
(lp1339
g49
(g50
g51
NtRp1340
(dp1341
g54
(dp1342
g62
I3
ssg63
g1336
sg56
(lp1343
S'99'
p1344
asbasbasbag49
(g65
g51
NtRp1345
(dp1346
g54
(dp1347
sg63
g1316
sg56
(lp1348
g49
(g70
g51
NtRp1349
(dp1350
g54
(dp1351
sg63
g1345
sg56
(lp1352
g49
(g50
g51
NtRp1353
(dp1354
g54
(dp1355
g62
I3
ssg63
g1349
sg56
(lp1356
S'7'
asbasbasbag49
(g65
g51
NtRp1357
(dp1358
g54
(dp1359
sg63
g1316
sg56
(lp1360
g49
(g70
g51
NtRp1361
(dp1362
g54
(dp1363
sg63
g1357
sg56
(lp1364
g49
(g50
g51
NtRp1365
(dp1366
g54
(dp1367
g62
I3
ssg63
g1361
sg56
(lp1368
S'datetime.datetime(2012, 3, 4, 22, 12, 8)'
p1369
asbasbasbag49
(g65
g51
NtRp1370
(dp1371
g54
(dp1372
sg63
g1316
sg56
(lp1373
g49
(g70
g51
NtRp1374
(dp1375
g54
(dp1376
sg63
g1370
sg56
(lp1377
g49
(g50
g51
NtRp1378
(dp1379
g54
(dp1380
g62
I3
ssg63
g1374
sg56
(lp1381
S'stable'
p1382
asbasbasbasbasbasbasbag49
(g65
g51
NtRp1383
(dp1384
g54
(dp1385
sg63
g614
sg56
(lp1386
g49
(g70
g51
NtRp1387
(dp1388
g54
(dp1389
g74
g75
ssg63
g1383
sg56
(lp1390
S'wsgi_errors'
p1391
asbag49
(g70
g51
NtRp1392
(dp1393
g54
(dp1394
g81
g82
ssg63
g1383
sg56
(lp1395
S':'
asbag49
(g70
g51
NtRp1396
(dp1397
g54
(dp1398
sg63
g1383
sg56
(lp1399
g49
(g50
g51
NtRp1400
(dp1401
g54
(dp1402
g62
I4
ssg63
g1396
sg56
(lp1403
S"<open file '<stderr>', mode 'w' at 0x004200B0>"
p1404
asbasbasbag49
(g65
g51
NtRp1405
(dp1406
g54
(dp1407
sg63
g614
sg56
(lp1408
g49
(g70
g51
NtRp1409
(dp1410
g54
(dp1411
g74
g75
ssg63
g1405
sg56
(lp1412
S'wsgi_file_wrapper'
p1413
asbag49
(g70
g51
NtRp1414
(dp1415
g54
(dp1416
g81
g82
ssg63
g1405
sg56
(lp1417
S':'
asbag49
(g70
g51
NtRp1418
(dp1419
g54
(dp1420
sg63
g1405
sg56
(lp1421
g49
(g50
g51
NtRp1422
(dp1423
g54
(dp1424
g62
I4
ssg63
g1418
sg56
(lp1425
S'<class wsgiref.util.FileWrapper at 0x02C19390>'
p1426
asbasbasbag49
(g65
g51
NtRp1427
(dp1428
g54
(dp1429
sg63
g614
sg56
(lp1430
g49
(g70
g51
NtRp1431
(dp1432
g54
(dp1433
g74
g75
ssg63
g1427
sg56
(lp1434
S'wsgi_input'
p1435
asbag49
(g70
g51
NtRp1436
(dp1437
g54
(dp1438
g81
g82
ssg63
g1427
sg56
(lp1439
S':'
asbag49
(g70
g51
NtRp1440
(dp1441
g54
(dp1442
sg63
g1427
sg56
(lp1443
g49
(g50
g51
NtRp1444
(dp1445
g54
(dp1446
g62
I4
ssg63
g1440
sg56
(lp1447
S'<socket._fileobject object at 0x0626A030>'
p1448
asbasbasbag49
(g65
g51
NtRp1449
(dp1450
g54
(dp1451
sg63
g614
sg56
(lp1452
g49
(g70
g51
NtRp1453
(dp1454
g54
(dp1455
g74
g75
ssg63
g1449
sg56
(lp1456
S'wsgi_multiprocess'
p1457
asbag49
(g70
g51
NtRp1458
(dp1459
g54
(dp1460
g81
g82
ssg63
g1449
sg56
(lp1461
S':'
asbag49
(g70
g51
NtRp1462
(dp1463
g54
(dp1464
sg63
g1449
sg56
(lp1465
g49
(g50
g51
NtRp1466
(dp1467
g54
(dp1468
g62
I4
ssg63
g1462
sg56
(lp1469
g92
asbasbasbag49
(g65
g51
NtRp1470
(dp1471
g54
(dp1472
sg63
g614
sg56
(lp1473
g49
(g70
g51
NtRp1474
(dp1475
g54
(dp1476
g74
g75
ssg63
g1470
sg56
(lp1477
S'wsgi_multithread'
p1478
asbag49
(g70
g51
NtRp1479
(dp1480
g54
(dp1481
g81
g82
ssg63
g1470
sg56
(lp1482
S':'
asbag49
(g70
g51
NtRp1483
(dp1484
g54
(dp1485
sg63
g1470
sg56
(lp1486
g49
(g50
g51
NtRp1487
(dp1488
g54
(dp1489
g62
I4
ssg63
g1483
sg56
(lp1490
S'True'
p1491
asbasbasbag49
(g65
g51
NtRp1492
(dp1493
g54
(dp1494
sg63
g614
sg56
(lp1495
g49
(g70
g51
NtRp1496
(dp1497
g54
(dp1498
g74
g75
ssg63
g1492
sg56
(lp1499
S'wsgi_run_once'
p1500
asbag49
(g70
g51
NtRp1501
(dp1502
g54
(dp1503
g81
g82
ssg63
g1492
sg56
(lp1504
S':'
asbag49
(g70
g51
NtRp1505
(dp1506
g54
(dp1507
sg63
g1492
sg56
(lp1508
g49
(g50
g51
NtRp1509
(dp1510
g54
(dp1511
g62
I4
ssg63
g1505
sg56
(lp1512
g92
asbasbasbag49
(g65
g51
NtRp1513
(dp1514
g54
(dp1515
sg63
g614
sg56
(lp1516
g49
(g70
g51
NtRp1517
(dp1518
g54
(dp1519
g74
g75
ssg63
g1513
sg56
(lp1520
S'wsgi_url_scheme'
p1521
asbag49
(g70
g51
NtRp1522
(dp1523
g54
(dp1524
g81
g82
ssg63
g1513
sg56
(lp1525
S':'
asbag49
(g70
g51
NtRp1526
(dp1527
g54
(dp1528
sg63
g1513
sg56
(lp1529
g49
(g50
g51
NtRp1530
(dp1531
g54
(dp1532
g62
I4
ssg63
g1526
sg56
(lp1533
S'http'
p1534
asbasbasbag49
(g65
g51
NtRp1535
(dp1536
g54
(dp1537
sg63
g614
sg56
(lp1538
g49
(g70
g51
NtRp1539
(dp1540
g54
(dp1541
g74
g75
ssg63
g1535
sg56
(lp1542
S'wsgi_version'
p1543
asbag49
(g70
g51
NtRp1544
(dp1545
g54
(dp1546
g81
g82
ssg63
g1535
sg56
(lp1547
S':'
asbag49
(g70
g51
NtRp1548
(dp1549
g54
(dp1550
sg63
g1535
sg56
(lp1551
g49
(g50
g51
NtRp1552
(dp1553
g54
(dp1554
g62
I4
ssg63
g1548
sg56
(lp1555
g49
(g58
g51
NtRp1556
(dp1557
g54
(dp1558
g62
I3
ssg63
Nsg56
(lp1559
g49
(g65
g51
NtRp1560
(dp1561
g54
(dp1562
sg63
g1556
sg56
(lp1563
g49
(g70
g51
NtRp1564
(dp1565
g54
(dp1566
sg63
g1560
sg56
(lp1567
g49
(g50
g51
NtRp1568
(dp1569
g54
(dp1570
g62
I3
ssg63
g1564
sg56
(lp1571
S'1'
asbasbasbag49
(g65
g51
NtRp1572
(dp1573
g54
(dp1574
sg63
g1556
sg56
(lp1575
g49
(g70
g51
NtRp1576
(dp1577
g54
(dp1578
sg63
g1572
sg56
(lp1579
g49
(g50
g51
NtRp1580
(dp1581
g54
(dp1582
g62
I3
ssg63
g1576
sg56
(lp1583
S'0'
asbasbasbasbasbasbasbasbasbasbasbag49
(g65
g51
NtRp1584
(dp1585
g54
(dp1586
sg63
g59
sg56
(lp1587
g49
(g70
g51
NtRp1588
(dp1589
g54
(dp1590
g74
g75
ssg63
g1584
sg56
(lp1591
S'extension'
p1592
asbag49
(g70
g51
NtRp1593
(dp1594
g54
(dp1595
g81
g82
ssg63
g1584
sg56
(lp1596
S':'
asbag49
(g70
g51
NtRp1597
(dp1598
g54
(dp1599
sg63
g1584
sg56
(lp1600
g49
(g50
g51
NtRp1601
(dp1602
g54
(dp1603
g62
I5
ssg63
g1597
sg56
(lp1604
S'html'
p1605
asbasbasbag49
(g65
g51
NtRp1606
(dp1607
g54
(dp1608
sg63
g59
sg56
(lp1609
g49
(g70
g51
NtRp1610
(dp1611
g54
(dp1612
g74
g75
ssg63
g1606
sg56
(lp1613
S'folder'
p1614
asbag49
(g70
g51
NtRp1615
(dp1616
g54
(dp1617
g81
g82
ssg63
g1606
sg56
(lp1618
S':'
asbag49
(g70
g51
NtRp1619
(dp1620
g54
(dp1621
sg63
g1606
sg56
(lp1622
g49
(g50
g51
NtRp1623
(dp1624
g54
(dp1625
g62
I5
ssg63
g1619
sg56
(lp1626
S'D:\\Dise\xf1o Web\\Proyectos\\Parleyweb\\web2py\\applications\\webparley\\'
p1627
asbasbasbag49
(g65
g51
NtRp1628
(dp1629
g54
(dp1630
sg63
g59
sg56
(lp1631
g49
(g70
g51
NtRp1632
(dp1633
g54
(dp1634
g74
g75
ssg63
g1628
sg56
(lp1635
S'function'
p1636
asbag49
(g70
g51
NtRp1637
(dp1638
g54
(dp1639
g81
g82
ssg63
g1628
sg56
(lp1640
S':'
asbag49
(g70
g51
NtRp1641
(dp1642
g54
(dp1643
sg63
g1628
sg56
(lp1644
g49
(g50
g51
NtRp1645
(dp1646
g54
(dp1647
g62
I5
ssg63
g1641
sg56
(lp1648
S'insert'
p1649
asbasbasbag49
(g65
g51
NtRp1650
(dp1651
g54
(dp1652
sg63
g59
sg56
(lp1653
g49
(g70
g51
NtRp1654
(dp1655
g54
(dp1656
g74
g75
ssg63
g1650
sg56
(lp1657
S'get_vars'
p1658
asbag49
(g70
g51
NtRp1659
(dp1660
g54
(dp1661
g81
g82
ssg63
g1650
sg56
(lp1662
S':'
asbag49
(g70
g51
NtRp1663
(dp1664
g54
(dp1665
sg63
g1650
sg56
(lp1666
g49
(g50
g51
NtRp1667
(dp1668
g54
(dp1669
g62
I5
ssg63
g1663
sg56
(lp1670
g49
(g58
g51
NtRp1671
(dp1672
g54
(dp1673
g62
I4
ssg63
Nsg56
(lp1674
sbasbasbasbag49
(g65
g51
NtRp1675
(dp1676
g54
(dp1677
sg63
g59
sg56
(lp1678
g49
(g70
g51
NtRp1679
(dp1680
g54
(dp1681
g74
g75
ssg63
g1675
sg56
(lp1682
S'global_settings'
p1683
asbag49
(g70
g51
NtRp1684
(dp1685
g54
(dp1686
g81
g82
ssg63
g1675
sg56
(lp1687
S':'
asbag49
(g70
g51
NtRp1688
(dp1689
g54
(dp1690
sg63
g1675
sg56
(lp1691
g49
(g50
g51
NtRp1692
(dp1693
g54
(dp1694
g62
I5
ssg63
g1688
sg56
(lp1695
g49
(g58
g51
NtRp1696
(dp1697
g54
(dp1698
g62
I4
ssg63
Nsg56
(lp1699
g49
(g65
g51
NtRp1700
(dp1701
g54
(dp1702
sg63
g1696
sg56
(lp1703
g49
(g70
g51
NtRp1704
(dp1705
g54
(dp1706
g74
g75
ssg63
g1700
sg56
(lp1707
g626
asbag49
(g70
g51
NtRp1708
(dp1709
g54
(dp1710
g81
g82
ssg63
g1700
sg56
(lp1711
S':'
asbag49
(g70
g51
NtRp1712
(dp1713
g54
(dp1714
sg63
g1700
sg56
(lp1715
g49
(g50
g51
NtRp1716
(dp1717
g54
(dp1718
g62
I4
ssg63
g1712
sg56
(lp1719
S"set(['D:\\\\Dise\\xf1o Web\\\\Proyectos\\\\Parleyweb\\\\web2py\\\\applications\\\\admin\\\\', 'D:\\\\Dise\\xf1o Web\\\\Proyectos\\\\Parleyweb\\\\web2py\\\\applications\\\\webparley\\\\'])"
p1720
asbasbasbag49
(g65
g51
NtRp1721
(dp1722
g54
(dp1723
sg63
g1696
sg56
(lp1724
g49
(g70
g51
NtRp1725
(dp1726
g54
(dp1727
g74
g75
ssg63
g1721
sg56
(lp1728
g648
asbag49
(g70
g51
NtRp1729
(dp1730
g54
(dp1731
g81
g82
ssg63
g1721
sg56
(lp1732
S':'
asbag49
(g70
g51
NtRp1733
(dp1734
g54
(dp1735
sg63
g1721
sg56
(lp1736
g49
(g50
g51
NtRp1737
(dp1738
g54
(dp1739
g62
I4
ssg63
g1733
sg56
(lp1740
g661
asbasbasbag49
(g65
g51
NtRp1741
(dp1742
g54
(dp1743
sg63
g1696
sg56
(lp1744
g49
(g70
g51
NtRp1745
(dp1746
g54
(dp1747
g74
g75
ssg63
g1741
sg56
(lp1748
g670
asbag49
(g70
g51
NtRp1749
(dp1750
g54
(dp1751
g81
g82
ssg63
g1741
sg56
(lp1752
S':'
asbag49
(g70
g51
NtRp1753
(dp1754
g54
(dp1755
sg63
g1741
sg56
(lp1756
g49
(g50
g51
NtRp1757
(dp1758
g54
(dp1759
g62
I4
ssg63
g1753
sg56
(lp1760
g49
(g58
g51
NtRp1761
(dp1762
g54
(dp1763
g62
I3
ssg63
Nsg56
(lp1764
sbasbasbasbag49
(g65
g51
NtRp1765
(dp1766
g54
(dp1767
sg63
g1696
sg56
(lp1768
g49
(g70
g51
NtRp1769
(dp1770
g54
(dp1771
g74
g75
ssg63
g1765
sg56
(lp1772
g695
asbag49
(g70
g51
NtRp1773
(dp1774
g54
(dp1775
g81
g82
ssg63
g1765
sg56
(lp1776
S':'
asbag49
(g70
g51
NtRp1777
(dp1778
g54
(dp1779
sg63
g1765
sg56
(lp1780
g49
(g50
g51
NtRp1781
(dp1782
g54
(dp1783
g62
I4
ssg63
g1777
sg56
(lp1784
S"<Values at 0x2e1c260: {'verbose': False, 'ip': '127.0.0.1', 'shutdown_timeout': 5, 'taskbar': False, 'nocron': False, 'pid_filename': 'httpserver.pid', 'maxthreads': None, 'softcron': False, 'server_name': 'craxsnet-PC', 'bpython': False, 'nogui': False, 'port': 8000, 'extcron': False, 'debuglevel': 30, 'test': None, 'folder': 'D:\\\\Dise\\xf1o Web\\\\Proyectos\\\\Parleyweb\\\\web2py', 'config': '', 'import_models': False, 'winservice': '', 'shell': None, 'run': '', 'log_filename': 'httpserver.log', 'args': [''], 'socket_timeout': 5, 'ssl_ca_certificate': None, 'scheduler': None, 'profiler_filename': None, 'ssl_private_key': '', 'password': '<ask>', 'request_queue_size': 5, 'ssl_certificate': '', 'cronjob': False, 'numthreads': None, 'quiet': False, 'interfaces': None, 'minthreads': None, 'timeout': 10, 'plain': False, 'nobanner': False}>"
p1785
asbasbasbag49
(g65
g51
NtRp1786
(dp1787
g54
(dp1788
sg63
g1696
sg56
(lp1789
g49
(g70
g51
NtRp1790
(dp1791
g54
(dp1792
g74
g75
ssg63
g1786
sg56
(lp1793
g717
asbag49
(g70
g51
NtRp1794
(dp1795
g54
(dp1796
g81
g82
ssg63
g1786
sg56
(lp1797
S':'
asbag49
(g70
g51
NtRp1798
(dp1799
g54
(dp1800
sg63
g1786
sg56
(lp1801
g49
(g50
g51
NtRp1802
(dp1803
g54
(dp1804
g62
I4
ssg63
g1798
sg56
(lp1805
S'set([])'
p1806
asbasbasbag49
(g65
g51
NtRp1807
(dp1808
g54
(dp1809
sg63
g1696
sg56
(lp1810
g49
(g70
g51
NtRp1811
(dp1812
g54
(dp1813
g74
g75
ssg63
g1807
sg56
(lp1814
g739
asbag49
(g70
g51
NtRp1815
(dp1816
g54
(dp1817
g81
g82
ssg63
g1807
sg56
(lp1818
S':'
asbag49
(g70
g51
NtRp1819
(dp1820
g54
(dp1821
sg63
g1807
sg56
(lp1822
g49
(g50
g51
NtRp1823
(dp1824
g54
(dp1825
g62
I4
ssg63
g1819
sg56
(lp1826
g92
asbasbasbag49
(g65
g51
NtRp1827
(dp1828
g54
(dp1829
sg63
g1696
sg56
(lp1830
g49
(g70
g51
NtRp1831
(dp1832
g54
(dp1833
g74
g75
ssg63
g1827
sg56
(lp1834
g760
asbag49
(g70
g51
NtRp1835
(dp1836
g54
(dp1837
g81
g82
ssg63
g1827
sg56
(lp1838
S':'
asbag49
(g70
g51
NtRp1839
(dp1840
g54
(dp1841
sg63
g1827
sg56
(lp1842
g49
(g50
g51
NtRp1843
(dp1844
g54
(dp1845
g62
I4
ssg63
g1839
sg56
(lp1846
g773
asbasbasbag49
(g65
g51
NtRp1847
(dp1848
g54
(dp1849
sg63
g1696
sg56
(lp1850
g49
(g70
g51
NtRp1851
(dp1852
g54
(dp1853
g74
g75
ssg63
g1847
sg56
(lp1854
g958
asbag49
(g70
g51
NtRp1855
(dp1856
g54
(dp1857
g81
g82
ssg63
g1847
sg56
(lp1858
S':'
asbag49
(g70
g51
NtRp1859
(dp1860
g54
(dp1861
sg63
g1847
sg56
(lp1862
g49
(g50
g51
NtRp1863
(dp1864
g54
(dp1865
g62
I4
ssg63
g1859
sg56
(lp1866
g92
asbasbasbag49
(g65
g51
NtRp1867
(dp1868
g54
(dp1869
sg63
g1696
sg56
(lp1870
g49
(g70
g51
NtRp1871
(dp1872
g54
(dp1873
g74
g75
ssg63
g1867
sg56
(lp1874
g979
asbag49
(g70
g51
NtRp1875
(dp1876
g54
(dp1877
g81
g82
ssg63
g1867
sg56
(lp1878
S':'
asbag49
(g70
g51
NtRp1879
(dp1880
g54
(dp1881
sg63
g1867
sg56
(lp1882
g49
(g50
g51
NtRp1883
(dp1884
g54
(dp1885
g62
I4
ssg63
g1879
sg56
(lp1886
g92
asbasbasbag49
(g65
g51
NtRp1887
(dp1888
g54
(dp1889
sg63
g1696
sg56
(lp1890
g49
(g70
g51
NtRp1891
(dp1892
g54
(dp1893
g74
g75
ssg63
g1887
sg56
(lp1894
g1238
asbag49
(g70
g51
NtRp1895
(dp1896
g54
(dp1897
g81
g82
ssg63
g1887
sg56
(lp1898
S':'
asbag49
(g70
g51
NtRp1899
(dp1900
g54
(dp1901
sg63
g1887
sg56
(lp1902
g49
(g50
g51
NtRp1903
(dp1904
g54
(dp1905
g62
I4
ssg63
g1899
sg56
(lp1906
g1251
asbasbasbag49
(g65
g51
NtRp1907
(dp1908
g54
(dp1909
sg63
g1696
sg56
(lp1910
g49
(g70
g51
NtRp1911
(dp1912
g54
(dp1913
g74
g75
ssg63
g1907
sg56
(lp1914
g1303
asbag49
(g70
g51
NtRp1915
(dp1916
g54
(dp1917
g81
g82
ssg63
g1907
sg56
(lp1918
S':'
asbag49
(g70
g51
NtRp1919
(dp1920
g54
(dp1921
sg63
g1907
sg56
(lp1922
g49
(g50
g51
NtRp1923
(dp1924
g54
(dp1925
g62
I4
ssg63
g1919
sg56
(lp1926
g49
(g58
g51
NtRp1927
(dp1928
g54
(dp1929
g62
I3
ssg63
Nsg56
(lp1930
g49
(g65
g51
NtRp1931
(dp1932
g54
(dp1933
sg63
g1927
sg56
(lp1934
g49
(g70
g51
NtRp1935
(dp1936
g54
(dp1937
sg63
g1931
sg56
(lp1938
g49
(g50
g51
NtRp1939
(dp1940
g54
(dp1941
g62
I3
ssg63
g1935
sg56
(lp1942
S'1'
asbasbasbag49
(g65
g51
NtRp1943
(dp1944
g54
(dp1945
sg63
g1927
sg56
(lp1946
g49
(g70
g51
NtRp1947
(dp1948
g54
(dp1949
sg63
g1943
sg56
(lp1950
g49
(g50
g51
NtRp1951
(dp1952
g54
(dp1953
g62
I3
ssg63
g1947
sg56
(lp1954
S'99'
p1955
asbasbasbag49
(g65
g51
NtRp1956
(dp1957
g54
(dp1958
sg63
g1927
sg56
(lp1959
g49
(g70
g51
NtRp1960
(dp1961
g54
(dp1962
sg63
g1956
sg56
(lp1963
g49
(g50
g51
NtRp1964
(dp1965
g54
(dp1966
g62
I3
ssg63
g1960
sg56
(lp1967
S'7'
asbasbasbag49
(g65
g51
NtRp1968
(dp1969
g54
(dp1970
sg63
g1927
sg56
(lp1971
g49
(g70
g51
NtRp1972
(dp1973
g54
(dp1974
sg63
g1968
sg56
(lp1975
g49
(g50
g51
NtRp1976
(dp1977
g54
(dp1978
g62
I3
ssg63
g1972
sg56
(lp1979
S'datetime.datetime(2012, 3, 4, 22, 12, 8)'
p1980
asbasbasbag49
(g65
g51
NtRp1981
(dp1982
g54
(dp1983
sg63
g1927
sg56
(lp1984
g49
(g70
g51
NtRp1985
(dp1986
g54
(dp1987
sg63
g1981
sg56
(lp1988
g49
(g50
g51
NtRp1989
(dp1990
g54
(dp1991
g62
I3
ssg63
g1985
sg56
(lp1992
g1382
asbasbasbasbasbasbasbasbasbasbasbag49
(g65
g51
NtRp1993
(dp1994
g54
(dp1995
sg63
g59
sg56
(lp1996
g49
(g70
g51
NtRp1997
(dp1998
g54
(dp1999
g74
g75
ssg63
g1993
sg56
(lp2000
S'is_https'
p2001
asbag49
(g70
g51
NtRp2002
(dp2003
g54
(dp2004
g81
g82
ssg63
g1993
sg56
(lp2005
S':'
asbag49
(g70
g51
NtRp2006
(dp2007
g54
(dp2008
sg63
g1993
sg56
(lp2009
g49
(g50
g51
NtRp2010
(dp2011
g54
(dp2012
g62
I5
ssg63
g2006
sg56
(lp2013
g92
asbasbasbag49
(g65
g51
NtRp2014
(dp2015
g54
(dp2016
sg63
g59
sg56
(lp2017
g49
(g70
g51
NtRp2018
(dp2019
g54
(dp2020
g74
g75
ssg63
g2014
sg56
(lp2021
S'is_local'
p2022
asbag49
(g70
g51
NtRp2023
(dp2024
g54
(dp2025
g81
g82
ssg63
g2014
sg56
(lp2026
S':'
asbag49
(g70
g51
NtRp2027
(dp2028
g54
(dp2029
sg63
g2014
sg56
(lp2030
g49
(g50
g51
NtRp2031
(dp2032
g54
(dp2033
g62
I5
ssg63
g2027
sg56
(lp2034
g1491
asbasbasbag49
(g65
g51
NtRp2035
(dp2036
g54
(dp2037
sg63
g59
sg56
(lp2038
g49
(g70
g51
NtRp2039
(dp2040
g54
(dp2041
g74
g75
ssg63
g2035
sg56
(lp2042
S'is_restful'
p2043
asbag49
(g70
g51
NtRp2044
(dp2045
g54
(dp2046
g81
g82
ssg63
g2035
sg56
(lp2047
S':'
asbag49
(g70
g51
NtRp2048
(dp2049
g54
(dp2050
sg63
g2035
sg56
(lp2051
g49
(g50
g51
NtRp2052
(dp2053
g54
(dp2054
g62
I5
ssg63
g2048
sg56
(lp2055
g92
asbasbasbag49
(g65
g51
NtRp2056
(dp2057
g54
(dp2058
sg63
g59
sg56
(lp2059
g49
(g70
g51
NtRp2060
(dp2061
g54
(dp2062
g74
g75
ssg63
g2056
sg56
(lp2063
S'now'
p2064
asbag49
(g70
g51
NtRp2065
(dp2066
g54
(dp2067
g81
g82
ssg63
g2056
sg56
(lp2068
S':'
asbag49
(g70
g51
NtRp2069
(dp2070
g54
(dp2071
sg63
g2056
sg56
(lp2072
g49
(g50
g51
NtRp2073
(dp2074
g54
(dp2075
g62
I5
ssg63
g2069
sg56
(lp2076
S'datetime.datetime(2012, 3, 21, 0, 12, 46, 970000)'
p2077
asbasbasbag49
(g65
g51
NtRp2078
(dp2079
g54
(dp2080
sg63
g59
sg56
(lp2081
g49
(g70
g51
NtRp2082
(dp2083
g54
(dp2084
g74
g75
ssg63
g2078
sg56
(lp2085
S'post_vars'
p2086
asbag49
(g70
g51
NtRp2087
(dp2088
g54
(dp2089
g81
g82
ssg63
g2078
sg56
(lp2090
S':'
asbag49
(g70
g51
NtRp2091
(dp2092
g54
(dp2093
sg63
g2078
sg56
(lp2094
g49
(g50
g51
NtRp2095
(dp2096
g54
(dp2097
g62
I5
ssg63
g2091
sg56
(lp2098
g49
(g58
g51
NtRp2099
(dp2100
g54
(dp2101
g62
I4
ssg63
Nsg56
(lp2102
sbasbasbasbag49
(g65
g51
NtRp2103
(dp2104
g54
(dp2105
sg63
g59
sg56
(lp2106
g49
(g70
g51
NtRp2107
(dp2108
g54
(dp2109
g74
g75
ssg63
g2103
sg56
(lp2110
S'raw_args'
p2111
asbag49
(g70
g51
NtRp2112
(dp2113
g54
(dp2114
g81
g82
ssg63
g2103
sg56
(lp2115
S':'
asbag49
(g70
g51
NtRp2116
(dp2117
g54
(dp2118
sg63
g2103
sg56
(lp2119
g49
(g50
g51
NtRp2120
(dp2121
g54
(dp2122
g62
I5
ssg63
g2116
sg56
(lp2123
S'db/palabras'
p2124
asbasbasbag49
(g65
g51
NtRp2125
(dp2126
g54
(dp2127
sg63
g59
sg56
(lp2128
g49
(g70
g51
NtRp2129
(dp2130
g54
(dp2131
g74
g75
ssg63
g2125
sg56
(lp2132
S'url'
p2133
asbag49
(g70
g51
NtRp2134
(dp2135
g54
(dp2136
g81
g82
ssg63
g2125
sg56
(lp2137
S':'
asbag49
(g70
g51
NtRp2138
(dp2139
g54
(dp2140
sg63
g2125
sg56
(lp2141
g49
(g50
g51
NtRp2142
(dp2143
g54
(dp2144
g62
I5
ssg63
g2138
sg56
(lp2145
S'/webparley/appadmin/insert/db/palabras'
p2146
asbasbasbag49
(g65
g51
NtRp2147
(dp2148
g54
(dp2149
sg63
g59
sg56
(lp2150
g49
(g70
g51
NtRp2151
(dp2152
g54
(dp2153
g74
g75
ssg63
g2147
sg56
(lp2154
S'utcnow'
p2155
asbag49
(g70
g51
NtRp2156
(dp2157
g54
(dp2158
g81
g82
ssg63
g2147
sg56
(lp2159
S':'
asbag49
(g70
g51
NtRp2160
(dp2161
g54
(dp2162
sg63
g2147
sg56
(lp2163
g49
(g50
g51
NtRp2164
(dp2165
g54
(dp2166
g62
I5
ssg63
g2160
sg56
(lp2167
S'datetime.datetime(2012, 3, 20, 23, 12, 46, 970000)'
p2168
asbasbasbag49
(g65
g51
NtRp2169
(dp2170
g54
(dp2171
sg63
g59
sg56
(lp2172
g49
(g70
g51
NtRp2173
(dp2174
g54
(dp2175
g74
g75
ssg63
g2169
sg56
(lp2176
S'uuid'
p2177
asbag49
(g70
g51
NtRp2178
(dp2179
g54
(dp2180
g81
g82
ssg63
g2169
sg56
(lp2181
S':'
asbag49
(g70
g51
NtRp2182
(dp2183
g54
(dp2184
sg63
g2169
sg56
(lp2185
g49
(g50
g51
NtRp2186
(dp2187
g54
(dp2188
g62
I5
ssg63
g2182
sg56
(lp2189
S'webparley/127.0.0.1.2012-03-21.00-12-46.8da685f7-c237-4378-b2fa-1ec67c17204e'
p2190
asbasbasbag49
(g65
g51
NtRp2191
(dp2192
g54
(dp2193
sg63
g59
sg56
(lp2194
g49
(g70
g51
NtRp2195
(dp2196
g54
(dp2197
g74
g75
ssg63
g2191
sg56
(lp2198
S'vars'
p2199
asbag49
(g70
g51
NtRp2200
(dp2201
g54
(dp2202
g81
g82
ssg63
g2191
sg56
(lp2203
S':'
asbag49
(g70
g51
NtRp2204
(dp2205
g54
(dp2206
sg63
g2191
sg56
(lp2207
g49
(g50
g51
NtRp2208
(dp2209
g54
(dp2210
g62
I5
ssg63
g2204
sg56
(lp2211
g49
(g58
g51
NtRp2212
(dp2213
g54
(dp2214
g62
I4
ssg63
Nsg56
(lp2215
sbasbasbasbag49
(g65
g51
NtRp2216
(dp2217
g54
(dp2218
sg63
g59
sg56
(lp2219
g49
(g70
g51
NtRp2220
(dp2221
g54
(dp2222
g74
g75
ssg63
g2216
sg56
(lp2223
S'wsgi'
p2224
asbag49
(g70
g51
NtRp2225
(dp2226
g54
(dp2227
g81
g82
ssg63
g2216
sg56
(lp2228
S':'
asbag49
(g70
g51
NtRp2229
(dp2230
g54
(dp2231
sg63
g2216
sg56
(lp2232
g49
(g50
g51
NtRp2233
(dp2234
g54
(dp2235
g62
I5
ssg63
g2229
sg56
(lp2236
g49
(g58
g51
NtRp2237
(dp2238
g54
(dp2239
g62
I4
ssg63
Nsg56
(lp2240
g49
(g65
g51
NtRp2241
(dp2242
g54
(dp2243
sg63
g2237
sg56
(lp2244
g49
(g70
g51
NtRp2245
(dp2246
g54
(dp2247
g74
g75
ssg63
g2241
sg56
(lp2248
S'environ'
p2249
asbag49
(g70
g51
NtRp2250
(dp2251
g54
(dp2252
g81
g82
ssg63
g2241
sg56
(lp2253
S':'
asbag49
(g70
g51
NtRp2254
(dp2255
g54
(dp2256
sg63
g2241
sg56
(lp2257
g49
(g50
g51
NtRp2258
(dp2259
g54
(dp2260
g62
I4
ssg63
g2254
sg56
(lp2261
g49
(g58
g51
NtRp2262
(dp2263
g54
(dp2264
g62
I3
ssg63
Nsg56
(lp2265
g49
(g65
g51
NtRp2266
(dp2267
g54
(dp2268
sg63
g2262
sg56
(lp2269
g49
(g70
g51
NtRp2270
(dp2271
g54
(dp2272
g74
g75
ssg63
g2266
sg56
(lp2273
S'HTTP_ACCEPT'
p2274
asbag49
(g70
g51
NtRp2275
(dp2276
g54
(dp2277
g81
g82
ssg63
g2266
sg56
(lp2278
S':'
asbag49
(g70
g51
NtRp2279
(dp2280
g54
(dp2281
sg63
g2266
sg56
(lp2282
g49
(g50
g51
NtRp2283
(dp2284
g54
(dp2285
g62
I3
ssg63
g2279
sg56
(lp2286
g795
asbasbasbag49
(g65
g51
NtRp2287
(dp2288
g54
(dp2289
sg63
g2262
sg56
(lp2290
g49
(g70
g51
NtRp2291
(dp2292
g54
(dp2293
g74
g75
ssg63
g2287
sg56
(lp2294
S'HTTP_ACCEPT_ENCODING'
p2295
asbag49
(g70
g51
NtRp2296
(dp2297
g54
(dp2298
g81
g82
ssg63
g2287
sg56
(lp2299
S':'
asbag49
(g70
g51
NtRp2300
(dp2301
g54
(dp2302
sg63
g2287
sg56
(lp2303
g49
(g50
g51
NtRp2304
(dp2305
g54
(dp2306
g62
I3
ssg63
g2300
sg56
(lp2307
g817
asbasbasbag49
(g65
g51
NtRp2308
(dp2309
g54
(dp2310
sg63
g2262
sg56
(lp2311
g49
(g70
g51
NtRp2312
(dp2313
g54
(dp2314
g74
g75
ssg63
g2308
sg56
(lp2315
S'HTTP_ACCEPT_LANGUAGE'
p2316
asbag49
(g70
g51
NtRp2317
(dp2318
g54
(dp2319
g81
g82
ssg63
g2308
sg56
(lp2320
S':'
asbag49
(g70
g51
NtRp2321
(dp2322
g54
(dp2323
sg63
g2308
sg56
(lp2324
g49
(g50
g51
NtRp2325
(dp2326
g54
(dp2327
g62
I3
ssg63
g2321
sg56
(lp2328
g839
asbasbasbag49
(g65
g51
NtRp2329
(dp2330
g54
(dp2331
sg63
g2262
sg56
(lp2332
g49
(g70
g51
NtRp2333
(dp2334
g54
(dp2335
g74
g75
ssg63
g2329
sg56
(lp2336
S'HTTP_CONNECTION'
p2337
asbag49
(g70
g51
NtRp2338
(dp2339
g54
(dp2340
g81
g82
ssg63
g2329
sg56
(lp2341
S':'
asbag49
(g70
g51
NtRp2342
(dp2343
g54
(dp2344
sg63
g2329
sg56
(lp2345
g49
(g50
g51
NtRp2346
(dp2347
g54
(dp2348
g62
I3
ssg63
g2342
sg56
(lp2349
g861
asbasbasbag49
(g65
g51
NtRp2350
(dp2351
g54
(dp2352
sg63
g2262
sg56
(lp2353
g49
(g70
g51
NtRp2354
(dp2355
g54
(dp2356
g74
g75
ssg63
g2350
sg56
(lp2357
S'HTTP_COOKIE'
p2358
asbag49
(g70
g51
NtRp2359
(dp2360
g54
(dp2361
g81
g82
ssg63
g2350
sg56
(lp2362
S':'
asbag49
(g70
g51
NtRp2363
(dp2364
g54
(dp2365
sg63
g2350
sg56
(lp2366
g49
(g50
g51
NtRp2367
(dp2368
g54
(dp2369
g62
I3
ssg63
g2363
sg56
(lp2370
g883
asbasbasbag49
(g65
g51
NtRp2371
(dp2372
g54
(dp2373
sg63
g2262
sg56
(lp2374
g49
(g70
g51
NtRp2375
(dp2376
g54
(dp2377
g74
g75
ssg63
g2371
sg56
(lp2378
S'HTTP_HOST'
p2379
asbag49
(g70
g51
NtRp2380
(dp2381
g54
(dp2382
g81
g82
ssg63
g2371
sg56
(lp2383
S':'
asbag49
(g70
g51
NtRp2384
(dp2385
g54
(dp2386
sg63
g2371
sg56
(lp2387
g49
(g50
g51
NtRp2388
(dp2389
g54
(dp2390
g62
I3
ssg63
g2384
sg56
(lp2391
g905
asbasbasbag49
(g65
g51
NtRp2392
(dp2393
g54
(dp2394
sg63
g2262
sg56
(lp2395
g49
(g70
g51
NtRp2396
(dp2397
g54
(dp2398
g74
g75
ssg63
g2392
sg56
(lp2399
S'HTTP_REFERER'
p2400
asbag49
(g70
g51
NtRp2401
(dp2402
g54
(dp2403
g81
g82
ssg63
g2392
sg56
(lp2404
S':'
asbag49
(g70
g51
NtRp2405
(dp2406
g54
(dp2407
sg63
g2392
sg56
(lp2408
g49
(g50
g51
NtRp2409
(dp2410
g54
(dp2411
g62
I3
ssg63
g2405
sg56
(lp2412
g927
asbasbasbag49
(g65
g51
NtRp2413
(dp2414
g54
(dp2415
sg63
g2262
sg56
(lp2416
g49
(g70
g51
NtRp2417
(dp2418
g54
(dp2419
g74
g75
ssg63
g2413
sg56
(lp2420
S'HTTP_USER_AGENT'
p2421
asbag49
(g70
g51
NtRp2422
(dp2423
g54
(dp2424
g81
g82
ssg63
g2413
sg56
(lp2425
S':'
asbag49
(g70
g51
NtRp2426
(dp2427
g54
(dp2428
sg63
g2413
sg56
(lp2429
g49
(g50
g51
NtRp2430
(dp2431
g54
(dp2432
g62
I3
ssg63
g2426
sg56
(lp2433
g949
asbasbasbag49
(g65
g51
NtRp2434
(dp2435
g54
(dp2436
sg63
g2262
sg56
(lp2437
g49
(g70
g51
NtRp2438
(dp2439
g54
(dp2440
g74
g75
ssg63
g2434
sg56
(lp2441
S'PATH_INFO'
p2442
asbag49
(g70
g51
NtRp2443
(dp2444
g54
(dp2445
g81
g82
ssg63
g2434
sg56
(lp2446
S':'
asbag49
(g70
g51
NtRp2447
(dp2448
g54
(dp2449
sg63
g2434
sg56
(lp2450
g49
(g50
g51
NtRp2451
(dp2452
g54
(dp2453
g62
I3
ssg63
g2447
sg56
(lp2454
g1013
asbasbasbag49
(g65
g51
NtRp2455
(dp2456
g54
(dp2457
sg63
g2262
sg56
(lp2458
g49
(g70
g51
NtRp2459
(dp2460
g54
(dp2461
g74
g75
ssg63
g2455
sg56
(lp2462
S'QUERY_STRING'
p2463
asbag49
(g70
g51
NtRp2464
(dp2465
g54
(dp2466
g81
g82
ssg63
g2455
sg56
(lp2467
S':'
asbag49
(g70
g51
NtRp2468
(dp2469
g54
(dp2470
sg63
g2455
sg56
(lp2471
g49
(g50
g51
NtRp2472
(dp2473
g54
(dp2474
g62
I3
ssg63
g2468
sg56
(lp2475
S''
asbasbasbag49
(g65
g51
NtRp2476
(dp2477
g54
(dp2478
sg63
g2262
sg56
(lp2479
g49
(g70
g51
NtRp2480
(dp2481
g54
(dp2482
g74
g75
ssg63
g2476
sg56
(lp2483
S'REMOTE_ADDR'
p2484
asbag49
(g70
g51
NtRp2485
(dp2486
g54
(dp2487
g81
g82
ssg63
g2476
sg56
(lp2488
S':'
asbag49
(g70
g51
NtRp2489
(dp2490
g54
(dp2491
sg63
g2476
sg56
(lp2492
g49
(g50
g51
NtRp2493
(dp2494
g54
(dp2495
g62
I3
ssg63
g2489
sg56
(lp2496
g208
asbasbasbag49
(g65
g51
NtRp2497
(dp2498
g54
(dp2499
sg63
g2262
sg56
(lp2500
g49
(g70
g51
NtRp2501
(dp2502
g54
(dp2503
g74
g75
ssg63
g2497
sg56
(lp2504
S'REMOTE_PORT'
p2505
asbag49
(g70
g51
NtRp2506
(dp2507
g54
(dp2508
g81
g82
ssg63
g2497
sg56
(lp2509
S':'
asbag49
(g70
g51
NtRp2510
(dp2511
g54
(dp2512
sg63
g2497
sg56
(lp2513
g49
(g50
g51
NtRp2514
(dp2515
g54
(dp2516
g62
I3
ssg63
g2510
sg56
(lp2517
g1077
asbasbasbag49
(g65
g51
NtRp2518
(dp2519
g54
(dp2520
sg63
g2262
sg56
(lp2521
g49
(g70
g51
NtRp2522
(dp2523
g54
(dp2524
g74
g75
ssg63
g2518
sg56
(lp2525
S'REQUEST_METHOD'
p2526
asbag49
(g70
g51
NtRp2527
(dp2528
g54
(dp2529
g81
g82
ssg63
g2518
sg56
(lp2530
S':'
asbag49
(g70
g51
NtRp2531
(dp2532
g54
(dp2533
sg63
g2518
sg56
(lp2534
g49
(g50
g51
NtRp2535
(dp2536
g54
(dp2537
g62
I3
ssg63
g2531
sg56
(lp2538
g1099
asbasbasbag49
(g65
g51
NtRp2539
(dp2540
g54
(dp2541
sg63
g2262
sg56
(lp2542
g49
(g70
g51
NtRp2543
(dp2544
g54
(dp2545
g74
g75
ssg63
g2539
sg56
(lp2546
S'REQUEST_URI'
p2547
asbag49
(g70
g51
NtRp2548
(dp2549
g54
(dp2550
g81
g82
ssg63
g2539
sg56
(lp2551
S':'
asbag49
(g70
g51
NtRp2552
(dp2553
g54
(dp2554
sg63
g2539
sg56
(lp2555
g49
(g50
g51
NtRp2556
(dp2557
g54
(dp2558
g62
I3
ssg63
g2552
sg56
(lp2559
g1013
asbasbasbag49
(g65
g51
NtRp2560
(dp2561
g54
(dp2562
sg63
g2262
sg56
(lp2563
g49
(g70
g51
NtRp2564
(dp2565
g54
(dp2566
g74
g75
ssg63
g2560
sg56
(lp2567
S'SCRIPT_NAME'
p2568
asbag49
(g70
g51
NtRp2569
(dp2570
g54
(dp2571
g81
g82
ssg63
g2560
sg56
(lp2572
S':'
asbag49
(g70
g51
NtRp2573
(dp2574
g54
(dp2575
sg63
g2560
sg56
(lp2576
g49
(g50
g51
NtRp2577
(dp2578
g54
(dp2579
g62
I3
ssg63
g2573
sg56
(lp2580
S''
asbasbasbag49
(g65
g51
NtRp2581
(dp2582
g54
(dp2583
sg63
g2262
sg56
(lp2584
g49
(g70
g51
NtRp2585
(dp2586
g54
(dp2587
g74
g75
ssg63
g2581
sg56
(lp2588
S'SERVER_NAME'
p2589
asbag49
(g70
g51
NtRp2590
(dp2591
g54
(dp2592
g81
g82
ssg63
g2581
sg56
(lp2593
S':'
asbag49
(g70
g51
NtRp2594
(dp2595
g54
(dp2596
sg63
g2581
sg56
(lp2597
g49
(g50
g51
NtRp2598
(dp2599
g54
(dp2600
g62
I3
ssg63
g2594
sg56
(lp2601
g1163
asbasbasbag49
(g65
g51
NtRp2602
(dp2603
g54
(dp2604
sg63
g2262
sg56
(lp2605
g49
(g70
g51
NtRp2606
(dp2607
g54
(dp2608
g74
g75
ssg63
g2602
sg56
(lp2609
S'SERVER_PORT'
p2610
asbag49
(g70
g51
NtRp2611
(dp2612
g54
(dp2613
g81
g82
ssg63
g2602
sg56
(lp2614
S':'
asbag49
(g70
g51
NtRp2615
(dp2616
g54
(dp2617
sg63
g2602
sg56
(lp2618
g49
(g50
g51
NtRp2619
(dp2620
g54
(dp2621
g62
I3
ssg63
g2615
sg56
(lp2622
g1185
asbasbasbag49
(g65
g51
NtRp2623
(dp2624
g54
(dp2625
sg63
g2262
sg56
(lp2626
g49
(g70
g51
NtRp2627
(dp2628
g54
(dp2629
g74
g75
ssg63
g2623
sg56
(lp2630
S'SERVER_PROTOCOL'
p2631
asbag49
(g70
g51
NtRp2632
(dp2633
g54
(dp2634
g81
g82
ssg63
g2623
sg56
(lp2635
S':'
asbag49
(g70
g51
NtRp2636
(dp2637
g54
(dp2638
sg63
g2623
sg56
(lp2639
g49
(g50
g51
NtRp2640
(dp2641
g54
(dp2642
g62
I3
ssg63
g2636
sg56
(lp2643
g1207
asbasbasbag49
(g65
g51
NtRp2644
(dp2645
g54
(dp2646
sg63
g2262
sg56
(lp2647
g49
(g70
g51
NtRp2648
(dp2649
g54
(dp2650
g74
g75
ssg63
g2644
sg56
(lp2651
S'SERVER_SOFTWARE'
p2652
asbag49
(g70
g51
NtRp2653
(dp2654
g54
(dp2655
g81
g82
ssg63
g2644
sg56
(lp2656
S':'
asbag49
(g70
g51
NtRp2657
(dp2658
g54
(dp2659
sg63
g2644
sg56
(lp2660
g49
(g50
g51
NtRp2661
(dp2662
g54
(dp2663
g62
I3
ssg63
g2657
sg56
(lp2664
g1229
asbasbasbag49
(g65
g51
NtRp2665
(dp2666
g54
(dp2667
sg63
g2262
sg56
(lp2668
g49
(g70
g51
NtRp2669
(dp2670
g54
(dp2671
g74
g75
ssg63
g2665
sg56
(lp2672
S'WEB2PY_ORIGINAL_URI'
p2673
asbag49
(g70
g51
NtRp2674
(dp2675
g54
(dp2676
g81
g82
ssg63
g2665
sg56
(lp2677
S':'
asbag49
(g70
g51
NtRp2678
(dp2679
g54
(dp2680
sg63
g2665
sg56
(lp2681
g49
(g50
g51
NtRp2682
(dp2683
g54
(dp2684
g62
I3
ssg63
g2678
sg56
(lp2685
g1273
asbasbasbag49
(g65
g51
NtRp2686
(dp2687
g54
(dp2688
sg63
g2262
sg56
(lp2689
g49
(g70
g51
NtRp2690
(dp2691
g54
(dp2692
g74
g75
ssg63
g2686
sg56
(lp2693
S'wsgi.errors'
p2694
asbag49
(g70
g51
NtRp2695
(dp2696
g54
(dp2697
g81
g82
ssg63
g2686
sg56
(lp2698
S':'
asbag49
(g70
g51
NtRp2699
(dp2700
g54
(dp2701
sg63
g2686
sg56
(lp2702
g49
(g50
g51
NtRp2703
(dp2704
g54
(dp2705
g62
I3
ssg63
g2699
sg56
(lp2706
S"<open file '<stderr>', mode 'w' at 0x004200B0>"
p2707
asbasbasbag49
(g65
g51
NtRp2708
(dp2709
g54
(dp2710
sg63
g2262
sg56
(lp2711
g49
(g70
g51
NtRp2712
(dp2713
g54
(dp2714
g74
g75
ssg63
g2708
sg56
(lp2715
S'wsgi.file_wrapper'
p2716
asbag49
(g70
g51
NtRp2717
(dp2718
g54
(dp2719
g81
g82
ssg63
g2708
sg56
(lp2720
S':'
asbag49
(g70
g51
NtRp2721
(dp2722
g54
(dp2723
sg63
g2708
sg56
(lp2724
g49
(g50
g51
NtRp2725
(dp2726
g54
(dp2727
g62
I3
ssg63
g2721
sg56
(lp2728
S'<class wsgiref.util.FileWrapper at 0x02C19390>'
p2729
asbasbasbag49
(g65
g51
NtRp2730
(dp2731
g54
(dp2732
sg63
g2262
sg56
(lp2733
g49
(g70
g51
NtRp2734
(dp2735
g54
(dp2736
g74
g75
ssg63
g2730
sg56
(lp2737
S'wsgi.input'
p2738
asbag49
(g70
g51
NtRp2739
(dp2740
g54
(dp2741
g81
g82
ssg63
g2730
sg56
(lp2742
S':'
asbag49
(g70
g51
NtRp2743
(dp2744
g54
(dp2745
sg63
g2730
sg56
(lp2746
g49
(g50
g51
NtRp2747
(dp2748
g54
(dp2749
g62
I3
ssg63
g2743
sg56
(lp2750
S'<cStringIO.StringO object at 0x06758E80>'
p2751
asbasbasbag49
(g65
g51
NtRp2752
(dp2753
g54
(dp2754
sg63
g2262
sg56
(lp2755
g49
(g70
g51
NtRp2756
(dp2757
g54
(dp2758
g74
g75
ssg63
g2752
sg56
(lp2759
S'wsgi.multiprocess'
p2760
asbag49
(g70
g51
NtRp2761
(dp2762
g54
(dp2763
g81
g82
ssg63
g2752
sg56
(lp2764
S':'
asbag49
(g70
g51
NtRp2765
(dp2766
g54
(dp2767
sg63
g2752
sg56
(lp2768
g49
(g50
g51
NtRp2769
(dp2770
g54
(dp2771
g62
I3
ssg63
g2765
sg56
(lp2772
g92
asbasbasbag49
(g65
g51
NtRp2773
(dp2774
g54
(dp2775
sg63
g2262
sg56
(lp2776
g49
(g70
g51
NtRp2777
(dp2778
g54
(dp2779
g74
g75
ssg63
g2773
sg56
(lp2780
S'wsgi.multithread'
p2781
asbag49
(g70
g51
NtRp2782
(dp2783
g54
(dp2784
g81
g82
ssg63
g2773
sg56
(lp2785
S':'
asbag49
(g70
g51
NtRp2786
(dp2787
g54
(dp2788
sg63
g2773
sg56
(lp2789
g49
(g50
g51
NtRp2790
(dp2791
g54
(dp2792
g62
I3
ssg63
g2786
sg56
(lp2793
g1491
asbasbasbag49
(g65
g51
NtRp2794
(dp2795
g54
(dp2796
sg63
g2262
sg56
(lp2797
g49
(g70
g51
NtRp2798
(dp2799
g54
(dp2800
g74
g75
ssg63
g2794
sg56
(lp2801
S'wsgi.run_once'
p2802
asbag49
(g70
g51
NtRp2803
(dp2804
g54
(dp2805
g81
g82
ssg63
g2794
sg56
(lp2806
S':'
asbag49
(g70
g51
NtRp2807
(dp2808
g54
(dp2809
sg63
g2794
sg56
(lp2810
g49
(g50
g51
NtRp2811
(dp2812
g54
(dp2813
g62
I3
ssg63
g2807
sg56
(lp2814
g92
asbasbasbag49
(g65
g51
NtRp2815
(dp2816
g54
(dp2817
sg63
g2262
sg56
(lp2818
g49
(g70
g51
NtRp2819
(dp2820
g54
(dp2821
g74
g75
ssg63
g2815
sg56
(lp2822
S'wsgi.url_scheme'
p2823
asbag49
(g70
g51
NtRp2824
(dp2825
g54
(dp2826
g81
g82
ssg63
g2815
sg56
(lp2827
S':'
asbag49
(g70
g51
NtRp2828
(dp2829
g54
(dp2830
sg63
g2815
sg56
(lp2831
g49
(g50
g51
NtRp2832
(dp2833
g54
(dp2834
g62
I3
ssg63
g2828
sg56
(lp2835
g1534
asbasbasbag49
(g65
g51
NtRp2836
(dp2837
g54
(dp2838
sg63
g2262
sg56
(lp2839
g49
(g70
g51
NtRp2840
(dp2841
g54
(dp2842
g74
g75
ssg63
g2836
sg56
(lp2843
S'wsgi.version'
p2844
asbag49
(g70
g51
NtRp2845
(dp2846
g54
(dp2847
g81
g82
ssg63
g2836
sg56
(lp2848
S':'
asbag49
(g70
g51
NtRp2849
(dp2850
g54
(dp2851
sg63
g2836
sg56
(lp2852
g49
(g50
g51
NtRp2853
(dp2854
g54
(dp2855
g62
I3
ssg63
g2849
sg56
(lp2856
S'1'
asbasbasbasbasbasbasbasbasbasbasbasbasbsS'frames'
p2857
(lp2858
(dp2859
S'file'
p2860
S'D:\\Dise\xf1o Web\\Proyectos\\Parleyweb\\web2py\\gluon\\restricted.py'
p2861
sS'dump'
p2862
(dp2863
sS'lnum'
p2864
I205
sS'lines'
p2865
(dp2866
sS'call'
p2867
S"(code='# -*- coding: utf-8 -*-\\n\\n#######################...ras.id, min_length=1)\\n#\\n#\\n#\\n#\\n#\\n#\\n#\\n#\\n#\\n#\\n#\\n#\\n#\\n\\n', environment={'A': <class 'gluon.html.A'>, 'Auth': <class 'gluon.tools.Auth'>, 'B': <class 'gluon.html.B'>, 'BEAUTIFY': <class 'gluon.html.BEAUTIFY'>, 'BODY': <class 'gluon.html.BODY'>, 'BR': <class 'gluon.html.BR'>, 'BUTTON': <class 'gluon.html.BUTTON'>, 'CAT': <class 'gluon.html.CAT'>, 'CENTER': <class 'gluon.html.CENTER'>, 'CLEANUP': <class 'gluon.validators.CLEANUP'>, ...}, layer='D:\\\\Dise\\xf1o Web\\\\Proyectos\\\\Parleyweb\\\\web2py\\\\applications\\\\webparley\\\\models\\\\db.py')"
p2868
sS'func'
p2869
S'restricted'
p2870
sa(dp2871
g2860
S'D:\\Dise\xf1o Web\\Proyectos\\Parleyweb\\web2py\\applications\\webparley\\models\\db.py'
p2872
sg2862
(dp2873
sg2864
I89
sg2865
(dp2874
I84
S"   Field('Name', unique=True),"
p2875
sI85
S"   format = '%(Name)s')"
p2876
sI86
S''
sI87
S"db.define_table('Image',"
p2877
sI88
S"   Field('Nom'),"
p2878
sI89
S"   Field('Date_Creation',date),"
p2879
sI90
S"   Field('Tag','list:reference Tag'),"
p2880
sI91
S"   format = '%(Nom)s')"
p2881
sI92
S''
sI93
S''
ssg2867
S'()'
p2882
sg2869
S'<module>'
p2883
sasS'pyver'
p2884
S'Python 2.5.4: D:\\Dise\xf1o Web\\Proyectos\\Parleyweb\\web2py\\web2py.exe'
p2885
sS'session'
p2886
g49
(g50
g51
NtRp2887
(dp2888
g54
(dp2889
sg56
(lp2890
g49
(g58
g51
NtRp2891
(dp2892
g54
(dp2893
g62
I5
ssg63
Nsg56
(lp2894
g49
(g65
g51
NtRp2895
(dp2896
g54
(dp2897
sg63
g2891
sg56
(lp2898
g49
(g70
g51
NtRp2899
(dp2900
g54
(dp2901
g74
g75
ssg63
g2895
sg56
(lp2902
S'last_query'
p2903
asbag49
(g70
g51
NtRp2904
(dp2905
g54
(dp2906
g81
g82
ssg63
g2895
sg56
(lp2907
S':'
asbag49
(g70
g51
NtRp2908
(dp2909
g54
(dp2910
sg63
g2895
sg56
(lp2911
g49
(g50
g51
NtRp2912
(dp2913
g54
(dp2914
g62
I5
ssg63
g2908
sg56
(lp2915
S'db.palabras.id>0'
p2916
asbasbasbasbasbsS'etype'
p2917
S"<type 'exceptions.NameError'>"
p2918
sS'date'
p2919
S'Wed Mar 21 00:12:47 2012'
p2920
sS'response'
p2921
g49
(g50
g51
NtRp2922
(dp2923
g54
(dp2924
sg56
(lp2925
g49
(g58
g51
NtRp2926
(dp2927
g54
(dp2928
g62
I5
ssg63
Nsg56
(lp2929
g49
(g65
g51
NtRp2930
(dp2931
g54
(dp2932
sg63
g2926
sg56
(lp2933
g49
(g70
g51
NtRp2934
(dp2935
g54
(dp2936
g74
g75
ssg63
g2930
sg56
(lp2937
g173
asbag49
(g70
g51
NtRp2938
(dp2939
g54
(dp2940
g81
g82
ssg63
g2930
sg56
(lp2941
S':'
asbag49
(g70
g51
NtRp2942
(dp2943
g54
(dp2944
sg63
g2930
sg56
(lp2945
g49
(g50
g51
NtRp2946
(dp2947
g54
(dp2948
g62
I5
ssg63
g2942
sg56
(lp2949
S'<cStringIO.StringO object at 0x06758EE0>'
p2950
asbasbasbag49
(g65
g51
NtRp2951
(dp2952
g54
(dp2953
sg63
g2926
sg56
(lp2954
g49
(g70
g51
NtRp2955
(dp2956
g54
(dp2957
g74
g75
ssg63
g2951
sg56
(lp2958
g239
asbag49
(g70
g51
NtRp2959
(dp2960
g54
(dp2961
g81
g82
ssg63
g2951
sg56
(lp2962
S':'
asbag49
(g70
g51
NtRp2963
(dp2964
g54
(dp2965
sg63
g2951
sg56
(lp2966
g49
(g50
g51
NtRp2967
(dp2968
g54
(dp2969
g62
I5
ssg63
g2963
sg56
(lp2970
g49
(g58
g51
NtRp2971
(dp2972
g54
(dp2973
g62
I4
ssg63
Nsg56
(lp2974
g49
(g65
g51
NtRp2975
(dp2976
g54
(dp2977
sg63
g2971
sg56
(lp2978
g49
(g70
g51
NtRp2979
(dp2980
g54
(dp2981
g74
g75
ssg63
g2975
sg56
(lp2982
S'session_id_webparley'
p2983
asbag49
(g70
g51
NtRp2984
(dp2985
g54
(dp2986
g81
g82
ssg63
g2975
sg56
(lp2987
S':'
asbag49
(g70
g51
NtRp2988
(dp2989
g54
(dp2990
sg63
g2975
sg56
(lp2991
g49
(g50
g51
NtRp2992
(dp2993
g54
(dp2994
g62
I4
ssg63
g2988
sg56
(lp2995
g49
(g58
g51
NtRp2996
(dp2997
g54
(dp2998
g62
I3
ssg63
Nsg56
(lp2999
g49
(g65
g51
NtRp3000
(dp3001
g54
(dp3002
sg63
g2996
sg56
(lp3003
g49
(g70
g51
NtRp3004
(dp3005
g54
(dp3006
g74
g75
ssg63
g3000
sg56
(lp3007
g289
asbag49
(g70
g51
NtRp3008
(dp3009
g54
(dp3010
g81
g82
ssg63
g3000
sg56
(lp3011
S':'
asbag49
(g70
g51
NtRp3012
(dp3013
g54
(dp3014
sg63
g3000
sg56
(lp3015
g49
(g50
g51
NtRp3016
(dp3017
g54
(dp3018
g62
I3
ssg63
g3012
sg56
(lp3019
S''
asbasbasbag49
(g65
g51
NtRp3020
(dp3021
g54
(dp3022
sg63
g2996
sg56
(lp3023
g49
(g70
g51
NtRp3024
(dp3025
g54
(dp3026
g74
g75
ssg63
g3020
sg56
(lp3027
g310
asbag49
(g70
g51
NtRp3028
(dp3029
g54
(dp3030
g81
g82
ssg63
g3020
sg56
(lp3031
S':'
asbag49
(g70
g51
NtRp3032
(dp3033
g54
(dp3034
sg63
g3020
sg56
(lp3035
g49
(g50
g51
NtRp3036
(dp3037
g54
(dp3038
g62
I3
ssg63
g3032
sg56
(lp3039
S''
asbasbasbag49
(g65
g51
NtRp3040
(dp3041
g54
(dp3042
sg63
g2996
sg56
(lp3043
g49
(g70
g51
NtRp3044
(dp3045
g54
(dp3046
g74
g75
ssg63
g3040
sg56
(lp3047
g331
asbag49
(g70
g51
NtRp3048
(dp3049
g54
(dp3050
g81
g82
ssg63
g3040
sg56
(lp3051
S':'
asbag49
(g70
g51
NtRp3052
(dp3053
g54
(dp3054
sg63
g3040
sg56
(lp3055
g49
(g50
g51
NtRp3056
(dp3057
g54
(dp3058
g62
I3
ssg63
g3052
sg56
(lp3059
S''
asbasbasbag49
(g65
g51
NtRp3060
(dp3061
g54
(dp3062
sg63
g2996
sg56
(lp3063
g49
(g70
g51
NtRp3064
(dp3065
g54
(dp3066
g74
g75
ssg63
g3060
sg56
(lp3067
g352
asbag49
(g70
g51
NtRp3068
(dp3069
g54
(dp3070
g81
g82
ssg63
g3060
sg56
(lp3071
S':'
asbag49
(g70
g51
NtRp3072
(dp3073
g54
(dp3074
sg63
g3060
sg56
(lp3075
g49
(g50
g51
NtRp3076
(dp3077
g54
(dp3078
g62
I3
ssg63
g3072
sg56
(lp3079
S''
asbasbasbag49
(g65
g51
NtRp3080
(dp3081
g54
(dp3082
sg63
g2996
sg56
(lp3083
g49
(g70
g51
NtRp3084
(dp3085
g54
(dp3086
g74
g75
ssg63
g3080
sg56
(lp3087
g373
asbag49
(g70
g51
NtRp3088
(dp3089
g54
(dp3090
g81
g82
ssg63
g3080
sg56
(lp3091
S':'
asbag49
(g70
g51
NtRp3092
(dp3093
g54
(dp3094
sg63
g3080
sg56
(lp3095
g49
(g50
g51
NtRp3096
(dp3097
g54
(dp3098
g62
I3
ssg63
g3092
sg56
(lp3099
S'/'
asbasbasbag49
(g65
g51
NtRp3100
(dp3101
g54
(dp3102
sg63
g2996
sg56
(lp3103
g49
(g70
g51
NtRp3104
(dp3105
g54
(dp3106
g74
g75
ssg63
g3100
sg56
(lp3107
g394
asbag49
(g70
g51
NtRp3108
(dp3109
g54
(dp3110
g81
g82
ssg63
g3100
sg56
(lp3111
S':'
asbag49
(g70
g51
NtRp3112
(dp3113
g54
(dp3114
sg63
g3100
sg56
(lp3115
g49
(g50
g51
NtRp3116
(dp3117
g54
(dp3118
g62
I3
ssg63
g3112
sg56
(lp3119
S''
asbasbasbag49
(g65
g51
NtRp3120
(dp3121
g54
(dp3122
sg63
g2996
sg56
(lp3123
g49
(g70
g51
NtRp3124
(dp3125
g54
(dp3126
g74
g75
ssg63
g3120
sg56
(lp3127
g415
asbag49
(g70
g51
NtRp3128
(dp3129
g54
(dp3130
g81
g82
ssg63
g3120
sg56
(lp3131
S':'
asbag49
(g70
g51
NtRp3132
(dp3133
g54
(dp3134
sg63
g3120
sg56
(lp3135
g49
(g50
g51
NtRp3136
(dp3137
g54
(dp3138
g62
I3
ssg63
g3132
sg56
(lp3139
S''
asbasbasbasbasbasbasbasbasbasbasbag49
(g65
g51
NtRp3140
(dp3141
g54
(dp3142
sg63
g2926
sg56
(lp3143
g49
(g70
g51
NtRp3144
(dp3145
g54
(dp3146
g74
g75
ssg63
g3140
sg56
(lp3147
S'delimiters'
p3148
asbag49
(g70
g51
NtRp3149
(dp3150
g54
(dp3151
g81
g82
ssg63
g3140
sg56
(lp3152
S':'
asbag49
(g70
g51
NtRp3153
(dp3154
g54
(dp3155
sg63
g3140
sg56
(lp3156
g49
(g50
g51
NtRp3157
(dp3158
g54
(dp3159
g62
I5
ssg63
g3153
sg56
(lp3160
g49
(g58
g51
NtRp3161
(dp3162
g54
(dp3163
g62
I4
ssg63
Nsg56
(lp3164
g49
(g65
g51
NtRp3165
(dp3166
g54
(dp3167
sg63
g3161
sg56
(lp3168
g49
(g70
g51
NtRp3169
(dp3170
g54
(dp3171
sg63
g3165
sg56
(lp3172
g49
(g50
g51
NtRp3173
(dp3174
g54
(dp3175
g62
I4
ssg63
g3169
sg56
(lp3176
S'{{'
p3177
asbasbasbag49
(g65
g51
NtRp3178
(dp3179
g54
(dp3180
sg63
g3161
sg56
(lp3181
g49
(g70
g51
NtRp3182
(dp3183
g54
(dp3184
sg63
g3178
sg56
(lp3185
g49
(g50
g51
NtRp3186
(dp3187
g54
(dp3188
g62
I4
ssg63
g3182
sg56
(lp3189
S'}}'
p3190
asbasbasbasbasbasbasbag49
(g65
g51
NtRp3191
(dp3192
g54
(dp3193
sg63
g2926
sg56
(lp3194
g49
(g70
g51
NtRp3195
(dp3196
g54
(dp3197
g74
g75
ssg63
g3191
sg56
(lp3198
S'files'
p3199
asbag49
(g70
g51
NtRp3200
(dp3201
g54
(dp3202
g81
g82
ssg63
g3191
sg56
(lp3203
S':'
asbag49
(g70
g51
NtRp3204
(dp3205
g54
(dp3206
sg63
g3191
sg56
(lp3207
g49
(g50
g51
NtRp3208
(dp3209
g54
(dp3210
g62
I5
ssg63
g3204
sg56
(lp3211
g49
(g58
g51
NtRp3212
(dp3213
g54
(dp3214
g62
I4
ssg63
Nsg56
(lp3215
sbasbasbasbag49
(g65
g51
NtRp3216
(dp3217
g54
(dp3218
sg63
g2926
sg56
(lp3219
g49
(g70
g51
NtRp3220
(dp3221
g54
(dp3222
g74
g75
ssg63
g3216
sg56
(lp3223
S'flash'
p3224
asbag49
(g70
g51
NtRp3225
(dp3226
g54
(dp3227
g81
g82
ssg63
g3216
sg56
(lp3228
S':'
asbag49
(g70
g51
NtRp3229
(dp3230
g54
(dp3231
sg63
g3216
sg56
(lp3232
g49
(g50
g51
NtRp3233
(dp3234
g54
(dp3235
g62
I5
ssg63
g3229
sg56
(lp3236
S''
asbasbasbag49
(g65
g51
NtRp3237
(dp3238
g54
(dp3239
sg63
g2926
sg56
(lp3240
g49
(g70
g51
NtRp3241
(dp3242
g54
(dp3243
g74
g75
ssg63
g3237
sg56
(lp3244
S'generic_patterns'
p3245
asbag49
(g70
g51
NtRp3246
(dp3247
g54
(dp3248
g81
g82
ssg63
g3237
sg56
(lp3249
S':'
asbag49
(g70
g51
NtRp3250
(dp3251
g54
(dp3252
sg63
g3237
sg56
(lp3253
g49
(g50
g51
NtRp3254
(dp3255
g54
(dp3256
g62
I5
ssg63
g3250
sg56
(lp3257
g49
(g58
g51
NtRp3258
(dp3259
g54
(dp3260
g62
I4
ssg63
Nsg56
(lp3261
g49
(g65
g51
NtRp3262
(dp3263
g54
(dp3264
sg63
g3258
sg56
(lp3265
g49
(g70
g51
NtRp3266
(dp3267
g54
(dp3268
sg63
g3262
sg56
(lp3269
g49
(g50
g51
NtRp3270
(dp3271
g54
(dp3272
g62
I4
ssg63
g3266
sg56
(lp3273
S'*'
asbasbasbasbasbasbasbag49
(g65
g51
NtRp3274
(dp3275
g54
(dp3276
sg63
g2926
sg56
(lp3277
g49
(g70
g51
NtRp3278
(dp3279
g54
(dp3280
g74
g75
ssg63
g3274
sg56
(lp3281
S'headers'
p3282
asbag49
(g70
g51
NtRp3283
(dp3284
g54
(dp3285
g81
g82
ssg63
g3274
sg56
(lp3286
S':'
asbag49
(g70
g51
NtRp3287
(dp3288
g54
(dp3289
sg63
g3274
sg56
(lp3290
g49
(g50
g51
NtRp3291
(dp3292
g54
(dp3293
g62
I5
ssg63
g3287
sg56
(lp3294
g49
(g58
g51
NtRp3295
(dp3296
g54
(dp3297
g62
I4
ssg63
Nsg56
(lp3298
g49
(g65
g51
NtRp3299
(dp3300
g54
(dp3301
sg63
g3295
sg56
(lp3302
g49
(g70
g51
NtRp3303
(dp3304
g54
(dp3305
g74
g75
ssg63
g3299
sg56
(lp3306
S'Cache-Control'
p3307
asbag49
(g70
g51
NtRp3308
(dp3309
g54
(dp3310
g81
g82
ssg63
g3299
sg56
(lp3311
S':'
asbag49
(g70
g51
NtRp3312
(dp3313
g54
(dp3314
sg63
g3299
sg56
(lp3315
g49
(g50
g51
NtRp3316
(dp3317
g54
(dp3318
g62
I4
ssg63
g3312
sg56
(lp3319
S'no-store, no-cache, must-revalidate, post-check=0, pre-check=0'
p3320
asbasbasbag49
(g65
g51
NtRp3321
(dp3322
g54
(dp3323
sg63
g3295
sg56
(lp3324
g49
(g70
g51
NtRp3325
(dp3326
g54
(dp3327
g74
g75
ssg63
g3321
sg56
(lp3328
S'Content-Type'
p3329
asbag49
(g70
g51
NtRp3330
(dp3331
g54
(dp3332
g81
g82
ssg63
g3321
sg56
(lp3333
S':'
asbag49
(g70
g51
NtRp3334
(dp3335
g54
(dp3336
sg63
g3321
sg56
(lp3337
g49
(g50
g51
NtRp3338
(dp3339
g54
(dp3340
g62
I4
ssg63
g3334
sg56
(lp3341
S'text/html; charset=utf-8'
p3342
asbasbasbag49
(g65
g51
NtRp3343
(dp3344
g54
(dp3345
sg63
g3295
sg56
(lp3346
g49
(g70
g51
NtRp3347
(dp3348
g54
(dp3349
g74
g75
ssg63
g3343
sg56
(lp3350
S'Expires'
p3351
asbag49
(g70
g51
NtRp3352
(dp3353
g54
(dp3354
g81
g82
ssg63
g3343
sg56
(lp3355
S':'
asbag49
(g70
g51
NtRp3356
(dp3357
g54
(dp3358
sg63
g3343
sg56
(lp3359
g49
(g50
g51
NtRp3360
(dp3361
g54
(dp3362
g62
I4
ssg63
g3356
sg56
(lp3363
S'Tue, 20 Mar 2012 23:12:46 GMT'
p3364
asbasbasbag49
(g65
g51
NtRp3365
(dp3366
g54
(dp3367
sg63
g3295
sg56
(lp3368
g49
(g70
g51
NtRp3369
(dp3370
g54
(dp3371
g74
g75
ssg63
g3365
sg56
(lp3372
S'Pragma'
p3373
asbag49
(g70
g51
NtRp3374
(dp3375
g54
(dp3376
g81
g82
ssg63
g3365
sg56
(lp3377
S':'
asbag49
(g70
g51
NtRp3378
(dp3379
g54
(dp3380
sg63
g3365
sg56
(lp3381
g49
(g50
g51
NtRp3382
(dp3383
g54
(dp3384
g62
I4
ssg63
g3378
sg56
(lp3385
S'no-cache'
p3386
asbasbasbag49
(g65
g51
NtRp3387
(dp3388
g54
(dp3389
sg63
g3295
sg56
(lp3390
g49
(g70
g51
NtRp3391
(dp3392
g54
(dp3393
g74
g75
ssg63
g3387
sg56
(lp3394
S'X-Powered-By'
p3395
asbag49
(g70
g51
NtRp3396
(dp3397
g54
(dp3398
g81
g82
ssg63
g3387
sg56
(lp3399
S':'
asbag49
(g70
g51
NtRp3400
(dp3401
g54
(dp3402
sg63
g3387
sg56
(lp3403
g49
(g50
g51
NtRp3404
(dp3405
g54
(dp3406
g62
I4
ssg63
g3400
sg56
(lp3407
S'web2py'
p3408
asbasbasbasbasbasbasbag49
(g65
g51
NtRp3409
(dp3410
g54
(dp3411
sg63
g2926
sg56
(lp3412
g49
(g70
g51
NtRp3413
(dp3414
g54
(dp3415
g74
g75
ssg63
g3409
sg56
(lp3416
S'menu'
p3417
asbag49
(g70
g51
NtRp3418
(dp3419
g54
(dp3420
g81
g82
ssg63
g3409
sg56
(lp3421
S':'
asbag49
(g70
g51
NtRp3422
(dp3423
g54
(dp3424
sg63
g3409
sg56
(lp3425
g49
(g50
g51
NtRp3426
(dp3427
g54
(dp3428
g62
I5
ssg63
g3422
sg56
(lp3429
g49
(g58
g51
NtRp3430
(dp3431
g54
(dp3432
g62
I4
ssg63
Nsg56
(lp3433
sbasbasbasbag49
(g65
g51
NtRp3434
(dp3435
g54
(dp3436
sg63
g2926
sg56
(lp3437
g49
(g70
g51
NtRp3438
(dp3439
g54
(dp3440
g74
g75
ssg63
g3434
sg56
(lp3441
S'meta'
p3442
asbag49
(g70
g51
NtRp3443
(dp3444
g54
(dp3445
g81
g82
ssg63
g3434
sg56
(lp3446
S':'
asbag49
(g70
g51
NtRp3447
(dp3448
g54
(dp3449
sg63
g3434
sg56
(lp3450
g49
(g50
g51
NtRp3451
(dp3452
g54
(dp3453
g62
I5
ssg63
g3447
sg56
(lp3454
g49
(g58
g51
NtRp3455
(dp3456
g54
(dp3457
g62
I4
ssg63
Nsg56
(lp3458
sbasbasbasbag49
(g65
g51
NtRp3459
(dp3460
g54
(dp3461
sg63
g2926
sg56
(lp3462
g49
(g70
g51
NtRp3463
(dp3464
g54
(dp3465
g74
g75
ssg63
g3459
sg56
(lp3466
S'postprocessing'
p3467
asbag49
(g70
g51
NtRp3468
(dp3469
g54
(dp3470
g81
g82
ssg63
g3459
sg56
(lp3471
S':'
asbag49
(g70
g51
NtRp3472
(dp3473
g54
(dp3474
sg63
g3459
sg56
(lp3475
g49
(g50
g51
NtRp3476
(dp3477
g54
(dp3478
g62
I5
ssg63
g3472
sg56
(lp3479
g49
(g58
g51
NtRp3480
(dp3481
g54
(dp3482
g62
I4
ssg63
Nsg56
(lp3483
sbasbasbasbag49
(g65
g51
NtRp3484
(dp3485
g54
(dp3486
sg63
g2926
sg56
(lp3487
g49
(g70
g51
NtRp3488
(dp3489
g54
(dp3490
g74
g75
ssg63
g3484
sg56
(lp3491
S'session_file'
p3492
asbag49
(g70
g51
NtRp3493
(dp3494
g54
(dp3495
g81
g82
ssg63
g3484
sg56
(lp3496
S':'
asbag49
(g70
g51
NtRp3497
(dp3498
g54
(dp3499
sg63
g3484
sg56
(lp3500
g49
(g50
g51
NtRp3501
(dp3502
g54
(dp3503
g62
I5
ssg63
g3497
sg56
(lp3504
S"<open file 'D:\\Dise\xf1o Web\\Proyectos\\Parleyweb\\web2py\\applications\\webparley\\sessions\\127.0.0.1-a9f7f88d-d8a4-49c6-b6ff-46adf43325c3', mode 'rb+' at 0x06229C80>"
p3505
asbasbasbag49
(g65
g51
NtRp3506
(dp3507
g54
(dp3508
sg63
g2926
sg56
(lp3509
g49
(g70
g51
NtRp3510
(dp3511
g54
(dp3512
g74
g75
ssg63
g3506
sg56
(lp3513
S'session_filename'
p3514
asbag49
(g70
g51
NtRp3515
(dp3516
g54
(dp3517
g81
g82
ssg63
g3506
sg56
(lp3518
S':'
asbag49
(g70
g51
NtRp3519
(dp3520
g54
(dp3521
sg63
g3506
sg56
(lp3522
g49
(g50
g51
NtRp3523
(dp3524
g54
(dp3525
g62
I5
ssg63
g3519
sg56
(lp3526
S'D:\\Dise\xf1o Web\\Proyectos\\Parleyweb\\web2py\\applications\\webparley\\sessions\\127.0.0.1-a9f7f88d-d8a4-49c6-b6ff-46adf43325c3'
p3527
asbasbasbag49
(g65
g51
NtRp3528
(dp3529
g54
(dp3530
sg63
g2926
sg56
(lp3531
g49
(g70
g51
NtRp3532
(dp3533
g54
(dp3534
g74
g75
ssg63
g3528
sg56
(lp3535
S'session_id'
p3536
asbag49
(g70
g51
NtRp3537
(dp3538
g54
(dp3539
g81
g82
ssg63
g3528
sg56
(lp3540
S':'
asbag49
(g70
g51
NtRp3541
(dp3542
g54
(dp3543
sg63
g3528
sg56
(lp3544
g49
(g50
g51
NtRp3545
(dp3546
g54
(dp3547
g62
I5
ssg63
g3541
sg56
(lp3548
S'127.0.0.1-a9f7f88d-d8a4-49c6-b6ff-46adf43325c3'
p3549
asbasbasbag49
(g65
g51
NtRp3550
(dp3551
g54
(dp3552
sg63
g2926
sg56
(lp3553
g49
(g70
g51
NtRp3554
(dp3555
g54
(dp3556
g74
g75
ssg63
g3550
sg56
(lp3557
S'session_id_name'
p3558
asbag49
(g70
g51
NtRp3559
(dp3560
g54
(dp3561
g81
g82
ssg63
g3550
sg56
(lp3562
S':'
asbag49
(g70
g51
NtRp3563
(dp3564
g54
(dp3565
sg63
g3550
sg56
(lp3566
g49
(g50
g51
NtRp3567
(dp3568
g54
(dp3569
g62
I5
ssg63
g3563
sg56
(lp3570
g2983
asbasbasbag49
(g65
g51
NtRp3571
(dp3572
g54
(dp3573
sg63
g2926
sg56
(lp3574
g49
(g70
g51
NtRp3575
(dp3576
g54
(dp3577
g74
g75
ssg63
g3571
sg56
(lp3578
S'session_locked'
p3579
asbag49
(g70
g51
NtRp3580
(dp3581
g54
(dp3582
g81
g82
ssg63
g3571
sg56
(lp3583
S':'
asbag49
(g70
g51
NtRp3584
(dp3585
g54
(dp3586
sg63
g3571
sg56
(lp3587
g49
(g50
g51
NtRp3588
(dp3589
g54
(dp3590
g62
I5
ssg63
g3584
sg56
(lp3591
g1491
asbasbasbag49
(g65
g51
NtRp3592
(dp3593
g54
(dp3594
sg63
g2926
sg56
(lp3595
g49
(g70
g51
NtRp3596
(dp3597
g54
(dp3598
g74
g75
ssg63
g3592
sg56
(lp3599
S'session_new'
p3600
asbag49
(g70
g51
NtRp3601
(dp3602
g54
(dp3603
g81
g82
ssg63
g3592
sg56
(lp3604
S':'
asbag49
(g70
g51
NtRp3605
(dp3606
g54
(dp3607
sg63
g3592
sg56
(lp3608
g49
(g50
g51
NtRp3609
(dp3610
g54
(dp3611
g62
I5
ssg63
g3605
sg56
(lp3612
g92
asbasbasbag49
(g65
g51
NtRp3613
(dp3614
g54
(dp3615
sg63
g2926
sg56
(lp3616
g49
(g70
g51
NtRp3617
(dp3618
g54
(dp3619
g74
g75
ssg63
g3613
sg56
(lp3620
S'status'
p3621
asbag49
(g70
g51
NtRp3622
(dp3623
g54
(dp3624
g81
g82
ssg63
g3613
sg56
(lp3625
S':'
asbag49
(g70
g51
NtRp3626
(dp3627
g54
(dp3628
sg63
g3613
sg56
(lp3629
g49
(g50
g51
NtRp3630
(dp3631
g54
(dp3632
g62
I5
ssg63
g3626
sg56
(lp3633
S'200'
p3634
asbasbasbag49
(g65
g51
NtRp3635
(dp3636
g54
(dp3637
sg63
g2926
sg56
(lp3638
g49
(g70
g51
NtRp3639
(dp3640
g54
(dp3641
g74
g75
ssg63
g3635
sg56
(lp3642
g2177
asbag49
(g70
g51
NtRp3643
(dp3644
g54
(dp3645
g81
g82
ssg63
g3635
sg56
(lp3646
S':'
asbag49
(g70
g51
NtRp3647
(dp3648
g54
(dp3649
sg63
g3635
sg56
(lp3650
g49
(g50
g51
NtRp3651
(dp3652
g54
(dp3653
g62
I5
ssg63
g3647
sg56
(lp3654
g2190
asbasbasbag49
(g65
g51
NtRp3655
(dp3656
g54
(dp3657
sg63
g2926
sg56
(lp3658
g49
(g70
g51
NtRp3659
(dp3660
g54
(dp3661
g74
g75
ssg63
g3655
sg56
(lp3662
S'view'
p3663
asbag49
(g70
g51
NtRp3664
(dp3665
g54
(dp3666
g81
g82
ssg63
g3655
sg56
(lp3667
S':'
asbag49
(g70
g51
NtRp3668
(dp3669
g54
(dp3670
sg63
g3655
sg56
(lp3671
g49
(g50
g51
NtRp3672
(dp3673
g54
(dp3674
g62
I5
ssg63
g3668
sg56
(lp3675
S'appadmin/insert.html'
p3676
asbasbasbasbasbsS'locals'
p3677
(dp3678
S'Service'
p3679
S"<class 'gluon.tools.Service'>"
p3680
sS'OBJECT'
p3681
S"<class 'gluon.html.OBJECT'>"
p3682
sS'SQLDB'
p3683
S"<class 'gluon.dal.DAL'>"
p3684
sg2886
S"<Storage {'_formkey[palabras/create]': 'dc37362d...reate]': '6b29c30f-eaeb-4a6d-8e00-7277dd117712'}>"
p3685
sS'LINK'
p3686
S"<class 'gluon.html.LINK'>"
p3687
sS'BR'
p3688
S"<class 'gluon.html.BR'>"
p3689
sS'local_import'
p3690
S'<function <lambda> at 0x05E4FC30>'
p3691
sS'OPTGROUP'
p3692
S"<class 'gluon.html.OPTGROUP'>"
p3693
sS'PRE'
p3694
S"<class 'gluon.html.PRE'>"
p3695
sS'IS_INT_IN_RANGE'
p3696
S"<class 'gluon.validators.IS_INT_IN_RANGE'>"
p3697
sS'IS_LOWER'
p3698
S"<class 'gluon.validators.IS_LOWER'>"
p3699
sS'IS_STRONG'
p3700
S"<class 'gluon.validators.IS_STRONG'>"
p3701
sS'cache'
p3702
S'<gluon.cache.Cache object at 0x06758270>'
p3703
sS'IS_IN_DB'
p3704
S"<class 'gluon.validators.IS_IN_DB'>"
p3705
sS'TAG'
p3706
S'<gluon.html.__TAG__ object at 0x02411D90>'
p3707
sS'SQLField'
p3708
S"<class 'gluon.dal.Field'>"
p3709
sS'mail'
p3710
S'<gluon.tools.Mail object at 0x06758BD0>'
p3711
sS'BODY'
p3712
S"<class 'gluon.html.BODY'>"
p3713
sS'IS_DATE_IN_RANGE'
p3714
S"<class 'gluon.validators.IS_DATE_IN_RANGE'>"
p3715
sS'IFRAME'
p3716
S"<class 'gluon.html.IFRAME'>"
p3717
sS'URL'
p3718
S'<function URL at 0x02477EB0>'
p3719
sS'__file__'
p3720
S"'D:\\\\Dise\\xf1o Web\\\\Proyectos\\\\Parleyweb\\\\web2py\\\\applications\\\\webparley\\\\models\\\\db.py'"
p3721
sS'db'
p3722
S"<DAL {'auth_event': <Table {'origin': <gluon.dal..._key': <gluon.dal.Field object at 0x06758A70>}>}>"
p3723
sS'auth'
p3724
S'<gluon.tools.Auth object at 0x06758B30>'
p3725
sS'P'
S"<class 'gluon.html.P'>"
p3726
sS'TFOOT'
p3727
S"<class 'gluon.html.TFOOT'>"
p3728
sS'XHTML'
p3729
S"<class 'gluon.html.XHTML'>"
p3730
sS'ON'
p3731
g1491
sS'OL'
p3732
S"<class 'gluon.html.OL'>"
p3733
sS'TEXTAREA'
p3734
S"<class 'gluon.html.TEXTAREA'>"
p3735
sS'MENU'
p3736
S"<class 'gluon.html.MENU'>"
p3737
sS'EM'
p3738
S"<class 'gluon.html.EM'>"
p3739
sS'CODE'
p3740
S"<class 'gluon.html.CODE'>"
p3741
sS'HTTP'
p3742
S"<class 'gluon.http.HTTP'>"
p3743
sS'HR'
p3744
S"<class 'gluon.html.HR'>"
p3745
sS'IS_DATETIME'
p3746
S"<class 'gluon.validators.IS_DATETIME'>"
p3747
sS'STYLE'
p3748
S"<class 'gluon.html.STYLE'>"
p3749
sS'LABEL'
p3750
S"<class 'gluon.html.LABEL'>"
p3751
sS'META'
p3752
S"<class 'gluon.html.META'>"
p3753
sS'plugins'
p3754
S'<gluon.tools.PluginManager object at 0x0693E490>'
p3755
sS'SELECT'
p3756
S"<class 'gluon.html.SELECT'>"
p3757
sS'use_janrain'
p3758
S'<function use_janrain at 0x0301E9B0>'
p3759
sS'CENTER'
p3760
S"<class 'gluon.html.CENTER'>"
p3761
sS'prettydate'
p3762
S'<function prettydate at 0x0301BFB0>'
p3763
sS'Crud'
p3764
S"<class 'gluon.tools.Crud'>"
p3765
sS'Auth'
p3766
S"<class 'gluon.tools.Auth'>"
p3767
sS'__builtins__'
p3768
S"{'ArithmeticError': <type 'exceptions.ArithmeticError'>, 'AssertionError': <type 'exceptions.AssertionError'>, 'AttributeError': <type 'exceptions.AttributeError'>, 'BaseException': <type 'exceptions.BaseException'>, 'DeprecationWarning': <type 'exceptions.DeprecationWarning'>, 'EOFError': <type 'exceptions.EOFError'>, 'Ellipsis': Ellipsis, 'EnvironmentError': <type 'exceptions.EnvironmentError'>, 'Exception': <type 'exceptions.Exception'>, 'False': False, ...}"
p3769
sS'HTML'
p3770
S"<class 'gluon.html.HTML'>"
p3771
sS'SQLFORM'
p3772
S"<class 'gluon.sqlhtml.SQLFORM'>"
p3773
sS'LOAD'
p3774
S'<function LOAD at 0x026EE7B0>'
p3775
sS'redirect'
p3776
S'<function redirect at 0x02229B70>'
p3777
sS'FIELDSET'
p3778
S"<class 'gluon.html.FIELDSET'>"
p3779
sS'IS_EQUAL_TO'
p3780
S"<class 'gluon.validators.IS_EQUAL_TO'>"
p3781
sS'embed64'
p3782
S'<function embed64 at 0x024869F0>'
p3783
sS'IS_LIST_OF'
p3784
S"<class 'gluon.validators.IS_LIST_OF'>"
p3785
sS'INPUT'
p3786
S"<class 'gluon.html.INPUT'>"
p3787
sS'EMBED'
p3788
S"<class 'gluon.html.EMBED'>"
p3789
sS'FORM'
p3790
S"<class 'gluon.html.FORM'>"
p3791
sS'H2'
p3792
S"<class 'gluon.html.H2'>"
p3793
sS'H3'
p3794
S"<class 'gluon.html.H3'>"
p3795
sS'BUTTON'
p3796
S"<class 'gluon.html.BUTTON'>"
p3797
sS'H1'
p3798
S"<class 'gluon.html.H1'>"
p3799
sS'H6'
p3800
S"<class 'gluon.html.H6'>"
p3801
sS'H4'
p3802
S"<class 'gluon.html.H4'>"
p3803
sS'H5'
p3804
S"<class 'gluon.html.H5'>"
p3805
sS'UL'
p3806
S"<class 'gluon.html.UL'>"
p3807
sS'IS_UPPER'
p3808
S"<class 'gluon.validators.IS_UPPER'>"
p3809
sS'xmlescape'
p3810
S'<function xmlescape at 0x02477E30>'
p3811
sS'IS_TIME'
p3812
S"<class 'gluon.validators.IS_TIME'>"
p3813
sS'OPTION'
p3814
S"<class 'gluon.html.OPTION'>"
p3815
sS'TITLE'
p3816
S"<class 'gluon.html.TITLE'>"
p3817
sS'CRYPT'
p3818
S"<class 'gluon.validators.CRYPT'>"
p3819
sS'IS_EMPTY_OR'
p3820
S"<class 'gluon.validators.IS_EMPTY_OR'>"
p3821
sS'MARKMIN'
p3822
S"<class 'gluon.html.MARKMIN'>"
p3823
sS'__name__'
p3824
S"'__restricted__'"
p3825
sS'COL'
p3826
S"<class 'gluon.html.COL'>"
p3827
sS'service'
p3828
S'<gluon.tools.Service object at 0x06758190>'
p3829
sS'SCRIPT'
p3830
S"<class 'gluon.html.SCRIPT'>"
p3831
sS'TABLE'
p3832
S"<class 'gluon.html.TABLE'>"
p3833
sS'IS_IPV4'
p3834
S"<class 'gluon.validators.IS_IPV4'>"
p3835
sS'IS_LENGTH'
p3836
S"<class 'gluon.validators.IS_LENGTH'>"
p3837
sS'XML'
p3838
S"<class 'gluon.html.XML'>"
p3839
sS'B'
S"<class 'gluon.html.B'>"
p3840
sS'IMG'
p3841
S"<class 'gluon.html.IMG'>"
p3842
sS'SQLTABLE'
p3843
S"<class 'gluon.sqlhtml.SQLTABLE'>"
p3844
sS'IS_MATCH'
p3845
S"<class 'gluon.validators.IS_MATCH'>"
p3846
sS'IS_ALPHANUMERIC'
p3847
S"<class 'gluon.validators.IS_ALPHANUMERIC'>"
p3848
sS'SPAN'
p3849
S"<class 'gluon.html.SPAN'>"
p3850
sS'IS_SLUG'
p3851
S"<class 'gluon.validators.IS_SLUG'>"
p3852
sS'CLEANUP'
p3853
S"<class 'gluon.validators.CLEANUP'>"
p3854
sS'IS_DATE'
p3855
S"<class 'gluon.validators.IS_DATE'>"
p3856
sS'IS_EMAIL'
p3857
S"<class 'gluon.validators.IS_EMAIL'>"
p3858
sS'IS_NOT_EMPTY'
p3859
S"<class 'gluon.validators.IS_NOT_EMPTY'>"
p3860
sS'IS_FLOAT_IN_RANGE'
p3861
S"<class 'gluon.validators.IS_FLOAT_IN_RANGE'>"
p3862
sS'BEAUTIFY'
p3863
S"<class 'gluon.html.BEAUTIFY'>"
p3864
sS'TBODY'
p3865
S"<class 'gluon.html.TBODY'>"
p3866
sS'CAT'
p3867
S"<class 'gluon.html.CAT'>"
p3868
sS'Field'
p3869
S"<class 'gluon.dal.Field'>"
p3870
sS'DIV'
p3871
S"<class 'gluon.html.DIV'>"
p3872
sS'LEGEND'
p3873
S"<class 'gluon.html.LEGEND'>"
p3874
sS'COLGROUP'
p3875
S"<class 'gluon.html.COLGROUP'>"
p3876
sS'DAL'
p3877
S"<class 'gluon.dal.DAL'>"
p3878
sS'TT'
p3879
S"<class 'gluon.html.TT'>"
p3880
sS'TR'
p3881
S"<class 'gluon.html.TR'>"
p3882
sS'LI'
p3883
S"<class 'gluon.html.LI'>"
p3884
sS'TH'
p3885
S"<class 'gluon.html.TH'>"
p3886
sS'TD'
p3887
S"<class 'gluon.html.TD'>"
p3888
sS'PluginManager'
p3889
S"<class 'gluon.tools.PluginManager'>"
p3890
sS'IS_URL'
p3891
S"<class 'gluon.validators.IS_URL'>"
p3892
sS'A'
S"<class 'gluon.html.A'>"
p3893
sS'HEAD'
p3894
S"<class 'gluon.html.HEAD'>"
p3895
sS'IS_DATETIME_IN_RANGE'
p3896
S"<class 'gluon.validators.IS_DATETIME_IN_RANGE'>"
p3897
sS'IS_IMAGE'
p3898
S"<class 'gluon.validators.IS_IMAGE'>"
p3899
sS'I'
S"<class 'gluon.html.I'>"
p3900
sS'crud'
p3901
S'<gluon.tools.Crud object at 0x067589F0>'
p3902
sS'IS_NOT_IN_DB'
p3903
S"<class 'gluon.validators.IS_NOT_IN_DB'>"
p3904
sg2921
S"<Storage {'status': 200, 'body': <cStringIO.Stri...0>, 'files': [], 'view': 'appadmin/insert.html'}>"
p3905
sS'THEAD'
p3906
S"<class 'gluon.html.THEAD'>"
p3907
sS'IS_NULL_OR'
p3908
S"<class 'gluon.validators.IS_EMPTY_OR'>"
p3909
sg48
S"<Storage {'body': <cStringIO.StringO object at 0..._vars': <Storage {}>, 'post_vars': <Storage {}>}>"
p3910
sS'IS_EXPR'
p3911
S"<class 'gluon.validators.IS_EXPR'>"
p3912
sS'IS_IN_SET'
p3913
S"<class 'gluon.validators.IS_IN_SET'>"
p3914
sS'IS_UPLOAD_FILENAME'
p3915
S"<class 'gluon.validators.IS_UPLOAD_FILENAME'>"
p3916
sS'IS_DECIMAL_IN_RANGE'
p3917
S"<class 'gluon.validators.IS_DECIMAL_IN_RANGE'>"
p3918
sS'T'
S'<gluon.languages.translator object at 0x06758A10>'
p3919
sssS'traceback'
p3920
S'Traceback (most recent call last):\n  File "gluon/restricted.py", line 205, in restricted\n  File "D:\\Dise\xf1o Web\\Proyectos\\Parleyweb\\web2py\\applications\\webparley\\models\\db.py", line 89, in <module>\nNameError: name \'date\' is not defined\n'
p3921
s.