(dp1
S'output'
p2
S"<type 'exceptions.AttributeError'> 'NoneType' object has no attribute 'palabra'"
p3
sS'layer'
p4
S'D:\\Dise\xf1o Web\\Proyectos\\Parleyweb\\web2py\\applications\\parleyweb\\controllers/admin.py'
p5
sS'code'
p6
S'# coding: utf8\n# intente algo como\ndef index():\n    """\n    Pagina principal de la administracion \n    """\n    form = SQLFORM(db.busqueda, formstyle=\'divs\', _id="buscar_palabra_admin", submit_button=\'Enviar\')\n    if form.accepts(request.vars, session, dbio=False): # metodo para validar las entradas del formulario, dbio=False no guarda en la bases de datos\n        a = db(db.palabras.palabra==request.post_vars.buscar_palabra).select()\n        if not a:\n            session.flash = \'Ingresa nueva palabra\'\n            redirect(URL(\'agregar_palabra\', args=request.post_vars.buscar_palabra))\n            \n        else:\n            response.flash = \'Palabra encontrada\'\n        #if not request.post_vars.buscar_palabra:\n        #response.flash = \'Palabra no encontrada\'\n    #id_palabra = request.vars.buscar_palabra # el id de la palabra cuando se envia el formulario #borrar\n    #palabra_ejemplo = db(db.palabras.id==id_palabra).select(db.palabras.palabra).first()         #borrar\n    ejemplos = db((db.palabras.id==db.palabra_ejemplo.palabra)&(db.ejemplos.id==db.palabra_ejemplo.ejemplo)) # asi se igualan las tablas para las relaciones muchos a muchos\n    return dict(form=form, ejemplos=ejemplos) # llama a la vista con el nombre de la funcion las variables\n        \ndef agregar_palabra():\n    """\n    Se agregan  palabras y se muestran los ultimos 10 registros insertados con los cuales\n    se pueden hacer distintas operaciones\n    """\n    if request.raw_args:\n        db.palabras.palabra.default = request.raw_args\n    db.palabras.palabra.requires = IS_NOT_IN_DB(db,\'palabras.palabra\') # Validacion para  la palabra que se inserte no puede estar ya en la DB\n    agregar = SQLFORM(db.palabras, formstyle="divs", _id="form-agregar", submit_button="Enviar" , _autocomplete="off") # se genera el formulario para la tabla palabras\n    if agregar.accepts(request.vars, session): #metodo para validar las entradas del formulario\n       redirect(URL(\'buscar_ejemplos\', args_raw=request.post_var.palabra))\n       #response.flash = \'Registro insertado\' # mensajes del sistema\n    elif agregar.errors:  # Metodo usado para cuando se producen errores\n       response.flash = \'Hay un error\'\n    contador_ejemplo = db().select(db.palabra_ejemplo.ALL) # selecionar todos los registro de la tabla palabra_ejemplo para luego contarlos\n    consulta = db().select(db.palabras.ALL, orderby=~db.palabras.id , limitby=(0,9)) # muestra los 10 ultimos registros insertados\n    contador = db(db.palabras.id > 0).count() # cuenta cuantos registros hay en la DB\n    return dict(agregar=agregar, consulta=consulta, contador=contador, contador_ejemplo=contador_ejemplo)\n    \ndef buscar_ejemplos():\n    return dict()\n\ndef agregar_ejemplo():\n    """\n    Se agregan los ejemplos y se muestran los ultimos 10 registros insertados con los cuales\n    se pueden hacer distintas operaciones\n    """\n    agregar_ejemplo = SQLFORM(db.ejemplos, formstyle="divs", _id="form-ejemplo", labels={\'ejemplo_de\':\'\', \'ejemplo_es\':\'\'} )\n    if agregar_ejemplo.accepts(request.vars, session):\n        response.flash = \'Ejemplo agregado\'\n        redirect(URL(\'agregar_ejemplo\'))\n    elif agregar_ejemplo.errors:\n        response.flash="Hay algun error"\n    nombre_fuente = db().select(db.fuentes.ALL)\n    contador_palabra = db().select(db.palabra_ejemplo.ALL) # selecionar todos los registro de la tabla palabra_ejemplo para luego contarlos\n    consulta_ejemplos = db().select(db.ejemplos.ALL, orderby=~db.ejemplos.id, limitby=(0,9)) # muestra los 10 ultimos registros insertados\n    contador2 = db(db.ejemplos.id > 0).count() # cuenta cuantos registros hay en la DB\n    ejemplos = db((db.palabras.id==db.palabra_ejemplo.palabra)&(db.ejemplos.id==db.palabra_ejemplo.ejemplo))\n    #palabras = db(db.palabra_ejemplo.palabra==db.palabras.id)\n    return dict(ejemplos=ejemplos, consulta_ejemplos=consulta_ejemplos, agregar_ejemplo=agregar_ejemplo, contador2=contador2, contador_palabra=contador_palabra, nombre_fuente=nombre_fuente)\ndef agregar_fuente():\n    agregar_fuente = SQLFORM(db.fuentes, formstyle="divs", _id="form-fuentes" )\n    if agregar_fuente.accepts(request.vars, session):\n       response.flash = \'Fuente insertado\'\n    elif agregar_fuente.errors:\n       response.flash = \'Hay un error\'\n    consulta = db().select(db.fuentes.ALL, orderby=~db.fuentes.id , limitby=(0,9)) # muestra los 10 ultimos registros insertados\n    contador = db(db.fuentes.id > 0).count() # cuenta cuantos registros hay en la DB\n    return dict(agregar_fuente=agregar_fuente, consulta=consulta, contador=contador)\n    \ndef agregar_glosario():\n    agregar_glosario = SQLFORM(db.glosario, formstyle="divs", _id="form-glsoario" )\n    if agregar_glosario.accepts(request.vars, session):\n       response.flash = \'Fuente insertado\'\n    elif agregar_glosario.errors:\n       response.flash = \'Hay un error\'\n    consulta = db().select(db.glosario.ALL, orderby=~db.glosario.id , limitby=(0,9)) # muestra los 10 ultimos registros insertados\n    contador = db(db.glosario.id > 0).count() # cuenta cuantos registros hay en la DB\n    return dict(agregar_glosario=agregar_glosario, consulta=consulta, contador=contador)\n    \ndef agregar_palabra_grid():\n    """\n    El grid propocionado por web2py, utilizado para administracion\n    """\n    agregar = SQLFORM.grid(db.worte, _class="table margin-top table-striped")\n    return dict(agregar=agregar)\n\ndef borrar_palabra():# \n    """\n    simplemente carga la vista para ejecutar el Modal\n    """\n    return dict()\n\ndef borrar_palabra2():\n    """\n    Es la accion que borra la palabra y redirecciona al index de admin\n    """\n    db(db.palabras.id == request.raw_args).delete() # borra la palabra de la DB\n    session.flash=\'Registro borrado\' # se usa cuando se redirecciona a otra, y se quiere mostrar el mensaje del sistema\n    redirect(URL(\'agregar_palabra\'))\n \ndef borrar_ejemplo(): \n    """\n    simplemente carga la vista para ejecutar el Modal\n    """\n    return dict()\n\ndef borrar_ejemplo2():\n    """\n    realiza la accion de borrar y redirecciona\n    """\n    db(db.ejemplos.id == request.args(0)).delete() # borra la palabra de la DB\n    session.flash=\'Ejemplo borrado\'\n    redirect(URL(\'agregar_ejemplo\'))\n    \ndef borrar_fuente():# \n    """\n    simplemente carga la vista para ejecutar el Modal\n    """\n    return dict()\n    \ndef borrar_fuente2():\n    """\n    realiza la accion de borrar y redirecciona\n    """\n    db(db.fuentes.id == request.args(0)).delete() # borra la palabra de la DB\n    session.flash=\'Fuente borrada\'\n    redirect(URL(\'agregar_fuente\'))\n\ndef editar_palabra():\n    """\n    Se carga el formulario para editar el registro\n    """\n    record = db.palabras(request.args(0)) # Seleciona el registro de la DB con el primer argumentro pasado\n    form = SQLFORM(db.palabras, record, formstyle=\'divs\', _class=\'form-inline wellparley\', _id=\'form-editar\') # formulario para actualizar hay que pasarle el registro que se quiere actualizar\n    if form.accepts(request.vars, session):\n       session.flash=\'Palabra editada\' \n       redirect(URL(\'agregar_palabra\'))\n    elif form.errors:\n     response.flash = \'El formulario tiene errores\'\n    return dict(form=form)\n    \n\n    \ndef editar_ejemplo():\n    """\n    carga el formulario para la edicion de el ejemplo, valida y redirecciona\n    """\n    record = db.ejemplos(request.args(0)) # Seleciona el registro de la DB con el primer argumentro pasado\n    form = SQLFORM(db.ejemplos, record, formstyle=\'divs\', _class=\'form-inline wellparley\', _id=\'form-editar-ejemplo\')\n    if form.accepts(request.vars):\n       session.flash=\'Ejemplo editado\' \n       redirect(URL(\'agregar_ejemplo\'))\n    elif form.errors:\n       response.flash = \'El formulario tiene errores\'\n    return dict(form=form)\n    \ndef editar_fuente():\n    """\n    carga el formulario para la edicion de el ejemplo, valida y redirecciona\n    """\n    record = db.fuentes(request.args(0)) # Seleciona el registro de la DB con el primer argumentro pasado\n    form = SQLFORM(db.fuentes, record, formstyle=\'divs\', _class=\'form-inline wellparley\', _id=\'form-editar-fuente\')\n    if form.accepts(request.vars):\n       session.flash=\'Fuente editada\' \n       redirect(URL(\'agregar_fuente\'))\n    elif form.errors:\n       response.flash = \'form has errors\'\n    return dict(form=form)\n    \ndef relacionar_ejemplo():\n    """\n    Recibe el id de la palabra para guardarlo en\n    DB junto al ejemplo a relacionar, quiere decir que tengo que cargar el un formulario\n    con los campos de la tabla ejemplo, meter las id en variables y luego guardarlas en las tablas\n    correspondiente\n    """\n    id_palabra = request.args(0) # Mete en una variable el valor de request.args(0), no es necesario\n    palabra = db(db.palabras.id==id_palabra).select().first() # selecciona el primer registro que se igual al id de la palabra\n    form = SQLFORM(db.ejemplos, labels={\'ejemplo_de\':\'\', \'ejemplo_es\':\'\'}) # para ingresar en la db debe tener el metodo form.accepts\n    if form.accepts(request.vars, session):\n        id_ejemplo = db(db.ejemplos.ejemplo_de==request.vars.ejemplo_de).select().first() # mete la consulta en una variable\n        db.palabra_ejemplo.insert(palabra=id_palabra, ejemplo=id_ejemplo.id) # inserta en la DB los id de los registro selecionados, estos es para las relaciones muchos a muschos\n        session.flash = \'Ejemplo Relacionado\'\n        redirect(URL(\'agregar_palabra\'))\n    elif form.errors:\n        response.flash = \'Mira otra vez\'\n    return dict(palabra=palabra, form=form,)\n    \ndef relacionar_palabra(): #Redisenar \n    """\n    Recibe el id de el ejemplo para guardarlo en\n    DB junto a la palabra a relacionar, quiere decir que tengo que cargar el un formulario\n    con los campos de la tabla palabra, meter las id en variables y luego guardarlas en las tablas\n    correspondiente *********importante cuando se relacione la palabra hay que traer todos los campos de ingresar palabra cuando la palabra no se encuentra en DB\n    *********** redisenar no sirve este codigo\n    """\n    id_ejemplo = request.args(0)\n    #form=FORM(\'Palabra:\',\n              #INPUT(_name=\'palabra\', requires=IS_NOT_EMPTY()),\n              #INPUT(_type=\'submit\'))\n    ejemplo = db(db.ejemplos.id==id_ejemplo).select().first()\n    form = SQLFORM(db.autocompletar_palabra, _autocomplete="off")\n    if form.accepts(request.vars, session, dbio=False):\n        consulta = db(db.palabras.palabra==request.vars.palabra).select().first() # se busca si la palabra ya esta en la DB\n        #igualar = db((db.palabras.id==db.palabra_ejemplo.palabra)&(db.ejemplos.id==db.palabra_ejemplo.ejemplo))\n        #selecionar = igualar(db.palabras.palabra==request.vars.palabra).select(db.palabra_ejemplo.ALL)\n        #consulta = selecionar\n        if consulta: # si la palabra esta ya en la db, solo hay que ingresar ambos id de la palabra y el ejemplo en la tabla palabra_ejemplo\n            consulta_id_palabra = db((db.palabra_ejemplo.palabra==consulta.id)&(db.palabra_ejemplo.ejemplo==request.args(0))).select().first() # consulta si el id de la palabra ya se encuentra en la db\n            if consulta_id_palabra:\n                session.flash="Palabra ya relacionada con el ejemplo"\n                redirect(URL(\'admin\', \'agregar_ejemplo\'))\n            else:\n                db.palabra_ejemplo.insert(palabra=consulta.id, ejemplo=request.args(0))\n                session.flash = \'Palabra relacionada\'\n                redirect(URL(\'admin\', \'agregar_ejemplo\'))\n        else:\n            db.palabras.insert(palabra=request.vars.palabra)\n            ultimo_registro = db(db.palabras.id > 0).select().last()\n            db.palabra_ejemplo.insert(palabra=ultimo_registro.id, ejemplo=request.args(0))\n            session.flash = \'Palabra relacionada y agregada\'\n            redirect(URL(\'admin\', \'agregar_ejemplo\'))\n            \n    elif form.errors:\n        response.flash = \'Mira otra vez\'\n    return dict(ejemplo=ejemplo, form=form)    \n    \n    \n    \n    \n    \n    \n    \n    \n    \n    \n    \n    \n    \n    \n    \n    \n    \n    \n    \n\nresponse._vars=response._caller(agregar_palabra)\n'
p7
sS'snapshot'
p8
(dp9
S'exception'
p10
(dp11
S'__hash__'
p12
S"<method-wrapper '__hash__' of exceptions.AttributeError object at 0x06676238>"
p13
sS'__setattr__'
p14
S"<method-wrapper '__setattr__' of exceptions.AttributeError object at 0x06676238>"
p15
sS'__reduce_ex__'
p16
S'<built-in method __reduce_ex__ of exceptions.AttributeError object at 0x06676238>'
p17
sS'__getslice__'
p18
S"<method-wrapper '__getslice__' of exceptions.AttributeError object at 0x06676238>"
p19
sS'__getitem__'
p20
S"<method-wrapper '__getitem__' of exceptions.AttributeError object at 0x06676238>"
p21
sS'__setstate__'
p22
S'<built-in method __setstate__ of exceptions.AttributeError object at 0x06676238>'
p23
sS'__reduce__'
p24
S'<built-in method __reduce__ of exceptions.AttributeError object at 0x06676238>'
p25
sS'__str__'
p26
S"<method-wrapper '__str__' of exceptions.AttributeError object at 0x06676238>"
p27
sS'args'
p28
S'("\'NoneType\' object has no attribute \'palabra\'",)'
p29
sS'__getattribute__'
p30
S"<method-wrapper '__getattribute__' of exceptions.AttributeError object at 0x06676238>"
p31
sS'__class__'
p32
S"<type 'exceptions.AttributeError'>"
p33
sS'__delattr__'
p34
S"<method-wrapper '__delattr__' of exceptions.AttributeError object at 0x06676238>"
p35
sS'__repr__'
p36
S"<method-wrapper '__repr__' of exceptions.AttributeError object at 0x06676238>"
p37
sS'__dict__'
p38
S'{}'
p39
sS'__doc__'
p40
S"'Attribute not found.'"
p41
sS'__init__'
p42
S"<method-wrapper '__init__' of exceptions.AttributeError object at 0x06676238>"
p43
sS'__new__'
p44
S'<built-in method __new__ of type object at 0x1E1CDA68>'
p45
ssS'evalue'
p46
S"'NoneType' object has no attribute 'palabra'"
p47
sS'request'
p48
ccopy_reg
_reconstructor
p49
(cgluon.html
BEAUTIFY
p50
c__builtin__
object
p51
NtRp52
(dp53
S'attributes'
p54
(dp55
sS'components'
p56
(lp57
g49
(cgluon.html
TABLE
p58
g51
NtRp59
(dp60
g54
(dp61
S'level'
p62
I5
ssS'parent'
p63
Nsg56
(lp64
g49
(cgluon.html
TR
p65
g51
NtRp66
(dp67
g54
(dp68
sg63
g59
sg56
(lp69
g49
(cgluon.html
TD
p70
g51
NtRp71
(dp72
g54
(dp73
S'_style'
p74
S'font-weight:bold;vertical-align:top'
p75
ssg63
g66
sg56
(lp76
S'ajax'
p77
asbag49
(g70
g51
NtRp78
(dp79
g54
(dp80
S'_valign'
p81
S'top'
p82
ssg63
g66
sg56
(lp83
S':'
asbag49
(g70
g51
NtRp84
(dp85
g54
(dp86
sg63
g66
sg56
(lp87
g49
(g50
g51
NtRp88
(dp89
g54
(dp90
g62
I5
ssg63
g84
sg56
(lp91
S'False'
p92
asbasbasbag49
(g65
g51
NtRp93
(dp94
g54
(dp95
sg63
g59
sg56
(lp96
g49
(g70
g51
NtRp97
(dp98
g54
(dp99
g74
g75
ssg63
g93
sg56
(lp100
S'application'
p101
asbag49
(g70
g51
NtRp102
(dp103
g54
(dp104
g81
g82
ssg63
g93
sg56
(lp105
S':'
asbag49
(g70
g51
NtRp106
(dp107
g54
(dp108
sg63
g93
sg56
(lp109
g49
(g50
g51
NtRp110
(dp111
g54
(dp112
g62
I5
ssg63
g106
sg56
(lp113
S'parleyweb'
p114
asbasbasbag49
(g65
g51
NtRp115
(dp116
g54
(dp117
sg63
g59
sg56
(lp118
g49
(g70
g51
NtRp119
(dp120
g54
(dp121
g74
g75
ssg63
g115
sg56
(lp122
S'body'
p123
asbag49
(g70
g51
NtRp124
(dp125
g54
(dp126
g81
g82
ssg63
g115
sg56
(lp127
S':'
asbag49
(g70
g51
NtRp128
(dp129
g54
(dp130
sg63
g115
sg56
(lp131
g49
(g50
g51
NtRp132
(dp133
g54
(dp134
g62
I5
ssg63
g128
sg56
(lp135
S"<open file '<fdopen>', mode 'w+b' at 0x07439EC0>"
p136
asbasbasbag49
(g65
g51
NtRp137
(dp138
g54
(dp139
sg63
g59
sg56
(lp140
g49
(g70
g51
NtRp141
(dp142
g54
(dp143
g74
g75
ssg63
g137
sg56
(lp144
S'client'
p145
asbag49
(g70
g51
NtRp146
(dp147
g54
(dp148
g81
g82
ssg63
g137
sg56
(lp149
S':'
asbag49
(g70
g51
NtRp150
(dp151
g54
(dp152
sg63
g137
sg56
(lp153
g49
(g50
g51
NtRp154
(dp155
g54
(dp156
g62
I5
ssg63
g150
sg56
(lp157
S'127.0.0.1'
p158
asbasbasbag49
(g65
g51
NtRp159
(dp160
g54
(dp161
sg63
g59
sg56
(lp162
g49
(g70
g51
NtRp163
(dp164
g54
(dp165
g74
g75
ssg63
g159
sg56
(lp166
S'controller'
p167
asbag49
(g70
g51
NtRp168
(dp169
g54
(dp170
g81
g82
ssg63
g159
sg56
(lp171
S':'
asbag49
(g70
g51
NtRp172
(dp173
g54
(dp174
sg63
g159
sg56
(lp175
g49
(g50
g51
NtRp176
(dp177
g54
(dp178
g62
I5
ssg63
g172
sg56
(lp179
S'admin'
p180
asbasbasbag49
(g65
g51
NtRp181
(dp182
g54
(dp183
sg63
g59
sg56
(lp184
g49
(g70
g51
NtRp185
(dp186
g54
(dp187
g74
g75
ssg63
g181
sg56
(lp188
S'cookies'
p189
asbag49
(g70
g51
NtRp190
(dp191
g54
(dp192
g81
g82
ssg63
g181
sg56
(lp193
S':'
asbag49
(g70
g51
NtRp194
(dp195
g54
(dp196
sg63
g181
sg56
(lp197
g49
(g50
g51
NtRp198
(dp199
g54
(dp200
g62
I5
ssg63
g194
sg56
(lp201
g49
(g58
g51
NtRp202
(dp203
g54
(dp204
g62
I4
ssg63
Nsg56
(lp205
g49
(g65
g51
NtRp206
(dp207
g54
(dp208
sg63
g202
sg56
(lp209
g49
(g70
g51
NtRp210
(dp211
g54
(dp212
g74
g75
ssg63
g206
sg56
(lp213
S'session_id_admin'
p214
asbag49
(g70
g51
NtRp215
(dp216
g54
(dp217
g81
g82
ssg63
g206
sg56
(lp218
S':'
asbag49
(g70
g51
NtRp219
(dp220
g54
(dp221
sg63
g206
sg56
(lp222
g49
(g50
g51
NtRp223
(dp224
g54
(dp225
g62
I4
ssg63
g219
sg56
(lp226
g49
(g58
g51
NtRp227
(dp228
g54
(dp229
g62
I3
ssg63
Nsg56
(lp230
g49
(g65
g51
NtRp231
(dp232
g54
(dp233
sg63
g227
sg56
(lp234
g49
(g70
g51
NtRp235
(dp236
g54
(dp237
g74
g75
ssg63
g231
sg56
(lp238
S'comment'
p239
asbag49
(g70
g51
NtRp240
(dp241
g54
(dp242
g81
g82
ssg63
g231
sg56
(lp243
S':'
asbag49
(g70
g51
NtRp244
(dp245
g54
(dp246
sg63
g231
sg56
(lp247
g49
(g50
g51
NtRp248
(dp249
g54
(dp250
g62
I3
ssg63
g244
sg56
(lp251
S''
asbasbasbag49
(g65
g51
NtRp252
(dp253
g54
(dp254
sg63
g227
sg56
(lp255
g49
(g70
g51
NtRp256
(dp257
g54
(dp258
g74
g75
ssg63
g252
sg56
(lp259
S'domain'
p260
asbag49
(g70
g51
NtRp261
(dp262
g54
(dp263
g81
g82
ssg63
g252
sg56
(lp264
S':'
asbag49
(g70
g51
NtRp265
(dp266
g54
(dp267
sg63
g252
sg56
(lp268
g49
(g50
g51
NtRp269
(dp270
g54
(dp271
g62
I3
ssg63
g265
sg56
(lp272
S''
asbasbasbag49
(g65
g51
NtRp273
(dp274
g54
(dp275
sg63
g227
sg56
(lp276
g49
(g70
g51
NtRp277
(dp278
g54
(dp279
g74
g75
ssg63
g273
sg56
(lp280
S'expires'
p281
asbag49
(g70
g51
NtRp282
(dp283
g54
(dp284
g81
g82
ssg63
g273
sg56
(lp285
S':'
asbag49
(g70
g51
NtRp286
(dp287
g54
(dp288
sg63
g273
sg56
(lp289
g49
(g50
g51
NtRp290
(dp291
g54
(dp292
g62
I3
ssg63
g286
sg56
(lp293
S''
asbasbasbag49
(g65
g51
NtRp294
(dp295
g54
(dp296
sg63
g227
sg56
(lp297
g49
(g70
g51
NtRp298
(dp299
g54
(dp300
g74
g75
ssg63
g294
sg56
(lp301
S'max-age'
p302
asbag49
(g70
g51
NtRp303
(dp304
g54
(dp305
g81
g82
ssg63
g294
sg56
(lp306
S':'
asbag49
(g70
g51
NtRp307
(dp308
g54
(dp309
sg63
g294
sg56
(lp310
g49
(g50
g51
NtRp311
(dp312
g54
(dp313
g62
I3
ssg63
g307
sg56
(lp314
S''
asbasbasbag49
(g65
g51
NtRp315
(dp316
g54
(dp317
sg63
g227
sg56
(lp318
g49
(g70
g51
NtRp319
(dp320
g54
(dp321
g74
g75
ssg63
g315
sg56
(lp322
S'path'
p323
asbag49
(g70
g51
NtRp324
(dp325
g54
(dp326
g81
g82
ssg63
g315
sg56
(lp327
S':'
asbag49
(g70
g51
NtRp328
(dp329
g54
(dp330
sg63
g315
sg56
(lp331
g49
(g50
g51
NtRp332
(dp333
g54
(dp334
g62
I3
ssg63
g328
sg56
(lp335
S''
asbasbasbag49
(g65
g51
NtRp336
(dp337
g54
(dp338
sg63
g227
sg56
(lp339
g49
(g70
g51
NtRp340
(dp341
g54
(dp342
g74
g75
ssg63
g336
sg56
(lp343
S'secure'
p344
asbag49
(g70
g51
NtRp345
(dp346
g54
(dp347
g81
g82
ssg63
g336
sg56
(lp348
S':'
asbag49
(g70
g51
NtRp349
(dp350
g54
(dp351
sg63
g336
sg56
(lp352
g49
(g50
g51
NtRp353
(dp354
g54
(dp355
g62
I3
ssg63
g349
sg56
(lp356
S''
asbasbasbag49
(g65
g51
NtRp357
(dp358
g54
(dp359
sg63
g227
sg56
(lp360
g49
(g70
g51
NtRp361
(dp362
g54
(dp363
g74
g75
ssg63
g357
sg56
(lp364
S'version'
p365
asbag49
(g70
g51
NtRp366
(dp367
g54
(dp368
g81
g82
ssg63
g357
sg56
(lp369
S':'
asbag49
(g70
g51
NtRp370
(dp371
g54
(dp372
sg63
g357
sg56
(lp373
g49
(g50
g51
NtRp374
(dp375
g54
(dp376
g62
I3
ssg63
g370
sg56
(lp377
S''
asbasbasbasbasbasbasbag49
(g65
g51
NtRp378
(dp379
g54
(dp380
sg63
g202
sg56
(lp381
g49
(g70
g51
NtRp382
(dp383
g54
(dp384
g74
g75
ssg63
g378
sg56
(lp385
S'session_id_parleyweb'
p386
asbag49
(g70
g51
NtRp387
(dp388
g54
(dp389
g81
g82
ssg63
g378
sg56
(lp390
S':'
asbag49
(g70
g51
NtRp391
(dp392
g54
(dp393
sg63
g378
sg56
(lp394
g49
(g50
g51
NtRp395
(dp396
g54
(dp397
g62
I4
ssg63
g391
sg56
(lp398
g49
(g58
g51
NtRp399
(dp400
g54
(dp401
g62
I3
ssg63
Nsg56
(lp402
g49
(g65
g51
NtRp403
(dp404
g54
(dp405
sg63
g399
sg56
(lp406
g49
(g70
g51
NtRp407
(dp408
g54
(dp409
g74
g75
ssg63
g403
sg56
(lp410
g239
asbag49
(g70
g51
NtRp411
(dp412
g54
(dp413
g81
g82
ssg63
g403
sg56
(lp414
S':'
asbag49
(g70
g51
NtRp415
(dp416
g54
(dp417
sg63
g403
sg56
(lp418
g49
(g50
g51
NtRp419
(dp420
g54
(dp421
g62
I3
ssg63
g415
sg56
(lp422
S''
asbasbasbag49
(g65
g51
NtRp423
(dp424
g54
(dp425
sg63
g399
sg56
(lp426
g49
(g70
g51
NtRp427
(dp428
g54
(dp429
g74
g75
ssg63
g423
sg56
(lp430
g260
asbag49
(g70
g51
NtRp431
(dp432
g54
(dp433
g81
g82
ssg63
g423
sg56
(lp434
S':'
asbag49
(g70
g51
NtRp435
(dp436
g54
(dp437
sg63
g423
sg56
(lp438
g49
(g50
g51
NtRp439
(dp440
g54
(dp441
g62
I3
ssg63
g435
sg56
(lp442
S''
asbasbasbag49
(g65
g51
NtRp443
(dp444
g54
(dp445
sg63
g399
sg56
(lp446
g49
(g70
g51
NtRp447
(dp448
g54
(dp449
g74
g75
ssg63
g443
sg56
(lp450
g281
asbag49
(g70
g51
NtRp451
(dp452
g54
(dp453
g81
g82
ssg63
g443
sg56
(lp454
S':'
asbag49
(g70
g51
NtRp455
(dp456
g54
(dp457
sg63
g443
sg56
(lp458
g49
(g50
g51
NtRp459
(dp460
g54
(dp461
g62
I3
ssg63
g455
sg56
(lp462
S''
asbasbasbag49
(g65
g51
NtRp463
(dp464
g54
(dp465
sg63
g399
sg56
(lp466
g49
(g70
g51
NtRp467
(dp468
g54
(dp469
g74
g75
ssg63
g463
sg56
(lp470
g302
asbag49
(g70
g51
NtRp471
(dp472
g54
(dp473
g81
g82
ssg63
g463
sg56
(lp474
S':'
asbag49
(g70
g51
NtRp475
(dp476
g54
(dp477
sg63
g463
sg56
(lp478
g49
(g50
g51
NtRp479
(dp480
g54
(dp481
g62
I3
ssg63
g475
sg56
(lp482
S''
asbasbasbag49
(g65
g51
NtRp483
(dp484
g54
(dp485
sg63
g399
sg56
(lp486
g49
(g70
g51
NtRp487
(dp488
g54
(dp489
g74
g75
ssg63
g483
sg56
(lp490
g323
asbag49
(g70
g51
NtRp491
(dp492
g54
(dp493
g81
g82
ssg63
g483
sg56
(lp494
S':'
asbag49
(g70
g51
NtRp495
(dp496
g54
(dp497
sg63
g483
sg56
(lp498
g49
(g50
g51
NtRp499
(dp500
g54
(dp501
g62
I3
ssg63
g495
sg56
(lp502
S''
asbasbasbag49
(g65
g51
NtRp503
(dp504
g54
(dp505
sg63
g399
sg56
(lp506
g49
(g70
g51
NtRp507
(dp508
g54
(dp509
g74
g75
ssg63
g503
sg56
(lp510
g344
asbag49
(g70
g51
NtRp511
(dp512
g54
(dp513
g81
g82
ssg63
g503
sg56
(lp514
S':'
asbag49
(g70
g51
NtRp515
(dp516
g54
(dp517
sg63
g503
sg56
(lp518
g49
(g50
g51
NtRp519
(dp520
g54
(dp521
g62
I3
ssg63
g515
sg56
(lp522
S''
asbasbasbag49
(g65
g51
NtRp523
(dp524
g54
(dp525
sg63
g399
sg56
(lp526
g49
(g70
g51
NtRp527
(dp528
g54
(dp529
g74
g75
ssg63
g523
sg56
(lp530
g365
asbag49
(g70
g51
NtRp531
(dp532
g54
(dp533
g81
g82
ssg63
g523
sg56
(lp534
S':'
asbag49
(g70
g51
NtRp535
(dp536
g54
(dp537
sg63
g523
sg56
(lp538
g49
(g50
g51
NtRp539
(dp540
g54
(dp541
g62
I3
ssg63
g535
sg56
(lp542
S''
asbasbasbasbasbasbasbasbasbasbasbag49
(g65
g51
NtRp543
(dp544
g54
(dp545
sg63
g59
sg56
(lp546
g49
(g70
g51
NtRp547
(dp548
g54
(dp549
g74
g75
ssg63
g543
sg56
(lp550
S'env'
p551
asbag49
(g70
g51
NtRp552
(dp553
g54
(dp554
g81
g82
ssg63
g543
sg56
(lp555
S':'
asbag49
(g70
g51
NtRp556
(dp557
g54
(dp558
sg63
g543
sg56
(lp559
g49
(g50
g51
NtRp560
(dp561
g54
(dp562
g62
I5
ssg63
g556
sg56
(lp563
g49
(g58
g51
NtRp564
(dp565
g54
(dp566
g62
I4
ssg63
Nsg56
(lp567
g49
(g65
g51
NtRp568
(dp569
g54
(dp570
sg63
g564
sg56
(lp571
g49
(g70
g51
NtRp572
(dp573
g54
(dp574
g74
g75
ssg63
g568
sg56
(lp575
S'app_folders'
p576
asbag49
(g70
g51
NtRp577
(dp578
g54
(dp579
g81
g82
ssg63
g568
sg56
(lp580
S':'
asbag49
(g70
g51
NtRp581
(dp582
g54
(dp583
sg63
g568
sg56
(lp584
g49
(g50
g51
NtRp585
(dp586
g54
(dp587
g62
I4
ssg63
g581
sg56
(lp588
S"set(['D:\\\\Dise\\xf1o Web\\\\Proyectos\\\\Parleyweb\\\\web2py\\\\applications\\\\parleyweb\\\\', 'D:\\\\Dise\\xf1o Web\\\\Proyectos\\\\Parleyweb\\\\web2py\\\\applications\\\\admin\\\\'])"
p589
asbasbasbag49
(g65
g51
NtRp590
(dp591
g54
(dp592
sg63
g564
sg56
(lp593
g49
(g70
g51
NtRp594
(dp595
g54
(dp596
g74
g75
ssg63
g590
sg56
(lp597
S'applications_parent'
p598
asbag49
(g70
g51
NtRp599
(dp600
g54
(dp601
g81
g82
ssg63
g590
sg56
(lp602
S':'
asbag49
(g70
g51
NtRp603
(dp604
g54
(dp605
sg63
g590
sg56
(lp606
g49
(g50
g51
NtRp607
(dp608
g54
(dp609
g62
I4
ssg63
g603
sg56
(lp610
S'D:\\Dise\xf1o Web\\Proyectos\\Parleyweb\\web2py'
p611
asbasbasbag49
(g65
g51
NtRp612
(dp613
g54
(dp614
sg63
g564
sg56
(lp615
g49
(g70
g51
NtRp616
(dp617
g54
(dp618
g74
g75
ssg63
g612
sg56
(lp619
S'cmd_args'
p620
asbag49
(g70
g51
NtRp621
(dp622
g54
(dp623
g81
g82
ssg63
g612
sg56
(lp624
S':'
asbag49
(g70
g51
NtRp625
(dp626
g54
(dp627
sg63
g612
sg56
(lp628
g49
(g50
g51
NtRp629
(dp630
g54
(dp631
g62
I4
ssg63
g625
sg56
(lp632
g49
(g58
g51
NtRp633
(dp634
g54
(dp635
g62
I3
ssg63
Nsg56
(lp636
sbasbasbasbag49
(g65
g51
NtRp637
(dp638
g54
(dp639
sg63
g564
sg56
(lp640
g49
(g70
g51
NtRp641
(dp642
g54
(dp643
g74
g75
ssg63
g637
sg56
(lp644
S'cmd_options'
p645
asbag49
(g70
g51
NtRp646
(dp647
g54
(dp648
g81
g82
ssg63
g637
sg56
(lp649
S':'
asbag49
(g70
g51
NtRp650
(dp651
g54
(dp652
sg63
g637
sg56
(lp653
g49
(g50
g51
NtRp654
(dp655
g54
(dp656
g62
I4
ssg63
g650
sg56
(lp657
S"<Values at 0x30d4238: {'verbose': False, 'ip': '127.0.0.1', 'shutdown_timeout': 5, 'taskbar': False, 'nocron': False, 'pid_filename': 'httpserver.pid', 'maxthreads': None, 'softcron': False, 'server_name': 'craxsnet-PC', 'bpython': False, 'nogui': False, 'port': 8000, 'extcron': False, 'debuglevel': 30, 'test': None, 'folder': 'D:\\\\Dise\\xf1o Web\\\\Proyectos\\\\Parleyweb\\\\web2py', 'config': '', 'import_models': False, 'winservice': '', 'shell': None, 'run': '', 'log_filename': 'httpserver.log', 'args': [''], 'socket_timeout': 5, 'ssl_ca_certificate': None, 'scheduler': None, 'profiler_filename': None, 'ssl_private_key': '', 'password': '<ask>', 'request_queue_size': 5, 'ssl_certificate': '', 'cronjob': False, 'numthreads': None, 'quiet': False, 'interfaces': None, 'minthreads': None, 'timeout': 10, 'plain': False, 'nobanner': False}>"
p658
asbasbasbag49
(g65
g51
NtRp659
(dp660
g54
(dp661
sg63
g564
sg56
(lp662
g49
(g70
g51
NtRp663
(dp664
g54
(dp665
g74
g75
ssg63
g659
sg56
(lp666
S'content_length'
p667
asbag49
(g70
g51
NtRp668
(dp669
g54
(dp670
g81
g82
ssg63
g659
sg56
(lp671
S':'
asbag49
(g70
g51
NtRp672
(dp673
g54
(dp674
sg63
g659
sg56
(lp675
g49
(g50
g51
NtRp676
(dp677
g54
(dp678
g62
I4
ssg63
g672
sg56
(lp679
S'1564'
p680
asbasbasbag49
(g65
g51
NtRp681
(dp682
g54
(dp683
sg63
g564
sg56
(lp684
g49
(g70
g51
NtRp685
(dp686
g54
(dp687
g74
g75
ssg63
g681
sg56
(lp688
S'content_type'
p689
asbag49
(g70
g51
NtRp690
(dp691
g54
(dp692
g81
g82
ssg63
g681
sg56
(lp693
S':'
asbag49
(g70
g51
NtRp694
(dp695
g54
(dp696
sg63
g681
sg56
(lp697
g49
(g50
g51
NtRp698
(dp699
g54
(dp700
g62
I4
ssg63
g694
sg56
(lp701
S'multipart/form-data; boundary=---------------------------256672629917035'
p702
asbasbasbag49
(g65
g51
NtRp703
(dp704
g54
(dp705
sg63
g564
sg56
(lp706
g49
(g70
g51
NtRp707
(dp708
g54
(dp709
g74
g75
ssg63
g703
sg56
(lp710
S'db_sessions'
p711
asbag49
(g70
g51
NtRp712
(dp713
g54
(dp714
g81
g82
ssg63
g703
sg56
(lp715
S':'
asbag49
(g70
g51
NtRp716
(dp717
g54
(dp718
sg63
g703
sg56
(lp719
g49
(g50
g51
NtRp720
(dp721
g54
(dp722
g62
I4
ssg63
g716
sg56
(lp723
S'set([])'
p724
asbasbasbag49
(g65
g51
NtRp725
(dp726
g54
(dp727
sg63
g564
sg56
(lp728
g49
(g70
g51
NtRp729
(dp730
g54
(dp731
g74
g75
ssg63
g725
sg56
(lp732
S'debugging'
p733
asbag49
(g70
g51
NtRp734
(dp735
g54
(dp736
g81
g82
ssg63
g725
sg56
(lp737
S':'
asbag49
(g70
g51
NtRp738
(dp739
g54
(dp740
sg63
g725
sg56
(lp741
g49
(g50
g51
NtRp742
(dp743
g54
(dp744
g62
I4
ssg63
g738
sg56
(lp745
g92
asbasbasbag49
(g65
g51
NtRp746
(dp747
g54
(dp748
sg63
g564
sg56
(lp749
g49
(g70
g51
NtRp750
(dp751
g54
(dp752
g74
g75
ssg63
g746
sg56
(lp753
S'gluon_parent'
p754
asbag49
(g70
g51
NtRp755
(dp756
g54
(dp757
g81
g82
ssg63
g746
sg56
(lp758
S':'
asbag49
(g70
g51
NtRp759
(dp760
g54
(dp761
sg63
g746
sg56
(lp762
g49
(g50
g51
NtRp763
(dp764
g54
(dp765
g62
I4
ssg63
g759
sg56
(lp766
S'D:\\Dise\xf1o Web\\Proyectos\\Parleyweb\\web2py'
p767
asbasbasbag49
(g65
g51
NtRp768
(dp769
g54
(dp770
sg63
g564
sg56
(lp771
g49
(g70
g51
NtRp772
(dp773
g54
(dp774
g74
g75
ssg63
g768
sg56
(lp775
S'http_accept'
p776
asbag49
(g70
g51
NtRp777
(dp778
g54
(dp779
g81
g82
ssg63
g768
sg56
(lp780
S':'
asbag49
(g70
g51
NtRp781
(dp782
g54
(dp783
sg63
g768
sg56
(lp784
g49
(g50
g51
NtRp785
(dp786
g54
(dp787
g62
I4
ssg63
g781
sg56
(lp788
S'text/html,application/xhtml+xml,application/xml;q=0.9,*/*;q=0.8'
p789
asbasbasbag49
(g65
g51
NtRp790
(dp791
g54
(dp792
sg63
g564
sg56
(lp793
g49
(g70
g51
NtRp794
(dp795
g54
(dp796
g74
g75
ssg63
g790
sg56
(lp797
S'http_accept_encoding'
p798
asbag49
(g70
g51
NtRp799
(dp800
g54
(dp801
g81
g82
ssg63
g790
sg56
(lp802
S':'
asbag49
(g70
g51
NtRp803
(dp804
g54
(dp805
sg63
g790
sg56
(lp806
g49
(g50
g51
NtRp807
(dp808
g54
(dp809
g62
I4
ssg63
g803
sg56
(lp810
S'gzip, deflate'
p811
asbasbasbag49
(g65
g51
NtRp812
(dp813
g54
(dp814
sg63
g564
sg56
(lp815
g49
(g70
g51
NtRp816
(dp817
g54
(dp818
g74
g75
ssg63
g812
sg56
(lp819
S'http_accept_language'
p820
asbag49
(g70
g51
NtRp821
(dp822
g54
(dp823
g81
g82
ssg63
g812
sg56
(lp824
S':'
asbag49
(g70
g51
NtRp825
(dp826
g54
(dp827
sg63
g812
sg56
(lp828
g49
(g50
g51
NtRp829
(dp830
g54
(dp831
g62
I4
ssg63
g825
sg56
(lp832
S'es-es,de-de;q=0.8,es;q=0.6,en-us;q=0.4,en;q=0.2'
p833
asbasbasbag49
(g65
g51
NtRp834
(dp835
g54
(dp836
sg63
g564
sg56
(lp837
g49
(g70
g51
NtRp838
(dp839
g54
(dp840
g74
g75
ssg63
g834
sg56
(lp841
S'http_connection'
p842
asbag49
(g70
g51
NtRp843
(dp844
g54
(dp845
g81
g82
ssg63
g834
sg56
(lp846
S':'
asbag49
(g70
g51
NtRp847
(dp848
g54
(dp849
sg63
g834
sg56
(lp850
g49
(g50
g51
NtRp851
(dp852
g54
(dp853
g62
I4
ssg63
g847
sg56
(lp854
S'keep-alive'
p855
asbasbasbag49
(g65
g51
NtRp856
(dp857
g54
(dp858
sg63
g564
sg56
(lp859
g49
(g70
g51
NtRp860
(dp861
g54
(dp862
g74
g75
ssg63
g856
sg56
(lp863
S'http_content_length'
p864
asbag49
(g70
g51
NtRp865
(dp866
g54
(dp867
g81
g82
ssg63
g856
sg56
(lp868
S':'
asbag49
(g70
g51
NtRp869
(dp870
g54
(dp871
sg63
g856
sg56
(lp872
g49
(g50
g51
NtRp873
(dp874
g54
(dp875
g62
I4
ssg63
g869
sg56
(lp876
g680
asbasbasbag49
(g65
g51
NtRp877
(dp878
g54
(dp879
sg63
g564
sg56
(lp880
g49
(g70
g51
NtRp881
(dp882
g54
(dp883
g74
g75
ssg63
g877
sg56
(lp884
S'http_content_type'
p885
asbag49
(g70
g51
NtRp886
(dp887
g54
(dp888
g81
g82
ssg63
g877
sg56
(lp889
S':'
asbag49
(g70
g51
NtRp890
(dp891
g54
(dp892
sg63
g877
sg56
(lp893
g49
(g50
g51
NtRp894
(dp895
g54
(dp896
g62
I4
ssg63
g890
sg56
(lp897
g702
asbasbasbag49
(g65
g51
NtRp898
(dp899
g54
(dp900
sg63
g564
sg56
(lp901
g49
(g70
g51
NtRp902
(dp903
g54
(dp904
g74
g75
ssg63
g898
sg56
(lp905
S'http_cookie'
p906
asbag49
(g70
g51
NtRp907
(dp908
g54
(dp909
g81
g82
ssg63
g898
sg56
(lp910
S':'
asbag49
(g70
g51
NtRp911
(dp912
g54
(dp913
sg63
g898
sg56
(lp914
g49
(g50
g51
NtRp915
(dp916
g54
(dp917
g62
I4
ssg63
g911
sg56
(lp918
S'__utma=96992031.26429765.1325029743.1325029743.1326549329.2; __utmz=96992031.1325029743.1.1.utmcsr=(direct)|utmccn=(direct)|utmcmd=(none); session_id_parleyweb=127.0.0.1-b9128f42-ceb9-46f0-9b29-84d3a40c4ca4; session_id_admin=127.0.0.1-cb68414e-e4bd-4f3e-b4ca-ca8b176c93bf'
p919
asbasbasbag49
(g65
g51
NtRp920
(dp921
g54
(dp922
sg63
g564
sg56
(lp923
g49
(g70
g51
NtRp924
(dp925
g54
(dp926
g74
g75
ssg63
g920
sg56
(lp927
S'http_host'
p928
asbag49
(g70
g51
NtRp929
(dp930
g54
(dp931
g81
g82
ssg63
g920
sg56
(lp932
S':'
asbag49
(g70
g51
NtRp933
(dp934
g54
(dp935
sg63
g920
sg56
(lp936
g49
(g50
g51
NtRp937
(dp938
g54
(dp939
g62
I4
ssg63
g933
sg56
(lp940
S'127.0.0.1:8000'
p941
asbasbasbag49
(g65
g51
NtRp942
(dp943
g54
(dp944
sg63
g564
sg56
(lp945
g49
(g70
g51
NtRp946
(dp947
g54
(dp948
g74
g75
ssg63
g942
sg56
(lp949
S'http_referer'
p950
asbag49
(g70
g51
NtRp951
(dp952
g54
(dp953
g81
g82
ssg63
g942
sg56
(lp954
S':'
asbag49
(g70
g51
NtRp955
(dp956
g54
(dp957
sg63
g942
sg56
(lp958
g49
(g50
g51
NtRp959
(dp960
g54
(dp961
g62
I4
ssg63
g955
sg56
(lp962
S'http://127.0.0.1:8000/parleyweb/admin/agregar_palabra'
p963
asbasbasbag49
(g65
g51
NtRp964
(dp965
g54
(dp966
sg63
g564
sg56
(lp967
g49
(g70
g51
NtRp968
(dp969
g54
(dp970
g74
g75
ssg63
g964
sg56
(lp971
S'http_user_agent'
p972
asbag49
(g70
g51
NtRp973
(dp974
g54
(dp975
g81
g82
ssg63
g964
sg56
(lp976
S':'
asbag49
(g70
g51
NtRp977
(dp978
g54
(dp979
sg63
g964
sg56
(lp980
g49
(g50
g51
NtRp981
(dp982
g54
(dp983
g62
I4
ssg63
g977
sg56
(lp984
S'Mozilla/5.0 (Windows NT 6.1; WOW64; rv:10.0.2) Gecko/20100101 Firefox/10.0.2'
p985
asbasbasbag49
(g65
g51
NtRp986
(dp987
g54
(dp988
sg63
g564
sg56
(lp989
g49
(g70
g51
NtRp990
(dp991
g54
(dp992
g74
g75
ssg63
g986
sg56
(lp993
S'is_jython'
p994
asbag49
(g70
g51
NtRp995
(dp996
g54
(dp997
g81
g82
ssg63
g986
sg56
(lp998
S':'
asbag49
(g70
g51
NtRp999
(dp1000
g54
(dp1001
sg63
g986
sg56
(lp1002
g49
(g50
g51
NtRp1003
(dp1004
g54
(dp1005
g62
I4
ssg63
g999
sg56
(lp1006
g92
asbasbasbag49
(g65
g51
NtRp1007
(dp1008
g54
(dp1009
sg63
g564
sg56
(lp1010
g49
(g70
g51
NtRp1011
(dp1012
g54
(dp1013
g74
g75
ssg63
g1007
sg56
(lp1014
S'is_pypy'
p1015
asbag49
(g70
g51
NtRp1016
(dp1017
g54
(dp1018
g81
g82
ssg63
g1007
sg56
(lp1019
S':'
asbag49
(g70
g51
NtRp1020
(dp1021
g54
(dp1022
sg63
g1007
sg56
(lp1023
g49
(g50
g51
NtRp1024
(dp1025
g54
(dp1026
g62
I4
ssg63
g1020
sg56
(lp1027
g92
asbasbasbag49
(g65
g51
NtRp1028
(dp1029
g54
(dp1030
sg63
g564
sg56
(lp1031
g49
(g70
g51
NtRp1032
(dp1033
g54
(dp1034
g74
g75
ssg63
g1028
sg56
(lp1035
S'path_info'
p1036
asbag49
(g70
g51
NtRp1037
(dp1038
g54
(dp1039
g81
g82
ssg63
g1028
sg56
(lp1040
S':'
asbag49
(g70
g51
NtRp1041
(dp1042
g54
(dp1043
sg63
g1028
sg56
(lp1044
g49
(g50
g51
NtRp1045
(dp1046
g54
(dp1047
g62
I4
ssg63
g1041
sg56
(lp1048
S'/parleyweb/admin/agregar_palabra'
p1049
asbasbasbag49
(g65
g51
NtRp1050
(dp1051
g54
(dp1052
sg63
g564
sg56
(lp1053
g49
(g70
g51
NtRp1054
(dp1055
g54
(dp1056
g74
g75
ssg63
g1050
sg56
(lp1057
S'query_string'
p1058
asbag49
(g70
g51
NtRp1059
(dp1060
g54
(dp1061
g81
g82
ssg63
g1050
sg56
(lp1062
S':'
asbag49
(g70
g51
NtRp1063
(dp1064
g54
(dp1065
sg63
g1050
sg56
(lp1066
g49
(g50
g51
NtRp1067
(dp1068
g54
(dp1069
g62
I4
ssg63
g1063
sg56
(lp1070
S''
asbasbasbag49
(g65
g51
NtRp1071
(dp1072
g54
(dp1073
sg63
g564
sg56
(lp1074
g49
(g70
g51
NtRp1075
(dp1076
g54
(dp1077
g74
g75
ssg63
g1071
sg56
(lp1078
S'remote_addr'
p1079
asbag49
(g70
g51
NtRp1080
(dp1081
g54
(dp1082
g81
g82
ssg63
g1071
sg56
(lp1083
S':'
asbag49
(g70
g51
NtRp1084
(dp1085
g54
(dp1086
sg63
g1071
sg56
(lp1087
g49
(g50
g51
NtRp1088
(dp1089
g54
(dp1090
g62
I4
ssg63
g1084
sg56
(lp1091
g158
asbasbasbag49
(g65
g51
NtRp1092
(dp1093
g54
(dp1094
sg63
g564
sg56
(lp1095
g49
(g70
g51
NtRp1096
(dp1097
g54
(dp1098
g74
g75
ssg63
g1092
sg56
(lp1099
S'remote_port'
p1100
asbag49
(g70
g51
NtRp1101
(dp1102
g54
(dp1103
g81
g82
ssg63
g1092
sg56
(lp1104
S':'
asbag49
(g70
g51
NtRp1105
(dp1106
g54
(dp1107
sg63
g1092
sg56
(lp1108
g49
(g50
g51
NtRp1109
(dp1110
g54
(dp1111
g62
I4
ssg63
g1105
sg56
(lp1112
S'49759'
p1113
asbasbasbag49
(g65
g51
NtRp1114
(dp1115
g54
(dp1116
sg63
g564
sg56
(lp1117
g49
(g70
g51
NtRp1118
(dp1119
g54
(dp1120
g74
g75
ssg63
g1114
sg56
(lp1121
S'request_method'
p1122
asbag49
(g70
g51
NtRp1123
(dp1124
g54
(dp1125
g81
g82
ssg63
g1114
sg56
(lp1126
S':'
asbag49
(g70
g51
NtRp1127
(dp1128
g54
(dp1129
sg63
g1114
sg56
(lp1130
g49
(g50
g51
NtRp1131
(dp1132
g54
(dp1133
g62
I4
ssg63
g1127
sg56
(lp1134
S'POST'
p1135
asbasbasbag49
(g65
g51
NtRp1136
(dp1137
g54
(dp1138
sg63
g564
sg56
(lp1139
g49
(g70
g51
NtRp1140
(dp1141
g54
(dp1142
g74
g75
ssg63
g1136
sg56
(lp1143
S'request_uri'
p1144
asbag49
(g70
g51
NtRp1145
(dp1146
g54
(dp1147
g81
g82
ssg63
g1136
sg56
(lp1148
S':'
asbag49
(g70
g51
NtRp1149
(dp1150
g54
(dp1151
sg63
g1136
sg56
(lp1152
g49
(g50
g51
NtRp1153
(dp1154
g54
(dp1155
g62
I4
ssg63
g1149
sg56
(lp1156
g1049
asbasbasbag49
(g65
g51
NtRp1157
(dp1158
g54
(dp1159
sg63
g564
sg56
(lp1160
g49
(g70
g51
NtRp1161
(dp1162
g54
(dp1163
g74
g75
ssg63
g1157
sg56
(lp1164
S'script_name'
p1165
asbag49
(g70
g51
NtRp1166
(dp1167
g54
(dp1168
g81
g82
ssg63
g1157
sg56
(lp1169
S':'
asbag49
(g70
g51
NtRp1170
(dp1171
g54
(dp1172
sg63
g1157
sg56
(lp1173
g49
(g50
g51
NtRp1174
(dp1175
g54
(dp1176
g62
I4
ssg63
g1170
sg56
(lp1177
S''
asbasbasbag49
(g65
g51
NtRp1178
(dp1179
g54
(dp1180
sg63
g564
sg56
(lp1181
g49
(g70
g51
NtRp1182
(dp1183
g54
(dp1184
g74
g75
ssg63
g1178
sg56
(lp1185
S'server_name'
p1186
asbag49
(g70
g51
NtRp1187
(dp1188
g54
(dp1189
g81
g82
ssg63
g1178
sg56
(lp1190
S':'
asbag49
(g70
g51
NtRp1191
(dp1192
g54
(dp1193
sg63
g1178
sg56
(lp1194
g49
(g50
g51
NtRp1195
(dp1196
g54
(dp1197
g62
I4
ssg63
g1191
sg56
(lp1198
S'craxsnet-PC'
p1199
asbasbasbag49
(g65
g51
NtRp1200
(dp1201
g54
(dp1202
sg63
g564
sg56
(lp1203
g49
(g70
g51
NtRp1204
(dp1205
g54
(dp1206
g74
g75
ssg63
g1200
sg56
(lp1207
S'server_port'
p1208
asbag49
(g70
g51
NtRp1209
(dp1210
g54
(dp1211
g81
g82
ssg63
g1200
sg56
(lp1212
S':'
asbag49
(g70
g51
NtRp1213
(dp1214
g54
(dp1215
sg63
g1200
sg56
(lp1216
g49
(g50
g51
NtRp1217
(dp1218
g54
(dp1219
g62
I4
ssg63
g1213
sg56
(lp1220
S'8000'
p1221
asbasbasbag49
(g65
g51
NtRp1222
(dp1223
g54
(dp1224
sg63
g564
sg56
(lp1225
g49
(g70
g51
NtRp1226
(dp1227
g54
(dp1228
g74
g75
ssg63
g1222
sg56
(lp1229
S'server_protocol'
p1230
asbag49
(g70
g51
NtRp1231
(dp1232
g54
(dp1233
g81
g82
ssg63
g1222
sg56
(lp1234
S':'
asbag49
(g70
g51
NtRp1235
(dp1236
g54
(dp1237
sg63
g1222
sg56
(lp1238
g49
(g50
g51
NtRp1239
(dp1240
g54
(dp1241
g62
I4
ssg63
g1235
sg56
(lp1242
S'HTTP/1.1'
p1243
asbasbasbag49
(g65
g51
NtRp1244
(dp1245
g54
(dp1246
sg63
g564
sg56
(lp1247
g49
(g70
g51
NtRp1248
(dp1249
g54
(dp1250
g74
g75
ssg63
g1244
sg56
(lp1251
S'server_software'
p1252
asbag49
(g70
g51
NtRp1253
(dp1254
g54
(dp1255
g81
g82
ssg63
g1244
sg56
(lp1256
S':'
asbag49
(g70
g51
NtRp1257
(dp1258
g54
(dp1259
sg63
g1244
sg56
(lp1260
g49
(g50
g51
NtRp1261
(dp1262
g54
(dp1263
g62
I4
ssg63
g1257
sg56
(lp1264
S'Rocket 1.2.4'
p1265
asbasbasbag49
(g65
g51
NtRp1266
(dp1267
g54
(dp1268
sg63
g564
sg56
(lp1269
g49
(g70
g51
NtRp1270
(dp1271
g54
(dp1272
g74
g75
ssg63
g1266
sg56
(lp1273
S'web2py_crontype'
p1274
asbag49
(g70
g51
NtRp1275
(dp1276
g54
(dp1277
g81
g82
ssg63
g1266
sg56
(lp1278
S':'
asbag49
(g70
g51
NtRp1279
(dp1280
g54
(dp1281
sg63
g1266
sg56
(lp1282
g49
(g50
g51
NtRp1283
(dp1284
g54
(dp1285
g62
I4
ssg63
g1279
sg56
(lp1286
S'hard'
p1287
asbasbasbag49
(g65
g51
NtRp1288
(dp1289
g54
(dp1290
sg63
g564
sg56
(lp1291
g49
(g70
g51
NtRp1292
(dp1293
g54
(dp1294
g74
g75
ssg63
g1288
sg56
(lp1295
S'web2py_original_uri'
p1296
asbag49
(g70
g51
NtRp1297
(dp1298
g54
(dp1299
g81
g82
ssg63
g1288
sg56
(lp1300
S':'
asbag49
(g70
g51
NtRp1301
(dp1302
g54
(dp1303
sg63
g1288
sg56
(lp1304
g49
(g50
g51
NtRp1305
(dp1306
g54
(dp1307
g62
I4
ssg63
g1301
sg56
(lp1308
S'/parleyweb/admin/agregar_palabra'
p1309
asbasbasbag49
(g65
g51
NtRp1310
(dp1311
g54
(dp1312
sg63
g564
sg56
(lp1313
g49
(g70
g51
NtRp1314
(dp1315
g54
(dp1316
g74
g75
ssg63
g1310
sg56
(lp1317
S'web2py_path'
p1318
asbag49
(g70
g51
NtRp1319
(dp1320
g54
(dp1321
g81
g82
ssg63
g1310
sg56
(lp1322
S':'
asbag49
(g70
g51
NtRp1323
(dp1324
g54
(dp1325
sg63
g1310
sg56
(lp1326
g49
(g50
g51
NtRp1327
(dp1328
g54
(dp1329
g62
I4
ssg63
g1323
sg56
(lp1330
g611
asbasbasbag49
(g65
g51
NtRp1331
(dp1332
g54
(dp1333
sg63
g564
sg56
(lp1334
g49
(g70
g51
NtRp1335
(dp1336
g54
(dp1337
g74
g75
ssg63
g1331
sg56
(lp1338
S'web2py_version'
p1339
asbag49
(g70
g51
NtRp1340
(dp1341
g54
(dp1342
g81
g82
ssg63
g1331
sg56
(lp1343
S':'
asbag49
(g70
g51
NtRp1344
(dp1345
g54
(dp1346
sg63
g1331
sg56
(lp1347
g49
(g50
g51
NtRp1348
(dp1349
g54
(dp1350
g62
I4
ssg63
g1344
sg56
(lp1351
g49
(g58
g51
NtRp1352
(dp1353
g54
(dp1354
g62
I3
ssg63
Nsg56
(lp1355
g49
(g65
g51
NtRp1356
(dp1357
g54
(dp1358
sg63
g1352
sg56
(lp1359
g49
(g70
g51
NtRp1360
(dp1361
g54
(dp1362
sg63
g1356
sg56
(lp1363
g49
(g50
g51
NtRp1364
(dp1365
g54
(dp1366
g62
I3
ssg63
g1360
sg56
(lp1367
S'1'
asbasbasbag49
(g65
g51
NtRp1368
(dp1369
g54
(dp1370
sg63
g1352
sg56
(lp1371
g49
(g70
g51
NtRp1372
(dp1373
g54
(dp1374
sg63
g1368
sg56
(lp1375
g49
(g50
g51
NtRp1376
(dp1377
g54
(dp1378
g62
I3
ssg63
g1372
sg56
(lp1379
S'99'
p1380
asbasbasbag49
(g65
g51
NtRp1381
(dp1382
g54
(dp1383
sg63
g1352
sg56
(lp1384
g49
(g70
g51
NtRp1385
(dp1386
g54
(dp1387
sg63
g1381
sg56
(lp1388
g49
(g50
g51
NtRp1389
(dp1390
g54
(dp1391
g62
I3
ssg63
g1385
sg56
(lp1392
S'7'
asbasbasbag49
(g65
g51
NtRp1393
(dp1394
g54
(dp1395
sg63
g1352
sg56
(lp1396
g49
(g70
g51
NtRp1397
(dp1398
g54
(dp1399
sg63
g1393
sg56
(lp1400
g49
(g50
g51
NtRp1401
(dp1402
g54
(dp1403
g62
I3
ssg63
g1397
sg56
(lp1404
S'datetime.datetime(2012, 3, 4, 22, 12, 8)'
p1405
asbasbasbag49
(g65
g51
NtRp1406
(dp1407
g54
(dp1408
sg63
g1352
sg56
(lp1409
g49
(g70
g51
NtRp1410
(dp1411
g54
(dp1412
sg63
g1406
sg56
(lp1413
g49
(g50
g51
NtRp1414
(dp1415
g54
(dp1416
g62
I3
ssg63
g1410
sg56
(lp1417
S'stable'
p1418
asbasbasbasbasbasbasbag49
(g65
g51
NtRp1419
(dp1420
g54
(dp1421
sg63
g564
sg56
(lp1422
g49
(g70
g51
NtRp1423
(dp1424
g54
(dp1425
g74
g75
ssg63
g1419
sg56
(lp1426
S'wsgi_errors'
p1427
asbag49
(g70
g51
NtRp1428
(dp1429
g54
(dp1430
g81
g82
ssg63
g1419
sg56
(lp1431
S':'
asbag49
(g70
g51
NtRp1432
(dp1433
g54
(dp1434
sg63
g1419
sg56
(lp1435
g49
(g50
g51
NtRp1436
(dp1437
g54
(dp1438
g62
I4
ssg63
g1432
sg56
(lp1439
S"<open file '<stderr>', mode 'w' at 0x004900B0>"
p1440
asbasbasbag49
(g65
g51
NtRp1441
(dp1442
g54
(dp1443
sg63
g564
sg56
(lp1444
g49
(g70
g51
NtRp1445
(dp1446
g54
(dp1447
g74
g75
ssg63
g1441
sg56
(lp1448
S'wsgi_file_wrapper'
p1449
asbag49
(g70
g51
NtRp1450
(dp1451
g54
(dp1452
g81
g82
ssg63
g1441
sg56
(lp1453
S':'
asbag49
(g70
g51
NtRp1454
(dp1455
g54
(dp1456
sg63
g1441
sg56
(lp1457
g49
(g50
g51
NtRp1458
(dp1459
g54
(dp1460
g62
I4
ssg63
g1454
sg56
(lp1461
S'<class wsgiref.util.FileWrapper at 0x02EC5390>'
p1462
asbasbasbag49
(g65
g51
NtRp1463
(dp1464
g54
(dp1465
sg63
g564
sg56
(lp1466
g49
(g70
g51
NtRp1467
(dp1468
g54
(dp1469
g74
g75
ssg63
g1463
sg56
(lp1470
S'wsgi_input'
p1471
asbag49
(g70
g51
NtRp1472
(dp1473
g54
(dp1474
g81
g82
ssg63
g1463
sg56
(lp1475
S':'
asbag49
(g70
g51
NtRp1476
(dp1477
g54
(dp1478
sg63
g1463
sg56
(lp1479
g49
(g50
g51
NtRp1480
(dp1481
g54
(dp1482
g62
I4
ssg63
g1476
sg56
(lp1483
S'<socket._fileobject object at 0x0735A6B0>'
p1484
asbasbasbag49
(g65
g51
NtRp1485
(dp1486
g54
(dp1487
sg63
g564
sg56
(lp1488
g49
(g70
g51
NtRp1489
(dp1490
g54
(dp1491
g74
g75
ssg63
g1485
sg56
(lp1492
S'wsgi_multiprocess'
p1493
asbag49
(g70
g51
NtRp1494
(dp1495
g54
(dp1496
g81
g82
ssg63
g1485
sg56
(lp1497
S':'
asbag49
(g70
g51
NtRp1498
(dp1499
g54
(dp1500
sg63
g1485
sg56
(lp1501
g49
(g50
g51
NtRp1502
(dp1503
g54
(dp1504
g62
I4
ssg63
g1498
sg56
(lp1505
g92
asbasbasbag49
(g65
g51
NtRp1506
(dp1507
g54
(dp1508
sg63
g564
sg56
(lp1509
g49
(g70
g51
NtRp1510
(dp1511
g54
(dp1512
g74
g75
ssg63
g1506
sg56
(lp1513
S'wsgi_multithread'
p1514
asbag49
(g70
g51
NtRp1515
(dp1516
g54
(dp1517
g81
g82
ssg63
g1506
sg56
(lp1518
S':'
asbag49
(g70
g51
NtRp1519
(dp1520
g54
(dp1521
sg63
g1506
sg56
(lp1522
g49
(g50
g51
NtRp1523
(dp1524
g54
(dp1525
g62
I4
ssg63
g1519
sg56
(lp1526
S'True'
p1527
asbasbasbag49
(g65
g51
NtRp1528
(dp1529
g54
(dp1530
sg63
g564
sg56
(lp1531
g49
(g70
g51
NtRp1532
(dp1533
g54
(dp1534
g74
g75
ssg63
g1528
sg56
(lp1535
S'wsgi_run_once'
p1536
asbag49
(g70
g51
NtRp1537
(dp1538
g54
(dp1539
g81
g82
ssg63
g1528
sg56
(lp1540
S':'
asbag49
(g70
g51
NtRp1541
(dp1542
g54
(dp1543
sg63
g1528
sg56
(lp1544
g49
(g50
g51
NtRp1545
(dp1546
g54
(dp1547
g62
I4
ssg63
g1541
sg56
(lp1548
g92
asbasbasbag49
(g65
g51
NtRp1549
(dp1550
g54
(dp1551
sg63
g564
sg56
(lp1552
g49
(g70
g51
NtRp1553
(dp1554
g54
(dp1555
g74
g75
ssg63
g1549
sg56
(lp1556
S'wsgi_url_scheme'
p1557
asbag49
(g70
g51
NtRp1558
(dp1559
g54
(dp1560
g81
g82
ssg63
g1549
sg56
(lp1561
S':'
asbag49
(g70
g51
NtRp1562
(dp1563
g54
(dp1564
sg63
g1549
sg56
(lp1565
g49
(g50
g51
NtRp1566
(dp1567
g54
(dp1568
g62
I4
ssg63
g1562
sg56
(lp1569
S'http'
p1570
asbasbasbag49
(g65
g51
NtRp1571
(dp1572
g54
(dp1573
sg63
g564
sg56
(lp1574
g49
(g70
g51
NtRp1575
(dp1576
g54
(dp1577
g74
g75
ssg63
g1571
sg56
(lp1578
S'wsgi_version'
p1579
asbag49
(g70
g51
NtRp1580
(dp1581
g54
(dp1582
g81
g82
ssg63
g1571
sg56
(lp1583
S':'
asbag49
(g70
g51
NtRp1584
(dp1585
g54
(dp1586
sg63
g1571
sg56
(lp1587
g49
(g50
g51
NtRp1588
(dp1589
g54
(dp1590
g62
I4
ssg63
g1584
sg56
(lp1591
g49
(g58
g51
NtRp1592
(dp1593
g54
(dp1594
g62
I3
ssg63
Nsg56
(lp1595
g49
(g65
g51
NtRp1596
(dp1597
g54
(dp1598
sg63
g1592
sg56
(lp1599
g49
(g70
g51
NtRp1600
(dp1601
g54
(dp1602
sg63
g1596
sg56
(lp1603
g49
(g50
g51
NtRp1604
(dp1605
g54
(dp1606
g62
I3
ssg63
g1600
sg56
(lp1607
S'1'
asbasbasbag49
(g65
g51
NtRp1608
(dp1609
g54
(dp1610
sg63
g1592
sg56
(lp1611
g49
(g70
g51
NtRp1612
(dp1613
g54
(dp1614
sg63
g1608
sg56
(lp1615
g49
(g50
g51
NtRp1616
(dp1617
g54
(dp1618
g62
I3
ssg63
g1612
sg56
(lp1619
S'0'
asbasbasbasbasbasbasbasbasbasbasbag49
(g65
g51
NtRp1620
(dp1621
g54
(dp1622
sg63
g59
sg56
(lp1623
g49
(g70
g51
NtRp1624
(dp1625
g54
(dp1626
g74
g75
ssg63
g1620
sg56
(lp1627
S'extension'
p1628
asbag49
(g70
g51
NtRp1629
(dp1630
g54
(dp1631
g81
g82
ssg63
g1620
sg56
(lp1632
S':'
asbag49
(g70
g51
NtRp1633
(dp1634
g54
(dp1635
sg63
g1620
sg56
(lp1636
g49
(g50
g51
NtRp1637
(dp1638
g54
(dp1639
g62
I5
ssg63
g1633
sg56
(lp1640
S'html'
p1641
asbasbasbag49
(g65
g51
NtRp1642
(dp1643
g54
(dp1644
sg63
g59
sg56
(lp1645
g49
(g70
g51
NtRp1646
(dp1647
g54
(dp1648
g74
g75
ssg63
g1642
sg56
(lp1649
S'folder'
p1650
asbag49
(g70
g51
NtRp1651
(dp1652
g54
(dp1653
g81
g82
ssg63
g1642
sg56
(lp1654
S':'
asbag49
(g70
g51
NtRp1655
(dp1656
g54
(dp1657
sg63
g1642
sg56
(lp1658
g49
(g50
g51
NtRp1659
(dp1660
g54
(dp1661
g62
I5
ssg63
g1655
sg56
(lp1662
S'D:\\Dise\xf1o Web\\Proyectos\\Parleyweb\\web2py\\applications\\parleyweb\\'
p1663
asbasbasbag49
(g65
g51
NtRp1664
(dp1665
g54
(dp1666
sg63
g59
sg56
(lp1667
g49
(g70
g51
NtRp1668
(dp1669
g54
(dp1670
g74
g75
ssg63
g1664
sg56
(lp1671
S'function'
p1672
asbag49
(g70
g51
NtRp1673
(dp1674
g54
(dp1675
g81
g82
ssg63
g1664
sg56
(lp1676
S':'
asbag49
(g70
g51
NtRp1677
(dp1678
g54
(dp1679
sg63
g1664
sg56
(lp1680
g49
(g50
g51
NtRp1681
(dp1682
g54
(dp1683
g62
I5
ssg63
g1677
sg56
(lp1684
S'agregar_palabra'
p1685
asbasbasbag49
(g65
g51
NtRp1686
(dp1687
g54
(dp1688
sg63
g59
sg56
(lp1689
g49
(g70
g51
NtRp1690
(dp1691
g54
(dp1692
g74
g75
ssg63
g1686
sg56
(lp1693
S'get_vars'
p1694
asbag49
(g70
g51
NtRp1695
(dp1696
g54
(dp1697
g81
g82
ssg63
g1686
sg56
(lp1698
S':'
asbag49
(g70
g51
NtRp1699
(dp1700
g54
(dp1701
sg63
g1686
sg56
(lp1702
g49
(g50
g51
NtRp1703
(dp1704
g54
(dp1705
g62
I5
ssg63
g1699
sg56
(lp1706
g49
(g58
g51
NtRp1707
(dp1708
g54
(dp1709
g62
I4
ssg63
Nsg56
(lp1710
sbasbasbasbag49
(g65
g51
NtRp1711
(dp1712
g54
(dp1713
sg63
g59
sg56
(lp1714
g49
(g70
g51
NtRp1715
(dp1716
g54
(dp1717
g74
g75
ssg63
g1711
sg56
(lp1718
S'global_settings'
p1719
asbag49
(g70
g51
NtRp1720
(dp1721
g54
(dp1722
g81
g82
ssg63
g1711
sg56
(lp1723
S':'
asbag49
(g70
g51
NtRp1724
(dp1725
g54
(dp1726
sg63
g1711
sg56
(lp1727
g49
(g50
g51
NtRp1728
(dp1729
g54
(dp1730
g62
I5
ssg63
g1724
sg56
(lp1731
g49
(g58
g51
NtRp1732
(dp1733
g54
(dp1734
g62
I4
ssg63
Nsg56
(lp1735
g49
(g65
g51
NtRp1736
(dp1737
g54
(dp1738
sg63
g1732
sg56
(lp1739
g49
(g70
g51
NtRp1740
(dp1741
g54
(dp1742
g74
g75
ssg63
g1736
sg56
(lp1743
g576
asbag49
(g70
g51
NtRp1744
(dp1745
g54
(dp1746
g81
g82
ssg63
g1736
sg56
(lp1747
S':'
asbag49
(g70
g51
NtRp1748
(dp1749
g54
(dp1750
sg63
g1736
sg56
(lp1751
g49
(g50
g51
NtRp1752
(dp1753
g54
(dp1754
g62
I4
ssg63
g1748
sg56
(lp1755
S"set(['D:\\\\Dise\\xf1o Web\\\\Proyectos\\\\Parleyweb\\\\web2py\\\\applications\\\\parleyweb\\\\', 'D:\\\\Dise\\xf1o Web\\\\Proyectos\\\\Parleyweb\\\\web2py\\\\applications\\\\admin\\\\'])"
p1756
asbasbasbag49
(g65
g51
NtRp1757
(dp1758
g54
(dp1759
sg63
g1732
sg56
(lp1760
g49
(g70
g51
NtRp1761
(dp1762
g54
(dp1763
g74
g75
ssg63
g1757
sg56
(lp1764
g598
asbag49
(g70
g51
NtRp1765
(dp1766
g54
(dp1767
g81
g82
ssg63
g1757
sg56
(lp1768
S':'
asbag49
(g70
g51
NtRp1769
(dp1770
g54
(dp1771
sg63
g1757
sg56
(lp1772
g49
(g50
g51
NtRp1773
(dp1774
g54
(dp1775
g62
I4
ssg63
g1769
sg56
(lp1776
g611
asbasbasbag49
(g65
g51
NtRp1777
(dp1778
g54
(dp1779
sg63
g1732
sg56
(lp1780
g49
(g70
g51
NtRp1781
(dp1782
g54
(dp1783
g74
g75
ssg63
g1777
sg56
(lp1784
g620
asbag49
(g70
g51
NtRp1785
(dp1786
g54
(dp1787
g81
g82
ssg63
g1777
sg56
(lp1788
S':'
asbag49
(g70
g51
NtRp1789
(dp1790
g54
(dp1791
sg63
g1777
sg56
(lp1792
g49
(g50
g51
NtRp1793
(dp1794
g54
(dp1795
g62
I4
ssg63
g1789
sg56
(lp1796
g49
(g58
g51
NtRp1797
(dp1798
g54
(dp1799
g62
I3
ssg63
Nsg56
(lp1800
sbasbasbasbag49
(g65
g51
NtRp1801
(dp1802
g54
(dp1803
sg63
g1732
sg56
(lp1804
g49
(g70
g51
NtRp1805
(dp1806
g54
(dp1807
g74
g75
ssg63
g1801
sg56
(lp1808
g645
asbag49
(g70
g51
NtRp1809
(dp1810
g54
(dp1811
g81
g82
ssg63
g1801
sg56
(lp1812
S':'
asbag49
(g70
g51
NtRp1813
(dp1814
g54
(dp1815
sg63
g1801
sg56
(lp1816
g49
(g50
g51
NtRp1817
(dp1818
g54
(dp1819
g62
I4
ssg63
g1813
sg56
(lp1820
S"<Values at 0x30d4238: {'verbose': False, 'ip': '127.0.0.1', 'shutdown_timeout': 5, 'taskbar': False, 'nocron': False, 'pid_filename': 'httpserver.pid', 'maxthreads': None, 'softcron': False, 'server_name': 'craxsnet-PC', 'bpython': False, 'nogui': False, 'port': 8000, 'extcron': False, 'debuglevel': 30, 'test': None, 'folder': 'D:\\\\Dise\\xf1o Web\\\\Proyectos\\\\Parleyweb\\\\web2py', 'config': '', 'import_models': False, 'winservice': '', 'shell': None, 'run': '', 'log_filename': 'httpserver.log', 'args': [''], 'socket_timeout': 5, 'ssl_ca_certificate': None, 'scheduler': None, 'profiler_filename': None, 'ssl_private_key': '', 'password': '<ask>', 'request_queue_size': 5, 'ssl_certificate': '', 'cronjob': False, 'numthreads': None, 'quiet': False, 'interfaces': None, 'minthreads': None, 'timeout': 10, 'plain': False, 'nobanner': False}>"
p1821
asbasbasbag49
(g65
g51
NtRp1822
(dp1823
g54
(dp1824
sg63
g1732
sg56
(lp1825
g49
(g70
g51
NtRp1826
(dp1827
g54
(dp1828
g74
g75
ssg63
g1822
sg56
(lp1829
g711
asbag49
(g70
g51
NtRp1830
(dp1831
g54
(dp1832
g81
g82
ssg63
g1822
sg56
(lp1833
S':'
asbag49
(g70
g51
NtRp1834
(dp1835
g54
(dp1836
sg63
g1822
sg56
(lp1837
g49
(g50
g51
NtRp1838
(dp1839
g54
(dp1840
g62
I4
ssg63
g1834
sg56
(lp1841
S'set([])'
p1842
asbasbasbag49
(g65
g51
NtRp1843
(dp1844
g54
(dp1845
sg63
g1732
sg56
(lp1846
g49
(g70
g51
NtRp1847
(dp1848
g54
(dp1849
g74
g75
ssg63
g1843
sg56
(lp1850
g733
asbag49
(g70
g51
NtRp1851
(dp1852
g54
(dp1853
g81
g82
ssg63
g1843
sg56
(lp1854
S':'
asbag49
(g70
g51
NtRp1855
(dp1856
g54
(dp1857
sg63
g1843
sg56
(lp1858
g49
(g50
g51
NtRp1859
(dp1860
g54
(dp1861
g62
I4
ssg63
g1855
sg56
(lp1862
g92
asbasbasbag49
(g65
g51
NtRp1863
(dp1864
g54
(dp1865
sg63
g1732
sg56
(lp1866
g49
(g70
g51
NtRp1867
(dp1868
g54
(dp1869
g74
g75
ssg63
g1863
sg56
(lp1870
g754
asbag49
(g70
g51
NtRp1871
(dp1872
g54
(dp1873
g81
g82
ssg63
g1863
sg56
(lp1874
S':'
asbag49
(g70
g51
NtRp1875
(dp1876
g54
(dp1877
sg63
g1863
sg56
(lp1878
g49
(g50
g51
NtRp1879
(dp1880
g54
(dp1881
g62
I4
ssg63
g1875
sg56
(lp1882
g767
asbasbasbag49
(g65
g51
NtRp1883
(dp1884
g54
(dp1885
sg63
g1732
sg56
(lp1886
g49
(g70
g51
NtRp1887
(dp1888
g54
(dp1889
g74
g75
ssg63
g1883
sg56
(lp1890
g994
asbag49
(g70
g51
NtRp1891
(dp1892
g54
(dp1893
g81
g82
ssg63
g1883
sg56
(lp1894
S':'
asbag49
(g70
g51
NtRp1895
(dp1896
g54
(dp1897
sg63
g1883
sg56
(lp1898
g49
(g50
g51
NtRp1899
(dp1900
g54
(dp1901
g62
I4
ssg63
g1895
sg56
(lp1902
g92
asbasbasbag49
(g65
g51
NtRp1903
(dp1904
g54
(dp1905
sg63
g1732
sg56
(lp1906
g49
(g70
g51
NtRp1907
(dp1908
g54
(dp1909
g74
g75
ssg63
g1903
sg56
(lp1910
g1015
asbag49
(g70
g51
NtRp1911
(dp1912
g54
(dp1913
g81
g82
ssg63
g1903
sg56
(lp1914
S':'
asbag49
(g70
g51
NtRp1915
(dp1916
g54
(dp1917
sg63
g1903
sg56
(lp1918
g49
(g50
g51
NtRp1919
(dp1920
g54
(dp1921
g62
I4
ssg63
g1915
sg56
(lp1922
g92
asbasbasbag49
(g65
g51
NtRp1923
(dp1924
g54
(dp1925
sg63
g1732
sg56
(lp1926
g49
(g70
g51
NtRp1927
(dp1928
g54
(dp1929
g74
g75
ssg63
g1923
sg56
(lp1930
g1274
asbag49
(g70
g51
NtRp1931
(dp1932
g54
(dp1933
g81
g82
ssg63
g1923
sg56
(lp1934
S':'
asbag49
(g70
g51
NtRp1935
(dp1936
g54
(dp1937
sg63
g1923
sg56
(lp1938
g49
(g50
g51
NtRp1939
(dp1940
g54
(dp1941
g62
I4
ssg63
g1935
sg56
(lp1942
g1287
asbasbasbag49
(g65
g51
NtRp1943
(dp1944
g54
(dp1945
sg63
g1732
sg56
(lp1946
g49
(g70
g51
NtRp1947
(dp1948
g54
(dp1949
g74
g75
ssg63
g1943
sg56
(lp1950
g1339
asbag49
(g70
g51
NtRp1951
(dp1952
g54
(dp1953
g81
g82
ssg63
g1943
sg56
(lp1954
S':'
asbag49
(g70
g51
NtRp1955
(dp1956
g54
(dp1957
sg63
g1943
sg56
(lp1958
g49
(g50
g51
NtRp1959
(dp1960
g54
(dp1961
g62
I4
ssg63
g1955
sg56
(lp1962
g49
(g58
g51
NtRp1963
(dp1964
g54
(dp1965
g62
I3
ssg63
Nsg56
(lp1966
g49
(g65
g51
NtRp1967
(dp1968
g54
(dp1969
sg63
g1963
sg56
(lp1970
g49
(g70
g51
NtRp1971
(dp1972
g54
(dp1973
sg63
g1967
sg56
(lp1974
g49
(g50
g51
NtRp1975
(dp1976
g54
(dp1977
g62
I3
ssg63
g1971
sg56
(lp1978
S'1'
asbasbasbag49
(g65
g51
NtRp1979
(dp1980
g54
(dp1981
sg63
g1963
sg56
(lp1982
g49
(g70
g51
NtRp1983
(dp1984
g54
(dp1985
sg63
g1979
sg56
(lp1986
g49
(g50
g51
NtRp1987
(dp1988
g54
(dp1989
g62
I3
ssg63
g1983
sg56
(lp1990
S'99'
p1991
asbasbasbag49
(g65
g51
NtRp1992
(dp1993
g54
(dp1994
sg63
g1963
sg56
(lp1995
g49
(g70
g51
NtRp1996
(dp1997
g54
(dp1998
sg63
g1992
sg56
(lp1999
g49
(g50
g51
NtRp2000
(dp2001
g54
(dp2002
g62
I3
ssg63
g1996
sg56
(lp2003
S'7'
asbasbasbag49
(g65
g51
NtRp2004
(dp2005
g54
(dp2006
sg63
g1963
sg56
(lp2007
g49
(g70
g51
NtRp2008
(dp2009
g54
(dp2010
sg63
g2004
sg56
(lp2011
g49
(g50
g51
NtRp2012
(dp2013
g54
(dp2014
g62
I3
ssg63
g2008
sg56
(lp2015
S'datetime.datetime(2012, 3, 4, 22, 12, 8)'
p2016
asbasbasbag49
(g65
g51
NtRp2017
(dp2018
g54
(dp2019
sg63
g1963
sg56
(lp2020
g49
(g70
g51
NtRp2021
(dp2022
g54
(dp2023
sg63
g2017
sg56
(lp2024
g49
(g50
g51
NtRp2025
(dp2026
g54
(dp2027
g62
I3
ssg63
g2021
sg56
(lp2028
g1418
asbasbasbasbasbasbasbasbasbasbasbag49
(g65
g51
NtRp2029
(dp2030
g54
(dp2031
sg63
g59
sg56
(lp2032
g49
(g70
g51
NtRp2033
(dp2034
g54
(dp2035
g74
g75
ssg63
g2029
sg56
(lp2036
S'is_https'
p2037
asbag49
(g70
g51
NtRp2038
(dp2039
g54
(dp2040
g81
g82
ssg63
g2029
sg56
(lp2041
S':'
asbag49
(g70
g51
NtRp2042
(dp2043
g54
(dp2044
sg63
g2029
sg56
(lp2045
g49
(g50
g51
NtRp2046
(dp2047
g54
(dp2048
g62
I5
ssg63
g2042
sg56
(lp2049
g92
asbasbasbag49
(g65
g51
NtRp2050
(dp2051
g54
(dp2052
sg63
g59
sg56
(lp2053
g49
(g70
g51
NtRp2054
(dp2055
g54
(dp2056
g74
g75
ssg63
g2050
sg56
(lp2057
S'is_local'
p2058
asbag49
(g70
g51
NtRp2059
(dp2060
g54
(dp2061
g81
g82
ssg63
g2050
sg56
(lp2062
S':'
asbag49
(g70
g51
NtRp2063
(dp2064
g54
(dp2065
sg63
g2050
sg56
(lp2066
g49
(g50
g51
NtRp2067
(dp2068
g54
(dp2069
g62
I5
ssg63
g2063
sg56
(lp2070
g1527
asbasbasbag49
(g65
g51
NtRp2071
(dp2072
g54
(dp2073
sg63
g59
sg56
(lp2074
g49
(g70
g51
NtRp2075
(dp2076
g54
(dp2077
g74
g75
ssg63
g2071
sg56
(lp2078
S'is_restful'
p2079
asbag49
(g70
g51
NtRp2080
(dp2081
g54
(dp2082
g81
g82
ssg63
g2071
sg56
(lp2083
S':'
asbag49
(g70
g51
NtRp2084
(dp2085
g54
(dp2086
sg63
g2071
sg56
(lp2087
g49
(g50
g51
NtRp2088
(dp2089
g54
(dp2090
g62
I5
ssg63
g2084
sg56
(lp2091
g92
asbasbasbag49
(g65
g51
NtRp2092
(dp2093
g54
(dp2094
sg63
g59
sg56
(lp2095
g49
(g70
g51
NtRp2096
(dp2097
g54
(dp2098
g74
g75
ssg63
g2092
sg56
(lp2099
S'now'
p2100
asbag49
(g70
g51
NtRp2101
(dp2102
g54
(dp2103
g81
g82
ssg63
g2092
sg56
(lp2104
S':'
asbag49
(g70
g51
NtRp2105
(dp2106
g54
(dp2107
sg63
g2092
sg56
(lp2108
g49
(g50
g51
NtRp2109
(dp2110
g54
(dp2111
g62
I5
ssg63
g2105
sg56
(lp2112
S'datetime.datetime(2012, 3, 13, 23, 22, 36, 722000)'
p2113
asbasbasbag49
(g65
g51
NtRp2114
(dp2115
g54
(dp2116
sg63
g59
sg56
(lp2117
g49
(g70
g51
NtRp2118
(dp2119
g54
(dp2120
g74
g75
ssg63
g2114
sg56
(lp2121
S'post_vars'
p2122
asbag49
(g70
g51
NtRp2123
(dp2124
g54
(dp2125
g81
g82
ssg63
g2114
sg56
(lp2126
S':'
asbag49
(g70
g51
NtRp2127
(dp2128
g54
(dp2129
sg63
g2114
sg56
(lp2130
g49
(g50
g51
NtRp2131
(dp2132
g54
(dp2133
g62
I5
ssg63
g2127
sg56
(lp2134
g49
(g58
g51
NtRp2135
(dp2136
g54
(dp2137
g62
I4
ssg63
Nsg56
(lp2138
g49
(g65
g51
NtRp2139
(dp2140
g54
(dp2141
sg63
g2135
sg56
(lp2142
g49
(g70
g51
NtRp2143
(dp2144
g54
(dp2145
g74
g75
ssg63
g2139
sg56
(lp2146
S'articulo'
p2147
asbag49
(g70
g51
NtRp2148
(dp2149
g54
(dp2150
g81
g82
ssg63
g2139
sg56
(lp2151
S':'
asbag49
(g70
g51
NtRp2152
(dp2153
g54
(dp2154
sg63
g2139
sg56
(lp2155
g49
(g50
g51
NtRp2156
(dp2157
g54
(dp2158
g62
I4
ssg63
g2152
sg56
(lp2159
S''
asbasbasbag49
(g65
g51
NtRp2160
(dp2161
g54
(dp2162
sg63
g2135
sg56
(lp2163
g49
(g70
g51
NtRp2164
(dp2165
g54
(dp2166
g74
g75
ssg63
g2160
sg56
(lp2167
S'glosario'
p2168
asbag49
(g70
g51
NtRp2169
(dp2170
g54
(dp2171
g81
g82
ssg63
g2160
sg56
(lp2172
S':'
asbag49
(g70
g51
NtRp2173
(dp2174
g54
(dp2175
sg63
g2160
sg56
(lp2176
g49
(g50
g51
NtRp2177
(dp2178
g54
(dp2179
g62
I4
ssg63
g2173
sg56
(lp2180
S''
asbasbasbag49
(g65
g51
NtRp2181
(dp2182
g54
(dp2183
sg63
g2135
sg56
(lp2184
g49
(g70
g51
NtRp2185
(dp2186
g54
(dp2187
g74
g75
ssg63
g2181
sg56
(lp2188
S'imagen'
p2189
asbag49
(g70
g51
NtRp2190
(dp2191
g54
(dp2192
g81
g82
ssg63
g2181
sg56
(lp2193
S':'
asbag49
(g70
g51
NtRp2194
(dp2195
g54
(dp2196
sg63
g2181
sg56
(lp2197
g49
(g50
g51
NtRp2198
(dp2199
g54
(dp2200
g62
I4
ssg63
g2194
sg56
(lp2201
S''
asbasbasbag49
(g65
g51
NtRp2202
(dp2203
g54
(dp2204
sg63
g2135
sg56
(lp2205
g49
(g70
g51
NtRp2206
(dp2207
g54
(dp2208
g74
g75
ssg63
g2202
sg56
(lp2209
S'palabra'
p2210
asbag49
(g70
g51
NtRp2211
(dp2212
g54
(dp2213
g81
g82
ssg63
g2202
sg56
(lp2214
S':'
asbag49
(g70
g51
NtRp2215
(dp2216
g54
(dp2217
sg63
g2202
sg56
(lp2218
g49
(g50
g51
NtRp2219
(dp2220
g54
(dp2221
g62
I4
ssg63
g2215
sg56
(lp2222
S'aaaaaaaaa'
p2223
asbasbasbag49
(g65
g51
NtRp2224
(dp2225
g54
(dp2226
sg63
g2135
sg56
(lp2227
g49
(g70
g51
NtRp2228
(dp2229
g54
(dp2230
g74
g75
ssg63
g2224
sg56
(lp2231
S'participio2'
p2232
asbag49
(g70
g51
NtRp2233
(dp2234
g54
(dp2235
g81
g82
ssg63
g2224
sg56
(lp2236
S':'
asbag49
(g70
g51
NtRp2237
(dp2238
g54
(dp2239
sg63
g2224
sg56
(lp2240
g49
(g50
g51
NtRp2241
(dp2242
g54
(dp2243
g62
I4
ssg63
g2237
sg56
(lp2244
S''
asbasbasbag49
(g65
g51
NtRp2245
(dp2246
g54
(dp2247
sg63
g2135
sg56
(lp2248
g49
(g70
g51
NtRp2249
(dp2250
g54
(dp2251
g74
g75
ssg63
g2245
sg56
(lp2252
S'plural'
p2253
asbag49
(g70
g51
NtRp2254
(dp2255
g54
(dp2256
g81
g82
ssg63
g2245
sg56
(lp2257
S':'
asbag49
(g70
g51
NtRp2258
(dp2259
g54
(dp2260
sg63
g2245
sg56
(lp2261
g49
(g50
g51
NtRp2262
(dp2263
g54
(dp2264
g62
I4
ssg63
g2258
sg56
(lp2265
S''
asbasbasbag49
(g65
g51
NtRp2266
(dp2267
g54
(dp2268
sg63
g2135
sg56
(lp2269
g49
(g70
g51
NtRp2270
(dp2271
g54
(dp2272
g74
g75
ssg63
g2266
sg56
(lp2273
S'presente_1'
p2274
asbag49
(g70
g51
NtRp2275
(dp2276
g54
(dp2277
g81
g82
ssg63
g2266
sg56
(lp2278
S':'
asbag49
(g70
g51
NtRp2279
(dp2280
g54
(dp2281
sg63
g2266
sg56
(lp2282
g49
(g50
g51
NtRp2283
(dp2284
g54
(dp2285
g62
I4
ssg63
g2279
sg56
(lp2286
S''
asbasbasbag49
(g65
g51
NtRp2287
(dp2288
g54
(dp2289
sg63
g2135
sg56
(lp2290
g49
(g70
g51
NtRp2291
(dp2292
g54
(dp2293
g74
g75
ssg63
g2287
sg56
(lp2294
S'presente_1_p'
p2295
asbag49
(g70
g51
NtRp2296
(dp2297
g54
(dp2298
g81
g82
ssg63
g2287
sg56
(lp2299
S':'
asbag49
(g70
g51
NtRp2300
(dp2301
g54
(dp2302
sg63
g2287
sg56
(lp2303
g49
(g50
g51
NtRp2304
(dp2305
g54
(dp2306
g62
I4
ssg63
g2300
sg56
(lp2307
S''
asbasbasbag49
(g65
g51
NtRp2308
(dp2309
g54
(dp2310
sg63
g2135
sg56
(lp2311
g49
(g70
g51
NtRp2312
(dp2313
g54
(dp2314
g74
g75
ssg63
g2308
sg56
(lp2315
S'presente_2'
p2316
asbag49
(g70
g51
NtRp2317
(dp2318
g54
(dp2319
g81
g82
ssg63
g2308
sg56
(lp2320
S':'
asbag49
(g70
g51
NtRp2321
(dp2322
g54
(dp2323
sg63
g2308
sg56
(lp2324
g49
(g50
g51
NtRp2325
(dp2326
g54
(dp2327
g62
I4
ssg63
g2321
sg56
(lp2328
S''
asbasbasbag49
(g65
g51
NtRp2329
(dp2330
g54
(dp2331
sg63
g2135
sg56
(lp2332
g49
(g70
g51
NtRp2333
(dp2334
g54
(dp2335
g74
g75
ssg63
g2329
sg56
(lp2336
S'presente_2_p'
p2337
asbag49
(g70
g51
NtRp2338
(dp2339
g54
(dp2340
g81
g82
ssg63
g2329
sg56
(lp2341
S':'
asbag49
(g70
g51
NtRp2342
(dp2343
g54
(dp2344
sg63
g2329
sg56
(lp2345
g49
(g50
g51
NtRp2346
(dp2347
g54
(dp2348
g62
I4
ssg63
g2342
sg56
(lp2349
S''
asbasbasbag49
(g65
g51
NtRp2350
(dp2351
g54
(dp2352
sg63
g2135
sg56
(lp2353
g49
(g70
g51
NtRp2354
(dp2355
g54
(dp2356
g74
g75
ssg63
g2350
sg56
(lp2357
S'presente_3'
p2358
asbag49
(g70
g51
NtRp2359
(dp2360
g54
(dp2361
g81
g82
ssg63
g2350
sg56
(lp2362
S':'
asbag49
(g70
g51
NtRp2363
(dp2364
g54
(dp2365
sg63
g2350
sg56
(lp2366
g49
(g50
g51
NtRp2367
(dp2368
g54
(dp2369
g62
I4
ssg63
g2363
sg56
(lp2370
S''
asbasbasbag49
(g65
g51
NtRp2371
(dp2372
g54
(dp2373
sg63
g2135
sg56
(lp2374
g49
(g70
g51
NtRp2375
(dp2376
g54
(dp2377
g74
g75
ssg63
g2371
sg56
(lp2378
S'presente_3_p'
p2379
asbag49
(g70
g51
NtRp2380
(dp2381
g54
(dp2382
g81
g82
ssg63
g2371
sg56
(lp2383
S':'
asbag49
(g70
g51
NtRp2384
(dp2385
g54
(dp2386
sg63
g2371
sg56
(lp2387
g49
(g50
g51
NtRp2388
(dp2389
g54
(dp2390
g62
I4
ssg63
g2384
sg56
(lp2391
S''
asbasbasbasbasbasbasbag49
(g65
g51
NtRp2392
(dp2393
g54
(dp2394
sg63
g59
sg56
(lp2395
g49
(g70
g51
NtRp2396
(dp2397
g54
(dp2398
g74
g75
ssg63
g2392
sg56
(lp2399
S'url'
p2400
asbag49
(g70
g51
NtRp2401
(dp2402
g54
(dp2403
g81
g82
ssg63
g2392
sg56
(lp2404
S':'
asbag49
(g70
g51
NtRp2405
(dp2406
g54
(dp2407
sg63
g2392
sg56
(lp2408
g49
(g50
g51
NtRp2409
(dp2410
g54
(dp2411
g62
I5
ssg63
g2405
sg56
(lp2412
S'/parleyweb/admin/agregar_palabra'
p2413
asbasbasbag49
(g65
g51
NtRp2414
(dp2415
g54
(dp2416
sg63
g59
sg56
(lp2417
g49
(g70
g51
NtRp2418
(dp2419
g54
(dp2420
g74
g75
ssg63
g2414
sg56
(lp2421
S'utcnow'
p2422
asbag49
(g70
g51
NtRp2423
(dp2424
g54
(dp2425
g81
g82
ssg63
g2414
sg56
(lp2426
S':'
asbag49
(g70
g51
NtRp2427
(dp2428
g54
(dp2429
sg63
g2414
sg56
(lp2430
g49
(g50
g51
NtRp2431
(dp2432
g54
(dp2433
g62
I5
ssg63
g2427
sg56
(lp2434
S'datetime.datetime(2012, 3, 13, 22, 22, 36, 722000)'
p2435
asbasbasbag49
(g65
g51
NtRp2436
(dp2437
g54
(dp2438
sg63
g59
sg56
(lp2439
g49
(g70
g51
NtRp2440
(dp2441
g54
(dp2442
g74
g75
ssg63
g2436
sg56
(lp2443
S'uuid'
p2444
asbag49
(g70
g51
NtRp2445
(dp2446
g54
(dp2447
g81
g82
ssg63
g2436
sg56
(lp2448
S':'
asbag49
(g70
g51
NtRp2449
(dp2450
g54
(dp2451
sg63
g2436
sg56
(lp2452
g49
(g50
g51
NtRp2453
(dp2454
g54
(dp2455
g62
I5
ssg63
g2449
sg56
(lp2456
S'parleyweb/127.0.0.1.2012-03-13.23-22-36.3d05f029-c8b1-4551-b42e-2c3ca28a6400'
p2457
asbasbasbag49
(g65
g51
NtRp2458
(dp2459
g54
(dp2460
sg63
g59
sg56
(lp2461
g49
(g70
g51
NtRp2462
(dp2463
g54
(dp2464
g74
g75
ssg63
g2458
sg56
(lp2465
S'vars'
p2466
asbag49
(g70
g51
NtRp2467
(dp2468
g54
(dp2469
g81
g82
ssg63
g2458
sg56
(lp2470
S':'
asbag49
(g70
g51
NtRp2471
(dp2472
g54
(dp2473
sg63
g2458
sg56
(lp2474
g49
(g50
g51
NtRp2475
(dp2476
g54
(dp2477
g62
I5
ssg63
g2471
sg56
(lp2478
g49
(g58
g51
NtRp2479
(dp2480
g54
(dp2481
g62
I4
ssg63
Nsg56
(lp2482
g49
(g65
g51
NtRp2483
(dp2484
g54
(dp2485
sg63
g2479
sg56
(lp2486
g49
(g70
g51
NtRp2487
(dp2488
g54
(dp2489
g74
g75
ssg63
g2483
sg56
(lp2490
g2147
asbag49
(g70
g51
NtRp2491
(dp2492
g54
(dp2493
g81
g82
ssg63
g2483
sg56
(lp2494
S':'
asbag49
(g70
g51
NtRp2495
(dp2496
g54
(dp2497
sg63
g2483
sg56
(lp2498
g49
(g50
g51
NtRp2499
(dp2500
g54
(dp2501
g62
I4
ssg63
g2495
sg56
(lp2502
S''
asbasbasbag49
(g65
g51
NtRp2503
(dp2504
g54
(dp2505
sg63
g2479
sg56
(lp2506
g49
(g70
g51
NtRp2507
(dp2508
g54
(dp2509
g74
g75
ssg63
g2503
sg56
(lp2510
g2168
asbag49
(g70
g51
NtRp2511
(dp2512
g54
(dp2513
g81
g82
ssg63
g2503
sg56
(lp2514
S':'
asbag49
(g70
g51
NtRp2515
(dp2516
g54
(dp2517
sg63
g2503
sg56
(lp2518
g49
(g50
g51
NtRp2519
(dp2520
g54
(dp2521
g62
I4
ssg63
g2515
sg56
(lp2522
S''
asbasbasbag49
(g65
g51
NtRp2523
(dp2524
g54
(dp2525
sg63
g2479
sg56
(lp2526
g49
(g70
g51
NtRp2527
(dp2528
g54
(dp2529
g74
g75
ssg63
g2523
sg56
(lp2530
g2189
asbag49
(g70
g51
NtRp2531
(dp2532
g54
(dp2533
g81
g82
ssg63
g2523
sg56
(lp2534
S':'
asbag49
(g70
g51
NtRp2535
(dp2536
g54
(dp2537
sg63
g2523
sg56
(lp2538
g49
(g50
g51
NtRp2539
(dp2540
g54
(dp2541
g62
I4
ssg63
g2535
sg56
(lp2542
S''
asbasbasbag49
(g65
g51
NtRp2543
(dp2544
g54
(dp2545
sg63
g2479
sg56
(lp2546
g49
(g70
g51
NtRp2547
(dp2548
g54
(dp2549
g74
g75
ssg63
g2543
sg56
(lp2550
g2210
asbag49
(g70
g51
NtRp2551
(dp2552
g54
(dp2553
g81
g82
ssg63
g2543
sg56
(lp2554
S':'
asbag49
(g70
g51
NtRp2555
(dp2556
g54
(dp2557
sg63
g2543
sg56
(lp2558
g49
(g50
g51
NtRp2559
(dp2560
g54
(dp2561
g62
I4
ssg63
g2555
sg56
(lp2562
g2223
asbasbasbag49
(g65
g51
NtRp2563
(dp2564
g54
(dp2565
sg63
g2479
sg56
(lp2566
g49
(g70
g51
NtRp2567
(dp2568
g54
(dp2569
g74
g75
ssg63
g2563
sg56
(lp2570
g2232
asbag49
(g70
g51
NtRp2571
(dp2572
g54
(dp2573
g81
g82
ssg63
g2563
sg56
(lp2574
S':'
asbag49
(g70
g51
NtRp2575
(dp2576
g54
(dp2577
sg63
g2563
sg56
(lp2578
g49
(g50
g51
NtRp2579
(dp2580
g54
(dp2581
g62
I4
ssg63
g2575
sg56
(lp2582
S''
asbasbasbag49
(g65
g51
NtRp2583
(dp2584
g54
(dp2585
sg63
g2479
sg56
(lp2586
g49
(g70
g51
NtRp2587
(dp2588
g54
(dp2589
g74
g75
ssg63
g2583
sg56
(lp2590
g2253
asbag49
(g70
g51
NtRp2591
(dp2592
g54
(dp2593
g81
g82
ssg63
g2583
sg56
(lp2594
S':'
asbag49
(g70
g51
NtRp2595
(dp2596
g54
(dp2597
sg63
g2583
sg56
(lp2598
g49
(g50
g51
NtRp2599
(dp2600
g54
(dp2601
g62
I4
ssg63
g2595
sg56
(lp2602
S''
asbasbasbag49
(g65
g51
NtRp2603
(dp2604
g54
(dp2605
sg63
g2479
sg56
(lp2606
g49
(g70
g51
NtRp2607
(dp2608
g54
(dp2609
g74
g75
ssg63
g2603
sg56
(lp2610
g2274
asbag49
(g70
g51
NtRp2611
(dp2612
g54
(dp2613
g81
g82
ssg63
g2603
sg56
(lp2614
S':'
asbag49
(g70
g51
NtRp2615
(dp2616
g54
(dp2617
sg63
g2603
sg56
(lp2618
g49
(g50
g51
NtRp2619
(dp2620
g54
(dp2621
g62
I4
ssg63
g2615
sg56
(lp2622
S''
asbasbasbag49
(g65
g51
NtRp2623
(dp2624
g54
(dp2625
sg63
g2479
sg56
(lp2626
g49
(g70
g51
NtRp2627
(dp2628
g54
(dp2629
g74
g75
ssg63
g2623
sg56
(lp2630
g2295
asbag49
(g70
g51
NtRp2631
(dp2632
g54
(dp2633
g81
g82
ssg63
g2623
sg56
(lp2634
S':'
asbag49
(g70
g51
NtRp2635
(dp2636
g54
(dp2637
sg63
g2623
sg56
(lp2638
g49
(g50
g51
NtRp2639
(dp2640
g54
(dp2641
g62
I4
ssg63
g2635
sg56
(lp2642
S''
asbasbasbag49
(g65
g51
NtRp2643
(dp2644
g54
(dp2645
sg63
g2479
sg56
(lp2646
g49
(g70
g51
NtRp2647
(dp2648
g54
(dp2649
g74
g75
ssg63
g2643
sg56
(lp2650
g2316
asbag49
(g70
g51
NtRp2651
(dp2652
g54
(dp2653
g81
g82
ssg63
g2643
sg56
(lp2654
S':'
asbag49
(g70
g51
NtRp2655
(dp2656
g54
(dp2657
sg63
g2643
sg56
(lp2658
g49
(g50
g51
NtRp2659
(dp2660
g54
(dp2661
g62
I4
ssg63
g2655
sg56
(lp2662
S''
asbasbasbag49
(g65
g51
NtRp2663
(dp2664
g54
(dp2665
sg63
g2479
sg56
(lp2666
g49
(g70
g51
NtRp2667
(dp2668
g54
(dp2669
g74
g75
ssg63
g2663
sg56
(lp2670
g2337
asbag49
(g70
g51
NtRp2671
(dp2672
g54
(dp2673
g81
g82
ssg63
g2663
sg56
(lp2674
S':'
asbag49
(g70
g51
NtRp2675
(dp2676
g54
(dp2677
sg63
g2663
sg56
(lp2678
g49
(g50
g51
NtRp2679
(dp2680
g54
(dp2681
g62
I4
ssg63
g2675
sg56
(lp2682
S''
asbasbasbag49
(g65
g51
NtRp2683
(dp2684
g54
(dp2685
sg63
g2479
sg56
(lp2686
g49
(g70
g51
NtRp2687
(dp2688
g54
(dp2689
g74
g75
ssg63
g2683
sg56
(lp2690
g2358
asbag49
(g70
g51
NtRp2691
(dp2692
g54
(dp2693
g81
g82
ssg63
g2683
sg56
(lp2694
S':'
asbag49
(g70
g51
NtRp2695
(dp2696
g54
(dp2697
sg63
g2683
sg56
(lp2698
g49
(g50
g51
NtRp2699
(dp2700
g54
(dp2701
g62
I4
ssg63
g2695
sg56
(lp2702
S''
asbasbasbag49
(g65
g51
NtRp2703
(dp2704
g54
(dp2705
sg63
g2479
sg56
(lp2706
g49
(g70
g51
NtRp2707
(dp2708
g54
(dp2709
g74
g75
ssg63
g2703
sg56
(lp2710
g2379
asbag49
(g70
g51
NtRp2711
(dp2712
g54
(dp2713
g81
g82
ssg63
g2703
sg56
(lp2714
S':'
asbag49
(g70
g51
NtRp2715
(dp2716
g54
(dp2717
sg63
g2703
sg56
(lp2718
g49
(g50
g51
NtRp2719
(dp2720
g54
(dp2721
g62
I4
ssg63
g2715
sg56
(lp2722
S''
asbasbasbasbasbasbasbag49
(g65
g51
NtRp2723
(dp2724
g54
(dp2725
sg63
g59
sg56
(lp2726
g49
(g70
g51
NtRp2727
(dp2728
g54
(dp2729
g74
g75
ssg63
g2723
sg56
(lp2730
S'wsgi'
p2731
asbag49
(g70
g51
NtRp2732
(dp2733
g54
(dp2734
g81
g82
ssg63
g2723
sg56
(lp2735
S':'
asbag49
(g70
g51
NtRp2736
(dp2737
g54
(dp2738
sg63
g2723
sg56
(lp2739
g49
(g50
g51
NtRp2740
(dp2741
g54
(dp2742
g62
I5
ssg63
g2736
sg56
(lp2743
g49
(g58
g51
NtRp2744
(dp2745
g54
(dp2746
g62
I4
ssg63
Nsg56
(lp2747
g49
(g65
g51
NtRp2748
(dp2749
g54
(dp2750
sg63
g2744
sg56
(lp2751
g49
(g70
g51
NtRp2752
(dp2753
g54
(dp2754
g74
g75
ssg63
g2748
sg56
(lp2755
S'environ'
p2756
asbag49
(g70
g51
NtRp2757
(dp2758
g54
(dp2759
g81
g82
ssg63
g2748
sg56
(lp2760
S':'
asbag49
(g70
g51
NtRp2761
(dp2762
g54
(dp2763
sg63
g2748
sg56
(lp2764
g49
(g50
g51
NtRp2765
(dp2766
g54
(dp2767
g62
I4
ssg63
g2761
sg56
(lp2768
g49
(g58
g51
NtRp2769
(dp2770
g54
(dp2771
g62
I3
ssg63
Nsg56
(lp2772
g49
(g65
g51
NtRp2773
(dp2774
g54
(dp2775
sg63
g2769
sg56
(lp2776
g49
(g70
g51
NtRp2777
(dp2778
g54
(dp2779
g74
g75
ssg63
g2773
sg56
(lp2780
S'CONTENT_LENGTH'
p2781
asbag49
(g70
g51
NtRp2782
(dp2783
g54
(dp2784
g81
g82
ssg63
g2773
sg56
(lp2785
S':'
asbag49
(g70
g51
NtRp2786
(dp2787
g54
(dp2788
sg63
g2773
sg56
(lp2789
g49
(g50
g51
NtRp2790
(dp2791
g54
(dp2792
g62
I3
ssg63
g2786
sg56
(lp2793
g680
asbasbasbag49
(g65
g51
NtRp2794
(dp2795
g54
(dp2796
sg63
g2769
sg56
(lp2797
g49
(g70
g51
NtRp2798
(dp2799
g54
(dp2800
g74
g75
ssg63
g2794
sg56
(lp2801
S'CONTENT_TYPE'
p2802
asbag49
(g70
g51
NtRp2803
(dp2804
g54
(dp2805
g81
g82
ssg63
g2794
sg56
(lp2806
S':'
asbag49
(g70
g51
NtRp2807
(dp2808
g54
(dp2809
sg63
g2794
sg56
(lp2810
g49
(g50
g51
NtRp2811
(dp2812
g54
(dp2813
g62
I3
ssg63
g2807
sg56
(lp2814
g702
asbasbasbag49
(g65
g51
NtRp2815
(dp2816
g54
(dp2817
sg63
g2769
sg56
(lp2818
g49
(g70
g51
NtRp2819
(dp2820
g54
(dp2821
g74
g75
ssg63
g2815
sg56
(lp2822
S'HTTP_ACCEPT'
p2823
asbag49
(g70
g51
NtRp2824
(dp2825
g54
(dp2826
g81
g82
ssg63
g2815
sg56
(lp2827
S':'
asbag49
(g70
g51
NtRp2828
(dp2829
g54
(dp2830
sg63
g2815
sg56
(lp2831
g49
(g50
g51
NtRp2832
(dp2833
g54
(dp2834
g62
I3
ssg63
g2828
sg56
(lp2835
g789
asbasbasbag49
(g65
g51
NtRp2836
(dp2837
g54
(dp2838
sg63
g2769
sg56
(lp2839
g49
(g70
g51
NtRp2840
(dp2841
g54
(dp2842
g74
g75
ssg63
g2836
sg56
(lp2843
S'HTTP_ACCEPT_ENCODING'
p2844
asbag49
(g70
g51
NtRp2845
(dp2846
g54
(dp2847
g81
g82
ssg63
g2836
sg56
(lp2848
S':'
asbag49
(g70
g51
NtRp2849
(dp2850
g54
(dp2851
sg63
g2836
sg56
(lp2852
g49
(g50
g51
NtRp2853
(dp2854
g54
(dp2855
g62
I3
ssg63
g2849
sg56
(lp2856
g811
asbasbasbag49
(g65
g51
NtRp2857
(dp2858
g54
(dp2859
sg63
g2769
sg56
(lp2860
g49
(g70
g51
NtRp2861
(dp2862
g54
(dp2863
g74
g75
ssg63
g2857
sg56
(lp2864
S'HTTP_ACCEPT_LANGUAGE'
p2865
asbag49
(g70
g51
NtRp2866
(dp2867
g54
(dp2868
g81
g82
ssg63
g2857
sg56
(lp2869
S':'
asbag49
(g70
g51
NtRp2870
(dp2871
g54
(dp2872
sg63
g2857
sg56
(lp2873
g49
(g50
g51
NtRp2874
(dp2875
g54
(dp2876
g62
I3
ssg63
g2870
sg56
(lp2877
g833
asbasbasbag49
(g65
g51
NtRp2878
(dp2879
g54
(dp2880
sg63
g2769
sg56
(lp2881
g49
(g70
g51
NtRp2882
(dp2883
g54
(dp2884
g74
g75
ssg63
g2878
sg56
(lp2885
S'HTTP_CONNECTION'
p2886
asbag49
(g70
g51
NtRp2887
(dp2888
g54
(dp2889
g81
g82
ssg63
g2878
sg56
(lp2890
S':'
asbag49
(g70
g51
NtRp2891
(dp2892
g54
(dp2893
sg63
g2878
sg56
(lp2894
g49
(g50
g51
NtRp2895
(dp2896
g54
(dp2897
g62
I3
ssg63
g2891
sg56
(lp2898
g855
asbasbasbag49
(g65
g51
NtRp2899
(dp2900
g54
(dp2901
sg63
g2769
sg56
(lp2902
g49
(g70
g51
NtRp2903
(dp2904
g54
(dp2905
g74
g75
ssg63
g2899
sg56
(lp2906
S'HTTP_CONTENT_LENGTH'
p2907
asbag49
(g70
g51
NtRp2908
(dp2909
g54
(dp2910
g81
g82
ssg63
g2899
sg56
(lp2911
S':'
asbag49
(g70
g51
NtRp2912
(dp2913
g54
(dp2914
sg63
g2899
sg56
(lp2915
g49
(g50
g51
NtRp2916
(dp2917
g54
(dp2918
g62
I3
ssg63
g2912
sg56
(lp2919
g680
asbasbasbag49
(g65
g51
NtRp2920
(dp2921
g54
(dp2922
sg63
g2769
sg56
(lp2923
g49
(g70
g51
NtRp2924
(dp2925
g54
(dp2926
g74
g75
ssg63
g2920
sg56
(lp2927
S'HTTP_CONTENT_TYPE'
p2928
asbag49
(g70
g51
NtRp2929
(dp2930
g54
(dp2931
g81
g82
ssg63
g2920
sg56
(lp2932
S':'
asbag49
(g70
g51
NtRp2933
(dp2934
g54
(dp2935
sg63
g2920
sg56
(lp2936
g49
(g50
g51
NtRp2937
(dp2938
g54
(dp2939
g62
I3
ssg63
g2933
sg56
(lp2940
g702
asbasbasbag49
(g65
g51
NtRp2941
(dp2942
g54
(dp2943
sg63
g2769
sg56
(lp2944
g49
(g70
g51
NtRp2945
(dp2946
g54
(dp2947
g74
g75
ssg63
g2941
sg56
(lp2948
S'HTTP_COOKIE'
p2949
asbag49
(g70
g51
NtRp2950
(dp2951
g54
(dp2952
g81
g82
ssg63
g2941
sg56
(lp2953
S':'
asbag49
(g70
g51
NtRp2954
(dp2955
g54
(dp2956
sg63
g2941
sg56
(lp2957
g49
(g50
g51
NtRp2958
(dp2959
g54
(dp2960
g62
I3
ssg63
g2954
sg56
(lp2961
g919
asbasbasbag49
(g65
g51
NtRp2962
(dp2963
g54
(dp2964
sg63
g2769
sg56
(lp2965
g49
(g70
g51
NtRp2966
(dp2967
g54
(dp2968
g74
g75
ssg63
g2962
sg56
(lp2969
S'HTTP_HOST'
p2970
asbag49
(g70
g51
NtRp2971
(dp2972
g54
(dp2973
g81
g82
ssg63
g2962
sg56
(lp2974
S':'
asbag49
(g70
g51
NtRp2975
(dp2976
g54
(dp2977
sg63
g2962
sg56
(lp2978
g49
(g50
g51
NtRp2979
(dp2980
g54
(dp2981
g62
I3
ssg63
g2975
sg56
(lp2982
g941
asbasbasbag49
(g65
g51
NtRp2983
(dp2984
g54
(dp2985
sg63
g2769
sg56
(lp2986
g49
(g70
g51
NtRp2987
(dp2988
g54
(dp2989
g74
g75
ssg63
g2983
sg56
(lp2990
S'HTTP_REFERER'
p2991
asbag49
(g70
g51
NtRp2992
(dp2993
g54
(dp2994
g81
g82
ssg63
g2983
sg56
(lp2995
S':'
asbag49
(g70
g51
NtRp2996
(dp2997
g54
(dp2998
sg63
g2983
sg56
(lp2999
g49
(g50
g51
NtRp3000
(dp3001
g54
(dp3002
g62
I3
ssg63
g2996
sg56
(lp3003
g963
asbasbasbag49
(g65
g51
NtRp3004
(dp3005
g54
(dp3006
sg63
g2769
sg56
(lp3007
g49
(g70
g51
NtRp3008
(dp3009
g54
(dp3010
g74
g75
ssg63
g3004
sg56
(lp3011
S'HTTP_USER_AGENT'
p3012
asbag49
(g70
g51
NtRp3013
(dp3014
g54
(dp3015
g81
g82
ssg63
g3004
sg56
(lp3016
S':'
asbag49
(g70
g51
NtRp3017
(dp3018
g54
(dp3019
sg63
g3004
sg56
(lp3020
g49
(g50
g51
NtRp3021
(dp3022
g54
(dp3023
g62
I3
ssg63
g3017
sg56
(lp3024
g985
asbasbasbag49
(g65
g51
NtRp3025
(dp3026
g54
(dp3027
sg63
g2769
sg56
(lp3028
g49
(g70
g51
NtRp3029
(dp3030
g54
(dp3031
g74
g75
ssg63
g3025
sg56
(lp3032
S'PATH_INFO'
p3033
asbag49
(g70
g51
NtRp3034
(dp3035
g54
(dp3036
g81
g82
ssg63
g3025
sg56
(lp3037
S':'
asbag49
(g70
g51
NtRp3038
(dp3039
g54
(dp3040
sg63
g3025
sg56
(lp3041
g49
(g50
g51
NtRp3042
(dp3043
g54
(dp3044
g62
I3
ssg63
g3038
sg56
(lp3045
g1049
asbasbasbag49
(g65
g51
NtRp3046
(dp3047
g54
(dp3048
sg63
g2769
sg56
(lp3049
g49
(g70
g51
NtRp3050
(dp3051
g54
(dp3052
g74
g75
ssg63
g3046
sg56
(lp3053
S'QUERY_STRING'
p3054
asbag49
(g70
g51
NtRp3055
(dp3056
g54
(dp3057
g81
g82
ssg63
g3046
sg56
(lp3058
S':'
asbag49
(g70
g51
NtRp3059
(dp3060
g54
(dp3061
sg63
g3046
sg56
(lp3062
g49
(g50
g51
NtRp3063
(dp3064
g54
(dp3065
g62
I3
ssg63
g3059
sg56
(lp3066
S''
asbasbasbag49
(g65
g51
NtRp3067
(dp3068
g54
(dp3069
sg63
g2769
sg56
(lp3070
g49
(g70
g51
NtRp3071
(dp3072
g54
(dp3073
g74
g75
ssg63
g3067
sg56
(lp3074
S'REMOTE_ADDR'
p3075
asbag49
(g70
g51
NtRp3076
(dp3077
g54
(dp3078
g81
g82
ssg63
g3067
sg56
(lp3079
S':'
asbag49
(g70
g51
NtRp3080
(dp3081
g54
(dp3082
sg63
g3067
sg56
(lp3083
g49
(g50
g51
NtRp3084
(dp3085
g54
(dp3086
g62
I3
ssg63
g3080
sg56
(lp3087
g158
asbasbasbag49
(g65
g51
NtRp3088
(dp3089
g54
(dp3090
sg63
g2769
sg56
(lp3091
g49
(g70
g51
NtRp3092
(dp3093
g54
(dp3094
g74
g75
ssg63
g3088
sg56
(lp3095
S'REMOTE_PORT'
p3096
asbag49
(g70
g51
NtRp3097
(dp3098
g54
(dp3099
g81
g82
ssg63
g3088
sg56
(lp3100
S':'
asbag49
(g70
g51
NtRp3101
(dp3102
g54
(dp3103
sg63
g3088
sg56
(lp3104
g49
(g50
g51
NtRp3105
(dp3106
g54
(dp3107
g62
I3
ssg63
g3101
sg56
(lp3108
g1113
asbasbasbag49
(g65
g51
NtRp3109
(dp3110
g54
(dp3111
sg63
g2769
sg56
(lp3112
g49
(g70
g51
NtRp3113
(dp3114
g54
(dp3115
g74
g75
ssg63
g3109
sg56
(lp3116
S'REQUEST_METHOD'
p3117
asbag49
(g70
g51
NtRp3118
(dp3119
g54
(dp3120
g81
g82
ssg63
g3109
sg56
(lp3121
S':'
asbag49
(g70
g51
NtRp3122
(dp3123
g54
(dp3124
sg63
g3109
sg56
(lp3125
g49
(g50
g51
NtRp3126
(dp3127
g54
(dp3128
g62
I3
ssg63
g3122
sg56
(lp3129
g1135
asbasbasbag49
(g65
g51
NtRp3130
(dp3131
g54
(dp3132
sg63
g2769
sg56
(lp3133
g49
(g70
g51
NtRp3134
(dp3135
g54
(dp3136
g74
g75
ssg63
g3130
sg56
(lp3137
S'REQUEST_URI'
p3138
asbag49
(g70
g51
NtRp3139
(dp3140
g54
(dp3141
g81
g82
ssg63
g3130
sg56
(lp3142
S':'
asbag49
(g70
g51
NtRp3143
(dp3144
g54
(dp3145
sg63
g3130
sg56
(lp3146
g49
(g50
g51
NtRp3147
(dp3148
g54
(dp3149
g62
I3
ssg63
g3143
sg56
(lp3150
g1049
asbasbasbag49
(g65
g51
NtRp3151
(dp3152
g54
(dp3153
sg63
g2769
sg56
(lp3154
g49
(g70
g51
NtRp3155
(dp3156
g54
(dp3157
g74
g75
ssg63
g3151
sg56
(lp3158
S'SCRIPT_NAME'
p3159
asbag49
(g70
g51
NtRp3160
(dp3161
g54
(dp3162
g81
g82
ssg63
g3151
sg56
(lp3163
S':'
asbag49
(g70
g51
NtRp3164
(dp3165
g54
(dp3166
sg63
g3151
sg56
(lp3167
g49
(g50
g51
NtRp3168
(dp3169
g54
(dp3170
g62
I3
ssg63
g3164
sg56
(lp3171
S''
asbasbasbag49
(g65
g51
NtRp3172
(dp3173
g54
(dp3174
sg63
g2769
sg56
(lp3175
g49
(g70
g51
NtRp3176
(dp3177
g54
(dp3178
g74
g75
ssg63
g3172
sg56
(lp3179
S'SERVER_NAME'
p3180
asbag49
(g70
g51
NtRp3181
(dp3182
g54
(dp3183
g81
g82
ssg63
g3172
sg56
(lp3184
S':'
asbag49
(g70
g51
NtRp3185
(dp3186
g54
(dp3187
sg63
g3172
sg56
(lp3188
g49
(g50
g51
NtRp3189
(dp3190
g54
(dp3191
g62
I3
ssg63
g3185
sg56
(lp3192
g1199
asbasbasbag49
(g65
g51
NtRp3193
(dp3194
g54
(dp3195
sg63
g2769
sg56
(lp3196
g49
(g70
g51
NtRp3197
(dp3198
g54
(dp3199
g74
g75
ssg63
g3193
sg56
(lp3200
S'SERVER_PORT'
p3201
asbag49
(g70
g51
NtRp3202
(dp3203
g54
(dp3204
g81
g82
ssg63
g3193
sg56
(lp3205
S':'
asbag49
(g70
g51
NtRp3206
(dp3207
g54
(dp3208
sg63
g3193
sg56
(lp3209
g49
(g50
g51
NtRp3210
(dp3211
g54
(dp3212
g62
I3
ssg63
g3206
sg56
(lp3213
g1221
asbasbasbag49
(g65
g51
NtRp3214
(dp3215
g54
(dp3216
sg63
g2769
sg56
(lp3217
g49
(g70
g51
NtRp3218
(dp3219
g54
(dp3220
g74
g75
ssg63
g3214
sg56
(lp3221
S'SERVER_PROTOCOL'
p3222
asbag49
(g70
g51
NtRp3223
(dp3224
g54
(dp3225
g81
g82
ssg63
g3214
sg56
(lp3226
S':'
asbag49
(g70
g51
NtRp3227
(dp3228
g54
(dp3229
sg63
g3214
sg56
(lp3230
g49
(g50
g51
NtRp3231
(dp3232
g54
(dp3233
g62
I3
ssg63
g3227
sg56
(lp3234
g1243
asbasbasbag49
(g65
g51
NtRp3235
(dp3236
g54
(dp3237
sg63
g2769
sg56
(lp3238
g49
(g70
g51
NtRp3239
(dp3240
g54
(dp3241
g74
g75
ssg63
g3235
sg56
(lp3242
S'SERVER_SOFTWARE'
p3243
asbag49
(g70
g51
NtRp3244
(dp3245
g54
(dp3246
g81
g82
ssg63
g3235
sg56
(lp3247
S':'
asbag49
(g70
g51
NtRp3248
(dp3249
g54
(dp3250
sg63
g3235
sg56
(lp3251
g49
(g50
g51
NtRp3252
(dp3253
g54
(dp3254
g62
I3
ssg63
g3248
sg56
(lp3255
g1265
asbasbasbag49
(g65
g51
NtRp3256
(dp3257
g54
(dp3258
sg63
g2769
sg56
(lp3259
g49
(g70
g51
NtRp3260
(dp3261
g54
(dp3262
g74
g75
ssg63
g3256
sg56
(lp3263
S'WEB2PY_ORIGINAL_URI'
p3264
asbag49
(g70
g51
NtRp3265
(dp3266
g54
(dp3267
g81
g82
ssg63
g3256
sg56
(lp3268
S':'
asbag49
(g70
g51
NtRp3269
(dp3270
g54
(dp3271
sg63
g3256
sg56
(lp3272
g49
(g50
g51
NtRp3273
(dp3274
g54
(dp3275
g62
I3
ssg63
g3269
sg56
(lp3276
g1309
asbasbasbag49
(g65
g51
NtRp3277
(dp3278
g54
(dp3279
sg63
g2769
sg56
(lp3280
g49
(g70
g51
NtRp3281
(dp3282
g54
(dp3283
g74
g75
ssg63
g3277
sg56
(lp3284
S'wsgi.errors'
p3285
asbag49
(g70
g51
NtRp3286
(dp3287
g54
(dp3288
g81
g82
ssg63
g3277
sg56
(lp3289
S':'
asbag49
(g70
g51
NtRp3290
(dp3291
g54
(dp3292
sg63
g3277
sg56
(lp3293
g49
(g50
g51
NtRp3294
(dp3295
g54
(dp3296
g62
I3
ssg63
g3290
sg56
(lp3297
S"<open file '<stderr>', mode 'w' at 0x004900B0>"
p3298
asbasbasbag49
(g65
g51
NtRp3299
(dp3300
g54
(dp3301
sg63
g2769
sg56
(lp3302
g49
(g70
g51
NtRp3303
(dp3304
g54
(dp3305
g74
g75
ssg63
g3299
sg56
(lp3306
S'wsgi.file_wrapper'
p3307
asbag49
(g70
g51
NtRp3308
(dp3309
g54
(dp3310
g81
g82
ssg63
g3299
sg56
(lp3311
S':'
asbag49
(g70
g51
NtRp3312
(dp3313
g54
(dp3314
sg63
g3299
sg56
(lp3315
g49
(g50
g51
NtRp3316
(dp3317
g54
(dp3318
g62
I3
ssg63
g3312
sg56
(lp3319
S'<class wsgiref.util.FileWrapper at 0x02EC5390>'
p3320
asbasbasbag49
(g65
g51
NtRp3321
(dp3322
g54
(dp3323
sg63
g2769
sg56
(lp3324
g49
(g70
g51
NtRp3325
(dp3326
g54
(dp3327
g74
g75
ssg63
g3321
sg56
(lp3328
S'wsgi.input'
p3329
asbag49
(g70
g51
NtRp3330
(dp3331
g54
(dp3332
g81
g82
ssg63
g3321
sg56
(lp3333
S':'
asbag49
(g70
g51
NtRp3334
(dp3335
g54
(dp3336
sg63
g3321
sg56
(lp3337
g49
(g50
g51
NtRp3338
(dp3339
g54
(dp3340
g62
I3
ssg63
g3334
sg56
(lp3341
S"<open file '<fdopen>', mode 'w+b' at 0x07439EC0>"
p3342
asbasbasbag49
(g65
g51
NtRp3343
(dp3344
g54
(dp3345
sg63
g2769
sg56
(lp3346
g49
(g70
g51
NtRp3347
(dp3348
g54
(dp3349
g74
g75
ssg63
g3343
sg56
(lp3350
S'wsgi.multiprocess'
p3351
asbag49
(g70
g51
NtRp3352
(dp3353
g54
(dp3354
g81
g82
ssg63
g3343
sg56
(lp3355
S':'
asbag49
(g70
g51
NtRp3356
(dp3357
g54
(dp3358
sg63
g3343
sg56
(lp3359
g49
(g50
g51
NtRp3360
(dp3361
g54
(dp3362
g62
I3
ssg63
g3356
sg56
(lp3363
g92
asbasbasbag49
(g65
g51
NtRp3364
(dp3365
g54
(dp3366
sg63
g2769
sg56
(lp3367
g49
(g70
g51
NtRp3368
(dp3369
g54
(dp3370
g74
g75
ssg63
g3364
sg56
(lp3371
S'wsgi.multithread'
p3372
asbag49
(g70
g51
NtRp3373
(dp3374
g54
(dp3375
g81
g82
ssg63
g3364
sg56
(lp3376
S':'
asbag49
(g70
g51
NtRp3377
(dp3378
g54
(dp3379
sg63
g3364
sg56
(lp3380
g49
(g50
g51
NtRp3381
(dp3382
g54
(dp3383
g62
I3
ssg63
g3377
sg56
(lp3384
g1527
asbasbasbag49
(g65
g51
NtRp3385
(dp3386
g54
(dp3387
sg63
g2769
sg56
(lp3388
g49
(g70
g51
NtRp3389
(dp3390
g54
(dp3391
g74
g75
ssg63
g3385
sg56
(lp3392
S'wsgi.run_once'
p3393
asbag49
(g70
g51
NtRp3394
(dp3395
g54
(dp3396
g81
g82
ssg63
g3385
sg56
(lp3397
S':'
asbag49
(g70
g51
NtRp3398
(dp3399
g54
(dp3400
sg63
g3385
sg56
(lp3401
g49
(g50
g51
NtRp3402
(dp3403
g54
(dp3404
g62
I3
ssg63
g3398
sg56
(lp3405
g92
asbasbasbag49
(g65
g51
NtRp3406
(dp3407
g54
(dp3408
sg63
g2769
sg56
(lp3409
g49
(g70
g51
NtRp3410
(dp3411
g54
(dp3412
g74
g75
ssg63
g3406
sg56
(lp3413
S'wsgi.url_scheme'
p3414
asbag49
(g70
g51
NtRp3415
(dp3416
g54
(dp3417
g81
g82
ssg63
g3406
sg56
(lp3418
S':'
asbag49
(g70
g51
NtRp3419
(dp3420
g54
(dp3421
sg63
g3406
sg56
(lp3422
g49
(g50
g51
NtRp3423
(dp3424
g54
(dp3425
g62
I3
ssg63
g3419
sg56
(lp3426
g1570
asbasbasbag49
(g65
g51
NtRp3427
(dp3428
g54
(dp3429
sg63
g2769
sg56
(lp3430
g49
(g70
g51
NtRp3431
(dp3432
g54
(dp3433
g74
g75
ssg63
g3427
sg56
(lp3434
S'wsgi.version'
p3435
asbag49
(g70
g51
NtRp3436
(dp3437
g54
(dp3438
g81
g82
ssg63
g3427
sg56
(lp3439
S':'
asbag49
(g70
g51
NtRp3440
(dp3441
g54
(dp3442
sg63
g3427
sg56
(lp3443
g49
(g50
g51
NtRp3444
(dp3445
g54
(dp3446
g62
I3
ssg63
g3440
sg56
(lp3447
S'1'
asbasbasbasbasbasbasbasbasbasbasbasbasbsS'frames'
p3448
(lp3449
(dp3450
S'file'
p3451
S'D:\\Dise\xf1o Web\\Proyectos\\Parleyweb\\web2py\\gluon\\restricted.py'
p3452
sS'dump'
p3453
(dp3454
sS'lnum'
p3455
I205
sS'lines'
p3456
(dp3457
sS'call'
p3458
S"(code='# coding: utf8\\n# intente algo como\\ndef index():\\n...response._vars=response._caller(agregar_palabra)\\n', environment={'A': <class 'gluon.html.A'>, 'Auth': <class 'gluon.tools.Auth'>, 'B': <class 'gluon.html.B'>, 'BEAUTIFY': <class 'gluon.html.BEAUTIFY'>, 'BODY': <class 'gluon.html.BODY'>, 'BR': <class 'gluon.html.BR'>, 'BUTTON': <class 'gluon.html.BUTTON'>, 'CAT': <class 'gluon.html.CAT'>, 'CENTER': <class 'gluon.html.CENTER'>, 'CLEANUP': <class 'gluon.validators.CLEANUP'>, ...}, layer='D:\\\\Dise\\xf1o Web\\\\Proyectos\\\\Parleyweb\\\\web2py\\\\applications\\\\parleyweb\\\\controllers/admin.py')"
p3459
sS'func'
p3460
S'restricted'
p3461
sa(dp3462
g3451
S'D:\\Dise\xf1o Web\\Proyectos\\Parleyweb\\web2py\\applications\\parleyweb\\controllers\\admin.py'
p3463
sg3453
(dp3464
sg3455
I250
sg3456
(dp3465
I239
S''
sI240
S''
sI241
S''
sI242
S''
sI243
S''
sI244
S''
sI245
S''
sI246
S''
sI247
S''
sI248
S''
ssg3458
S'()'
p3466
sg3460
S'<module>'
p3467
sa(dp3468
g3451
S'D:\\Dise\xf1o Web\\Proyectos\\Parleyweb\\web2py\\gluon\\globals.py'
p3469
sg3453
(dp3470
sg3455
I173
sg3456
(dp3471
sg3458
S'(f=<function agregar_palabra at 0x06BC44B0>)'
p3472
sg3460
S'<lambda>'
p3473
sa(dp3474
g3451
S'D:\\Dise\xf1o Web\\Proyectos\\Parleyweb\\web2py\\applications\\parleyweb\\controllers\\admin.py'
p3475
sg3453
(dp3476
sg3455
I33
sg3456
(dp3477
I32
S'    if agregar.accepts(request.vars, session): #metodo para validar las entradas del formulario'
p3478
sI33
S"       redirect(URL('buscar_ejemplos', args_raw=request.post_var.palabra))"
p3479
sI34
S"       #response.flash = 'Registro insertado' # mensajes del sistema"
p3480
sI35
S'    elif agregar.errors:  # Metodo usado para cuando se producen errores'
p3481
sI36
S"       response.flash = 'Hay un error'"
p3482
sI37
S'    contador_ejemplo = db().select(db.palabra_ejemplo.ALL) # selecionar todos los registro de la tabla palabra_ejemplo para luego contarlos'
p3483
sI28
S'    if request.raw_args:'
p3484
sI29
S'        db.palabras.palabra.default = request.raw_args'
p3485
sI30
S"    db.palabras.palabra.requires = IS_NOT_IN_DB(db,'palabras.palabra') # Validacion para  la palabra que se inserte no puede estar ya en la DB"
p3486
sI31
S'    agregar = SQLFORM(db.palabras, formstyle="divs", _id="form-agregar", submit_button="Enviar" , _autocomplete="off") # se genera el formulario para la tabla palabras'
p3487
ssg3458
S'()'
p3488
sg3460
S'agregar_palabra'
p3489
sasS'pyver'
p3490
S'Python 2.5.4: D:\\Dise\xf1o Web\\Proyectos\\Parleyweb\\web2py\\web2py.exe'
p3491
sS'session'
p3492
g49
(g50
g51
NtRp3493
(dp3494
g54
(dp3495
sg56
(lp3496
g49
(g58
g51
NtRp3497
(dp3498
g54
(dp3499
g62
I5
ssg63
Nsg56
(lp3500
sbasbsS'etype'
p3501
S"<type 'exceptions.AttributeError'>"
p3502
sS'date'
p3503
S'Tue Mar 13 23:22:36 2012'
p3504
sS'response'
p3505
g49
(g50
g51
NtRp3506
(dp3507
g54
(dp3508
sg56
(lp3509
g49
(g58
g51
NtRp3510
(dp3511
g54
(dp3512
g62
I5
ssg63
Nsg56
(lp3513
g49
(g65
g51
NtRp3514
(dp3515
g54
(dp3516
sg63
g3510
sg56
(lp3517
g49
(g70
g51
NtRp3518
(dp3519
g54
(dp3520
g74
g75
ssg63
g3514
sg56
(lp3521
g123
asbag49
(g70
g51
NtRp3522
(dp3523
g54
(dp3524
g81
g82
ssg63
g3514
sg56
(lp3525
S':'
asbag49
(g70
g51
NtRp3526
(dp3527
g54
(dp3528
sg63
g3514
sg56
(lp3529
g49
(g50
g51
NtRp3530
(dp3531
g54
(dp3532
g62
I5
ssg63
g3526
sg56
(lp3533
S'<cStringIO.StringO object at 0x06FAA680>'
p3534
asbasbasbag49
(g65
g51
NtRp3535
(dp3536
g54
(dp3537
sg63
g3510
sg56
(lp3538
g49
(g70
g51
NtRp3539
(dp3540
g54
(dp3541
g74
g75
ssg63
g3535
sg56
(lp3542
g189
asbag49
(g70
g51
NtRp3543
(dp3544
g54
(dp3545
g81
g82
ssg63
g3535
sg56
(lp3546
S':'
asbag49
(g70
g51
NtRp3547
(dp3548
g54
(dp3549
sg63
g3535
sg56
(lp3550
g49
(g50
g51
NtRp3551
(dp3552
g54
(dp3553
g62
I5
ssg63
g3547
sg56
(lp3554
g49
(g58
g51
NtRp3555
(dp3556
g54
(dp3557
g62
I4
ssg63
Nsg56
(lp3558
g49
(g65
g51
NtRp3559
(dp3560
g54
(dp3561
sg63
g3555
sg56
(lp3562
g49
(g70
g51
NtRp3563
(dp3564
g54
(dp3565
g74
g75
ssg63
g3559
sg56
(lp3566
S'session_id_parleyweb'
p3567
asbag49
(g70
g51
NtRp3568
(dp3569
g54
(dp3570
g81
g82
ssg63
g3559
sg56
(lp3571
S':'
asbag49
(g70
g51
NtRp3572
(dp3573
g54
(dp3574
sg63
g3559
sg56
(lp3575
g49
(g50
g51
NtRp3576
(dp3577
g54
(dp3578
g62
I4
ssg63
g3572
sg56
(lp3579
g49
(g58
g51
NtRp3580
(dp3581
g54
(dp3582
g62
I3
ssg63
Nsg56
(lp3583
g49
(g65
g51
NtRp3584
(dp3585
g54
(dp3586
sg63
g3580
sg56
(lp3587
g49
(g70
g51
NtRp3588
(dp3589
g54
(dp3590
g74
g75
ssg63
g3584
sg56
(lp3591
g239
asbag49
(g70
g51
NtRp3592
(dp3593
g54
(dp3594
g81
g82
ssg63
g3584
sg56
(lp3595
S':'
asbag49
(g70
g51
NtRp3596
(dp3597
g54
(dp3598
sg63
g3584
sg56
(lp3599
g49
(g50
g51
NtRp3600
(dp3601
g54
(dp3602
g62
I3
ssg63
g3596
sg56
(lp3603
S''
asbasbasbag49
(g65
g51
NtRp3604
(dp3605
g54
(dp3606
sg63
g3580
sg56
(lp3607
g49
(g70
g51
NtRp3608
(dp3609
g54
(dp3610
g74
g75
ssg63
g3604
sg56
(lp3611
g260
asbag49
(g70
g51
NtRp3612
(dp3613
g54
(dp3614
g81
g82
ssg63
g3604
sg56
(lp3615
S':'
asbag49
(g70
g51
NtRp3616
(dp3617
g54
(dp3618
sg63
g3604
sg56
(lp3619
g49
(g50
g51
NtRp3620
(dp3621
g54
(dp3622
g62
I3
ssg63
g3616
sg56
(lp3623
S''
asbasbasbag49
(g65
g51
NtRp3624
(dp3625
g54
(dp3626
sg63
g3580
sg56
(lp3627
g49
(g70
g51
NtRp3628
(dp3629
g54
(dp3630
g74
g75
ssg63
g3624
sg56
(lp3631
g281
asbag49
(g70
g51
NtRp3632
(dp3633
g54
(dp3634
g81
g82
ssg63
g3624
sg56
(lp3635
S':'
asbag49
(g70
g51
NtRp3636
(dp3637
g54
(dp3638
sg63
g3624
sg56
(lp3639
g49
(g50
g51
NtRp3640
(dp3641
g54
(dp3642
g62
I3
ssg63
g3636
sg56
(lp3643
S''
asbasbasbag49
(g65
g51
NtRp3644
(dp3645
g54
(dp3646
sg63
g3580
sg56
(lp3647
g49
(g70
g51
NtRp3648
(dp3649
g54
(dp3650
g74
g75
ssg63
g3644
sg56
(lp3651
g302
asbag49
(g70
g51
NtRp3652
(dp3653
g54
(dp3654
g81
g82
ssg63
g3644
sg56
(lp3655
S':'
asbag49
(g70
g51
NtRp3656
(dp3657
g54
(dp3658
sg63
g3644
sg56
(lp3659
g49
(g50
g51
NtRp3660
(dp3661
g54
(dp3662
g62
I3
ssg63
g3656
sg56
(lp3663
S''
asbasbasbag49
(g65
g51
NtRp3664
(dp3665
g54
(dp3666
sg63
g3580
sg56
(lp3667
g49
(g70
g51
NtRp3668
(dp3669
g54
(dp3670
g74
g75
ssg63
g3664
sg56
(lp3671
g323
asbag49
(g70
g51
NtRp3672
(dp3673
g54
(dp3674
g81
g82
ssg63
g3664
sg56
(lp3675
S':'
asbag49
(g70
g51
NtRp3676
(dp3677
g54
(dp3678
sg63
g3664
sg56
(lp3679
g49
(g50
g51
NtRp3680
(dp3681
g54
(dp3682
g62
I3
ssg63
g3676
sg56
(lp3683
S'/'
asbasbasbag49
(g65
g51
NtRp3684
(dp3685
g54
(dp3686
sg63
g3580
sg56
(lp3687
g49
(g70
g51
NtRp3688
(dp3689
g54
(dp3690
g74
g75
ssg63
g3684
sg56
(lp3691
g344
asbag49
(g70
g51
NtRp3692
(dp3693
g54
(dp3694
g81
g82
ssg63
g3684
sg56
(lp3695
S':'
asbag49
(g70
g51
NtRp3696
(dp3697
g54
(dp3698
sg63
g3684
sg56
(lp3699
g49
(g50
g51
NtRp3700
(dp3701
g54
(dp3702
g62
I3
ssg63
g3696
sg56
(lp3703
S''
asbasbasbag49
(g65
g51
NtRp3704
(dp3705
g54
(dp3706
sg63
g3580
sg56
(lp3707
g49
(g70
g51
NtRp3708
(dp3709
g54
(dp3710
g74
g75
ssg63
g3704
sg56
(lp3711
g365
asbag49
(g70
g51
NtRp3712
(dp3713
g54
(dp3714
g81
g82
ssg63
g3704
sg56
(lp3715
S':'
asbag49
(g70
g51
NtRp3716
(dp3717
g54
(dp3718
sg63
g3704
sg56
(lp3719
g49
(g50
g51
NtRp3720
(dp3721
g54
(dp3722
g62
I3
ssg63
g3716
sg56
(lp3723
S''
asbasbasbasbasbasbasbasbasbasbasbag49
(g65
g51
NtRp3724
(dp3725
g54
(dp3726
sg63
g3510
sg56
(lp3727
g49
(g70
g51
NtRp3728
(dp3729
g54
(dp3730
g74
g75
ssg63
g3724
sg56
(lp3731
S'delimiters'
p3732
asbag49
(g70
g51
NtRp3733
(dp3734
g54
(dp3735
g81
g82
ssg63
g3724
sg56
(lp3736
S':'
asbag49
(g70
g51
NtRp3737
(dp3738
g54
(dp3739
sg63
g3724
sg56
(lp3740
g49
(g50
g51
NtRp3741
(dp3742
g54
(dp3743
g62
I5
ssg63
g3737
sg56
(lp3744
g49
(g58
g51
NtRp3745
(dp3746
g54
(dp3747
g62
I4
ssg63
Nsg56
(lp3748
g49
(g65
g51
NtRp3749
(dp3750
g54
(dp3751
sg63
g3745
sg56
(lp3752
g49
(g70
g51
NtRp3753
(dp3754
g54
(dp3755
sg63
g3749
sg56
(lp3756
g49
(g50
g51
NtRp3757
(dp3758
g54
(dp3759
g62
I4
ssg63
g3753
sg56
(lp3760
S'{{'
p3761
asbasbasbag49
(g65
g51
NtRp3762
(dp3763
g54
(dp3764
sg63
g3745
sg56
(lp3765
g49
(g70
g51
NtRp3766
(dp3767
g54
(dp3768
sg63
g3762
sg56
(lp3769
g49
(g50
g51
NtRp3770
(dp3771
g54
(dp3772
g62
I4
ssg63
g3766
sg56
(lp3773
S'}}'
p3774
asbasbasbasbasbasbasbag49
(g65
g51
NtRp3775
(dp3776
g54
(dp3777
sg63
g3510
sg56
(lp3778
g49
(g70
g51
NtRp3779
(dp3780
g54
(dp3781
g74
g75
ssg63
g3775
sg56
(lp3782
S'files'
p3783
asbag49
(g70
g51
NtRp3784
(dp3785
g54
(dp3786
g81
g82
ssg63
g3775
sg56
(lp3787
S':'
asbag49
(g70
g51
NtRp3788
(dp3789
g54
(dp3790
sg63
g3775
sg56
(lp3791
g49
(g50
g51
NtRp3792
(dp3793
g54
(dp3794
g62
I5
ssg63
g3788
sg56
(lp3795
g49
(g58
g51
NtRp3796
(dp3797
g54
(dp3798
g62
I4
ssg63
Nsg56
(lp3799
sbasbasbasbag49
(g65
g51
NtRp3800
(dp3801
g54
(dp3802
sg63
g3510
sg56
(lp3803
g49
(g70
g51
NtRp3804
(dp3805
g54
(dp3806
g74
g75
ssg63
g3800
sg56
(lp3807
S'flash'
p3808
asbag49
(g70
g51
NtRp3809
(dp3810
g54
(dp3811
g81
g82
ssg63
g3800
sg56
(lp3812
S':'
asbag49
(g70
g51
NtRp3813
(dp3814
g54
(dp3815
sg63
g3800
sg56
(lp3816
g49
(g50
g51
NtRp3817
(dp3818
g54
(dp3819
g62
I5
ssg63
g3813
sg56
(lp3820
S''
asbasbasbag49
(g65
g51
NtRp3821
(dp3822
g54
(dp3823
sg63
g3510
sg56
(lp3824
g49
(g70
g51
NtRp3825
(dp3826
g54
(dp3827
g74
g75
ssg63
g3821
sg56
(lp3828
S'generic_patterns'
p3829
asbag49
(g70
g51
NtRp3830
(dp3831
g54
(dp3832
g81
g82
ssg63
g3821
sg56
(lp3833
S':'
asbag49
(g70
g51
NtRp3834
(dp3835
g54
(dp3836
sg63
g3821
sg56
(lp3837
g49
(g50
g51
NtRp3838
(dp3839
g54
(dp3840
g62
I5
ssg63
g3834
sg56
(lp3841
g49
(g58
g51
NtRp3842
(dp3843
g54
(dp3844
g62
I4
ssg63
Nsg56
(lp3845
g49
(g65
g51
NtRp3846
(dp3847
g54
(dp3848
sg63
g3842
sg56
(lp3849
g49
(g70
g51
NtRp3850
(dp3851
g54
(dp3852
sg63
g3846
sg56
(lp3853
g49
(g50
g51
NtRp3854
(dp3855
g54
(dp3856
g62
I4
ssg63
g3850
sg56
(lp3857
S'*'
asbasbasbasbasbasbasbag49
(g65
g51
NtRp3858
(dp3859
g54
(dp3860
sg63
g3510
sg56
(lp3861
g49
(g70
g51
NtRp3862
(dp3863
g54
(dp3864
g74
g75
ssg63
g3858
sg56
(lp3865
S'headers'
p3866
asbag49
(g70
g51
NtRp3867
(dp3868
g54
(dp3869
g81
g82
ssg63
g3858
sg56
(lp3870
S':'
asbag49
(g70
g51
NtRp3871
(dp3872
g54
(dp3873
sg63
g3858
sg56
(lp3874
g49
(g50
g51
NtRp3875
(dp3876
g54
(dp3877
g62
I5
ssg63
g3871
sg56
(lp3878
g49
(g58
g51
NtRp3879
(dp3880
g54
(dp3881
g62
I4
ssg63
Nsg56
(lp3882
g49
(g65
g51
NtRp3883
(dp3884
g54
(dp3885
sg63
g3879
sg56
(lp3886
g49
(g70
g51
NtRp3887
(dp3888
g54
(dp3889
g74
g75
ssg63
g3883
sg56
(lp3890
S'Cache-Control'
p3891
asbag49
(g70
g51
NtRp3892
(dp3893
g54
(dp3894
g81
g82
ssg63
g3883
sg56
(lp3895
S':'
asbag49
(g70
g51
NtRp3896
(dp3897
g54
(dp3898
sg63
g3883
sg56
(lp3899
g49
(g50
g51
NtRp3900
(dp3901
g54
(dp3902
g62
I4
ssg63
g3896
sg56
(lp3903
S'no-store, no-cache, must-revalidate, post-check=0, pre-check=0'
p3904
asbasbasbag49
(g65
g51
NtRp3905
(dp3906
g54
(dp3907
sg63
g3879
sg56
(lp3908
g49
(g70
g51
NtRp3909
(dp3910
g54
(dp3911
g74
g75
ssg63
g3905
sg56
(lp3912
S'Content-Type'
p3913
asbag49
(g70
g51
NtRp3914
(dp3915
g54
(dp3916
g81
g82
ssg63
g3905
sg56
(lp3917
S':'
asbag49
(g70
g51
NtRp3918
(dp3919
g54
(dp3920
sg63
g3905
sg56
(lp3921
g49
(g50
g51
NtRp3922
(dp3923
g54
(dp3924
g62
I4
ssg63
g3918
sg56
(lp3925
S'text/html; charset=utf-8'
p3926
asbasbasbag49
(g65
g51
NtRp3927
(dp3928
g54
(dp3929
sg63
g3879
sg56
(lp3930
g49
(g70
g51
NtRp3931
(dp3932
g54
(dp3933
g74
g75
ssg63
g3927
sg56
(lp3934
S'Expires'
p3935
asbag49
(g70
g51
NtRp3936
(dp3937
g54
(dp3938
g81
g82
ssg63
g3927
sg56
(lp3939
S':'
asbag49
(g70
g51
NtRp3940
(dp3941
g54
(dp3942
sg63
g3927
sg56
(lp3943
g49
(g50
g51
NtRp3944
(dp3945
g54
(dp3946
g62
I4
ssg63
g3940
sg56
(lp3947
S'Tue, 13 Mar 2012 22:22:36 GMT'
p3948
asbasbasbag49
(g65
g51
NtRp3949
(dp3950
g54
(dp3951
sg63
g3879
sg56
(lp3952
g49
(g70
g51
NtRp3953
(dp3954
g54
(dp3955
g74
g75
ssg63
g3949
sg56
(lp3956
S'Pragma'
p3957
asbag49
(g70
g51
NtRp3958
(dp3959
g54
(dp3960
g81
g82
ssg63
g3949
sg56
(lp3961
S':'
asbag49
(g70
g51
NtRp3962
(dp3963
g54
(dp3964
sg63
g3949
sg56
(lp3965
g49
(g50
g51
NtRp3966
(dp3967
g54
(dp3968
g62
I4
ssg63
g3962
sg56
(lp3969
S'no-cache'
p3970
asbasbasbag49
(g65
g51
NtRp3971
(dp3972
g54
(dp3973
sg63
g3879
sg56
(lp3974
g49
(g70
g51
NtRp3975
(dp3976
g54
(dp3977
g74
g75
ssg63
g3971
sg56
(lp3978
S'X-Powered-By'
p3979
asbag49
(g70
g51
NtRp3980
(dp3981
g54
(dp3982
g81
g82
ssg63
g3971
sg56
(lp3983
S':'
asbag49
(g70
g51
NtRp3984
(dp3985
g54
(dp3986
sg63
g3971
sg56
(lp3987
g49
(g50
g51
NtRp3988
(dp3989
g54
(dp3990
g62
I4
ssg63
g3984
sg56
(lp3991
S'web2py'
p3992
asbasbasbasbasbasbasbag49
(g65
g51
NtRp3993
(dp3994
g54
(dp3995
sg63
g3510
sg56
(lp3996
g49
(g70
g51
NtRp3997
(dp3998
g54
(dp3999
g74
g75
ssg63
g3993
sg56
(lp4000
S'menu'
p4001
asbag49
(g70
g51
NtRp4002
(dp4003
g54
(dp4004
g81
g82
ssg63
g3993
sg56
(lp4005
S':'
asbag49
(g70
g51
NtRp4006
(dp4007
g54
(dp4008
sg63
g3993
sg56
(lp4009
g49
(g50
g51
NtRp4010
(dp4011
g54
(dp4012
g62
I5
ssg63
g4006
sg56
(lp4013
g49
(g58
g51
NtRp4014
(dp4015
g54
(dp4016
g62
I4
ssg63
Nsg56
(lp4017
g49
(g65
g51
NtRp4018
(dp4019
g54
(dp4020
sg63
g4014
sg56
(lp4021
g49
(g70
g51
NtRp4022
(dp4023
g54
(dp4024
sg63
g4018
sg56
(lp4025
g49
(g50
g51
NtRp4026
(dp4027
g54
(dp4028
g62
I4
ssg63
g4022
sg56
(lp4029
g49
(g58
g51
NtRp4030
(dp4031
g54
(dp4032
g62
I3
ssg63
Nsg56
(lp4033
g49
(g65
g51
NtRp4034
(dp4035
g54
(dp4036
sg63
g4030
sg56
(lp4037
g49
(g70
g51
NtRp4038
(dp4039
g54
(dp4040
sg63
g4034
sg56
(lp4041
g49
(g50
g51
NtRp4042
(dp4043
g54
(dp4044
g62
I3
ssg63
g4038
sg56
(lp4045
cgluon.languages
lazyT_unpickle
p4046
(S't\x04\x00\x00\x00Home'
tRp4047
asbasbasbag49
(g65
g51
NtRp4048
(dp4049
g54
(dp4050
sg63
g4030
sg56
(lp4051
g49
(g70
g51
NtRp4052
(dp4053
g54
(dp4054
sg63
g4048
sg56
(lp4055
g49
(g50
g51
NtRp4056
(dp4057
g54
(dp4058
g62
I3
ssg63
g4052
sg56
(lp4059
g92
asbasbasbag49
(g65
g51
NtRp4060
(dp4061
g54
(dp4062
sg63
g4030
sg56
(lp4063
g49
(g70
g51
NtRp4064
(dp4065
g54
(dp4066
sg63
g4060
sg56
(lp4067
g49
(g50
g51
NtRp4068
(dp4069
g54
(dp4070
g62
I3
ssg63
g4064
sg56
(lp4071
S'/parleyweb/default/index'
p4072
asbasbasbag49
(g65
g51
NtRp4073
(dp4074
g54
(dp4075
sg63
g4030
sg56
(lp4076
g49
(g70
g51
NtRp4077
(dp4078
g54
(dp4079
sg63
g4073
sg56
(lp4080
g49
(g50
g51
NtRp4081
(dp4082
g54
(dp4083
g62
I3
ssg63
g4077
sg56
(lp4084
g49
(g58
g51
NtRp4085
(dp4086
g54
(dp4087
g62
I2
ssg63
Nsg56
(lp4088
sbasbasbasbasbasbasbasbasbasbasbasbag49
(g65
g51
NtRp4089
(dp4090
g54
(dp4091
sg63
g3510
sg56
(lp4092
g49
(g70
g51
NtRp4093
(dp4094
g54
(dp4095
g74
g75
ssg63
g4089
sg56
(lp4096
S'meta'
p4097
asbag49
(g70
g51
NtRp4098
(dp4099
g54
(dp4100
g81
g82
ssg63
g4089
sg56
(lp4101
S':'
asbag49
(g70
g51
NtRp4102
(dp4103
g54
(dp4104
sg63
g4089
sg56
(lp4105
g49
(g50
g51
NtRp4106
(dp4107
g54
(dp4108
g62
I5
ssg63
g4102
sg56
(lp4109
g49
(g58
g51
NtRp4110
(dp4111
g54
(dp4112
g62
I4
ssg63
Nsg56
(lp4113
g49
(g65
g51
NtRp4114
(dp4115
g54
(dp4116
sg63
g4110
sg56
(lp4117
g49
(g70
g51
NtRp4118
(dp4119
g54
(dp4120
g74
g75
ssg63
g4114
sg56
(lp4121
S'author'
p4122
asbag49
(g70
g51
NtRp4123
(dp4124
g54
(dp4125
g81
g82
ssg63
g4114
sg56
(lp4126
S':'
asbag49
(g70
g51
NtRp4127
(dp4128
g54
(dp4129
sg63
g4114
sg56
(lp4130
g49
(g50
g51
NtRp4131
(dp4132
g54
(dp4133
g62
I4
ssg63
g4127
sg56
(lp4134
S'Your Name <you@example.com>'
p4135
asbasbasbag49
(g65
g51
NtRp4136
(dp4137
g54
(dp4138
sg63
g4110
sg56
(lp4139
g49
(g70
g51
NtRp4140
(dp4141
g54
(dp4142
g74
g75
ssg63
g4136
sg56
(lp4143
S'copyright'
p4144
asbag49
(g70
g51
NtRp4145
(dp4146
g54
(dp4147
g81
g82
ssg63
g4136
sg56
(lp4148
S':'
asbag49
(g70
g51
NtRp4149
(dp4150
g54
(dp4151
sg63
g4136
sg56
(lp4152
g49
(g50
g51
NtRp4153
(dp4154
g54
(dp4155
g62
I4
ssg63
g4149
sg56
(lp4156
S'Copyright 2011'
p4157
asbasbasbag49
(g65
g51
NtRp4158
(dp4159
g54
(dp4160
sg63
g4110
sg56
(lp4161
g49
(g70
g51
NtRp4162
(dp4163
g54
(dp4164
g74
g75
ssg63
g4158
sg56
(lp4165
S'description'
p4166
asbag49
(g70
g51
NtRp4167
(dp4168
g54
(dp4169
g81
g82
ssg63
g4158
sg56
(lp4170
S':'
asbag49
(g70
g51
NtRp4171
(dp4172
g54
(dp4173
sg63
g4158
sg56
(lp4174
g49
(g50
g51
NtRp4175
(dp4176
g54
(dp4177
g62
I4
ssg63
g4171
sg56
(lp4178
S'a cool new app'
p4179
asbasbasbag49
(g65
g51
NtRp4180
(dp4181
g54
(dp4182
sg63
g4110
sg56
(lp4183
g49
(g70
g51
NtRp4184
(dp4185
g54
(dp4186
g74
g75
ssg63
g4180
sg56
(lp4187
S'generator'
p4188
asbag49
(g70
g51
NtRp4189
(dp4190
g54
(dp4191
g81
g82
ssg63
g4180
sg56
(lp4192
S':'
asbag49
(g70
g51
NtRp4193
(dp4194
g54
(dp4195
sg63
g4180
sg56
(lp4196
g49
(g50
g51
NtRp4197
(dp4198
g54
(dp4199
g62
I4
ssg63
g4193
sg56
(lp4200
S'Web2py Web Framework'
p4201
asbasbasbag49
(g65
g51
NtRp4202
(dp4203
g54
(dp4204
sg63
g4110
sg56
(lp4205
g49
(g70
g51
NtRp4206
(dp4207
g54
(dp4208
g74
g75
ssg63
g4202
sg56
(lp4209
S'keywords'
p4210
asbag49
(g70
g51
NtRp4211
(dp4212
g54
(dp4213
g81
g82
ssg63
g4202
sg56
(lp4214
S':'
asbag49
(g70
g51
NtRp4215
(dp4216
g54
(dp4217
sg63
g4202
sg56
(lp4218
g49
(g50
g51
NtRp4219
(dp4220
g54
(dp4221
g62
I4
ssg63
g4215
sg56
(lp4222
S'web2py, python, framework'
p4223
asbasbasbasbasbasbasbag49
(g65
g51
NtRp4224
(dp4225
g54
(dp4226
sg63
g3510
sg56
(lp4227
g49
(g70
g51
NtRp4228
(dp4229
g54
(dp4230
g74
g75
ssg63
g4224
sg56
(lp4231
S'postprocessing'
p4232
asbag49
(g70
g51
NtRp4233
(dp4234
g54
(dp4235
g81
g82
ssg63
g4224
sg56
(lp4236
S':'
asbag49
(g70
g51
NtRp4237
(dp4238
g54
(dp4239
sg63
g4224
sg56
(lp4240
g49
(g50
g51
NtRp4241
(dp4242
g54
(dp4243
g62
I5
ssg63
g4237
sg56
(lp4244
g49
(g58
g51
NtRp4245
(dp4246
g54
(dp4247
g62
I4
ssg63
Nsg56
(lp4248
sbasbasbasbag49
(g65
g51
NtRp4249
(dp4250
g54
(dp4251
sg63
g3510
sg56
(lp4252
g49
(g70
g51
NtRp4253
(dp4254
g54
(dp4255
g74
g75
ssg63
g4249
sg56
(lp4256
S'session_file'
p4257
asbag49
(g70
g51
NtRp4258
(dp4259
g54
(dp4260
g81
g82
ssg63
g4249
sg56
(lp4261
S':'
asbag49
(g70
g51
NtRp4262
(dp4263
g54
(dp4264
sg63
g4249
sg56
(lp4265
g49
(g50
g51
NtRp4266
(dp4267
g54
(dp4268
g62
I5
ssg63
g4262
sg56
(lp4269
S"<open file 'D:\\Dise\xf1o Web\\Proyectos\\Parleyweb\\web2py\\applications\\parleyweb\\sessions\\127.0.0.1-b9128f42-ceb9-46f0-9b29-84d3a40c4ca4', mode 'rb+' at 0x072F4410>"
p4270
asbasbasbag49
(g65
g51
NtRp4271
(dp4272
g54
(dp4273
sg63
g3510
sg56
(lp4274
g49
(g70
g51
NtRp4275
(dp4276
g54
(dp4277
g74
g75
ssg63
g4271
sg56
(lp4278
S'session_filename'
p4279
asbag49
(g70
g51
NtRp4280
(dp4281
g54
(dp4282
g81
g82
ssg63
g4271
sg56
(lp4283
S':'
asbag49
(g70
g51
NtRp4284
(dp4285
g54
(dp4286
sg63
g4271
sg56
(lp4287
g49
(g50
g51
NtRp4288
(dp4289
g54
(dp4290
g62
I5
ssg63
g4284
sg56
(lp4291
S'D:\\Dise\xf1o Web\\Proyectos\\Parleyweb\\web2py\\applications\\parleyweb\\sessions\\127.0.0.1-b9128f42-ceb9-46f0-9b29-84d3a40c4ca4'
p4292
asbasbasbag49
(g65
g51
NtRp4293
(dp4294
g54
(dp4295
sg63
g3510
sg56
(lp4296
g49
(g70
g51
NtRp4297
(dp4298
g54
(dp4299
g74
g75
ssg63
g4293
sg56
(lp4300
S'session_id'
p4301
asbag49
(g70
g51
NtRp4302
(dp4303
g54
(dp4304
g81
g82
ssg63
g4293
sg56
(lp4305
S':'
asbag49
(g70
g51
NtRp4306
(dp4307
g54
(dp4308
sg63
g4293
sg56
(lp4309
g49
(g50
g51
NtRp4310
(dp4311
g54
(dp4312
g62
I5
ssg63
g4306
sg56
(lp4313
S'127.0.0.1-b9128f42-ceb9-46f0-9b29-84d3a40c4ca4'
p4314
asbasbasbag49
(g65
g51
NtRp4315
(dp4316
g54
(dp4317
sg63
g3510
sg56
(lp4318
g49
(g70
g51
NtRp4319
(dp4320
g54
(dp4321
g74
g75
ssg63
g4315
sg56
(lp4322
S'session_id_name'
p4323
asbag49
(g70
g51
NtRp4324
(dp4325
g54
(dp4326
g81
g82
ssg63
g4315
sg56
(lp4327
S':'
asbag49
(g70
g51
NtRp4328
(dp4329
g54
(dp4330
sg63
g4315
sg56
(lp4331
g49
(g50
g51
NtRp4332
(dp4333
g54
(dp4334
g62
I5
ssg63
g4328
sg56
(lp4335
g3567
asbasbasbag49
(g65
g51
NtRp4336
(dp4337
g54
(dp4338
sg63
g3510
sg56
(lp4339
g49
(g70
g51
NtRp4340
(dp4341
g54
(dp4342
g74
g75
ssg63
g4336
sg56
(lp4343
S'session_locked'
p4344
asbag49
(g70
g51
NtRp4345
(dp4346
g54
(dp4347
g81
g82
ssg63
g4336
sg56
(lp4348
S':'
asbag49
(g70
g51
NtRp4349
(dp4350
g54
(dp4351
sg63
g4336
sg56
(lp4352
g49
(g50
g51
NtRp4353
(dp4354
g54
(dp4355
g62
I5
ssg63
g4349
sg56
(lp4356
g1527
asbasbasbag49
(g65
g51
NtRp4357
(dp4358
g54
(dp4359
sg63
g3510
sg56
(lp4360
g49
(g70
g51
NtRp4361
(dp4362
g54
(dp4363
g74
g75
ssg63
g4357
sg56
(lp4364
S'session_new'
p4365
asbag49
(g70
g51
NtRp4366
(dp4367
g54
(dp4368
g81
g82
ssg63
g4357
sg56
(lp4369
S':'
asbag49
(g70
g51
NtRp4370
(dp4371
g54
(dp4372
sg63
g4357
sg56
(lp4373
g49
(g50
g51
NtRp4374
(dp4375
g54
(dp4376
g62
I5
ssg63
g4370
sg56
(lp4377
g92
asbasbasbag49
(g65
g51
NtRp4378
(dp4379
g54
(dp4380
sg63
g3510
sg56
(lp4381
g49
(g70
g51
NtRp4382
(dp4383
g54
(dp4384
g74
g75
ssg63
g4378
sg56
(lp4385
S'status'
p4386
asbag49
(g70
g51
NtRp4387
(dp4388
g54
(dp4389
g81
g82
ssg63
g4378
sg56
(lp4390
S':'
asbag49
(g70
g51
NtRp4391
(dp4392
g54
(dp4393
sg63
g4378
sg56
(lp4394
g49
(g50
g51
NtRp4395
(dp4396
g54
(dp4397
g62
I5
ssg63
g4391
sg56
(lp4398
S'200'
p4399
asbasbasbag49
(g65
g51
NtRp4400
(dp4401
g54
(dp4402
sg63
g3510
sg56
(lp4403
g49
(g70
g51
NtRp4404
(dp4405
g54
(dp4406
g74
g75
ssg63
g4400
sg56
(lp4407
S'subtitle'
p4408
asbag49
(g70
g51
NtRp4409
(dp4410
g54
(dp4411
g81
g82
ssg63
g4400
sg56
(lp4412
S':'
asbag49
(g70
g51
NtRp4413
(dp4414
g54
(dp4415
sg63
g4400
sg56
(lp4416
g49
(g50
g51
NtRp4417
(dp4418
g54
(dp4419
g62
I5
ssg63
g4413
sg56
(lp4420
g4046
(S's\t\x00\x00\x00Adaptame!'
tRp4421
asbasbasbag49
(g65
g51
NtRp4422
(dp4423
g54
(dp4424
sg63
g3510
sg56
(lp4425
g49
(g70
g51
NtRp4426
(dp4427
g54
(dp4428
g74
g75
ssg63
g4422
sg56
(lp4429
S'title'
p4430
asbag49
(g70
g51
NtRp4431
(dp4432
g54
(dp4433
g81
g82
ssg63
g4422
sg56
(lp4434
S':'
asbag49
(g70
g51
NtRp4435
(dp4436
g54
(dp4437
sg63
g4422
sg56
(lp4438
g49
(g50
g51
NtRp4439
(dp4440
g54
(dp4441
g62
I5
ssg63
g4435
sg56
(lp4442
S'Parleyweb'
p4443
asbasbasbag49
(g65
g51
NtRp4444
(dp4445
g54
(dp4446
sg63
g3510
sg56
(lp4447
g49
(g70
g51
NtRp4448
(dp4449
g54
(dp4450
g74
g75
ssg63
g4444
sg56
(lp4451
g2444
asbag49
(g70
g51
NtRp4452
(dp4453
g54
(dp4454
g81
g82
ssg63
g4444
sg56
(lp4455
S':'
asbag49
(g70
g51
NtRp4456
(dp4457
g54
(dp4458
sg63
g4444
sg56
(lp4459
g49
(g50
g51
NtRp4460
(dp4461
g54
(dp4462
g62
I5
ssg63
g4456
sg56
(lp4463
g2457
asbasbasbag49
(g65
g51
NtRp4464
(dp4465
g54
(dp4466
sg63
g3510
sg56
(lp4467
g49
(g70
g51
NtRp4468
(dp4469
g54
(dp4470
g74
g75
ssg63
g4464
sg56
(lp4471
S'view'
p4472
asbag49
(g70
g51
NtRp4473
(dp4474
g54
(dp4475
g81
g82
ssg63
g4464
sg56
(lp4476
S':'
asbag49
(g70
g51
NtRp4477
(dp4478
g54
(dp4479
sg63
g4464
sg56
(lp4480
g49
(g50
g51
NtRp4481
(dp4482
g54
(dp4483
g62
I5
ssg63
g4477
sg56
(lp4484
S'admin/agregar_palabra.html'
p4485
asbasbasbasbasbsS'locals'
p4486
(dp4487
S'agregar'
p4488
S'<gluon.sqlhtml.SQLFORM object at 0x071274B0>'
p4489
sssS'traceback'
p4490
S'Traceback (most recent call last):\n  File "gluon/restricted.py", line 205, in restricted\n  File "D:\\Dise\xf1o Web\\Proyectos\\Parleyweb\\web2py\\applications\\parleyweb\\controllers/admin.py", line 250, in <module>\n  File "gluon/globals.py", line 173, in <lambda>\n  File "D:\\Dise\xf1o Web\\Proyectos\\Parleyweb\\web2py\\applications\\parleyweb\\controllers/admin.py", line 33, in agregar_palabra\nAttributeError: \'NoneType\' object has no attribute \'palabra\'\n'
p4491
s.