(dp1
S'output'
p2
S"<type 'exceptions.SyntaxError'> invalid syntax (controllers/admin.py, line 36)"
p3
sS'layer'
p4
S'D:\\Dise\xf1o Web\\Proyectos\\Parleyweb\\web2py\\applications\\webparley\\controllers/admin.py'
p5
sS'code'
p6
S'# coding: utf8\n# intente algo como\ndef index():\n    """\n    Pagina principal de la administracion\n    form = SQLFORM(db.busqueda, formstyle=\'divs\', _id="buscar_palabra_admin", submit_button=\'Enviar\')\n    if form.accepts(request.vars, session, dbio=False): # metodo para validar las entradas del formulario, dbio=False no guarda en la bases de datos\n        a = db(db.palabras.palabra==request.post_vars.buscar_palabra).select()\n        if not a:\n            session.flash = \'Ingresa nueva palabra\'\n            redirect(URL(\'agregar_palabra\', args=request.post_vars.buscar_palabra))\n            \n        else:\n            id_palabra = db(db.palabras.palabra==request.post_vars.buscar_palabra).select().first()\n            redirect(URL(\'mostrar_palabra\', args=id_palabra.id))\n    """\n    \n           \n           \n    ejemplos = db((db.palabras.id==db.palabra_ejemplo.palabra)&(db.ejemplos.id==db.palabra_ejemplo.ejemplo)) # asi se igualan las tablas para las relaciones muchos a muchos\n    return dict(ejemplos=ejemplos) # llama a la vista con el nombre de la funcion las variables\n        \ndef agregar_palabra():\n    """\n    Se agregan  palabras y se muestran los ultimos 10 registros insertados con los cuales\n    se pueden hacer distintas operaciones\n    """\n    if request.vars.a==\'\':\n        session.flash = \'Intenta ingresar una nueva palabra en la busqueda\'\n        redirect(URL(\'index\'))\n    else: \n        db.palabras.palabra.default = request.vars.a\n    db.palabras.palabra.requires = IS_NOT_IN_DB(db,\'palabras.palabra\') # Validacion para  la palabra que se inserte no puede estar ya en la DB\n    agregar = SQLFORM(db.palabras, formstyle="divs", _id="form-agregar", submit_button="Enviar" , _autocomplete="off") # se genera el formulario para la tabla palabras\n    if agregar.accepts(request.vars, session): #metodo para validar las entradas del formulario\n       redirect(URL(\'buscar_ejemplos\', vars=a=request.post_vars.palabra))\n       #response.flash = \'Registro insertado\' # mensajes del sistema\n    elif agregar.errors:  # Metodo usado para cuando se producen errores\n       response.flash = \'Hay un error\'\n    contador_ejemplo = db().select(db.palabra_ejemplo.ALL) # selecionar todos los registro de la tabla palabra_ejemplo para luego contarlos\n    consulta = db().select(db.palabras.ALL, orderby=~db.palabras.id , limitby=(0,15)) # muestra los 10 ultimos registros insertados\n    contador = db(db.palabras.id > 0).count() # cuenta cuantos registros hay en la DB\n    return dict(agregar=agregar, consulta=consulta, contador=contador, contador_ejemplo=contador_ejemplo)\n    \ndef buscar_ejemplos():\n    return dict()\n    \ndef buscar_ejemplos2():\n    id = db(db.palabras.palabra==request.raw_args).select().first()\n    buscar = db(db.ejemplos.ejemplo_de.contains(request.raw_args)).select()\n    return dict(buscar=buscar, id=id)\n\n\ndef agregar_ejemplo():\n    """\n    Se agregan los ejemplos y se muestran los ultimos 10 registros insertados con los cuales\n    se pueden hacer distintas operaciones\n    """\n    agregar_ejemplo = SQLFORM(db.ejemplos, formstyle="divs", _id="form-ejemplo", labels={\'ejemplo_de\':\'\', \'ejemplo_es\':\'\'} )\n    if agregar_ejemplo.accepts(request.vars, session):\n        response.flash = \'Ejemplo agregado\'\n        redirect(URL(\'agregar_ejemplo\'))\n    elif agregar_ejemplo.errors:\n        response.flash="Hay algun error"\n    nombre_fuente = db().select(db.fuentes.ALL)\n    contador_palabra = db().select(db.palabra_ejemplo.ALL) # selecionar todos los registro de la tabla palabra_ejemplo para luego contarlos\n    consulta_ejemplos = db().select(db.ejemplos.ALL, orderby=~db.ejemplos.id, limitby=(0,9)) # muestra los 10 ultimos registros insertados\n    contador2 = db(db.ejemplos.id > 0).count() # cuenta cuantos registros hay en la DB\n    ejemplos = db((db.palabras.id==db.palabra_ejemplo.palabra)&(db.ejemplos.id==db.palabra_ejemplo.ejemplo))\n    #palabras = db(db.palabra_ejemplo.palabra==db.palabras.id)\n    return dict(ejemplos=ejemplos, consulta_ejemplos=consulta_ejemplos, agregar_ejemplo=agregar_ejemplo, contador2=contador2, contador_palabra=contador_palabra, nombre_fuente=nombre_fuente)\ndef agregar_fuente():\n    agregar_fuente = SQLFORM(db.fuentes, formstyle="divs", _id="form-fuentes" )\n    if agregar_fuente.accepts(request.vars, session):\n       response.flash = \'Fuente insertado\'\n    elif agregar_fuente.errors:\n       response.flash = \'Hay un error\'\n    consulta = db().select(db.fuentes.ALL, orderby=~db.fuentes.id , limitby=(0,9)) # muestra los 10 ultimos registros insertados\n    contador = db(db.fuentes.id > 0).count() # cuenta cuantos registros hay en la DB\n    return dict(agregar_fuente=agregar_fuente, consulta=consulta, contador=contador)\n    \ndef agregar_glosario():\n    agregar_glosario = SQLFORM(db.glosario, formstyle="divs", _id="form-glsoario" )\n    if agregar_glosario.accepts(request.vars, session):\n       response.flash = \'Fuente insertado\'\n    elif agregar_glosario.errors:\n       response.flash = \'Hay un error\'\n    consulta = db().select(db.glosario.ALL, orderby=~db.glosario.id , limitby=(0,9)) # muestra los 10 ultimos registros insertados\n    contador = db(db.glosario.id > 0).count() # cuenta cuantos registros hay en la DB\n    return dict(agregar_glosario=agregar_glosario, consulta=consulta, contador=contador)\n    \ndef agregar_palabra_grid():\n    """\n    El grid propocionado por web2py, utilizado para administracion\n    """\n    agregar = SQLFORM.grid(db.worte, _class="table margin-top table-striped")\n    return dict(agregar=agregar)\n\ndef borrar_palabra():# \n    """\n    simplemente carga la vista para ejecutar el Modal\n    """\n    return dict()\n\ndef borrar_palabra2():\n    """\n    Es la accion que borra la palabra y redirecciona al index de admin\n    """\n    db(db.palabras.id == request.raw_args).delete() # borra la palabra de la DB\n    session.flash=\'Registro borrado\' # se usa cuando se redirecciona a otra, y se quiere mostrar el mensaje del sistema\n    redirect(URL(\'agregar_palabra\'))\n \ndef borrar_ejemplo(): \n    """\n    simplemente carga la vista para ejecutar el Modal\n    """\n    return dict()\n\ndef borrar_ejemplo2():\n    """\n    realiza la accion de borrar y redirecciona\n    """\n    db(db.ejemplos.id == request.raw_args).delete() # borra la palabra de la DB\n    session.flash=\'Ejemplo borrado\'\n    redirect(URL(\'agregar_ejemplo\'))\n    \ndef borrar_fuente():# \n    """\n    simplemente carga la vista para ejecutar el Modal\n    """\n    return dict()\n    \ndef borrar_fuente2():\n    """\n    realiza la accion de borrar y redirecciona\n    """\n    db(db.fuentes.id == request.args(0)).delete() # borra la palabra de la DB\n    session.flash=\'Fuente borrada\'\n    redirect(URL(\'agregar_fuente\'))\n\ndef editar_palabra():\n    """\n    Se carga el formulario para editar el registro\n    """\n    record = db.palabras(request.raw_args) # Seleciona el registro de la DB con el primer argumentro pasado\n    form = SQLFORM(db.palabras, record, formstyle=\'divs\', _class=\'form-inline wellparley\', _id=\'form-editar\') # formulario para actualizar hay que pasarle el registro que se quiere actualizar\n    if form.accepts(request.vars, session):\n       session.flash=\'Palabra editada\' \n       redirect(URL(\'agregar_palabra\'))\n    elif form.errors:\n     response.flash = \'El formulario tiene errores\'\n    return dict(form=form)\n    \n\n    \ndef editar_ejemplo():\n    """\n    carga el formulario para la edicion de el ejemplo, valida y redirecciona\n    """\n    record = db.ejemplos(request.raw_args) # Seleciona el registro de la DB con el primer argumentro pasado\n    form = SQLFORM(db.ejemplos, record, formstyle=\'divs\', _class=\'form-inline wellparley\', _id=\'form-editar-ejemplo\')\n    if form.accepts(request.vars):\n       session.flash=\'Ejemplo editado\' \n       redirect(URL(\'agregar_ejemplo\'))\n    elif form.errors:\n       response.flash = \'El formulario tiene errores\'\n    return dict(form=form)\n    \ndef editar_fuente():\n    """\n    carga el formulario para la edicion de el ejemplo, valida y redirecciona\n    """\n    record = db.fuentes(request.args(0)) # Seleciona el registro de la DB con el primer argumentro pasado\n    form = SQLFORM(db.fuentes, record, formstyle=\'divs\', _class=\'form-inline wellparley\', _id=\'form-editar-fuente\')\n    if form.accepts(request.vars):\n       session.flash=\'Fuente editada\' \n       redirect(URL(\'agregar_fuente\'))\n    elif form.errors:\n       response.flash = \'form has errors\'\n    return dict(form=form)\n    \ndef relacionar_ejemplo():\n    """\n    Recibe el id de la palabra para guardarlo en\n    DB junto al ejemplo a relacionar, quiere decir que tengo que cargar el un formulario\n    con los campos de la tabla ejemplo, meter las id en variables y luego guardarlas en las tablas\n    correspondiente\n    """\n    id_palabra = request.raw_args # Mete en una variable el valor de request.args(0), no es necesario\n    palabra = db(db.palabras.id==id_palabra).select().first() # selecciona el primer registro que se igual al id de la palabra\n    form = SQLFORM(db.ejemplos, labels={\'ejemplo_de\':\'\', \'ejemplo_es\':\'\'}) # para ingresar en la db debe tener el metodo form.accepts\n    if form.accepts(request.vars, session):\n        id_ejemplo = db(db.ejemplos.ejemplo_de==request.vars.ejemplo_de).select().first() # mete la consulta en una variable\n        db.palabra_ejemplo.insert(palabra=id_palabra, ejemplo=id_ejemplo.id) # inserta en la DB los id de los registro selecionados, estos es para las relaciones muchos a muschos\n        session.flash = \'Ejemplo Relacionado\'\n        redirect(URL(\'agregar_palabra\'))\n    elif form.errors:\n        response.flash = \'Mira otra vez\'\n    return dict(palabra=palabra, form=form,)\n    \ndef relacionar_palabra(): #Redisenar \n    """\n    Recibe el id de el ejemplo para guardarlo en\n    DB junto a la palabra a relacionar, quiere decir que tengo que cargar el un formulario\n    con los campos de la tabla palabra, meter las id en variables y luego guardarlas en las tablas\n    correspondiente *********importante cuando se relacione la palabra hay que traer todos los campos de ingresar palabra cuando la palabra no se encuentra en DB\n    *********** redisenar no sirve este codigo\n    """\n    id_ejemplo = request.args(0)\n    #form=FORM(\'Palabra:\',\n              #INPUT(_name=\'palabra\', requires=IS_NOT_EMPTY()),\n              #INPUT(_type=\'submit\'))\n    ejemplo = db(db.ejemplos.id==id_ejemplo).select().first()\n    form = SQLFORM(db.autocompletar_palabra, _autocomplete="off")\n    if form.accepts(request.vars, session, dbio=False):\n        consulta = db(db.palabras.palabra==request.vars.palabra).select().first() # se busca si la palabra ya esta en la DB\n        #igualar = db((db.palabras.id==db.palabra_ejemplo.palabra)&(db.ejemplos.id==db.palabra_ejemplo.ejemplo))\n        #selecionar = igualar(db.palabras.palabra==request.vars.palabra).select(db.palabra_ejemplo.ALL)\n        #consulta = selecionar\n        if consulta: # si la palabra esta ya en la db, solo hay que ingresar ambos id de la palabra y el ejemplo en la tabla palabra_ejemplo\n            consulta_id_palabra = db((db.palabra_ejemplo.palabra==consulta.id)&(db.palabra_ejemplo.ejemplo==request.args(0))).select().first() # consulta si el id de la palabra ya se encuentra en la db\n            if consulta_id_palabra:\n                session.flash="Palabra ya relacionada con el ejemplo"\n                redirect(URL(\'admin\', \'agregar_ejemplo\'))\n            else:\n                db.palabra_ejemplo.insert(palabra=consulta.id, ejemplo=request.args(0))\n                session.flash = \'Palabra relacionada\'\n                redirect(URL(\'admin\', \'agregar_ejemplo\'))\n        else:\n            db.palabras.insert(palabra=request.vars.palabra)\n            ultimo_registro = db(db.palabras.id > 0).select().last()\n            db.palabra_ejemplo.insert(palabra=ultimo_registro.id, ejemplo=request.args(0))\n            session.flash = \'Palabra relacionada y agregada\'\n            redirect(URL(\'admin\', \'agregar_ejemplo\'))\n            \n    elif form.errors:\n        response.flash = \'Mira otra vez\'\n    return dict(ejemplo=ejemplo, form=form)    \n    \ndef relacionar():\n    a = request.post_vars.relacionar \n    for i in a:\n        db.palabra_ejemplo.insert(palabra=int(request.post_vars.id_palabra), ejemplo=i)\n    db((db.palabra_ejemplo.ejemplo==0) | (db.palabra_ejemplo.palabra==None)).delete()\n    session.flash = \'Ejemplos relacionados\'\n    redirect(URL(\'index\'))\n    \ndef mostrar_palabra():\n    record = db.palabras(request.raw_args) # Seleciona el registro de la DB con el primer argumentro pasado\n    form = SQLFORM(db.palabras, record, formstyle=\'divs\', _class=\'form-inline wellparley\', _id=\'form-editar\') # formulario para actualizar hay que pasarle el registro que se quiere actualizar\n    if form.accepts(request.vars, session):\n       response.flash=\'Palabra editada\' \n       #redirect(URL(\'agregar_palabra\'))\n    elif form.errors:\n        response.flash = \'El formulario tiene errores\'\n    igualar = db((db.palabras.id==db.palabra_ejemplo.palabra)&(db.ejemplos.id==db.palabra_ejemplo.ejemplo))\n    palabra = igualar(db.palabras.id==request.raw_args).select(db.ejemplos.ALL)\n    return dict(palabra=palabra, form=form, record=record)\n    \n   \n    \n    \n    \n    \n    \n    \n    \n    \n    \n    \n    \n    \n    \n    \n    \n\nresponse._vars=response._caller(agregar_palabra)\n'
p7
sS'snapshot'
p8
(dp9
S'exception'
p10
(dp11
S'__getslice__'
p12
S"<method-wrapper '__getslice__' of exceptions.SyntaxError object at 0x06A020B0>"
p13
sS'text'
p14
S'"       redirect(URL(\'buscar_ejemplos\', vars=a=request.post_vars.palabra))\\n"'
p15
sS'__str__'
p16
S"<method-wrapper '__str__' of exceptions.SyntaxError object at 0x06A020B0>"
p17
sS'__reduce__'
p18
S'<built-in method __reduce__ of exceptions.SyntaxError object at 0x06A020B0>'
p19
sS'__dict__'
p20
S'{}'
p21
sS'__init__'
p22
S"<method-wrapper '__init__' of exceptions.SyntaxError object at 0x06A020B0>"
p23
sS'__setattr__'
p24
S"<method-wrapper '__setattr__' of exceptions.SyntaxError object at 0x06A020B0>"
p25
sS'__reduce_ex__'
p26
S'<built-in method __reduce_ex__ of exceptions.SyntaxError object at 0x06A020B0>'
p27
sS'__new__'
p28
S'<built-in method __new__ of type object at 0x1E1CDBD0>'
p29
sS'__class__'
p30
S"<type 'exceptions.SyntaxError'>"
p31
sS'filename'
p32
S"'D:\\\\Dise\\xf1o Web\\\\Proyectos\\\\Parleyweb\\\\web2py\\\\applications\\\\webparley\\\\controllers/admin.py'"
p33
sS'lineno'
p34
S'36'
p35
sS'msg'
p36
S"'invalid syntax'"
p37
sS'__doc__'
p38
S"'Invalid syntax.'"
p39
sS'__getitem__'
p40
S"<method-wrapper '__getitem__' of exceptions.SyntaxError object at 0x06A020B0>"
p41
sS'__setstate__'
p42
S'<built-in method __setstate__ of exceptions.SyntaxError object at 0x06A020B0>'
p43
sS'__getattribute__'
p44
S"<method-wrapper '__getattribute__' of exceptions.SyntaxError object at 0x06A020B0>"
p45
sS'print_file_and_line'
p46
S'None'
p47
sS'args'
p48
S'(\'invalid syntax\', (\'D:\\\\Dise\\xf1o Web\\\\Proyectos\\\\Parleyweb\\\\web2py\\\\applications\\\\webparley\\\\controllers/admin.py\', 36, 46, "       redirect(URL(\'buscar_ejemplos\', vars=a=request.post_vars.palabra))\\n"))'
p49
sS'offset'
p50
S'46'
p51
sS'__delattr__'
p52
S"<method-wrapper '__delattr__' of exceptions.SyntaxError object at 0x06A020B0>"
p53
sS'__repr__'
p54
S"<method-wrapper '__repr__' of exceptions.SyntaxError object at 0x06A020B0>"
p55
sS'__hash__'
p56
S"<method-wrapper '__hash__' of exceptions.SyntaxError object at 0x06A020B0>"
p57
ssS'evalue'
p58
S'invalid syntax (controllers/admin.py, line 36)'
p59
sS'request'
p60
ccopy_reg
_reconstructor
p61
(cgluon.html
BEAUTIFY
p62
c__builtin__
object
p63
NtRp64
(dp65
S'attributes'
p66
(dp67
sS'components'
p68
(lp69
g61
(cgluon.html
TABLE
p70
g63
NtRp71
(dp72
g66
(dp73
S'level'
p74
I5
ssS'parent'
p75
Nsg68
(lp76
g61
(cgluon.html
TR
p77
g63
NtRp78
(dp79
g66
(dp80
sg75
g71
sg68
(lp81
g61
(cgluon.html
TD
p82
g63
NtRp83
(dp84
g66
(dp85
S'_style'
p86
S'font-weight:bold;vertical-align:top'
p87
ssg75
g78
sg68
(lp88
S'ajax'
p89
asbag61
(g82
g63
NtRp90
(dp91
g66
(dp92
S'_valign'
p93
S'top'
p94
ssg75
g78
sg68
(lp95
S':'
asbag61
(g82
g63
NtRp96
(dp97
g66
(dp98
sg75
g78
sg68
(lp99
g61
(g62
g63
NtRp100
(dp101
g66
(dp102
g74
I5
ssg75
g96
sg68
(lp103
S'False'
p104
asbasbasbag61
(g77
g63
NtRp105
(dp106
g66
(dp107
sg75
g71
sg68
(lp108
g61
(g82
g63
NtRp109
(dp110
g66
(dp111
g86
g87
ssg75
g105
sg68
(lp112
S'application'
p113
asbag61
(g82
g63
NtRp114
(dp115
g66
(dp116
g93
g94
ssg75
g105
sg68
(lp117
S':'
asbag61
(g82
g63
NtRp118
(dp119
g66
(dp120
sg75
g105
sg68
(lp121
g61
(g62
g63
NtRp122
(dp123
g66
(dp124
g74
I5
ssg75
g118
sg68
(lp125
S'webparley'
p126
asbasbasbag61
(g77
g63
NtRp127
(dp128
g66
(dp129
sg75
g71
sg68
(lp130
g61
(g82
g63
NtRp131
(dp132
g66
(dp133
g86
g87
ssg75
g127
sg68
(lp134
g48
asbag61
(g82
g63
NtRp135
(dp136
g66
(dp137
g93
g94
ssg75
g127
sg68
(lp138
S':'
asbag61
(g82
g63
NtRp139
(dp140
g66
(dp141
sg75
g127
sg68
(lp142
g61
(g62
g63
NtRp143
(dp144
g66
(dp145
g74
I5
ssg75
g139
sg68
(lp146
g61
(g70
g63
NtRp147
(dp148
g66
(dp149
g74
I4
ssg75
Nsg68
(lp150
sbasbasbasbag61
(g77
g63
NtRp151
(dp152
g66
(dp153
sg75
g71
sg68
(lp154
g61
(g82
g63
NtRp155
(dp156
g66
(dp157
g86
g87
ssg75
g151
sg68
(lp158
S'body'
p159
asbag61
(g82
g63
NtRp160
(dp161
g66
(dp162
g93
g94
ssg75
g151
sg68
(lp163
S':'
asbag61
(g82
g63
NtRp164
(dp165
g66
(dp166
sg75
g151
sg68
(lp167
g61
(g62
g63
NtRp168
(dp169
g66
(dp170
g74
I5
ssg75
g164
sg68
(lp171
S"<open file '<fdopen>', mode 'w+b' at 0x065E72F0>"
p172
asbasbasbag61
(g77
g63
NtRp173
(dp174
g66
(dp175
sg75
g71
sg68
(lp176
g61
(g82
g63
NtRp177
(dp178
g66
(dp179
g86
g87
ssg75
g173
sg68
(lp180
S'client'
p181
asbag61
(g82
g63
NtRp182
(dp183
g66
(dp184
g93
g94
ssg75
g173
sg68
(lp185
S':'
asbag61
(g82
g63
NtRp186
(dp187
g66
(dp188
sg75
g173
sg68
(lp189
g61
(g62
g63
NtRp190
(dp191
g66
(dp192
g74
I5
ssg75
g186
sg68
(lp193
S'127.0.0.1'
p194
asbasbasbag61
(g77
g63
NtRp195
(dp196
g66
(dp197
sg75
g71
sg68
(lp198
g61
(g82
g63
NtRp199
(dp200
g66
(dp201
g86
g87
ssg75
g195
sg68
(lp202
S'controller'
p203
asbag61
(g82
g63
NtRp204
(dp205
g66
(dp206
g93
g94
ssg75
g195
sg68
(lp207
S':'
asbag61
(g82
g63
NtRp208
(dp209
g66
(dp210
sg75
g195
sg68
(lp211
g61
(g62
g63
NtRp212
(dp213
g66
(dp214
g74
I5
ssg75
g208
sg68
(lp215
S'admin'
p216
asbasbasbag61
(g77
g63
NtRp217
(dp218
g66
(dp219
sg75
g71
sg68
(lp220
g61
(g82
g63
NtRp221
(dp222
g66
(dp223
g86
g87
ssg75
g217
sg68
(lp224
S'cookies'
p225
asbag61
(g82
g63
NtRp226
(dp227
g66
(dp228
g93
g94
ssg75
g217
sg68
(lp229
S':'
asbag61
(g82
g63
NtRp230
(dp231
g66
(dp232
sg75
g217
sg68
(lp233
g61
(g62
g63
NtRp234
(dp235
g66
(dp236
g74
I5
ssg75
g230
sg68
(lp237
g61
(g70
g63
NtRp238
(dp239
g66
(dp240
g74
I4
ssg75
Nsg68
(lp241
g61
(g77
g63
NtRp242
(dp243
g66
(dp244
sg75
g238
sg68
(lp245
g61
(g82
g63
NtRp246
(dp247
g66
(dp248
g86
g87
ssg75
g242
sg68
(lp249
S'session_id_admin'
p250
asbag61
(g82
g63
NtRp251
(dp252
g66
(dp253
g93
g94
ssg75
g242
sg68
(lp254
S':'
asbag61
(g82
g63
NtRp255
(dp256
g66
(dp257
sg75
g242
sg68
(lp258
g61
(g62
g63
NtRp259
(dp260
g66
(dp261
g74
I4
ssg75
g255
sg68
(lp262
g61
(g70
g63
NtRp263
(dp264
g66
(dp265
g74
I3
ssg75
Nsg68
(lp266
g61
(g77
g63
NtRp267
(dp268
g66
(dp269
sg75
g263
sg68
(lp270
g61
(g82
g63
NtRp271
(dp272
g66
(dp273
g86
g87
ssg75
g267
sg68
(lp274
S'comment'
p275
asbag61
(g82
g63
NtRp276
(dp277
g66
(dp278
g93
g94
ssg75
g267
sg68
(lp279
S':'
asbag61
(g82
g63
NtRp280
(dp281
g66
(dp282
sg75
g267
sg68
(lp283
g61
(g62
g63
NtRp284
(dp285
g66
(dp286
g74
I3
ssg75
g280
sg68
(lp287
S''
asbasbasbag61
(g77
g63
NtRp288
(dp289
g66
(dp290
sg75
g263
sg68
(lp291
g61
(g82
g63
NtRp292
(dp293
g66
(dp294
g86
g87
ssg75
g288
sg68
(lp295
S'domain'
p296
asbag61
(g82
g63
NtRp297
(dp298
g66
(dp299
g93
g94
ssg75
g288
sg68
(lp300
S':'
asbag61
(g82
g63
NtRp301
(dp302
g66
(dp303
sg75
g288
sg68
(lp304
g61
(g62
g63
NtRp305
(dp306
g66
(dp307
g74
I3
ssg75
g301
sg68
(lp308
S''
asbasbasbag61
(g77
g63
NtRp309
(dp310
g66
(dp311
sg75
g263
sg68
(lp312
g61
(g82
g63
NtRp313
(dp314
g66
(dp315
g86
g87
ssg75
g309
sg68
(lp316
S'expires'
p317
asbag61
(g82
g63
NtRp318
(dp319
g66
(dp320
g93
g94
ssg75
g309
sg68
(lp321
S':'
asbag61
(g82
g63
NtRp322
(dp323
g66
(dp324
sg75
g309
sg68
(lp325
g61
(g62
g63
NtRp326
(dp327
g66
(dp328
g74
I3
ssg75
g322
sg68
(lp329
S''
asbasbasbag61
(g77
g63
NtRp330
(dp331
g66
(dp332
sg75
g263
sg68
(lp333
g61
(g82
g63
NtRp334
(dp335
g66
(dp336
g86
g87
ssg75
g330
sg68
(lp337
S'max-age'
p338
asbag61
(g82
g63
NtRp339
(dp340
g66
(dp341
g93
g94
ssg75
g330
sg68
(lp342
S':'
asbag61
(g82
g63
NtRp343
(dp344
g66
(dp345
sg75
g330
sg68
(lp346
g61
(g62
g63
NtRp347
(dp348
g66
(dp349
g74
I3
ssg75
g343
sg68
(lp350
S''
asbasbasbag61
(g77
g63
NtRp351
(dp352
g66
(dp353
sg75
g263
sg68
(lp354
g61
(g82
g63
NtRp355
(dp356
g66
(dp357
g86
g87
ssg75
g351
sg68
(lp358
S'path'
p359
asbag61
(g82
g63
NtRp360
(dp361
g66
(dp362
g93
g94
ssg75
g351
sg68
(lp363
S':'
asbag61
(g82
g63
NtRp364
(dp365
g66
(dp366
sg75
g351
sg68
(lp367
g61
(g62
g63
NtRp368
(dp369
g66
(dp370
g74
I3
ssg75
g364
sg68
(lp371
S''
asbasbasbag61
(g77
g63
NtRp372
(dp373
g66
(dp374
sg75
g263
sg68
(lp375
g61
(g82
g63
NtRp376
(dp377
g66
(dp378
g86
g87
ssg75
g372
sg68
(lp379
S'secure'
p380
asbag61
(g82
g63
NtRp381
(dp382
g66
(dp383
g93
g94
ssg75
g372
sg68
(lp384
S':'
asbag61
(g82
g63
NtRp385
(dp386
g66
(dp387
sg75
g372
sg68
(lp388
g61
(g62
g63
NtRp389
(dp390
g66
(dp391
g74
I3
ssg75
g385
sg68
(lp392
S''
asbasbasbag61
(g77
g63
NtRp393
(dp394
g66
(dp395
sg75
g263
sg68
(lp396
g61
(g82
g63
NtRp397
(dp398
g66
(dp399
g86
g87
ssg75
g393
sg68
(lp400
S'version'
p401
asbag61
(g82
g63
NtRp402
(dp403
g66
(dp404
g93
g94
ssg75
g393
sg68
(lp405
S':'
asbag61
(g82
g63
NtRp406
(dp407
g66
(dp408
sg75
g393
sg68
(lp409
g61
(g62
g63
NtRp410
(dp411
g66
(dp412
g74
I3
ssg75
g406
sg68
(lp413
S''
asbasbasbasbasbasbasbag61
(g77
g63
NtRp414
(dp415
g66
(dp416
sg75
g238
sg68
(lp417
g61
(g82
g63
NtRp418
(dp419
g66
(dp420
g86
g87
ssg75
g414
sg68
(lp421
S'session_id_webparley'
p422
asbag61
(g82
g63
NtRp423
(dp424
g66
(dp425
g93
g94
ssg75
g414
sg68
(lp426
S':'
asbag61
(g82
g63
NtRp427
(dp428
g66
(dp429
sg75
g414
sg68
(lp430
g61
(g62
g63
NtRp431
(dp432
g66
(dp433
g74
I4
ssg75
g427
sg68
(lp434
g61
(g70
g63
NtRp435
(dp436
g66
(dp437
g74
I3
ssg75
Nsg68
(lp438
g61
(g77
g63
NtRp439
(dp440
g66
(dp441
sg75
g435
sg68
(lp442
g61
(g82
g63
NtRp443
(dp444
g66
(dp445
g86
g87
ssg75
g439
sg68
(lp446
g275
asbag61
(g82
g63
NtRp447
(dp448
g66
(dp449
g93
g94
ssg75
g439
sg68
(lp450
S':'
asbag61
(g82
g63
NtRp451
(dp452
g66
(dp453
sg75
g439
sg68
(lp454
g61
(g62
g63
NtRp455
(dp456
g66
(dp457
g74
I3
ssg75
g451
sg68
(lp458
S''
asbasbasbag61
(g77
g63
NtRp459
(dp460
g66
(dp461
sg75
g435
sg68
(lp462
g61
(g82
g63
NtRp463
(dp464
g66
(dp465
g86
g87
ssg75
g459
sg68
(lp466
g296
asbag61
(g82
g63
NtRp467
(dp468
g66
(dp469
g93
g94
ssg75
g459
sg68
(lp470
S':'
asbag61
(g82
g63
NtRp471
(dp472
g66
(dp473
sg75
g459
sg68
(lp474
g61
(g62
g63
NtRp475
(dp476
g66
(dp477
g74
I3
ssg75
g471
sg68
(lp478
S''
asbasbasbag61
(g77
g63
NtRp479
(dp480
g66
(dp481
sg75
g435
sg68
(lp482
g61
(g82
g63
NtRp483
(dp484
g66
(dp485
g86
g87
ssg75
g479
sg68
(lp486
g317
asbag61
(g82
g63
NtRp487
(dp488
g66
(dp489
g93
g94
ssg75
g479
sg68
(lp490
S':'
asbag61
(g82
g63
NtRp491
(dp492
g66
(dp493
sg75
g479
sg68
(lp494
g61
(g62
g63
NtRp495
(dp496
g66
(dp497
g74
I3
ssg75
g491
sg68
(lp498
S''
asbasbasbag61
(g77
g63
NtRp499
(dp500
g66
(dp501
sg75
g435
sg68
(lp502
g61
(g82
g63
NtRp503
(dp504
g66
(dp505
g86
g87
ssg75
g499
sg68
(lp506
g338
asbag61
(g82
g63
NtRp507
(dp508
g66
(dp509
g93
g94
ssg75
g499
sg68
(lp510
S':'
asbag61
(g82
g63
NtRp511
(dp512
g66
(dp513
sg75
g499
sg68
(lp514
g61
(g62
g63
NtRp515
(dp516
g66
(dp517
g74
I3
ssg75
g511
sg68
(lp518
S''
asbasbasbag61
(g77
g63
NtRp519
(dp520
g66
(dp521
sg75
g435
sg68
(lp522
g61
(g82
g63
NtRp523
(dp524
g66
(dp525
g86
g87
ssg75
g519
sg68
(lp526
g359
asbag61
(g82
g63
NtRp527
(dp528
g66
(dp529
g93
g94
ssg75
g519
sg68
(lp530
S':'
asbag61
(g82
g63
NtRp531
(dp532
g66
(dp533
sg75
g519
sg68
(lp534
g61
(g62
g63
NtRp535
(dp536
g66
(dp537
g74
I3
ssg75
g531
sg68
(lp538
S''
asbasbasbag61
(g77
g63
NtRp539
(dp540
g66
(dp541
sg75
g435
sg68
(lp542
g61
(g82
g63
NtRp543
(dp544
g66
(dp545
g86
g87
ssg75
g539
sg68
(lp546
g380
asbag61
(g82
g63
NtRp547
(dp548
g66
(dp549
g93
g94
ssg75
g539
sg68
(lp550
S':'
asbag61
(g82
g63
NtRp551
(dp552
g66
(dp553
sg75
g539
sg68
(lp554
g61
(g62
g63
NtRp555
(dp556
g66
(dp557
g74
I3
ssg75
g551
sg68
(lp558
S''
asbasbasbag61
(g77
g63
NtRp559
(dp560
g66
(dp561
sg75
g435
sg68
(lp562
g61
(g82
g63
NtRp563
(dp564
g66
(dp565
g86
g87
ssg75
g559
sg68
(lp566
g401
asbag61
(g82
g63
NtRp567
(dp568
g66
(dp569
g93
g94
ssg75
g559
sg68
(lp570
S':'
asbag61
(g82
g63
NtRp571
(dp572
g66
(dp573
sg75
g559
sg68
(lp574
g61
(g62
g63
NtRp575
(dp576
g66
(dp577
g74
I3
ssg75
g571
sg68
(lp578
S''
asbasbasbasbasbasbasbasbasbasbasbag61
(g77
g63
NtRp579
(dp580
g66
(dp581
sg75
g71
sg68
(lp582
g61
(g82
g63
NtRp583
(dp584
g66
(dp585
g86
g87
ssg75
g579
sg68
(lp586
S'env'
p587
asbag61
(g82
g63
NtRp588
(dp589
g66
(dp590
g93
g94
ssg75
g579
sg68
(lp591
S':'
asbag61
(g82
g63
NtRp592
(dp593
g66
(dp594
sg75
g579
sg68
(lp595
g61
(g62
g63
NtRp596
(dp597
g66
(dp598
g74
I5
ssg75
g592
sg68
(lp599
g61
(g70
g63
NtRp600
(dp601
g66
(dp602
g74
I4
ssg75
Nsg68
(lp603
g61
(g77
g63
NtRp604
(dp605
g66
(dp606
sg75
g600
sg68
(lp607
g61
(g82
g63
NtRp608
(dp609
g66
(dp610
g86
g87
ssg75
g604
sg68
(lp611
S'app_folders'
p612
asbag61
(g82
g63
NtRp613
(dp614
g66
(dp615
g93
g94
ssg75
g604
sg68
(lp616
S':'
asbag61
(g82
g63
NtRp617
(dp618
g66
(dp619
sg75
g604
sg68
(lp620
g61
(g62
g63
NtRp621
(dp622
g66
(dp623
g74
I4
ssg75
g617
sg68
(lp624
S"set(['D:\\\\Dise\\xf1o Web\\\\Proyectos\\\\Parleyweb\\\\web2py\\\\applications\\\\admin\\\\', 'D:\\\\Dise\\xf1o Web\\\\Proyectos\\\\Parleyweb\\\\web2py\\\\applications\\\\webparley\\\\'])"
p625
asbasbasbag61
(g77
g63
NtRp626
(dp627
g66
(dp628
sg75
g600
sg68
(lp629
g61
(g82
g63
NtRp630
(dp631
g66
(dp632
g86
g87
ssg75
g626
sg68
(lp633
S'applications_parent'
p634
asbag61
(g82
g63
NtRp635
(dp636
g66
(dp637
g93
g94
ssg75
g626
sg68
(lp638
S':'
asbag61
(g82
g63
NtRp639
(dp640
g66
(dp641
sg75
g626
sg68
(lp642
g61
(g62
g63
NtRp643
(dp644
g66
(dp645
g74
I4
ssg75
g639
sg68
(lp646
S'D:\\Dise\xf1o Web\\Proyectos\\Parleyweb\\web2py'
p647
asbasbasbag61
(g77
g63
NtRp648
(dp649
g66
(dp650
sg75
g600
sg68
(lp651
g61
(g82
g63
NtRp652
(dp653
g66
(dp654
g86
g87
ssg75
g648
sg68
(lp655
S'cmd_args'
p656
asbag61
(g82
g63
NtRp657
(dp658
g66
(dp659
g93
g94
ssg75
g648
sg68
(lp660
S':'
asbag61
(g82
g63
NtRp661
(dp662
g66
(dp663
sg75
g648
sg68
(lp664
g61
(g62
g63
NtRp665
(dp666
g66
(dp667
g74
I4
ssg75
g661
sg68
(lp668
g61
(g70
g63
NtRp669
(dp670
g66
(dp671
g74
I3
ssg75
Nsg68
(lp672
sbasbasbasbag61
(g77
g63
NtRp673
(dp674
g66
(dp675
sg75
g600
sg68
(lp676
g61
(g82
g63
NtRp677
(dp678
g66
(dp679
g86
g87
ssg75
g673
sg68
(lp680
S'cmd_options'
p681
asbag61
(g82
g63
NtRp682
(dp683
g66
(dp684
g93
g94
ssg75
g673
sg68
(lp685
S':'
asbag61
(g82
g63
NtRp686
(dp687
g66
(dp688
sg75
g673
sg68
(lp689
g61
(g62
g63
NtRp690
(dp691
g66
(dp692
g74
I4
ssg75
g686
sg68
(lp693
S"<Values at 0x2fac260: {'verbose': False, 'ip': '127.0.0.1', 'shutdown_timeout': 5, 'taskbar': False, 'nocron': False, 'pid_filename': 'httpserver.pid', 'maxthreads': None, 'softcron': False, 'server_name': 'craxsnet-PC', 'bpython': False, 'nogui': False, 'port': 8000, 'extcron': False, 'debuglevel': 30, 'test': None, 'folder': 'D:\\\\Dise\\xf1o Web\\\\Proyectos\\\\Parleyweb\\\\web2py', 'config': '', 'import_models': False, 'winservice': '', 'shell': None, 'run': '', 'log_filename': 'httpserver.log', 'args': [''], 'socket_timeout': 5, 'ssl_ca_certificate': None, 'scheduler': None, 'profiler_filename': None, 'ssl_private_key': '', 'password': '<ask>', 'request_queue_size': 5, 'ssl_certificate': '', 'cronjob': False, 'numthreads': None, 'quiet': False, 'interfaces': None, 'minthreads': None, 'timeout': 10, 'plain': False, 'nobanner': False}>"
p694
asbasbasbag61
(g77
g63
NtRp695
(dp696
g66
(dp697
sg75
g600
sg68
(lp698
g61
(g82
g63
NtRp699
(dp700
g66
(dp701
g86
g87
ssg75
g695
sg68
(lp702
S'content_length'
p703
asbag61
(g82
g63
NtRp704
(dp705
g66
(dp706
g93
g94
ssg75
g695
sg68
(lp707
S':'
asbag61
(g82
g63
NtRp708
(dp709
g66
(dp710
sg75
g695
sg68
(lp711
g61
(g62
g63
NtRp712
(dp713
g66
(dp714
g74
I4
ssg75
g708
sg68
(lp715
S'1553'
p716
asbasbasbag61
(g77
g63
NtRp717
(dp718
g66
(dp719
sg75
g600
sg68
(lp720
g61
(g82
g63
NtRp721
(dp722
g66
(dp723
g86
g87
ssg75
g717
sg68
(lp724
S'content_type'
p725
asbag61
(g82
g63
NtRp726
(dp727
g66
(dp728
g93
g94
ssg75
g717
sg68
(lp729
S':'
asbag61
(g82
g63
NtRp730
(dp731
g66
(dp732
sg75
g717
sg68
(lp733
g61
(g62
g63
NtRp734
(dp735
g66
(dp736
g74
I4
ssg75
g730
sg68
(lp737
S'multipart/form-data; boundary=---------------------------16541483331115'
p738
asbasbasbag61
(g77
g63
NtRp739
(dp740
g66
(dp741
sg75
g600
sg68
(lp742
g61
(g82
g63
NtRp743
(dp744
g66
(dp745
g86
g87
ssg75
g739
sg68
(lp746
S'db_sessions'
p747
asbag61
(g82
g63
NtRp748
(dp749
g66
(dp750
g93
g94
ssg75
g739
sg68
(lp751
S':'
asbag61
(g82
g63
NtRp752
(dp753
g66
(dp754
sg75
g739
sg68
(lp755
g61
(g62
g63
NtRp756
(dp757
g66
(dp758
g74
I4
ssg75
g752
sg68
(lp759
S'set([])'
p760
asbasbasbag61
(g77
g63
NtRp761
(dp762
g66
(dp763
sg75
g600
sg68
(lp764
g61
(g82
g63
NtRp765
(dp766
g66
(dp767
g86
g87
ssg75
g761
sg68
(lp768
S'debugging'
p769
asbag61
(g82
g63
NtRp770
(dp771
g66
(dp772
g93
g94
ssg75
g761
sg68
(lp773
S':'
asbag61
(g82
g63
NtRp774
(dp775
g66
(dp776
sg75
g761
sg68
(lp777
g61
(g62
g63
NtRp778
(dp779
g66
(dp780
g74
I4
ssg75
g774
sg68
(lp781
g104
asbasbasbag61
(g77
g63
NtRp782
(dp783
g66
(dp784
sg75
g600
sg68
(lp785
g61
(g82
g63
NtRp786
(dp787
g66
(dp788
g86
g87
ssg75
g782
sg68
(lp789
S'gluon_parent'
p790
asbag61
(g82
g63
NtRp791
(dp792
g66
(dp793
g93
g94
ssg75
g782
sg68
(lp794
S':'
asbag61
(g82
g63
NtRp795
(dp796
g66
(dp797
sg75
g782
sg68
(lp798
g61
(g62
g63
NtRp799
(dp800
g66
(dp801
g74
I4
ssg75
g795
sg68
(lp802
S'D:\\Dise\xf1o Web\\Proyectos\\Parleyweb\\web2py'
p803
asbasbasbag61
(g77
g63
NtRp804
(dp805
g66
(dp806
sg75
g600
sg68
(lp807
g61
(g82
g63
NtRp808
(dp809
g66
(dp810
g86
g87
ssg75
g804
sg68
(lp811
S'http_accept'
p812
asbag61
(g82
g63
NtRp813
(dp814
g66
(dp815
g93
g94
ssg75
g804
sg68
(lp816
S':'
asbag61
(g82
g63
NtRp817
(dp818
g66
(dp819
sg75
g804
sg68
(lp820
g61
(g62
g63
NtRp821
(dp822
g66
(dp823
g74
I4
ssg75
g817
sg68
(lp824
S'text/html,application/xhtml+xml,application/xml;q=0.9,*/*;q=0.8'
p825
asbasbasbag61
(g77
g63
NtRp826
(dp827
g66
(dp828
sg75
g600
sg68
(lp829
g61
(g82
g63
NtRp830
(dp831
g66
(dp832
g86
g87
ssg75
g826
sg68
(lp833
S'http_accept_encoding'
p834
asbag61
(g82
g63
NtRp835
(dp836
g66
(dp837
g93
g94
ssg75
g826
sg68
(lp838
S':'
asbag61
(g82
g63
NtRp839
(dp840
g66
(dp841
sg75
g826
sg68
(lp842
g61
(g62
g63
NtRp843
(dp844
g66
(dp845
g74
I4
ssg75
g839
sg68
(lp846
S'gzip, deflate'
p847
asbasbasbag61
(g77
g63
NtRp848
(dp849
g66
(dp850
sg75
g600
sg68
(lp851
g61
(g82
g63
NtRp852
(dp853
g66
(dp854
g86
g87
ssg75
g848
sg68
(lp855
S'http_accept_language'
p856
asbag61
(g82
g63
NtRp857
(dp858
g66
(dp859
g93
g94
ssg75
g848
sg68
(lp860
S':'
asbag61
(g82
g63
NtRp861
(dp862
g66
(dp863
sg75
g848
sg68
(lp864
g61
(g62
g63
NtRp865
(dp866
g66
(dp867
g74
I4
ssg75
g861
sg68
(lp868
S'es-es,de-de;q=0.8,es;q=0.6,en-us;q=0.4,en;q=0.2'
p869
asbasbasbag61
(g77
g63
NtRp870
(dp871
g66
(dp872
sg75
g600
sg68
(lp873
g61
(g82
g63
NtRp874
(dp875
g66
(dp876
g86
g87
ssg75
g870
sg68
(lp877
S'http_connection'
p878
asbag61
(g82
g63
NtRp879
(dp880
g66
(dp881
g93
g94
ssg75
g870
sg68
(lp882
S':'
asbag61
(g82
g63
NtRp883
(dp884
g66
(dp885
sg75
g870
sg68
(lp886
g61
(g62
g63
NtRp887
(dp888
g66
(dp889
g74
I4
ssg75
g883
sg68
(lp890
S'keep-alive'
p891
asbasbasbag61
(g77
g63
NtRp892
(dp893
g66
(dp894
sg75
g600
sg68
(lp895
g61
(g82
g63
NtRp896
(dp897
g66
(dp898
g86
g87
ssg75
g892
sg68
(lp899
S'http_content_length'
p900
asbag61
(g82
g63
NtRp901
(dp902
g66
(dp903
g93
g94
ssg75
g892
sg68
(lp904
S':'
asbag61
(g82
g63
NtRp905
(dp906
g66
(dp907
sg75
g892
sg68
(lp908
g61
(g62
g63
NtRp909
(dp910
g66
(dp911
g74
I4
ssg75
g905
sg68
(lp912
g716
asbasbasbag61
(g77
g63
NtRp913
(dp914
g66
(dp915
sg75
g600
sg68
(lp916
g61
(g82
g63
NtRp917
(dp918
g66
(dp919
g86
g87
ssg75
g913
sg68
(lp920
S'http_content_type'
p921
asbag61
(g82
g63
NtRp922
(dp923
g66
(dp924
g93
g94
ssg75
g913
sg68
(lp925
S':'
asbag61
(g82
g63
NtRp926
(dp927
g66
(dp928
sg75
g913
sg68
(lp929
g61
(g62
g63
NtRp930
(dp931
g66
(dp932
g74
I4
ssg75
g926
sg68
(lp933
g738
asbasbasbag61
(g77
g63
NtRp934
(dp935
g66
(dp936
sg75
g600
sg68
(lp937
g61
(g82
g63
NtRp938
(dp939
g66
(dp940
g86
g87
ssg75
g934
sg68
(lp941
S'http_cookie'
p942
asbag61
(g82
g63
NtRp943
(dp944
g66
(dp945
g93
g94
ssg75
g934
sg68
(lp946
S':'
asbag61
(g82
g63
NtRp947
(dp948
g66
(dp949
sg75
g934
sg68
(lp950
g61
(g62
g63
NtRp951
(dp952
g66
(dp953
g74
I4
ssg75
g947
sg68
(lp954
S'__utma=96992031.26429765.1325029743.1325029743.1326549329.2; __utmz=96992031.1325029743.1.1.utmcsr=(direct)|utmccn=(direct)|utmcmd=(none); session_id_webparley=127.0.0.1-a9f7f88d-d8a4-49c6-b6ff-46adf43325c3; session_id_admin=127.0.0.1-cdf306d6-0e84-40d6-bde7-ad7dfd3167dd'
p955
asbasbasbag61
(g77
g63
NtRp956
(dp957
g66
(dp958
sg75
g600
sg68
(lp959
g61
(g82
g63
NtRp960
(dp961
g66
(dp962
g86
g87
ssg75
g956
sg68
(lp963
S'http_host'
p964
asbag61
(g82
g63
NtRp965
(dp966
g66
(dp967
g93
g94
ssg75
g956
sg68
(lp968
S':'
asbag61
(g82
g63
NtRp969
(dp970
g66
(dp971
sg75
g956
sg68
(lp972
g61
(g62
g63
NtRp973
(dp974
g66
(dp975
g74
I4
ssg75
g969
sg68
(lp976
S'127.0.0.1:8000'
p977
asbasbasbag61
(g77
g63
NtRp978
(dp979
g66
(dp980
sg75
g600
sg68
(lp981
g61
(g82
g63
NtRp982
(dp983
g66
(dp984
g86
g87
ssg75
g978
sg68
(lp985
S'http_referer'
p986
asbag61
(g82
g63
NtRp987
(dp988
g66
(dp989
g93
g94
ssg75
g978
sg68
(lp990
S':'
asbag61
(g82
g63
NtRp991
(dp992
g66
(dp993
sg75
g978
sg68
(lp994
g61
(g62
g63
NtRp995
(dp996
g66
(dp997
g74
I4
ssg75
g991
sg68
(lp998
S'http://127.0.0.1:8000/webparley/admin/agregar_palabra?a=h%C3%B6%C3%B6%C3%B6%C3%B6%C3%B6%C3%B6'
p999
asbasbasbag61
(g77
g63
NtRp1000
(dp1001
g66
(dp1002
sg75
g600
sg68
(lp1003
g61
(g82
g63
NtRp1004
(dp1005
g66
(dp1006
g86
g87
ssg75
g1000
sg68
(lp1007
S'http_user_agent'
p1008
asbag61
(g82
g63
NtRp1009
(dp1010
g66
(dp1011
g93
g94
ssg75
g1000
sg68
(lp1012
S':'
asbag61
(g82
g63
NtRp1013
(dp1014
g66
(dp1015
sg75
g1000
sg68
(lp1016
g61
(g62
g63
NtRp1017
(dp1018
g66
(dp1019
g74
I4
ssg75
g1013
sg68
(lp1020
S'Mozilla/5.0 (Windows NT 6.1; WOW64; rv:11.0) Gecko/20100101 Firefox/11.0'
p1021
asbasbasbag61
(g77
g63
NtRp1022
(dp1023
g66
(dp1024
sg75
g600
sg68
(lp1025
g61
(g82
g63
NtRp1026
(dp1027
g66
(dp1028
g86
g87
ssg75
g1022
sg68
(lp1029
S'is_jython'
p1030
asbag61
(g82
g63
NtRp1031
(dp1032
g66
(dp1033
g93
g94
ssg75
g1022
sg68
(lp1034
S':'
asbag61
(g82
g63
NtRp1035
(dp1036
g66
(dp1037
sg75
g1022
sg68
(lp1038
g61
(g62
g63
NtRp1039
(dp1040
g66
(dp1041
g74
I4
ssg75
g1035
sg68
(lp1042
g104
asbasbasbag61
(g77
g63
NtRp1043
(dp1044
g66
(dp1045
sg75
g600
sg68
(lp1046
g61
(g82
g63
NtRp1047
(dp1048
g66
(dp1049
g86
g87
ssg75
g1043
sg68
(lp1050
S'is_pypy'
p1051
asbag61
(g82
g63
NtRp1052
(dp1053
g66
(dp1054
g93
g94
ssg75
g1043
sg68
(lp1055
S':'
asbag61
(g82
g63
NtRp1056
(dp1057
g66
(dp1058
sg75
g1043
sg68
(lp1059
g61
(g62
g63
NtRp1060
(dp1061
g66
(dp1062
g74
I4
ssg75
g1056
sg68
(lp1063
g104
asbasbasbag61
(g77
g63
NtRp1064
(dp1065
g66
(dp1066
sg75
g600
sg68
(lp1067
g61
(g82
g63
NtRp1068
(dp1069
g66
(dp1070
g86
g87
ssg75
g1064
sg68
(lp1071
S'path_info'
p1072
asbag61
(g82
g63
NtRp1073
(dp1074
g66
(dp1075
g93
g94
ssg75
g1064
sg68
(lp1076
S':'
asbag61
(g82
g63
NtRp1077
(dp1078
g66
(dp1079
sg75
g1064
sg68
(lp1080
g61
(g62
g63
NtRp1081
(dp1082
g66
(dp1083
g74
I4
ssg75
g1077
sg68
(lp1084
S'/webparley/admin/agregar_palabra'
p1085
asbasbasbag61
(g77
g63
NtRp1086
(dp1087
g66
(dp1088
sg75
g600
sg68
(lp1089
g61
(g82
g63
NtRp1090
(dp1091
g66
(dp1092
g86
g87
ssg75
g1086
sg68
(lp1093
S'query_string'
p1094
asbag61
(g82
g63
NtRp1095
(dp1096
g66
(dp1097
g93
g94
ssg75
g1086
sg68
(lp1098
S':'
asbag61
(g82
g63
NtRp1099
(dp1100
g66
(dp1101
sg75
g1086
sg68
(lp1102
g61
(g62
g63
NtRp1103
(dp1104
g66
(dp1105
g74
I4
ssg75
g1099
sg68
(lp1106
S'a=h%C3%B6%C3%B6%C3%B6%C3%B6%C3%B6%C3%B6'
p1107
asbasbasbag61
(g77
g63
NtRp1108
(dp1109
g66
(dp1110
sg75
g600
sg68
(lp1111
g61
(g82
g63
NtRp1112
(dp1113
g66
(dp1114
g86
g87
ssg75
g1108
sg68
(lp1115
S'remote_addr'
p1116
asbag61
(g82
g63
NtRp1117
(dp1118
g66
(dp1119
g93
g94
ssg75
g1108
sg68
(lp1120
S':'
asbag61
(g82
g63
NtRp1121
(dp1122
g66
(dp1123
sg75
g1108
sg68
(lp1124
g61
(g62
g63
NtRp1125
(dp1126
g66
(dp1127
g74
I4
ssg75
g1121
sg68
(lp1128
g194
asbasbasbag61
(g77
g63
NtRp1129
(dp1130
g66
(dp1131
sg75
g600
sg68
(lp1132
g61
(g82
g63
NtRp1133
(dp1134
g66
(dp1135
g86
g87
ssg75
g1129
sg68
(lp1136
S'remote_port'
p1137
asbag61
(g82
g63
NtRp1138
(dp1139
g66
(dp1140
g93
g94
ssg75
g1129
sg68
(lp1141
S':'
asbag61
(g82
g63
NtRp1142
(dp1143
g66
(dp1144
sg75
g1129
sg68
(lp1145
g61
(g62
g63
NtRp1146
(dp1147
g66
(dp1148
g74
I4
ssg75
g1142
sg68
(lp1149
S'55921'
p1150
asbasbasbag61
(g77
g63
NtRp1151
(dp1152
g66
(dp1153
sg75
g600
sg68
(lp1154
g61
(g82
g63
NtRp1155
(dp1156
g66
(dp1157
g86
g87
ssg75
g1151
sg68
(lp1158
S'request_method'
p1159
asbag61
(g82
g63
NtRp1160
(dp1161
g66
(dp1162
g93
g94
ssg75
g1151
sg68
(lp1163
S':'
asbag61
(g82
g63
NtRp1164
(dp1165
g66
(dp1166
sg75
g1151
sg68
(lp1167
g61
(g62
g63
NtRp1168
(dp1169
g66
(dp1170
g74
I4
ssg75
g1164
sg68
(lp1171
S'POST'
p1172
asbasbasbag61
(g77
g63
NtRp1173
(dp1174
g66
(dp1175
sg75
g600
sg68
(lp1176
g61
(g82
g63
NtRp1177
(dp1178
g66
(dp1179
g86
g87
ssg75
g1173
sg68
(lp1180
S'request_uri'
p1181
asbag61
(g82
g63
NtRp1182
(dp1183
g66
(dp1184
g93
g94
ssg75
g1173
sg68
(lp1185
S':'
asbag61
(g82
g63
NtRp1186
(dp1187
g66
(dp1188
sg75
g1173
sg68
(lp1189
g61
(g62
g63
NtRp1190
(dp1191
g66
(dp1192
g74
I4
ssg75
g1186
sg68
(lp1193
S'/webparley/admin/agregar_palabra?a=h%C3%B6%C3%B6%C3%B6%C3%B6%C3%B6%C3%B6'
p1194
asbasbasbag61
(g77
g63
NtRp1195
(dp1196
g66
(dp1197
sg75
g600
sg68
(lp1198
g61
(g82
g63
NtRp1199
(dp1200
g66
(dp1201
g86
g87
ssg75
g1195
sg68
(lp1202
S'script_name'
p1203
asbag61
(g82
g63
NtRp1204
(dp1205
g66
(dp1206
g93
g94
ssg75
g1195
sg68
(lp1207
S':'
asbag61
(g82
g63
NtRp1208
(dp1209
g66
(dp1210
sg75
g1195
sg68
(lp1211
g61
(g62
g63
NtRp1212
(dp1213
g66
(dp1214
g74
I4
ssg75
g1208
sg68
(lp1215
S''
asbasbasbag61
(g77
g63
NtRp1216
(dp1217
g66
(dp1218
sg75
g600
sg68
(lp1219
g61
(g82
g63
NtRp1220
(dp1221
g66
(dp1222
g86
g87
ssg75
g1216
sg68
(lp1223
S'server_name'
p1224
asbag61
(g82
g63
NtRp1225
(dp1226
g66
(dp1227
g93
g94
ssg75
g1216
sg68
(lp1228
S':'
asbag61
(g82
g63
NtRp1229
(dp1230
g66
(dp1231
sg75
g1216
sg68
(lp1232
g61
(g62
g63
NtRp1233
(dp1234
g66
(dp1235
g74
I4
ssg75
g1229
sg68
(lp1236
S'craxsnet-PC'
p1237
asbasbasbag61
(g77
g63
NtRp1238
(dp1239
g66
(dp1240
sg75
g600
sg68
(lp1241
g61
(g82
g63
NtRp1242
(dp1243
g66
(dp1244
g86
g87
ssg75
g1238
sg68
(lp1245
S'server_port'
p1246
asbag61
(g82
g63
NtRp1247
(dp1248
g66
(dp1249
g93
g94
ssg75
g1238
sg68
(lp1250
S':'
asbag61
(g82
g63
NtRp1251
(dp1252
g66
(dp1253
sg75
g1238
sg68
(lp1254
g61
(g62
g63
NtRp1255
(dp1256
g66
(dp1257
g74
I4
ssg75
g1251
sg68
(lp1258
S'8000'
p1259
asbasbasbag61
(g77
g63
NtRp1260
(dp1261
g66
(dp1262
sg75
g600
sg68
(lp1263
g61
(g82
g63
NtRp1264
(dp1265
g66
(dp1266
g86
g87
ssg75
g1260
sg68
(lp1267
S'server_protocol'
p1268
asbag61
(g82
g63
NtRp1269
(dp1270
g66
(dp1271
g93
g94
ssg75
g1260
sg68
(lp1272
S':'
asbag61
(g82
g63
NtRp1273
(dp1274
g66
(dp1275
sg75
g1260
sg68
(lp1276
g61
(g62
g63
NtRp1277
(dp1278
g66
(dp1279
g74
I4
ssg75
g1273
sg68
(lp1280
S'HTTP/1.1'
p1281
asbasbasbag61
(g77
g63
NtRp1282
(dp1283
g66
(dp1284
sg75
g600
sg68
(lp1285
g61
(g82
g63
NtRp1286
(dp1287
g66
(dp1288
g86
g87
ssg75
g1282
sg68
(lp1289
S'server_software'
p1290
asbag61
(g82
g63
NtRp1291
(dp1292
g66
(dp1293
g93
g94
ssg75
g1282
sg68
(lp1294
S':'
asbag61
(g82
g63
NtRp1295
(dp1296
g66
(dp1297
sg75
g1282
sg68
(lp1298
g61
(g62
g63
NtRp1299
(dp1300
g66
(dp1301
g74
I4
ssg75
g1295
sg68
(lp1302
S'Rocket 1.2.4'
p1303
asbasbasbag61
(g77
g63
NtRp1304
(dp1305
g66
(dp1306
sg75
g600
sg68
(lp1307
g61
(g82
g63
NtRp1308
(dp1309
g66
(dp1310
g86
g87
ssg75
g1304
sg68
(lp1311
S'web2py_crontype'
p1312
asbag61
(g82
g63
NtRp1313
(dp1314
g66
(dp1315
g93
g94
ssg75
g1304
sg68
(lp1316
S':'
asbag61
(g82
g63
NtRp1317
(dp1318
g66
(dp1319
sg75
g1304
sg68
(lp1320
g61
(g62
g63
NtRp1321
(dp1322
g66
(dp1323
g74
I4
ssg75
g1317
sg68
(lp1324
S'hard'
p1325
asbasbasbag61
(g77
g63
NtRp1326
(dp1327
g66
(dp1328
sg75
g600
sg68
(lp1329
g61
(g82
g63
NtRp1330
(dp1331
g66
(dp1332
g86
g87
ssg75
g1326
sg68
(lp1333
S'web2py_original_uri'
p1334
asbag61
(g82
g63
NtRp1335
(dp1336
g66
(dp1337
g93
g94
ssg75
g1326
sg68
(lp1338
S':'
asbag61
(g82
g63
NtRp1339
(dp1340
g66
(dp1341
sg75
g1326
sg68
(lp1342
g61
(g62
g63
NtRp1343
(dp1344
g66
(dp1345
g74
I4
ssg75
g1339
sg68
(lp1346
S'/webparley/admin/agregar_palabra?a=h%C3%B6%C3%B6%C3%B6%C3%B6%C3%B6%C3%B6'
p1347
asbasbasbag61
(g77
g63
NtRp1348
(dp1349
g66
(dp1350
sg75
g600
sg68
(lp1351
g61
(g82
g63
NtRp1352
(dp1353
g66
(dp1354
g86
g87
ssg75
g1348
sg68
(lp1355
S'web2py_path'
p1356
asbag61
(g82
g63
NtRp1357
(dp1358
g66
(dp1359
g93
g94
ssg75
g1348
sg68
(lp1360
S':'
asbag61
(g82
g63
NtRp1361
(dp1362
g66
(dp1363
sg75
g1348
sg68
(lp1364
g61
(g62
g63
NtRp1365
(dp1366
g66
(dp1367
g74
I4
ssg75
g1361
sg68
(lp1368
g647
asbasbasbag61
(g77
g63
NtRp1369
(dp1370
g66
(dp1371
sg75
g600
sg68
(lp1372
g61
(g82
g63
NtRp1373
(dp1374
g66
(dp1375
g86
g87
ssg75
g1369
sg68
(lp1376
S'web2py_version'
p1377
asbag61
(g82
g63
NtRp1378
(dp1379
g66
(dp1380
g93
g94
ssg75
g1369
sg68
(lp1381
S':'
asbag61
(g82
g63
NtRp1382
(dp1383
g66
(dp1384
sg75
g1369
sg68
(lp1385
g61
(g62
g63
NtRp1386
(dp1387
g66
(dp1388
g74
I4
ssg75
g1382
sg68
(lp1389
g61
(g70
g63
NtRp1390
(dp1391
g66
(dp1392
g74
I3
ssg75
Nsg68
(lp1393
g61
(g77
g63
NtRp1394
(dp1395
g66
(dp1396
sg75
g1390
sg68
(lp1397
g61
(g82
g63
NtRp1398
(dp1399
g66
(dp1400
sg75
g1394
sg68
(lp1401
g61
(g62
g63
NtRp1402
(dp1403
g66
(dp1404
g74
I3
ssg75
g1398
sg68
(lp1405
S'1'
asbasbasbag61
(g77
g63
NtRp1406
(dp1407
g66
(dp1408
sg75
g1390
sg68
(lp1409
g61
(g82
g63
NtRp1410
(dp1411
g66
(dp1412
sg75
g1406
sg68
(lp1413
g61
(g62
g63
NtRp1414
(dp1415
g66
(dp1416
g74
I3
ssg75
g1410
sg68
(lp1417
S'99'
p1418
asbasbasbag61
(g77
g63
NtRp1419
(dp1420
g66
(dp1421
sg75
g1390
sg68
(lp1422
g61
(g82
g63
NtRp1423
(dp1424
g66
(dp1425
sg75
g1419
sg68
(lp1426
g61
(g62
g63
NtRp1427
(dp1428
g66
(dp1429
g74
I3
ssg75
g1423
sg68
(lp1430
S'7'
asbasbasbag61
(g77
g63
NtRp1431
(dp1432
g66
(dp1433
sg75
g1390
sg68
(lp1434
g61
(g82
g63
NtRp1435
(dp1436
g66
(dp1437
sg75
g1431
sg68
(lp1438
g61
(g62
g63
NtRp1439
(dp1440
g66
(dp1441
g74
I3
ssg75
g1435
sg68
(lp1442
S'datetime.datetime(2012, 3, 4, 22, 12, 8)'
p1443
asbasbasbag61
(g77
g63
NtRp1444
(dp1445
g66
(dp1446
sg75
g1390
sg68
(lp1447
g61
(g82
g63
NtRp1448
(dp1449
g66
(dp1450
sg75
g1444
sg68
(lp1451
g61
(g62
g63
NtRp1452
(dp1453
g66
(dp1454
g74
I3
ssg75
g1448
sg68
(lp1455
S'stable'
p1456
asbasbasbasbasbasbasbag61
(g77
g63
NtRp1457
(dp1458
g66
(dp1459
sg75
g600
sg68
(lp1460
g61
(g82
g63
NtRp1461
(dp1462
g66
(dp1463
g86
g87
ssg75
g1457
sg68
(lp1464
S'wsgi_errors'
p1465
asbag61
(g82
g63
NtRp1466
(dp1467
g66
(dp1468
g93
g94
ssg75
g1457
sg68
(lp1469
S':'
asbag61
(g82
g63
NtRp1470
(dp1471
g66
(dp1472
sg75
g1457
sg68
(lp1473
g61
(g62
g63
NtRp1474
(dp1475
g66
(dp1476
g74
I4
ssg75
g1470
sg68
(lp1477
S"<open file '<stderr>', mode 'w' at 0x006000B0>"
p1478
asbasbasbag61
(g77
g63
NtRp1479
(dp1480
g66
(dp1481
sg75
g600
sg68
(lp1482
g61
(g82
g63
NtRp1483
(dp1484
g66
(dp1485
g86
g87
ssg75
g1479
sg68
(lp1486
S'wsgi_file_wrapper'
p1487
asbag61
(g82
g63
NtRp1488
(dp1489
g66
(dp1490
g93
g94
ssg75
g1479
sg68
(lp1491
S':'
asbag61
(g82
g63
NtRp1492
(dp1493
g66
(dp1494
sg75
g1479
sg68
(lp1495
g61
(g62
g63
NtRp1496
(dp1497
g66
(dp1498
g74
I4
ssg75
g1492
sg68
(lp1499
S'<class wsgiref.util.FileWrapper at 0x02DA9390>'
p1500
asbasbasbag61
(g77
g63
NtRp1501
(dp1502
g66
(dp1503
sg75
g600
sg68
(lp1504
g61
(g82
g63
NtRp1505
(dp1506
g66
(dp1507
g86
g87
ssg75
g1501
sg68
(lp1508
S'wsgi_input'
p1509
asbag61
(g82
g63
NtRp1510
(dp1511
g66
(dp1512
g93
g94
ssg75
g1501
sg68
(lp1513
S':'
asbag61
(g82
g63
NtRp1514
(dp1515
g66
(dp1516
sg75
g1501
sg68
(lp1517
g61
(g62
g63
NtRp1518
(dp1519
g66
(dp1520
g74
I4
ssg75
g1514
sg68
(lp1521
S'<socket._fileobject object at 0x067757B0>'
p1522
asbasbasbag61
(g77
g63
NtRp1523
(dp1524
g66
(dp1525
sg75
g600
sg68
(lp1526
g61
(g82
g63
NtRp1527
(dp1528
g66
(dp1529
g86
g87
ssg75
g1523
sg68
(lp1530
S'wsgi_multiprocess'
p1531
asbag61
(g82
g63
NtRp1532
(dp1533
g66
(dp1534
g93
g94
ssg75
g1523
sg68
(lp1535
S':'
asbag61
(g82
g63
NtRp1536
(dp1537
g66
(dp1538
sg75
g1523
sg68
(lp1539
g61
(g62
g63
NtRp1540
(dp1541
g66
(dp1542
g74
I4
ssg75
g1536
sg68
(lp1543
g104
asbasbasbag61
(g77
g63
NtRp1544
(dp1545
g66
(dp1546
sg75
g600
sg68
(lp1547
g61
(g82
g63
NtRp1548
(dp1549
g66
(dp1550
g86
g87
ssg75
g1544
sg68
(lp1551
S'wsgi_multithread'
p1552
asbag61
(g82
g63
NtRp1553
(dp1554
g66
(dp1555
g93
g94
ssg75
g1544
sg68
(lp1556
S':'
asbag61
(g82
g63
NtRp1557
(dp1558
g66
(dp1559
sg75
g1544
sg68
(lp1560
g61
(g62
g63
NtRp1561
(dp1562
g66
(dp1563
g74
I4
ssg75
g1557
sg68
(lp1564
S'True'
p1565
asbasbasbag61
(g77
g63
NtRp1566
(dp1567
g66
(dp1568
sg75
g600
sg68
(lp1569
g61
(g82
g63
NtRp1570
(dp1571
g66
(dp1572
g86
g87
ssg75
g1566
sg68
(lp1573
S'wsgi_run_once'
p1574
asbag61
(g82
g63
NtRp1575
(dp1576
g66
(dp1577
g93
g94
ssg75
g1566
sg68
(lp1578
S':'
asbag61
(g82
g63
NtRp1579
(dp1580
g66
(dp1581
sg75
g1566
sg68
(lp1582
g61
(g62
g63
NtRp1583
(dp1584
g66
(dp1585
g74
I4
ssg75
g1579
sg68
(lp1586
g104
asbasbasbag61
(g77
g63
NtRp1587
(dp1588
g66
(dp1589
sg75
g600
sg68
(lp1590
g61
(g82
g63
NtRp1591
(dp1592
g66
(dp1593
g86
g87
ssg75
g1587
sg68
(lp1594
S'wsgi_url_scheme'
p1595
asbag61
(g82
g63
NtRp1596
(dp1597
g66
(dp1598
g93
g94
ssg75
g1587
sg68
(lp1599
S':'
asbag61
(g82
g63
NtRp1600
(dp1601
g66
(dp1602
sg75
g1587
sg68
(lp1603
g61
(g62
g63
NtRp1604
(dp1605
g66
(dp1606
g74
I4
ssg75
g1600
sg68
(lp1607
S'http'
p1608
asbasbasbag61
(g77
g63
NtRp1609
(dp1610
g66
(dp1611
sg75
g600
sg68
(lp1612
g61
(g82
g63
NtRp1613
(dp1614
g66
(dp1615
g86
g87
ssg75
g1609
sg68
(lp1616
S'wsgi_version'
p1617
asbag61
(g82
g63
NtRp1618
(dp1619
g66
(dp1620
g93
g94
ssg75
g1609
sg68
(lp1621
S':'
asbag61
(g82
g63
NtRp1622
(dp1623
g66
(dp1624
sg75
g1609
sg68
(lp1625
g61
(g62
g63
NtRp1626
(dp1627
g66
(dp1628
g74
I4
ssg75
g1622
sg68
(lp1629
g61
(g70
g63
NtRp1630
(dp1631
g66
(dp1632
g74
I3
ssg75
Nsg68
(lp1633
g61
(g77
g63
NtRp1634
(dp1635
g66
(dp1636
sg75
g1630
sg68
(lp1637
g61
(g82
g63
NtRp1638
(dp1639
g66
(dp1640
sg75
g1634
sg68
(lp1641
g61
(g62
g63
NtRp1642
(dp1643
g66
(dp1644
g74
I3
ssg75
g1638
sg68
(lp1645
S'1'
asbasbasbag61
(g77
g63
NtRp1646
(dp1647
g66
(dp1648
sg75
g1630
sg68
(lp1649
g61
(g82
g63
NtRp1650
(dp1651
g66
(dp1652
sg75
g1646
sg68
(lp1653
g61
(g62
g63
NtRp1654
(dp1655
g66
(dp1656
g74
I3
ssg75
g1650
sg68
(lp1657
S'0'
asbasbasbasbasbasbasbasbasbasbasbag61
(g77
g63
NtRp1658
(dp1659
g66
(dp1660
sg75
g71
sg68
(lp1661
g61
(g82
g63
NtRp1662
(dp1663
g66
(dp1664
g86
g87
ssg75
g1658
sg68
(lp1665
S'extension'
p1666
asbag61
(g82
g63
NtRp1667
(dp1668
g66
(dp1669
g93
g94
ssg75
g1658
sg68
(lp1670
S':'
asbag61
(g82
g63
NtRp1671
(dp1672
g66
(dp1673
sg75
g1658
sg68
(lp1674
g61
(g62
g63
NtRp1675
(dp1676
g66
(dp1677
g74
I5
ssg75
g1671
sg68
(lp1678
S'html'
p1679
asbasbasbag61
(g77
g63
NtRp1680
(dp1681
g66
(dp1682
sg75
g71
sg68
(lp1683
g61
(g82
g63
NtRp1684
(dp1685
g66
(dp1686
g86
g87
ssg75
g1680
sg68
(lp1687
S'folder'
p1688
asbag61
(g82
g63
NtRp1689
(dp1690
g66
(dp1691
g93
g94
ssg75
g1680
sg68
(lp1692
S':'
asbag61
(g82
g63
NtRp1693
(dp1694
g66
(dp1695
sg75
g1680
sg68
(lp1696
g61
(g62
g63
NtRp1697
(dp1698
g66
(dp1699
g74
I5
ssg75
g1693
sg68
(lp1700
S'D:\\Dise\xf1o Web\\Proyectos\\Parleyweb\\web2py\\applications\\webparley\\'
p1701
asbasbasbag61
(g77
g63
NtRp1702
(dp1703
g66
(dp1704
sg75
g71
sg68
(lp1705
g61
(g82
g63
NtRp1706
(dp1707
g66
(dp1708
g86
g87
ssg75
g1702
sg68
(lp1709
S'function'
p1710
asbag61
(g82
g63
NtRp1711
(dp1712
g66
(dp1713
g93
g94
ssg75
g1702
sg68
(lp1714
S':'
asbag61
(g82
g63
NtRp1715
(dp1716
g66
(dp1717
sg75
g1702
sg68
(lp1718
g61
(g62
g63
NtRp1719
(dp1720
g66
(dp1721
g74
I5
ssg75
g1715
sg68
(lp1722
S'agregar_palabra'
p1723
asbasbasbag61
(g77
g63
NtRp1724
(dp1725
g66
(dp1726
sg75
g71
sg68
(lp1727
g61
(g82
g63
NtRp1728
(dp1729
g66
(dp1730
g86
g87
ssg75
g1724
sg68
(lp1731
S'get_vars'
p1732
asbag61
(g82
g63
NtRp1733
(dp1734
g66
(dp1735
g93
g94
ssg75
g1724
sg68
(lp1736
S':'
asbag61
(g82
g63
NtRp1737
(dp1738
g66
(dp1739
sg75
g1724
sg68
(lp1740
g61
(g62
g63
NtRp1741
(dp1742
g66
(dp1743
g74
I5
ssg75
g1737
sg68
(lp1744
g61
(g70
g63
NtRp1745
(dp1746
g66
(dp1747
g74
I4
ssg75
Nsg68
(lp1748
g61
(g77
g63
NtRp1749
(dp1750
g66
(dp1751
sg75
g1745
sg68
(lp1752
g61
(g82
g63
NtRp1753
(dp1754
g66
(dp1755
g86
g87
ssg75
g1749
sg68
(lp1756
S'a'
asbag61
(g82
g63
NtRp1757
(dp1758
g66
(dp1759
g93
g94
ssg75
g1749
sg68
(lp1760
S':'
asbag61
(g82
g63
NtRp1761
(dp1762
g66
(dp1763
sg75
g1749
sg68
(lp1764
g61
(g62
g63
NtRp1765
(dp1766
g66
(dp1767
g74
I4
ssg75
g1761
sg68
(lp1768
S'h\xc3\xb6\xc3\xb6\xc3\xb6\xc3\xb6\xc3\xb6\xc3\xb6'
p1769
asbasbasbasbasbasbasbag61
(g77
g63
NtRp1770
(dp1771
g66
(dp1772
sg75
g71
sg68
(lp1773
g61
(g82
g63
NtRp1774
(dp1775
g66
(dp1776
g86
g87
ssg75
g1770
sg68
(lp1777
S'global_settings'
p1778
asbag61
(g82
g63
NtRp1779
(dp1780
g66
(dp1781
g93
g94
ssg75
g1770
sg68
(lp1782
S':'
asbag61
(g82
g63
NtRp1783
(dp1784
g66
(dp1785
sg75
g1770
sg68
(lp1786
g61
(g62
g63
NtRp1787
(dp1788
g66
(dp1789
g74
I5
ssg75
g1783
sg68
(lp1790
g61
(g70
g63
NtRp1791
(dp1792
g66
(dp1793
g74
I4
ssg75
Nsg68
(lp1794
g61
(g77
g63
NtRp1795
(dp1796
g66
(dp1797
sg75
g1791
sg68
(lp1798
g61
(g82
g63
NtRp1799
(dp1800
g66
(dp1801
g86
g87
ssg75
g1795
sg68
(lp1802
g612
asbag61
(g82
g63
NtRp1803
(dp1804
g66
(dp1805
g93
g94
ssg75
g1795
sg68
(lp1806
S':'
asbag61
(g82
g63
NtRp1807
(dp1808
g66
(dp1809
sg75
g1795
sg68
(lp1810
g61
(g62
g63
NtRp1811
(dp1812
g66
(dp1813
g74
I4
ssg75
g1807
sg68
(lp1814
S"set(['D:\\\\Dise\\xf1o Web\\\\Proyectos\\\\Parleyweb\\\\web2py\\\\applications\\\\admin\\\\', 'D:\\\\Dise\\xf1o Web\\\\Proyectos\\\\Parleyweb\\\\web2py\\\\applications\\\\webparley\\\\'])"
p1815
asbasbasbag61
(g77
g63
NtRp1816
(dp1817
g66
(dp1818
sg75
g1791
sg68
(lp1819
g61
(g82
g63
NtRp1820
(dp1821
g66
(dp1822
g86
g87
ssg75
g1816
sg68
(lp1823
g634
asbag61
(g82
g63
NtRp1824
(dp1825
g66
(dp1826
g93
g94
ssg75
g1816
sg68
(lp1827
S':'
asbag61
(g82
g63
NtRp1828
(dp1829
g66
(dp1830
sg75
g1816
sg68
(lp1831
g61
(g62
g63
NtRp1832
(dp1833
g66
(dp1834
g74
I4
ssg75
g1828
sg68
(lp1835
g647
asbasbasbag61
(g77
g63
NtRp1836
(dp1837
g66
(dp1838
sg75
g1791
sg68
(lp1839
g61
(g82
g63
NtRp1840
(dp1841
g66
(dp1842
g86
g87
ssg75
g1836
sg68
(lp1843
g656
asbag61
(g82
g63
NtRp1844
(dp1845
g66
(dp1846
g93
g94
ssg75
g1836
sg68
(lp1847
S':'
asbag61
(g82
g63
NtRp1848
(dp1849
g66
(dp1850
sg75
g1836
sg68
(lp1851
g61
(g62
g63
NtRp1852
(dp1853
g66
(dp1854
g74
I4
ssg75
g1848
sg68
(lp1855
g61
(g70
g63
NtRp1856
(dp1857
g66
(dp1858
g74
I3
ssg75
Nsg68
(lp1859
sbasbasbasbag61
(g77
g63
NtRp1860
(dp1861
g66
(dp1862
sg75
g1791
sg68
(lp1863
g61
(g82
g63
NtRp1864
(dp1865
g66
(dp1866
g86
g87
ssg75
g1860
sg68
(lp1867
g681
asbag61
(g82
g63
NtRp1868
(dp1869
g66
(dp1870
g93
g94
ssg75
g1860
sg68
(lp1871
S':'
asbag61
(g82
g63
NtRp1872
(dp1873
g66
(dp1874
sg75
g1860
sg68
(lp1875
g61
(g62
g63
NtRp1876
(dp1877
g66
(dp1878
g74
I4
ssg75
g1872
sg68
(lp1879
S"<Values at 0x2fac260: {'verbose': False, 'ip': '127.0.0.1', 'shutdown_timeout': 5, 'taskbar': False, 'nocron': False, 'pid_filename': 'httpserver.pid', 'maxthreads': None, 'softcron': False, 'server_name': 'craxsnet-PC', 'bpython': False, 'nogui': False, 'port': 8000, 'extcron': False, 'debuglevel': 30, 'test': None, 'folder': 'D:\\\\Dise\\xf1o Web\\\\Proyectos\\\\Parleyweb\\\\web2py', 'config': '', 'import_models': False, 'winservice': '', 'shell': None, 'run': '', 'log_filename': 'httpserver.log', 'args': [''], 'socket_timeout': 5, 'ssl_ca_certificate': None, 'scheduler': None, 'profiler_filename': None, 'ssl_private_key': '', 'password': '<ask>', 'request_queue_size': 5, 'ssl_certificate': '', 'cronjob': False, 'numthreads': None, 'quiet': False, 'interfaces': None, 'minthreads': None, 'timeout': 10, 'plain': False, 'nobanner': False}>"
p1880
asbasbasbag61
(g77
g63
NtRp1881
(dp1882
g66
(dp1883
sg75
g1791
sg68
(lp1884
g61
(g82
g63
NtRp1885
(dp1886
g66
(dp1887
g86
g87
ssg75
g1881
sg68
(lp1888
g747
asbag61
(g82
g63
NtRp1889
(dp1890
g66
(dp1891
g93
g94
ssg75
g1881
sg68
(lp1892
S':'
asbag61
(g82
g63
NtRp1893
(dp1894
g66
(dp1895
sg75
g1881
sg68
(lp1896
g61
(g62
g63
NtRp1897
(dp1898
g66
(dp1899
g74
I4
ssg75
g1893
sg68
(lp1900
S'set([])'
p1901
asbasbasbag61
(g77
g63
NtRp1902
(dp1903
g66
(dp1904
sg75
g1791
sg68
(lp1905
g61
(g82
g63
NtRp1906
(dp1907
g66
(dp1908
g86
g87
ssg75
g1902
sg68
(lp1909
g769
asbag61
(g82
g63
NtRp1910
(dp1911
g66
(dp1912
g93
g94
ssg75
g1902
sg68
(lp1913
S':'
asbag61
(g82
g63
NtRp1914
(dp1915
g66
(dp1916
sg75
g1902
sg68
(lp1917
g61
(g62
g63
NtRp1918
(dp1919
g66
(dp1920
g74
I4
ssg75
g1914
sg68
(lp1921
g104
asbasbasbag61
(g77
g63
NtRp1922
(dp1923
g66
(dp1924
sg75
g1791
sg68
(lp1925
g61
(g82
g63
NtRp1926
(dp1927
g66
(dp1928
g86
g87
ssg75
g1922
sg68
(lp1929
g790
asbag61
(g82
g63
NtRp1930
(dp1931
g66
(dp1932
g93
g94
ssg75
g1922
sg68
(lp1933
S':'
asbag61
(g82
g63
NtRp1934
(dp1935
g66
(dp1936
sg75
g1922
sg68
(lp1937
g61
(g62
g63
NtRp1938
(dp1939
g66
(dp1940
g74
I4
ssg75
g1934
sg68
(lp1941
g803
asbasbasbag61
(g77
g63
NtRp1942
(dp1943
g66
(dp1944
sg75
g1791
sg68
(lp1945
g61
(g82
g63
NtRp1946
(dp1947
g66
(dp1948
g86
g87
ssg75
g1942
sg68
(lp1949
g1030
asbag61
(g82
g63
NtRp1950
(dp1951
g66
(dp1952
g93
g94
ssg75
g1942
sg68
(lp1953
S':'
asbag61
(g82
g63
NtRp1954
(dp1955
g66
(dp1956
sg75
g1942
sg68
(lp1957
g61
(g62
g63
NtRp1958
(dp1959
g66
(dp1960
g74
I4
ssg75
g1954
sg68
(lp1961
g104
asbasbasbag61
(g77
g63
NtRp1962
(dp1963
g66
(dp1964
sg75
g1791
sg68
(lp1965
g61
(g82
g63
NtRp1966
(dp1967
g66
(dp1968
g86
g87
ssg75
g1962
sg68
(lp1969
g1051
asbag61
(g82
g63
NtRp1970
(dp1971
g66
(dp1972
g93
g94
ssg75
g1962
sg68
(lp1973
S':'
asbag61
(g82
g63
NtRp1974
(dp1975
g66
(dp1976
sg75
g1962
sg68
(lp1977
g61
(g62
g63
NtRp1978
(dp1979
g66
(dp1980
g74
I4
ssg75
g1974
sg68
(lp1981
g104
asbasbasbag61
(g77
g63
NtRp1982
(dp1983
g66
(dp1984
sg75
g1791
sg68
(lp1985
g61
(g82
g63
NtRp1986
(dp1987
g66
(dp1988
g86
g87
ssg75
g1982
sg68
(lp1989
g1312
asbag61
(g82
g63
NtRp1990
(dp1991
g66
(dp1992
g93
g94
ssg75
g1982
sg68
(lp1993
S':'
asbag61
(g82
g63
NtRp1994
(dp1995
g66
(dp1996
sg75
g1982
sg68
(lp1997
g61
(g62
g63
NtRp1998
(dp1999
g66
(dp2000
g74
I4
ssg75
g1994
sg68
(lp2001
g1325
asbasbasbag61
(g77
g63
NtRp2002
(dp2003
g66
(dp2004
sg75
g1791
sg68
(lp2005
g61
(g82
g63
NtRp2006
(dp2007
g66
(dp2008
g86
g87
ssg75
g2002
sg68
(lp2009
g1377
asbag61
(g82
g63
NtRp2010
(dp2011
g66
(dp2012
g93
g94
ssg75
g2002
sg68
(lp2013
S':'
asbag61
(g82
g63
NtRp2014
(dp2015
g66
(dp2016
sg75
g2002
sg68
(lp2017
g61
(g62
g63
NtRp2018
(dp2019
g66
(dp2020
g74
I4
ssg75
g2014
sg68
(lp2021
g61
(g70
g63
NtRp2022
(dp2023
g66
(dp2024
g74
I3
ssg75
Nsg68
(lp2025
g61
(g77
g63
NtRp2026
(dp2027
g66
(dp2028
sg75
g2022
sg68
(lp2029
g61
(g82
g63
NtRp2030
(dp2031
g66
(dp2032
sg75
g2026
sg68
(lp2033
g61
(g62
g63
NtRp2034
(dp2035
g66
(dp2036
g74
I3
ssg75
g2030
sg68
(lp2037
S'1'
asbasbasbag61
(g77
g63
NtRp2038
(dp2039
g66
(dp2040
sg75
g2022
sg68
(lp2041
g61
(g82
g63
NtRp2042
(dp2043
g66
(dp2044
sg75
g2038
sg68
(lp2045
g61
(g62
g63
NtRp2046
(dp2047
g66
(dp2048
g74
I3
ssg75
g2042
sg68
(lp2049
S'99'
p2050
asbasbasbag61
(g77
g63
NtRp2051
(dp2052
g66
(dp2053
sg75
g2022
sg68
(lp2054
g61
(g82
g63
NtRp2055
(dp2056
g66
(dp2057
sg75
g2051
sg68
(lp2058
g61
(g62
g63
NtRp2059
(dp2060
g66
(dp2061
g74
I3
ssg75
g2055
sg68
(lp2062
S'7'
asbasbasbag61
(g77
g63
NtRp2063
(dp2064
g66
(dp2065
sg75
g2022
sg68
(lp2066
g61
(g82
g63
NtRp2067
(dp2068
g66
(dp2069
sg75
g2063
sg68
(lp2070
g61
(g62
g63
NtRp2071
(dp2072
g66
(dp2073
g74
I3
ssg75
g2067
sg68
(lp2074
S'datetime.datetime(2012, 3, 4, 22, 12, 8)'
p2075
asbasbasbag61
(g77
g63
NtRp2076
(dp2077
g66
(dp2078
sg75
g2022
sg68
(lp2079
g61
(g82
g63
NtRp2080
(dp2081
g66
(dp2082
sg75
g2076
sg68
(lp2083
g61
(g62
g63
NtRp2084
(dp2085
g66
(dp2086
g74
I3
ssg75
g2080
sg68
(lp2087
g1456
asbasbasbasbasbasbasbasbasbasbasbag61
(g77
g63
NtRp2088
(dp2089
g66
(dp2090
sg75
g71
sg68
(lp2091
g61
(g82
g63
NtRp2092
(dp2093
g66
(dp2094
g86
g87
ssg75
g2088
sg68
(lp2095
S'is_https'
p2096
asbag61
(g82
g63
NtRp2097
(dp2098
g66
(dp2099
g93
g94
ssg75
g2088
sg68
(lp2100
S':'
asbag61
(g82
g63
NtRp2101
(dp2102
g66
(dp2103
sg75
g2088
sg68
(lp2104
g61
(g62
g63
NtRp2105
(dp2106
g66
(dp2107
g74
I5
ssg75
g2101
sg68
(lp2108
g104
asbasbasbag61
(g77
g63
NtRp2109
(dp2110
g66
(dp2111
sg75
g71
sg68
(lp2112
g61
(g82
g63
NtRp2113
(dp2114
g66
(dp2115
g86
g87
ssg75
g2109
sg68
(lp2116
S'is_local'
p2117
asbag61
(g82
g63
NtRp2118
(dp2119
g66
(dp2120
g93
g94
ssg75
g2109
sg68
(lp2121
S':'
asbag61
(g82
g63
NtRp2122
(dp2123
g66
(dp2124
sg75
g2109
sg68
(lp2125
g61
(g62
g63
NtRp2126
(dp2127
g66
(dp2128
g74
I5
ssg75
g2122
sg68
(lp2129
g1565
asbasbasbag61
(g77
g63
NtRp2130
(dp2131
g66
(dp2132
sg75
g71
sg68
(lp2133
g61
(g82
g63
NtRp2134
(dp2135
g66
(dp2136
g86
g87
ssg75
g2130
sg68
(lp2137
S'is_restful'
p2138
asbag61
(g82
g63
NtRp2139
(dp2140
g66
(dp2141
g93
g94
ssg75
g2130
sg68
(lp2142
S':'
asbag61
(g82
g63
NtRp2143
(dp2144
g66
(dp2145
sg75
g2130
sg68
(lp2146
g61
(g62
g63
NtRp2147
(dp2148
g66
(dp2149
g74
I5
ssg75
g2143
sg68
(lp2150
g104
asbasbasbag61
(g77
g63
NtRp2151
(dp2152
g66
(dp2153
sg75
g71
sg68
(lp2154
g61
(g82
g63
NtRp2155
(dp2156
g66
(dp2157
g86
g87
ssg75
g2151
sg68
(lp2158
S'now'
p2159
asbag61
(g82
g63
NtRp2160
(dp2161
g66
(dp2162
g93
g94
ssg75
g2151
sg68
(lp2163
S':'
asbag61
(g82
g63
NtRp2164
(dp2165
g66
(dp2166
sg75
g2151
sg68
(lp2167
g61
(g62
g63
NtRp2168
(dp2169
g66
(dp2170
g74
I5
ssg75
g2164
sg68
(lp2171
S'datetime.datetime(2012, 3, 19, 0, 35, 42, 430000)'
p2172
asbasbasbag61
(g77
g63
NtRp2173
(dp2174
g66
(dp2175
sg75
g71
sg68
(lp2176
g61
(g82
g63
NtRp2177
(dp2178
g66
(dp2179
g86
g87
ssg75
g2173
sg68
(lp2180
S'post_vars'
p2181
asbag61
(g82
g63
NtRp2182
(dp2183
g66
(dp2184
g93
g94
ssg75
g2173
sg68
(lp2185
S':'
asbag61
(g82
g63
NtRp2186
(dp2187
g66
(dp2188
sg75
g2173
sg68
(lp2189
g61
(g62
g63
NtRp2190
(dp2191
g66
(dp2192
g74
I5
ssg75
g2186
sg68
(lp2193
g61
(g70
g63
NtRp2194
(dp2195
g66
(dp2196
g74
I4
ssg75
Nsg68
(lp2197
g61
(g77
g63
NtRp2198
(dp2199
g66
(dp2200
sg75
g2194
sg68
(lp2201
g61
(g82
g63
NtRp2202
(dp2203
g66
(dp2204
g86
g87
ssg75
g2198
sg68
(lp2205
S'articulo'
p2206
asbag61
(g82
g63
NtRp2207
(dp2208
g66
(dp2209
g93
g94
ssg75
g2198
sg68
(lp2210
S':'
asbag61
(g82
g63
NtRp2211
(dp2212
g66
(dp2213
sg75
g2198
sg68
(lp2214
g61
(g62
g63
NtRp2215
(dp2216
g66
(dp2217
g74
I4
ssg75
g2211
sg68
(lp2218
S''
asbasbasbag61
(g77
g63
NtRp2219
(dp2220
g66
(dp2221
sg75
g2194
sg68
(lp2222
g61
(g82
g63
NtRp2223
(dp2224
g66
(dp2225
g86
g87
ssg75
g2219
sg68
(lp2226
S'glosario'
p2227
asbag61
(g82
g63
NtRp2228
(dp2229
g66
(dp2230
g93
g94
ssg75
g2219
sg68
(lp2231
S':'
asbag61
(g82
g63
NtRp2232
(dp2233
g66
(dp2234
sg75
g2219
sg68
(lp2235
g61
(g62
g63
NtRp2236
(dp2237
g66
(dp2238
g74
I4
ssg75
g2232
sg68
(lp2239
S''
asbasbasbag61
(g77
g63
NtRp2240
(dp2241
g66
(dp2242
sg75
g2194
sg68
(lp2243
g61
(g82
g63
NtRp2244
(dp2245
g66
(dp2246
g86
g87
ssg75
g2240
sg68
(lp2247
S'imagen'
p2248
asbag61
(g82
g63
NtRp2249
(dp2250
g66
(dp2251
g93
g94
ssg75
g2240
sg68
(lp2252
S':'
asbag61
(g82
g63
NtRp2253
(dp2254
g66
(dp2255
sg75
g2240
sg68
(lp2256
g61
(g62
g63
NtRp2257
(dp2258
g66
(dp2259
g74
I4
ssg75
g2253
sg68
(lp2260
S''
asbasbasbag61
(g77
g63
NtRp2261
(dp2262
g66
(dp2263
sg75
g2194
sg68
(lp2264
g61
(g82
g63
NtRp2265
(dp2266
g66
(dp2267
g86
g87
ssg75
g2261
sg68
(lp2268
S'palabra'
p2269
asbag61
(g82
g63
NtRp2270
(dp2271
g66
(dp2272
g93
g94
ssg75
g2261
sg68
(lp2273
S':'
asbag61
(g82
g63
NtRp2274
(dp2275
g66
(dp2276
sg75
g2261
sg68
(lp2277
g61
(g62
g63
NtRp2278
(dp2279
g66
(dp2280
g74
I4
ssg75
g2274
sg68
(lp2281
S'h\xc3\xb6\xc3\xb6\xc3\xb6\xc3\xb6\xc3\xb6\xc3\xb6'
p2282
asbasbasbag61
(g77
g63
NtRp2283
(dp2284
g66
(dp2285
sg75
g2194
sg68
(lp2286
g61
(g82
g63
NtRp2287
(dp2288
g66
(dp2289
g86
g87
ssg75
g2283
sg68
(lp2290
S'participio2'
p2291
asbag61
(g82
g63
NtRp2292
(dp2293
g66
(dp2294
g93
g94
ssg75
g2283
sg68
(lp2295
S':'
asbag61
(g82
g63
NtRp2296
(dp2297
g66
(dp2298
sg75
g2283
sg68
(lp2299
g61
(g62
g63
NtRp2300
(dp2301
g66
(dp2302
g74
I4
ssg75
g2296
sg68
(lp2303
S''
asbasbasbag61
(g77
g63
NtRp2304
(dp2305
g66
(dp2306
sg75
g2194
sg68
(lp2307
g61
(g82
g63
NtRp2308
(dp2309
g66
(dp2310
g86
g87
ssg75
g2304
sg68
(lp2311
S'plural'
p2312
asbag61
(g82
g63
NtRp2313
(dp2314
g66
(dp2315
g93
g94
ssg75
g2304
sg68
(lp2316
S':'
asbag61
(g82
g63
NtRp2317
(dp2318
g66
(dp2319
sg75
g2304
sg68
(lp2320
g61
(g62
g63
NtRp2321
(dp2322
g66
(dp2323
g74
I4
ssg75
g2317
sg68
(lp2324
S''
asbasbasbag61
(g77
g63
NtRp2325
(dp2326
g66
(dp2327
sg75
g2194
sg68
(lp2328
g61
(g82
g63
NtRp2329
(dp2330
g66
(dp2331
g86
g87
ssg75
g2325
sg68
(lp2332
S'presente_1'
p2333
asbag61
(g82
g63
NtRp2334
(dp2335
g66
(dp2336
g93
g94
ssg75
g2325
sg68
(lp2337
S':'
asbag61
(g82
g63
NtRp2338
(dp2339
g66
(dp2340
sg75
g2325
sg68
(lp2341
g61
(g62
g63
NtRp2342
(dp2343
g66
(dp2344
g74
I4
ssg75
g2338
sg68
(lp2345
S''
asbasbasbag61
(g77
g63
NtRp2346
(dp2347
g66
(dp2348
sg75
g2194
sg68
(lp2349
g61
(g82
g63
NtRp2350
(dp2351
g66
(dp2352
g86
g87
ssg75
g2346
sg68
(lp2353
S'presente_1_p'
p2354
asbag61
(g82
g63
NtRp2355
(dp2356
g66
(dp2357
g93
g94
ssg75
g2346
sg68
(lp2358
S':'
asbag61
(g82
g63
NtRp2359
(dp2360
g66
(dp2361
sg75
g2346
sg68
(lp2362
g61
(g62
g63
NtRp2363
(dp2364
g66
(dp2365
g74
I4
ssg75
g2359
sg68
(lp2366
S''
asbasbasbag61
(g77
g63
NtRp2367
(dp2368
g66
(dp2369
sg75
g2194
sg68
(lp2370
g61
(g82
g63
NtRp2371
(dp2372
g66
(dp2373
g86
g87
ssg75
g2367
sg68
(lp2374
S'presente_2'
p2375
asbag61
(g82
g63
NtRp2376
(dp2377
g66
(dp2378
g93
g94
ssg75
g2367
sg68
(lp2379
S':'
asbag61
(g82
g63
NtRp2380
(dp2381
g66
(dp2382
sg75
g2367
sg68
(lp2383
g61
(g62
g63
NtRp2384
(dp2385
g66
(dp2386
g74
I4
ssg75
g2380
sg68
(lp2387
S''
asbasbasbag61
(g77
g63
NtRp2388
(dp2389
g66
(dp2390
sg75
g2194
sg68
(lp2391
g61
(g82
g63
NtRp2392
(dp2393
g66
(dp2394
g86
g87
ssg75
g2388
sg68
(lp2395
S'presente_2_p'
p2396
asbag61
(g82
g63
NtRp2397
(dp2398
g66
(dp2399
g93
g94
ssg75
g2388
sg68
(lp2400
S':'
asbag61
(g82
g63
NtRp2401
(dp2402
g66
(dp2403
sg75
g2388
sg68
(lp2404
g61
(g62
g63
NtRp2405
(dp2406
g66
(dp2407
g74
I4
ssg75
g2401
sg68
(lp2408
S''
asbasbasbag61
(g77
g63
NtRp2409
(dp2410
g66
(dp2411
sg75
g2194
sg68
(lp2412
g61
(g82
g63
NtRp2413
(dp2414
g66
(dp2415
g86
g87
ssg75
g2409
sg68
(lp2416
S'presente_3'
p2417
asbag61
(g82
g63
NtRp2418
(dp2419
g66
(dp2420
g93
g94
ssg75
g2409
sg68
(lp2421
S':'
asbag61
(g82
g63
NtRp2422
(dp2423
g66
(dp2424
sg75
g2409
sg68
(lp2425
g61
(g62
g63
NtRp2426
(dp2427
g66
(dp2428
g74
I4
ssg75
g2422
sg68
(lp2429
S''
asbasbasbag61
(g77
g63
NtRp2430
(dp2431
g66
(dp2432
sg75
g2194
sg68
(lp2433
g61
(g82
g63
NtRp2434
(dp2435
g66
(dp2436
g86
g87
ssg75
g2430
sg68
(lp2437
S'presente_3_p'
p2438
asbag61
(g82
g63
NtRp2439
(dp2440
g66
(dp2441
g93
g94
ssg75
g2430
sg68
(lp2442
S':'
asbag61
(g82
g63
NtRp2443
(dp2444
g66
(dp2445
sg75
g2430
sg68
(lp2446
g61
(g62
g63
NtRp2447
(dp2448
g66
(dp2449
g74
I4
ssg75
g2443
sg68
(lp2450
S''
asbasbasbasbasbasbasbag61
(g77
g63
NtRp2451
(dp2452
g66
(dp2453
sg75
g71
sg68
(lp2454
g61
(g82
g63
NtRp2455
(dp2456
g66
(dp2457
g86
g87
ssg75
g2451
sg68
(lp2458
S'url'
p2459
asbag61
(g82
g63
NtRp2460
(dp2461
g66
(dp2462
g93
g94
ssg75
g2451
sg68
(lp2463
S':'
asbag61
(g82
g63
NtRp2464
(dp2465
g66
(dp2466
sg75
g2451
sg68
(lp2467
g61
(g62
g63
NtRp2468
(dp2469
g66
(dp2470
g74
I5
ssg75
g2464
sg68
(lp2471
S'/webparley/admin/agregar_palabra'
p2472
asbasbasbag61
(g77
g63
NtRp2473
(dp2474
g66
(dp2475
sg75
g71
sg68
(lp2476
g61
(g82
g63
NtRp2477
(dp2478
g66
(dp2479
g86
g87
ssg75
g2473
sg68
(lp2480
S'utcnow'
p2481
asbag61
(g82
g63
NtRp2482
(dp2483
g66
(dp2484
g93
g94
ssg75
g2473
sg68
(lp2485
S':'
asbag61
(g82
g63
NtRp2486
(dp2487
g66
(dp2488
sg75
g2473
sg68
(lp2489
g61
(g62
g63
NtRp2490
(dp2491
g66
(dp2492
g74
I5
ssg75
g2486
sg68
(lp2493
S'datetime.datetime(2012, 3, 18, 23, 35, 42, 430000)'
p2494
asbasbasbag61
(g77
g63
NtRp2495
(dp2496
g66
(dp2497
sg75
g71
sg68
(lp2498
g61
(g82
g63
NtRp2499
(dp2500
g66
(dp2501
g86
g87
ssg75
g2495
sg68
(lp2502
S'uuid'
p2503
asbag61
(g82
g63
NtRp2504
(dp2505
g66
(dp2506
g93
g94
ssg75
g2495
sg68
(lp2507
S':'
asbag61
(g82
g63
NtRp2508
(dp2509
g66
(dp2510
sg75
g2495
sg68
(lp2511
g61
(g62
g63
NtRp2512
(dp2513
g66
(dp2514
g74
I5
ssg75
g2508
sg68
(lp2515
S'webparley/127.0.0.1.2012-03-19.00-35-42.c773f410-cac4-4f08-ab99-524e94b3496d'
p2516
asbasbasbag61
(g77
g63
NtRp2517
(dp2518
g66
(dp2519
sg75
g71
sg68
(lp2520
g61
(g82
g63
NtRp2521
(dp2522
g66
(dp2523
g86
g87
ssg75
g2517
sg68
(lp2524
S'vars'
p2525
asbag61
(g82
g63
NtRp2526
(dp2527
g66
(dp2528
g93
g94
ssg75
g2517
sg68
(lp2529
S':'
asbag61
(g82
g63
NtRp2530
(dp2531
g66
(dp2532
sg75
g2517
sg68
(lp2533
g61
(g62
g63
NtRp2534
(dp2535
g66
(dp2536
g74
I5
ssg75
g2530
sg68
(lp2537
g61
(g70
g63
NtRp2538
(dp2539
g66
(dp2540
g74
I4
ssg75
Nsg68
(lp2541
g61
(g77
g63
NtRp2542
(dp2543
g66
(dp2544
sg75
g2538
sg68
(lp2545
g61
(g82
g63
NtRp2546
(dp2547
g66
(dp2548
g86
g87
ssg75
g2542
sg68
(lp2549
S'a'
asbag61
(g82
g63
NtRp2550
(dp2551
g66
(dp2552
g93
g94
ssg75
g2542
sg68
(lp2553
S':'
asbag61
(g82
g63
NtRp2554
(dp2555
g66
(dp2556
sg75
g2542
sg68
(lp2557
g61
(g62
g63
NtRp2558
(dp2559
g66
(dp2560
g74
I4
ssg75
g2554
sg68
(lp2561
g1769
asbasbasbag61
(g77
g63
NtRp2562
(dp2563
g66
(dp2564
sg75
g2538
sg68
(lp2565
g61
(g82
g63
NtRp2566
(dp2567
g66
(dp2568
g86
g87
ssg75
g2562
sg68
(lp2569
g2206
asbag61
(g82
g63
NtRp2570
(dp2571
g66
(dp2572
g93
g94
ssg75
g2562
sg68
(lp2573
S':'
asbag61
(g82
g63
NtRp2574
(dp2575
g66
(dp2576
sg75
g2562
sg68
(lp2577
g61
(g62
g63
NtRp2578
(dp2579
g66
(dp2580
g74
I4
ssg75
g2574
sg68
(lp2581
S''
asbasbasbag61
(g77
g63
NtRp2582
(dp2583
g66
(dp2584
sg75
g2538
sg68
(lp2585
g61
(g82
g63
NtRp2586
(dp2587
g66
(dp2588
g86
g87
ssg75
g2582
sg68
(lp2589
g2227
asbag61
(g82
g63
NtRp2590
(dp2591
g66
(dp2592
g93
g94
ssg75
g2582
sg68
(lp2593
S':'
asbag61
(g82
g63
NtRp2594
(dp2595
g66
(dp2596
sg75
g2582
sg68
(lp2597
g61
(g62
g63
NtRp2598
(dp2599
g66
(dp2600
g74
I4
ssg75
g2594
sg68
(lp2601
S''
asbasbasbag61
(g77
g63
NtRp2602
(dp2603
g66
(dp2604
sg75
g2538
sg68
(lp2605
g61
(g82
g63
NtRp2606
(dp2607
g66
(dp2608
g86
g87
ssg75
g2602
sg68
(lp2609
g2248
asbag61
(g82
g63
NtRp2610
(dp2611
g66
(dp2612
g93
g94
ssg75
g2602
sg68
(lp2613
S':'
asbag61
(g82
g63
NtRp2614
(dp2615
g66
(dp2616
sg75
g2602
sg68
(lp2617
g61
(g62
g63
NtRp2618
(dp2619
g66
(dp2620
g74
I4
ssg75
g2614
sg68
(lp2621
S''
asbasbasbag61
(g77
g63
NtRp2622
(dp2623
g66
(dp2624
sg75
g2538
sg68
(lp2625
g61
(g82
g63
NtRp2626
(dp2627
g66
(dp2628
g86
g87
ssg75
g2622
sg68
(lp2629
g2269
asbag61
(g82
g63
NtRp2630
(dp2631
g66
(dp2632
g93
g94
ssg75
g2622
sg68
(lp2633
S':'
asbag61
(g82
g63
NtRp2634
(dp2635
g66
(dp2636
sg75
g2622
sg68
(lp2637
g61
(g62
g63
NtRp2638
(dp2639
g66
(dp2640
g74
I4
ssg75
g2634
sg68
(lp2641
g2282
asbasbasbag61
(g77
g63
NtRp2642
(dp2643
g66
(dp2644
sg75
g2538
sg68
(lp2645
g61
(g82
g63
NtRp2646
(dp2647
g66
(dp2648
g86
g87
ssg75
g2642
sg68
(lp2649
g2291
asbag61
(g82
g63
NtRp2650
(dp2651
g66
(dp2652
g93
g94
ssg75
g2642
sg68
(lp2653
S':'
asbag61
(g82
g63
NtRp2654
(dp2655
g66
(dp2656
sg75
g2642
sg68
(lp2657
g61
(g62
g63
NtRp2658
(dp2659
g66
(dp2660
g74
I4
ssg75
g2654
sg68
(lp2661
S''
asbasbasbag61
(g77
g63
NtRp2662
(dp2663
g66
(dp2664
sg75
g2538
sg68
(lp2665
g61
(g82
g63
NtRp2666
(dp2667
g66
(dp2668
g86
g87
ssg75
g2662
sg68
(lp2669
g2312
asbag61
(g82
g63
NtRp2670
(dp2671
g66
(dp2672
g93
g94
ssg75
g2662
sg68
(lp2673
S':'
asbag61
(g82
g63
NtRp2674
(dp2675
g66
(dp2676
sg75
g2662
sg68
(lp2677
g61
(g62
g63
NtRp2678
(dp2679
g66
(dp2680
g74
I4
ssg75
g2674
sg68
(lp2681
S''
asbasbasbag61
(g77
g63
NtRp2682
(dp2683
g66
(dp2684
sg75
g2538
sg68
(lp2685
g61
(g82
g63
NtRp2686
(dp2687
g66
(dp2688
g86
g87
ssg75
g2682
sg68
(lp2689
g2333
asbag61
(g82
g63
NtRp2690
(dp2691
g66
(dp2692
g93
g94
ssg75
g2682
sg68
(lp2693
S':'
asbag61
(g82
g63
NtRp2694
(dp2695
g66
(dp2696
sg75
g2682
sg68
(lp2697
g61
(g62
g63
NtRp2698
(dp2699
g66
(dp2700
g74
I4
ssg75
g2694
sg68
(lp2701
S''
asbasbasbag61
(g77
g63
NtRp2702
(dp2703
g66
(dp2704
sg75
g2538
sg68
(lp2705
g61
(g82
g63
NtRp2706
(dp2707
g66
(dp2708
g86
g87
ssg75
g2702
sg68
(lp2709
g2354
asbag61
(g82
g63
NtRp2710
(dp2711
g66
(dp2712
g93
g94
ssg75
g2702
sg68
(lp2713
S':'
asbag61
(g82
g63
NtRp2714
(dp2715
g66
(dp2716
sg75
g2702
sg68
(lp2717
g61
(g62
g63
NtRp2718
(dp2719
g66
(dp2720
g74
I4
ssg75
g2714
sg68
(lp2721
S''
asbasbasbag61
(g77
g63
NtRp2722
(dp2723
g66
(dp2724
sg75
g2538
sg68
(lp2725
g61
(g82
g63
NtRp2726
(dp2727
g66
(dp2728
g86
g87
ssg75
g2722
sg68
(lp2729
g2375
asbag61
(g82
g63
NtRp2730
(dp2731
g66
(dp2732
g93
g94
ssg75
g2722
sg68
(lp2733
S':'
asbag61
(g82
g63
NtRp2734
(dp2735
g66
(dp2736
sg75
g2722
sg68
(lp2737
g61
(g62
g63
NtRp2738
(dp2739
g66
(dp2740
g74
I4
ssg75
g2734
sg68
(lp2741
S''
asbasbasbag61
(g77
g63
NtRp2742
(dp2743
g66
(dp2744
sg75
g2538
sg68
(lp2745
g61
(g82
g63
NtRp2746
(dp2747
g66
(dp2748
g86
g87
ssg75
g2742
sg68
(lp2749
g2396
asbag61
(g82
g63
NtRp2750
(dp2751
g66
(dp2752
g93
g94
ssg75
g2742
sg68
(lp2753
S':'
asbag61
(g82
g63
NtRp2754
(dp2755
g66
(dp2756
sg75
g2742
sg68
(lp2757
g61
(g62
g63
NtRp2758
(dp2759
g66
(dp2760
g74
I4
ssg75
g2754
sg68
(lp2761
S''
asbasbasbag61
(g77
g63
NtRp2762
(dp2763
g66
(dp2764
sg75
g2538
sg68
(lp2765
g61
(g82
g63
NtRp2766
(dp2767
g66
(dp2768
g86
g87
ssg75
g2762
sg68
(lp2769
g2417
asbag61
(g82
g63
NtRp2770
(dp2771
g66
(dp2772
g93
g94
ssg75
g2762
sg68
(lp2773
S':'
asbag61
(g82
g63
NtRp2774
(dp2775
g66
(dp2776
sg75
g2762
sg68
(lp2777
g61
(g62
g63
NtRp2778
(dp2779
g66
(dp2780
g74
I4
ssg75
g2774
sg68
(lp2781
S''
asbasbasbag61
(g77
g63
NtRp2782
(dp2783
g66
(dp2784
sg75
g2538
sg68
(lp2785
g61
(g82
g63
NtRp2786
(dp2787
g66
(dp2788
g86
g87
ssg75
g2782
sg68
(lp2789
g2438
asbag61
(g82
g63
NtRp2790
(dp2791
g66
(dp2792
g93
g94
ssg75
g2782
sg68
(lp2793
S':'
asbag61
(g82
g63
NtRp2794
(dp2795
g66
(dp2796
sg75
g2782
sg68
(lp2797
g61
(g62
g63
NtRp2798
(dp2799
g66
(dp2800
g74
I4
ssg75
g2794
sg68
(lp2801
S''
asbasbasbasbasbasbasbag61
(g77
g63
NtRp2802
(dp2803
g66
(dp2804
sg75
g71
sg68
(lp2805
g61
(g82
g63
NtRp2806
(dp2807
g66
(dp2808
g86
g87
ssg75
g2802
sg68
(lp2809
S'wsgi'
p2810
asbag61
(g82
g63
NtRp2811
(dp2812
g66
(dp2813
g93
g94
ssg75
g2802
sg68
(lp2814
S':'
asbag61
(g82
g63
NtRp2815
(dp2816
g66
(dp2817
sg75
g2802
sg68
(lp2818
g61
(g62
g63
NtRp2819
(dp2820
g66
(dp2821
g74
I5
ssg75
g2815
sg68
(lp2822
g61
(g70
g63
NtRp2823
(dp2824
g66
(dp2825
g74
I4
ssg75
Nsg68
(lp2826
g61
(g77
g63
NtRp2827
(dp2828
g66
(dp2829
sg75
g2823
sg68
(lp2830
g61
(g82
g63
NtRp2831
(dp2832
g66
(dp2833
g86
g87
ssg75
g2827
sg68
(lp2834
S'environ'
p2835
asbag61
(g82
g63
NtRp2836
(dp2837
g66
(dp2838
g93
g94
ssg75
g2827
sg68
(lp2839
S':'
asbag61
(g82
g63
NtRp2840
(dp2841
g66
(dp2842
sg75
g2827
sg68
(lp2843
g61
(g62
g63
NtRp2844
(dp2845
g66
(dp2846
g74
I4
ssg75
g2840
sg68
(lp2847
g61
(g70
g63
NtRp2848
(dp2849
g66
(dp2850
g74
I3
ssg75
Nsg68
(lp2851
g61
(g77
g63
NtRp2852
(dp2853
g66
(dp2854
sg75
g2848
sg68
(lp2855
g61
(g82
g63
NtRp2856
(dp2857
g66
(dp2858
g86
g87
ssg75
g2852
sg68
(lp2859
S'CONTENT_LENGTH'
p2860
asbag61
(g82
g63
NtRp2861
(dp2862
g66
(dp2863
g93
g94
ssg75
g2852
sg68
(lp2864
S':'
asbag61
(g82
g63
NtRp2865
(dp2866
g66
(dp2867
sg75
g2852
sg68
(lp2868
g61
(g62
g63
NtRp2869
(dp2870
g66
(dp2871
g74
I3
ssg75
g2865
sg68
(lp2872
g716
asbasbasbag61
(g77
g63
NtRp2873
(dp2874
g66
(dp2875
sg75
g2848
sg68
(lp2876
g61
(g82
g63
NtRp2877
(dp2878
g66
(dp2879
g86
g87
ssg75
g2873
sg68
(lp2880
S'CONTENT_TYPE'
p2881
asbag61
(g82
g63
NtRp2882
(dp2883
g66
(dp2884
g93
g94
ssg75
g2873
sg68
(lp2885
S':'
asbag61
(g82
g63
NtRp2886
(dp2887
g66
(dp2888
sg75
g2873
sg68
(lp2889
g61
(g62
g63
NtRp2890
(dp2891
g66
(dp2892
g74
I3
ssg75
g2886
sg68
(lp2893
g738
asbasbasbag61
(g77
g63
NtRp2894
(dp2895
g66
(dp2896
sg75
g2848
sg68
(lp2897
g61
(g82
g63
NtRp2898
(dp2899
g66
(dp2900
g86
g87
ssg75
g2894
sg68
(lp2901
S'HTTP_ACCEPT'
p2902
asbag61
(g82
g63
NtRp2903
(dp2904
g66
(dp2905
g93
g94
ssg75
g2894
sg68
(lp2906
S':'
asbag61
(g82
g63
NtRp2907
(dp2908
g66
(dp2909
sg75
g2894
sg68
(lp2910
g61
(g62
g63
NtRp2911
(dp2912
g66
(dp2913
g74
I3
ssg75
g2907
sg68
(lp2914
g825
asbasbasbag61
(g77
g63
NtRp2915
(dp2916
g66
(dp2917
sg75
g2848
sg68
(lp2918
g61
(g82
g63
NtRp2919
(dp2920
g66
(dp2921
g86
g87
ssg75
g2915
sg68
(lp2922
S'HTTP_ACCEPT_ENCODING'
p2923
asbag61
(g82
g63
NtRp2924
(dp2925
g66
(dp2926
g93
g94
ssg75
g2915
sg68
(lp2927
S':'
asbag61
(g82
g63
NtRp2928
(dp2929
g66
(dp2930
sg75
g2915
sg68
(lp2931
g61
(g62
g63
NtRp2932
(dp2933
g66
(dp2934
g74
I3
ssg75
g2928
sg68
(lp2935
g847
asbasbasbag61
(g77
g63
NtRp2936
(dp2937
g66
(dp2938
sg75
g2848
sg68
(lp2939
g61
(g82
g63
NtRp2940
(dp2941
g66
(dp2942
g86
g87
ssg75
g2936
sg68
(lp2943
S'HTTP_ACCEPT_LANGUAGE'
p2944
asbag61
(g82
g63
NtRp2945
(dp2946
g66
(dp2947
g93
g94
ssg75
g2936
sg68
(lp2948
S':'
asbag61
(g82
g63
NtRp2949
(dp2950
g66
(dp2951
sg75
g2936
sg68
(lp2952
g61
(g62
g63
NtRp2953
(dp2954
g66
(dp2955
g74
I3
ssg75
g2949
sg68
(lp2956
g869
asbasbasbag61
(g77
g63
NtRp2957
(dp2958
g66
(dp2959
sg75
g2848
sg68
(lp2960
g61
(g82
g63
NtRp2961
(dp2962
g66
(dp2963
g86
g87
ssg75
g2957
sg68
(lp2964
S'HTTP_CONNECTION'
p2965
asbag61
(g82
g63
NtRp2966
(dp2967
g66
(dp2968
g93
g94
ssg75
g2957
sg68
(lp2969
S':'
asbag61
(g82
g63
NtRp2970
(dp2971
g66
(dp2972
sg75
g2957
sg68
(lp2973
g61
(g62
g63
NtRp2974
(dp2975
g66
(dp2976
g74
I3
ssg75
g2970
sg68
(lp2977
g891
asbasbasbag61
(g77
g63
NtRp2978
(dp2979
g66
(dp2980
sg75
g2848
sg68
(lp2981
g61
(g82
g63
NtRp2982
(dp2983
g66
(dp2984
g86
g87
ssg75
g2978
sg68
(lp2985
S'HTTP_CONTENT_LENGTH'
p2986
asbag61
(g82
g63
NtRp2987
(dp2988
g66
(dp2989
g93
g94
ssg75
g2978
sg68
(lp2990
S':'
asbag61
(g82
g63
NtRp2991
(dp2992
g66
(dp2993
sg75
g2978
sg68
(lp2994
g61
(g62
g63
NtRp2995
(dp2996
g66
(dp2997
g74
I3
ssg75
g2991
sg68
(lp2998
g716
asbasbasbag61
(g77
g63
NtRp2999
(dp3000
g66
(dp3001
sg75
g2848
sg68
(lp3002
g61
(g82
g63
NtRp3003
(dp3004
g66
(dp3005
g86
g87
ssg75
g2999
sg68
(lp3006
S'HTTP_CONTENT_TYPE'
p3007
asbag61
(g82
g63
NtRp3008
(dp3009
g66
(dp3010
g93
g94
ssg75
g2999
sg68
(lp3011
S':'
asbag61
(g82
g63
NtRp3012
(dp3013
g66
(dp3014
sg75
g2999
sg68
(lp3015
g61
(g62
g63
NtRp3016
(dp3017
g66
(dp3018
g74
I3
ssg75
g3012
sg68
(lp3019
g738
asbasbasbag61
(g77
g63
NtRp3020
(dp3021
g66
(dp3022
sg75
g2848
sg68
(lp3023
g61
(g82
g63
NtRp3024
(dp3025
g66
(dp3026
g86
g87
ssg75
g3020
sg68
(lp3027
S'HTTP_COOKIE'
p3028
asbag61
(g82
g63
NtRp3029
(dp3030
g66
(dp3031
g93
g94
ssg75
g3020
sg68
(lp3032
S':'
asbag61
(g82
g63
NtRp3033
(dp3034
g66
(dp3035
sg75
g3020
sg68
(lp3036
g61
(g62
g63
NtRp3037
(dp3038
g66
(dp3039
g74
I3
ssg75
g3033
sg68
(lp3040
g955
asbasbasbag61
(g77
g63
NtRp3041
(dp3042
g66
(dp3043
sg75
g2848
sg68
(lp3044
g61
(g82
g63
NtRp3045
(dp3046
g66
(dp3047
g86
g87
ssg75
g3041
sg68
(lp3048
S'HTTP_HOST'
p3049
asbag61
(g82
g63
NtRp3050
(dp3051
g66
(dp3052
g93
g94
ssg75
g3041
sg68
(lp3053
S':'
asbag61
(g82
g63
NtRp3054
(dp3055
g66
(dp3056
sg75
g3041
sg68
(lp3057
g61
(g62
g63
NtRp3058
(dp3059
g66
(dp3060
g74
I3
ssg75
g3054
sg68
(lp3061
g977
asbasbasbag61
(g77
g63
NtRp3062
(dp3063
g66
(dp3064
sg75
g2848
sg68
(lp3065
g61
(g82
g63
NtRp3066
(dp3067
g66
(dp3068
g86
g87
ssg75
g3062
sg68
(lp3069
S'HTTP_REFERER'
p3070
asbag61
(g82
g63
NtRp3071
(dp3072
g66
(dp3073
g93
g94
ssg75
g3062
sg68
(lp3074
S':'
asbag61
(g82
g63
NtRp3075
(dp3076
g66
(dp3077
sg75
g3062
sg68
(lp3078
g61
(g62
g63
NtRp3079
(dp3080
g66
(dp3081
g74
I3
ssg75
g3075
sg68
(lp3082
g999
asbasbasbag61
(g77
g63
NtRp3083
(dp3084
g66
(dp3085
sg75
g2848
sg68
(lp3086
g61
(g82
g63
NtRp3087
(dp3088
g66
(dp3089
g86
g87
ssg75
g3083
sg68
(lp3090
S'HTTP_USER_AGENT'
p3091
asbag61
(g82
g63
NtRp3092
(dp3093
g66
(dp3094
g93
g94
ssg75
g3083
sg68
(lp3095
S':'
asbag61
(g82
g63
NtRp3096
(dp3097
g66
(dp3098
sg75
g3083
sg68
(lp3099
g61
(g62
g63
NtRp3100
(dp3101
g66
(dp3102
g74
I3
ssg75
g3096
sg68
(lp3103
g1021
asbasbasbag61
(g77
g63
NtRp3104
(dp3105
g66
(dp3106
sg75
g2848
sg68
(lp3107
g61
(g82
g63
NtRp3108
(dp3109
g66
(dp3110
g86
g87
ssg75
g3104
sg68
(lp3111
S'PATH_INFO'
p3112
asbag61
(g82
g63
NtRp3113
(dp3114
g66
(dp3115
g93
g94
ssg75
g3104
sg68
(lp3116
S':'
asbag61
(g82
g63
NtRp3117
(dp3118
g66
(dp3119
sg75
g3104
sg68
(lp3120
g61
(g62
g63
NtRp3121
(dp3122
g66
(dp3123
g74
I3
ssg75
g3117
sg68
(lp3124
g1085
asbasbasbag61
(g77
g63
NtRp3125
(dp3126
g66
(dp3127
sg75
g2848
sg68
(lp3128
g61
(g82
g63
NtRp3129
(dp3130
g66
(dp3131
g86
g87
ssg75
g3125
sg68
(lp3132
S'QUERY_STRING'
p3133
asbag61
(g82
g63
NtRp3134
(dp3135
g66
(dp3136
g93
g94
ssg75
g3125
sg68
(lp3137
S':'
asbag61
(g82
g63
NtRp3138
(dp3139
g66
(dp3140
sg75
g3125
sg68
(lp3141
g61
(g62
g63
NtRp3142
(dp3143
g66
(dp3144
g74
I3
ssg75
g3138
sg68
(lp3145
g1107
asbasbasbag61
(g77
g63
NtRp3146
(dp3147
g66
(dp3148
sg75
g2848
sg68
(lp3149
g61
(g82
g63
NtRp3150
(dp3151
g66
(dp3152
g86
g87
ssg75
g3146
sg68
(lp3153
S'REMOTE_ADDR'
p3154
asbag61
(g82
g63
NtRp3155
(dp3156
g66
(dp3157
g93
g94
ssg75
g3146
sg68
(lp3158
S':'
asbag61
(g82
g63
NtRp3159
(dp3160
g66
(dp3161
sg75
g3146
sg68
(lp3162
g61
(g62
g63
NtRp3163
(dp3164
g66
(dp3165
g74
I3
ssg75
g3159
sg68
(lp3166
g194
asbasbasbag61
(g77
g63
NtRp3167
(dp3168
g66
(dp3169
sg75
g2848
sg68
(lp3170
g61
(g82
g63
NtRp3171
(dp3172
g66
(dp3173
g86
g87
ssg75
g3167
sg68
(lp3174
S'REMOTE_PORT'
p3175
asbag61
(g82
g63
NtRp3176
(dp3177
g66
(dp3178
g93
g94
ssg75
g3167
sg68
(lp3179
S':'
asbag61
(g82
g63
NtRp3180
(dp3181
g66
(dp3182
sg75
g3167
sg68
(lp3183
g61
(g62
g63
NtRp3184
(dp3185
g66
(dp3186
g74
I3
ssg75
g3180
sg68
(lp3187
g1150
asbasbasbag61
(g77
g63
NtRp3188
(dp3189
g66
(dp3190
sg75
g2848
sg68
(lp3191
g61
(g82
g63
NtRp3192
(dp3193
g66
(dp3194
g86
g87
ssg75
g3188
sg68
(lp3195
S'REQUEST_METHOD'
p3196
asbag61
(g82
g63
NtRp3197
(dp3198
g66
(dp3199
g93
g94
ssg75
g3188
sg68
(lp3200
S':'
asbag61
(g82
g63
NtRp3201
(dp3202
g66
(dp3203
sg75
g3188
sg68
(lp3204
g61
(g62
g63
NtRp3205
(dp3206
g66
(dp3207
g74
I3
ssg75
g3201
sg68
(lp3208
g1172
asbasbasbag61
(g77
g63
NtRp3209
(dp3210
g66
(dp3211
sg75
g2848
sg68
(lp3212
g61
(g82
g63
NtRp3213
(dp3214
g66
(dp3215
g86
g87
ssg75
g3209
sg68
(lp3216
S'REQUEST_URI'
p3217
asbag61
(g82
g63
NtRp3218
(dp3219
g66
(dp3220
g93
g94
ssg75
g3209
sg68
(lp3221
S':'
asbag61
(g82
g63
NtRp3222
(dp3223
g66
(dp3224
sg75
g3209
sg68
(lp3225
g61
(g62
g63
NtRp3226
(dp3227
g66
(dp3228
g74
I3
ssg75
g3222
sg68
(lp3229
g1194
asbasbasbag61
(g77
g63
NtRp3230
(dp3231
g66
(dp3232
sg75
g2848
sg68
(lp3233
g61
(g82
g63
NtRp3234
(dp3235
g66
(dp3236
g86
g87
ssg75
g3230
sg68
(lp3237
S'SCRIPT_NAME'
p3238
asbag61
(g82
g63
NtRp3239
(dp3240
g66
(dp3241
g93
g94
ssg75
g3230
sg68
(lp3242
S':'
asbag61
(g82
g63
NtRp3243
(dp3244
g66
(dp3245
sg75
g3230
sg68
(lp3246
g61
(g62
g63
NtRp3247
(dp3248
g66
(dp3249
g74
I3
ssg75
g3243
sg68
(lp3250
S''
asbasbasbag61
(g77
g63
NtRp3251
(dp3252
g66
(dp3253
sg75
g2848
sg68
(lp3254
g61
(g82
g63
NtRp3255
(dp3256
g66
(dp3257
g86
g87
ssg75
g3251
sg68
(lp3258
S'SERVER_NAME'
p3259
asbag61
(g82
g63
NtRp3260
(dp3261
g66
(dp3262
g93
g94
ssg75
g3251
sg68
(lp3263
S':'
asbag61
(g82
g63
NtRp3264
(dp3265
g66
(dp3266
sg75
g3251
sg68
(lp3267
g61
(g62
g63
NtRp3268
(dp3269
g66
(dp3270
g74
I3
ssg75
g3264
sg68
(lp3271
g1237
asbasbasbag61
(g77
g63
NtRp3272
(dp3273
g66
(dp3274
sg75
g2848
sg68
(lp3275
g61
(g82
g63
NtRp3276
(dp3277
g66
(dp3278
g86
g87
ssg75
g3272
sg68
(lp3279
S'SERVER_PORT'
p3280
asbag61
(g82
g63
NtRp3281
(dp3282
g66
(dp3283
g93
g94
ssg75
g3272
sg68
(lp3284
S':'
asbag61
(g82
g63
NtRp3285
(dp3286
g66
(dp3287
sg75
g3272
sg68
(lp3288
g61
(g62
g63
NtRp3289
(dp3290
g66
(dp3291
g74
I3
ssg75
g3285
sg68
(lp3292
g1259
asbasbasbag61
(g77
g63
NtRp3293
(dp3294
g66
(dp3295
sg75
g2848
sg68
(lp3296
g61
(g82
g63
NtRp3297
(dp3298
g66
(dp3299
g86
g87
ssg75
g3293
sg68
(lp3300
S'SERVER_PROTOCOL'
p3301
asbag61
(g82
g63
NtRp3302
(dp3303
g66
(dp3304
g93
g94
ssg75
g3293
sg68
(lp3305
S':'
asbag61
(g82
g63
NtRp3306
(dp3307
g66
(dp3308
sg75
g3293
sg68
(lp3309
g61
(g62
g63
NtRp3310
(dp3311
g66
(dp3312
g74
I3
ssg75
g3306
sg68
(lp3313
g1281
asbasbasbag61
(g77
g63
NtRp3314
(dp3315
g66
(dp3316
sg75
g2848
sg68
(lp3317
g61
(g82
g63
NtRp3318
(dp3319
g66
(dp3320
g86
g87
ssg75
g3314
sg68
(lp3321
S'SERVER_SOFTWARE'
p3322
asbag61
(g82
g63
NtRp3323
(dp3324
g66
(dp3325
g93
g94
ssg75
g3314
sg68
(lp3326
S':'
asbag61
(g82
g63
NtRp3327
(dp3328
g66
(dp3329
sg75
g3314
sg68
(lp3330
g61
(g62
g63
NtRp3331
(dp3332
g66
(dp3333
g74
I3
ssg75
g3327
sg68
(lp3334
g1303
asbasbasbag61
(g77
g63
NtRp3335
(dp3336
g66
(dp3337
sg75
g2848
sg68
(lp3338
g61
(g82
g63
NtRp3339
(dp3340
g66
(dp3341
g86
g87
ssg75
g3335
sg68
(lp3342
S'WEB2PY_ORIGINAL_URI'
p3343
asbag61
(g82
g63
NtRp3344
(dp3345
g66
(dp3346
g93
g94
ssg75
g3335
sg68
(lp3347
S':'
asbag61
(g82
g63
NtRp3348
(dp3349
g66
(dp3350
sg75
g3335
sg68
(lp3351
g61
(g62
g63
NtRp3352
(dp3353
g66
(dp3354
g74
I3
ssg75
g3348
sg68
(lp3355
g1347
asbasbasbag61
(g77
g63
NtRp3356
(dp3357
g66
(dp3358
sg75
g2848
sg68
(lp3359
g61
(g82
g63
NtRp3360
(dp3361
g66
(dp3362
g86
g87
ssg75
g3356
sg68
(lp3363
S'wsgi.errors'
p3364
asbag61
(g82
g63
NtRp3365
(dp3366
g66
(dp3367
g93
g94
ssg75
g3356
sg68
(lp3368
S':'
asbag61
(g82
g63
NtRp3369
(dp3370
g66
(dp3371
sg75
g3356
sg68
(lp3372
g61
(g62
g63
NtRp3373
(dp3374
g66
(dp3375
g74
I3
ssg75
g3369
sg68
(lp3376
S"<open file '<stderr>', mode 'w' at 0x006000B0>"
p3377
asbasbasbag61
(g77
g63
NtRp3378
(dp3379
g66
(dp3380
sg75
g2848
sg68
(lp3381
g61
(g82
g63
NtRp3382
(dp3383
g66
(dp3384
g86
g87
ssg75
g3378
sg68
(lp3385
S'wsgi.file_wrapper'
p3386
asbag61
(g82
g63
NtRp3387
(dp3388
g66
(dp3389
g93
g94
ssg75
g3378
sg68
(lp3390
S':'
asbag61
(g82
g63
NtRp3391
(dp3392
g66
(dp3393
sg75
g3378
sg68
(lp3394
g61
(g62
g63
NtRp3395
(dp3396
g66
(dp3397
g74
I3
ssg75
g3391
sg68
(lp3398
S'<class wsgiref.util.FileWrapper at 0x02DA9390>'
p3399
asbasbasbag61
(g77
g63
NtRp3400
(dp3401
g66
(dp3402
sg75
g2848
sg68
(lp3403
g61
(g82
g63
NtRp3404
(dp3405
g66
(dp3406
g86
g87
ssg75
g3400
sg68
(lp3407
S'wsgi.input'
p3408
asbag61
(g82
g63
NtRp3409
(dp3410
g66
(dp3411
g93
g94
ssg75
g3400
sg68
(lp3412
S':'
asbag61
(g82
g63
NtRp3413
(dp3414
g66
(dp3415
sg75
g3400
sg68
(lp3416
g61
(g62
g63
NtRp3417
(dp3418
g66
(dp3419
g74
I3
ssg75
g3413
sg68
(lp3420
S"<open file '<fdopen>', mode 'w+b' at 0x065E72F0>"
p3421
asbasbasbag61
(g77
g63
NtRp3422
(dp3423
g66
(dp3424
sg75
g2848
sg68
(lp3425
g61
(g82
g63
NtRp3426
(dp3427
g66
(dp3428
g86
g87
ssg75
g3422
sg68
(lp3429
S'wsgi.multiprocess'
p3430
asbag61
(g82
g63
NtRp3431
(dp3432
g66
(dp3433
g93
g94
ssg75
g3422
sg68
(lp3434
S':'
asbag61
(g82
g63
NtRp3435
(dp3436
g66
(dp3437
sg75
g3422
sg68
(lp3438
g61
(g62
g63
NtRp3439
(dp3440
g66
(dp3441
g74
I3
ssg75
g3435
sg68
(lp3442
g104
asbasbasbag61
(g77
g63
NtRp3443
(dp3444
g66
(dp3445
sg75
g2848
sg68
(lp3446
g61
(g82
g63
NtRp3447
(dp3448
g66
(dp3449
g86
g87
ssg75
g3443
sg68
(lp3450
S'wsgi.multithread'
p3451
asbag61
(g82
g63
NtRp3452
(dp3453
g66
(dp3454
g93
g94
ssg75
g3443
sg68
(lp3455
S':'
asbag61
(g82
g63
NtRp3456
(dp3457
g66
(dp3458
sg75
g3443
sg68
(lp3459
g61
(g62
g63
NtRp3460
(dp3461
g66
(dp3462
g74
I3
ssg75
g3456
sg68
(lp3463
g1565
asbasbasbag61
(g77
g63
NtRp3464
(dp3465
g66
(dp3466
sg75
g2848
sg68
(lp3467
g61
(g82
g63
NtRp3468
(dp3469
g66
(dp3470
g86
g87
ssg75
g3464
sg68
(lp3471
S'wsgi.run_once'
p3472
asbag61
(g82
g63
NtRp3473
(dp3474
g66
(dp3475
g93
g94
ssg75
g3464
sg68
(lp3476
S':'
asbag61
(g82
g63
NtRp3477
(dp3478
g66
(dp3479
sg75
g3464
sg68
(lp3480
g61
(g62
g63
NtRp3481
(dp3482
g66
(dp3483
g74
I3
ssg75
g3477
sg68
(lp3484
g104
asbasbasbag61
(g77
g63
NtRp3485
(dp3486
g66
(dp3487
sg75
g2848
sg68
(lp3488
g61
(g82
g63
NtRp3489
(dp3490
g66
(dp3491
g86
g87
ssg75
g3485
sg68
(lp3492
S'wsgi.url_scheme'
p3493
asbag61
(g82
g63
NtRp3494
(dp3495
g66
(dp3496
g93
g94
ssg75
g3485
sg68
(lp3497
S':'
asbag61
(g82
g63
NtRp3498
(dp3499
g66
(dp3500
sg75
g3485
sg68
(lp3501
g61
(g62
g63
NtRp3502
(dp3503
g66
(dp3504
g74
I3
ssg75
g3498
sg68
(lp3505
g1608
asbasbasbag61
(g77
g63
NtRp3506
(dp3507
g66
(dp3508
sg75
g2848
sg68
(lp3509
g61
(g82
g63
NtRp3510
(dp3511
g66
(dp3512
g86
g87
ssg75
g3506
sg68
(lp3513
S'wsgi.version'
p3514
asbag61
(g82
g63
NtRp3515
(dp3516
g66
(dp3517
g93
g94
ssg75
g3506
sg68
(lp3518
S':'
asbag61
(g82
g63
NtRp3519
(dp3520
g66
(dp3521
sg75
g3506
sg68
(lp3522
g61
(g62
g63
NtRp3523
(dp3524
g66
(dp3525
g74
I3
ssg75
g3519
sg68
(lp3526
S'1'
asbasbasbasbasbasbasbasbasbasbasbasbasbsS'frames'
p3527
(lp3528
(dp3529
S'file'
p3530
S'D:\\Dise\xf1o Web\\Proyectos\\Parleyweb\\web2py\\gluon\\restricted.py'
p3531
sS'dump'
p3532
(dp3533
sS'lnum'
p3534
I204
sS'lines'
p3535
(dp3536
sS'call'
p3537
S"(code='# coding: utf8\\n# intente algo como\\ndef index():\\n...response._vars=response._caller(agregar_palabra)\\n', environment={'A': <class 'gluon.html.A'>, 'Auth': <class 'gluon.tools.Auth'>, 'B': <class 'gluon.html.B'>, 'BEAUTIFY': <class 'gluon.html.BEAUTIFY'>, 'BODY': <class 'gluon.html.BODY'>, 'BR': <class 'gluon.html.BR'>, 'BUTTON': <class 'gluon.html.BUTTON'>, 'CAT': <class 'gluon.html.CAT'>, 'CENTER': <class 'gluon.html.CENTER'>, 'CLEANUP': <class 'gluon.validators.CLEANUP'>, ...}, layer='D:\\\\Dise\\xf1o Web\\\\Proyectos\\\\Parleyweb\\\\web2py\\\\applications\\\\webparley\\\\controllers/admin.py')"
p3538
sS'func'
p3539
S'restricted'
p3540
sa(dp3541
g3530
S'D:\\Dise\xf1o Web\\Proyectos\\Parleyweb\\web2py\\gluon\\restricted.py'
p3542
sg3532
(dp3543
sg3534
I189
sg3535
(dp3544
sg3537
S"(code='# coding: utf8\\n# intente algo como\\ndef index():\\n...response._vars=response._caller(agregar_palabra)\\n', layer='D:\\\\Dise\\xf1o Web\\\\Proyectos\\\\Parleyweb\\\\web2py\\\\applications\\\\webparley\\\\controllers/admin.py')"
p3545
sg3539
S'compile2'
p3546
sasS'pyver'
p3547
S'Python 2.5.4: D:\\Dise\xf1o Web\\Proyectos\\Parleyweb\\web2py\\web2py.exe'
p3548
sS'session'
p3549
g61
(g62
g63
NtRp3550
(dp3551
g66
(dp3552
sg68
(lp3553
g61
(g70
g63
NtRp3554
(dp3555
g66
(dp3556
g74
I5
ssg75
Nsg68
(lp3557
g61
(g77
g63
NtRp3558
(dp3559
g66
(dp3560
sg75
g3554
sg68
(lp3561
g61
(g82
g63
NtRp3562
(dp3563
g66
(dp3564
g86
g87
ssg75
g3558
sg68
(lp3565
S'last_query'
p3566
asbag61
(g82
g63
NtRp3567
(dp3568
g66
(dp3569
g93
g94
ssg75
g3558
sg68
(lp3570
S':'
asbag61
(g82
g63
NtRp3571
(dp3572
g66
(dp3573
sg75
g3558
sg68
(lp3574
g61
(g62
g63
NtRp3575
(dp3576
g66
(dp3577
g74
I5
ssg75
g3571
sg68
(lp3578
S'db.auth_user.id>0'
p3579
asbasbasbasbasbsS'etype'
p3580
S"<type 'exceptions.SyntaxError'>"
p3581
sS'date'
p3582
S'Mon Mar 19 00:35:42 2012'
p3583
sS'response'
p3584
g61
(g62
g63
NtRp3585
(dp3586
g66
(dp3587
sg68
(lp3588
g61
(g70
g63
NtRp3589
(dp3590
g66
(dp3591
g74
I5
ssg75
Nsg68
(lp3592
g61
(g77
g63
NtRp3593
(dp3594
g66
(dp3595
sg75
g3589
sg68
(lp3596
g61
(g82
g63
NtRp3597
(dp3598
g66
(dp3599
g86
g87
ssg75
g3593
sg68
(lp3600
g159
asbag61
(g82
g63
NtRp3601
(dp3602
g66
(dp3603
g93
g94
ssg75
g3593
sg68
(lp3604
S':'
asbag61
(g82
g63
NtRp3605
(dp3606
g66
(dp3607
sg75
g3593
sg68
(lp3608
g61
(g62
g63
NtRp3609
(dp3610
g66
(dp3611
g74
I5
ssg75
g3605
sg68
(lp3612
S'<cStringIO.StringO object at 0x066DF3A0>'
p3613
asbasbasbag61
(g77
g63
NtRp3614
(dp3615
g66
(dp3616
sg75
g3589
sg68
(lp3617
g61
(g82
g63
NtRp3618
(dp3619
g66
(dp3620
g86
g87
ssg75
g3614
sg68
(lp3621
g225
asbag61
(g82
g63
NtRp3622
(dp3623
g66
(dp3624
g93
g94
ssg75
g3614
sg68
(lp3625
S':'
asbag61
(g82
g63
NtRp3626
(dp3627
g66
(dp3628
sg75
g3614
sg68
(lp3629
g61
(g62
g63
NtRp3630
(dp3631
g66
(dp3632
g74
I5
ssg75
g3626
sg68
(lp3633
g61
(g70
g63
NtRp3634
(dp3635
g66
(dp3636
g74
I4
ssg75
Nsg68
(lp3637
g61
(g77
g63
NtRp3638
(dp3639
g66
(dp3640
sg75
g3634
sg68
(lp3641
g61
(g82
g63
NtRp3642
(dp3643
g66
(dp3644
g86
g87
ssg75
g3638
sg68
(lp3645
S'session_id_webparley'
p3646
asbag61
(g82
g63
NtRp3647
(dp3648
g66
(dp3649
g93
g94
ssg75
g3638
sg68
(lp3650
S':'
asbag61
(g82
g63
NtRp3651
(dp3652
g66
(dp3653
sg75
g3638
sg68
(lp3654
g61
(g62
g63
NtRp3655
(dp3656
g66
(dp3657
g74
I4
ssg75
g3651
sg68
(lp3658
g61
(g70
g63
NtRp3659
(dp3660
g66
(dp3661
g74
I3
ssg75
Nsg68
(lp3662
g61
(g77
g63
NtRp3663
(dp3664
g66
(dp3665
sg75
g3659
sg68
(lp3666
g61
(g82
g63
NtRp3667
(dp3668
g66
(dp3669
g86
g87
ssg75
g3663
sg68
(lp3670
g275
asbag61
(g82
g63
NtRp3671
(dp3672
g66
(dp3673
g93
g94
ssg75
g3663
sg68
(lp3674
S':'
asbag61
(g82
g63
NtRp3675
(dp3676
g66
(dp3677
sg75
g3663
sg68
(lp3678
g61
(g62
g63
NtRp3679
(dp3680
g66
(dp3681
g74
I3
ssg75
g3675
sg68
(lp3682
S''
asbasbasbag61
(g77
g63
NtRp3683
(dp3684
g66
(dp3685
sg75
g3659
sg68
(lp3686
g61
(g82
g63
NtRp3687
(dp3688
g66
(dp3689
g86
g87
ssg75
g3683
sg68
(lp3690
g296
asbag61
(g82
g63
NtRp3691
(dp3692
g66
(dp3693
g93
g94
ssg75
g3683
sg68
(lp3694
S':'
asbag61
(g82
g63
NtRp3695
(dp3696
g66
(dp3697
sg75
g3683
sg68
(lp3698
g61
(g62
g63
NtRp3699
(dp3700
g66
(dp3701
g74
I3
ssg75
g3695
sg68
(lp3702
S''
asbasbasbag61
(g77
g63
NtRp3703
(dp3704
g66
(dp3705
sg75
g3659
sg68
(lp3706
g61
(g82
g63
NtRp3707
(dp3708
g66
(dp3709
g86
g87
ssg75
g3703
sg68
(lp3710
g317
asbag61
(g82
g63
NtRp3711
(dp3712
g66
(dp3713
g93
g94
ssg75
g3703
sg68
(lp3714
S':'
asbag61
(g82
g63
NtRp3715
(dp3716
g66
(dp3717
sg75
g3703
sg68
(lp3718
g61
(g62
g63
NtRp3719
(dp3720
g66
(dp3721
g74
I3
ssg75
g3715
sg68
(lp3722
S''
asbasbasbag61
(g77
g63
NtRp3723
(dp3724
g66
(dp3725
sg75
g3659
sg68
(lp3726
g61
(g82
g63
NtRp3727
(dp3728
g66
(dp3729
g86
g87
ssg75
g3723
sg68
(lp3730
g338
asbag61
(g82
g63
NtRp3731
(dp3732
g66
(dp3733
g93
g94
ssg75
g3723
sg68
(lp3734
S':'
asbag61
(g82
g63
NtRp3735
(dp3736
g66
(dp3737
sg75
g3723
sg68
(lp3738
g61
(g62
g63
NtRp3739
(dp3740
g66
(dp3741
g74
I3
ssg75
g3735
sg68
(lp3742
S''
asbasbasbag61
(g77
g63
NtRp3743
(dp3744
g66
(dp3745
sg75
g3659
sg68
(lp3746
g61
(g82
g63
NtRp3747
(dp3748
g66
(dp3749
g86
g87
ssg75
g3743
sg68
(lp3750
g359
asbag61
(g82
g63
NtRp3751
(dp3752
g66
(dp3753
g93
g94
ssg75
g3743
sg68
(lp3754
S':'
asbag61
(g82
g63
NtRp3755
(dp3756
g66
(dp3757
sg75
g3743
sg68
(lp3758
g61
(g62
g63
NtRp3759
(dp3760
g66
(dp3761
g74
I3
ssg75
g3755
sg68
(lp3762
S'/'
asbasbasbag61
(g77
g63
NtRp3763
(dp3764
g66
(dp3765
sg75
g3659
sg68
(lp3766
g61
(g82
g63
NtRp3767
(dp3768
g66
(dp3769
g86
g87
ssg75
g3763
sg68
(lp3770
g380
asbag61
(g82
g63
NtRp3771
(dp3772
g66
(dp3773
g93
g94
ssg75
g3763
sg68
(lp3774
S':'
asbag61
(g82
g63
NtRp3775
(dp3776
g66
(dp3777
sg75
g3763
sg68
(lp3778
g61
(g62
g63
NtRp3779
(dp3780
g66
(dp3781
g74
I3
ssg75
g3775
sg68
(lp3782
S''
asbasbasbag61
(g77
g63
NtRp3783
(dp3784
g66
(dp3785
sg75
g3659
sg68
(lp3786
g61
(g82
g63
NtRp3787
(dp3788
g66
(dp3789
g86
g87
ssg75
g3783
sg68
(lp3790
g401
asbag61
(g82
g63
NtRp3791
(dp3792
g66
(dp3793
g93
g94
ssg75
g3783
sg68
(lp3794
S':'
asbag61
(g82
g63
NtRp3795
(dp3796
g66
(dp3797
sg75
g3783
sg68
(lp3798
g61
(g62
g63
NtRp3799
(dp3800
g66
(dp3801
g74
I3
ssg75
g3795
sg68
(lp3802
S''
asbasbasbasbasbasbasbasbasbasbasbag61
(g77
g63
NtRp3803
(dp3804
g66
(dp3805
sg75
g3589
sg68
(lp3806
g61
(g82
g63
NtRp3807
(dp3808
g66
(dp3809
g86
g87
ssg75
g3803
sg68
(lp3810
S'delimiters'
p3811
asbag61
(g82
g63
NtRp3812
(dp3813
g66
(dp3814
g93
g94
ssg75
g3803
sg68
(lp3815
S':'
asbag61
(g82
g63
NtRp3816
(dp3817
g66
(dp3818
sg75
g3803
sg68
(lp3819
g61
(g62
g63
NtRp3820
(dp3821
g66
(dp3822
g74
I5
ssg75
g3816
sg68
(lp3823
g61
(g70
g63
NtRp3824
(dp3825
g66
(dp3826
g74
I4
ssg75
Nsg68
(lp3827
g61
(g77
g63
NtRp3828
(dp3829
g66
(dp3830
sg75
g3824
sg68
(lp3831
g61
(g82
g63
NtRp3832
(dp3833
g66
(dp3834
sg75
g3828
sg68
(lp3835
g61
(g62
g63
NtRp3836
(dp3837
g66
(dp3838
g74
I4
ssg75
g3832
sg68
(lp3839
S'{{'
p3840
asbasbasbag61
(g77
g63
NtRp3841
(dp3842
g66
(dp3843
sg75
g3824
sg68
(lp3844
g61
(g82
g63
NtRp3845
(dp3846
g66
(dp3847
sg75
g3841
sg68
(lp3848
g61
(g62
g63
NtRp3849
(dp3850
g66
(dp3851
g74
I4
ssg75
g3845
sg68
(lp3852
S'}}'
p3853
asbasbasbasbasbasbasbag61
(g77
g63
NtRp3854
(dp3855
g66
(dp3856
sg75
g3589
sg68
(lp3857
g61
(g82
g63
NtRp3858
(dp3859
g66
(dp3860
g86
g87
ssg75
g3854
sg68
(lp3861
S'files'
p3862
asbag61
(g82
g63
NtRp3863
(dp3864
g66
(dp3865
g93
g94
ssg75
g3854
sg68
(lp3866
S':'
asbag61
(g82
g63
NtRp3867
(dp3868
g66
(dp3869
sg75
g3854
sg68
(lp3870
g61
(g62
g63
NtRp3871
(dp3872
g66
(dp3873
g74
I5
ssg75
g3867
sg68
(lp3874
g61
(g70
g63
NtRp3875
(dp3876
g66
(dp3877
g74
I4
ssg75
Nsg68
(lp3878
sbasbasbasbag61
(g77
g63
NtRp3879
(dp3880
g66
(dp3881
sg75
g3589
sg68
(lp3882
g61
(g82
g63
NtRp3883
(dp3884
g66
(dp3885
g86
g87
ssg75
g3879
sg68
(lp3886
S'flash'
p3887
asbag61
(g82
g63
NtRp3888
(dp3889
g66
(dp3890
g93
g94
ssg75
g3879
sg68
(lp3891
S':'
asbag61
(g82
g63
NtRp3892
(dp3893
g66
(dp3894
sg75
g3879
sg68
(lp3895
g61
(g62
g63
NtRp3896
(dp3897
g66
(dp3898
g74
I5
ssg75
g3892
sg68
(lp3899
S''
asbasbasbag61
(g77
g63
NtRp3900
(dp3901
g66
(dp3902
sg75
g3589
sg68
(lp3903
g61
(g82
g63
NtRp3904
(dp3905
g66
(dp3906
g86
g87
ssg75
g3900
sg68
(lp3907
S'generic_patterns'
p3908
asbag61
(g82
g63
NtRp3909
(dp3910
g66
(dp3911
g93
g94
ssg75
g3900
sg68
(lp3912
S':'
asbag61
(g82
g63
NtRp3913
(dp3914
g66
(dp3915
sg75
g3900
sg68
(lp3916
g61
(g62
g63
NtRp3917
(dp3918
g66
(dp3919
g74
I5
ssg75
g3913
sg68
(lp3920
g61
(g70
g63
NtRp3921
(dp3922
g66
(dp3923
g74
I4
ssg75
Nsg68
(lp3924
g61
(g77
g63
NtRp3925
(dp3926
g66
(dp3927
sg75
g3921
sg68
(lp3928
g61
(g82
g63
NtRp3929
(dp3930
g66
(dp3931
sg75
g3925
sg68
(lp3932
g61
(g62
g63
NtRp3933
(dp3934
g66
(dp3935
g74
I4
ssg75
g3929
sg68
(lp3936
S'*'
asbasbasbasbasbasbasbag61
(g77
g63
NtRp3937
(dp3938
g66
(dp3939
sg75
g3589
sg68
(lp3940
g61
(g82
g63
NtRp3941
(dp3942
g66
(dp3943
g86
g87
ssg75
g3937
sg68
(lp3944
S'headers'
p3945
asbag61
(g82
g63
NtRp3946
(dp3947
g66
(dp3948
g93
g94
ssg75
g3937
sg68
(lp3949
S':'
asbag61
(g82
g63
NtRp3950
(dp3951
g66
(dp3952
sg75
g3937
sg68
(lp3953
g61
(g62
g63
NtRp3954
(dp3955
g66
(dp3956
g74
I5
ssg75
g3950
sg68
(lp3957
g61
(g70
g63
NtRp3958
(dp3959
g66
(dp3960
g74
I4
ssg75
Nsg68
(lp3961
g61
(g77
g63
NtRp3962
(dp3963
g66
(dp3964
sg75
g3958
sg68
(lp3965
g61
(g82
g63
NtRp3966
(dp3967
g66
(dp3968
g86
g87
ssg75
g3962
sg68
(lp3969
S'Cache-Control'
p3970
asbag61
(g82
g63
NtRp3971
(dp3972
g66
(dp3973
g93
g94
ssg75
g3962
sg68
(lp3974
S':'
asbag61
(g82
g63
NtRp3975
(dp3976
g66
(dp3977
sg75
g3962
sg68
(lp3978
g61
(g62
g63
NtRp3979
(dp3980
g66
(dp3981
g74
I4
ssg75
g3975
sg68
(lp3982
S'no-store, no-cache, must-revalidate, post-check=0, pre-check=0'
p3983
asbasbasbag61
(g77
g63
NtRp3984
(dp3985
g66
(dp3986
sg75
g3958
sg68
(lp3987
g61
(g82
g63
NtRp3988
(dp3989
g66
(dp3990
g86
g87
ssg75
g3984
sg68
(lp3991
S'Content-Type'
p3992
asbag61
(g82
g63
NtRp3993
(dp3994
g66
(dp3995
g93
g94
ssg75
g3984
sg68
(lp3996
S':'
asbag61
(g82
g63
NtRp3997
(dp3998
g66
(dp3999
sg75
g3984
sg68
(lp4000
g61
(g62
g63
NtRp4001
(dp4002
g66
(dp4003
g74
I4
ssg75
g3997
sg68
(lp4004
S'text/html; charset=utf-8'
p4005
asbasbasbag61
(g77
g63
NtRp4006
(dp4007
g66
(dp4008
sg75
g3958
sg68
(lp4009
g61
(g82
g63
NtRp4010
(dp4011
g66
(dp4012
g86
g87
ssg75
g4006
sg68
(lp4013
S'Expires'
p4014
asbag61
(g82
g63
NtRp4015
(dp4016
g66
(dp4017
g93
g94
ssg75
g4006
sg68
(lp4018
S':'
asbag61
(g82
g63
NtRp4019
(dp4020
g66
(dp4021
sg75
g4006
sg68
(lp4022
g61
(g62
g63
NtRp4023
(dp4024
g66
(dp4025
g74
I4
ssg75
g4019
sg68
(lp4026
S'Sun, 18 Mar 2012 23:35:42 GMT'
p4027
asbasbasbag61
(g77
g63
NtRp4028
(dp4029
g66
(dp4030
sg75
g3958
sg68
(lp4031
g61
(g82
g63
NtRp4032
(dp4033
g66
(dp4034
g86
g87
ssg75
g4028
sg68
(lp4035
S'Pragma'
p4036
asbag61
(g82
g63
NtRp4037
(dp4038
g66
(dp4039
g93
g94
ssg75
g4028
sg68
(lp4040
S':'
asbag61
(g82
g63
NtRp4041
(dp4042
g66
(dp4043
sg75
g4028
sg68
(lp4044
g61
(g62
g63
NtRp4045
(dp4046
g66
(dp4047
g74
I4
ssg75
g4041
sg68
(lp4048
S'no-cache'
p4049
asbasbasbag61
(g77
g63
NtRp4050
(dp4051
g66
(dp4052
sg75
g3958
sg68
(lp4053
g61
(g82
g63
NtRp4054
(dp4055
g66
(dp4056
g86
g87
ssg75
g4050
sg68
(lp4057
S'X-Powered-By'
p4058
asbag61
(g82
g63
NtRp4059
(dp4060
g66
(dp4061
g93
g94
ssg75
g4050
sg68
(lp4062
S':'
asbag61
(g82
g63
NtRp4063
(dp4064
g66
(dp4065
sg75
g4050
sg68
(lp4066
g61
(g62
g63
NtRp4067
(dp4068
g66
(dp4069
g74
I4
ssg75
g4063
sg68
(lp4070
S'web2py'
p4071
asbasbasbasbasbasbasbag61
(g77
g63
NtRp4072
(dp4073
g66
(dp4074
sg75
g3589
sg68
(lp4075
g61
(g82
g63
NtRp4076
(dp4077
g66
(dp4078
g86
g87
ssg75
g4072
sg68
(lp4079
S'menu'
p4080
asbag61
(g82
g63
NtRp4081
(dp4082
g66
(dp4083
g93
g94
ssg75
g4072
sg68
(lp4084
S':'
asbag61
(g82
g63
NtRp4085
(dp4086
g66
(dp4087
sg75
g4072
sg68
(lp4088
g61
(g62
g63
NtRp4089
(dp4090
g66
(dp4091
g74
I5
ssg75
g4085
sg68
(lp4092
g61
(g70
g63
NtRp4093
(dp4094
g66
(dp4095
g74
I4
ssg75
Nsg68
(lp4096
g61
(g77
g63
NtRp4097
(dp4098
g66
(dp4099
sg75
g4093
sg68
(lp4100
g61
(g82
g63
NtRp4101
(dp4102
g66
(dp4103
sg75
g4097
sg68
(lp4104
g61
(g62
g63
NtRp4105
(dp4106
g66
(dp4107
g74
I4
ssg75
g4101
sg68
(lp4108
g61
(g70
g63
NtRp4109
(dp4110
g66
(dp4111
g74
I3
ssg75
Nsg68
(lp4112
g61
(g77
g63
NtRp4113
(dp4114
g66
(dp4115
sg75
g4109
sg68
(lp4116
g61
(g82
g63
NtRp4117
(dp4118
g66
(dp4119
sg75
g4113
sg68
(lp4120
g61
(g62
g63
NtRp4121
(dp4122
g66
(dp4123
g74
I3
ssg75
g4117
sg68
(lp4124
cgluon.languages
lazyT_unpickle
p4125
(S't\x04\x00\x00\x00Home'
tRp4126
asbasbasbag61
(g77
g63
NtRp4127
(dp4128
g66
(dp4129
sg75
g4109
sg68
(lp4130
g61
(g82
g63
NtRp4131
(dp4132
g66
(dp4133
sg75
g4127
sg68
(lp4134
g61
(g62
g63
NtRp4135
(dp4136
g66
(dp4137
g74
I3
ssg75
g4131
sg68
(lp4138
g104
asbasbasbag61
(g77
g63
NtRp4139
(dp4140
g66
(dp4141
sg75
g4109
sg68
(lp4142
g61
(g82
g63
NtRp4143
(dp4144
g66
(dp4145
sg75
g4139
sg68
(lp4146
g61
(g62
g63
NtRp4147
(dp4148
g66
(dp4149
g74
I3
ssg75
g4143
sg68
(lp4150
S'/webparley/default/index'
p4151
asbasbasbag61
(g77
g63
NtRp4152
(dp4153
g66
(dp4154
sg75
g4109
sg68
(lp4155
g61
(g82
g63
NtRp4156
(dp4157
g66
(dp4158
sg75
g4152
sg68
(lp4159
g61
(g62
g63
NtRp4160
(dp4161
g66
(dp4162
g74
I3
ssg75
g4156
sg68
(lp4163
g61
(g70
g63
NtRp4164
(dp4165
g66
(dp4166
g74
I2
ssg75
Nsg68
(lp4167
sbasbasbasbasbasbasbasbasbasbasbasbag61
(g77
g63
NtRp4168
(dp4169
g66
(dp4170
sg75
g3589
sg68
(lp4171
g61
(g82
g63
NtRp4172
(dp4173
g66
(dp4174
g86
g87
ssg75
g4168
sg68
(lp4175
S'meta'
p4176
asbag61
(g82
g63
NtRp4177
(dp4178
g66
(dp4179
g93
g94
ssg75
g4168
sg68
(lp4180
S':'
asbag61
(g82
g63
NtRp4181
(dp4182
g66
(dp4183
sg75
g4168
sg68
(lp4184
g61
(g62
g63
NtRp4185
(dp4186
g66
(dp4187
g74
I5
ssg75
g4181
sg68
(lp4188
g61
(g70
g63
NtRp4189
(dp4190
g66
(dp4191
g74
I4
ssg75
Nsg68
(lp4192
g61
(g77
g63
NtRp4193
(dp4194
g66
(dp4195
sg75
g4189
sg68
(lp4196
g61
(g82
g63
NtRp4197
(dp4198
g66
(dp4199
g86
g87
ssg75
g4193
sg68
(lp4200
S'author'
p4201
asbag61
(g82
g63
NtRp4202
(dp4203
g66
(dp4204
g93
g94
ssg75
g4193
sg68
(lp4205
S':'
asbag61
(g82
g63
NtRp4206
(dp4207
g66
(dp4208
sg75
g4193
sg68
(lp4209
g61
(g62
g63
NtRp4210
(dp4211
g66
(dp4212
g74
I4
ssg75
g4206
sg68
(lp4213
S'Your Name <you@example.com>'
p4214
asbasbasbag61
(g77
g63
NtRp4215
(dp4216
g66
(dp4217
sg75
g4189
sg68
(lp4218
g61
(g82
g63
NtRp4219
(dp4220
g66
(dp4221
g86
g87
ssg75
g4215
sg68
(lp4222
S'copyright'
p4223
asbag61
(g82
g63
NtRp4224
(dp4225
g66
(dp4226
g93
g94
ssg75
g4215
sg68
(lp4227
S':'
asbag61
(g82
g63
NtRp4228
(dp4229
g66
(dp4230
sg75
g4215
sg68
(lp4231
g61
(g62
g63
NtRp4232
(dp4233
g66
(dp4234
g74
I4
ssg75
g4228
sg68
(lp4235
S'Copyright 2011'
p4236
asbasbasbag61
(g77
g63
NtRp4237
(dp4238
g66
(dp4239
sg75
g4189
sg68
(lp4240
g61
(g82
g63
NtRp4241
(dp4242
g66
(dp4243
g86
g87
ssg75
g4237
sg68
(lp4244
S'description'
p4245
asbag61
(g82
g63
NtRp4246
(dp4247
g66
(dp4248
g93
g94
ssg75
g4237
sg68
(lp4249
S':'
asbag61
(g82
g63
NtRp4250
(dp4251
g66
(dp4252
sg75
g4237
sg68
(lp4253
g61
(g62
g63
NtRp4254
(dp4255
g66
(dp4256
g74
I4
ssg75
g4250
sg68
(lp4257
S'a cool new app'
p4258
asbasbasbag61
(g77
g63
NtRp4259
(dp4260
g66
(dp4261
sg75
g4189
sg68
(lp4262
g61
(g82
g63
NtRp4263
(dp4264
g66
(dp4265
g86
g87
ssg75
g4259
sg68
(lp4266
S'generator'
p4267
asbag61
(g82
g63
NtRp4268
(dp4269
g66
(dp4270
g93
g94
ssg75
g4259
sg68
(lp4271
S':'
asbag61
(g82
g63
NtRp4272
(dp4273
g66
(dp4274
sg75
g4259
sg68
(lp4275
g61
(g62
g63
NtRp4276
(dp4277
g66
(dp4278
g74
I4
ssg75
g4272
sg68
(lp4279
S'Web2py Web Framework'
p4280
asbasbasbag61
(g77
g63
NtRp4281
(dp4282
g66
(dp4283
sg75
g4189
sg68
(lp4284
g61
(g82
g63
NtRp4285
(dp4286
g66
(dp4287
g86
g87
ssg75
g4281
sg68
(lp4288
S'keywords'
p4289
asbag61
(g82
g63
NtRp4290
(dp4291
g66
(dp4292
g93
g94
ssg75
g4281
sg68
(lp4293
S':'
asbag61
(g82
g63
NtRp4294
(dp4295
g66
(dp4296
sg75
g4281
sg68
(lp4297
g61
(g62
g63
NtRp4298
(dp4299
g66
(dp4300
g74
I4
ssg75
g4294
sg68
(lp4301
S'web2py, python, framework'
p4302
asbasbasbasbasbasbasbag61
(g77
g63
NtRp4303
(dp4304
g66
(dp4305
sg75
g3589
sg68
(lp4306
g61
(g82
g63
NtRp4307
(dp4308
g66
(dp4309
g86
g87
ssg75
g4303
sg68
(lp4310
S'postprocessing'
p4311
asbag61
(g82
g63
NtRp4312
(dp4313
g66
(dp4314
g93
g94
ssg75
g4303
sg68
(lp4315
S':'
asbag61
(g82
g63
NtRp4316
(dp4317
g66
(dp4318
sg75
g4303
sg68
(lp4319
g61
(g62
g63
NtRp4320
(dp4321
g66
(dp4322
g74
I5
ssg75
g4316
sg68
(lp4323
g61
(g70
g63
NtRp4324
(dp4325
g66
(dp4326
g74
I4
ssg75
Nsg68
(lp4327
sbasbasbasbag61
(g77
g63
NtRp4328
(dp4329
g66
(dp4330
sg75
g3589
sg68
(lp4331
g61
(g82
g63
NtRp4332
(dp4333
g66
(dp4334
g86
g87
ssg75
g4328
sg68
(lp4335
S'session_file'
p4336
asbag61
(g82
g63
NtRp4337
(dp4338
g66
(dp4339
g93
g94
ssg75
g4328
sg68
(lp4340
S':'
asbag61
(g82
g63
NtRp4341
(dp4342
g66
(dp4343
sg75
g4328
sg68
(lp4344
g61
(g62
g63
NtRp4345
(dp4346
g66
(dp4347
g74
I5
ssg75
g4341
sg68
(lp4348
S"<open file 'D:\\Dise\xf1o Web\\Proyectos\\Parleyweb\\web2py\\applications\\webparley\\sessions\\127.0.0.1-a9f7f88d-d8a4-49c6-b6ff-46adf43325c3', mode 'rb+' at 0x067A8DA0>"
p4349
asbasbasbag61
(g77
g63
NtRp4350
(dp4351
g66
(dp4352
sg75
g3589
sg68
(lp4353
g61
(g82
g63
NtRp4354
(dp4355
g66
(dp4356
g86
g87
ssg75
g4350
sg68
(lp4357
S'session_filename'
p4358
asbag61
(g82
g63
NtRp4359
(dp4360
g66
(dp4361
g93
g94
ssg75
g4350
sg68
(lp4362
S':'
asbag61
(g82
g63
NtRp4363
(dp4364
g66
(dp4365
sg75
g4350
sg68
(lp4366
g61
(g62
g63
NtRp4367
(dp4368
g66
(dp4369
g74
I5
ssg75
g4363
sg68
(lp4370
S'D:\\Dise\xf1o Web\\Proyectos\\Parleyweb\\web2py\\applications\\webparley\\sessions\\127.0.0.1-a9f7f88d-d8a4-49c6-b6ff-46adf43325c3'
p4371
asbasbasbag61
(g77
g63
NtRp4372
(dp4373
g66
(dp4374
sg75
g3589
sg68
(lp4375
g61
(g82
g63
NtRp4376
(dp4377
g66
(dp4378
g86
g87
ssg75
g4372
sg68
(lp4379
S'session_id'
p4380
asbag61
(g82
g63
NtRp4381
(dp4382
g66
(dp4383
g93
g94
ssg75
g4372
sg68
(lp4384
S':'
asbag61
(g82
g63
NtRp4385
(dp4386
g66
(dp4387
sg75
g4372
sg68
(lp4388
g61
(g62
g63
NtRp4389
(dp4390
g66
(dp4391
g74
I5
ssg75
g4385
sg68
(lp4392
S'127.0.0.1-a9f7f88d-d8a4-49c6-b6ff-46adf43325c3'
p4393
asbasbasbag61
(g77
g63
NtRp4394
(dp4395
g66
(dp4396
sg75
g3589
sg68
(lp4397
g61
(g82
g63
NtRp4398
(dp4399
g66
(dp4400
g86
g87
ssg75
g4394
sg68
(lp4401
S'session_id_name'
p4402
asbag61
(g82
g63
NtRp4403
(dp4404
g66
(dp4405
g93
g94
ssg75
g4394
sg68
(lp4406
S':'
asbag61
(g82
g63
NtRp4407
(dp4408
g66
(dp4409
sg75
g4394
sg68
(lp4410
g61
(g62
g63
NtRp4411
(dp4412
g66
(dp4413
g74
I5
ssg75
g4407
sg68
(lp4414
g3646
asbasbasbag61
(g77
g63
NtRp4415
(dp4416
g66
(dp4417
sg75
g3589
sg68
(lp4418
g61
(g82
g63
NtRp4419
(dp4420
g66
(dp4421
g86
g87
ssg75
g4415
sg68
(lp4422
S'session_locked'
p4423
asbag61
(g82
g63
NtRp4424
(dp4425
g66
(dp4426
g93
g94
ssg75
g4415
sg68
(lp4427
S':'
asbag61
(g82
g63
NtRp4428
(dp4429
g66
(dp4430
sg75
g4415
sg68
(lp4431
g61
(g62
g63
NtRp4432
(dp4433
g66
(dp4434
g74
I5
ssg75
g4428
sg68
(lp4435
g1565
asbasbasbag61
(g77
g63
NtRp4436
(dp4437
g66
(dp4438
sg75
g3589
sg68
(lp4439
g61
(g82
g63
NtRp4440
(dp4441
g66
(dp4442
g86
g87
ssg75
g4436
sg68
(lp4443
S'session_new'
p4444
asbag61
(g82
g63
NtRp4445
(dp4446
g66
(dp4447
g93
g94
ssg75
g4436
sg68
(lp4448
S':'
asbag61
(g82
g63
NtRp4449
(dp4450
g66
(dp4451
sg75
g4436
sg68
(lp4452
g61
(g62
g63
NtRp4453
(dp4454
g66
(dp4455
g74
I5
ssg75
g4449
sg68
(lp4456
g104
asbasbasbag61
(g77
g63
NtRp4457
(dp4458
g66
(dp4459
sg75
g3589
sg68
(lp4460
g61
(g82
g63
NtRp4461
(dp4462
g66
(dp4463
g86
g87
ssg75
g4457
sg68
(lp4464
S'status'
p4465
asbag61
(g82
g63
NtRp4466
(dp4467
g66
(dp4468
g93
g94
ssg75
g4457
sg68
(lp4469
S':'
asbag61
(g82
g63
NtRp4470
(dp4471
g66
(dp4472
sg75
g4457
sg68
(lp4473
g61
(g62
g63
NtRp4474
(dp4475
g66
(dp4476
g74
I5
ssg75
g4470
sg68
(lp4477
S'200'
p4478
asbasbasbag61
(g77
g63
NtRp4479
(dp4480
g66
(dp4481
sg75
g3589
sg68
(lp4482
g61
(g82
g63
NtRp4483
(dp4484
g66
(dp4485
g86
g87
ssg75
g4479
sg68
(lp4486
S'subtitle'
p4487
asbag61
(g82
g63
NtRp4488
(dp4489
g66
(dp4490
g93
g94
ssg75
g4479
sg68
(lp4491
S':'
asbag61
(g82
g63
NtRp4492
(dp4493
g66
(dp4494
sg75
g4479
sg68
(lp4495
g61
(g62
g63
NtRp4496
(dp4497
g66
(dp4498
g74
I5
ssg75
g4492
sg68
(lp4499
g4125
(S's\t\x00\x00\x00Adaptame!'
tRp4500
asbasbasbag61
(g77
g63
NtRp4501
(dp4502
g66
(dp4503
sg75
g3589
sg68
(lp4504
g61
(g82
g63
NtRp4505
(dp4506
g66
(dp4507
g86
g87
ssg75
g4501
sg68
(lp4508
S'title'
p4509
asbag61
(g82
g63
NtRp4510
(dp4511
g66
(dp4512
g93
g94
ssg75
g4501
sg68
(lp4513
S':'
asbag61
(g82
g63
NtRp4514
(dp4515
g66
(dp4516
sg75
g4501
sg68
(lp4517
g61
(g62
g63
NtRp4518
(dp4519
g66
(dp4520
g74
I5
ssg75
g4514
sg68
(lp4521
S'Webparley'
p4522
asbasbasbag61
(g77
g63
NtRp4523
(dp4524
g66
(dp4525
sg75
g3589
sg68
(lp4526
g61
(g82
g63
NtRp4527
(dp4528
g66
(dp4529
g86
g87
ssg75
g4523
sg68
(lp4530
g2503
asbag61
(g82
g63
NtRp4531
(dp4532
g66
(dp4533
g93
g94
ssg75
g4523
sg68
(lp4534
S':'
asbag61
(g82
g63
NtRp4535
(dp4536
g66
(dp4537
sg75
g4523
sg68
(lp4538
g61
(g62
g63
NtRp4539
(dp4540
g66
(dp4541
g74
I5
ssg75
g4535
sg68
(lp4542
g2516
asbasbasbag61
(g77
g63
NtRp4543
(dp4544
g66
(dp4545
sg75
g3589
sg68
(lp4546
g61
(g82
g63
NtRp4547
(dp4548
g66
(dp4549
g86
g87
ssg75
g4543
sg68
(lp4550
S'view'
p4551
asbag61
(g82
g63
NtRp4552
(dp4553
g66
(dp4554
g93
g94
ssg75
g4543
sg68
(lp4555
S':'
asbag61
(g82
g63
NtRp4556
(dp4557
g66
(dp4558
sg75
g4543
sg68
(lp4559
g61
(g62
g63
NtRp4560
(dp4561
g66
(dp4562
g74
I5
ssg75
g4556
sg68
(lp4563
S'admin/agregar_palabra.html'
p4564
asbasbasbasbasbsS'locals'
p4565
(dp4566
g4
S"'D:\\\\Dise\\xf1o Web\\\\Proyectos\\\\Parleyweb\\\\web2py\\\\applications\\\\webparley\\\\controllers/admin.py'"
p4567
sg6
S"'# coding: utf8\\n# intente algo como\\ndef index():\\n...response._vars=response._caller(agregar_palabra)\\n'"
p4568
sssS'traceback'
p4569
S'Traceback (most recent call last):\n  File "gluon/restricted.py", line 204, in restricted\n  File "gluon/restricted.py", line 189, in compile2\n  File "D:\\Dise\xf1o Web\\Proyectos\\Parleyweb\\web2py\\applications\\webparley\\controllers/admin.py", line 36\n    redirect(URL(\'buscar_ejemplos\', vars=a=request.post_vars.palabra))\n                                          ^\nSyntaxError: invalid syntax\n'
p4570
s.