(dp1
S'output'
p2
S"<type 'exceptions.KeyError'> 'descripcion_glosario'"
p3
sS'layer'
p4
S'D:\\Dise\xf1o Web\\Proyectos\\Parleyweb\\web2py\\applications\\webparley\\controllers/admin.py'
p5
sS'code'
p6
S'# coding: utf8\n# intente algo como\ndef index():\n    """\n    Pagina principal de la administracion\n    form = SQLFORM(db.busqueda, formstyle=\'divs\', _id="buscar_palabra_admin", submit_button=\'Enviar\')\n    if form.accepts(request.vars, session, dbio=False): # metodo para validar las entradas del formulario, dbio=False no guarda en la bases de datos\n        a = db(db.palabras.palabra==request.post_vars.buscar_palabra).select()\n        if not a:\n            session.flash = \'Ingresa nueva palabra\'\n            redirect(URL(\'agregar_palabra\', args=request.post_vars.buscar_palabra))\n            \n        else:\n            id_palabra = db(db.palabras.palabra==request.post_vars.buscar_palabra).select().first()\n            redirect(URL(\'mostrar_palabra\', args=id_palabra.id))\n    """\n    \n           \n           \n    ejemplos = db((db.palabras.id==db.palabra_ejemplo.palabra)&(db.ejemplos.id==db.palabra_ejemplo.ejemplo)) # asi se igualan las tablas para las relaciones muchos a muchos\n    return dict(ejemplos=ejemplos) # llama a la vista con el nombre de la funcion las variables\n        \ndef agregar_palabra():\n    """\n    Se agregan  palabras y se muestran los ultimos 10 registros insertados con los cuales\n    se pueden hacer distintas operaciones\n    """\n    if request.vars.a==\'\':\n        session.flash = \'Intenta ingresar una nueva palabra en la busqueda\'\n        redirect(URL(\'index\'))\n    else: \n        db.palabras.palabra.default = request.vars.a\n    db.palabras.palabra.requires = IS_NOT_IN_DB(db,\'palabras.palabra\') # Validacion para  la palabra que se inserte no puede estar ya en la DB\n    agregar = SQLFORM(db.palabras, formstyle="divs", _id="form-agregar", submit_button="Enviar" , _autocomplete="off") # se genera el formulario para la tabla palabras\n    if agregar.accepts(request.vars, session): #metodo para validar las entradas del formulario\n       redirect(URL(\'buscar_ejemplos\', vars=dict(a=request.post_vars.palabra)))\n       #response.flash = \'Registro insertado\' # mensajes del sistema\n    elif agregar.errors:  # Metodo usado para cuando se producen errores\n       response.flash = \'Hay un error\'\n    contador_ejemplo = db().select(db.palabra_ejemplo.ALL) # selecionar todos los registro de la tabla palabra_ejemplo para luego contarlos\n    consulta = db().select(db.palabras.ALL, orderby=~db.palabras.id , limitby=(0,15)) # muestra los 10 ultimos registros insertados\n    contador = db(db.palabras.id > 0).count() # cuenta cuantos registros hay en la DB\n    return dict(agregar=agregar, consulta=consulta, contador=contador, contador_ejemplo=contador_ejemplo)\n    \ndef buscar_ejemplos():\n    return dict()\n    \ndef buscar_ejemplos2():\n    id = db(db.palabras.palabra==request.vars.b).select().first()\n    buscar = db(db.ejemplos.ejemplo_de.contains(request.vars.b)).select()\n    return dict(buscar=buscar, id=id)\n\n\ndef agregar_ejemplo():\n    """\n    Se agregan los ejemplos y se muestran los ultimos 10 registros insertados con los cuales\n    se pueden hacer distintas operaciones\n    """\n    agregar_ejemplo = SQLFORM(db.ejemplos, formstyle="divs", _id="form-ejemplo", labels={\'ejemplo_de\':\'\', \'ejemplo_es\':\'\'} )\n    if agregar_ejemplo.accepts(request.vars, session):\n        response.flash = \'Ejemplo agregado\'\n        redirect(URL(\'agregar_ejemplo\'))\n    elif agregar_ejemplo.errors:\n        response.flash="Hay algun error"\n    nombre_fuente = db().select(db.fuentes.ALL)\n    contador_palabra = db().select(db.palabra_ejemplo.ALL) # selecionar todos los registro de la tabla palabra_ejemplo para luego contarlos\n    consulta_ejemplos = db().select(db.ejemplos.ALL, orderby=~db.ejemplos.id, limitby=(0,9)) # muestra los 10 ultimos registros insertados\n    contador2 = db(db.ejemplos.id > 0).count() # cuenta cuantos registros hay en la DB\n    ejemplos = db((db.palabras.id==db.palabra_ejemplo.palabra)&(db.ejemplos.id==db.palabra_ejemplo.ejemplo))\n    #palabras = db(db.palabra_ejemplo.palabra==db.palabras.id)\n    return dict(ejemplos=ejemplos, consulta_ejemplos=consulta_ejemplos, agregar_ejemplo=agregar_ejemplo, contador2=contador2, contador_palabra=contador_palabra, nombre_fuente=nombre_fuente)\n    \ndef agregar_fuente():\n    agregar_fuente = SQLFORM(db.fuentes, formstyle="divs", _id="form-fuentes" )\n    if agregar_fuente.accepts(request.vars, session):\n       response.flash = \'Fuente insertado\'\n    elif agregar_fuente.errors:\n       response.flash = \'Hay un error\'\n    consulta = db().select(db.fuentes.ALL, orderby=~db.fuentes.id , limitby=(0,9)) # muestra los 10 ultimos registros insertados\n    contador = db(db.fuentes.id > 0).count() # cuenta cuantos registros hay en la DB\n    return dict(agregar_fuente=agregar_fuente, consulta=consulta, contador=contador)\n    \ndef agregar_glosario():\n    agregar_glosario = SQLFORM(db.glosarios, formstyle="divs", _id="form-glsoario" )\n    if agregar_glosario.accepts(request.vars, session):\n       response.flash = \'Fuente insertado\'\n    elif agregar_glosario.errors:\n       response.flash = \'Hay un error\'\n    consulta = db().select(db.glosarios.ALL, orderby=~db.glosarios.id , limitby=(0,9)) # muestra los 10 ultimos registros insertados\n    contador = db(db.glosarios.id > 0).count() # cuenta cuantos registros hay en la DB\n    return dict(agregar_glosario=agregar_glosario, consulta=consulta, contador=contador)\n    \ndef agregar_palabra_grid():\n    """\n    El grid propocionado por web2py, utilizado para administracion\n    """\n    agregar = SQLFORM.grid(db.worte, _class="table margin-top table-striped")\n    return dict(agregar=agregar)\n\ndef borrar_palabra():# \n    """\n    simplemente carga la vista para ejecutar el Modal\n    """\n    return dict()\n\ndef borrar_palabra2():\n    """\n    Es la accion que borra la palabra y redirecciona al index de admin\n    """\n    db(db.palabras.id == request.raw_args).delete() # borra la palabra de la DB\n    session.flash=\'Registro borrado\' # se usa cuando se redirecciona a otra, y se quiere mostrar el mensaje del sistema\n    redirect(URL(\'agregar_palabra\'))\n \ndef borrar_ejemplo(): \n    """\n    simplemente carga la vista para ejecutar el Modal\n    """\n    return dict()\n\ndef borrar_ejemplo2():\n    """\n    realiza la accion de borrar y redirecciona\n    """\n    db(db.ejemplos.id == request.raw_args).delete() # borra la palabra de la DB\n    session.flash=\'Ejemplo borrado\'\n    redirect(URL(\'agregar_ejemplo\'))\n    \ndef borrar_fuente():# \n    """\n    simplemente carga la vista para ejecutar el Modal\n    """\n    return dict()\n    \ndef borrar_fuente2():\n    """\n    realiza la accion de borrar y redirecciona\n    """\n    db(db.fuentes.id == request.args(0)).delete() # borra la palabra de la DB\n    session.flash=\'Fuente borrada\'\n    redirect(URL(\'agregar_fuente\'))\n\ndef editar_palabra():\n    """\n    Se carga el formulario para editar el registro\n    """\n    record = db.palabras(request.raw_args) # Seleciona el registro de la DB con el primer argumentro pasado\n    form = SQLFORM(db.palabras, record, formstyle=\'divs\', _class=\'form-inline wellparley\', _id=\'form-editar\') # formulario para actualizar hay que pasarle el registro que se quiere actualizar\n    if form.accepts(request.vars, session):\n       session.flash=\'Palabra editada\' \n       redirect(URL(\'agregar_palabra\'))\n    elif form.errors:\n     response.flash = \'El formulario tiene errores\'\n    return dict(form=form)\n    \n\n    \ndef editar_ejemplo():\n    """\n    carga el formulario para la edicion de el ejemplo, valida y redirecciona\n    """\n    record = db.ejemplos(request.raw_args) # Seleciona el registro de la DB con el primer argumentro pasado\n    form = SQLFORM(db.ejemplos, record, formstyle=\'divs\', _class=\'form-inline wellparley\', _id=\'form-editar-ejemplo\')\n    if form.accepts(request.vars):\n       session.flash=\'Ejemplo editado\' \n       redirect(URL(\'agregar_ejemplo\'))\n    elif form.errors:\n       response.flash = \'El formulario tiene errores\'\n    return dict(form=form)\n    \ndef editar_fuente():\n    """\n    carga el formulario para la edicion de el ejemplo, valida y redirecciona\n    """\n    record = db.fuentes(request.args(0)) # Seleciona el registro de la DB con el primer argumentro pasado\n    form = SQLFORM(db.fuentes, record, formstyle=\'divs\', _class=\'form-inline wellparley\', _id=\'form-editar-fuente\')\n    if form.accepts(request.vars):\n       session.flash=\'Fuente editada\' \n       redirect(URL(\'agregar_fuente\'))\n    elif form.errors:\n       response.flash = \'form has errors\'\n    return dict(form=form)\n    \ndef relacionar_ejemplo():\n    """\n    Recibe el id de la palabra para guardarlo en\n    DB junto al ejemplo a relacionar, quiere decir que tengo que cargar el un formulario\n    con los campos de la tabla ejemplo, meter las id en variables y luego guardarlas en las tablas\n    correspondiente\n    """\n    id_palabra = request.raw_args # Mete en una variable el valor de request.args(0), no es necesario\n    palabra = db(db.palabras.id==id_palabra).select().first() # selecciona el primer registro que se igual al id de la palabra\n    form = SQLFORM(db.ejemplos, labels={\'ejemplo_de\':\'\', \'ejemplo_es\':\'\'}) # para ingresar en la db debe tener el metodo form.accepts\n    if form.accepts(request.vars, session):\n        id_ejemplo = db(db.ejemplos.ejemplo_de==request.vars.ejemplo_de).select().first() # mete la consulta en una variable\n        db.palabra_ejemplo.insert(palabra=id_palabra, ejemplo=id_ejemplo.id) # inserta en la DB los id de los registro selecionados, estos es para las relaciones muchos a muschos\n        session.flash = \'Ejemplo Relacionado\'\n        redirect(URL(\'agregar_palabra\'))\n    elif form.errors:\n        response.flash = \'Mira otra vez\'\n    return dict(palabra=palabra, form=form,)\n    \ndef relacionar_palabra(): #Redisenar \n    """\n    Recibe el id de el ejemplo para guardarlo en\n    DB junto a la palabra a relacionar, quiere decir que tengo que cargar el un formulario\n    con los campos de la tabla palabra, meter las id en variables y luego guardarlas en las tablas\n    correspondiente *********importante cuando se relacione la palabra hay que traer todos los campos de ingresar palabra cuando la palabra no se encuentra en DB\n    *********** redisenar no sirve este codigo\n    """\n    id_ejemplo = request.args(0)\n    #form=FORM(\'Palabra:\',\n              #INPUT(_name=\'palabra\', requires=IS_NOT_EMPTY()),\n              #INPUT(_type=\'submit\'))\n    ejemplo = db(db.ejemplos.id==id_ejemplo).select().first()\n    form = SQLFORM(db.autocompletar_palabra, _autocomplete="off")\n    if form.accepts(request.vars, session, dbio=False):\n        consulta = db(db.palabras.palabra==request.vars.palabra).select().first() # se busca si la palabra ya esta en la DB\n        #igualar = db((db.palabras.id==db.palabra_ejemplo.palabra)&(db.ejemplos.id==db.palabra_ejemplo.ejemplo))\n        #selecionar = igualar(db.palabras.palabra==request.vars.palabra).select(db.palabra_ejemplo.ALL)\n        #consulta = selecionar\n        if consulta: # si la palabra esta ya en la db, solo hay que ingresar ambos id de la palabra y el ejemplo en la tabla palabra_ejemplo\n            consulta_id_palabra = db((db.palabra_ejemplo.palabra==consulta.id)&(db.palabra_ejemplo.ejemplo==request.args(0))).select().first() # consulta si el id de la palabra ya se encuentra en la db\n            if consulta_id_palabra:\n                session.flash="Palabra ya relacionada con el ejemplo"\n                redirect(URL(\'admin\', \'agregar_ejemplo\'))\n            else:\n                db.palabra_ejemplo.insert(palabra=consulta.id, ejemplo=request.args(0))\n                session.flash = \'Palabra relacionada\'\n                redirect(URL(\'admin\', \'agregar_ejemplo\'))\n        else:\n            db.palabras.insert(palabra=request.vars.palabra)\n            ultimo_registro = db(db.palabras.id > 0).select().last()\n            db.palabra_ejemplo.insert(palabra=ultimo_registro.id, ejemplo=request.args(0))\n            session.flash = \'Palabra relacionada y agregada\'\n            redirect(URL(\'admin\', \'agregar_ejemplo\'))\n            \n    elif form.errors:\n        response.flash = \'Mira otra vez\'\n    return dict(ejemplo=ejemplo, form=form)    \n    \ndef relacionar():\n    a = request.post_vars.relacionar \n    for i in a:\n        db.palabra_ejemplo.insert(palabra=int(request.post_vars.id_palabra), ejemplo=i)\n    db((db.palabra_ejemplo.ejemplo==0) | (db.palabra_ejemplo.palabra==None)).delete()\n    session.flash = \'Ejemplos relacionados\'\n    redirect(URL(\'index\'))\n    \ndef mostrar_palabra():\n    record = db.palabras(request.raw_args) # Seleciona el registro de la DB con el primer argumentro pasado\n    form = SQLFORM(db.palabras, record, formstyle=\'divs\', _class=\'form-inline wellparley\', _id=\'form-editar\') # formulario para actualizar hay que pasarle el registro que se quiere actualizar\n    if form.accepts(request.vars, session):\n       response.flash=\'Palabra editada\' \n       #redirect(URL(\'agregar_palabra\'))\n    elif form.errors:\n        response.flash = \'El formulario tiene errores\'\n    igualar = db((db.palabras.id==db.palabra_ejemplo.palabra)&(db.ejemplos.id==db.palabra_ejemplo.ejemplo))\n    palabra = igualar(db.palabras.id==request.raw_args).select(db.ejemplos.ALL)\n    return dict(palabra=palabra, form=form, record=record)\n    \n   \n    \n    \n    \n    \n    \n    \n    \n    \n    \n    \n    \n    \n    \n    \n    \n\nresponse._vars=response._caller(agregar_palabra)\n'
p7
sS'snapshot'
p8
(dp9
S'exception'
p10
(dp11
S'__hash__'
p12
S"<method-wrapper '__hash__' of exceptions.KeyError object at 0x05CC7D78>"
p13
sS'__setattr__'
p14
S"<method-wrapper '__setattr__' of exceptions.KeyError object at 0x05CC7D78>"
p15
sS'__reduce_ex__'
p16
S'<built-in method __reduce_ex__ of exceptions.KeyError object at 0x05CC7D78>'
p17
sS'__getslice__'
p18
S"<method-wrapper '__getslice__' of exceptions.KeyError object at 0x05CC7D78>"
p19
sS'__getitem__'
p20
S"<method-wrapper '__getitem__' of exceptions.KeyError object at 0x05CC7D78>"
p21
sS'__setstate__'
p22
S'<built-in method __setstate__ of exceptions.KeyError object at 0x05CC7D78>'
p23
sS'__reduce__'
p24
S'<built-in method __reduce__ of exceptions.KeyError object at 0x05CC7D78>'
p25
sS'__str__'
p26
S"<method-wrapper '__str__' of exceptions.KeyError object at 0x05CC7D78>"
p27
sS'args'
p28
S"('descripcion_glosario',)"
p29
sS'__getattribute__'
p30
S"<method-wrapper '__getattribute__' of exceptions.KeyError object at 0x05CC7D78>"
p31
sS'__class__'
p32
S"<type 'exceptions.KeyError'>"
p33
sS'__delattr__'
p34
S"<method-wrapper '__delattr__' of exceptions.KeyError object at 0x05CC7D78>"
p35
sS'__repr__'
p36
S"<method-wrapper '__repr__' of exceptions.KeyError object at 0x05CC7D78>"
p37
sS'__dict__'
p38
S'{}'
p39
sS'__doc__'
p40
S"'Mapping key not found.'"
p41
sS'__init__'
p42
S"<method-wrapper '__init__' of exceptions.KeyError object at 0x05CC7D78>"
p43
sS'__new__'
p44
S'<built-in method __new__ of type object at 0x1E1CDFB8>'
p45
ssS'evalue'
p46
S"'descripcion_glosario'"
p47
sS'request'
p48
ccopy_reg
_reconstructor
p49
(cgluon.html
BEAUTIFY
p50
c__builtin__
object
p51
NtRp52
(dp53
S'attributes'
p54
(dp55
sS'components'
p56
(lp57
g49
(cgluon.html
TABLE
p58
g51
NtRp59
(dp60
g54
(dp61
S'level'
p62
I5
ssS'parent'
p63
Nsg56
(lp64
g49
(cgluon.html
TR
p65
g51
NtRp66
(dp67
g54
(dp68
sg63
g59
sg56
(lp69
g49
(cgluon.html
TD
p70
g51
NtRp71
(dp72
g54
(dp73
S'_style'
p74
S'font-weight:bold;vertical-align:top'
p75
ssg63
g66
sg56
(lp76
S'ajax'
p77
asbag49
(g70
g51
NtRp78
(dp79
g54
(dp80
S'_valign'
p81
S'top'
p82
ssg63
g66
sg56
(lp83
S':'
asbag49
(g70
g51
NtRp84
(dp85
g54
(dp86
sg63
g66
sg56
(lp87
g49
(g50
g51
NtRp88
(dp89
g54
(dp90
g62
I5
ssg63
g84
sg56
(lp91
S'False'
p92
asbasbasbag49
(g65
g51
NtRp93
(dp94
g54
(dp95
sg63
g59
sg56
(lp96
g49
(g70
g51
NtRp97
(dp98
g54
(dp99
g74
g75
ssg63
g93
sg56
(lp100
S'application'
p101
asbag49
(g70
g51
NtRp102
(dp103
g54
(dp104
g81
g82
ssg63
g93
sg56
(lp105
S':'
asbag49
(g70
g51
NtRp106
(dp107
g54
(dp108
sg63
g93
sg56
(lp109
g49
(g50
g51
NtRp110
(dp111
g54
(dp112
g62
I5
ssg63
g106
sg56
(lp113
S'webparley'
p114
asbasbasbag49
(g65
g51
NtRp115
(dp116
g54
(dp117
sg63
g59
sg56
(lp118
g49
(g70
g51
NtRp119
(dp120
g54
(dp121
g74
g75
ssg63
g115
sg56
(lp122
g28
asbag49
(g70
g51
NtRp123
(dp124
g54
(dp125
g81
g82
ssg63
g115
sg56
(lp126
S':'
asbag49
(g70
g51
NtRp127
(dp128
g54
(dp129
sg63
g115
sg56
(lp130
g49
(g50
g51
NtRp131
(dp132
g54
(dp133
g62
I5
ssg63
g127
sg56
(lp134
g49
(g58
g51
NtRp135
(dp136
g54
(dp137
g62
I4
ssg63
Nsg56
(lp138
sbasbasbasbag49
(g65
g51
NtRp139
(dp140
g54
(dp141
sg63
g59
sg56
(lp142
g49
(g70
g51
NtRp143
(dp144
g54
(dp145
g74
g75
ssg63
g139
sg56
(lp146
S'body'
p147
asbag49
(g70
g51
NtRp148
(dp149
g54
(dp150
g81
g82
ssg63
g139
sg56
(lp151
S':'
asbag49
(g70
g51
NtRp152
(dp153
g54
(dp154
sg63
g139
sg56
(lp155
g49
(g50
g51
NtRp156
(dp157
g54
(dp158
g62
I5
ssg63
g152
sg56
(lp159
S'<cStringIO.StringO object at 0x02F4FFC0>'
p160
asbasbasbag49
(g65
g51
NtRp161
(dp162
g54
(dp163
sg63
g59
sg56
(lp164
g49
(g70
g51
NtRp165
(dp166
g54
(dp167
g74
g75
ssg63
g161
sg56
(lp168
S'client'
p169
asbag49
(g70
g51
NtRp170
(dp171
g54
(dp172
g81
g82
ssg63
g161
sg56
(lp173
S':'
asbag49
(g70
g51
NtRp174
(dp175
g54
(dp176
sg63
g161
sg56
(lp177
g49
(g50
g51
NtRp178
(dp179
g54
(dp180
g62
I5
ssg63
g174
sg56
(lp181
S'127.0.0.1'
p182
asbasbasbag49
(g65
g51
NtRp183
(dp184
g54
(dp185
sg63
g59
sg56
(lp186
g49
(g70
g51
NtRp187
(dp188
g54
(dp189
g74
g75
ssg63
g183
sg56
(lp190
S'controller'
p191
asbag49
(g70
g51
NtRp192
(dp193
g54
(dp194
g81
g82
ssg63
g183
sg56
(lp195
S':'
asbag49
(g70
g51
NtRp196
(dp197
g54
(dp198
sg63
g183
sg56
(lp199
g49
(g50
g51
NtRp200
(dp201
g54
(dp202
g62
I5
ssg63
g196
sg56
(lp203
S'admin'
p204
asbasbasbag49
(g65
g51
NtRp205
(dp206
g54
(dp207
sg63
g59
sg56
(lp208
g49
(g70
g51
NtRp209
(dp210
g54
(dp211
g74
g75
ssg63
g205
sg56
(lp212
S'cookies'
p213
asbag49
(g70
g51
NtRp214
(dp215
g54
(dp216
g81
g82
ssg63
g205
sg56
(lp217
S':'
asbag49
(g70
g51
NtRp218
(dp219
g54
(dp220
sg63
g205
sg56
(lp221
g49
(g50
g51
NtRp222
(dp223
g54
(dp224
g62
I5
ssg63
g218
sg56
(lp225
g49
(g58
g51
NtRp226
(dp227
g54
(dp228
g62
I4
ssg63
Nsg56
(lp229
g49
(g65
g51
NtRp230
(dp231
g54
(dp232
sg63
g226
sg56
(lp233
g49
(g70
g51
NtRp234
(dp235
g54
(dp236
g74
g75
ssg63
g230
sg56
(lp237
S'session_id_admin'
p238
asbag49
(g70
g51
NtRp239
(dp240
g54
(dp241
g81
g82
ssg63
g230
sg56
(lp242
S':'
asbag49
(g70
g51
NtRp243
(dp244
g54
(dp245
sg63
g230
sg56
(lp246
g49
(g50
g51
NtRp247
(dp248
g54
(dp249
g62
I4
ssg63
g243
sg56
(lp250
g49
(g58
g51
NtRp251
(dp252
g54
(dp253
g62
I3
ssg63
Nsg56
(lp254
g49
(g65
g51
NtRp255
(dp256
g54
(dp257
sg63
g251
sg56
(lp258
g49
(g70
g51
NtRp259
(dp260
g54
(dp261
g74
g75
ssg63
g255
sg56
(lp262
S'comment'
p263
asbag49
(g70
g51
NtRp264
(dp265
g54
(dp266
g81
g82
ssg63
g255
sg56
(lp267
S':'
asbag49
(g70
g51
NtRp268
(dp269
g54
(dp270
sg63
g255
sg56
(lp271
g49
(g50
g51
NtRp272
(dp273
g54
(dp274
g62
I3
ssg63
g268
sg56
(lp275
S''
asbasbasbag49
(g65
g51
NtRp276
(dp277
g54
(dp278
sg63
g251
sg56
(lp279
g49
(g70
g51
NtRp280
(dp281
g54
(dp282
g74
g75
ssg63
g276
sg56
(lp283
S'domain'
p284
asbag49
(g70
g51
NtRp285
(dp286
g54
(dp287
g81
g82
ssg63
g276
sg56
(lp288
S':'
asbag49
(g70
g51
NtRp289
(dp290
g54
(dp291
sg63
g276
sg56
(lp292
g49
(g50
g51
NtRp293
(dp294
g54
(dp295
g62
I3
ssg63
g289
sg56
(lp296
S''
asbasbasbag49
(g65
g51
NtRp297
(dp298
g54
(dp299
sg63
g251
sg56
(lp300
g49
(g70
g51
NtRp301
(dp302
g54
(dp303
g74
g75
ssg63
g297
sg56
(lp304
S'expires'
p305
asbag49
(g70
g51
NtRp306
(dp307
g54
(dp308
g81
g82
ssg63
g297
sg56
(lp309
S':'
asbag49
(g70
g51
NtRp310
(dp311
g54
(dp312
sg63
g297
sg56
(lp313
g49
(g50
g51
NtRp314
(dp315
g54
(dp316
g62
I3
ssg63
g310
sg56
(lp317
S''
asbasbasbag49
(g65
g51
NtRp318
(dp319
g54
(dp320
sg63
g251
sg56
(lp321
g49
(g70
g51
NtRp322
(dp323
g54
(dp324
g74
g75
ssg63
g318
sg56
(lp325
S'max-age'
p326
asbag49
(g70
g51
NtRp327
(dp328
g54
(dp329
g81
g82
ssg63
g318
sg56
(lp330
S':'
asbag49
(g70
g51
NtRp331
(dp332
g54
(dp333
sg63
g318
sg56
(lp334
g49
(g50
g51
NtRp335
(dp336
g54
(dp337
g62
I3
ssg63
g331
sg56
(lp338
S''
asbasbasbag49
(g65
g51
NtRp339
(dp340
g54
(dp341
sg63
g251
sg56
(lp342
g49
(g70
g51
NtRp343
(dp344
g54
(dp345
g74
g75
ssg63
g339
sg56
(lp346
S'path'
p347
asbag49
(g70
g51
NtRp348
(dp349
g54
(dp350
g81
g82
ssg63
g339
sg56
(lp351
S':'
asbag49
(g70
g51
NtRp352
(dp353
g54
(dp354
sg63
g339
sg56
(lp355
g49
(g50
g51
NtRp356
(dp357
g54
(dp358
g62
I3
ssg63
g352
sg56
(lp359
S''
asbasbasbag49
(g65
g51
NtRp360
(dp361
g54
(dp362
sg63
g251
sg56
(lp363
g49
(g70
g51
NtRp364
(dp365
g54
(dp366
g74
g75
ssg63
g360
sg56
(lp367
S'secure'
p368
asbag49
(g70
g51
NtRp369
(dp370
g54
(dp371
g81
g82
ssg63
g360
sg56
(lp372
S':'
asbag49
(g70
g51
NtRp373
(dp374
g54
(dp375
sg63
g360
sg56
(lp376
g49
(g50
g51
NtRp377
(dp378
g54
(dp379
g62
I3
ssg63
g373
sg56
(lp380
S''
asbasbasbag49
(g65
g51
NtRp381
(dp382
g54
(dp383
sg63
g251
sg56
(lp384
g49
(g70
g51
NtRp385
(dp386
g54
(dp387
g74
g75
ssg63
g381
sg56
(lp388
S'version'
p389
asbag49
(g70
g51
NtRp390
(dp391
g54
(dp392
g81
g82
ssg63
g381
sg56
(lp393
S':'
asbag49
(g70
g51
NtRp394
(dp395
g54
(dp396
sg63
g381
sg56
(lp397
g49
(g50
g51
NtRp398
(dp399
g54
(dp400
g62
I3
ssg63
g394
sg56
(lp401
S''
asbasbasbasbasbasbasbag49
(g65
g51
NtRp402
(dp403
g54
(dp404
sg63
g226
sg56
(lp405
g49
(g70
g51
NtRp406
(dp407
g54
(dp408
g74
g75
ssg63
g402
sg56
(lp409
S'session_id_webparley'
p410
asbag49
(g70
g51
NtRp411
(dp412
g54
(dp413
g81
g82
ssg63
g402
sg56
(lp414
S':'
asbag49
(g70
g51
NtRp415
(dp416
g54
(dp417
sg63
g402
sg56
(lp418
g49
(g50
g51
NtRp419
(dp420
g54
(dp421
g62
I4
ssg63
g415
sg56
(lp422
g49
(g58
g51
NtRp423
(dp424
g54
(dp425
g62
I3
ssg63
Nsg56
(lp426
g49
(g65
g51
NtRp427
(dp428
g54
(dp429
sg63
g423
sg56
(lp430
g49
(g70
g51
NtRp431
(dp432
g54
(dp433
g74
g75
ssg63
g427
sg56
(lp434
g263
asbag49
(g70
g51
NtRp435
(dp436
g54
(dp437
g81
g82
ssg63
g427
sg56
(lp438
S':'
asbag49
(g70
g51
NtRp439
(dp440
g54
(dp441
sg63
g427
sg56
(lp442
g49
(g50
g51
NtRp443
(dp444
g54
(dp445
g62
I3
ssg63
g439
sg56
(lp446
S''
asbasbasbag49
(g65
g51
NtRp447
(dp448
g54
(dp449
sg63
g423
sg56
(lp450
g49
(g70
g51
NtRp451
(dp452
g54
(dp453
g74
g75
ssg63
g447
sg56
(lp454
g284
asbag49
(g70
g51
NtRp455
(dp456
g54
(dp457
g81
g82
ssg63
g447
sg56
(lp458
S':'
asbag49
(g70
g51
NtRp459
(dp460
g54
(dp461
sg63
g447
sg56
(lp462
g49
(g50
g51
NtRp463
(dp464
g54
(dp465
g62
I3
ssg63
g459
sg56
(lp466
S''
asbasbasbag49
(g65
g51
NtRp467
(dp468
g54
(dp469
sg63
g423
sg56
(lp470
g49
(g70
g51
NtRp471
(dp472
g54
(dp473
g74
g75
ssg63
g467
sg56
(lp474
g305
asbag49
(g70
g51
NtRp475
(dp476
g54
(dp477
g81
g82
ssg63
g467
sg56
(lp478
S':'
asbag49
(g70
g51
NtRp479
(dp480
g54
(dp481
sg63
g467
sg56
(lp482
g49
(g50
g51
NtRp483
(dp484
g54
(dp485
g62
I3
ssg63
g479
sg56
(lp486
S''
asbasbasbag49
(g65
g51
NtRp487
(dp488
g54
(dp489
sg63
g423
sg56
(lp490
g49
(g70
g51
NtRp491
(dp492
g54
(dp493
g74
g75
ssg63
g487
sg56
(lp494
g326
asbag49
(g70
g51
NtRp495
(dp496
g54
(dp497
g81
g82
ssg63
g487
sg56
(lp498
S':'
asbag49
(g70
g51
NtRp499
(dp500
g54
(dp501
sg63
g487
sg56
(lp502
g49
(g50
g51
NtRp503
(dp504
g54
(dp505
g62
I3
ssg63
g499
sg56
(lp506
S''
asbasbasbag49
(g65
g51
NtRp507
(dp508
g54
(dp509
sg63
g423
sg56
(lp510
g49
(g70
g51
NtRp511
(dp512
g54
(dp513
g74
g75
ssg63
g507
sg56
(lp514
g347
asbag49
(g70
g51
NtRp515
(dp516
g54
(dp517
g81
g82
ssg63
g507
sg56
(lp518
S':'
asbag49
(g70
g51
NtRp519
(dp520
g54
(dp521
sg63
g507
sg56
(lp522
g49
(g50
g51
NtRp523
(dp524
g54
(dp525
g62
I3
ssg63
g519
sg56
(lp526
S''
asbasbasbag49
(g65
g51
NtRp527
(dp528
g54
(dp529
sg63
g423
sg56
(lp530
g49
(g70
g51
NtRp531
(dp532
g54
(dp533
g74
g75
ssg63
g527
sg56
(lp534
g368
asbag49
(g70
g51
NtRp535
(dp536
g54
(dp537
g81
g82
ssg63
g527
sg56
(lp538
S':'
asbag49
(g70
g51
NtRp539
(dp540
g54
(dp541
sg63
g527
sg56
(lp542
g49
(g50
g51
NtRp543
(dp544
g54
(dp545
g62
I3
ssg63
g539
sg56
(lp546
S''
asbasbasbag49
(g65
g51
NtRp547
(dp548
g54
(dp549
sg63
g423
sg56
(lp550
g49
(g70
g51
NtRp551
(dp552
g54
(dp553
g74
g75
ssg63
g547
sg56
(lp554
g389
asbag49
(g70
g51
NtRp555
(dp556
g54
(dp557
g81
g82
ssg63
g547
sg56
(lp558
S':'
asbag49
(g70
g51
NtRp559
(dp560
g54
(dp561
sg63
g547
sg56
(lp562
g49
(g50
g51
NtRp563
(dp564
g54
(dp565
g62
I3
ssg63
g559
sg56
(lp566
S''
asbasbasbasbasbasbasbasbasbasbasbag49
(g65
g51
NtRp567
(dp568
g54
(dp569
sg63
g59
sg56
(lp570
g49
(g70
g51
NtRp571
(dp572
g54
(dp573
g74
g75
ssg63
g567
sg56
(lp574
S'env'
p575
asbag49
(g70
g51
NtRp576
(dp577
g54
(dp578
g81
g82
ssg63
g567
sg56
(lp579
S':'
asbag49
(g70
g51
NtRp580
(dp581
g54
(dp582
sg63
g567
sg56
(lp583
g49
(g50
g51
NtRp584
(dp585
g54
(dp586
g62
I5
ssg63
g580
sg56
(lp587
g49
(g58
g51
NtRp588
(dp589
g54
(dp590
g62
I4
ssg63
Nsg56
(lp591
g49
(g65
g51
NtRp592
(dp593
g54
(dp594
sg63
g588
sg56
(lp595
g49
(g70
g51
NtRp596
(dp597
g54
(dp598
g74
g75
ssg63
g592
sg56
(lp599
S'app_folders'
p600
asbag49
(g70
g51
NtRp601
(dp602
g54
(dp603
g81
g82
ssg63
g592
sg56
(lp604
S':'
asbag49
(g70
g51
NtRp605
(dp606
g54
(dp607
sg63
g592
sg56
(lp608
g49
(g50
g51
NtRp609
(dp610
g54
(dp611
g62
I4
ssg63
g605
sg56
(lp612
S"set(['D:\\\\Dise\\xf1o Web\\\\Proyectos\\\\Parleyweb\\\\web2py\\\\applications\\\\admin\\\\', 'D:\\\\Dise\\xf1o Web\\\\Proyectos\\\\Parleyweb\\\\web2py\\\\applications\\\\webparley\\\\'])"
p613
asbasbasbag49
(g65
g51
NtRp614
(dp615
g54
(dp616
sg63
g588
sg56
(lp617
g49
(g70
g51
NtRp618
(dp619
g54
(dp620
g74
g75
ssg63
g614
sg56
(lp621
S'applications_parent'
p622
asbag49
(g70
g51
NtRp623
(dp624
g54
(dp625
g81
g82
ssg63
g614
sg56
(lp626
S':'
asbag49
(g70
g51
NtRp627
(dp628
g54
(dp629
sg63
g614
sg56
(lp630
g49
(g50
g51
NtRp631
(dp632
g54
(dp633
g62
I4
ssg63
g627
sg56
(lp634
S'D:\\Dise\xf1o Web\\Proyectos\\Parleyweb\\web2py'
p635
asbasbasbag49
(g65
g51
NtRp636
(dp637
g54
(dp638
sg63
g588
sg56
(lp639
g49
(g70
g51
NtRp640
(dp641
g54
(dp642
g74
g75
ssg63
g636
sg56
(lp643
S'cmd_args'
p644
asbag49
(g70
g51
NtRp645
(dp646
g54
(dp647
g81
g82
ssg63
g636
sg56
(lp648
S':'
asbag49
(g70
g51
NtRp649
(dp650
g54
(dp651
sg63
g636
sg56
(lp652
g49
(g50
g51
NtRp653
(dp654
g54
(dp655
g62
I4
ssg63
g649
sg56
(lp656
g49
(g58
g51
NtRp657
(dp658
g54
(dp659
g62
I3
ssg63
Nsg56
(lp660
sbasbasbasbag49
(g65
g51
NtRp661
(dp662
g54
(dp663
sg63
g588
sg56
(lp664
g49
(g70
g51
NtRp665
(dp666
g54
(dp667
g74
g75
ssg63
g661
sg56
(lp668
S'cmd_options'
p669
asbag49
(g70
g51
NtRp670
(dp671
g54
(dp672
g81
g82
ssg63
g661
sg56
(lp673
S':'
asbag49
(g70
g51
NtRp674
(dp675
g54
(dp676
sg63
g661
sg56
(lp677
g49
(g50
g51
NtRp678
(dp679
g54
(dp680
g62
I4
ssg63
g674
sg56
(lp681
S"<Values at 0x2d6c260: {'verbose': False, 'ip': '127.0.0.1', 'shutdown_timeout': 5, 'taskbar': False, 'nocron': False, 'pid_filename': 'httpserver.pid', 'maxthreads': None, 'softcron': False, 'server_name': 'craxsnet-PC', 'bpython': False, 'nogui': False, 'port': 8000, 'extcron': False, 'debuglevel': 30, 'test': None, 'folder': 'D:\\\\Dise\\xf1o Web\\\\Proyectos\\\\Parleyweb\\\\web2py', 'config': '', 'import_models': False, 'winservice': '', 'shell': None, 'run': '', 'log_filename': 'httpserver.log', 'args': [''], 'socket_timeout': 5, 'ssl_ca_certificate': None, 'scheduler': None, 'profiler_filename': None, 'ssl_private_key': '', 'password': '<ask>', 'request_queue_size': 5, 'ssl_certificate': '', 'cronjob': False, 'numthreads': None, 'quiet': False, 'interfaces': None, 'minthreads': None, 'timeout': 10, 'plain': False, 'nobanner': False}>"
p682
asbasbasbag49
(g65
g51
NtRp683
(dp684
g54
(dp685
sg63
g588
sg56
(lp686
g49
(g70
g51
NtRp687
(dp688
g54
(dp689
g74
g75
ssg63
g683
sg56
(lp690
S'db_sessions'
p691
asbag49
(g70
g51
NtRp692
(dp693
g54
(dp694
g81
g82
ssg63
g683
sg56
(lp695
S':'
asbag49
(g70
g51
NtRp696
(dp697
g54
(dp698
sg63
g683
sg56
(lp699
g49
(g50
g51
NtRp700
(dp701
g54
(dp702
g62
I4
ssg63
g696
sg56
(lp703
S'set([])'
p704
asbasbasbag49
(g65
g51
NtRp705
(dp706
g54
(dp707
sg63
g588
sg56
(lp708
g49
(g70
g51
NtRp709
(dp710
g54
(dp711
g74
g75
ssg63
g705
sg56
(lp712
S'debugging'
p713
asbag49
(g70
g51
NtRp714
(dp715
g54
(dp716
g81
g82
ssg63
g705
sg56
(lp717
S':'
asbag49
(g70
g51
NtRp718
(dp719
g54
(dp720
sg63
g705
sg56
(lp721
g49
(g50
g51
NtRp722
(dp723
g54
(dp724
g62
I4
ssg63
g718
sg56
(lp725
g92
asbasbasbag49
(g65
g51
NtRp726
(dp727
g54
(dp728
sg63
g588
sg56
(lp729
g49
(g70
g51
NtRp730
(dp731
g54
(dp732
g74
g75
ssg63
g726
sg56
(lp733
S'gluon_parent'
p734
asbag49
(g70
g51
NtRp735
(dp736
g54
(dp737
g81
g82
ssg63
g726
sg56
(lp738
S':'
asbag49
(g70
g51
NtRp739
(dp740
g54
(dp741
sg63
g726
sg56
(lp742
g49
(g50
g51
NtRp743
(dp744
g54
(dp745
g62
I4
ssg63
g739
sg56
(lp746
S'D:\\Dise\xf1o Web\\Proyectos\\Parleyweb\\web2py'
p747
asbasbasbag49
(g65
g51
NtRp748
(dp749
g54
(dp750
sg63
g588
sg56
(lp751
g49
(g70
g51
NtRp752
(dp753
g54
(dp754
g74
g75
ssg63
g748
sg56
(lp755
S'http_accept'
p756
asbag49
(g70
g51
NtRp757
(dp758
g54
(dp759
g81
g82
ssg63
g748
sg56
(lp760
S':'
asbag49
(g70
g51
NtRp761
(dp762
g54
(dp763
sg63
g748
sg56
(lp764
g49
(g50
g51
NtRp765
(dp766
g54
(dp767
g62
I4
ssg63
g761
sg56
(lp768
S'text/html,application/xhtml+xml,application/xml;q=0.9,*/*;q=0.8'
p769
asbasbasbag49
(g65
g51
NtRp770
(dp771
g54
(dp772
sg63
g588
sg56
(lp773
g49
(g70
g51
NtRp774
(dp775
g54
(dp776
g74
g75
ssg63
g770
sg56
(lp777
S'http_accept_encoding'
p778
asbag49
(g70
g51
NtRp779
(dp780
g54
(dp781
g81
g82
ssg63
g770
sg56
(lp782
S':'
asbag49
(g70
g51
NtRp783
(dp784
g54
(dp785
sg63
g770
sg56
(lp786
g49
(g50
g51
NtRp787
(dp788
g54
(dp789
g62
I4
ssg63
g783
sg56
(lp790
S'gzip, deflate'
p791
asbasbasbag49
(g65
g51
NtRp792
(dp793
g54
(dp794
sg63
g588
sg56
(lp795
g49
(g70
g51
NtRp796
(dp797
g54
(dp798
g74
g75
ssg63
g792
sg56
(lp799
S'http_accept_language'
p800
asbag49
(g70
g51
NtRp801
(dp802
g54
(dp803
g81
g82
ssg63
g792
sg56
(lp804
S':'
asbag49
(g70
g51
NtRp805
(dp806
g54
(dp807
sg63
g792
sg56
(lp808
g49
(g50
g51
NtRp809
(dp810
g54
(dp811
g62
I4
ssg63
g805
sg56
(lp812
S'es-es,de-de;q=0.8,es;q=0.6,en-us;q=0.4,en;q=0.2'
p813
asbasbasbag49
(g65
g51
NtRp814
(dp815
g54
(dp816
sg63
g588
sg56
(lp817
g49
(g70
g51
NtRp818
(dp819
g54
(dp820
g74
g75
ssg63
g814
sg56
(lp821
S'http_cache_control'
p822
asbag49
(g70
g51
NtRp823
(dp824
g54
(dp825
g81
g82
ssg63
g814
sg56
(lp826
S':'
asbag49
(g70
g51
NtRp827
(dp828
g54
(dp829
sg63
g814
sg56
(lp830
g49
(g50
g51
NtRp831
(dp832
g54
(dp833
g62
I4
ssg63
g827
sg56
(lp834
S'max-age=0'
p835
asbasbasbag49
(g65
g51
NtRp836
(dp837
g54
(dp838
sg63
g588
sg56
(lp839
g49
(g70
g51
NtRp840
(dp841
g54
(dp842
g74
g75
ssg63
g836
sg56
(lp843
S'http_connection'
p844
asbag49
(g70
g51
NtRp845
(dp846
g54
(dp847
g81
g82
ssg63
g836
sg56
(lp848
S':'
asbag49
(g70
g51
NtRp849
(dp850
g54
(dp851
sg63
g836
sg56
(lp852
g49
(g50
g51
NtRp853
(dp854
g54
(dp855
g62
I4
ssg63
g849
sg56
(lp856
S'keep-alive'
p857
asbasbasbag49
(g65
g51
NtRp858
(dp859
g54
(dp860
sg63
g588
sg56
(lp861
g49
(g70
g51
NtRp862
(dp863
g54
(dp864
g74
g75
ssg63
g858
sg56
(lp865
S'http_cookie'
p866
asbag49
(g70
g51
NtRp867
(dp868
g54
(dp869
g81
g82
ssg63
g858
sg56
(lp870
S':'
asbag49
(g70
g51
NtRp871
(dp872
g54
(dp873
sg63
g858
sg56
(lp874
g49
(g50
g51
NtRp875
(dp876
g54
(dp877
g62
I4
ssg63
g871
sg56
(lp878
S'__utma=96992031.26429765.1325029743.1325029743.1326549329.2; __utmz=96992031.1325029743.1.1.utmcsr=(direct)|utmccn=(direct)|utmcmd=(none); session_id_webparley=127.0.0.1-bc69089f-ede7-4142-9e2c-fc2ecaebea00; session_id_admin=127.0.0.1-07c10bb6-e85d-4573-b009-87e3d3585852'
p879
asbasbasbag49
(g65
g51
NtRp880
(dp881
g54
(dp882
sg63
g588
sg56
(lp883
g49
(g70
g51
NtRp884
(dp885
g54
(dp886
g74
g75
ssg63
g880
sg56
(lp887
S'http_host'
p888
asbag49
(g70
g51
NtRp889
(dp890
g54
(dp891
g81
g82
ssg63
g880
sg56
(lp892
S':'
asbag49
(g70
g51
NtRp893
(dp894
g54
(dp895
sg63
g880
sg56
(lp896
g49
(g50
g51
NtRp897
(dp898
g54
(dp899
g62
I4
ssg63
g893
sg56
(lp900
S'127.0.0.1:8000'
p901
asbasbasbag49
(g65
g51
NtRp902
(dp903
g54
(dp904
sg63
g588
sg56
(lp905
g49
(g70
g51
NtRp906
(dp907
g54
(dp908
g74
g75
ssg63
g902
sg56
(lp909
S'http_referer'
p910
asbag49
(g70
g51
NtRp911
(dp912
g54
(dp913
g81
g82
ssg63
g902
sg56
(lp914
S':'
asbag49
(g70
g51
NtRp915
(dp916
g54
(dp917
sg63
g902
sg56
(lp918
g49
(g50
g51
NtRp919
(dp920
g54
(dp921
g62
I4
ssg63
g915
sg56
(lp922
S'http://127.0.0.1:8000/webparley/admin/index'
p923
asbasbasbag49
(g65
g51
NtRp924
(dp925
g54
(dp926
sg63
g588
sg56
(lp927
g49
(g70
g51
NtRp928
(dp929
g54
(dp930
g74
g75
ssg63
g924
sg56
(lp931
S'http_user_agent'
p932
asbag49
(g70
g51
NtRp933
(dp934
g54
(dp935
g81
g82
ssg63
g924
sg56
(lp936
S':'
asbag49
(g70
g51
NtRp937
(dp938
g54
(dp939
sg63
g924
sg56
(lp940
g49
(g50
g51
NtRp941
(dp942
g54
(dp943
g62
I4
ssg63
g937
sg56
(lp944
S'Mozilla/5.0 (Windows NT 6.1; WOW64; rv:11.0) Gecko/20100101 Firefox/11.0'
p945
asbasbasbag49
(g65
g51
NtRp946
(dp947
g54
(dp948
sg63
g588
sg56
(lp949
g49
(g70
g51
NtRp950
(dp951
g54
(dp952
g74
g75
ssg63
g946
sg56
(lp953
S'is_jython'
p954
asbag49
(g70
g51
NtRp955
(dp956
g54
(dp957
g81
g82
ssg63
g946
sg56
(lp958
S':'
asbag49
(g70
g51
NtRp959
(dp960
g54
(dp961
sg63
g946
sg56
(lp962
g49
(g50
g51
NtRp963
(dp964
g54
(dp965
g62
I4
ssg63
g959
sg56
(lp966
g92
asbasbasbag49
(g65
g51
NtRp967
(dp968
g54
(dp969
sg63
g588
sg56
(lp970
g49
(g70
g51
NtRp971
(dp972
g54
(dp973
g74
g75
ssg63
g967
sg56
(lp974
S'is_pypy'
p975
asbag49
(g70
g51
NtRp976
(dp977
g54
(dp978
g81
g82
ssg63
g967
sg56
(lp979
S':'
asbag49
(g70
g51
NtRp980
(dp981
g54
(dp982
sg63
g967
sg56
(lp983
g49
(g50
g51
NtRp984
(dp985
g54
(dp986
g62
I4
ssg63
g980
sg56
(lp987
g92
asbasbasbag49
(g65
g51
NtRp988
(dp989
g54
(dp990
sg63
g588
sg56
(lp991
g49
(g70
g51
NtRp992
(dp993
g54
(dp994
g74
g75
ssg63
g988
sg56
(lp995
S'path_info'
p996
asbag49
(g70
g51
NtRp997
(dp998
g54
(dp999
g81
g82
ssg63
g988
sg56
(lp1000
S':'
asbag49
(g70
g51
NtRp1001
(dp1002
g54
(dp1003
sg63
g988
sg56
(lp1004
g49
(g50
g51
NtRp1005
(dp1006
g54
(dp1007
g62
I4
ssg63
g1001
sg56
(lp1008
S'/webparley/admin/agregar_palabra'
p1009
asbasbasbag49
(g65
g51
NtRp1010
(dp1011
g54
(dp1012
sg63
g588
sg56
(lp1013
g49
(g70
g51
NtRp1014
(dp1015
g54
(dp1016
g74
g75
ssg63
g1010
sg56
(lp1017
S'query_string'
p1018
asbag49
(g70
g51
NtRp1019
(dp1020
g54
(dp1021
g81
g82
ssg63
g1010
sg56
(lp1022
S':'
asbag49
(g70
g51
NtRp1023
(dp1024
g54
(dp1025
sg63
g1010
sg56
(lp1026
g49
(g50
g51
NtRp1027
(dp1028
g54
(dp1029
g62
I4
ssg63
g1023
sg56
(lp1030
S''
asbasbasbag49
(g65
g51
NtRp1031
(dp1032
g54
(dp1033
sg63
g588
sg56
(lp1034
g49
(g70
g51
NtRp1035
(dp1036
g54
(dp1037
g74
g75
ssg63
g1031
sg56
(lp1038
S'remote_addr'
p1039
asbag49
(g70
g51
NtRp1040
(dp1041
g54
(dp1042
g81
g82
ssg63
g1031
sg56
(lp1043
S':'
asbag49
(g70
g51
NtRp1044
(dp1045
g54
(dp1046
sg63
g1031
sg56
(lp1047
g49
(g50
g51
NtRp1048
(dp1049
g54
(dp1050
g62
I4
ssg63
g1044
sg56
(lp1051
g182
asbasbasbag49
(g65
g51
NtRp1052
(dp1053
g54
(dp1054
sg63
g588
sg56
(lp1055
g49
(g70
g51
NtRp1056
(dp1057
g54
(dp1058
g74
g75
ssg63
g1052
sg56
(lp1059
S'remote_port'
p1060
asbag49
(g70
g51
NtRp1061
(dp1062
g54
(dp1063
g81
g82
ssg63
g1052
sg56
(lp1064
S':'
asbag49
(g70
g51
NtRp1065
(dp1066
g54
(dp1067
sg63
g1052
sg56
(lp1068
g49
(g50
g51
NtRp1069
(dp1070
g54
(dp1071
g62
I4
ssg63
g1065
sg56
(lp1072
S'64659'
p1073
asbasbasbag49
(g65
g51
NtRp1074
(dp1075
g54
(dp1076
sg63
g588
sg56
(lp1077
g49
(g70
g51
NtRp1078
(dp1079
g54
(dp1080
g74
g75
ssg63
g1074
sg56
(lp1081
S'request_method'
p1082
asbag49
(g70
g51
NtRp1083
(dp1084
g54
(dp1085
g81
g82
ssg63
g1074
sg56
(lp1086
S':'
asbag49
(g70
g51
NtRp1087
(dp1088
g54
(dp1089
sg63
g1074
sg56
(lp1090
g49
(g50
g51
NtRp1091
(dp1092
g54
(dp1093
g62
I4
ssg63
g1087
sg56
(lp1094
S'GET'
p1095
asbasbasbag49
(g65
g51
NtRp1096
(dp1097
g54
(dp1098
sg63
g588
sg56
(lp1099
g49
(g70
g51
NtRp1100
(dp1101
g54
(dp1102
g74
g75
ssg63
g1096
sg56
(lp1103
S'request_uri'
p1104
asbag49
(g70
g51
NtRp1105
(dp1106
g54
(dp1107
g81
g82
ssg63
g1096
sg56
(lp1108
S':'
asbag49
(g70
g51
NtRp1109
(dp1110
g54
(dp1111
sg63
g1096
sg56
(lp1112
g49
(g50
g51
NtRp1113
(dp1114
g54
(dp1115
g62
I4
ssg63
g1109
sg56
(lp1116
g1009
asbasbasbag49
(g65
g51
NtRp1117
(dp1118
g54
(dp1119
sg63
g588
sg56
(lp1120
g49
(g70
g51
NtRp1121
(dp1122
g54
(dp1123
g74
g75
ssg63
g1117
sg56
(lp1124
S'script_name'
p1125
asbag49
(g70
g51
NtRp1126
(dp1127
g54
(dp1128
g81
g82
ssg63
g1117
sg56
(lp1129
S':'
asbag49
(g70
g51
NtRp1130
(dp1131
g54
(dp1132
sg63
g1117
sg56
(lp1133
g49
(g50
g51
NtRp1134
(dp1135
g54
(dp1136
g62
I4
ssg63
g1130
sg56
(lp1137
S''
asbasbasbag49
(g65
g51
NtRp1138
(dp1139
g54
(dp1140
sg63
g588
sg56
(lp1141
g49
(g70
g51
NtRp1142
(dp1143
g54
(dp1144
g74
g75
ssg63
g1138
sg56
(lp1145
S'server_name'
p1146
asbag49
(g70
g51
NtRp1147
(dp1148
g54
(dp1149
g81
g82
ssg63
g1138
sg56
(lp1150
S':'
asbag49
(g70
g51
NtRp1151
(dp1152
g54
(dp1153
sg63
g1138
sg56
(lp1154
g49
(g50
g51
NtRp1155
(dp1156
g54
(dp1157
g62
I4
ssg63
g1151
sg56
(lp1158
S'craxsnet-PC'
p1159
asbasbasbag49
(g65
g51
NtRp1160
(dp1161
g54
(dp1162
sg63
g588
sg56
(lp1163
g49
(g70
g51
NtRp1164
(dp1165
g54
(dp1166
g74
g75
ssg63
g1160
sg56
(lp1167
S'server_port'
p1168
asbag49
(g70
g51
NtRp1169
(dp1170
g54
(dp1171
g81
g82
ssg63
g1160
sg56
(lp1172
S':'
asbag49
(g70
g51
NtRp1173
(dp1174
g54
(dp1175
sg63
g1160
sg56
(lp1176
g49
(g50
g51
NtRp1177
(dp1178
g54
(dp1179
g62
I4
ssg63
g1173
sg56
(lp1180
S'8000'
p1181
asbasbasbag49
(g65
g51
NtRp1182
(dp1183
g54
(dp1184
sg63
g588
sg56
(lp1185
g49
(g70
g51
NtRp1186
(dp1187
g54
(dp1188
g74
g75
ssg63
g1182
sg56
(lp1189
S'server_protocol'
p1190
asbag49
(g70
g51
NtRp1191
(dp1192
g54
(dp1193
g81
g82
ssg63
g1182
sg56
(lp1194
S':'
asbag49
(g70
g51
NtRp1195
(dp1196
g54
(dp1197
sg63
g1182
sg56
(lp1198
g49
(g50
g51
NtRp1199
(dp1200
g54
(dp1201
g62
I4
ssg63
g1195
sg56
(lp1202
S'HTTP/1.1'
p1203
asbasbasbag49
(g65
g51
NtRp1204
(dp1205
g54
(dp1206
sg63
g588
sg56
(lp1207
g49
(g70
g51
NtRp1208
(dp1209
g54
(dp1210
g74
g75
ssg63
g1204
sg56
(lp1211
S'server_software'
p1212
asbag49
(g70
g51
NtRp1213
(dp1214
g54
(dp1215
g81
g82
ssg63
g1204
sg56
(lp1216
S':'
asbag49
(g70
g51
NtRp1217
(dp1218
g54
(dp1219
sg63
g1204
sg56
(lp1220
g49
(g50
g51
NtRp1221
(dp1222
g54
(dp1223
g62
I4
ssg63
g1217
sg56
(lp1224
S'Rocket 1.2.4'
p1225
asbasbasbag49
(g65
g51
NtRp1226
(dp1227
g54
(dp1228
sg63
g588
sg56
(lp1229
g49
(g70
g51
NtRp1230
(dp1231
g54
(dp1232
g74
g75
ssg63
g1226
sg56
(lp1233
S'web2py_crontype'
p1234
asbag49
(g70
g51
NtRp1235
(dp1236
g54
(dp1237
g81
g82
ssg63
g1226
sg56
(lp1238
S':'
asbag49
(g70
g51
NtRp1239
(dp1240
g54
(dp1241
sg63
g1226
sg56
(lp1242
g49
(g50
g51
NtRp1243
(dp1244
g54
(dp1245
g62
I4
ssg63
g1239
sg56
(lp1246
S'hard'
p1247
asbasbasbag49
(g65
g51
NtRp1248
(dp1249
g54
(dp1250
sg63
g588
sg56
(lp1251
g49
(g70
g51
NtRp1252
(dp1253
g54
(dp1254
g74
g75
ssg63
g1248
sg56
(lp1255
S'web2py_original_uri'
p1256
asbag49
(g70
g51
NtRp1257
(dp1258
g54
(dp1259
g81
g82
ssg63
g1248
sg56
(lp1260
S':'
asbag49
(g70
g51
NtRp1261
(dp1262
g54
(dp1263
sg63
g1248
sg56
(lp1264
g49
(g50
g51
NtRp1265
(dp1266
g54
(dp1267
g62
I4
ssg63
g1261
sg56
(lp1268
S'/webparley/admin/agregar_palabra'
p1269
asbasbasbag49
(g65
g51
NtRp1270
(dp1271
g54
(dp1272
sg63
g588
sg56
(lp1273
g49
(g70
g51
NtRp1274
(dp1275
g54
(dp1276
g74
g75
ssg63
g1270
sg56
(lp1277
S'web2py_path'
p1278
asbag49
(g70
g51
NtRp1279
(dp1280
g54
(dp1281
g81
g82
ssg63
g1270
sg56
(lp1282
S':'
asbag49
(g70
g51
NtRp1283
(dp1284
g54
(dp1285
sg63
g1270
sg56
(lp1286
g49
(g50
g51
NtRp1287
(dp1288
g54
(dp1289
g62
I4
ssg63
g1283
sg56
(lp1290
g635
asbasbasbag49
(g65
g51
NtRp1291
(dp1292
g54
(dp1293
sg63
g588
sg56
(lp1294
g49
(g70
g51
NtRp1295
(dp1296
g54
(dp1297
g74
g75
ssg63
g1291
sg56
(lp1298
S'web2py_version'
p1299
asbag49
(g70
g51
NtRp1300
(dp1301
g54
(dp1302
g81
g82
ssg63
g1291
sg56
(lp1303
S':'
asbag49
(g70
g51
NtRp1304
(dp1305
g54
(dp1306
sg63
g1291
sg56
(lp1307
g49
(g50
g51
NtRp1308
(dp1309
g54
(dp1310
g62
I4
ssg63
g1304
sg56
(lp1311
g49
(g58
g51
NtRp1312
(dp1313
g54
(dp1314
g62
I3
ssg63
Nsg56
(lp1315
g49
(g65
g51
NtRp1316
(dp1317
g54
(dp1318
sg63
g1312
sg56
(lp1319
g49
(g70
g51
NtRp1320
(dp1321
g54
(dp1322
sg63
g1316
sg56
(lp1323
g49
(g50
g51
NtRp1324
(dp1325
g54
(dp1326
g62
I3
ssg63
g1320
sg56
(lp1327
S'1'
asbasbasbag49
(g65
g51
NtRp1328
(dp1329
g54
(dp1330
sg63
g1312
sg56
(lp1331
g49
(g70
g51
NtRp1332
(dp1333
g54
(dp1334
sg63
g1328
sg56
(lp1335
g49
(g50
g51
NtRp1336
(dp1337
g54
(dp1338
g62
I3
ssg63
g1332
sg56
(lp1339
S'99'
p1340
asbasbasbag49
(g65
g51
NtRp1341
(dp1342
g54
(dp1343
sg63
g1312
sg56
(lp1344
g49
(g70
g51
NtRp1345
(dp1346
g54
(dp1347
sg63
g1341
sg56
(lp1348
g49
(g50
g51
NtRp1349
(dp1350
g54
(dp1351
g62
I3
ssg63
g1345
sg56
(lp1352
S'7'
asbasbasbag49
(g65
g51
NtRp1353
(dp1354
g54
(dp1355
sg63
g1312
sg56
(lp1356
g49
(g70
g51
NtRp1357
(dp1358
g54
(dp1359
sg63
g1353
sg56
(lp1360
g49
(g50
g51
NtRp1361
(dp1362
g54
(dp1363
g62
I3
ssg63
g1357
sg56
(lp1364
S'datetime.datetime(2012, 3, 4, 22, 12, 8)'
p1365
asbasbasbag49
(g65
g51
NtRp1366
(dp1367
g54
(dp1368
sg63
g1312
sg56
(lp1369
g49
(g70
g51
NtRp1370
(dp1371
g54
(dp1372
sg63
g1366
sg56
(lp1373
g49
(g50
g51
NtRp1374
(dp1375
g54
(dp1376
g62
I3
ssg63
g1370
sg56
(lp1377
S'stable'
p1378
asbasbasbasbasbasbasbag49
(g65
g51
NtRp1379
(dp1380
g54
(dp1381
sg63
g588
sg56
(lp1382
g49
(g70
g51
NtRp1383
(dp1384
g54
(dp1385
g74
g75
ssg63
g1379
sg56
(lp1386
S'wsgi_errors'
p1387
asbag49
(g70
g51
NtRp1388
(dp1389
g54
(dp1390
g81
g82
ssg63
g1379
sg56
(lp1391
S':'
asbag49
(g70
g51
NtRp1392
(dp1393
g54
(dp1394
sg63
g1379
sg56
(lp1395
g49
(g50
g51
NtRp1396
(dp1397
g54
(dp1398
g62
I4
ssg63
g1392
sg56
(lp1399
S"<open file '<stderr>', mode 'w' at 0x004200B0>"
p1400
asbasbasbag49
(g65
g51
NtRp1401
(dp1402
g54
(dp1403
sg63
g588
sg56
(lp1404
g49
(g70
g51
NtRp1405
(dp1406
g54
(dp1407
g74
g75
ssg63
g1401
sg56
(lp1408
S'wsgi_file_wrapper'
p1409
asbag49
(g70
g51
NtRp1410
(dp1411
g54
(dp1412
g81
g82
ssg63
g1401
sg56
(lp1413
S':'
asbag49
(g70
g51
NtRp1414
(dp1415
g54
(dp1416
sg63
g1401
sg56
(lp1417
g49
(g50
g51
NtRp1418
(dp1419
g54
(dp1420
g62
I4
ssg63
g1414
sg56
(lp1421
S'<class wsgiref.util.FileWrapper at 0x02B69390>'
p1422
asbasbasbag49
(g65
g51
NtRp1423
(dp1424
g54
(dp1425
sg63
g588
sg56
(lp1426
g49
(g70
g51
NtRp1427
(dp1428
g54
(dp1429
g74
g75
ssg63
g1423
sg56
(lp1430
S'wsgi_input'
p1431
asbag49
(g70
g51
NtRp1432
(dp1433
g54
(dp1434
g81
g82
ssg63
g1423
sg56
(lp1435
S':'
asbag49
(g70
g51
NtRp1436
(dp1437
g54
(dp1438
sg63
g1423
sg56
(lp1439
g49
(g50
g51
NtRp1440
(dp1441
g54
(dp1442
g62
I4
ssg63
g1436
sg56
(lp1443
S'<socket._fileobject object at 0x05CE30B0>'
p1444
asbasbasbag49
(g65
g51
NtRp1445
(dp1446
g54
(dp1447
sg63
g588
sg56
(lp1448
g49
(g70
g51
NtRp1449
(dp1450
g54
(dp1451
g74
g75
ssg63
g1445
sg56
(lp1452
S'wsgi_multiprocess'
p1453
asbag49
(g70
g51
NtRp1454
(dp1455
g54
(dp1456
g81
g82
ssg63
g1445
sg56
(lp1457
S':'
asbag49
(g70
g51
NtRp1458
(dp1459
g54
(dp1460
sg63
g1445
sg56
(lp1461
g49
(g50
g51
NtRp1462
(dp1463
g54
(dp1464
g62
I4
ssg63
g1458
sg56
(lp1465
g92
asbasbasbag49
(g65
g51
NtRp1466
(dp1467
g54
(dp1468
sg63
g588
sg56
(lp1469
g49
(g70
g51
NtRp1470
(dp1471
g54
(dp1472
g74
g75
ssg63
g1466
sg56
(lp1473
S'wsgi_multithread'
p1474
asbag49
(g70
g51
NtRp1475
(dp1476
g54
(dp1477
g81
g82
ssg63
g1466
sg56
(lp1478
S':'
asbag49
(g70
g51
NtRp1479
(dp1480
g54
(dp1481
sg63
g1466
sg56
(lp1482
g49
(g50
g51
NtRp1483
(dp1484
g54
(dp1485
g62
I4
ssg63
g1479
sg56
(lp1486
S'True'
p1487
asbasbasbag49
(g65
g51
NtRp1488
(dp1489
g54
(dp1490
sg63
g588
sg56
(lp1491
g49
(g70
g51
NtRp1492
(dp1493
g54
(dp1494
g74
g75
ssg63
g1488
sg56
(lp1495
S'wsgi_run_once'
p1496
asbag49
(g70
g51
NtRp1497
(dp1498
g54
(dp1499
g81
g82
ssg63
g1488
sg56
(lp1500
S':'
asbag49
(g70
g51
NtRp1501
(dp1502
g54
(dp1503
sg63
g1488
sg56
(lp1504
g49
(g50
g51
NtRp1505
(dp1506
g54
(dp1507
g62
I4
ssg63
g1501
sg56
(lp1508
g92
asbasbasbag49
(g65
g51
NtRp1509
(dp1510
g54
(dp1511
sg63
g588
sg56
(lp1512
g49
(g70
g51
NtRp1513
(dp1514
g54
(dp1515
g74
g75
ssg63
g1509
sg56
(lp1516
S'wsgi_url_scheme'
p1517
asbag49
(g70
g51
NtRp1518
(dp1519
g54
(dp1520
g81
g82
ssg63
g1509
sg56
(lp1521
S':'
asbag49
(g70
g51
NtRp1522
(dp1523
g54
(dp1524
sg63
g1509
sg56
(lp1525
g49
(g50
g51
NtRp1526
(dp1527
g54
(dp1528
g62
I4
ssg63
g1522
sg56
(lp1529
S'http'
p1530
asbasbasbag49
(g65
g51
NtRp1531
(dp1532
g54
(dp1533
sg63
g588
sg56
(lp1534
g49
(g70
g51
NtRp1535
(dp1536
g54
(dp1537
g74
g75
ssg63
g1531
sg56
(lp1538
S'wsgi_version'
p1539
asbag49
(g70
g51
NtRp1540
(dp1541
g54
(dp1542
g81
g82
ssg63
g1531
sg56
(lp1543
S':'
asbag49
(g70
g51
NtRp1544
(dp1545
g54
(dp1546
sg63
g1531
sg56
(lp1547
g49
(g50
g51
NtRp1548
(dp1549
g54
(dp1550
g62
I4
ssg63
g1544
sg56
(lp1551
g49
(g58
g51
NtRp1552
(dp1553
g54
(dp1554
g62
I3
ssg63
Nsg56
(lp1555
g49
(g65
g51
NtRp1556
(dp1557
g54
(dp1558
sg63
g1552
sg56
(lp1559
g49
(g70
g51
NtRp1560
(dp1561
g54
(dp1562
sg63
g1556
sg56
(lp1563
g49
(g50
g51
NtRp1564
(dp1565
g54
(dp1566
g62
I3
ssg63
g1560
sg56
(lp1567
S'1'
asbasbasbag49
(g65
g51
NtRp1568
(dp1569
g54
(dp1570
sg63
g1552
sg56
(lp1571
g49
(g70
g51
NtRp1572
(dp1573
g54
(dp1574
sg63
g1568
sg56
(lp1575
g49
(g50
g51
NtRp1576
(dp1577
g54
(dp1578
g62
I3
ssg63
g1572
sg56
(lp1579
S'0'
asbasbasbasbasbasbasbasbasbasbasbag49
(g65
g51
NtRp1580
(dp1581
g54
(dp1582
sg63
g59
sg56
(lp1583
g49
(g70
g51
NtRp1584
(dp1585
g54
(dp1586
g74
g75
ssg63
g1580
sg56
(lp1587
S'extension'
p1588
asbag49
(g70
g51
NtRp1589
(dp1590
g54
(dp1591
g81
g82
ssg63
g1580
sg56
(lp1592
S':'
asbag49
(g70
g51
NtRp1593
(dp1594
g54
(dp1595
sg63
g1580
sg56
(lp1596
g49
(g50
g51
NtRp1597
(dp1598
g54
(dp1599
g62
I5
ssg63
g1593
sg56
(lp1600
S'html'
p1601
asbasbasbag49
(g65
g51
NtRp1602
(dp1603
g54
(dp1604
sg63
g59
sg56
(lp1605
g49
(g70
g51
NtRp1606
(dp1607
g54
(dp1608
g74
g75
ssg63
g1602
sg56
(lp1609
S'folder'
p1610
asbag49
(g70
g51
NtRp1611
(dp1612
g54
(dp1613
g81
g82
ssg63
g1602
sg56
(lp1614
S':'
asbag49
(g70
g51
NtRp1615
(dp1616
g54
(dp1617
sg63
g1602
sg56
(lp1618
g49
(g50
g51
NtRp1619
(dp1620
g54
(dp1621
g62
I5
ssg63
g1615
sg56
(lp1622
S'D:\\Dise\xf1o Web\\Proyectos\\Parleyweb\\web2py\\applications\\webparley\\'
p1623
asbasbasbag49
(g65
g51
NtRp1624
(dp1625
g54
(dp1626
sg63
g59
sg56
(lp1627
g49
(g70
g51
NtRp1628
(dp1629
g54
(dp1630
g74
g75
ssg63
g1624
sg56
(lp1631
S'function'
p1632
asbag49
(g70
g51
NtRp1633
(dp1634
g54
(dp1635
g81
g82
ssg63
g1624
sg56
(lp1636
S':'
asbag49
(g70
g51
NtRp1637
(dp1638
g54
(dp1639
sg63
g1624
sg56
(lp1640
g49
(g50
g51
NtRp1641
(dp1642
g54
(dp1643
g62
I5
ssg63
g1637
sg56
(lp1644
S'agregar_palabra'
p1645
asbasbasbag49
(g65
g51
NtRp1646
(dp1647
g54
(dp1648
sg63
g59
sg56
(lp1649
g49
(g70
g51
NtRp1650
(dp1651
g54
(dp1652
g74
g75
ssg63
g1646
sg56
(lp1653
S'get_vars'
p1654
asbag49
(g70
g51
NtRp1655
(dp1656
g54
(dp1657
g81
g82
ssg63
g1646
sg56
(lp1658
S':'
asbag49
(g70
g51
NtRp1659
(dp1660
g54
(dp1661
sg63
g1646
sg56
(lp1662
g49
(g50
g51
NtRp1663
(dp1664
g54
(dp1665
g62
I5
ssg63
g1659
sg56
(lp1666
g49
(g58
g51
NtRp1667
(dp1668
g54
(dp1669
g62
I4
ssg63
Nsg56
(lp1670
sbasbasbasbag49
(g65
g51
NtRp1671
(dp1672
g54
(dp1673
sg63
g59
sg56
(lp1674
g49
(g70
g51
NtRp1675
(dp1676
g54
(dp1677
g74
g75
ssg63
g1671
sg56
(lp1678
S'global_settings'
p1679
asbag49
(g70
g51
NtRp1680
(dp1681
g54
(dp1682
g81
g82
ssg63
g1671
sg56
(lp1683
S':'
asbag49
(g70
g51
NtRp1684
(dp1685
g54
(dp1686
sg63
g1671
sg56
(lp1687
g49
(g50
g51
NtRp1688
(dp1689
g54
(dp1690
g62
I5
ssg63
g1684
sg56
(lp1691
g49
(g58
g51
NtRp1692
(dp1693
g54
(dp1694
g62
I4
ssg63
Nsg56
(lp1695
g49
(g65
g51
NtRp1696
(dp1697
g54
(dp1698
sg63
g1692
sg56
(lp1699
g49
(g70
g51
NtRp1700
(dp1701
g54
(dp1702
g74
g75
ssg63
g1696
sg56
(lp1703
g600
asbag49
(g70
g51
NtRp1704
(dp1705
g54
(dp1706
g81
g82
ssg63
g1696
sg56
(lp1707
S':'
asbag49
(g70
g51
NtRp1708
(dp1709
g54
(dp1710
sg63
g1696
sg56
(lp1711
g49
(g50
g51
NtRp1712
(dp1713
g54
(dp1714
g62
I4
ssg63
g1708
sg56
(lp1715
S"set(['D:\\\\Dise\\xf1o Web\\\\Proyectos\\\\Parleyweb\\\\web2py\\\\applications\\\\admin\\\\', 'D:\\\\Dise\\xf1o Web\\\\Proyectos\\\\Parleyweb\\\\web2py\\\\applications\\\\webparley\\\\'])"
p1716
asbasbasbag49
(g65
g51
NtRp1717
(dp1718
g54
(dp1719
sg63
g1692
sg56
(lp1720
g49
(g70
g51
NtRp1721
(dp1722
g54
(dp1723
g74
g75
ssg63
g1717
sg56
(lp1724
g622
asbag49
(g70
g51
NtRp1725
(dp1726
g54
(dp1727
g81
g82
ssg63
g1717
sg56
(lp1728
S':'
asbag49
(g70
g51
NtRp1729
(dp1730
g54
(dp1731
sg63
g1717
sg56
(lp1732
g49
(g50
g51
NtRp1733
(dp1734
g54
(dp1735
g62
I4
ssg63
g1729
sg56
(lp1736
g635
asbasbasbag49
(g65
g51
NtRp1737
(dp1738
g54
(dp1739
sg63
g1692
sg56
(lp1740
g49
(g70
g51
NtRp1741
(dp1742
g54
(dp1743
g74
g75
ssg63
g1737
sg56
(lp1744
g644
asbag49
(g70
g51
NtRp1745
(dp1746
g54
(dp1747
g81
g82
ssg63
g1737
sg56
(lp1748
S':'
asbag49
(g70
g51
NtRp1749
(dp1750
g54
(dp1751
sg63
g1737
sg56
(lp1752
g49
(g50
g51
NtRp1753
(dp1754
g54
(dp1755
g62
I4
ssg63
g1749
sg56
(lp1756
g49
(g58
g51
NtRp1757
(dp1758
g54
(dp1759
g62
I3
ssg63
Nsg56
(lp1760
sbasbasbasbag49
(g65
g51
NtRp1761
(dp1762
g54
(dp1763
sg63
g1692
sg56
(lp1764
g49
(g70
g51
NtRp1765
(dp1766
g54
(dp1767
g74
g75
ssg63
g1761
sg56
(lp1768
g669
asbag49
(g70
g51
NtRp1769
(dp1770
g54
(dp1771
g81
g82
ssg63
g1761
sg56
(lp1772
S':'
asbag49
(g70
g51
NtRp1773
(dp1774
g54
(dp1775
sg63
g1761
sg56
(lp1776
g49
(g50
g51
NtRp1777
(dp1778
g54
(dp1779
g62
I4
ssg63
g1773
sg56
(lp1780
S"<Values at 0x2d6c260: {'verbose': False, 'ip': '127.0.0.1', 'shutdown_timeout': 5, 'taskbar': False, 'nocron': False, 'pid_filename': 'httpserver.pid', 'maxthreads': None, 'softcron': False, 'server_name': 'craxsnet-PC', 'bpython': False, 'nogui': False, 'port': 8000, 'extcron': False, 'debuglevel': 30, 'test': None, 'folder': 'D:\\\\Dise\\xf1o Web\\\\Proyectos\\\\Parleyweb\\\\web2py', 'config': '', 'import_models': False, 'winservice': '', 'shell': None, 'run': '', 'log_filename': 'httpserver.log', 'args': [''], 'socket_timeout': 5, 'ssl_ca_certificate': None, 'scheduler': None, 'profiler_filename': None, 'ssl_private_key': '', 'password': '<ask>', 'request_queue_size': 5, 'ssl_certificate': '', 'cronjob': False, 'numthreads': None, 'quiet': False, 'interfaces': None, 'minthreads': None, 'timeout': 10, 'plain': False, 'nobanner': False}>"
p1781
asbasbasbag49
(g65
g51
NtRp1782
(dp1783
g54
(dp1784
sg63
g1692
sg56
(lp1785
g49
(g70
g51
NtRp1786
(dp1787
g54
(dp1788
g74
g75
ssg63
g1782
sg56
(lp1789
g691
asbag49
(g70
g51
NtRp1790
(dp1791
g54
(dp1792
g81
g82
ssg63
g1782
sg56
(lp1793
S':'
asbag49
(g70
g51
NtRp1794
(dp1795
g54
(dp1796
sg63
g1782
sg56
(lp1797
g49
(g50
g51
NtRp1798
(dp1799
g54
(dp1800
g62
I4
ssg63
g1794
sg56
(lp1801
S'set([])'
p1802
asbasbasbag49
(g65
g51
NtRp1803
(dp1804
g54
(dp1805
sg63
g1692
sg56
(lp1806
g49
(g70
g51
NtRp1807
(dp1808
g54
(dp1809
g74
g75
ssg63
g1803
sg56
(lp1810
g713
asbag49
(g70
g51
NtRp1811
(dp1812
g54
(dp1813
g81
g82
ssg63
g1803
sg56
(lp1814
S':'
asbag49
(g70
g51
NtRp1815
(dp1816
g54
(dp1817
sg63
g1803
sg56
(lp1818
g49
(g50
g51
NtRp1819
(dp1820
g54
(dp1821
g62
I4
ssg63
g1815
sg56
(lp1822
g92
asbasbasbag49
(g65
g51
NtRp1823
(dp1824
g54
(dp1825
sg63
g1692
sg56
(lp1826
g49
(g70
g51
NtRp1827
(dp1828
g54
(dp1829
g74
g75
ssg63
g1823
sg56
(lp1830
g734
asbag49
(g70
g51
NtRp1831
(dp1832
g54
(dp1833
g81
g82
ssg63
g1823
sg56
(lp1834
S':'
asbag49
(g70
g51
NtRp1835
(dp1836
g54
(dp1837
sg63
g1823
sg56
(lp1838
g49
(g50
g51
NtRp1839
(dp1840
g54
(dp1841
g62
I4
ssg63
g1835
sg56
(lp1842
g747
asbasbasbag49
(g65
g51
NtRp1843
(dp1844
g54
(dp1845
sg63
g1692
sg56
(lp1846
g49
(g70
g51
NtRp1847
(dp1848
g54
(dp1849
g74
g75
ssg63
g1843
sg56
(lp1850
g954
asbag49
(g70
g51
NtRp1851
(dp1852
g54
(dp1853
g81
g82
ssg63
g1843
sg56
(lp1854
S':'
asbag49
(g70
g51
NtRp1855
(dp1856
g54
(dp1857
sg63
g1843
sg56
(lp1858
g49
(g50
g51
NtRp1859
(dp1860
g54
(dp1861
g62
I4
ssg63
g1855
sg56
(lp1862
g92
asbasbasbag49
(g65
g51
NtRp1863
(dp1864
g54
(dp1865
sg63
g1692
sg56
(lp1866
g49
(g70
g51
NtRp1867
(dp1868
g54
(dp1869
g74
g75
ssg63
g1863
sg56
(lp1870
g975
asbag49
(g70
g51
NtRp1871
(dp1872
g54
(dp1873
g81
g82
ssg63
g1863
sg56
(lp1874
S':'
asbag49
(g70
g51
NtRp1875
(dp1876
g54
(dp1877
sg63
g1863
sg56
(lp1878
g49
(g50
g51
NtRp1879
(dp1880
g54
(dp1881
g62
I4
ssg63
g1875
sg56
(lp1882
g92
asbasbasbag49
(g65
g51
NtRp1883
(dp1884
g54
(dp1885
sg63
g1692
sg56
(lp1886
g49
(g70
g51
NtRp1887
(dp1888
g54
(dp1889
g74
g75
ssg63
g1883
sg56
(lp1890
g1234
asbag49
(g70
g51
NtRp1891
(dp1892
g54
(dp1893
g81
g82
ssg63
g1883
sg56
(lp1894
S':'
asbag49
(g70
g51
NtRp1895
(dp1896
g54
(dp1897
sg63
g1883
sg56
(lp1898
g49
(g50
g51
NtRp1899
(dp1900
g54
(dp1901
g62
I4
ssg63
g1895
sg56
(lp1902
g1247
asbasbasbag49
(g65
g51
NtRp1903
(dp1904
g54
(dp1905
sg63
g1692
sg56
(lp1906
g49
(g70
g51
NtRp1907
(dp1908
g54
(dp1909
g74
g75
ssg63
g1903
sg56
(lp1910
g1299
asbag49
(g70
g51
NtRp1911
(dp1912
g54
(dp1913
g81
g82
ssg63
g1903
sg56
(lp1914
S':'
asbag49
(g70
g51
NtRp1915
(dp1916
g54
(dp1917
sg63
g1903
sg56
(lp1918
g49
(g50
g51
NtRp1919
(dp1920
g54
(dp1921
g62
I4
ssg63
g1915
sg56
(lp1922
g49
(g58
g51
NtRp1923
(dp1924
g54
(dp1925
g62
I3
ssg63
Nsg56
(lp1926
g49
(g65
g51
NtRp1927
(dp1928
g54
(dp1929
sg63
g1923
sg56
(lp1930
g49
(g70
g51
NtRp1931
(dp1932
g54
(dp1933
sg63
g1927
sg56
(lp1934
g49
(g50
g51
NtRp1935
(dp1936
g54
(dp1937
g62
I3
ssg63
g1931
sg56
(lp1938
S'1'
asbasbasbag49
(g65
g51
NtRp1939
(dp1940
g54
(dp1941
sg63
g1923
sg56
(lp1942
g49
(g70
g51
NtRp1943
(dp1944
g54
(dp1945
sg63
g1939
sg56
(lp1946
g49
(g50
g51
NtRp1947
(dp1948
g54
(dp1949
g62
I3
ssg63
g1943
sg56
(lp1950
S'99'
p1951
asbasbasbag49
(g65
g51
NtRp1952
(dp1953
g54
(dp1954
sg63
g1923
sg56
(lp1955
g49
(g70
g51
NtRp1956
(dp1957
g54
(dp1958
sg63
g1952
sg56
(lp1959
g49
(g50
g51
NtRp1960
(dp1961
g54
(dp1962
g62
I3
ssg63
g1956
sg56
(lp1963
S'7'
asbasbasbag49
(g65
g51
NtRp1964
(dp1965
g54
(dp1966
sg63
g1923
sg56
(lp1967
g49
(g70
g51
NtRp1968
(dp1969
g54
(dp1970
sg63
g1964
sg56
(lp1971
g49
(g50
g51
NtRp1972
(dp1973
g54
(dp1974
g62
I3
ssg63
g1968
sg56
(lp1975
S'datetime.datetime(2012, 3, 4, 22, 12, 8)'
p1976
asbasbasbag49
(g65
g51
NtRp1977
(dp1978
g54
(dp1979
sg63
g1923
sg56
(lp1980
g49
(g70
g51
NtRp1981
(dp1982
g54
(dp1983
sg63
g1977
sg56
(lp1984
g49
(g50
g51
NtRp1985
(dp1986
g54
(dp1987
g62
I3
ssg63
g1981
sg56
(lp1988
g1378
asbasbasbasbasbasbasbasbasbasbasbag49
(g65
g51
NtRp1989
(dp1990
g54
(dp1991
sg63
g59
sg56
(lp1992
g49
(g70
g51
NtRp1993
(dp1994
g54
(dp1995
g74
g75
ssg63
g1989
sg56
(lp1996
S'is_https'
p1997
asbag49
(g70
g51
NtRp1998
(dp1999
g54
(dp2000
g81
g82
ssg63
g1989
sg56
(lp2001
S':'
asbag49
(g70
g51
NtRp2002
(dp2003
g54
(dp2004
sg63
g1989
sg56
(lp2005
g49
(g50
g51
NtRp2006
(dp2007
g54
(dp2008
g62
I5
ssg63
g2002
sg56
(lp2009
g92
asbasbasbag49
(g65
g51
NtRp2010
(dp2011
g54
(dp2012
sg63
g59
sg56
(lp2013
g49
(g70
g51
NtRp2014
(dp2015
g54
(dp2016
g74
g75
ssg63
g2010
sg56
(lp2017
S'is_local'
p2018
asbag49
(g70
g51
NtRp2019
(dp2020
g54
(dp2021
g81
g82
ssg63
g2010
sg56
(lp2022
S':'
asbag49
(g70
g51
NtRp2023
(dp2024
g54
(dp2025
sg63
g2010
sg56
(lp2026
g49
(g50
g51
NtRp2027
(dp2028
g54
(dp2029
g62
I5
ssg63
g2023
sg56
(lp2030
g1487
asbasbasbag49
(g65
g51
NtRp2031
(dp2032
g54
(dp2033
sg63
g59
sg56
(lp2034
g49
(g70
g51
NtRp2035
(dp2036
g54
(dp2037
g74
g75
ssg63
g2031
sg56
(lp2038
S'is_restful'
p2039
asbag49
(g70
g51
NtRp2040
(dp2041
g54
(dp2042
g81
g82
ssg63
g2031
sg56
(lp2043
S':'
asbag49
(g70
g51
NtRp2044
(dp2045
g54
(dp2046
sg63
g2031
sg56
(lp2047
g49
(g50
g51
NtRp2048
(dp2049
g54
(dp2050
g62
I5
ssg63
g2044
sg56
(lp2051
g92
asbasbasbag49
(g65
g51
NtRp2052
(dp2053
g54
(dp2054
sg63
g59
sg56
(lp2055
g49
(g70
g51
NtRp2056
(dp2057
g54
(dp2058
g74
g75
ssg63
g2052
sg56
(lp2059
S'now'
p2060
asbag49
(g70
g51
NtRp2061
(dp2062
g54
(dp2063
g81
g82
ssg63
g2052
sg56
(lp2064
S':'
asbag49
(g70
g51
NtRp2065
(dp2066
g54
(dp2067
sg63
g2052
sg56
(lp2068
g49
(g50
g51
NtRp2069
(dp2070
g54
(dp2071
g62
I5
ssg63
g2065
sg56
(lp2072
S'datetime.datetime(2012, 3, 21, 0, 28, 33, 23000)'
p2073
asbasbasbag49
(g65
g51
NtRp2074
(dp2075
g54
(dp2076
sg63
g59
sg56
(lp2077
g49
(g70
g51
NtRp2078
(dp2079
g54
(dp2080
g74
g75
ssg63
g2074
sg56
(lp2081
S'post_vars'
p2082
asbag49
(g70
g51
NtRp2083
(dp2084
g54
(dp2085
g81
g82
ssg63
g2074
sg56
(lp2086
S':'
asbag49
(g70
g51
NtRp2087
(dp2088
g54
(dp2089
sg63
g2074
sg56
(lp2090
g49
(g50
g51
NtRp2091
(dp2092
g54
(dp2093
g62
I5
ssg63
g2087
sg56
(lp2094
g49
(g58
g51
NtRp2095
(dp2096
g54
(dp2097
g62
I4
ssg63
Nsg56
(lp2098
sbasbasbasbag49
(g65
g51
NtRp2099
(dp2100
g54
(dp2101
sg63
g59
sg56
(lp2102
g49
(g70
g51
NtRp2103
(dp2104
g54
(dp2105
g74
g75
ssg63
g2099
sg56
(lp2106
S'url'
p2107
asbag49
(g70
g51
NtRp2108
(dp2109
g54
(dp2110
g81
g82
ssg63
g2099
sg56
(lp2111
S':'
asbag49
(g70
g51
NtRp2112
(dp2113
g54
(dp2114
sg63
g2099
sg56
(lp2115
g49
(g50
g51
NtRp2116
(dp2117
g54
(dp2118
g62
I5
ssg63
g2112
sg56
(lp2119
S'/webparley/admin/agregar_palabra'
p2120
asbasbasbag49
(g65
g51
NtRp2121
(dp2122
g54
(dp2123
sg63
g59
sg56
(lp2124
g49
(g70
g51
NtRp2125
(dp2126
g54
(dp2127
g74
g75
ssg63
g2121
sg56
(lp2128
S'utcnow'
p2129
asbag49
(g70
g51
NtRp2130
(dp2131
g54
(dp2132
g81
g82
ssg63
g2121
sg56
(lp2133
S':'
asbag49
(g70
g51
NtRp2134
(dp2135
g54
(dp2136
sg63
g2121
sg56
(lp2137
g49
(g50
g51
NtRp2138
(dp2139
g54
(dp2140
g62
I5
ssg63
g2134
sg56
(lp2141
S'datetime.datetime(2012, 3, 20, 23, 28, 33, 23000)'
p2142
asbasbasbag49
(g65
g51
NtRp2143
(dp2144
g54
(dp2145
sg63
g59
sg56
(lp2146
g49
(g70
g51
NtRp2147
(dp2148
g54
(dp2149
g74
g75
ssg63
g2143
sg56
(lp2150
S'uuid'
p2151
asbag49
(g70
g51
NtRp2152
(dp2153
g54
(dp2154
g81
g82
ssg63
g2143
sg56
(lp2155
S':'
asbag49
(g70
g51
NtRp2156
(dp2157
g54
(dp2158
sg63
g2143
sg56
(lp2159
g49
(g50
g51
NtRp2160
(dp2161
g54
(dp2162
g62
I5
ssg63
g2156
sg56
(lp2163
S'webparley/127.0.0.1.2012-03-21.00-28-33.ad9ffda8-6898-4e70-8f1f-a8a4dbd9726c'
p2164
asbasbasbag49
(g65
g51
NtRp2165
(dp2166
g54
(dp2167
sg63
g59
sg56
(lp2168
g49
(g70
g51
NtRp2169
(dp2170
g54
(dp2171
g74
g75
ssg63
g2165
sg56
(lp2172
S'vars'
p2173
asbag49
(g70
g51
NtRp2174
(dp2175
g54
(dp2176
g81
g82
ssg63
g2165
sg56
(lp2177
S':'
asbag49
(g70
g51
NtRp2178
(dp2179
g54
(dp2180
sg63
g2165
sg56
(lp2181
g49
(g50
g51
NtRp2182
(dp2183
g54
(dp2184
g62
I5
ssg63
g2178
sg56
(lp2185
g49
(g58
g51
NtRp2186
(dp2187
g54
(dp2188
g62
I4
ssg63
Nsg56
(lp2189
sbasbasbasbag49
(g65
g51
NtRp2190
(dp2191
g54
(dp2192
sg63
g59
sg56
(lp2193
g49
(g70
g51
NtRp2194
(dp2195
g54
(dp2196
g74
g75
ssg63
g2190
sg56
(lp2197
S'wsgi'
p2198
asbag49
(g70
g51
NtRp2199
(dp2200
g54
(dp2201
g81
g82
ssg63
g2190
sg56
(lp2202
S':'
asbag49
(g70
g51
NtRp2203
(dp2204
g54
(dp2205
sg63
g2190
sg56
(lp2206
g49
(g50
g51
NtRp2207
(dp2208
g54
(dp2209
g62
I5
ssg63
g2203
sg56
(lp2210
g49
(g58
g51
NtRp2211
(dp2212
g54
(dp2213
g62
I4
ssg63
Nsg56
(lp2214
g49
(g65
g51
NtRp2215
(dp2216
g54
(dp2217
sg63
g2211
sg56
(lp2218
g49
(g70
g51
NtRp2219
(dp2220
g54
(dp2221
g74
g75
ssg63
g2215
sg56
(lp2222
S'environ'
p2223
asbag49
(g70
g51
NtRp2224
(dp2225
g54
(dp2226
g81
g82
ssg63
g2215
sg56
(lp2227
S':'
asbag49
(g70
g51
NtRp2228
(dp2229
g54
(dp2230
sg63
g2215
sg56
(lp2231
g49
(g50
g51
NtRp2232
(dp2233
g54
(dp2234
g62
I4
ssg63
g2228
sg56
(lp2235
g49
(g58
g51
NtRp2236
(dp2237
g54
(dp2238
g62
I3
ssg63
Nsg56
(lp2239
g49
(g65
g51
NtRp2240
(dp2241
g54
(dp2242
sg63
g2236
sg56
(lp2243
g49
(g70
g51
NtRp2244
(dp2245
g54
(dp2246
g74
g75
ssg63
g2240
sg56
(lp2247
S'HTTP_ACCEPT'
p2248
asbag49
(g70
g51
NtRp2249
(dp2250
g54
(dp2251
g81
g82
ssg63
g2240
sg56
(lp2252
S':'
asbag49
(g70
g51
NtRp2253
(dp2254
g54
(dp2255
sg63
g2240
sg56
(lp2256
g49
(g50
g51
NtRp2257
(dp2258
g54
(dp2259
g62
I3
ssg63
g2253
sg56
(lp2260
g769
asbasbasbag49
(g65
g51
NtRp2261
(dp2262
g54
(dp2263
sg63
g2236
sg56
(lp2264
g49
(g70
g51
NtRp2265
(dp2266
g54
(dp2267
g74
g75
ssg63
g2261
sg56
(lp2268
S'HTTP_ACCEPT_ENCODING'
p2269
asbag49
(g70
g51
NtRp2270
(dp2271
g54
(dp2272
g81
g82
ssg63
g2261
sg56
(lp2273
S':'
asbag49
(g70
g51
NtRp2274
(dp2275
g54
(dp2276
sg63
g2261
sg56
(lp2277
g49
(g50
g51
NtRp2278
(dp2279
g54
(dp2280
g62
I3
ssg63
g2274
sg56
(lp2281
g791
asbasbasbag49
(g65
g51
NtRp2282
(dp2283
g54
(dp2284
sg63
g2236
sg56
(lp2285
g49
(g70
g51
NtRp2286
(dp2287
g54
(dp2288
g74
g75
ssg63
g2282
sg56
(lp2289
S'HTTP_ACCEPT_LANGUAGE'
p2290
asbag49
(g70
g51
NtRp2291
(dp2292
g54
(dp2293
g81
g82
ssg63
g2282
sg56
(lp2294
S':'
asbag49
(g70
g51
NtRp2295
(dp2296
g54
(dp2297
sg63
g2282
sg56
(lp2298
g49
(g50
g51
NtRp2299
(dp2300
g54
(dp2301
g62
I3
ssg63
g2295
sg56
(lp2302
g813
asbasbasbag49
(g65
g51
NtRp2303
(dp2304
g54
(dp2305
sg63
g2236
sg56
(lp2306
g49
(g70
g51
NtRp2307
(dp2308
g54
(dp2309
g74
g75
ssg63
g2303
sg56
(lp2310
S'HTTP_CACHE_CONTROL'
p2311
asbag49
(g70
g51
NtRp2312
(dp2313
g54
(dp2314
g81
g82
ssg63
g2303
sg56
(lp2315
S':'
asbag49
(g70
g51
NtRp2316
(dp2317
g54
(dp2318
sg63
g2303
sg56
(lp2319
g49
(g50
g51
NtRp2320
(dp2321
g54
(dp2322
g62
I3
ssg63
g2316
sg56
(lp2323
g835
asbasbasbag49
(g65
g51
NtRp2324
(dp2325
g54
(dp2326
sg63
g2236
sg56
(lp2327
g49
(g70
g51
NtRp2328
(dp2329
g54
(dp2330
g74
g75
ssg63
g2324
sg56
(lp2331
S'HTTP_CONNECTION'
p2332
asbag49
(g70
g51
NtRp2333
(dp2334
g54
(dp2335
g81
g82
ssg63
g2324
sg56
(lp2336
S':'
asbag49
(g70
g51
NtRp2337
(dp2338
g54
(dp2339
sg63
g2324
sg56
(lp2340
g49
(g50
g51
NtRp2341
(dp2342
g54
(dp2343
g62
I3
ssg63
g2337
sg56
(lp2344
g857
asbasbasbag49
(g65
g51
NtRp2345
(dp2346
g54
(dp2347
sg63
g2236
sg56
(lp2348
g49
(g70
g51
NtRp2349
(dp2350
g54
(dp2351
g74
g75
ssg63
g2345
sg56
(lp2352
S'HTTP_COOKIE'
p2353
asbag49
(g70
g51
NtRp2354
(dp2355
g54
(dp2356
g81
g82
ssg63
g2345
sg56
(lp2357
S':'
asbag49
(g70
g51
NtRp2358
(dp2359
g54
(dp2360
sg63
g2345
sg56
(lp2361
g49
(g50
g51
NtRp2362
(dp2363
g54
(dp2364
g62
I3
ssg63
g2358
sg56
(lp2365
g879
asbasbasbag49
(g65
g51
NtRp2366
(dp2367
g54
(dp2368
sg63
g2236
sg56
(lp2369
g49
(g70
g51
NtRp2370
(dp2371
g54
(dp2372
g74
g75
ssg63
g2366
sg56
(lp2373
S'HTTP_HOST'
p2374
asbag49
(g70
g51
NtRp2375
(dp2376
g54
(dp2377
g81
g82
ssg63
g2366
sg56
(lp2378
S':'
asbag49
(g70
g51
NtRp2379
(dp2380
g54
(dp2381
sg63
g2366
sg56
(lp2382
g49
(g50
g51
NtRp2383
(dp2384
g54
(dp2385
g62
I3
ssg63
g2379
sg56
(lp2386
g901
asbasbasbag49
(g65
g51
NtRp2387
(dp2388
g54
(dp2389
sg63
g2236
sg56
(lp2390
g49
(g70
g51
NtRp2391
(dp2392
g54
(dp2393
g74
g75
ssg63
g2387
sg56
(lp2394
S'HTTP_REFERER'
p2395
asbag49
(g70
g51
NtRp2396
(dp2397
g54
(dp2398
g81
g82
ssg63
g2387
sg56
(lp2399
S':'
asbag49
(g70
g51
NtRp2400
(dp2401
g54
(dp2402
sg63
g2387
sg56
(lp2403
g49
(g50
g51
NtRp2404
(dp2405
g54
(dp2406
g62
I3
ssg63
g2400
sg56
(lp2407
g923
asbasbasbag49
(g65
g51
NtRp2408
(dp2409
g54
(dp2410
sg63
g2236
sg56
(lp2411
g49
(g70
g51
NtRp2412
(dp2413
g54
(dp2414
g74
g75
ssg63
g2408
sg56
(lp2415
S'HTTP_USER_AGENT'
p2416
asbag49
(g70
g51
NtRp2417
(dp2418
g54
(dp2419
g81
g82
ssg63
g2408
sg56
(lp2420
S':'
asbag49
(g70
g51
NtRp2421
(dp2422
g54
(dp2423
sg63
g2408
sg56
(lp2424
g49
(g50
g51
NtRp2425
(dp2426
g54
(dp2427
g62
I3
ssg63
g2421
sg56
(lp2428
g945
asbasbasbag49
(g65
g51
NtRp2429
(dp2430
g54
(dp2431
sg63
g2236
sg56
(lp2432
g49
(g70
g51
NtRp2433
(dp2434
g54
(dp2435
g74
g75
ssg63
g2429
sg56
(lp2436
S'PATH_INFO'
p2437
asbag49
(g70
g51
NtRp2438
(dp2439
g54
(dp2440
g81
g82
ssg63
g2429
sg56
(lp2441
S':'
asbag49
(g70
g51
NtRp2442
(dp2443
g54
(dp2444
sg63
g2429
sg56
(lp2445
g49
(g50
g51
NtRp2446
(dp2447
g54
(dp2448
g62
I3
ssg63
g2442
sg56
(lp2449
g1009
asbasbasbag49
(g65
g51
NtRp2450
(dp2451
g54
(dp2452
sg63
g2236
sg56
(lp2453
g49
(g70
g51
NtRp2454
(dp2455
g54
(dp2456
g74
g75
ssg63
g2450
sg56
(lp2457
S'QUERY_STRING'
p2458
asbag49
(g70
g51
NtRp2459
(dp2460
g54
(dp2461
g81
g82
ssg63
g2450
sg56
(lp2462
S':'
asbag49
(g70
g51
NtRp2463
(dp2464
g54
(dp2465
sg63
g2450
sg56
(lp2466
g49
(g50
g51
NtRp2467
(dp2468
g54
(dp2469
g62
I3
ssg63
g2463
sg56
(lp2470
S''
asbasbasbag49
(g65
g51
NtRp2471
(dp2472
g54
(dp2473
sg63
g2236
sg56
(lp2474
g49
(g70
g51
NtRp2475
(dp2476
g54
(dp2477
g74
g75
ssg63
g2471
sg56
(lp2478
S'REMOTE_ADDR'
p2479
asbag49
(g70
g51
NtRp2480
(dp2481
g54
(dp2482
g81
g82
ssg63
g2471
sg56
(lp2483
S':'
asbag49
(g70
g51
NtRp2484
(dp2485
g54
(dp2486
sg63
g2471
sg56
(lp2487
g49
(g50
g51
NtRp2488
(dp2489
g54
(dp2490
g62
I3
ssg63
g2484
sg56
(lp2491
g182
asbasbasbag49
(g65
g51
NtRp2492
(dp2493
g54
(dp2494
sg63
g2236
sg56
(lp2495
g49
(g70
g51
NtRp2496
(dp2497
g54
(dp2498
g74
g75
ssg63
g2492
sg56
(lp2499
S'REMOTE_PORT'
p2500
asbag49
(g70
g51
NtRp2501
(dp2502
g54
(dp2503
g81
g82
ssg63
g2492
sg56
(lp2504
S':'
asbag49
(g70
g51
NtRp2505
(dp2506
g54
(dp2507
sg63
g2492
sg56
(lp2508
g49
(g50
g51
NtRp2509
(dp2510
g54
(dp2511
g62
I3
ssg63
g2505
sg56
(lp2512
g1073
asbasbasbag49
(g65
g51
NtRp2513
(dp2514
g54
(dp2515
sg63
g2236
sg56
(lp2516
g49
(g70
g51
NtRp2517
(dp2518
g54
(dp2519
g74
g75
ssg63
g2513
sg56
(lp2520
S'REQUEST_METHOD'
p2521
asbag49
(g70
g51
NtRp2522
(dp2523
g54
(dp2524
g81
g82
ssg63
g2513
sg56
(lp2525
S':'
asbag49
(g70
g51
NtRp2526
(dp2527
g54
(dp2528
sg63
g2513
sg56
(lp2529
g49
(g50
g51
NtRp2530
(dp2531
g54
(dp2532
g62
I3
ssg63
g2526
sg56
(lp2533
g1095
asbasbasbag49
(g65
g51
NtRp2534
(dp2535
g54
(dp2536
sg63
g2236
sg56
(lp2537
g49
(g70
g51
NtRp2538
(dp2539
g54
(dp2540
g74
g75
ssg63
g2534
sg56
(lp2541
S'REQUEST_URI'
p2542
asbag49
(g70
g51
NtRp2543
(dp2544
g54
(dp2545
g81
g82
ssg63
g2534
sg56
(lp2546
S':'
asbag49
(g70
g51
NtRp2547
(dp2548
g54
(dp2549
sg63
g2534
sg56
(lp2550
g49
(g50
g51
NtRp2551
(dp2552
g54
(dp2553
g62
I3
ssg63
g2547
sg56
(lp2554
g1009
asbasbasbag49
(g65
g51
NtRp2555
(dp2556
g54
(dp2557
sg63
g2236
sg56
(lp2558
g49
(g70
g51
NtRp2559
(dp2560
g54
(dp2561
g74
g75
ssg63
g2555
sg56
(lp2562
S'SCRIPT_NAME'
p2563
asbag49
(g70
g51
NtRp2564
(dp2565
g54
(dp2566
g81
g82
ssg63
g2555
sg56
(lp2567
S':'
asbag49
(g70
g51
NtRp2568
(dp2569
g54
(dp2570
sg63
g2555
sg56
(lp2571
g49
(g50
g51
NtRp2572
(dp2573
g54
(dp2574
g62
I3
ssg63
g2568
sg56
(lp2575
S''
asbasbasbag49
(g65
g51
NtRp2576
(dp2577
g54
(dp2578
sg63
g2236
sg56
(lp2579
g49
(g70
g51
NtRp2580
(dp2581
g54
(dp2582
g74
g75
ssg63
g2576
sg56
(lp2583
S'SERVER_NAME'
p2584
asbag49
(g70
g51
NtRp2585
(dp2586
g54
(dp2587
g81
g82
ssg63
g2576
sg56
(lp2588
S':'
asbag49
(g70
g51
NtRp2589
(dp2590
g54
(dp2591
sg63
g2576
sg56
(lp2592
g49
(g50
g51
NtRp2593
(dp2594
g54
(dp2595
g62
I3
ssg63
g2589
sg56
(lp2596
g1159
asbasbasbag49
(g65
g51
NtRp2597
(dp2598
g54
(dp2599
sg63
g2236
sg56
(lp2600
g49
(g70
g51
NtRp2601
(dp2602
g54
(dp2603
g74
g75
ssg63
g2597
sg56
(lp2604
S'SERVER_PORT'
p2605
asbag49
(g70
g51
NtRp2606
(dp2607
g54
(dp2608
g81
g82
ssg63
g2597
sg56
(lp2609
S':'
asbag49
(g70
g51
NtRp2610
(dp2611
g54
(dp2612
sg63
g2597
sg56
(lp2613
g49
(g50
g51
NtRp2614
(dp2615
g54
(dp2616
g62
I3
ssg63
g2610
sg56
(lp2617
g1181
asbasbasbag49
(g65
g51
NtRp2618
(dp2619
g54
(dp2620
sg63
g2236
sg56
(lp2621
g49
(g70
g51
NtRp2622
(dp2623
g54
(dp2624
g74
g75
ssg63
g2618
sg56
(lp2625
S'SERVER_PROTOCOL'
p2626
asbag49
(g70
g51
NtRp2627
(dp2628
g54
(dp2629
g81
g82
ssg63
g2618
sg56
(lp2630
S':'
asbag49
(g70
g51
NtRp2631
(dp2632
g54
(dp2633
sg63
g2618
sg56
(lp2634
g49
(g50
g51
NtRp2635
(dp2636
g54
(dp2637
g62
I3
ssg63
g2631
sg56
(lp2638
g1203
asbasbasbag49
(g65
g51
NtRp2639
(dp2640
g54
(dp2641
sg63
g2236
sg56
(lp2642
g49
(g70
g51
NtRp2643
(dp2644
g54
(dp2645
g74
g75
ssg63
g2639
sg56
(lp2646
S'SERVER_SOFTWARE'
p2647
asbag49
(g70
g51
NtRp2648
(dp2649
g54
(dp2650
g81
g82
ssg63
g2639
sg56
(lp2651
S':'
asbag49
(g70
g51
NtRp2652
(dp2653
g54
(dp2654
sg63
g2639
sg56
(lp2655
g49
(g50
g51
NtRp2656
(dp2657
g54
(dp2658
g62
I3
ssg63
g2652
sg56
(lp2659
g1225
asbasbasbag49
(g65
g51
NtRp2660
(dp2661
g54
(dp2662
sg63
g2236
sg56
(lp2663
g49
(g70
g51
NtRp2664
(dp2665
g54
(dp2666
g74
g75
ssg63
g2660
sg56
(lp2667
S'WEB2PY_ORIGINAL_URI'
p2668
asbag49
(g70
g51
NtRp2669
(dp2670
g54
(dp2671
g81
g82
ssg63
g2660
sg56
(lp2672
S':'
asbag49
(g70
g51
NtRp2673
(dp2674
g54
(dp2675
sg63
g2660
sg56
(lp2676
g49
(g50
g51
NtRp2677
(dp2678
g54
(dp2679
g62
I3
ssg63
g2673
sg56
(lp2680
g1269
asbasbasbag49
(g65
g51
NtRp2681
(dp2682
g54
(dp2683
sg63
g2236
sg56
(lp2684
g49
(g70
g51
NtRp2685
(dp2686
g54
(dp2687
g74
g75
ssg63
g2681
sg56
(lp2688
S'wsgi.errors'
p2689
asbag49
(g70
g51
NtRp2690
(dp2691
g54
(dp2692
g81
g82
ssg63
g2681
sg56
(lp2693
S':'
asbag49
(g70
g51
NtRp2694
(dp2695
g54
(dp2696
sg63
g2681
sg56
(lp2697
g49
(g50
g51
NtRp2698
(dp2699
g54
(dp2700
g62
I3
ssg63
g2694
sg56
(lp2701
S"<open file '<stderr>', mode 'w' at 0x004200B0>"
p2702
asbasbasbag49
(g65
g51
NtRp2703
(dp2704
g54
(dp2705
sg63
g2236
sg56
(lp2706
g49
(g70
g51
NtRp2707
(dp2708
g54
(dp2709
g74
g75
ssg63
g2703
sg56
(lp2710
S'wsgi.file_wrapper'
p2711
asbag49
(g70
g51
NtRp2712
(dp2713
g54
(dp2714
g81
g82
ssg63
g2703
sg56
(lp2715
S':'
asbag49
(g70
g51
NtRp2716
(dp2717
g54
(dp2718
sg63
g2703
sg56
(lp2719
g49
(g50
g51
NtRp2720
(dp2721
g54
(dp2722
g62
I3
ssg63
g2716
sg56
(lp2723
S'<class wsgiref.util.FileWrapper at 0x02B69390>'
p2724
asbasbasbag49
(g65
g51
NtRp2725
(dp2726
g54
(dp2727
sg63
g2236
sg56
(lp2728
g49
(g70
g51
NtRp2729
(dp2730
g54
(dp2731
g74
g75
ssg63
g2725
sg56
(lp2732
S'wsgi.input'
p2733
asbag49
(g70
g51
NtRp2734
(dp2735
g54
(dp2736
g81
g82
ssg63
g2725
sg56
(lp2737
S':'
asbag49
(g70
g51
NtRp2738
(dp2739
g54
(dp2740
sg63
g2725
sg56
(lp2741
g49
(g50
g51
NtRp2742
(dp2743
g54
(dp2744
g62
I3
ssg63
g2738
sg56
(lp2745
S'<cStringIO.StringO object at 0x02F4FFC0>'
p2746
asbasbasbag49
(g65
g51
NtRp2747
(dp2748
g54
(dp2749
sg63
g2236
sg56
(lp2750
g49
(g70
g51
NtRp2751
(dp2752
g54
(dp2753
g74
g75
ssg63
g2747
sg56
(lp2754
S'wsgi.multiprocess'
p2755
asbag49
(g70
g51
NtRp2756
(dp2757
g54
(dp2758
g81
g82
ssg63
g2747
sg56
(lp2759
S':'
asbag49
(g70
g51
NtRp2760
(dp2761
g54
(dp2762
sg63
g2747
sg56
(lp2763
g49
(g50
g51
NtRp2764
(dp2765
g54
(dp2766
g62
I3
ssg63
g2760
sg56
(lp2767
g92
asbasbasbag49
(g65
g51
NtRp2768
(dp2769
g54
(dp2770
sg63
g2236
sg56
(lp2771
g49
(g70
g51
NtRp2772
(dp2773
g54
(dp2774
g74
g75
ssg63
g2768
sg56
(lp2775
S'wsgi.multithread'
p2776
asbag49
(g70
g51
NtRp2777
(dp2778
g54
(dp2779
g81
g82
ssg63
g2768
sg56
(lp2780
S':'
asbag49
(g70
g51
NtRp2781
(dp2782
g54
(dp2783
sg63
g2768
sg56
(lp2784
g49
(g50
g51
NtRp2785
(dp2786
g54
(dp2787
g62
I3
ssg63
g2781
sg56
(lp2788
g1487
asbasbasbag49
(g65
g51
NtRp2789
(dp2790
g54
(dp2791
sg63
g2236
sg56
(lp2792
g49
(g70
g51
NtRp2793
(dp2794
g54
(dp2795
g74
g75
ssg63
g2789
sg56
(lp2796
S'wsgi.run_once'
p2797
asbag49
(g70
g51
NtRp2798
(dp2799
g54
(dp2800
g81
g82
ssg63
g2789
sg56
(lp2801
S':'
asbag49
(g70
g51
NtRp2802
(dp2803
g54
(dp2804
sg63
g2789
sg56
(lp2805
g49
(g50
g51
NtRp2806
(dp2807
g54
(dp2808
g62
I3
ssg63
g2802
sg56
(lp2809
g92
asbasbasbag49
(g65
g51
NtRp2810
(dp2811
g54
(dp2812
sg63
g2236
sg56
(lp2813
g49
(g70
g51
NtRp2814
(dp2815
g54
(dp2816
g74
g75
ssg63
g2810
sg56
(lp2817
S'wsgi.url_scheme'
p2818
asbag49
(g70
g51
NtRp2819
(dp2820
g54
(dp2821
g81
g82
ssg63
g2810
sg56
(lp2822
S':'
asbag49
(g70
g51
NtRp2823
(dp2824
g54
(dp2825
sg63
g2810
sg56
(lp2826
g49
(g50
g51
NtRp2827
(dp2828
g54
(dp2829
g62
I3
ssg63
g2823
sg56
(lp2830
g1530
asbasbasbag49
(g65
g51
NtRp2831
(dp2832
g54
(dp2833
sg63
g2236
sg56
(lp2834
g49
(g70
g51
NtRp2835
(dp2836
g54
(dp2837
g74
g75
ssg63
g2831
sg56
(lp2838
S'wsgi.version'
p2839
asbag49
(g70
g51
NtRp2840
(dp2841
g54
(dp2842
g81
g82
ssg63
g2831
sg56
(lp2843
S':'
asbag49
(g70
g51
NtRp2844
(dp2845
g54
(dp2846
sg63
g2831
sg56
(lp2847
g49
(g50
g51
NtRp2848
(dp2849
g54
(dp2850
g62
I3
ssg63
g2844
sg56
(lp2851
S'1'
asbasbasbasbasbasbasbasbasbasbasbasbasbsS'frames'
p2852
(lp2853
(dp2854
S'file'
p2855
S'D:\\Dise\xf1o Web\\Proyectos\\Parleyweb\\web2py\\gluon\\restricted.py'
p2856
sS'dump'
p2857
(dp2858
sS'lnum'
p2859
I205
sS'lines'
p2860
(dp2861
sS'call'
p2862
S"(code='# coding: utf8\\n# intente algo como\\ndef index():\\n...response._vars=response._caller(agregar_palabra)\\n', environment={'A': <class 'gluon.html.A'>, 'Auth': <class 'gluon.tools.Auth'>, 'B': <class 'gluon.html.B'>, 'BEAUTIFY': <class 'gluon.html.BEAUTIFY'>, 'BODY': <class 'gluon.html.BODY'>, 'BR': <class 'gluon.html.BR'>, 'BUTTON': <class 'gluon.html.BUTTON'>, 'CAT': <class 'gluon.html.CAT'>, 'CENTER': <class 'gluon.html.CENTER'>, 'CLEANUP': <class 'gluon.validators.CLEANUP'>, ...}, layer='D:\\\\Dise\\xf1o Web\\\\Proyectos\\\\Parleyweb\\\\web2py\\\\applications\\\\webparley\\\\controllers/admin.py')"
p2863
sS'func'
p2864
S'restricted'
p2865
sa(dp2866
g2855
S'D:\\Dise\xf1o Web\\Proyectos\\Parleyweb\\web2py\\applications\\webparley\\controllers\\admin.py'
p2867
sg2857
(dp2868
sg2859
I278
sg2860
(dp2869
I267
S''
sI268
S''
sI269
S''
sI270
S''
sI271
S''
sI272
S''
sI273
S''
sI274
S''
sI275
S''
sI276
S''
ssg2862
S'()'
p2870
sg2864
S'<module>'
p2871
sa(dp2872
g2855
S'D:\\Dise\xf1o Web\\Proyectos\\Parleyweb\\web2py\\gluon\\globals.py'
p2873
sg2857
(dp2874
sg2859
I173
sg2860
(dp2875
sg2862
S'(f=<function agregar_palabra at 0x061A9D70>)'
p2876
sg2864
S'<lambda>'
p2877
sa(dp2878
g2855
S'D:\\Dise\xf1o Web\\Proyectos\\Parleyweb\\web2py\\applications\\webparley\\controllers\\admin.py'
p2879
sg2857
(dp2880
sg2859
I34
sg2860
(dp2881
I32
S'        db.palabras.palabra.default = request.vars.a'
p2882
sI33
S"    db.palabras.palabra.requires = IS_NOT_IN_DB(db,'palabras.palabra') # Validacion para  la palabra que se inserte no puede estar ya en la DB"
p2883
sI34
S'    agregar = SQLFORM(db.palabras, formstyle="divs", _id="form-agregar", submit_button="Enviar" , _autocomplete="off") # se genera el formulario para la tabla palabras'
p2884
sI35
S'    if agregar.accepts(request.vars, session): #metodo para validar las entradas del formulario'
p2885
sI36
S"       redirect(URL('buscar_ejemplos', vars=dict(a=request.post_vars.palabra)))"
p2886
sI37
S"       #response.flash = 'Registro insertado' # mensajes del sistema"
p2887
sI38
S'    elif agregar.errors:  # Metodo usado para cuando se producen errores'
p2888
sI29
S"        session.flash = 'Intenta ingresar una nueva palabra en la busqueda'"
p2889
sI30
S"        redirect(URL('index'))"
p2890
sI31
S'    else:'
p2891
ssg2862
S'()'
p2892
sg2864
S'agregar_palabra'
p2893
sa(dp2894
g2855
S'D:\\Dise\xf1o Web\\Proyectos\\Parleyweb\\web2py\\gluon\\sqlhtml.py'
p2895
sg2857
(dp2896
sg2859
I870
sg2860
(dp2897
sg2862
S"(self=<gluon.sqlhtml.SQLFORM object at 0x05CE4510>, table=<Table {'presente_1': <gluon.dal.Field object at..., '_id': <gluon.dal.Field object at 0x05CE4F30>}>, record=None, deletable=False, linkto=None, upload=None, fields=['id', 'palabra', 'sustantivo', 'articulo', 'plural', 'imagen', 'adverbio', 'adjetivo', 'verbo', 'verbo_irregular', 'participio2', 'reflexivo', 'presente_1', 'presente_2', 'presente_3', 'presente_1_p', 'presente_2_p', 'presente_3_p', 'anadir_glosario', 'glosario'], labels=None, col3={}, submit_button='Enviar', delete_label='Check to delete', showid=True, readonly=False, comments=True, keepopts=[], ignore_rw=False, record_id=None, formstyle='divs', buttons=['submit'], separator=': ', **attributes={'_autocomplete': 'off', '_id': 'form-agregar'})"
p2898
sg2864
g42
sa(dp2899
g2855
S'D:\\Dise\xf1o Web\\Proyectos\\Parleyweb\\web2py\\gluon\\sqlhtml.py'
p2900
sg2857
(dp2901
sg2859
I283
sg2860
(dp2902
sg2862
S"(cls=<class 'gluon.sqlhtml.MultipleOptionsWidget'>, field=<gluon.dal.Field object at 0x05CE43B0>, value=None, size=5, **attributes={'_multiple': True, '_size': 5})"
p2903
sg2864
S'widget'
p2904
sa(dp2905
g2855
S'D:\\Dise\xf1o Web\\Proyectos\\Parleyweb\\web2py\\gluon\\sqlhtml.py'
p2906
sg2857
(dp2907
sg2859
I216
sg2860
(dp2908
sg2862
S"(cls=<class 'gluon.sqlhtml.OptionsWidget'>, field=<gluon.dal.Field object at 0x05CE43B0>, value=None, **attributes={'_multiple': True, '_size': 5})"
p2909
sg2864
g2904
sa(dp2910
g2855
S'D:\\Dise\xf1o Web\\Proyectos\\Parleyweb\\web2py\\gluon\\validators.py'
p2911
sg2857
(dp2912
sg2859
I465
sg2860
(dp2913
sg2862
S'(self=<gluon.validators.IS_IN_DB object at 0x05CE48B0>, zero=True)'
p2914
sg2864
S'options'
p2915
sa(dp2916
g2855
S'D:\\Dise\xf1o Web\\Proyectos\\Parleyweb\\web2py\\gluon\\validators.py'
p2917
sg2857
(dp2918
sg2859
I447
sg2860
(dp2919
sg2862
S'(self=<gluon.validators.IS_IN_DB object at 0x05CE48B0>)'
p2920
sg2864
S'build_set'
p2921
sa(dp2922
g2855
S'D:\\Dise\xf1o Web\\Proyectos\\Parleyweb\\web2py\\gluon\\dal.py'
p2923
sg2857
(dp2924
sg2859
I6714
sg2860
(dp2925
sg2862
S"(self=<Table {'ALL': <gluon.dal.SQLALL object at 0x05D...>, 'id': <gluon.dal.Field object at 0x05DF1910>}>, key='descripcion_glosario')"
p2926
sg2864
g20
sasS'pyver'
p2927
S'Python 2.5.4: D:\\Dise\xf1o Web\\Proyectos\\Parleyweb\\web2py\\web2py.exe'
p2928
sS'session'
p2929
g49
(g50
g51
NtRp2930
(dp2931
g54
(dp2932
sg56
(lp2933
g49
(g58
g51
NtRp2934
(dp2935
g54
(dp2936
g62
I5
ssg63
Nsg56
(lp2937
sbasbsS'etype'
p2938
S"<type 'exceptions.KeyError'>"
p2939
sS'date'
p2940
S'Wed Mar 21 00:28:33 2012'
p2941
sS'response'
p2942
g49
(g50
g51
NtRp2943
(dp2944
g54
(dp2945
sg56
(lp2946
g49
(g58
g51
NtRp2947
(dp2948
g54
(dp2949
g62
I5
ssg63
Nsg56
(lp2950
g49
(g65
g51
NtRp2951
(dp2952
g54
(dp2953
sg63
g2947
sg56
(lp2954
g49
(g70
g51
NtRp2955
(dp2956
g54
(dp2957
g74
g75
ssg63
g2951
sg56
(lp2958
g147
asbag49
(g70
g51
NtRp2959
(dp2960
g54
(dp2961
g81
g82
ssg63
g2951
sg56
(lp2962
S':'
asbag49
(g70
g51
NtRp2963
(dp2964
g54
(dp2965
sg63
g2951
sg56
(lp2966
g49
(g50
g51
NtRp2967
(dp2968
g54
(dp2969
g62
I5
ssg63
g2963
sg56
(lp2970
S'<cStringIO.StringO object at 0x02F31560>'
p2971
asbasbasbag49
(g65
g51
NtRp2972
(dp2973
g54
(dp2974
sg63
g2947
sg56
(lp2975
g49
(g70
g51
NtRp2976
(dp2977
g54
(dp2978
g74
g75
ssg63
g2972
sg56
(lp2979
g213
asbag49
(g70
g51
NtRp2980
(dp2981
g54
(dp2982
g81
g82
ssg63
g2972
sg56
(lp2983
S':'
asbag49
(g70
g51
NtRp2984
(dp2985
g54
(dp2986
sg63
g2972
sg56
(lp2987
g49
(g50
g51
NtRp2988
(dp2989
g54
(dp2990
g62
I5
ssg63
g2984
sg56
(lp2991
g49
(g58
g51
NtRp2992
(dp2993
g54
(dp2994
g62
I4
ssg63
Nsg56
(lp2995
g49
(g65
g51
NtRp2996
(dp2997
g54
(dp2998
sg63
g2992
sg56
(lp2999
g49
(g70
g51
NtRp3000
(dp3001
g54
(dp3002
g74
g75
ssg63
g2996
sg56
(lp3003
S'session_id_webparley'
p3004
asbag49
(g70
g51
NtRp3005
(dp3006
g54
(dp3007
g81
g82
ssg63
g2996
sg56
(lp3008
S':'
asbag49
(g70
g51
NtRp3009
(dp3010
g54
(dp3011
sg63
g2996
sg56
(lp3012
g49
(g50
g51
NtRp3013
(dp3014
g54
(dp3015
g62
I4
ssg63
g3009
sg56
(lp3016
g49
(g58
g51
NtRp3017
(dp3018
g54
(dp3019
g62
I3
ssg63
Nsg56
(lp3020
g49
(g65
g51
NtRp3021
(dp3022
g54
(dp3023
sg63
g3017
sg56
(lp3024
g49
(g70
g51
NtRp3025
(dp3026
g54
(dp3027
g74
g75
ssg63
g3021
sg56
(lp3028
g263
asbag49
(g70
g51
NtRp3029
(dp3030
g54
(dp3031
g81
g82
ssg63
g3021
sg56
(lp3032
S':'
asbag49
(g70
g51
NtRp3033
(dp3034
g54
(dp3035
sg63
g3021
sg56
(lp3036
g49
(g50
g51
NtRp3037
(dp3038
g54
(dp3039
g62
I3
ssg63
g3033
sg56
(lp3040
S''
asbasbasbag49
(g65
g51
NtRp3041
(dp3042
g54
(dp3043
sg63
g3017
sg56
(lp3044
g49
(g70
g51
NtRp3045
(dp3046
g54
(dp3047
g74
g75
ssg63
g3041
sg56
(lp3048
g284
asbag49
(g70
g51
NtRp3049
(dp3050
g54
(dp3051
g81
g82
ssg63
g3041
sg56
(lp3052
S':'
asbag49
(g70
g51
NtRp3053
(dp3054
g54
(dp3055
sg63
g3041
sg56
(lp3056
g49
(g50
g51
NtRp3057
(dp3058
g54
(dp3059
g62
I3
ssg63
g3053
sg56
(lp3060
S''
asbasbasbag49
(g65
g51
NtRp3061
(dp3062
g54
(dp3063
sg63
g3017
sg56
(lp3064
g49
(g70
g51
NtRp3065
(dp3066
g54
(dp3067
g74
g75
ssg63
g3061
sg56
(lp3068
g305
asbag49
(g70
g51
NtRp3069
(dp3070
g54
(dp3071
g81
g82
ssg63
g3061
sg56
(lp3072
S':'
asbag49
(g70
g51
NtRp3073
(dp3074
g54
(dp3075
sg63
g3061
sg56
(lp3076
g49
(g50
g51
NtRp3077
(dp3078
g54
(dp3079
g62
I3
ssg63
g3073
sg56
(lp3080
S''
asbasbasbag49
(g65
g51
NtRp3081
(dp3082
g54
(dp3083
sg63
g3017
sg56
(lp3084
g49
(g70
g51
NtRp3085
(dp3086
g54
(dp3087
g74
g75
ssg63
g3081
sg56
(lp3088
g326
asbag49
(g70
g51
NtRp3089
(dp3090
g54
(dp3091
g81
g82
ssg63
g3081
sg56
(lp3092
S':'
asbag49
(g70
g51
NtRp3093
(dp3094
g54
(dp3095
sg63
g3081
sg56
(lp3096
g49
(g50
g51
NtRp3097
(dp3098
g54
(dp3099
g62
I3
ssg63
g3093
sg56
(lp3100
S''
asbasbasbag49
(g65
g51
NtRp3101
(dp3102
g54
(dp3103
sg63
g3017
sg56
(lp3104
g49
(g70
g51
NtRp3105
(dp3106
g54
(dp3107
g74
g75
ssg63
g3101
sg56
(lp3108
g347
asbag49
(g70
g51
NtRp3109
(dp3110
g54
(dp3111
g81
g82
ssg63
g3101
sg56
(lp3112
S':'
asbag49
(g70
g51
NtRp3113
(dp3114
g54
(dp3115
sg63
g3101
sg56
(lp3116
g49
(g50
g51
NtRp3117
(dp3118
g54
(dp3119
g62
I3
ssg63
g3113
sg56
(lp3120
S'/'
asbasbasbag49
(g65
g51
NtRp3121
(dp3122
g54
(dp3123
sg63
g3017
sg56
(lp3124
g49
(g70
g51
NtRp3125
(dp3126
g54
(dp3127
g74
g75
ssg63
g3121
sg56
(lp3128
g368
asbag49
(g70
g51
NtRp3129
(dp3130
g54
(dp3131
g81
g82
ssg63
g3121
sg56
(lp3132
S':'
asbag49
(g70
g51
NtRp3133
(dp3134
g54
(dp3135
sg63
g3121
sg56
(lp3136
g49
(g50
g51
NtRp3137
(dp3138
g54
(dp3139
g62
I3
ssg63
g3133
sg56
(lp3140
S''
asbasbasbag49
(g65
g51
NtRp3141
(dp3142
g54
(dp3143
sg63
g3017
sg56
(lp3144
g49
(g70
g51
NtRp3145
(dp3146
g54
(dp3147
g74
g75
ssg63
g3141
sg56
(lp3148
g389
asbag49
(g70
g51
NtRp3149
(dp3150
g54
(dp3151
g81
g82
ssg63
g3141
sg56
(lp3152
S':'
asbag49
(g70
g51
NtRp3153
(dp3154
g54
(dp3155
sg63
g3141
sg56
(lp3156
g49
(g50
g51
NtRp3157
(dp3158
g54
(dp3159
g62
I3
ssg63
g3153
sg56
(lp3160
S''
asbasbasbasbasbasbasbasbasbasbasbag49
(g65
g51
NtRp3161
(dp3162
g54
(dp3163
sg63
g2947
sg56
(lp3164
g49
(g70
g51
NtRp3165
(dp3166
g54
(dp3167
g74
g75
ssg63
g3161
sg56
(lp3168
S'delimiters'
p3169
asbag49
(g70
g51
NtRp3170
(dp3171
g54
(dp3172
g81
g82
ssg63
g3161
sg56
(lp3173
S':'
asbag49
(g70
g51
NtRp3174
(dp3175
g54
(dp3176
sg63
g3161
sg56
(lp3177
g49
(g50
g51
NtRp3178
(dp3179
g54
(dp3180
g62
I5
ssg63
g3174
sg56
(lp3181
g49
(g58
g51
NtRp3182
(dp3183
g54
(dp3184
g62
I4
ssg63
Nsg56
(lp3185
g49
(g65
g51
NtRp3186
(dp3187
g54
(dp3188
sg63
g3182
sg56
(lp3189
g49
(g70
g51
NtRp3190
(dp3191
g54
(dp3192
sg63
g3186
sg56
(lp3193
g49
(g50
g51
NtRp3194
(dp3195
g54
(dp3196
g62
I4
ssg63
g3190
sg56
(lp3197
S'{{'
p3198
asbasbasbag49
(g65
g51
NtRp3199
(dp3200
g54
(dp3201
sg63
g3182
sg56
(lp3202
g49
(g70
g51
NtRp3203
(dp3204
g54
(dp3205
sg63
g3199
sg56
(lp3206
g49
(g50
g51
NtRp3207
(dp3208
g54
(dp3209
g62
I4
ssg63
g3203
sg56
(lp3210
S'}}'
p3211
asbasbasbasbasbasbasbag49
(g65
g51
NtRp3212
(dp3213
g54
(dp3214
sg63
g2947
sg56
(lp3215
g49
(g70
g51
NtRp3216
(dp3217
g54
(dp3218
g74
g75
ssg63
g3212
sg56
(lp3219
S'files'
p3220
asbag49
(g70
g51
NtRp3221
(dp3222
g54
(dp3223
g81
g82
ssg63
g3212
sg56
(lp3224
S':'
asbag49
(g70
g51
NtRp3225
(dp3226
g54
(dp3227
sg63
g3212
sg56
(lp3228
g49
(g50
g51
NtRp3229
(dp3230
g54
(dp3231
g62
I5
ssg63
g3225
sg56
(lp3232
g49
(g58
g51
NtRp3233
(dp3234
g54
(dp3235
g62
I4
ssg63
Nsg56
(lp3236
sbasbasbasbag49
(g65
g51
NtRp3237
(dp3238
g54
(dp3239
sg63
g2947
sg56
(lp3240
g49
(g70
g51
NtRp3241
(dp3242
g54
(dp3243
g74
g75
ssg63
g3237
sg56
(lp3244
S'flash'
p3245
asbag49
(g70
g51
NtRp3246
(dp3247
g54
(dp3248
g81
g82
ssg63
g3237
sg56
(lp3249
S':'
asbag49
(g70
g51
NtRp3250
(dp3251
g54
(dp3252
sg63
g3237
sg56
(lp3253
g49
(g50
g51
NtRp3254
(dp3255
g54
(dp3256
g62
I5
ssg63
g3250
sg56
(lp3257
S''
asbasbasbag49
(g65
g51
NtRp3258
(dp3259
g54
(dp3260
sg63
g2947
sg56
(lp3261
g49
(g70
g51
NtRp3262
(dp3263
g54
(dp3264
g74
g75
ssg63
g3258
sg56
(lp3265
S'generic_patterns'
p3266
asbag49
(g70
g51
NtRp3267
(dp3268
g54
(dp3269
g81
g82
ssg63
g3258
sg56
(lp3270
S':'
asbag49
(g70
g51
NtRp3271
(dp3272
g54
(dp3273
sg63
g3258
sg56
(lp3274
g49
(g50
g51
NtRp3275
(dp3276
g54
(dp3277
g62
I5
ssg63
g3271
sg56
(lp3278
g49
(g58
g51
NtRp3279
(dp3280
g54
(dp3281
g62
I4
ssg63
Nsg56
(lp3282
g49
(g65
g51
NtRp3283
(dp3284
g54
(dp3285
sg63
g3279
sg56
(lp3286
g49
(g70
g51
NtRp3287
(dp3288
g54
(dp3289
sg63
g3283
sg56
(lp3290
g49
(g50
g51
NtRp3291
(dp3292
g54
(dp3293
g62
I4
ssg63
g3287
sg56
(lp3294
S'*'
asbasbasbasbasbasbasbag49
(g65
g51
NtRp3295
(dp3296
g54
(dp3297
sg63
g2947
sg56
(lp3298
g49
(g70
g51
NtRp3299
(dp3300
g54
(dp3301
g74
g75
ssg63
g3295
sg56
(lp3302
S'headers'
p3303
asbag49
(g70
g51
NtRp3304
(dp3305
g54
(dp3306
g81
g82
ssg63
g3295
sg56
(lp3307
S':'
asbag49
(g70
g51
NtRp3308
(dp3309
g54
(dp3310
sg63
g3295
sg56
(lp3311
g49
(g50
g51
NtRp3312
(dp3313
g54
(dp3314
g62
I5
ssg63
g3308
sg56
(lp3315
g49
(g58
g51
NtRp3316
(dp3317
g54
(dp3318
g62
I4
ssg63
Nsg56
(lp3319
g49
(g65
g51
NtRp3320
(dp3321
g54
(dp3322
sg63
g3316
sg56
(lp3323
g49
(g70
g51
NtRp3324
(dp3325
g54
(dp3326
g74
g75
ssg63
g3320
sg56
(lp3327
S'Cache-Control'
p3328
asbag49
(g70
g51
NtRp3329
(dp3330
g54
(dp3331
g81
g82
ssg63
g3320
sg56
(lp3332
S':'
asbag49
(g70
g51
NtRp3333
(dp3334
g54
(dp3335
sg63
g3320
sg56
(lp3336
g49
(g50
g51
NtRp3337
(dp3338
g54
(dp3339
g62
I4
ssg63
g3333
sg56
(lp3340
S'no-store, no-cache, must-revalidate, post-check=0, pre-check=0'
p3341
asbasbasbag49
(g65
g51
NtRp3342
(dp3343
g54
(dp3344
sg63
g3316
sg56
(lp3345
g49
(g70
g51
NtRp3346
(dp3347
g54
(dp3348
g74
g75
ssg63
g3342
sg56
(lp3349
S'Content-Type'
p3350
asbag49
(g70
g51
NtRp3351
(dp3352
g54
(dp3353
g81
g82
ssg63
g3342
sg56
(lp3354
S':'
asbag49
(g70
g51
NtRp3355
(dp3356
g54
(dp3357
sg63
g3342
sg56
(lp3358
g49
(g50
g51
NtRp3359
(dp3360
g54
(dp3361
g62
I4
ssg63
g3355
sg56
(lp3362
S'text/html; charset=utf-8'
p3363
asbasbasbag49
(g65
g51
NtRp3364
(dp3365
g54
(dp3366
sg63
g3316
sg56
(lp3367
g49
(g70
g51
NtRp3368
(dp3369
g54
(dp3370
g74
g75
ssg63
g3364
sg56
(lp3371
S'Expires'
p3372
asbag49
(g70
g51
NtRp3373
(dp3374
g54
(dp3375
g81
g82
ssg63
g3364
sg56
(lp3376
S':'
asbag49
(g70
g51
NtRp3377
(dp3378
g54
(dp3379
sg63
g3364
sg56
(lp3380
g49
(g50
g51
NtRp3381
(dp3382
g54
(dp3383
g62
I4
ssg63
g3377
sg56
(lp3384
S'Tue, 20 Mar 2012 23:28:33 GMT'
p3385
asbasbasbag49
(g65
g51
NtRp3386
(dp3387
g54
(dp3388
sg63
g3316
sg56
(lp3389
g49
(g70
g51
NtRp3390
(dp3391
g54
(dp3392
g74
g75
ssg63
g3386
sg56
(lp3393
S'Pragma'
p3394
asbag49
(g70
g51
NtRp3395
(dp3396
g54
(dp3397
g81
g82
ssg63
g3386
sg56
(lp3398
S':'
asbag49
(g70
g51
NtRp3399
(dp3400
g54
(dp3401
sg63
g3386
sg56
(lp3402
g49
(g50
g51
NtRp3403
(dp3404
g54
(dp3405
g62
I4
ssg63
g3399
sg56
(lp3406
S'no-cache'
p3407
asbasbasbag49
(g65
g51
NtRp3408
(dp3409
g54
(dp3410
sg63
g3316
sg56
(lp3411
g49
(g70
g51
NtRp3412
(dp3413
g54
(dp3414
g74
g75
ssg63
g3408
sg56
(lp3415
S'X-Powered-By'
p3416
asbag49
(g70
g51
NtRp3417
(dp3418
g54
(dp3419
g81
g82
ssg63
g3408
sg56
(lp3420
S':'
asbag49
(g70
g51
NtRp3421
(dp3422
g54
(dp3423
sg63
g3408
sg56
(lp3424
g49
(g50
g51
NtRp3425
(dp3426
g54
(dp3427
g62
I4
ssg63
g3421
sg56
(lp3428
S'web2py'
p3429
asbasbasbasbasbasbasbag49
(g65
g51
NtRp3430
(dp3431
g54
(dp3432
sg63
g2947
sg56
(lp3433
g49
(g70
g51
NtRp3434
(dp3435
g54
(dp3436
g74
g75
ssg63
g3430
sg56
(lp3437
S'menu'
p3438
asbag49
(g70
g51
NtRp3439
(dp3440
g54
(dp3441
g81
g82
ssg63
g3430
sg56
(lp3442
S':'
asbag49
(g70
g51
NtRp3443
(dp3444
g54
(dp3445
sg63
g3430
sg56
(lp3446
g49
(g50
g51
NtRp3447
(dp3448
g54
(dp3449
g62
I5
ssg63
g3443
sg56
(lp3450
g49
(g58
g51
NtRp3451
(dp3452
g54
(dp3453
g62
I4
ssg63
Nsg56
(lp3454
g49
(g65
g51
NtRp3455
(dp3456
g54
(dp3457
sg63
g3451
sg56
(lp3458
g49
(g70
g51
NtRp3459
(dp3460
g54
(dp3461
sg63
g3455
sg56
(lp3462
g49
(g50
g51
NtRp3463
(dp3464
g54
(dp3465
g62
I4
ssg63
g3459
sg56
(lp3466
g49
(g58
g51
NtRp3467
(dp3468
g54
(dp3469
g62
I3
ssg63
Nsg56
(lp3470
g49
(g65
g51
NtRp3471
(dp3472
g54
(dp3473
sg63
g3467
sg56
(lp3474
g49
(g70
g51
NtRp3475
(dp3476
g54
(dp3477
sg63
g3471
sg56
(lp3478
g49
(g50
g51
NtRp3479
(dp3480
g54
(dp3481
g62
I3
ssg63
g3475
sg56
(lp3482
cgluon.languages
lazyT_unpickle
p3483
(S't\x04\x00\x00\x00Home'
tRp3484
asbasbasbag49
(g65
g51
NtRp3485
(dp3486
g54
(dp3487
sg63
g3467
sg56
(lp3488
g49
(g70
g51
NtRp3489
(dp3490
g54
(dp3491
sg63
g3485
sg56
(lp3492
g49
(g50
g51
NtRp3493
(dp3494
g54
(dp3495
g62
I3
ssg63
g3489
sg56
(lp3496
g92
asbasbasbag49
(g65
g51
NtRp3497
(dp3498
g54
(dp3499
sg63
g3467
sg56
(lp3500
g49
(g70
g51
NtRp3501
(dp3502
g54
(dp3503
sg63
g3497
sg56
(lp3504
g49
(g50
g51
NtRp3505
(dp3506
g54
(dp3507
g62
I3
ssg63
g3501
sg56
(lp3508
S'/webparley/default/index'
p3509
asbasbasbag49
(g65
g51
NtRp3510
(dp3511
g54
(dp3512
sg63
g3467
sg56
(lp3513
g49
(g70
g51
NtRp3514
(dp3515
g54
(dp3516
sg63
g3510
sg56
(lp3517
g49
(g50
g51
NtRp3518
(dp3519
g54
(dp3520
g62
I3
ssg63
g3514
sg56
(lp3521
g49
(g58
g51
NtRp3522
(dp3523
g54
(dp3524
g62
I2
ssg63
Nsg56
(lp3525
sbasbasbasbasbasbasbasbasbasbasbasbag49
(g65
g51
NtRp3526
(dp3527
g54
(dp3528
sg63
g2947
sg56
(lp3529
g49
(g70
g51
NtRp3530
(dp3531
g54
(dp3532
g74
g75
ssg63
g3526
sg56
(lp3533
S'meta'
p3534
asbag49
(g70
g51
NtRp3535
(dp3536
g54
(dp3537
g81
g82
ssg63
g3526
sg56
(lp3538
S':'
asbag49
(g70
g51
NtRp3539
(dp3540
g54
(dp3541
sg63
g3526
sg56
(lp3542
g49
(g50
g51
NtRp3543
(dp3544
g54
(dp3545
g62
I5
ssg63
g3539
sg56
(lp3546
g49
(g58
g51
NtRp3547
(dp3548
g54
(dp3549
g62
I4
ssg63
Nsg56
(lp3550
g49
(g65
g51
NtRp3551
(dp3552
g54
(dp3553
sg63
g3547
sg56
(lp3554
g49
(g70
g51
NtRp3555
(dp3556
g54
(dp3557
g74
g75
ssg63
g3551
sg56
(lp3558
S'author'
p3559
asbag49
(g70
g51
NtRp3560
(dp3561
g54
(dp3562
g81
g82
ssg63
g3551
sg56
(lp3563
S':'
asbag49
(g70
g51
NtRp3564
(dp3565
g54
(dp3566
sg63
g3551
sg56
(lp3567
g49
(g50
g51
NtRp3568
(dp3569
g54
(dp3570
g62
I4
ssg63
g3564
sg56
(lp3571
S'Your Name <you@example.com>'
p3572
asbasbasbag49
(g65
g51
NtRp3573
(dp3574
g54
(dp3575
sg63
g3547
sg56
(lp3576
g49
(g70
g51
NtRp3577
(dp3578
g54
(dp3579
g74
g75
ssg63
g3573
sg56
(lp3580
S'copyright'
p3581
asbag49
(g70
g51
NtRp3582
(dp3583
g54
(dp3584
g81
g82
ssg63
g3573
sg56
(lp3585
S':'
asbag49
(g70
g51
NtRp3586
(dp3587
g54
(dp3588
sg63
g3573
sg56
(lp3589
g49
(g50
g51
NtRp3590
(dp3591
g54
(dp3592
g62
I4
ssg63
g3586
sg56
(lp3593
S'Copyright 2011'
p3594
asbasbasbag49
(g65
g51
NtRp3595
(dp3596
g54
(dp3597
sg63
g3547
sg56
(lp3598
g49
(g70
g51
NtRp3599
(dp3600
g54
(dp3601
g74
g75
ssg63
g3595
sg56
(lp3602
S'description'
p3603
asbag49
(g70
g51
NtRp3604
(dp3605
g54
(dp3606
g81
g82
ssg63
g3595
sg56
(lp3607
S':'
asbag49
(g70
g51
NtRp3608
(dp3609
g54
(dp3610
sg63
g3595
sg56
(lp3611
g49
(g50
g51
NtRp3612
(dp3613
g54
(dp3614
g62
I4
ssg63
g3608
sg56
(lp3615
S'a cool new app'
p3616
asbasbasbag49
(g65
g51
NtRp3617
(dp3618
g54
(dp3619
sg63
g3547
sg56
(lp3620
g49
(g70
g51
NtRp3621
(dp3622
g54
(dp3623
g74
g75
ssg63
g3617
sg56
(lp3624
S'generator'
p3625
asbag49
(g70
g51
NtRp3626
(dp3627
g54
(dp3628
g81
g82
ssg63
g3617
sg56
(lp3629
S':'
asbag49
(g70
g51
NtRp3630
(dp3631
g54
(dp3632
sg63
g3617
sg56
(lp3633
g49
(g50
g51
NtRp3634
(dp3635
g54
(dp3636
g62
I4
ssg63
g3630
sg56
(lp3637
S'Web2py Web Framework'
p3638
asbasbasbag49
(g65
g51
NtRp3639
(dp3640
g54
(dp3641
sg63
g3547
sg56
(lp3642
g49
(g70
g51
NtRp3643
(dp3644
g54
(dp3645
g74
g75
ssg63
g3639
sg56
(lp3646
S'keywords'
p3647
asbag49
(g70
g51
NtRp3648
(dp3649
g54
(dp3650
g81
g82
ssg63
g3639
sg56
(lp3651
S':'
asbag49
(g70
g51
NtRp3652
(dp3653
g54
(dp3654
sg63
g3639
sg56
(lp3655
g49
(g50
g51
NtRp3656
(dp3657
g54
(dp3658
g62
I4
ssg63
g3652
sg56
(lp3659
S'web2py, python, framework'
p3660
asbasbasbasbasbasbasbag49
(g65
g51
NtRp3661
(dp3662
g54
(dp3663
sg63
g2947
sg56
(lp3664
g49
(g70
g51
NtRp3665
(dp3666
g54
(dp3667
g74
g75
ssg63
g3661
sg56
(lp3668
S'postprocessing'
p3669
asbag49
(g70
g51
NtRp3670
(dp3671
g54
(dp3672
g81
g82
ssg63
g3661
sg56
(lp3673
S':'
asbag49
(g70
g51
NtRp3674
(dp3675
g54
(dp3676
sg63
g3661
sg56
(lp3677
g49
(g50
g51
NtRp3678
(dp3679
g54
(dp3680
g62
I5
ssg63
g3674
sg56
(lp3681
g49
(g58
g51
NtRp3682
(dp3683
g54
(dp3684
g62
I4
ssg63
Nsg56
(lp3685
sbasbasbasbag49
(g65
g51
NtRp3686
(dp3687
g54
(dp3688
sg63
g2947
sg56
(lp3689
g49
(g70
g51
NtRp3690
(dp3691
g54
(dp3692
g74
g75
ssg63
g3686
sg56
(lp3693
S'session_file'
p3694
asbag49
(g70
g51
NtRp3695
(dp3696
g54
(dp3697
g81
g82
ssg63
g3686
sg56
(lp3698
S':'
asbag49
(g70
g51
NtRp3699
(dp3700
g54
(dp3701
sg63
g3686
sg56
(lp3702
g49
(g50
g51
NtRp3703
(dp3704
g54
(dp3705
g62
I5
ssg63
g3699
sg56
(lp3706
S"<open file 'D:\\Dise\xf1o Web\\Proyectos\\Parleyweb\\web2py\\applications\\webparley\\sessions\\127.0.0.1-bc69089f-ede7-4142-9e2c-fc2ecaebea00', mode 'rb+' at 0x0617CBF0>"
p3707
asbasbasbag49
(g65
g51
NtRp3708
(dp3709
g54
(dp3710
sg63
g2947
sg56
(lp3711
g49
(g70
g51
NtRp3712
(dp3713
g54
(dp3714
g74
g75
ssg63
g3708
sg56
(lp3715
S'session_filename'
p3716
asbag49
(g70
g51
NtRp3717
(dp3718
g54
(dp3719
g81
g82
ssg63
g3708
sg56
(lp3720
S':'
asbag49
(g70
g51
NtRp3721
(dp3722
g54
(dp3723
sg63
g3708
sg56
(lp3724
g49
(g50
g51
NtRp3725
(dp3726
g54
(dp3727
g62
I5
ssg63
g3721
sg56
(lp3728
S'D:\\Dise\xf1o Web\\Proyectos\\Parleyweb\\web2py\\applications\\webparley\\sessions\\127.0.0.1-bc69089f-ede7-4142-9e2c-fc2ecaebea00'
p3729
asbasbasbag49
(g65
g51
NtRp3730
(dp3731
g54
(dp3732
sg63
g2947
sg56
(lp3733
g49
(g70
g51
NtRp3734
(dp3735
g54
(dp3736
g74
g75
ssg63
g3730
sg56
(lp3737
S'session_id'
p3738
asbag49
(g70
g51
NtRp3739
(dp3740
g54
(dp3741
g81
g82
ssg63
g3730
sg56
(lp3742
S':'
asbag49
(g70
g51
NtRp3743
(dp3744
g54
(dp3745
sg63
g3730
sg56
(lp3746
g49
(g50
g51
NtRp3747
(dp3748
g54
(dp3749
g62
I5
ssg63
g3743
sg56
(lp3750
S'127.0.0.1-bc69089f-ede7-4142-9e2c-fc2ecaebea00'
p3751
asbasbasbag49
(g65
g51
NtRp3752
(dp3753
g54
(dp3754
sg63
g2947
sg56
(lp3755
g49
(g70
g51
NtRp3756
(dp3757
g54
(dp3758
g74
g75
ssg63
g3752
sg56
(lp3759
S'session_id_name'
p3760
asbag49
(g70
g51
NtRp3761
(dp3762
g54
(dp3763
g81
g82
ssg63
g3752
sg56
(lp3764
S':'
asbag49
(g70
g51
NtRp3765
(dp3766
g54
(dp3767
sg63
g3752
sg56
(lp3768
g49
(g50
g51
NtRp3769
(dp3770
g54
(dp3771
g62
I5
ssg63
g3765
sg56
(lp3772
g3004
asbasbasbag49
(g65
g51
NtRp3773
(dp3774
g54
(dp3775
sg63
g2947
sg56
(lp3776
g49
(g70
g51
NtRp3777
(dp3778
g54
(dp3779
g74
g75
ssg63
g3773
sg56
(lp3780
S'session_locked'
p3781
asbag49
(g70
g51
NtRp3782
(dp3783
g54
(dp3784
g81
g82
ssg63
g3773
sg56
(lp3785
S':'
asbag49
(g70
g51
NtRp3786
(dp3787
g54
(dp3788
sg63
g3773
sg56
(lp3789
g49
(g50
g51
NtRp3790
(dp3791
g54
(dp3792
g62
I5
ssg63
g3786
sg56
(lp3793
g1487
asbasbasbag49
(g65
g51
NtRp3794
(dp3795
g54
(dp3796
sg63
g2947
sg56
(lp3797
g49
(g70
g51
NtRp3798
(dp3799
g54
(dp3800
g74
g75
ssg63
g3794
sg56
(lp3801
S'session_new'
p3802
asbag49
(g70
g51
NtRp3803
(dp3804
g54
(dp3805
g81
g82
ssg63
g3794
sg56
(lp3806
S':'
asbag49
(g70
g51
NtRp3807
(dp3808
g54
(dp3809
sg63
g3794
sg56
(lp3810
g49
(g50
g51
NtRp3811
(dp3812
g54
(dp3813
g62
I5
ssg63
g3807
sg56
(lp3814
g92
asbasbasbag49
(g65
g51
NtRp3815
(dp3816
g54
(dp3817
sg63
g2947
sg56
(lp3818
g49
(g70
g51
NtRp3819
(dp3820
g54
(dp3821
g74
g75
ssg63
g3815
sg56
(lp3822
S'status'
p3823
asbag49
(g70
g51
NtRp3824
(dp3825
g54
(dp3826
g81
g82
ssg63
g3815
sg56
(lp3827
S':'
asbag49
(g70
g51
NtRp3828
(dp3829
g54
(dp3830
sg63
g3815
sg56
(lp3831
g49
(g50
g51
NtRp3832
(dp3833
g54
(dp3834
g62
I5
ssg63
g3828
sg56
(lp3835
S'200'
p3836
asbasbasbag49
(g65
g51
NtRp3837
(dp3838
g54
(dp3839
sg63
g2947
sg56
(lp3840
g49
(g70
g51
NtRp3841
(dp3842
g54
(dp3843
g74
g75
ssg63
g3837
sg56
(lp3844
S'subtitle'
p3845
asbag49
(g70
g51
NtRp3846
(dp3847
g54
(dp3848
g81
g82
ssg63
g3837
sg56
(lp3849
S':'
asbag49
(g70
g51
NtRp3850
(dp3851
g54
(dp3852
sg63
g3837
sg56
(lp3853
g49
(g50
g51
NtRp3854
(dp3855
g54
(dp3856
g62
I5
ssg63
g3850
sg56
(lp3857
g3483
(S's\t\x00\x00\x00Adaptame!'
tRp3858
asbasbasbag49
(g65
g51
NtRp3859
(dp3860
g54
(dp3861
sg63
g2947
sg56
(lp3862
g49
(g70
g51
NtRp3863
(dp3864
g54
(dp3865
g74
g75
ssg63
g3859
sg56
(lp3866
S'title'
p3867
asbag49
(g70
g51
NtRp3868
(dp3869
g54
(dp3870
g81
g82
ssg63
g3859
sg56
(lp3871
S':'
asbag49
(g70
g51
NtRp3872
(dp3873
g54
(dp3874
sg63
g3859
sg56
(lp3875
g49
(g50
g51
NtRp3876
(dp3877
g54
(dp3878
g62
I5
ssg63
g3872
sg56
(lp3879
S'Webparley'
p3880
asbasbasbag49
(g65
g51
NtRp3881
(dp3882
g54
(dp3883
sg63
g2947
sg56
(lp3884
g49
(g70
g51
NtRp3885
(dp3886
g54
(dp3887
g74
g75
ssg63
g3881
sg56
(lp3888
g2151
asbag49
(g70
g51
NtRp3889
(dp3890
g54
(dp3891
g81
g82
ssg63
g3881
sg56
(lp3892
S':'
asbag49
(g70
g51
NtRp3893
(dp3894
g54
(dp3895
sg63
g3881
sg56
(lp3896
g49
(g50
g51
NtRp3897
(dp3898
g54
(dp3899
g62
I5
ssg63
g3893
sg56
(lp3900
g2164
asbasbasbag49
(g65
g51
NtRp3901
(dp3902
g54
(dp3903
sg63
g2947
sg56
(lp3904
g49
(g70
g51
NtRp3905
(dp3906
g54
(dp3907
g74
g75
ssg63
g3901
sg56
(lp3908
S'view'
p3909
asbag49
(g70
g51
NtRp3910
(dp3911
g54
(dp3912
g81
g82
ssg63
g3901
sg56
(lp3913
S':'
asbag49
(g70
g51
NtRp3914
(dp3915
g54
(dp3916
sg63
g3901
sg56
(lp3917
g49
(g50
g51
NtRp3918
(dp3919
g54
(dp3920
g62
I5
ssg63
g3914
sg56
(lp3921
S'admin/agregar_palabra.html'
p3922
asbasbasbasbasbsS'locals'
p3923
(dp3924
S'self'
p3925
S"<Table {'ALL': <gluon.dal.SQLALL object at 0x05D...>, 'id': <gluon.dal.Field object at 0x05DF1910>}>"
p3926
sS'key'
p3927
S"'descripcion_glosario'"
p3928
sssS'traceback'
p3929
S'Traceback (most recent call last):\n  File "gluon/restricted.py", line 205, in restricted\n  File "D:\\Dise\xf1o Web\\Proyectos\\Parleyweb\\web2py\\applications\\webparley\\controllers/admin.py", line 278, in <module>\n  File "gluon/globals.py", line 173, in <lambda>\n  File "D:\\Dise\xf1o Web\\Proyectos\\Parleyweb\\web2py\\applications\\webparley\\controllers/admin.py", line 34, in agregar_palabra\n  File "gluon/sqlhtml.py", line 870, in __init__\n  File "gluon/sqlhtml.py", line 283, in widget\n  File "gluon/sqlhtml.py", line 216, in widget\n  File "gluon/validators.py", line 465, in options\n  File "gluon/validators.py", line 447, in build_set\n  File "gluon/dal.py", line 6714, in __getitem__\nKeyError: \'descripcion_glosario\'\n'
p3930
s.