(dp1
S'output'
p2
S"<type 'exceptions.KeyError'> 'genero'"
p3
sS'layer'
p4
S'D:\\Dise\xf1o Web\\Proyectos\\Parleyweb\\web2py\\applications\\parleyweb\\models\\db.py'
p5
sS'code'
p6
S"# -*- coding: utf-8 -*-\n\n#########################################################################\n## This scaffolding model makes your app work on Google App Engine too\n## File is released under public domain and you can use without limitations\n#########################################################################\n\n## if SSL/HTTPS is properly configured and you want all HTTP requests to\n## be redirected to HTTPS, uncomment the line below:\n# request.requires_https()\n\nif not request.env.web2py_runtime_gae:\n    ## if NOT running on Google App Engine use SQLite or other DB\n    db = DAL('sqlite://storage.sqlite')\nelse:\n    ## connect to Google BigTable (optional 'google:datastore://namespace')\n    db = DAL('google:datastore')\n    ## store sessions and tickets there\n    session.connect(request, response, db = db)\n    ## or store session in Memcache, Redis, etc.\n    ## from gluon.contrib.memdb import MEMDB\n    ## from google.appengine.api.memcache import Client\n    ## session.connect(request, response, db = MEMDB(Client()))\n\n## by default give a view/generic.extension to all actions from localhost\n## none otherwise. a pattern can be 'controller/function.extension'\nresponse.generic_patterns = ['*'] if request.is_local else []\n## (optional) optimize handling of static files\n# response.optimize_css = 'concat,minify,inline'\n# response.optimize_js = 'concat,minify,inline'\n\n#########################################################################\n## Here is sample code if you need for\n## - email capabilities\n## - authentication (registration, login, logout, ... )\n## - authorization (role based authorization)\n## - services (xml, csv, json, xmlrpc, jsonrpc, amf, rss)\n## - old style crud actions\n## (more options discussed in gluon/tools.py)\n#########################################################################\n\nfrom gluon.tools import Auth, Crud, Service, PluginManager, prettydate\nauth = Auth(db, hmac_key=Auth.get_or_create_key())\ncrud, service, plugins = Crud(db), Service(), PluginManager()\n\n\n\n## create all tables needed by auth if not custom tables\nauth.define_tables()\n\n## configure email\nmail=auth.settings.mailer\nmail.settings.server = 'logging' or 'smtp.gmail.com:587'\nmail.settings.sender = 'you@gmail.com'\nmail.settings.login = 'username:password'\n\n## configure auth policy\nauth.settings.registration_requires_verification = False\nauth.settings.registration_requires_approval = False\nauth.settings.reset_password_requires_verification = True\n\n## if you need to use OpenID, Facebook, MySpace, Twitter, Linkedin, etc.\n## register with janrain.com, write your domain:api_key in private/janrain.key\nfrom gluon.contrib.login_methods.rpx_account import use_janrain\nuse_janrain(auth,filename='private/janrain.key')\n\n#########################################################################\n## Define your tables below (or better in another model file) for example\n##\n## >>> db.define_table('mytable',Field('myfield','string'))\n##\n## Fields can be 'string','text','password','integer','double','boolean'\n##       'date','time','datetime','blob','upload', 'reference TABLENAME'\n## There is an implicit 'id integer autoincrement' field\n## Consult manual for more options, validators, etc.\n##\n## More API examples for controllers:\n##\n## >>> db.mytable.insert(myfield='value')\n## >>> rows=db(db.mytable.myfield=='value').select(db.mytable.ALL)\n## >>> for row in rows: print row.id, row.myfield\n#########################################################################\n\ndb.define_table('glosario',\n                Field('nombre_glosario', 'string', unique=True ), # no puede estar repetido\n                Field('descripcion_glosario', 'string', widget=SQLFORM.widgets.text.widget) #poner widget mostrar como campo text\n                )\n\ndb.define_table('palabras',\n                Field('palabra', 'string', unique=True),\n                Field('sustantivo', 'boolean'),\n                Field('articulo'),\n                Field('plural', 'string'),\n                Field('imagen', 'upload'),\n                # verbo\n                Field('verbo', 'boolean'),\n                Field('verbo_irregular', 'boolean'),\n                Field('participio2', 'string'),\n                Field('reflexivo', 'boolean'),\n                Field('presente_1'),\n                Field('presente_2'),\n                Field('presente_3'),\n                Field('presente_1_p'),\n                Field('presente_2_p'),\n                Field('presente_3_p'),\n                Field('adverbio', 'boolean'),\n                Field('adjetivo', 'boolean'),\n                Field('anadir_glosario', 'boolean'),\n                Field('glosario', db.glosario)\n                )\n\ndb.define_table('fuentes',\n                Field('nombre', 'string')\n                )\n\ndb.define_table('ejemplos',\n                Field('ejemplo_de', 'text'),  # no puede estar vacio\n                Field('ejemplo_es', 'text'),   # puede estar vacio\n                Field('fuente', db.fuentes)\n                )\ndb.define_table('palabra_ejemplo',  # refereciada por los Id\n                Field('palabra', db.palabras),   # no puede estar vacio\n                Field('ejemplo', db.ejemplos))   # no puede estar vacio\n\n## Tablas para los widget de autocompletar ##\n\ndb.define_table('autocompletar_palabra',\n                Field('palabra')\n                )\n\ndb.define_table('busqueda',\n                 Field('buscar_palabra')\n                 )\n\n### Validaciones tabla glosario ###\ndb.glosario.nombre_glosario.requires = IS_NOT_IN_DB(db,'glosario.nombre_glosario')\n\n### Autocompletar palabra ###\n#db.autocompletar_palabra.palabra.widget = SQLFORM.widgets.autocomplete(\n   #  request, db.palabras.palabra, limitby=(0,10), min_length=1)\n\n### Autocompletar busqueda ###\ndb.busqueda.buscar_palabra.widget = SQLFORM.widgets.autocomplete(\n     request, db.palabras.palabra, id_field=db.palabras.id, min_length=1)\n\n\n### Validacion tabla palabras ###\n#db.palabras.palabra.represent = lambda palabra: palabra.capitalize()\ndb.palabras.genero.requires = IS_EMPTY_OR(IS_IN_SET(['Masculino', 'Neutro', 'Femenino'],zero=T('Elige uno'),\n         error_message=T('No elegiste')))\ndb.palabras.articulo.requires = IS_EMPTY_OR(IS_IN_SET(['Die', 'Der', 'Das'],zero=T('Elige uno'),\n         error_message=T('Elige Die, Der o Das')))\ndb.palabras.glosario.requires = IS_EMPTY_OR(IS_IN_DB(db, 'glosario.id', '%(nombre_glosario)s'))\n\n\n \n### WIDGET AUTOCOMPLETAR para la tabla fuentes ###\ndb.ejemplos.fuente.widget = SQLFORM.widgets.autocomplete(\n     request, db.fuentes.nombre, id_field=db.fuentes.id, min_length=1)\ndb.fuentes.nombre.requires = IS_NOT_EMPTY()\n\n### Validierung EJEMPLOS ###\ndb.ejemplos.ejemplo_de.requires = IS_NOT_EMPTY()\ndb.ejemplos.ejemplo_es.requires = IS_NOT_EMPTY()\n\n### WIDGET AUTOCOMPLETAR para la tabla palabra_ejemplo ###\ndb.palabra_ejemplo.palabra.widget = SQLFORM.widgets.autocomplete(\n     request, db.palabras.palabra, id_field=db.palabras.id, min_length=1)\ndb.palabra_ejemplo.ejemplo.widget = SQLFORM.widgets.autocomplete(\n     request, db.ejemplos.ejemplo_de, id_field=db.ejemplos.id, min_length=1)\n\n####################################################################\n#                    Codigo para pegar y copiar\n#\n# db.palabras.palabra.requires = IS_NOT_IN_DB(db,'palabras.palabra') << Devuelve un error si el campo se encuentra en la DB o si estas vacio. tambien se le debe colocar el  unique=True  >> \n# db.palabras.palabra.requires = IS_NOT_EMPTY() << no es necesario si se usa este validador >>\n# db.palabra_ejemplo.ejemplo.requires = IS_IN_DB(db, 'ejemplo.id', '%(ejemplo)s') << este validador crea una lista >>\n# db.palabras.articulo.requires = IS_IN_SET(['Die', 'Der', 'Das'],zero=T('Elige uno'), error_message=T('Elige Die, Der o Das'))\n#        \n#\n#\n#\n#\n#\n#\n#\n#\n#\n#\n#\n#\n#\n#\n\n"
p7
sS'snapshot'
p8
(dp9
S'exception'
p10
(dp11
S'__hash__'
p12
S"<method-wrapper '__hash__' of exceptions.KeyError object at 0x06F9BC60>"
p13
sS'__setattr__'
p14
S"<method-wrapper '__setattr__' of exceptions.KeyError object at 0x06F9BC60>"
p15
sS'__reduce_ex__'
p16
S'<built-in method __reduce_ex__ of exceptions.KeyError object at 0x06F9BC60>'
p17
sS'__getslice__'
p18
S"<method-wrapper '__getslice__' of exceptions.KeyError object at 0x06F9BC60>"
p19
sS'__getitem__'
p20
S"<method-wrapper '__getitem__' of exceptions.KeyError object at 0x06F9BC60>"
p21
sS'__setstate__'
p22
S'<built-in method __setstate__ of exceptions.KeyError object at 0x06F9BC60>'
p23
sS'__reduce__'
p24
S'<built-in method __reduce__ of exceptions.KeyError object at 0x06F9BC60>'
p25
sS'__str__'
p26
S"<method-wrapper '__str__' of exceptions.KeyError object at 0x06F9BC60>"
p27
sS'args'
p28
S"('genero',)"
p29
sS'__getattribute__'
p30
S"<method-wrapper '__getattribute__' of exceptions.KeyError object at 0x06F9BC60>"
p31
sS'__class__'
p32
S"<type 'exceptions.KeyError'>"
p33
sS'__delattr__'
p34
S"<method-wrapper '__delattr__' of exceptions.KeyError object at 0x06F9BC60>"
p35
sS'__repr__'
p36
S"<method-wrapper '__repr__' of exceptions.KeyError object at 0x06F9BC60>"
p37
sS'__dict__'
p38
S'{}'
p39
sS'__doc__'
p40
S"'Mapping key not found.'"
p41
sS'__init__'
p42
S"<method-wrapper '__init__' of exceptions.KeyError object at 0x06F9BC60>"
p43
sS'__new__'
p44
S'<built-in method __new__ of type object at 0x1E1CDFB8>'
p45
ssS'evalue'
p46
S"'genero'"
p47
sS'request'
p48
ccopy_reg
_reconstructor
p49
(cgluon.html
BEAUTIFY
p50
c__builtin__
object
p51
NtRp52
(dp53
S'attributes'
p54
(dp55
sS'components'
p56
(lp57
g49
(cgluon.html
TABLE
p58
g51
NtRp59
(dp60
g54
(dp61
S'level'
p62
I5
ssS'parent'
p63
Nsg56
(lp64
g49
(cgluon.html
TR
p65
g51
NtRp66
(dp67
g54
(dp68
sg63
g59
sg56
(lp69
g49
(cgluon.html
TD
p70
g51
NtRp71
(dp72
g54
(dp73
S'_style'
p74
S'font-weight:bold;vertical-align:top'
p75
ssg63
g66
sg56
(lp76
S'ajax'
p77
asbag49
(g70
g51
NtRp78
(dp79
g54
(dp80
S'_valign'
p81
S'top'
p82
ssg63
g66
sg56
(lp83
S':'
asbag49
(g70
g51
NtRp84
(dp85
g54
(dp86
sg63
g66
sg56
(lp87
g49
(g50
g51
NtRp88
(dp89
g54
(dp90
g62
I5
ssg63
g84
sg56
(lp91
S'False'
p92
asbasbasbag49
(g65
g51
NtRp93
(dp94
g54
(dp95
sg63
g59
sg56
(lp96
g49
(g70
g51
NtRp97
(dp98
g54
(dp99
g74
g75
ssg63
g93
sg56
(lp100
S'application'
p101
asbag49
(g70
g51
NtRp102
(dp103
g54
(dp104
g81
g82
ssg63
g93
sg56
(lp105
S':'
asbag49
(g70
g51
NtRp106
(dp107
g54
(dp108
sg63
g93
sg56
(lp109
g49
(g50
g51
NtRp110
(dp111
g54
(dp112
g62
I5
ssg63
g106
sg56
(lp113
S'parleyweb'
p114
asbasbasbag49
(g65
g51
NtRp115
(dp116
g54
(dp117
sg63
g59
sg56
(lp118
g49
(g70
g51
NtRp119
(dp120
g54
(dp121
g74
g75
ssg63
g115
sg56
(lp122
g28
asbag49
(g70
g51
NtRp123
(dp124
g54
(dp125
g81
g82
ssg63
g115
sg56
(lp126
S':'
asbag49
(g70
g51
NtRp127
(dp128
g54
(dp129
sg63
g115
sg56
(lp130
g49
(g50
g51
NtRp131
(dp132
g54
(dp133
g62
I5
ssg63
g127
sg56
(lp134
g49
(g58
g51
NtRp135
(dp136
g54
(dp137
g62
I4
ssg63
Nsg56
(lp138
sbasbasbasbag49
(g65
g51
NtRp139
(dp140
g54
(dp141
sg63
g59
sg56
(lp142
g49
(g70
g51
NtRp143
(dp144
g54
(dp145
g74
g75
ssg63
g139
sg56
(lp146
S'body'
p147
asbag49
(g70
g51
NtRp148
(dp149
g54
(dp150
g81
g82
ssg63
g139
sg56
(lp151
S':'
asbag49
(g70
g51
NtRp152
(dp153
g54
(dp154
sg63
g139
sg56
(lp155
g49
(g50
g51
NtRp156
(dp157
g54
(dp158
g62
I5
ssg63
g152
sg56
(lp159
S'<cStringIO.StringO object at 0x079844C0>'
p160
asbasbasbag49
(g65
g51
NtRp161
(dp162
g54
(dp163
sg63
g59
sg56
(lp164
g49
(g70
g51
NtRp165
(dp166
g54
(dp167
g74
g75
ssg63
g161
sg56
(lp168
S'client'
p169
asbag49
(g70
g51
NtRp170
(dp171
g54
(dp172
g81
g82
ssg63
g161
sg56
(lp173
S':'
asbag49
(g70
g51
NtRp174
(dp175
g54
(dp176
sg63
g161
sg56
(lp177
g49
(g50
g51
NtRp178
(dp179
g54
(dp180
g62
I5
ssg63
g174
sg56
(lp181
S'127.0.0.1'
p182
asbasbasbag49
(g65
g51
NtRp183
(dp184
g54
(dp185
sg63
g59
sg56
(lp186
g49
(g70
g51
NtRp187
(dp188
g54
(dp189
g74
g75
ssg63
g183
sg56
(lp190
S'controller'
p191
asbag49
(g70
g51
NtRp192
(dp193
g54
(dp194
g81
g82
ssg63
g183
sg56
(lp195
S':'
asbag49
(g70
g51
NtRp196
(dp197
g54
(dp198
sg63
g183
sg56
(lp199
g49
(g50
g51
NtRp200
(dp201
g54
(dp202
g62
I5
ssg63
g196
sg56
(lp203
S'default'
p204
asbasbasbag49
(g65
g51
NtRp205
(dp206
g54
(dp207
sg63
g59
sg56
(lp208
g49
(g70
g51
NtRp209
(dp210
g54
(dp211
g74
g75
ssg63
g205
sg56
(lp212
S'cookies'
p213
asbag49
(g70
g51
NtRp214
(dp215
g54
(dp216
g81
g82
ssg63
g205
sg56
(lp217
S':'
asbag49
(g70
g51
NtRp218
(dp219
g54
(dp220
sg63
g205
sg56
(lp221
g49
(g50
g51
NtRp222
(dp223
g54
(dp224
g62
I5
ssg63
g218
sg56
(lp225
g49
(g58
g51
NtRp226
(dp227
g54
(dp228
g62
I4
ssg63
Nsg56
(lp229
g49
(g65
g51
NtRp230
(dp231
g54
(dp232
sg63
g226
sg56
(lp233
g49
(g70
g51
NtRp234
(dp235
g54
(dp236
g74
g75
ssg63
g230
sg56
(lp237
S'session_id_admin'
p238
asbag49
(g70
g51
NtRp239
(dp240
g54
(dp241
g81
g82
ssg63
g230
sg56
(lp242
S':'
asbag49
(g70
g51
NtRp243
(dp244
g54
(dp245
sg63
g230
sg56
(lp246
g49
(g50
g51
NtRp247
(dp248
g54
(dp249
g62
I4
ssg63
g243
sg56
(lp250
g49
(g58
g51
NtRp251
(dp252
g54
(dp253
g62
I3
ssg63
Nsg56
(lp254
g49
(g65
g51
NtRp255
(dp256
g54
(dp257
sg63
g251
sg56
(lp258
g49
(g70
g51
NtRp259
(dp260
g54
(dp261
g74
g75
ssg63
g255
sg56
(lp262
S'comment'
p263
asbag49
(g70
g51
NtRp264
(dp265
g54
(dp266
g81
g82
ssg63
g255
sg56
(lp267
S':'
asbag49
(g70
g51
NtRp268
(dp269
g54
(dp270
sg63
g255
sg56
(lp271
g49
(g50
g51
NtRp272
(dp273
g54
(dp274
g62
I3
ssg63
g268
sg56
(lp275
S''
asbasbasbag49
(g65
g51
NtRp276
(dp277
g54
(dp278
sg63
g251
sg56
(lp279
g49
(g70
g51
NtRp280
(dp281
g54
(dp282
g74
g75
ssg63
g276
sg56
(lp283
S'domain'
p284
asbag49
(g70
g51
NtRp285
(dp286
g54
(dp287
g81
g82
ssg63
g276
sg56
(lp288
S':'
asbag49
(g70
g51
NtRp289
(dp290
g54
(dp291
sg63
g276
sg56
(lp292
g49
(g50
g51
NtRp293
(dp294
g54
(dp295
g62
I3
ssg63
g289
sg56
(lp296
S''
asbasbasbag49
(g65
g51
NtRp297
(dp298
g54
(dp299
sg63
g251
sg56
(lp300
g49
(g70
g51
NtRp301
(dp302
g54
(dp303
g74
g75
ssg63
g297
sg56
(lp304
S'expires'
p305
asbag49
(g70
g51
NtRp306
(dp307
g54
(dp308
g81
g82
ssg63
g297
sg56
(lp309
S':'
asbag49
(g70
g51
NtRp310
(dp311
g54
(dp312
sg63
g297
sg56
(lp313
g49
(g50
g51
NtRp314
(dp315
g54
(dp316
g62
I3
ssg63
g310
sg56
(lp317
S''
asbasbasbag49
(g65
g51
NtRp318
(dp319
g54
(dp320
sg63
g251
sg56
(lp321
g49
(g70
g51
NtRp322
(dp323
g54
(dp324
g74
g75
ssg63
g318
sg56
(lp325
S'max-age'
p326
asbag49
(g70
g51
NtRp327
(dp328
g54
(dp329
g81
g82
ssg63
g318
sg56
(lp330
S':'
asbag49
(g70
g51
NtRp331
(dp332
g54
(dp333
sg63
g318
sg56
(lp334
g49
(g50
g51
NtRp335
(dp336
g54
(dp337
g62
I3
ssg63
g331
sg56
(lp338
S''
asbasbasbag49
(g65
g51
NtRp339
(dp340
g54
(dp341
sg63
g251
sg56
(lp342
g49
(g70
g51
NtRp343
(dp344
g54
(dp345
g74
g75
ssg63
g339
sg56
(lp346
S'path'
p347
asbag49
(g70
g51
NtRp348
(dp349
g54
(dp350
g81
g82
ssg63
g339
sg56
(lp351
S':'
asbag49
(g70
g51
NtRp352
(dp353
g54
(dp354
sg63
g339
sg56
(lp355
g49
(g50
g51
NtRp356
(dp357
g54
(dp358
g62
I3
ssg63
g352
sg56
(lp359
S''
asbasbasbag49
(g65
g51
NtRp360
(dp361
g54
(dp362
sg63
g251
sg56
(lp363
g49
(g70
g51
NtRp364
(dp365
g54
(dp366
g74
g75
ssg63
g360
sg56
(lp367
S'secure'
p368
asbag49
(g70
g51
NtRp369
(dp370
g54
(dp371
g81
g82
ssg63
g360
sg56
(lp372
S':'
asbag49
(g70
g51
NtRp373
(dp374
g54
(dp375
sg63
g360
sg56
(lp376
g49
(g50
g51
NtRp377
(dp378
g54
(dp379
g62
I3
ssg63
g373
sg56
(lp380
S''
asbasbasbag49
(g65
g51
NtRp381
(dp382
g54
(dp383
sg63
g251
sg56
(lp384
g49
(g70
g51
NtRp385
(dp386
g54
(dp387
g74
g75
ssg63
g381
sg56
(lp388
S'version'
p389
asbag49
(g70
g51
NtRp390
(dp391
g54
(dp392
g81
g82
ssg63
g381
sg56
(lp393
S':'
asbag49
(g70
g51
NtRp394
(dp395
g54
(dp396
sg63
g381
sg56
(lp397
g49
(g50
g51
NtRp398
(dp399
g54
(dp400
g62
I3
ssg63
g394
sg56
(lp401
S''
asbasbasbasbasbasbasbag49
(g65
g51
NtRp402
(dp403
g54
(dp404
sg63
g226
sg56
(lp405
g49
(g70
g51
NtRp406
(dp407
g54
(dp408
g74
g75
ssg63
g402
sg56
(lp409
S'session_id_klaas'
p410
asbag49
(g70
g51
NtRp411
(dp412
g54
(dp413
g81
g82
ssg63
g402
sg56
(lp414
S':'
asbag49
(g70
g51
NtRp415
(dp416
g54
(dp417
sg63
g402
sg56
(lp418
g49
(g50
g51
NtRp419
(dp420
g54
(dp421
g62
I4
ssg63
g415
sg56
(lp422
g49
(g58
g51
NtRp423
(dp424
g54
(dp425
g62
I3
ssg63
Nsg56
(lp426
g49
(g65
g51
NtRp427
(dp428
g54
(dp429
sg63
g423
sg56
(lp430
g49
(g70
g51
NtRp431
(dp432
g54
(dp433
g74
g75
ssg63
g427
sg56
(lp434
g263
asbag49
(g70
g51
NtRp435
(dp436
g54
(dp437
g81
g82
ssg63
g427
sg56
(lp438
S':'
asbag49
(g70
g51
NtRp439
(dp440
g54
(dp441
sg63
g427
sg56
(lp442
g49
(g50
g51
NtRp443
(dp444
g54
(dp445
g62
I3
ssg63
g439
sg56
(lp446
S''
asbasbasbag49
(g65
g51
NtRp447
(dp448
g54
(dp449
sg63
g423
sg56
(lp450
g49
(g70
g51
NtRp451
(dp452
g54
(dp453
g74
g75
ssg63
g447
sg56
(lp454
g284
asbag49
(g70
g51
NtRp455
(dp456
g54
(dp457
g81
g82
ssg63
g447
sg56
(lp458
S':'
asbag49
(g70
g51
NtRp459
(dp460
g54
(dp461
sg63
g447
sg56
(lp462
g49
(g50
g51
NtRp463
(dp464
g54
(dp465
g62
I3
ssg63
g459
sg56
(lp466
S''
asbasbasbag49
(g65
g51
NtRp467
(dp468
g54
(dp469
sg63
g423
sg56
(lp470
g49
(g70
g51
NtRp471
(dp472
g54
(dp473
g74
g75
ssg63
g467
sg56
(lp474
g305
asbag49
(g70
g51
NtRp475
(dp476
g54
(dp477
g81
g82
ssg63
g467
sg56
(lp478
S':'
asbag49
(g70
g51
NtRp479
(dp480
g54
(dp481
sg63
g467
sg56
(lp482
g49
(g50
g51
NtRp483
(dp484
g54
(dp485
g62
I3
ssg63
g479
sg56
(lp486
S''
asbasbasbag49
(g65
g51
NtRp487
(dp488
g54
(dp489
sg63
g423
sg56
(lp490
g49
(g70
g51
NtRp491
(dp492
g54
(dp493
g74
g75
ssg63
g487
sg56
(lp494
g326
asbag49
(g70
g51
NtRp495
(dp496
g54
(dp497
g81
g82
ssg63
g487
sg56
(lp498
S':'
asbag49
(g70
g51
NtRp499
(dp500
g54
(dp501
sg63
g487
sg56
(lp502
g49
(g50
g51
NtRp503
(dp504
g54
(dp505
g62
I3
ssg63
g499
sg56
(lp506
S''
asbasbasbag49
(g65
g51
NtRp507
(dp508
g54
(dp509
sg63
g423
sg56
(lp510
g49
(g70
g51
NtRp511
(dp512
g54
(dp513
g74
g75
ssg63
g507
sg56
(lp514
g347
asbag49
(g70
g51
NtRp515
(dp516
g54
(dp517
g81
g82
ssg63
g507
sg56
(lp518
S':'
asbag49
(g70
g51
NtRp519
(dp520
g54
(dp521
sg63
g507
sg56
(lp522
g49
(g50
g51
NtRp523
(dp524
g54
(dp525
g62
I3
ssg63
g519
sg56
(lp526
S''
asbasbasbag49
(g65
g51
NtRp527
(dp528
g54
(dp529
sg63
g423
sg56
(lp530
g49
(g70
g51
NtRp531
(dp532
g54
(dp533
g74
g75
ssg63
g527
sg56
(lp534
g368
asbag49
(g70
g51
NtRp535
(dp536
g54
(dp537
g81
g82
ssg63
g527
sg56
(lp538
S':'
asbag49
(g70
g51
NtRp539
(dp540
g54
(dp541
sg63
g527
sg56
(lp542
g49
(g50
g51
NtRp543
(dp544
g54
(dp545
g62
I3
ssg63
g539
sg56
(lp546
S''
asbasbasbag49
(g65
g51
NtRp547
(dp548
g54
(dp549
sg63
g423
sg56
(lp550
g49
(g70
g51
NtRp551
(dp552
g54
(dp553
g74
g75
ssg63
g547
sg56
(lp554
g389
asbag49
(g70
g51
NtRp555
(dp556
g54
(dp557
g81
g82
ssg63
g547
sg56
(lp558
S':'
asbag49
(g70
g51
NtRp559
(dp560
g54
(dp561
sg63
g547
sg56
(lp562
g49
(g50
g51
NtRp563
(dp564
g54
(dp565
g62
I3
ssg63
g559
sg56
(lp566
S''
asbasbasbasbasbasbasbag49
(g65
g51
NtRp567
(dp568
g54
(dp569
sg63
g226
sg56
(lp570
g49
(g70
g51
NtRp571
(dp572
g54
(dp573
g74
g75
ssg63
g567
sg56
(lp574
S'session_id_parleyweb'
p575
asbag49
(g70
g51
NtRp576
(dp577
g54
(dp578
g81
g82
ssg63
g567
sg56
(lp579
S':'
asbag49
(g70
g51
NtRp580
(dp581
g54
(dp582
sg63
g567
sg56
(lp583
g49
(g50
g51
NtRp584
(dp585
g54
(dp586
g62
I4
ssg63
g580
sg56
(lp587
g49
(g58
g51
NtRp588
(dp589
g54
(dp590
g62
I3
ssg63
Nsg56
(lp591
g49
(g65
g51
NtRp592
(dp593
g54
(dp594
sg63
g588
sg56
(lp595
g49
(g70
g51
NtRp596
(dp597
g54
(dp598
g74
g75
ssg63
g592
sg56
(lp599
g263
asbag49
(g70
g51
NtRp600
(dp601
g54
(dp602
g81
g82
ssg63
g592
sg56
(lp603
S':'
asbag49
(g70
g51
NtRp604
(dp605
g54
(dp606
sg63
g592
sg56
(lp607
g49
(g50
g51
NtRp608
(dp609
g54
(dp610
g62
I3
ssg63
g604
sg56
(lp611
S''
asbasbasbag49
(g65
g51
NtRp612
(dp613
g54
(dp614
sg63
g588
sg56
(lp615
g49
(g70
g51
NtRp616
(dp617
g54
(dp618
g74
g75
ssg63
g612
sg56
(lp619
g284
asbag49
(g70
g51
NtRp620
(dp621
g54
(dp622
g81
g82
ssg63
g612
sg56
(lp623
S':'
asbag49
(g70
g51
NtRp624
(dp625
g54
(dp626
sg63
g612
sg56
(lp627
g49
(g50
g51
NtRp628
(dp629
g54
(dp630
g62
I3
ssg63
g624
sg56
(lp631
S''
asbasbasbag49
(g65
g51
NtRp632
(dp633
g54
(dp634
sg63
g588
sg56
(lp635
g49
(g70
g51
NtRp636
(dp637
g54
(dp638
g74
g75
ssg63
g632
sg56
(lp639
g305
asbag49
(g70
g51
NtRp640
(dp641
g54
(dp642
g81
g82
ssg63
g632
sg56
(lp643
S':'
asbag49
(g70
g51
NtRp644
(dp645
g54
(dp646
sg63
g632
sg56
(lp647
g49
(g50
g51
NtRp648
(dp649
g54
(dp650
g62
I3
ssg63
g644
sg56
(lp651
S''
asbasbasbag49
(g65
g51
NtRp652
(dp653
g54
(dp654
sg63
g588
sg56
(lp655
g49
(g70
g51
NtRp656
(dp657
g54
(dp658
g74
g75
ssg63
g652
sg56
(lp659
g326
asbag49
(g70
g51
NtRp660
(dp661
g54
(dp662
g81
g82
ssg63
g652
sg56
(lp663
S':'
asbag49
(g70
g51
NtRp664
(dp665
g54
(dp666
sg63
g652
sg56
(lp667
g49
(g50
g51
NtRp668
(dp669
g54
(dp670
g62
I3
ssg63
g664
sg56
(lp671
S''
asbasbasbag49
(g65
g51
NtRp672
(dp673
g54
(dp674
sg63
g588
sg56
(lp675
g49
(g70
g51
NtRp676
(dp677
g54
(dp678
g74
g75
ssg63
g672
sg56
(lp679
g347
asbag49
(g70
g51
NtRp680
(dp681
g54
(dp682
g81
g82
ssg63
g672
sg56
(lp683
S':'
asbag49
(g70
g51
NtRp684
(dp685
g54
(dp686
sg63
g672
sg56
(lp687
g49
(g50
g51
NtRp688
(dp689
g54
(dp690
g62
I3
ssg63
g684
sg56
(lp691
S''
asbasbasbag49
(g65
g51
NtRp692
(dp693
g54
(dp694
sg63
g588
sg56
(lp695
g49
(g70
g51
NtRp696
(dp697
g54
(dp698
g74
g75
ssg63
g692
sg56
(lp699
g368
asbag49
(g70
g51
NtRp700
(dp701
g54
(dp702
g81
g82
ssg63
g692
sg56
(lp703
S':'
asbag49
(g70
g51
NtRp704
(dp705
g54
(dp706
sg63
g692
sg56
(lp707
g49
(g50
g51
NtRp708
(dp709
g54
(dp710
g62
I3
ssg63
g704
sg56
(lp711
S''
asbasbasbag49
(g65
g51
NtRp712
(dp713
g54
(dp714
sg63
g588
sg56
(lp715
g49
(g70
g51
NtRp716
(dp717
g54
(dp718
g74
g75
ssg63
g712
sg56
(lp719
g389
asbag49
(g70
g51
NtRp720
(dp721
g54
(dp722
g81
g82
ssg63
g712
sg56
(lp723
S':'
asbag49
(g70
g51
NtRp724
(dp725
g54
(dp726
sg63
g712
sg56
(lp727
g49
(g50
g51
NtRp728
(dp729
g54
(dp730
g62
I3
ssg63
g724
sg56
(lp731
S''
asbasbasbasbasbasbasbag49
(g65
g51
NtRp732
(dp733
g54
(dp734
sg63
g226
sg56
(lp735
g49
(g70
g51
NtRp736
(dp737
g54
(dp738
g74
g75
ssg63
g732
sg56
(lp739
S'session_id_welcome'
p740
asbag49
(g70
g51
NtRp741
(dp742
g54
(dp743
g81
g82
ssg63
g732
sg56
(lp744
S':'
asbag49
(g70
g51
NtRp745
(dp746
g54
(dp747
sg63
g732
sg56
(lp748
g49
(g50
g51
NtRp749
(dp750
g54
(dp751
g62
I4
ssg63
g745
sg56
(lp752
g49
(g58
g51
NtRp753
(dp754
g54
(dp755
g62
I3
ssg63
Nsg56
(lp756
g49
(g65
g51
NtRp757
(dp758
g54
(dp759
sg63
g753
sg56
(lp760
g49
(g70
g51
NtRp761
(dp762
g54
(dp763
g74
g75
ssg63
g757
sg56
(lp764
g263
asbag49
(g70
g51
NtRp765
(dp766
g54
(dp767
g81
g82
ssg63
g757
sg56
(lp768
S':'
asbag49
(g70
g51
NtRp769
(dp770
g54
(dp771
sg63
g757
sg56
(lp772
g49
(g50
g51
NtRp773
(dp774
g54
(dp775
g62
I3
ssg63
g769
sg56
(lp776
S''
asbasbasbag49
(g65
g51
NtRp777
(dp778
g54
(dp779
sg63
g753
sg56
(lp780
g49
(g70
g51
NtRp781
(dp782
g54
(dp783
g74
g75
ssg63
g777
sg56
(lp784
g284
asbag49
(g70
g51
NtRp785
(dp786
g54
(dp787
g81
g82
ssg63
g777
sg56
(lp788
S':'
asbag49
(g70
g51
NtRp789
(dp790
g54
(dp791
sg63
g777
sg56
(lp792
g49
(g50
g51
NtRp793
(dp794
g54
(dp795
g62
I3
ssg63
g789
sg56
(lp796
S''
asbasbasbag49
(g65
g51
NtRp797
(dp798
g54
(dp799
sg63
g753
sg56
(lp800
g49
(g70
g51
NtRp801
(dp802
g54
(dp803
g74
g75
ssg63
g797
sg56
(lp804
g305
asbag49
(g70
g51
NtRp805
(dp806
g54
(dp807
g81
g82
ssg63
g797
sg56
(lp808
S':'
asbag49
(g70
g51
NtRp809
(dp810
g54
(dp811
sg63
g797
sg56
(lp812
g49
(g50
g51
NtRp813
(dp814
g54
(dp815
g62
I3
ssg63
g809
sg56
(lp816
S''
asbasbasbag49
(g65
g51
NtRp817
(dp818
g54
(dp819
sg63
g753
sg56
(lp820
g49
(g70
g51
NtRp821
(dp822
g54
(dp823
g74
g75
ssg63
g817
sg56
(lp824
g326
asbag49
(g70
g51
NtRp825
(dp826
g54
(dp827
g81
g82
ssg63
g817
sg56
(lp828
S':'
asbag49
(g70
g51
NtRp829
(dp830
g54
(dp831
sg63
g817
sg56
(lp832
g49
(g50
g51
NtRp833
(dp834
g54
(dp835
g62
I3
ssg63
g829
sg56
(lp836
S''
asbasbasbag49
(g65
g51
NtRp837
(dp838
g54
(dp839
sg63
g753
sg56
(lp840
g49
(g70
g51
NtRp841
(dp842
g54
(dp843
g74
g75
ssg63
g837
sg56
(lp844
g347
asbag49
(g70
g51
NtRp845
(dp846
g54
(dp847
g81
g82
ssg63
g837
sg56
(lp848
S':'
asbag49
(g70
g51
NtRp849
(dp850
g54
(dp851
sg63
g837
sg56
(lp852
g49
(g50
g51
NtRp853
(dp854
g54
(dp855
g62
I3
ssg63
g849
sg56
(lp856
S''
asbasbasbag49
(g65
g51
NtRp857
(dp858
g54
(dp859
sg63
g753
sg56
(lp860
g49
(g70
g51
NtRp861
(dp862
g54
(dp863
g74
g75
ssg63
g857
sg56
(lp864
g368
asbag49
(g70
g51
NtRp865
(dp866
g54
(dp867
g81
g82
ssg63
g857
sg56
(lp868
S':'
asbag49
(g70
g51
NtRp869
(dp870
g54
(dp871
sg63
g857
sg56
(lp872
g49
(g50
g51
NtRp873
(dp874
g54
(dp875
g62
I3
ssg63
g869
sg56
(lp876
S''
asbasbasbag49
(g65
g51
NtRp877
(dp878
g54
(dp879
sg63
g753
sg56
(lp880
g49
(g70
g51
NtRp881
(dp882
g54
(dp883
g74
g75
ssg63
g877
sg56
(lp884
g389
asbag49
(g70
g51
NtRp885
(dp886
g54
(dp887
g81
g82
ssg63
g877
sg56
(lp888
S':'
asbag49
(g70
g51
NtRp889
(dp890
g54
(dp891
sg63
g877
sg56
(lp892
g49
(g50
g51
NtRp893
(dp894
g54
(dp895
g62
I3
ssg63
g889
sg56
(lp896
S''
asbasbasbasbasbasbasbasbasbasbasbag49
(g65
g51
NtRp897
(dp898
g54
(dp899
sg63
g59
sg56
(lp900
g49
(g70
g51
NtRp901
(dp902
g54
(dp903
g74
g75
ssg63
g897
sg56
(lp904
S'env'
p905
asbag49
(g70
g51
NtRp906
(dp907
g54
(dp908
g81
g82
ssg63
g897
sg56
(lp909
S':'
asbag49
(g70
g51
NtRp910
(dp911
g54
(dp912
sg63
g897
sg56
(lp913
g49
(g50
g51
NtRp914
(dp915
g54
(dp916
g62
I5
ssg63
g910
sg56
(lp917
g49
(g58
g51
NtRp918
(dp919
g54
(dp920
g62
I4
ssg63
Nsg56
(lp921
g49
(g65
g51
NtRp922
(dp923
g54
(dp924
sg63
g918
sg56
(lp925
g49
(g70
g51
NtRp926
(dp927
g54
(dp928
g74
g75
ssg63
g922
sg56
(lp929
S'app_folders'
p930
asbag49
(g70
g51
NtRp931
(dp932
g54
(dp933
g81
g82
ssg63
g922
sg56
(lp934
S':'
asbag49
(g70
g51
NtRp935
(dp936
g54
(dp937
sg63
g922
sg56
(lp938
g49
(g50
g51
NtRp939
(dp940
g54
(dp941
g62
I4
ssg63
g935
sg56
(lp942
S"set(['D:\\\\Dise\\xf1o Web\\\\Proyectos\\\\Parleyweb\\\\web2py\\\\applications\\\\parleyweb\\\\', 'D:\\\\Dise\\xf1o Web\\\\Proyectos\\\\Parleyweb\\\\web2py\\\\applications\\\\welcome\\\\', 'D:\\\\Dise\\xf1o Web\\\\Proyectos\\\\Parleyweb\\\\web2py\\\\applications\\\\admin\\\\'])"
p943
asbasbasbag49
(g65
g51
NtRp944
(dp945
g54
(dp946
sg63
g918
sg56
(lp947
g49
(g70
g51
NtRp948
(dp949
g54
(dp950
g74
g75
ssg63
g944
sg56
(lp951
S'applications_parent'
p952
asbag49
(g70
g51
NtRp953
(dp954
g54
(dp955
g81
g82
ssg63
g944
sg56
(lp956
S':'
asbag49
(g70
g51
NtRp957
(dp958
g54
(dp959
sg63
g944
sg56
(lp960
g49
(g50
g51
NtRp961
(dp962
g54
(dp963
g62
I4
ssg63
g957
sg56
(lp964
S'D:\\Dise\xf1o Web\\Proyectos\\Parleyweb\\web2py'
p965
asbasbasbag49
(g65
g51
NtRp966
(dp967
g54
(dp968
sg63
g918
sg56
(lp969
g49
(g70
g51
NtRp970
(dp971
g54
(dp972
g74
g75
ssg63
g966
sg56
(lp973
S'cmd_args'
p974
asbag49
(g70
g51
NtRp975
(dp976
g54
(dp977
g81
g82
ssg63
g966
sg56
(lp978
S':'
asbag49
(g70
g51
NtRp979
(dp980
g54
(dp981
sg63
g966
sg56
(lp982
g49
(g50
g51
NtRp983
(dp984
g54
(dp985
g62
I4
ssg63
g979
sg56
(lp986
g49
(g58
g51
NtRp987
(dp988
g54
(dp989
g62
I3
ssg63
Nsg56
(lp990
sbasbasbasbag49
(g65
g51
NtRp991
(dp992
g54
(dp993
sg63
g918
sg56
(lp994
g49
(g70
g51
NtRp995
(dp996
g54
(dp997
g74
g75
ssg63
g991
sg56
(lp998
S'cmd_options'
p999
asbag49
(g70
g51
NtRp1000
(dp1001
g54
(dp1002
g81
g82
ssg63
g991
sg56
(lp1003
S':'
asbag49
(g70
g51
NtRp1004
(dp1005
g54
(dp1006
sg63
g991
sg56
(lp1007
g49
(g50
g51
NtRp1008
(dp1009
g54
(dp1010
g62
I4
ssg63
g1004
sg56
(lp1011
S"<Values at 0x30bff30: {'verbose': False, 'ip': '127.0.0.1', 'shutdown_timeout': 5, 'taskbar': False, 'nocron': False, 'pid_filename': 'httpserver.pid', 'maxthreads': None, 'softcron': False, 'server_name': 'craxsnet-PC', 'bpython': False, 'nogui': False, 'port': 8000, 'extcron': False, 'debuglevel': 30, 'test': None, 'folder': 'D:\\\\Dise\\xf1o Web\\\\Proyectos\\\\Parleyweb\\\\web2py', 'config': '', 'import_models': False, 'winservice': '', 'shell': None, 'run': '', 'log_filename': 'httpserver.log', 'args': [''], 'socket_timeout': 5, 'ssl_ca_certificate': None, 'scheduler': None, 'profiler_filename': None, 'ssl_private_key': '', 'password': '<ask>', 'request_queue_size': 5, 'ssl_certificate': '', 'cronjob': False, 'numthreads': None, 'quiet': False, 'interfaces': None, 'minthreads': None, 'timeout': 10, 'plain': False, 'nobanner': False}>"
p1012
asbasbasbag49
(g65
g51
NtRp1013
(dp1014
g54
(dp1015
sg63
g918
sg56
(lp1016
g49
(g70
g51
NtRp1017
(dp1018
g54
(dp1019
g74
g75
ssg63
g1013
sg56
(lp1020
S'db_sessions'
p1021
asbag49
(g70
g51
NtRp1022
(dp1023
g54
(dp1024
g81
g82
ssg63
g1013
sg56
(lp1025
S':'
asbag49
(g70
g51
NtRp1026
(dp1027
g54
(dp1028
sg63
g1013
sg56
(lp1029
g49
(g50
g51
NtRp1030
(dp1031
g54
(dp1032
g62
I4
ssg63
g1026
sg56
(lp1033
S'set([])'
p1034
asbasbasbag49
(g65
g51
NtRp1035
(dp1036
g54
(dp1037
sg63
g918
sg56
(lp1038
g49
(g70
g51
NtRp1039
(dp1040
g54
(dp1041
g74
g75
ssg63
g1035
sg56
(lp1042
S'debugging'
p1043
asbag49
(g70
g51
NtRp1044
(dp1045
g54
(dp1046
g81
g82
ssg63
g1035
sg56
(lp1047
S':'
asbag49
(g70
g51
NtRp1048
(dp1049
g54
(dp1050
sg63
g1035
sg56
(lp1051
g49
(g50
g51
NtRp1052
(dp1053
g54
(dp1054
g62
I4
ssg63
g1048
sg56
(lp1055
g92
asbasbasbag49
(g65
g51
NtRp1056
(dp1057
g54
(dp1058
sg63
g918
sg56
(lp1059
g49
(g70
g51
NtRp1060
(dp1061
g54
(dp1062
g74
g75
ssg63
g1056
sg56
(lp1063
S'gluon_parent'
p1064
asbag49
(g70
g51
NtRp1065
(dp1066
g54
(dp1067
g81
g82
ssg63
g1056
sg56
(lp1068
S':'
asbag49
(g70
g51
NtRp1069
(dp1070
g54
(dp1071
sg63
g1056
sg56
(lp1072
g49
(g50
g51
NtRp1073
(dp1074
g54
(dp1075
g62
I4
ssg63
g1069
sg56
(lp1076
S'D:\\Dise\xf1o Web\\Proyectos\\Parleyweb\\web2py'
p1077
asbasbasbag49
(g65
g51
NtRp1078
(dp1079
g54
(dp1080
sg63
g918
sg56
(lp1081
g49
(g70
g51
NtRp1082
(dp1083
g54
(dp1084
g74
g75
ssg63
g1078
sg56
(lp1085
S'http_accept'
p1086
asbag49
(g70
g51
NtRp1087
(dp1088
g54
(dp1089
g81
g82
ssg63
g1078
sg56
(lp1090
S':'
asbag49
(g70
g51
NtRp1091
(dp1092
g54
(dp1093
sg63
g1078
sg56
(lp1094
g49
(g50
g51
NtRp1095
(dp1096
g54
(dp1097
g62
I4
ssg63
g1091
sg56
(lp1098
S'text/html,application/xhtml+xml,application/xml;q=0.9,*/*;q=0.8'
p1099
asbasbasbag49
(g65
g51
NtRp1100
(dp1101
g54
(dp1102
sg63
g918
sg56
(lp1103
g49
(g70
g51
NtRp1104
(dp1105
g54
(dp1106
g74
g75
ssg63
g1100
sg56
(lp1107
S'http_accept_encoding'
p1108
asbag49
(g70
g51
NtRp1109
(dp1110
g54
(dp1111
g81
g82
ssg63
g1100
sg56
(lp1112
S':'
asbag49
(g70
g51
NtRp1113
(dp1114
g54
(dp1115
sg63
g1100
sg56
(lp1116
g49
(g50
g51
NtRp1117
(dp1118
g54
(dp1119
g62
I4
ssg63
g1113
sg56
(lp1120
S'gzip, deflate'
p1121
asbasbasbag49
(g65
g51
NtRp1122
(dp1123
g54
(dp1124
sg63
g918
sg56
(lp1125
g49
(g70
g51
NtRp1126
(dp1127
g54
(dp1128
g74
g75
ssg63
g1122
sg56
(lp1129
S'http_accept_language'
p1130
asbag49
(g70
g51
NtRp1131
(dp1132
g54
(dp1133
g81
g82
ssg63
g1122
sg56
(lp1134
S':'
asbag49
(g70
g51
NtRp1135
(dp1136
g54
(dp1137
sg63
g1122
sg56
(lp1138
g49
(g50
g51
NtRp1139
(dp1140
g54
(dp1141
g62
I4
ssg63
g1135
sg56
(lp1142
S'es-es,de-de;q=0.8,es;q=0.6,en-us;q=0.4,en;q=0.2'
p1143
asbasbasbag49
(g65
g51
NtRp1144
(dp1145
g54
(dp1146
sg63
g918
sg56
(lp1147
g49
(g70
g51
NtRp1148
(dp1149
g54
(dp1150
g74
g75
ssg63
g1144
sg56
(lp1151
S'http_connection'
p1152
asbag49
(g70
g51
NtRp1153
(dp1154
g54
(dp1155
g81
g82
ssg63
g1144
sg56
(lp1156
S':'
asbag49
(g70
g51
NtRp1157
(dp1158
g54
(dp1159
sg63
g1144
sg56
(lp1160
g49
(g50
g51
NtRp1161
(dp1162
g54
(dp1163
g62
I4
ssg63
g1157
sg56
(lp1164
S'keep-alive'
p1165
asbasbasbag49
(g65
g51
NtRp1166
(dp1167
g54
(dp1168
sg63
g918
sg56
(lp1169
g49
(g70
g51
NtRp1170
(dp1171
g54
(dp1172
g74
g75
ssg63
g1166
sg56
(lp1173
S'http_cookie'
p1174
asbag49
(g70
g51
NtRp1175
(dp1176
g54
(dp1177
g81
g82
ssg63
g1166
sg56
(lp1178
S':'
asbag49
(g70
g51
NtRp1179
(dp1180
g54
(dp1181
sg63
g1166
sg56
(lp1182
g49
(g50
g51
NtRp1183
(dp1184
g54
(dp1185
g62
I4
ssg63
g1179
sg56
(lp1186
S'__utma=96992031.26429765.1325029743.1325029743.1326549329.2; __utmz=96992031.1325029743.1.1.utmcsr=(direct)|utmccn=(direct)|utmcmd=(none); session_id_klaas=127.0.0.1-22979940-8cc3-49bc-9f44-0623615d817e; session_id_welcome=127.0.0.1-66b42615-8608-436c-b509-0246c4cfd00e; session_id_admin=127.0.0.1-e5279095-7b9f-4d46-b577-71e870d46308; session_id_parleyweb=127.0.0.1-941ea06b-718e-475d-8aba-022805d8afd9'
p1187
asbasbasbag49
(g65
g51
NtRp1188
(dp1189
g54
(dp1190
sg63
g918
sg56
(lp1191
g49
(g70
g51
NtRp1192
(dp1193
g54
(dp1194
g74
g75
ssg63
g1188
sg56
(lp1195
S'http_host'
p1196
asbag49
(g70
g51
NtRp1197
(dp1198
g54
(dp1199
g81
g82
ssg63
g1188
sg56
(lp1200
S':'
asbag49
(g70
g51
NtRp1201
(dp1202
g54
(dp1203
sg63
g1188
sg56
(lp1204
g49
(g50
g51
NtRp1205
(dp1206
g54
(dp1207
g62
I4
ssg63
g1201
sg56
(lp1208
S'127.0.0.1:8000'
p1209
asbasbasbag49
(g65
g51
NtRp1210
(dp1211
g54
(dp1212
sg63
g918
sg56
(lp1213
g49
(g70
g51
NtRp1214
(dp1215
g54
(dp1216
g74
g75
ssg63
g1210
sg56
(lp1217
S'http_user_agent'
p1218
asbag49
(g70
g51
NtRp1219
(dp1220
g54
(dp1221
g81
g82
ssg63
g1210
sg56
(lp1222
S':'
asbag49
(g70
g51
NtRp1223
(dp1224
g54
(dp1225
sg63
g1210
sg56
(lp1226
g49
(g50
g51
NtRp1227
(dp1228
g54
(dp1229
g62
I4
ssg63
g1223
sg56
(lp1230
S'Mozilla/5.0 (Windows NT 6.1; WOW64; rv:10.0.2) Gecko/20100101 Firefox/10.0.2'
p1231
asbasbasbag49
(g65
g51
NtRp1232
(dp1233
g54
(dp1234
sg63
g918
sg56
(lp1235
g49
(g70
g51
NtRp1236
(dp1237
g54
(dp1238
g74
g75
ssg63
g1232
sg56
(lp1239
S'is_jython'
p1240
asbag49
(g70
g51
NtRp1241
(dp1242
g54
(dp1243
g81
g82
ssg63
g1232
sg56
(lp1244
S':'
asbag49
(g70
g51
NtRp1245
(dp1246
g54
(dp1247
sg63
g1232
sg56
(lp1248
g49
(g50
g51
NtRp1249
(dp1250
g54
(dp1251
g62
I4
ssg63
g1245
sg56
(lp1252
g92
asbasbasbag49
(g65
g51
NtRp1253
(dp1254
g54
(dp1255
sg63
g918
sg56
(lp1256
g49
(g70
g51
NtRp1257
(dp1258
g54
(dp1259
g74
g75
ssg63
g1253
sg56
(lp1260
S'is_pypy'
p1261
asbag49
(g70
g51
NtRp1262
(dp1263
g54
(dp1264
g81
g82
ssg63
g1253
sg56
(lp1265
S':'
asbag49
(g70
g51
NtRp1266
(dp1267
g54
(dp1268
sg63
g1253
sg56
(lp1269
g49
(g50
g51
NtRp1270
(dp1271
g54
(dp1272
g62
I4
ssg63
g1266
sg56
(lp1273
g92
asbasbasbag49
(g65
g51
NtRp1274
(dp1275
g54
(dp1276
sg63
g918
sg56
(lp1277
g49
(g70
g51
NtRp1278
(dp1279
g54
(dp1280
g74
g75
ssg63
g1274
sg56
(lp1281
S'path_info'
p1282
asbag49
(g70
g51
NtRp1283
(dp1284
g54
(dp1285
g81
g82
ssg63
g1274
sg56
(lp1286
S':'
asbag49
(g70
g51
NtRp1287
(dp1288
g54
(dp1289
sg63
g1274
sg56
(lp1290
g49
(g50
g51
NtRp1291
(dp1292
g54
(dp1293
g62
I4
ssg63
g1287
sg56
(lp1294
S'/parleyweb/'
p1295
asbasbasbag49
(g65
g51
NtRp1296
(dp1297
g54
(dp1298
sg63
g918
sg56
(lp1299
g49
(g70
g51
NtRp1300
(dp1301
g54
(dp1302
g74
g75
ssg63
g1296
sg56
(lp1303
S'query_string'
p1304
asbag49
(g70
g51
NtRp1305
(dp1306
g54
(dp1307
g81
g82
ssg63
g1296
sg56
(lp1308
S':'
asbag49
(g70
g51
NtRp1309
(dp1310
g54
(dp1311
sg63
g1296
sg56
(lp1312
g49
(g50
g51
NtRp1313
(dp1314
g54
(dp1315
g62
I4
ssg63
g1309
sg56
(lp1316
S''
asbasbasbag49
(g65
g51
NtRp1317
(dp1318
g54
(dp1319
sg63
g918
sg56
(lp1320
g49
(g70
g51
NtRp1321
(dp1322
g54
(dp1323
g74
g75
ssg63
g1317
sg56
(lp1324
S'remote_addr'
p1325
asbag49
(g70
g51
NtRp1326
(dp1327
g54
(dp1328
g81
g82
ssg63
g1317
sg56
(lp1329
S':'
asbag49
(g70
g51
NtRp1330
(dp1331
g54
(dp1332
sg63
g1317
sg56
(lp1333
g49
(g50
g51
NtRp1334
(dp1335
g54
(dp1336
g62
I4
ssg63
g1330
sg56
(lp1337
g182
asbasbasbag49
(g65
g51
NtRp1338
(dp1339
g54
(dp1340
sg63
g918
sg56
(lp1341
g49
(g70
g51
NtRp1342
(dp1343
g54
(dp1344
g74
g75
ssg63
g1338
sg56
(lp1345
S'remote_port'
p1346
asbag49
(g70
g51
NtRp1347
(dp1348
g54
(dp1349
g81
g82
ssg63
g1338
sg56
(lp1350
S':'
asbag49
(g70
g51
NtRp1351
(dp1352
g54
(dp1353
sg63
g1338
sg56
(lp1354
g49
(g50
g51
NtRp1355
(dp1356
g54
(dp1357
g62
I4
ssg63
g1351
sg56
(lp1358
S'54685'
p1359
asbasbasbag49
(g65
g51
NtRp1360
(dp1361
g54
(dp1362
sg63
g918
sg56
(lp1363
g49
(g70
g51
NtRp1364
(dp1365
g54
(dp1366
g74
g75
ssg63
g1360
sg56
(lp1367
S'request_method'
p1368
asbag49
(g70
g51
NtRp1369
(dp1370
g54
(dp1371
g81
g82
ssg63
g1360
sg56
(lp1372
S':'
asbag49
(g70
g51
NtRp1373
(dp1374
g54
(dp1375
sg63
g1360
sg56
(lp1376
g49
(g50
g51
NtRp1377
(dp1378
g54
(dp1379
g62
I4
ssg63
g1373
sg56
(lp1380
S'GET'
p1381
asbasbasbag49
(g65
g51
NtRp1382
(dp1383
g54
(dp1384
sg63
g918
sg56
(lp1385
g49
(g70
g51
NtRp1386
(dp1387
g54
(dp1388
g74
g75
ssg63
g1382
sg56
(lp1389
S'script_name'
p1390
asbag49
(g70
g51
NtRp1391
(dp1392
g54
(dp1393
g81
g82
ssg63
g1382
sg56
(lp1394
S':'
asbag49
(g70
g51
NtRp1395
(dp1396
g54
(dp1397
sg63
g1382
sg56
(lp1398
g49
(g50
g51
NtRp1399
(dp1400
g54
(dp1401
g62
I4
ssg63
g1395
sg56
(lp1402
S''
asbasbasbag49
(g65
g51
NtRp1403
(dp1404
g54
(dp1405
sg63
g918
sg56
(lp1406
g49
(g70
g51
NtRp1407
(dp1408
g54
(dp1409
g74
g75
ssg63
g1403
sg56
(lp1410
S'server_name'
p1411
asbag49
(g70
g51
NtRp1412
(dp1413
g54
(dp1414
g81
g82
ssg63
g1403
sg56
(lp1415
S':'
asbag49
(g70
g51
NtRp1416
(dp1417
g54
(dp1418
sg63
g1403
sg56
(lp1419
g49
(g50
g51
NtRp1420
(dp1421
g54
(dp1422
g62
I4
ssg63
g1416
sg56
(lp1423
S'craxsnet-PC'
p1424
asbasbasbag49
(g65
g51
NtRp1425
(dp1426
g54
(dp1427
sg63
g918
sg56
(lp1428
g49
(g70
g51
NtRp1429
(dp1430
g54
(dp1431
g74
g75
ssg63
g1425
sg56
(lp1432
S'server_port'
p1433
asbag49
(g70
g51
NtRp1434
(dp1435
g54
(dp1436
g81
g82
ssg63
g1425
sg56
(lp1437
S':'
asbag49
(g70
g51
NtRp1438
(dp1439
g54
(dp1440
sg63
g1425
sg56
(lp1441
g49
(g50
g51
NtRp1442
(dp1443
g54
(dp1444
g62
I4
ssg63
g1438
sg56
(lp1445
S'8000'
p1446
asbasbasbag49
(g65
g51
NtRp1447
(dp1448
g54
(dp1449
sg63
g918
sg56
(lp1450
g49
(g70
g51
NtRp1451
(dp1452
g54
(dp1453
g74
g75
ssg63
g1447
sg56
(lp1454
S'server_protocol'
p1455
asbag49
(g70
g51
NtRp1456
(dp1457
g54
(dp1458
g81
g82
ssg63
g1447
sg56
(lp1459
S':'
asbag49
(g70
g51
NtRp1460
(dp1461
g54
(dp1462
sg63
g1447
sg56
(lp1463
g49
(g50
g51
NtRp1464
(dp1465
g54
(dp1466
g62
I4
ssg63
g1460
sg56
(lp1467
S'HTTP/1.1'
p1468
asbasbasbag49
(g65
g51
NtRp1469
(dp1470
g54
(dp1471
sg63
g918
sg56
(lp1472
g49
(g70
g51
NtRp1473
(dp1474
g54
(dp1475
g74
g75
ssg63
g1469
sg56
(lp1476
S'server_software'
p1477
asbag49
(g70
g51
NtRp1478
(dp1479
g54
(dp1480
g81
g82
ssg63
g1469
sg56
(lp1481
S':'
asbag49
(g70
g51
NtRp1482
(dp1483
g54
(dp1484
sg63
g1469
sg56
(lp1485
g49
(g50
g51
NtRp1486
(dp1487
g54
(dp1488
g62
I4
ssg63
g1482
sg56
(lp1489
S'Rocket 1.2.4'
p1490
asbasbasbag49
(g65
g51
NtRp1491
(dp1492
g54
(dp1493
sg63
g918
sg56
(lp1494
g49
(g70
g51
NtRp1495
(dp1496
g54
(dp1497
g74
g75
ssg63
g1491
sg56
(lp1498
S'web2py_crontype'
p1499
asbag49
(g70
g51
NtRp1500
(dp1501
g54
(dp1502
g81
g82
ssg63
g1491
sg56
(lp1503
S':'
asbag49
(g70
g51
NtRp1504
(dp1505
g54
(dp1506
sg63
g1491
sg56
(lp1507
g49
(g50
g51
NtRp1508
(dp1509
g54
(dp1510
g62
I4
ssg63
g1504
sg56
(lp1511
S'hard'
p1512
asbasbasbag49
(g65
g51
NtRp1513
(dp1514
g54
(dp1515
sg63
g918
sg56
(lp1516
g49
(g70
g51
NtRp1517
(dp1518
g54
(dp1519
g74
g75
ssg63
g1513
sg56
(lp1520
S'web2py_path'
p1521
asbag49
(g70
g51
NtRp1522
(dp1523
g54
(dp1524
g81
g82
ssg63
g1513
sg56
(lp1525
S':'
asbag49
(g70
g51
NtRp1526
(dp1527
g54
(dp1528
sg63
g1513
sg56
(lp1529
g49
(g50
g51
NtRp1530
(dp1531
g54
(dp1532
g62
I4
ssg63
g1526
sg56
(lp1533
g965
asbasbasbag49
(g65
g51
NtRp1534
(dp1535
g54
(dp1536
sg63
g918
sg56
(lp1537
g49
(g70
g51
NtRp1538
(dp1539
g54
(dp1540
g74
g75
ssg63
g1534
sg56
(lp1541
S'web2py_version'
p1542
asbag49
(g70
g51
NtRp1543
(dp1544
g54
(dp1545
g81
g82
ssg63
g1534
sg56
(lp1546
S':'
asbag49
(g70
g51
NtRp1547
(dp1548
g54
(dp1549
sg63
g1534
sg56
(lp1550
g49
(g50
g51
NtRp1551
(dp1552
g54
(dp1553
g62
I4
ssg63
g1547
sg56
(lp1554
g49
(g58
g51
NtRp1555
(dp1556
g54
(dp1557
g62
I3
ssg63
Nsg56
(lp1558
g49
(g65
g51
NtRp1559
(dp1560
g54
(dp1561
sg63
g1555
sg56
(lp1562
g49
(g70
g51
NtRp1563
(dp1564
g54
(dp1565
sg63
g1559
sg56
(lp1566
g49
(g50
g51
NtRp1567
(dp1568
g54
(dp1569
g62
I3
ssg63
g1563
sg56
(lp1570
S'1'
asbasbasbag49
(g65
g51
NtRp1571
(dp1572
g54
(dp1573
sg63
g1555
sg56
(lp1574
g49
(g70
g51
NtRp1575
(dp1576
g54
(dp1577
sg63
g1571
sg56
(lp1578
g49
(g50
g51
NtRp1579
(dp1580
g54
(dp1581
g62
I3
ssg63
g1575
sg56
(lp1582
S'99'
p1583
asbasbasbag49
(g65
g51
NtRp1584
(dp1585
g54
(dp1586
sg63
g1555
sg56
(lp1587
g49
(g70
g51
NtRp1588
(dp1589
g54
(dp1590
sg63
g1584
sg56
(lp1591
g49
(g50
g51
NtRp1592
(dp1593
g54
(dp1594
g62
I3
ssg63
g1588
sg56
(lp1595
S'7'
asbasbasbag49
(g65
g51
NtRp1596
(dp1597
g54
(dp1598
sg63
g1555
sg56
(lp1599
g49
(g70
g51
NtRp1600
(dp1601
g54
(dp1602
sg63
g1596
sg56
(lp1603
g49
(g50
g51
NtRp1604
(dp1605
g54
(dp1606
g62
I3
ssg63
g1600
sg56
(lp1607
S'datetime.datetime(2012, 3, 4, 22, 12, 8)'
p1608
asbasbasbag49
(g65
g51
NtRp1609
(dp1610
g54
(dp1611
sg63
g1555
sg56
(lp1612
g49
(g70
g51
NtRp1613
(dp1614
g54
(dp1615
sg63
g1609
sg56
(lp1616
g49
(g50
g51
NtRp1617
(dp1618
g54
(dp1619
g62
I3
ssg63
g1613
sg56
(lp1620
S'stable'
p1621
asbasbasbasbasbasbasbag49
(g65
g51
NtRp1622
(dp1623
g54
(dp1624
sg63
g918
sg56
(lp1625
g49
(g70
g51
NtRp1626
(dp1627
g54
(dp1628
g74
g75
ssg63
g1622
sg56
(lp1629
S'wsgi_errors'
p1630
asbag49
(g70
g51
NtRp1631
(dp1632
g54
(dp1633
g81
g82
ssg63
g1622
sg56
(lp1634
S':'
asbag49
(g70
g51
NtRp1635
(dp1636
g54
(dp1637
sg63
g1622
sg56
(lp1638
g49
(g50
g51
NtRp1639
(dp1640
g54
(dp1641
g62
I4
ssg63
g1635
sg56
(lp1642
S"<open file '<stderr>', mode 'w' at 0x01F400B0>"
p1643
asbasbasbag49
(g65
g51
NtRp1644
(dp1645
g54
(dp1646
sg63
g918
sg56
(lp1647
g49
(g70
g51
NtRp1648
(dp1649
g54
(dp1650
g74
g75
ssg63
g1644
sg56
(lp1651
S'wsgi_file_wrapper'
p1652
asbag49
(g70
g51
NtRp1653
(dp1654
g54
(dp1655
g81
g82
ssg63
g1644
sg56
(lp1656
S':'
asbag49
(g70
g51
NtRp1657
(dp1658
g54
(dp1659
sg63
g1644
sg56
(lp1660
g49
(g50
g51
NtRp1661
(dp1662
g54
(dp1663
g62
I4
ssg63
g1657
sg56
(lp1664
S'<class wsgiref.util.FileWrapper at 0x02EB5390>'
p1665
asbasbasbag49
(g65
g51
NtRp1666
(dp1667
g54
(dp1668
sg63
g918
sg56
(lp1669
g49
(g70
g51
NtRp1670
(dp1671
g54
(dp1672
g74
g75
ssg63
g1666
sg56
(lp1673
S'wsgi_input'
p1674
asbag49
(g70
g51
NtRp1675
(dp1676
g54
(dp1677
g81
g82
ssg63
g1666
sg56
(lp1678
S':'
asbag49
(g70
g51
NtRp1679
(dp1680
g54
(dp1681
sg63
g1666
sg56
(lp1682
g49
(g50
g51
NtRp1683
(dp1684
g54
(dp1685
g62
I4
ssg63
g1679
sg56
(lp1686
S'<socket._fileobject object at 0x069C5A30>'
p1687
asbasbasbag49
(g65
g51
NtRp1688
(dp1689
g54
(dp1690
sg63
g918
sg56
(lp1691
g49
(g70
g51
NtRp1692
(dp1693
g54
(dp1694
g74
g75
ssg63
g1688
sg56
(lp1695
S'wsgi_multiprocess'
p1696
asbag49
(g70
g51
NtRp1697
(dp1698
g54
(dp1699
g81
g82
ssg63
g1688
sg56
(lp1700
S':'
asbag49
(g70
g51
NtRp1701
(dp1702
g54
(dp1703
sg63
g1688
sg56
(lp1704
g49
(g50
g51
NtRp1705
(dp1706
g54
(dp1707
g62
I4
ssg63
g1701
sg56
(lp1708
g92
asbasbasbag49
(g65
g51
NtRp1709
(dp1710
g54
(dp1711
sg63
g918
sg56
(lp1712
g49
(g70
g51
NtRp1713
(dp1714
g54
(dp1715
g74
g75
ssg63
g1709
sg56
(lp1716
S'wsgi_multithread'
p1717
asbag49
(g70
g51
NtRp1718
(dp1719
g54
(dp1720
g81
g82
ssg63
g1709
sg56
(lp1721
S':'
asbag49
(g70
g51
NtRp1722
(dp1723
g54
(dp1724
sg63
g1709
sg56
(lp1725
g49
(g50
g51
NtRp1726
(dp1727
g54
(dp1728
g62
I4
ssg63
g1722
sg56
(lp1729
S'True'
p1730
asbasbasbag49
(g65
g51
NtRp1731
(dp1732
g54
(dp1733
sg63
g918
sg56
(lp1734
g49
(g70
g51
NtRp1735
(dp1736
g54
(dp1737
g74
g75
ssg63
g1731
sg56
(lp1738
S'wsgi_run_once'
p1739
asbag49
(g70
g51
NtRp1740
(dp1741
g54
(dp1742
g81
g82
ssg63
g1731
sg56
(lp1743
S':'
asbag49
(g70
g51
NtRp1744
(dp1745
g54
(dp1746
sg63
g1731
sg56
(lp1747
g49
(g50
g51
NtRp1748
(dp1749
g54
(dp1750
g62
I4
ssg63
g1744
sg56
(lp1751
g92
asbasbasbag49
(g65
g51
NtRp1752
(dp1753
g54
(dp1754
sg63
g918
sg56
(lp1755
g49
(g70
g51
NtRp1756
(dp1757
g54
(dp1758
g74
g75
ssg63
g1752
sg56
(lp1759
S'wsgi_url_scheme'
p1760
asbag49
(g70
g51
NtRp1761
(dp1762
g54
(dp1763
g81
g82
ssg63
g1752
sg56
(lp1764
S':'
asbag49
(g70
g51
NtRp1765
(dp1766
g54
(dp1767
sg63
g1752
sg56
(lp1768
g49
(g50
g51
NtRp1769
(dp1770
g54
(dp1771
g62
I4
ssg63
g1765
sg56
(lp1772
S'http'
p1773
asbasbasbag49
(g65
g51
NtRp1774
(dp1775
g54
(dp1776
sg63
g918
sg56
(lp1777
g49
(g70
g51
NtRp1778
(dp1779
g54
(dp1780
g74
g75
ssg63
g1774
sg56
(lp1781
S'wsgi_version'
p1782
asbag49
(g70
g51
NtRp1783
(dp1784
g54
(dp1785
g81
g82
ssg63
g1774
sg56
(lp1786
S':'
asbag49
(g70
g51
NtRp1787
(dp1788
g54
(dp1789
sg63
g1774
sg56
(lp1790
g49
(g50
g51
NtRp1791
(dp1792
g54
(dp1793
g62
I4
ssg63
g1787
sg56
(lp1794
g49
(g58
g51
NtRp1795
(dp1796
g54
(dp1797
g62
I3
ssg63
Nsg56
(lp1798
g49
(g65
g51
NtRp1799
(dp1800
g54
(dp1801
sg63
g1795
sg56
(lp1802
g49
(g70
g51
NtRp1803
(dp1804
g54
(dp1805
sg63
g1799
sg56
(lp1806
g49
(g50
g51
NtRp1807
(dp1808
g54
(dp1809
g62
I3
ssg63
g1803
sg56
(lp1810
S'1'
asbasbasbag49
(g65
g51
NtRp1811
(dp1812
g54
(dp1813
sg63
g1795
sg56
(lp1814
g49
(g70
g51
NtRp1815
(dp1816
g54
(dp1817
sg63
g1811
sg56
(lp1818
g49
(g50
g51
NtRp1819
(dp1820
g54
(dp1821
g62
I3
ssg63
g1815
sg56
(lp1822
S'0'
asbasbasbasbasbasbasbasbasbasbasbag49
(g65
g51
NtRp1823
(dp1824
g54
(dp1825
sg63
g59
sg56
(lp1826
g49
(g70
g51
NtRp1827
(dp1828
g54
(dp1829
g74
g75
ssg63
g1823
sg56
(lp1830
S'extension'
p1831
asbag49
(g70
g51
NtRp1832
(dp1833
g54
(dp1834
g81
g82
ssg63
g1823
sg56
(lp1835
S':'
asbag49
(g70
g51
NtRp1836
(dp1837
g54
(dp1838
sg63
g1823
sg56
(lp1839
g49
(g50
g51
NtRp1840
(dp1841
g54
(dp1842
g62
I5
ssg63
g1836
sg56
(lp1843
S'html'
p1844
asbasbasbag49
(g65
g51
NtRp1845
(dp1846
g54
(dp1847
sg63
g59
sg56
(lp1848
g49
(g70
g51
NtRp1849
(dp1850
g54
(dp1851
g74
g75
ssg63
g1845
sg56
(lp1852
S'folder'
p1853
asbag49
(g70
g51
NtRp1854
(dp1855
g54
(dp1856
g81
g82
ssg63
g1845
sg56
(lp1857
S':'
asbag49
(g70
g51
NtRp1858
(dp1859
g54
(dp1860
sg63
g1845
sg56
(lp1861
g49
(g50
g51
NtRp1862
(dp1863
g54
(dp1864
g62
I5
ssg63
g1858
sg56
(lp1865
S'D:\\Dise\xf1o Web\\Proyectos\\Parleyweb\\web2py\\applications\\parleyweb\\'
p1866
asbasbasbag49
(g65
g51
NtRp1867
(dp1868
g54
(dp1869
sg63
g59
sg56
(lp1870
g49
(g70
g51
NtRp1871
(dp1872
g54
(dp1873
g74
g75
ssg63
g1867
sg56
(lp1874
S'function'
p1875
asbag49
(g70
g51
NtRp1876
(dp1877
g54
(dp1878
g81
g82
ssg63
g1867
sg56
(lp1879
S':'
asbag49
(g70
g51
NtRp1880
(dp1881
g54
(dp1882
sg63
g1867
sg56
(lp1883
g49
(g50
g51
NtRp1884
(dp1885
g54
(dp1886
g62
I5
ssg63
g1880
sg56
(lp1887
S'index'
p1888
asbasbasbag49
(g65
g51
NtRp1889
(dp1890
g54
(dp1891
sg63
g59
sg56
(lp1892
g49
(g70
g51
NtRp1893
(dp1894
g54
(dp1895
g74
g75
ssg63
g1889
sg56
(lp1896
S'get_vars'
p1897
asbag49
(g70
g51
NtRp1898
(dp1899
g54
(dp1900
g81
g82
ssg63
g1889
sg56
(lp1901
S':'
asbag49
(g70
g51
NtRp1902
(dp1903
g54
(dp1904
sg63
g1889
sg56
(lp1905
g49
(g50
g51
NtRp1906
(dp1907
g54
(dp1908
g62
I5
ssg63
g1902
sg56
(lp1909
g49
(g58
g51
NtRp1910
(dp1911
g54
(dp1912
g62
I4
ssg63
Nsg56
(lp1913
sbasbasbasbag49
(g65
g51
NtRp1914
(dp1915
g54
(dp1916
sg63
g59
sg56
(lp1917
g49
(g70
g51
NtRp1918
(dp1919
g54
(dp1920
g74
g75
ssg63
g1914
sg56
(lp1921
S'global_settings'
p1922
asbag49
(g70
g51
NtRp1923
(dp1924
g54
(dp1925
g81
g82
ssg63
g1914
sg56
(lp1926
S':'
asbag49
(g70
g51
NtRp1927
(dp1928
g54
(dp1929
sg63
g1914
sg56
(lp1930
g49
(g50
g51
NtRp1931
(dp1932
g54
(dp1933
g62
I5
ssg63
g1927
sg56
(lp1934
g49
(g58
g51
NtRp1935
(dp1936
g54
(dp1937
g62
I4
ssg63
Nsg56
(lp1938
g49
(g65
g51
NtRp1939
(dp1940
g54
(dp1941
sg63
g1935
sg56
(lp1942
g49
(g70
g51
NtRp1943
(dp1944
g54
(dp1945
g74
g75
ssg63
g1939
sg56
(lp1946
g930
asbag49
(g70
g51
NtRp1947
(dp1948
g54
(dp1949
g81
g82
ssg63
g1939
sg56
(lp1950
S':'
asbag49
(g70
g51
NtRp1951
(dp1952
g54
(dp1953
sg63
g1939
sg56
(lp1954
g49
(g50
g51
NtRp1955
(dp1956
g54
(dp1957
g62
I4
ssg63
g1951
sg56
(lp1958
S"set(['D:\\\\Dise\\xf1o Web\\\\Proyectos\\\\Parleyweb\\\\web2py\\\\applications\\\\parleyweb\\\\', 'D:\\\\Dise\\xf1o Web\\\\Proyectos\\\\Parleyweb\\\\web2py\\\\applications\\\\welcome\\\\', 'D:\\\\Dise\\xf1o Web\\\\Proyectos\\\\Parleyweb\\\\web2py\\\\applications\\\\admin\\\\'])"
p1959
asbasbasbag49
(g65
g51
NtRp1960
(dp1961
g54
(dp1962
sg63
g1935
sg56
(lp1963
g49
(g70
g51
NtRp1964
(dp1965
g54
(dp1966
g74
g75
ssg63
g1960
sg56
(lp1967
g952
asbag49
(g70
g51
NtRp1968
(dp1969
g54
(dp1970
g81
g82
ssg63
g1960
sg56
(lp1971
S':'
asbag49
(g70
g51
NtRp1972
(dp1973
g54
(dp1974
sg63
g1960
sg56
(lp1975
g49
(g50
g51
NtRp1976
(dp1977
g54
(dp1978
g62
I4
ssg63
g1972
sg56
(lp1979
g965
asbasbasbag49
(g65
g51
NtRp1980
(dp1981
g54
(dp1982
sg63
g1935
sg56
(lp1983
g49
(g70
g51
NtRp1984
(dp1985
g54
(dp1986
g74
g75
ssg63
g1980
sg56
(lp1987
g974
asbag49
(g70
g51
NtRp1988
(dp1989
g54
(dp1990
g81
g82
ssg63
g1980
sg56
(lp1991
S':'
asbag49
(g70
g51
NtRp1992
(dp1993
g54
(dp1994
sg63
g1980
sg56
(lp1995
g49
(g50
g51
NtRp1996
(dp1997
g54
(dp1998
g62
I4
ssg63
g1992
sg56
(lp1999
g49
(g58
g51
NtRp2000
(dp2001
g54
(dp2002
g62
I3
ssg63
Nsg56
(lp2003
sbasbasbasbag49
(g65
g51
NtRp2004
(dp2005
g54
(dp2006
sg63
g1935
sg56
(lp2007
g49
(g70
g51
NtRp2008
(dp2009
g54
(dp2010
g74
g75
ssg63
g2004
sg56
(lp2011
g999
asbag49
(g70
g51
NtRp2012
(dp2013
g54
(dp2014
g81
g82
ssg63
g2004
sg56
(lp2015
S':'
asbag49
(g70
g51
NtRp2016
(dp2017
g54
(dp2018
sg63
g2004
sg56
(lp2019
g49
(g50
g51
NtRp2020
(dp2021
g54
(dp2022
g62
I4
ssg63
g2016
sg56
(lp2023
S"<Values at 0x30bff30: {'verbose': False, 'ip': '127.0.0.1', 'shutdown_timeout': 5, 'taskbar': False, 'nocron': False, 'pid_filename': 'httpserver.pid', 'maxthreads': None, 'softcron': False, 'server_name': 'craxsnet-PC', 'bpython': False, 'nogui': False, 'port': 8000, 'extcron': False, 'debuglevel': 30, 'test': None, 'folder': 'D:\\\\Dise\\xf1o Web\\\\Proyectos\\\\Parleyweb\\\\web2py', 'config': '', 'import_models': False, 'winservice': '', 'shell': None, 'run': '', 'log_filename': 'httpserver.log', 'args': [''], 'socket_timeout': 5, 'ssl_ca_certificate': None, 'scheduler': None, 'profiler_filename': None, 'ssl_private_key': '', 'password': '<ask>', 'request_queue_size': 5, 'ssl_certificate': '', 'cronjob': False, 'numthreads': None, 'quiet': False, 'interfaces': None, 'minthreads': None, 'timeout': 10, 'plain': False, 'nobanner': False}>"
p2024
asbasbasbag49
(g65
g51
NtRp2025
(dp2026
g54
(dp2027
sg63
g1935
sg56
(lp2028
g49
(g70
g51
NtRp2029
(dp2030
g54
(dp2031
g74
g75
ssg63
g2025
sg56
(lp2032
g1021
asbag49
(g70
g51
NtRp2033
(dp2034
g54
(dp2035
g81
g82
ssg63
g2025
sg56
(lp2036
S':'
asbag49
(g70
g51
NtRp2037
(dp2038
g54
(dp2039
sg63
g2025
sg56
(lp2040
g49
(g50
g51
NtRp2041
(dp2042
g54
(dp2043
g62
I4
ssg63
g2037
sg56
(lp2044
S'set([])'
p2045
asbasbasbag49
(g65
g51
NtRp2046
(dp2047
g54
(dp2048
sg63
g1935
sg56
(lp2049
g49
(g70
g51
NtRp2050
(dp2051
g54
(dp2052
g74
g75
ssg63
g2046
sg56
(lp2053
g1043
asbag49
(g70
g51
NtRp2054
(dp2055
g54
(dp2056
g81
g82
ssg63
g2046
sg56
(lp2057
S':'
asbag49
(g70
g51
NtRp2058
(dp2059
g54
(dp2060
sg63
g2046
sg56
(lp2061
g49
(g50
g51
NtRp2062
(dp2063
g54
(dp2064
g62
I4
ssg63
g2058
sg56
(lp2065
g92
asbasbasbag49
(g65
g51
NtRp2066
(dp2067
g54
(dp2068
sg63
g1935
sg56
(lp2069
g49
(g70
g51
NtRp2070
(dp2071
g54
(dp2072
g74
g75
ssg63
g2066
sg56
(lp2073
g1064
asbag49
(g70
g51
NtRp2074
(dp2075
g54
(dp2076
g81
g82
ssg63
g2066
sg56
(lp2077
S':'
asbag49
(g70
g51
NtRp2078
(dp2079
g54
(dp2080
sg63
g2066
sg56
(lp2081
g49
(g50
g51
NtRp2082
(dp2083
g54
(dp2084
g62
I4
ssg63
g2078
sg56
(lp2085
g1077
asbasbasbag49
(g65
g51
NtRp2086
(dp2087
g54
(dp2088
sg63
g1935
sg56
(lp2089
g49
(g70
g51
NtRp2090
(dp2091
g54
(dp2092
g74
g75
ssg63
g2086
sg56
(lp2093
g1240
asbag49
(g70
g51
NtRp2094
(dp2095
g54
(dp2096
g81
g82
ssg63
g2086
sg56
(lp2097
S':'
asbag49
(g70
g51
NtRp2098
(dp2099
g54
(dp2100
sg63
g2086
sg56
(lp2101
g49
(g50
g51
NtRp2102
(dp2103
g54
(dp2104
g62
I4
ssg63
g2098
sg56
(lp2105
g92
asbasbasbag49
(g65
g51
NtRp2106
(dp2107
g54
(dp2108
sg63
g1935
sg56
(lp2109
g49
(g70
g51
NtRp2110
(dp2111
g54
(dp2112
g74
g75
ssg63
g2106
sg56
(lp2113
g1261
asbag49
(g70
g51
NtRp2114
(dp2115
g54
(dp2116
g81
g82
ssg63
g2106
sg56
(lp2117
S':'
asbag49
(g70
g51
NtRp2118
(dp2119
g54
(dp2120
sg63
g2106
sg56
(lp2121
g49
(g50
g51
NtRp2122
(dp2123
g54
(dp2124
g62
I4
ssg63
g2118
sg56
(lp2125
g92
asbasbasbag49
(g65
g51
NtRp2126
(dp2127
g54
(dp2128
sg63
g1935
sg56
(lp2129
g49
(g70
g51
NtRp2130
(dp2131
g54
(dp2132
g74
g75
ssg63
g2126
sg56
(lp2133
g1499
asbag49
(g70
g51
NtRp2134
(dp2135
g54
(dp2136
g81
g82
ssg63
g2126
sg56
(lp2137
S':'
asbag49
(g70
g51
NtRp2138
(dp2139
g54
(dp2140
sg63
g2126
sg56
(lp2141
g49
(g50
g51
NtRp2142
(dp2143
g54
(dp2144
g62
I4
ssg63
g2138
sg56
(lp2145
g1512
asbasbasbag49
(g65
g51
NtRp2146
(dp2147
g54
(dp2148
sg63
g1935
sg56
(lp2149
g49
(g70
g51
NtRp2150
(dp2151
g54
(dp2152
g74
g75
ssg63
g2146
sg56
(lp2153
g1542
asbag49
(g70
g51
NtRp2154
(dp2155
g54
(dp2156
g81
g82
ssg63
g2146
sg56
(lp2157
S':'
asbag49
(g70
g51
NtRp2158
(dp2159
g54
(dp2160
sg63
g2146
sg56
(lp2161
g49
(g50
g51
NtRp2162
(dp2163
g54
(dp2164
g62
I4
ssg63
g2158
sg56
(lp2165
g49
(g58
g51
NtRp2166
(dp2167
g54
(dp2168
g62
I3
ssg63
Nsg56
(lp2169
g49
(g65
g51
NtRp2170
(dp2171
g54
(dp2172
sg63
g2166
sg56
(lp2173
g49
(g70
g51
NtRp2174
(dp2175
g54
(dp2176
sg63
g2170
sg56
(lp2177
g49
(g50
g51
NtRp2178
(dp2179
g54
(dp2180
g62
I3
ssg63
g2174
sg56
(lp2181
S'1'
asbasbasbag49
(g65
g51
NtRp2182
(dp2183
g54
(dp2184
sg63
g2166
sg56
(lp2185
g49
(g70
g51
NtRp2186
(dp2187
g54
(dp2188
sg63
g2182
sg56
(lp2189
g49
(g50
g51
NtRp2190
(dp2191
g54
(dp2192
g62
I3
ssg63
g2186
sg56
(lp2193
S'99'
p2194
asbasbasbag49
(g65
g51
NtRp2195
(dp2196
g54
(dp2197
sg63
g2166
sg56
(lp2198
g49
(g70
g51
NtRp2199
(dp2200
g54
(dp2201
sg63
g2195
sg56
(lp2202
g49
(g50
g51
NtRp2203
(dp2204
g54
(dp2205
g62
I3
ssg63
g2199
sg56
(lp2206
S'7'
asbasbasbag49
(g65
g51
NtRp2207
(dp2208
g54
(dp2209
sg63
g2166
sg56
(lp2210
g49
(g70
g51
NtRp2211
(dp2212
g54
(dp2213
sg63
g2207
sg56
(lp2214
g49
(g50
g51
NtRp2215
(dp2216
g54
(dp2217
g62
I3
ssg63
g2211
sg56
(lp2218
S'datetime.datetime(2012, 3, 4, 22, 12, 8)'
p2219
asbasbasbag49
(g65
g51
NtRp2220
(dp2221
g54
(dp2222
sg63
g2166
sg56
(lp2223
g49
(g70
g51
NtRp2224
(dp2225
g54
(dp2226
sg63
g2220
sg56
(lp2227
g49
(g50
g51
NtRp2228
(dp2229
g54
(dp2230
g62
I3
ssg63
g2224
sg56
(lp2231
g1621
asbasbasbasbasbasbasbasbasbasbasbag49
(g65
g51
NtRp2232
(dp2233
g54
(dp2234
sg63
g59
sg56
(lp2235
g49
(g70
g51
NtRp2236
(dp2237
g54
(dp2238
g74
g75
ssg63
g2232
sg56
(lp2239
S'is_https'
p2240
asbag49
(g70
g51
NtRp2241
(dp2242
g54
(dp2243
g81
g82
ssg63
g2232
sg56
(lp2244
S':'
asbag49
(g70
g51
NtRp2245
(dp2246
g54
(dp2247
sg63
g2232
sg56
(lp2248
g49
(g50
g51
NtRp2249
(dp2250
g54
(dp2251
g62
I5
ssg63
g2245
sg56
(lp2252
g92
asbasbasbag49
(g65
g51
NtRp2253
(dp2254
g54
(dp2255
sg63
g59
sg56
(lp2256
g49
(g70
g51
NtRp2257
(dp2258
g54
(dp2259
g74
g75
ssg63
g2253
sg56
(lp2260
S'is_local'
p2261
asbag49
(g70
g51
NtRp2262
(dp2263
g54
(dp2264
g81
g82
ssg63
g2253
sg56
(lp2265
S':'
asbag49
(g70
g51
NtRp2266
(dp2267
g54
(dp2268
sg63
g2253
sg56
(lp2269
g49
(g50
g51
NtRp2270
(dp2271
g54
(dp2272
g62
I5
ssg63
g2266
sg56
(lp2273
g1730
asbasbasbag49
(g65
g51
NtRp2274
(dp2275
g54
(dp2276
sg63
g59
sg56
(lp2277
g49
(g70
g51
NtRp2278
(dp2279
g54
(dp2280
g74
g75
ssg63
g2274
sg56
(lp2281
S'is_restful'
p2282
asbag49
(g70
g51
NtRp2283
(dp2284
g54
(dp2285
g81
g82
ssg63
g2274
sg56
(lp2286
S':'
asbag49
(g70
g51
NtRp2287
(dp2288
g54
(dp2289
sg63
g2274
sg56
(lp2290
g49
(g50
g51
NtRp2291
(dp2292
g54
(dp2293
g62
I5
ssg63
g2287
sg56
(lp2294
g92
asbasbasbag49
(g65
g51
NtRp2295
(dp2296
g54
(dp2297
sg63
g59
sg56
(lp2298
g49
(g70
g51
NtRp2299
(dp2300
g54
(dp2301
g74
g75
ssg63
g2295
sg56
(lp2302
S'now'
p2303
asbag49
(g70
g51
NtRp2304
(dp2305
g54
(dp2306
g81
g82
ssg63
g2295
sg56
(lp2307
S':'
asbag49
(g70
g51
NtRp2308
(dp2309
g54
(dp2310
sg63
g2295
sg56
(lp2311
g49
(g50
g51
NtRp2312
(dp2313
g54
(dp2314
g62
I5
ssg63
g2308
sg56
(lp2315
S'datetime.datetime(2012, 3, 10, 15, 31, 14, 48000)'
p2316
asbasbasbag49
(g65
g51
NtRp2317
(dp2318
g54
(dp2319
sg63
g59
sg56
(lp2320
g49
(g70
g51
NtRp2321
(dp2322
g54
(dp2323
g74
g75
ssg63
g2317
sg56
(lp2324
S'post_vars'
p2325
asbag49
(g70
g51
NtRp2326
(dp2327
g54
(dp2328
g81
g82
ssg63
g2317
sg56
(lp2329
S':'
asbag49
(g70
g51
NtRp2330
(dp2331
g54
(dp2332
sg63
g2317
sg56
(lp2333
g49
(g50
g51
NtRp2334
(dp2335
g54
(dp2336
g62
I5
ssg63
g2330
sg56
(lp2337
g49
(g58
g51
NtRp2338
(dp2339
g54
(dp2340
g62
I4
ssg63
Nsg56
(lp2341
sbasbasbasbag49
(g65
g51
NtRp2342
(dp2343
g54
(dp2344
sg63
g59
sg56
(lp2345
g49
(g70
g51
NtRp2346
(dp2347
g54
(dp2348
g74
g75
ssg63
g2342
sg56
(lp2349
S'url'
p2350
asbag49
(g70
g51
NtRp2351
(dp2352
g54
(dp2353
g81
g82
ssg63
g2342
sg56
(lp2354
S':'
asbag49
(g70
g51
NtRp2355
(dp2356
g54
(dp2357
sg63
g2342
sg56
(lp2358
g49
(g50
g51
NtRp2359
(dp2360
g54
(dp2361
g62
I5
ssg63
g2355
sg56
(lp2362
S'/parleyweb/default/index'
p2363
asbasbasbag49
(g65
g51
NtRp2364
(dp2365
g54
(dp2366
sg63
g59
sg56
(lp2367
g49
(g70
g51
NtRp2368
(dp2369
g54
(dp2370
g74
g75
ssg63
g2364
sg56
(lp2371
S'utcnow'
p2372
asbag49
(g70
g51
NtRp2373
(dp2374
g54
(dp2375
g81
g82
ssg63
g2364
sg56
(lp2376
S':'
asbag49
(g70
g51
NtRp2377
(dp2378
g54
(dp2379
sg63
g2364
sg56
(lp2380
g49
(g50
g51
NtRp2381
(dp2382
g54
(dp2383
g62
I5
ssg63
g2377
sg56
(lp2384
S'datetime.datetime(2012, 3, 10, 14, 31, 14, 48000)'
p2385
asbasbasbag49
(g65
g51
NtRp2386
(dp2387
g54
(dp2388
sg63
g59
sg56
(lp2389
g49
(g70
g51
NtRp2390
(dp2391
g54
(dp2392
g74
g75
ssg63
g2386
sg56
(lp2393
S'uuid'
p2394
asbag49
(g70
g51
NtRp2395
(dp2396
g54
(dp2397
g81
g82
ssg63
g2386
sg56
(lp2398
S':'
asbag49
(g70
g51
NtRp2399
(dp2400
g54
(dp2401
sg63
g2386
sg56
(lp2402
g49
(g50
g51
NtRp2403
(dp2404
g54
(dp2405
g62
I5
ssg63
g2399
sg56
(lp2406
S'parleyweb/127.0.0.1.2012-03-10.15-31-14.24873cb8-3722-4750-8e96-c14ed8a2d908'
p2407
asbasbasbag49
(g65
g51
NtRp2408
(dp2409
g54
(dp2410
sg63
g59
sg56
(lp2411
g49
(g70
g51
NtRp2412
(dp2413
g54
(dp2414
g74
g75
ssg63
g2408
sg56
(lp2415
S'vars'
p2416
asbag49
(g70
g51
NtRp2417
(dp2418
g54
(dp2419
g81
g82
ssg63
g2408
sg56
(lp2420
S':'
asbag49
(g70
g51
NtRp2421
(dp2422
g54
(dp2423
sg63
g2408
sg56
(lp2424
g49
(g50
g51
NtRp2425
(dp2426
g54
(dp2427
g62
I5
ssg63
g2421
sg56
(lp2428
g49
(g58
g51
NtRp2429
(dp2430
g54
(dp2431
g62
I4
ssg63
Nsg56
(lp2432
sbasbasbasbag49
(g65
g51
NtRp2433
(dp2434
g54
(dp2435
sg63
g59
sg56
(lp2436
g49
(g70
g51
NtRp2437
(dp2438
g54
(dp2439
g74
g75
ssg63
g2433
sg56
(lp2440
S'wsgi'
p2441
asbag49
(g70
g51
NtRp2442
(dp2443
g54
(dp2444
g81
g82
ssg63
g2433
sg56
(lp2445
S':'
asbag49
(g70
g51
NtRp2446
(dp2447
g54
(dp2448
sg63
g2433
sg56
(lp2449
g49
(g50
g51
NtRp2450
(dp2451
g54
(dp2452
g62
I5
ssg63
g2446
sg56
(lp2453
g49
(g58
g51
NtRp2454
(dp2455
g54
(dp2456
g62
I4
ssg63
Nsg56
(lp2457
g49
(g65
g51
NtRp2458
(dp2459
g54
(dp2460
sg63
g2454
sg56
(lp2461
g49
(g70
g51
NtRp2462
(dp2463
g54
(dp2464
g74
g75
ssg63
g2458
sg56
(lp2465
S'environ'
p2466
asbag49
(g70
g51
NtRp2467
(dp2468
g54
(dp2469
g81
g82
ssg63
g2458
sg56
(lp2470
S':'
asbag49
(g70
g51
NtRp2471
(dp2472
g54
(dp2473
sg63
g2458
sg56
(lp2474
g49
(g50
g51
NtRp2475
(dp2476
g54
(dp2477
g62
I4
ssg63
g2471
sg56
(lp2478
g49
(g58
g51
NtRp2479
(dp2480
g54
(dp2481
g62
I3
ssg63
Nsg56
(lp2482
g49
(g65
g51
NtRp2483
(dp2484
g54
(dp2485
sg63
g2479
sg56
(lp2486
g49
(g70
g51
NtRp2487
(dp2488
g54
(dp2489
g74
g75
ssg63
g2483
sg56
(lp2490
S'HTTP_ACCEPT'
p2491
asbag49
(g70
g51
NtRp2492
(dp2493
g54
(dp2494
g81
g82
ssg63
g2483
sg56
(lp2495
S':'
asbag49
(g70
g51
NtRp2496
(dp2497
g54
(dp2498
sg63
g2483
sg56
(lp2499
g49
(g50
g51
NtRp2500
(dp2501
g54
(dp2502
g62
I3
ssg63
g2496
sg56
(lp2503
g1099
asbasbasbag49
(g65
g51
NtRp2504
(dp2505
g54
(dp2506
sg63
g2479
sg56
(lp2507
g49
(g70
g51
NtRp2508
(dp2509
g54
(dp2510
g74
g75
ssg63
g2504
sg56
(lp2511
S'HTTP_ACCEPT_ENCODING'
p2512
asbag49
(g70
g51
NtRp2513
(dp2514
g54
(dp2515
g81
g82
ssg63
g2504
sg56
(lp2516
S':'
asbag49
(g70
g51
NtRp2517
(dp2518
g54
(dp2519
sg63
g2504
sg56
(lp2520
g49
(g50
g51
NtRp2521
(dp2522
g54
(dp2523
g62
I3
ssg63
g2517
sg56
(lp2524
g1121
asbasbasbag49
(g65
g51
NtRp2525
(dp2526
g54
(dp2527
sg63
g2479
sg56
(lp2528
g49
(g70
g51
NtRp2529
(dp2530
g54
(dp2531
g74
g75
ssg63
g2525
sg56
(lp2532
S'HTTP_ACCEPT_LANGUAGE'
p2533
asbag49
(g70
g51
NtRp2534
(dp2535
g54
(dp2536
g81
g82
ssg63
g2525
sg56
(lp2537
S':'
asbag49
(g70
g51
NtRp2538
(dp2539
g54
(dp2540
sg63
g2525
sg56
(lp2541
g49
(g50
g51
NtRp2542
(dp2543
g54
(dp2544
g62
I3
ssg63
g2538
sg56
(lp2545
g1143
asbasbasbag49
(g65
g51
NtRp2546
(dp2547
g54
(dp2548
sg63
g2479
sg56
(lp2549
g49
(g70
g51
NtRp2550
(dp2551
g54
(dp2552
g74
g75
ssg63
g2546
sg56
(lp2553
S'HTTP_CONNECTION'
p2554
asbag49
(g70
g51
NtRp2555
(dp2556
g54
(dp2557
g81
g82
ssg63
g2546
sg56
(lp2558
S':'
asbag49
(g70
g51
NtRp2559
(dp2560
g54
(dp2561
sg63
g2546
sg56
(lp2562
g49
(g50
g51
NtRp2563
(dp2564
g54
(dp2565
g62
I3
ssg63
g2559
sg56
(lp2566
g1165
asbasbasbag49
(g65
g51
NtRp2567
(dp2568
g54
(dp2569
sg63
g2479
sg56
(lp2570
g49
(g70
g51
NtRp2571
(dp2572
g54
(dp2573
g74
g75
ssg63
g2567
sg56
(lp2574
S'HTTP_COOKIE'
p2575
asbag49
(g70
g51
NtRp2576
(dp2577
g54
(dp2578
g81
g82
ssg63
g2567
sg56
(lp2579
S':'
asbag49
(g70
g51
NtRp2580
(dp2581
g54
(dp2582
sg63
g2567
sg56
(lp2583
g49
(g50
g51
NtRp2584
(dp2585
g54
(dp2586
g62
I3
ssg63
g2580
sg56
(lp2587
g1187
asbasbasbag49
(g65
g51
NtRp2588
(dp2589
g54
(dp2590
sg63
g2479
sg56
(lp2591
g49
(g70
g51
NtRp2592
(dp2593
g54
(dp2594
g74
g75
ssg63
g2588
sg56
(lp2595
S'HTTP_HOST'
p2596
asbag49
(g70
g51
NtRp2597
(dp2598
g54
(dp2599
g81
g82
ssg63
g2588
sg56
(lp2600
S':'
asbag49
(g70
g51
NtRp2601
(dp2602
g54
(dp2603
sg63
g2588
sg56
(lp2604
g49
(g50
g51
NtRp2605
(dp2606
g54
(dp2607
g62
I3
ssg63
g2601
sg56
(lp2608
g1209
asbasbasbag49
(g65
g51
NtRp2609
(dp2610
g54
(dp2611
sg63
g2479
sg56
(lp2612
g49
(g70
g51
NtRp2613
(dp2614
g54
(dp2615
g74
g75
ssg63
g2609
sg56
(lp2616
S'HTTP_USER_AGENT'
p2617
asbag49
(g70
g51
NtRp2618
(dp2619
g54
(dp2620
g81
g82
ssg63
g2609
sg56
(lp2621
S':'
asbag49
(g70
g51
NtRp2622
(dp2623
g54
(dp2624
sg63
g2609
sg56
(lp2625
g49
(g50
g51
NtRp2626
(dp2627
g54
(dp2628
g62
I3
ssg63
g2622
sg56
(lp2629
g1231
asbasbasbag49
(g65
g51
NtRp2630
(dp2631
g54
(dp2632
sg63
g2479
sg56
(lp2633
g49
(g70
g51
NtRp2634
(dp2635
g54
(dp2636
g74
g75
ssg63
g2630
sg56
(lp2637
S'PATH_INFO'
p2638
asbag49
(g70
g51
NtRp2639
(dp2640
g54
(dp2641
g81
g82
ssg63
g2630
sg56
(lp2642
S':'
asbag49
(g70
g51
NtRp2643
(dp2644
g54
(dp2645
sg63
g2630
sg56
(lp2646
g49
(g50
g51
NtRp2647
(dp2648
g54
(dp2649
g62
I3
ssg63
g2643
sg56
(lp2650
g1295
asbasbasbag49
(g65
g51
NtRp2651
(dp2652
g54
(dp2653
sg63
g2479
sg56
(lp2654
g49
(g70
g51
NtRp2655
(dp2656
g54
(dp2657
g74
g75
ssg63
g2651
sg56
(lp2658
S'QUERY_STRING'
p2659
asbag49
(g70
g51
NtRp2660
(dp2661
g54
(dp2662
g81
g82
ssg63
g2651
sg56
(lp2663
S':'
asbag49
(g70
g51
NtRp2664
(dp2665
g54
(dp2666
sg63
g2651
sg56
(lp2667
g49
(g50
g51
NtRp2668
(dp2669
g54
(dp2670
g62
I3
ssg63
g2664
sg56
(lp2671
S''
asbasbasbag49
(g65
g51
NtRp2672
(dp2673
g54
(dp2674
sg63
g2479
sg56
(lp2675
g49
(g70
g51
NtRp2676
(dp2677
g54
(dp2678
g74
g75
ssg63
g2672
sg56
(lp2679
S'REMOTE_ADDR'
p2680
asbag49
(g70
g51
NtRp2681
(dp2682
g54
(dp2683
g81
g82
ssg63
g2672
sg56
(lp2684
S':'
asbag49
(g70
g51
NtRp2685
(dp2686
g54
(dp2687
sg63
g2672
sg56
(lp2688
g49
(g50
g51
NtRp2689
(dp2690
g54
(dp2691
g62
I3
ssg63
g2685
sg56
(lp2692
g182
asbasbasbag49
(g65
g51
NtRp2693
(dp2694
g54
(dp2695
sg63
g2479
sg56
(lp2696
g49
(g70
g51
NtRp2697
(dp2698
g54
(dp2699
g74
g75
ssg63
g2693
sg56
(lp2700
S'REMOTE_PORT'
p2701
asbag49
(g70
g51
NtRp2702
(dp2703
g54
(dp2704
g81
g82
ssg63
g2693
sg56
(lp2705
S':'
asbag49
(g70
g51
NtRp2706
(dp2707
g54
(dp2708
sg63
g2693
sg56
(lp2709
g49
(g50
g51
NtRp2710
(dp2711
g54
(dp2712
g62
I3
ssg63
g2706
sg56
(lp2713
g1359
asbasbasbag49
(g65
g51
NtRp2714
(dp2715
g54
(dp2716
sg63
g2479
sg56
(lp2717
g49
(g70
g51
NtRp2718
(dp2719
g54
(dp2720
g74
g75
ssg63
g2714
sg56
(lp2721
S'REQUEST_METHOD'
p2722
asbag49
(g70
g51
NtRp2723
(dp2724
g54
(dp2725
g81
g82
ssg63
g2714
sg56
(lp2726
S':'
asbag49
(g70
g51
NtRp2727
(dp2728
g54
(dp2729
sg63
g2714
sg56
(lp2730
g49
(g50
g51
NtRp2731
(dp2732
g54
(dp2733
g62
I3
ssg63
g2727
sg56
(lp2734
g1381
asbasbasbag49
(g65
g51
NtRp2735
(dp2736
g54
(dp2737
sg63
g2479
sg56
(lp2738
g49
(g70
g51
NtRp2739
(dp2740
g54
(dp2741
g74
g75
ssg63
g2735
sg56
(lp2742
S'SCRIPT_NAME'
p2743
asbag49
(g70
g51
NtRp2744
(dp2745
g54
(dp2746
g81
g82
ssg63
g2735
sg56
(lp2747
S':'
asbag49
(g70
g51
NtRp2748
(dp2749
g54
(dp2750
sg63
g2735
sg56
(lp2751
g49
(g50
g51
NtRp2752
(dp2753
g54
(dp2754
g62
I3
ssg63
g2748
sg56
(lp2755
S''
asbasbasbag49
(g65
g51
NtRp2756
(dp2757
g54
(dp2758
sg63
g2479
sg56
(lp2759
g49
(g70
g51
NtRp2760
(dp2761
g54
(dp2762
g74
g75
ssg63
g2756
sg56
(lp2763
S'SERVER_NAME'
p2764
asbag49
(g70
g51
NtRp2765
(dp2766
g54
(dp2767
g81
g82
ssg63
g2756
sg56
(lp2768
S':'
asbag49
(g70
g51
NtRp2769
(dp2770
g54
(dp2771
sg63
g2756
sg56
(lp2772
g49
(g50
g51
NtRp2773
(dp2774
g54
(dp2775
g62
I3
ssg63
g2769
sg56
(lp2776
g1424
asbasbasbag49
(g65
g51
NtRp2777
(dp2778
g54
(dp2779
sg63
g2479
sg56
(lp2780
g49
(g70
g51
NtRp2781
(dp2782
g54
(dp2783
g74
g75
ssg63
g2777
sg56
(lp2784
S'SERVER_PORT'
p2785
asbag49
(g70
g51
NtRp2786
(dp2787
g54
(dp2788
g81
g82
ssg63
g2777
sg56
(lp2789
S':'
asbag49
(g70
g51
NtRp2790
(dp2791
g54
(dp2792
sg63
g2777
sg56
(lp2793
g49
(g50
g51
NtRp2794
(dp2795
g54
(dp2796
g62
I3
ssg63
g2790
sg56
(lp2797
g1446
asbasbasbag49
(g65
g51
NtRp2798
(dp2799
g54
(dp2800
sg63
g2479
sg56
(lp2801
g49
(g70
g51
NtRp2802
(dp2803
g54
(dp2804
g74
g75
ssg63
g2798
sg56
(lp2805
S'SERVER_PROTOCOL'
p2806
asbag49
(g70
g51
NtRp2807
(dp2808
g54
(dp2809
g81
g82
ssg63
g2798
sg56
(lp2810
S':'
asbag49
(g70
g51
NtRp2811
(dp2812
g54
(dp2813
sg63
g2798
sg56
(lp2814
g49
(g50
g51
NtRp2815
(dp2816
g54
(dp2817
g62
I3
ssg63
g2811
sg56
(lp2818
g1468
asbasbasbag49
(g65
g51
NtRp2819
(dp2820
g54
(dp2821
sg63
g2479
sg56
(lp2822
g49
(g70
g51
NtRp2823
(dp2824
g54
(dp2825
g74
g75
ssg63
g2819
sg56
(lp2826
S'SERVER_SOFTWARE'
p2827
asbag49
(g70
g51
NtRp2828
(dp2829
g54
(dp2830
g81
g82
ssg63
g2819
sg56
(lp2831
S':'
asbag49
(g70
g51
NtRp2832
(dp2833
g54
(dp2834
sg63
g2819
sg56
(lp2835
g49
(g50
g51
NtRp2836
(dp2837
g54
(dp2838
g62
I3
ssg63
g2832
sg56
(lp2839
g1490
asbasbasbag49
(g65
g51
NtRp2840
(dp2841
g54
(dp2842
sg63
g2479
sg56
(lp2843
g49
(g70
g51
NtRp2844
(dp2845
g54
(dp2846
g74
g75
ssg63
g2840
sg56
(lp2847
S'wsgi.errors'
p2848
asbag49
(g70
g51
NtRp2849
(dp2850
g54
(dp2851
g81
g82
ssg63
g2840
sg56
(lp2852
S':'
asbag49
(g70
g51
NtRp2853
(dp2854
g54
(dp2855
sg63
g2840
sg56
(lp2856
g49
(g50
g51
NtRp2857
(dp2858
g54
(dp2859
g62
I3
ssg63
g2853
sg56
(lp2860
S"<open file '<stderr>', mode 'w' at 0x01F400B0>"
p2861
asbasbasbag49
(g65
g51
NtRp2862
(dp2863
g54
(dp2864
sg63
g2479
sg56
(lp2865
g49
(g70
g51
NtRp2866
(dp2867
g54
(dp2868
g74
g75
ssg63
g2862
sg56
(lp2869
S'wsgi.file_wrapper'
p2870
asbag49
(g70
g51
NtRp2871
(dp2872
g54
(dp2873
g81
g82
ssg63
g2862
sg56
(lp2874
S':'
asbag49
(g70
g51
NtRp2875
(dp2876
g54
(dp2877
sg63
g2862
sg56
(lp2878
g49
(g50
g51
NtRp2879
(dp2880
g54
(dp2881
g62
I3
ssg63
g2875
sg56
(lp2882
S'<class wsgiref.util.FileWrapper at 0x02EB5390>'
p2883
asbasbasbag49
(g65
g51
NtRp2884
(dp2885
g54
(dp2886
sg63
g2479
sg56
(lp2887
g49
(g70
g51
NtRp2888
(dp2889
g54
(dp2890
g74
g75
ssg63
g2884
sg56
(lp2891
S'wsgi.input'
p2892
asbag49
(g70
g51
NtRp2893
(dp2894
g54
(dp2895
g81
g82
ssg63
g2884
sg56
(lp2896
S':'
asbag49
(g70
g51
NtRp2897
(dp2898
g54
(dp2899
sg63
g2884
sg56
(lp2900
g49
(g50
g51
NtRp2901
(dp2902
g54
(dp2903
g62
I3
ssg63
g2897
sg56
(lp2904
S'<cStringIO.StringO object at 0x079844C0>'
p2905
asbasbasbag49
(g65
g51
NtRp2906
(dp2907
g54
(dp2908
sg63
g2479
sg56
(lp2909
g49
(g70
g51
NtRp2910
(dp2911
g54
(dp2912
g74
g75
ssg63
g2906
sg56
(lp2913
S'wsgi.multiprocess'
p2914
asbag49
(g70
g51
NtRp2915
(dp2916
g54
(dp2917
g81
g82
ssg63
g2906
sg56
(lp2918
S':'
asbag49
(g70
g51
NtRp2919
(dp2920
g54
(dp2921
sg63
g2906
sg56
(lp2922
g49
(g50
g51
NtRp2923
(dp2924
g54
(dp2925
g62
I3
ssg63
g2919
sg56
(lp2926
g92
asbasbasbag49
(g65
g51
NtRp2927
(dp2928
g54
(dp2929
sg63
g2479
sg56
(lp2930
g49
(g70
g51
NtRp2931
(dp2932
g54
(dp2933
g74
g75
ssg63
g2927
sg56
(lp2934
S'wsgi.multithread'
p2935
asbag49
(g70
g51
NtRp2936
(dp2937
g54
(dp2938
g81
g82
ssg63
g2927
sg56
(lp2939
S':'
asbag49
(g70
g51
NtRp2940
(dp2941
g54
(dp2942
sg63
g2927
sg56
(lp2943
g49
(g50
g51
NtRp2944
(dp2945
g54
(dp2946
g62
I3
ssg63
g2940
sg56
(lp2947
g1730
asbasbasbag49
(g65
g51
NtRp2948
(dp2949
g54
(dp2950
sg63
g2479
sg56
(lp2951
g49
(g70
g51
NtRp2952
(dp2953
g54
(dp2954
g74
g75
ssg63
g2948
sg56
(lp2955
S'wsgi.run_once'
p2956
asbag49
(g70
g51
NtRp2957
(dp2958
g54
(dp2959
g81
g82
ssg63
g2948
sg56
(lp2960
S':'
asbag49
(g70
g51
NtRp2961
(dp2962
g54
(dp2963
sg63
g2948
sg56
(lp2964
g49
(g50
g51
NtRp2965
(dp2966
g54
(dp2967
g62
I3
ssg63
g2961
sg56
(lp2968
g92
asbasbasbag49
(g65
g51
NtRp2969
(dp2970
g54
(dp2971
sg63
g2479
sg56
(lp2972
g49
(g70
g51
NtRp2973
(dp2974
g54
(dp2975
g74
g75
ssg63
g2969
sg56
(lp2976
S'wsgi.url_scheme'
p2977
asbag49
(g70
g51
NtRp2978
(dp2979
g54
(dp2980
g81
g82
ssg63
g2969
sg56
(lp2981
S':'
asbag49
(g70
g51
NtRp2982
(dp2983
g54
(dp2984
sg63
g2969
sg56
(lp2985
g49
(g50
g51
NtRp2986
(dp2987
g54
(dp2988
g62
I3
ssg63
g2982
sg56
(lp2989
g1773
asbasbasbag49
(g65
g51
NtRp2990
(dp2991
g54
(dp2992
sg63
g2479
sg56
(lp2993
g49
(g70
g51
NtRp2994
(dp2995
g54
(dp2996
g74
g75
ssg63
g2990
sg56
(lp2997
S'wsgi.version'
p2998
asbag49
(g70
g51
NtRp2999
(dp3000
g54
(dp3001
g81
g82
ssg63
g2990
sg56
(lp3002
S':'
asbag49
(g70
g51
NtRp3003
(dp3004
g54
(dp3005
sg63
g2990
sg56
(lp3006
g49
(g50
g51
NtRp3007
(dp3008
g54
(dp3009
g62
I3
ssg63
g3003
sg56
(lp3010
S'1'
asbasbasbasbasbasbasbasbasbasbasbasbasbsS'frames'
p3011
(lp3012
(dp3013
S'file'
p3014
S'D:\\Dise\xf1o Web\\Proyectos\\Parleyweb\\web2py\\gluon\\restricted.py'
p3015
sS'dump'
p3016
(dp3017
sS'lnum'
p3018
I205
sS'lines'
p3019
(dp3020
sS'call'
p3021
S'(code="# -*- coding: utf-8 -*-\\n\\n#######################... o Das\'))\\n#        \\n#\\n#\\n#\\n#\\n#\\n#\\n#\\n#\\n#\\n#\\n#\\n#\\n#\\n#\\n\\n", environment={\'A\': <class \'gluon.html.A\'>, \'Auth\': <class \'gluon.tools.Auth\'>, \'B\': <class \'gluon.html.B\'>, \'BEAUTIFY\': <class \'gluon.html.BEAUTIFY\'>, \'BODY\': <class \'gluon.html.BODY\'>, \'BR\': <class \'gluon.html.BR\'>, \'BUTTON\': <class \'gluon.html.BUTTON\'>, \'CAT\': <class \'gluon.html.CAT\'>, \'CENTER\': <class \'gluon.html.CENTER\'>, \'CLEANUP\': <class \'gluon.validators.CLEANUP\'>, ...}, layer=\'D:\\\\Dise\\xf1o Web\\\\Proyectos\\\\Parleyweb\\\\web2py\\\\applications\\\\parleyweb\\\\models\\\\db.py\')'
p3022
sS'func'
p3023
S'restricted'
p3024
sa(dp3025
g3014
S'D:\\Dise\xf1o Web\\Proyectos\\Parleyweb\\web2py\\applications\\parleyweb\\models\\db.py'
p3026
sg3016
(dp3027
sg3018
I150
sg3019
(dp3028
I145
S''
sI146
S''
sI147
S'### Validacion tabla palabras ###'
p3029
sI148
S'#db.palabras.palabra.represent = lambda palabra: palabra.capitalize()'
p3030
sI149
S"db.palabras.genero.requires = IS_EMPTY_OR(IS_IN_SET(['Masculino', 'Neutro', 'Femenino'],zero=T('Elige uno'),"
p3031
sI150
S"         error_message=T('No elegiste')))"
p3032
sI151
S"db.palabras.articulo.requires = IS_EMPTY_OR(IS_IN_SET(['Die', 'Der', 'Das'],zero=T('Elige uno'),"
p3033
sI152
S"         error_message=T('Elige Die, Der o Das')))"
p3034
sI153
S"db.palabras.glosario.requires = IS_EMPTY_OR(IS_IN_DB(db, 'glosario.id', '%(nombre_glosario)s'))"
p3035
sI154
S''
ssg3021
S'()'
p3036
sg3023
S'<module>'
p3037
sa(dp3038
g3014
S'D:\\Dise\xf1o Web\\Proyectos\\Parleyweb\\web2py\\gluon\\dal.py'
p3039
sg3016
(dp3040
sg3018
I6774
sg3019
(dp3041
sg3021
S"(self=<Table {'presente_1': <gluon.dal.Field object at..., '_id': <gluon.dal.Field object at 0x06F553F0>}>, key='genero')"
p3042
sg3023
S'__getattr__'
p3043
sa(dp3044
g3014
S'D:\\Dise\xf1o Web\\Proyectos\\Parleyweb\\web2py\\gluon\\dal.py'
p3045
sg3016
(dp3046
sg3018
I6714
sg3019
(dp3047
sg3021
S"(self=<Table {'presente_1': <gluon.dal.Field object at..., '_id': <gluon.dal.Field object at 0x06F553F0>}>, key='genero')"
p3048
sg3023
g20
sasS'pyver'
p3049
S'Python 2.5.4: D:\\Dise\xf1o Web\\Proyectos\\Parleyweb\\web2py\\web2py.exe'
p3050
sS'session'
p3051
g49
(g50
g51
NtRp3052
(dp3053
g54
(dp3054
sg56
(lp3055
g49
(g58
g51
NtRp3056
(dp3057
g54
(dp3058
g62
I5
ssg63
Nsg56
(lp3059
g49
(g65
g51
NtRp3060
(dp3061
g54
(dp3062
sg63
g3056
sg56
(lp3063
g49
(g70
g51
NtRp3064
(dp3065
g54
(dp3066
g74
g75
ssg63
g3060
sg56
(lp3067
S'last_query'
p3068
asbag49
(g70
g51
NtRp3069
(dp3070
g54
(dp3071
g81
g82
ssg63
g3060
sg56
(lp3072
S':'
asbag49
(g70
g51
NtRp3073
(dp3074
g54
(dp3075
sg63
g3060
sg56
(lp3076
g49
(g50
g51
NtRp3077
(dp3078
g54
(dp3079
g62
I5
ssg63
g3073
sg56
(lp3080
S'db.palabras.id>0'
p3081
asbasbasbasbasbsS'etype'
p3082
S"<type 'exceptions.KeyError'>"
p3083
sS'date'
p3084
S'Sat Mar 10 15:31:14 2012'
p3085
sS'response'
p3086
g49
(g50
g51
NtRp3087
(dp3088
g54
(dp3089
sg56
(lp3090
g49
(g58
g51
NtRp3091
(dp3092
g54
(dp3093
g62
I5
ssg63
Nsg56
(lp3094
g49
(g65
g51
NtRp3095
(dp3096
g54
(dp3097
sg63
g3091
sg56
(lp3098
g49
(g70
g51
NtRp3099
(dp3100
g54
(dp3101
g74
g75
ssg63
g3095
sg56
(lp3102
g147
asbag49
(g70
g51
NtRp3103
(dp3104
g54
(dp3105
g81
g82
ssg63
g3095
sg56
(lp3106
S':'
asbag49
(g70
g51
NtRp3107
(dp3108
g54
(dp3109
sg63
g3095
sg56
(lp3110
g49
(g50
g51
NtRp3111
(dp3112
g54
(dp3113
g62
I5
ssg63
g3107
sg56
(lp3114
S'<cStringIO.StringO object at 0x07073600>'
p3115
asbasbasbag49
(g65
g51
NtRp3116
(dp3117
g54
(dp3118
sg63
g3091
sg56
(lp3119
g49
(g70
g51
NtRp3120
(dp3121
g54
(dp3122
g74
g75
ssg63
g3116
sg56
(lp3123
g213
asbag49
(g70
g51
NtRp3124
(dp3125
g54
(dp3126
g81
g82
ssg63
g3116
sg56
(lp3127
S':'
asbag49
(g70
g51
NtRp3128
(dp3129
g54
(dp3130
sg63
g3116
sg56
(lp3131
g49
(g50
g51
NtRp3132
(dp3133
g54
(dp3134
g62
I5
ssg63
g3128
sg56
(lp3135
g49
(g58
g51
NtRp3136
(dp3137
g54
(dp3138
g62
I4
ssg63
Nsg56
(lp3139
g49
(g65
g51
NtRp3140
(dp3141
g54
(dp3142
sg63
g3136
sg56
(lp3143
g49
(g70
g51
NtRp3144
(dp3145
g54
(dp3146
g74
g75
ssg63
g3140
sg56
(lp3147
S'session_id_parleyweb'
p3148
asbag49
(g70
g51
NtRp3149
(dp3150
g54
(dp3151
g81
g82
ssg63
g3140
sg56
(lp3152
S':'
asbag49
(g70
g51
NtRp3153
(dp3154
g54
(dp3155
sg63
g3140
sg56
(lp3156
g49
(g50
g51
NtRp3157
(dp3158
g54
(dp3159
g62
I4
ssg63
g3153
sg56
(lp3160
g49
(g58
g51
NtRp3161
(dp3162
g54
(dp3163
g62
I3
ssg63
Nsg56
(lp3164
g49
(g65
g51
NtRp3165
(dp3166
g54
(dp3167
sg63
g3161
sg56
(lp3168
g49
(g70
g51
NtRp3169
(dp3170
g54
(dp3171
g74
g75
ssg63
g3165
sg56
(lp3172
g263
asbag49
(g70
g51
NtRp3173
(dp3174
g54
(dp3175
g81
g82
ssg63
g3165
sg56
(lp3176
S':'
asbag49
(g70
g51
NtRp3177
(dp3178
g54
(dp3179
sg63
g3165
sg56
(lp3180
g49
(g50
g51
NtRp3181
(dp3182
g54
(dp3183
g62
I3
ssg63
g3177
sg56
(lp3184
S''
asbasbasbag49
(g65
g51
NtRp3185
(dp3186
g54
(dp3187
sg63
g3161
sg56
(lp3188
g49
(g70
g51
NtRp3189
(dp3190
g54
(dp3191
g74
g75
ssg63
g3185
sg56
(lp3192
g284
asbag49
(g70
g51
NtRp3193
(dp3194
g54
(dp3195
g81
g82
ssg63
g3185
sg56
(lp3196
S':'
asbag49
(g70
g51
NtRp3197
(dp3198
g54
(dp3199
sg63
g3185
sg56
(lp3200
g49
(g50
g51
NtRp3201
(dp3202
g54
(dp3203
g62
I3
ssg63
g3197
sg56
(lp3204
S''
asbasbasbag49
(g65
g51
NtRp3205
(dp3206
g54
(dp3207
sg63
g3161
sg56
(lp3208
g49
(g70
g51
NtRp3209
(dp3210
g54
(dp3211
g74
g75
ssg63
g3205
sg56
(lp3212
g305
asbag49
(g70
g51
NtRp3213
(dp3214
g54
(dp3215
g81
g82
ssg63
g3205
sg56
(lp3216
S':'
asbag49
(g70
g51
NtRp3217
(dp3218
g54
(dp3219
sg63
g3205
sg56
(lp3220
g49
(g50
g51
NtRp3221
(dp3222
g54
(dp3223
g62
I3
ssg63
g3217
sg56
(lp3224
S''
asbasbasbag49
(g65
g51
NtRp3225
(dp3226
g54
(dp3227
sg63
g3161
sg56
(lp3228
g49
(g70
g51
NtRp3229
(dp3230
g54
(dp3231
g74
g75
ssg63
g3225
sg56
(lp3232
g326
asbag49
(g70
g51
NtRp3233
(dp3234
g54
(dp3235
g81
g82
ssg63
g3225
sg56
(lp3236
S':'
asbag49
(g70
g51
NtRp3237
(dp3238
g54
(dp3239
sg63
g3225
sg56
(lp3240
g49
(g50
g51
NtRp3241
(dp3242
g54
(dp3243
g62
I3
ssg63
g3237
sg56
(lp3244
S''
asbasbasbag49
(g65
g51
NtRp3245
(dp3246
g54
(dp3247
sg63
g3161
sg56
(lp3248
g49
(g70
g51
NtRp3249
(dp3250
g54
(dp3251
g74
g75
ssg63
g3245
sg56
(lp3252
g347
asbag49
(g70
g51
NtRp3253
(dp3254
g54
(dp3255
g81
g82
ssg63
g3245
sg56
(lp3256
S':'
asbag49
(g70
g51
NtRp3257
(dp3258
g54
(dp3259
sg63
g3245
sg56
(lp3260
g49
(g50
g51
NtRp3261
(dp3262
g54
(dp3263
g62
I3
ssg63
g3257
sg56
(lp3264
S'/'
asbasbasbag49
(g65
g51
NtRp3265
(dp3266
g54
(dp3267
sg63
g3161
sg56
(lp3268
g49
(g70
g51
NtRp3269
(dp3270
g54
(dp3271
g74
g75
ssg63
g3265
sg56
(lp3272
g368
asbag49
(g70
g51
NtRp3273
(dp3274
g54
(dp3275
g81
g82
ssg63
g3265
sg56
(lp3276
S':'
asbag49
(g70
g51
NtRp3277
(dp3278
g54
(dp3279
sg63
g3265
sg56
(lp3280
g49
(g50
g51
NtRp3281
(dp3282
g54
(dp3283
g62
I3
ssg63
g3277
sg56
(lp3284
S''
asbasbasbag49
(g65
g51
NtRp3285
(dp3286
g54
(dp3287
sg63
g3161
sg56
(lp3288
g49
(g70
g51
NtRp3289
(dp3290
g54
(dp3291
g74
g75
ssg63
g3285
sg56
(lp3292
g389
asbag49
(g70
g51
NtRp3293
(dp3294
g54
(dp3295
g81
g82
ssg63
g3285
sg56
(lp3296
S':'
asbag49
(g70
g51
NtRp3297
(dp3298
g54
(dp3299
sg63
g3285
sg56
(lp3300
g49
(g50
g51
NtRp3301
(dp3302
g54
(dp3303
g62
I3
ssg63
g3297
sg56
(lp3304
S''
asbasbasbasbasbasbasbasbasbasbasbag49
(g65
g51
NtRp3305
(dp3306
g54
(dp3307
sg63
g3091
sg56
(lp3308
g49
(g70
g51
NtRp3309
(dp3310
g54
(dp3311
g74
g75
ssg63
g3305
sg56
(lp3312
S'delimiters'
p3313
asbag49
(g70
g51
NtRp3314
(dp3315
g54
(dp3316
g81
g82
ssg63
g3305
sg56
(lp3317
S':'
asbag49
(g70
g51
NtRp3318
(dp3319
g54
(dp3320
sg63
g3305
sg56
(lp3321
g49
(g50
g51
NtRp3322
(dp3323
g54
(dp3324
g62
I5
ssg63
g3318
sg56
(lp3325
g49
(g58
g51
NtRp3326
(dp3327
g54
(dp3328
g62
I4
ssg63
Nsg56
(lp3329
g49
(g65
g51
NtRp3330
(dp3331
g54
(dp3332
sg63
g3326
sg56
(lp3333
g49
(g70
g51
NtRp3334
(dp3335
g54
(dp3336
sg63
g3330
sg56
(lp3337
g49
(g50
g51
NtRp3338
(dp3339
g54
(dp3340
g62
I4
ssg63
g3334
sg56
(lp3341
S'{{'
p3342
asbasbasbag49
(g65
g51
NtRp3343
(dp3344
g54
(dp3345
sg63
g3326
sg56
(lp3346
g49
(g70
g51
NtRp3347
(dp3348
g54
(dp3349
sg63
g3343
sg56
(lp3350
g49
(g50
g51
NtRp3351
(dp3352
g54
(dp3353
g62
I4
ssg63
g3347
sg56
(lp3354
S'}}'
p3355
asbasbasbasbasbasbasbag49
(g65
g51
NtRp3356
(dp3357
g54
(dp3358
sg63
g3091
sg56
(lp3359
g49
(g70
g51
NtRp3360
(dp3361
g54
(dp3362
g74
g75
ssg63
g3356
sg56
(lp3363
S'files'
p3364
asbag49
(g70
g51
NtRp3365
(dp3366
g54
(dp3367
g81
g82
ssg63
g3356
sg56
(lp3368
S':'
asbag49
(g70
g51
NtRp3369
(dp3370
g54
(dp3371
sg63
g3356
sg56
(lp3372
g49
(g50
g51
NtRp3373
(dp3374
g54
(dp3375
g62
I5
ssg63
g3369
sg56
(lp3376
g49
(g58
g51
NtRp3377
(dp3378
g54
(dp3379
g62
I4
ssg63
Nsg56
(lp3380
sbasbasbasbag49
(g65
g51
NtRp3381
(dp3382
g54
(dp3383
sg63
g3091
sg56
(lp3384
g49
(g70
g51
NtRp3385
(dp3386
g54
(dp3387
g74
g75
ssg63
g3381
sg56
(lp3388
S'flash'
p3389
asbag49
(g70
g51
NtRp3390
(dp3391
g54
(dp3392
g81
g82
ssg63
g3381
sg56
(lp3393
S':'
asbag49
(g70
g51
NtRp3394
(dp3395
g54
(dp3396
sg63
g3381
sg56
(lp3397
g49
(g50
g51
NtRp3398
(dp3399
g54
(dp3400
g62
I5
ssg63
g3394
sg56
(lp3401
S''
asbasbasbag49
(g65
g51
NtRp3402
(dp3403
g54
(dp3404
sg63
g3091
sg56
(lp3405
g49
(g70
g51
NtRp3406
(dp3407
g54
(dp3408
g74
g75
ssg63
g3402
sg56
(lp3409
S'generic_patterns'
p3410
asbag49
(g70
g51
NtRp3411
(dp3412
g54
(dp3413
g81
g82
ssg63
g3402
sg56
(lp3414
S':'
asbag49
(g70
g51
NtRp3415
(dp3416
g54
(dp3417
sg63
g3402
sg56
(lp3418
g49
(g50
g51
NtRp3419
(dp3420
g54
(dp3421
g62
I5
ssg63
g3415
sg56
(lp3422
g49
(g58
g51
NtRp3423
(dp3424
g54
(dp3425
g62
I4
ssg63
Nsg56
(lp3426
g49
(g65
g51
NtRp3427
(dp3428
g54
(dp3429
sg63
g3423
sg56
(lp3430
g49
(g70
g51
NtRp3431
(dp3432
g54
(dp3433
sg63
g3427
sg56
(lp3434
g49
(g50
g51
NtRp3435
(dp3436
g54
(dp3437
g62
I4
ssg63
g3431
sg56
(lp3438
S'*'
asbasbasbasbasbasbasbag49
(g65
g51
NtRp3439
(dp3440
g54
(dp3441
sg63
g3091
sg56
(lp3442
g49
(g70
g51
NtRp3443
(dp3444
g54
(dp3445
g74
g75
ssg63
g3439
sg56
(lp3446
S'headers'
p3447
asbag49
(g70
g51
NtRp3448
(dp3449
g54
(dp3450
g81
g82
ssg63
g3439
sg56
(lp3451
S':'
asbag49
(g70
g51
NtRp3452
(dp3453
g54
(dp3454
sg63
g3439
sg56
(lp3455
g49
(g50
g51
NtRp3456
(dp3457
g54
(dp3458
g62
I5
ssg63
g3452
sg56
(lp3459
g49
(g58
g51
NtRp3460
(dp3461
g54
(dp3462
g62
I4
ssg63
Nsg56
(lp3463
g49
(g65
g51
NtRp3464
(dp3465
g54
(dp3466
sg63
g3460
sg56
(lp3467
g49
(g70
g51
NtRp3468
(dp3469
g54
(dp3470
g74
g75
ssg63
g3464
sg56
(lp3471
S'Cache-Control'
p3472
asbag49
(g70
g51
NtRp3473
(dp3474
g54
(dp3475
g81
g82
ssg63
g3464
sg56
(lp3476
S':'
asbag49
(g70
g51
NtRp3477
(dp3478
g54
(dp3479
sg63
g3464
sg56
(lp3480
g49
(g50
g51
NtRp3481
(dp3482
g54
(dp3483
g62
I4
ssg63
g3477
sg56
(lp3484
S'no-store, no-cache, must-revalidate, post-check=0, pre-check=0'
p3485
asbasbasbag49
(g65
g51
NtRp3486
(dp3487
g54
(dp3488
sg63
g3460
sg56
(lp3489
g49
(g70
g51
NtRp3490
(dp3491
g54
(dp3492
g74
g75
ssg63
g3486
sg56
(lp3493
S'Content-Type'
p3494
asbag49
(g70
g51
NtRp3495
(dp3496
g54
(dp3497
g81
g82
ssg63
g3486
sg56
(lp3498
S':'
asbag49
(g70
g51
NtRp3499
(dp3500
g54
(dp3501
sg63
g3486
sg56
(lp3502
g49
(g50
g51
NtRp3503
(dp3504
g54
(dp3505
g62
I4
ssg63
g3499
sg56
(lp3506
S'text/html; charset=utf-8'
p3507
asbasbasbag49
(g65
g51
NtRp3508
(dp3509
g54
(dp3510
sg63
g3460
sg56
(lp3511
g49
(g70
g51
NtRp3512
(dp3513
g54
(dp3514
g74
g75
ssg63
g3508
sg56
(lp3515
S'Expires'
p3516
asbag49
(g70
g51
NtRp3517
(dp3518
g54
(dp3519
g81
g82
ssg63
g3508
sg56
(lp3520
S':'
asbag49
(g70
g51
NtRp3521
(dp3522
g54
(dp3523
sg63
g3508
sg56
(lp3524
g49
(g50
g51
NtRp3525
(dp3526
g54
(dp3527
g62
I4
ssg63
g3521
sg56
(lp3528
S'Sat, 10 Mar 2012 14:31:14 GMT'
p3529
asbasbasbag49
(g65
g51
NtRp3530
(dp3531
g54
(dp3532
sg63
g3460
sg56
(lp3533
g49
(g70
g51
NtRp3534
(dp3535
g54
(dp3536
g74
g75
ssg63
g3530
sg56
(lp3537
S'Pragma'
p3538
asbag49
(g70
g51
NtRp3539
(dp3540
g54
(dp3541
g81
g82
ssg63
g3530
sg56
(lp3542
S':'
asbag49
(g70
g51
NtRp3543
(dp3544
g54
(dp3545
sg63
g3530
sg56
(lp3546
g49
(g50
g51
NtRp3547
(dp3548
g54
(dp3549
g62
I4
ssg63
g3543
sg56
(lp3550
S'no-cache'
p3551
asbasbasbag49
(g65
g51
NtRp3552
(dp3553
g54
(dp3554
sg63
g3460
sg56
(lp3555
g49
(g70
g51
NtRp3556
(dp3557
g54
(dp3558
g74
g75
ssg63
g3552
sg56
(lp3559
S'X-Powered-By'
p3560
asbag49
(g70
g51
NtRp3561
(dp3562
g54
(dp3563
g81
g82
ssg63
g3552
sg56
(lp3564
S':'
asbag49
(g70
g51
NtRp3565
(dp3566
g54
(dp3567
sg63
g3552
sg56
(lp3568
g49
(g50
g51
NtRp3569
(dp3570
g54
(dp3571
g62
I4
ssg63
g3565
sg56
(lp3572
S'web2py'
p3573
asbasbasbasbasbasbasbag49
(g65
g51
NtRp3574
(dp3575
g54
(dp3576
sg63
g3091
sg56
(lp3577
g49
(g70
g51
NtRp3578
(dp3579
g54
(dp3580
g74
g75
ssg63
g3574
sg56
(lp3581
S'menu'
p3582
asbag49
(g70
g51
NtRp3583
(dp3584
g54
(dp3585
g81
g82
ssg63
g3574
sg56
(lp3586
S':'
asbag49
(g70
g51
NtRp3587
(dp3588
g54
(dp3589
sg63
g3574
sg56
(lp3590
g49
(g50
g51
NtRp3591
(dp3592
g54
(dp3593
g62
I5
ssg63
g3587
sg56
(lp3594
g49
(g58
g51
NtRp3595
(dp3596
g54
(dp3597
g62
I4
ssg63
Nsg56
(lp3598
sbasbasbasbag49
(g65
g51
NtRp3599
(dp3600
g54
(dp3601
sg63
g3091
sg56
(lp3602
g49
(g70
g51
NtRp3603
(dp3604
g54
(dp3605
g74
g75
ssg63
g3599
sg56
(lp3606
S'meta'
p3607
asbag49
(g70
g51
NtRp3608
(dp3609
g54
(dp3610
g81
g82
ssg63
g3599
sg56
(lp3611
S':'
asbag49
(g70
g51
NtRp3612
(dp3613
g54
(dp3614
sg63
g3599
sg56
(lp3615
g49
(g50
g51
NtRp3616
(dp3617
g54
(dp3618
g62
I5
ssg63
g3612
sg56
(lp3619
g49
(g58
g51
NtRp3620
(dp3621
g54
(dp3622
g62
I4
ssg63
Nsg56
(lp3623
sbasbasbasbag49
(g65
g51
NtRp3624
(dp3625
g54
(dp3626
sg63
g3091
sg56
(lp3627
g49
(g70
g51
NtRp3628
(dp3629
g54
(dp3630
g74
g75
ssg63
g3624
sg56
(lp3631
S'postprocessing'
p3632
asbag49
(g70
g51
NtRp3633
(dp3634
g54
(dp3635
g81
g82
ssg63
g3624
sg56
(lp3636
S':'
asbag49
(g70
g51
NtRp3637
(dp3638
g54
(dp3639
sg63
g3624
sg56
(lp3640
g49
(g50
g51
NtRp3641
(dp3642
g54
(dp3643
g62
I5
ssg63
g3637
sg56
(lp3644
g49
(g58
g51
NtRp3645
(dp3646
g54
(dp3647
g62
I4
ssg63
Nsg56
(lp3648
sbasbasbasbag49
(g65
g51
NtRp3649
(dp3650
g54
(dp3651
sg63
g3091
sg56
(lp3652
g49
(g70
g51
NtRp3653
(dp3654
g54
(dp3655
g74
g75
ssg63
g3649
sg56
(lp3656
S'session_file'
p3657
asbag49
(g70
g51
NtRp3658
(dp3659
g54
(dp3660
g81
g82
ssg63
g3649
sg56
(lp3661
S':'
asbag49
(g70
g51
NtRp3662
(dp3663
g54
(dp3664
sg63
g3649
sg56
(lp3665
g49
(g50
g51
NtRp3666
(dp3667
g54
(dp3668
g62
I5
ssg63
g3662
sg56
(lp3669
S"<open file 'D:\\Dise\xf1o Web\\Proyectos\\Parleyweb\\web2py\\applications\\parleyweb\\sessions\\127.0.0.1-941ea06b-718e-475d-8aba-022805d8afd9', mode 'rb+' at 0x07008650>"
p3670
asbasbasbag49
(g65
g51
NtRp3671
(dp3672
g54
(dp3673
sg63
g3091
sg56
(lp3674
g49
(g70
g51
NtRp3675
(dp3676
g54
(dp3677
g74
g75
ssg63
g3671
sg56
(lp3678
S'session_filename'
p3679
asbag49
(g70
g51
NtRp3680
(dp3681
g54
(dp3682
g81
g82
ssg63
g3671
sg56
(lp3683
S':'
asbag49
(g70
g51
NtRp3684
(dp3685
g54
(dp3686
sg63
g3671
sg56
(lp3687
g49
(g50
g51
NtRp3688
(dp3689
g54
(dp3690
g62
I5
ssg63
g3684
sg56
(lp3691
S'D:\\Dise\xf1o Web\\Proyectos\\Parleyweb\\web2py\\applications\\parleyweb\\sessions\\127.0.0.1-941ea06b-718e-475d-8aba-022805d8afd9'
p3692
asbasbasbag49
(g65
g51
NtRp3693
(dp3694
g54
(dp3695
sg63
g3091
sg56
(lp3696
g49
(g70
g51
NtRp3697
(dp3698
g54
(dp3699
g74
g75
ssg63
g3693
sg56
(lp3700
S'session_id'
p3701
asbag49
(g70
g51
NtRp3702
(dp3703
g54
(dp3704
g81
g82
ssg63
g3693
sg56
(lp3705
S':'
asbag49
(g70
g51
NtRp3706
(dp3707
g54
(dp3708
sg63
g3693
sg56
(lp3709
g49
(g50
g51
NtRp3710
(dp3711
g54
(dp3712
g62
I5
ssg63
g3706
sg56
(lp3713
S'127.0.0.1-941ea06b-718e-475d-8aba-022805d8afd9'
p3714
asbasbasbag49
(g65
g51
NtRp3715
(dp3716
g54
(dp3717
sg63
g3091
sg56
(lp3718
g49
(g70
g51
NtRp3719
(dp3720
g54
(dp3721
g74
g75
ssg63
g3715
sg56
(lp3722
S'session_id_name'
p3723
asbag49
(g70
g51
NtRp3724
(dp3725
g54
(dp3726
g81
g82
ssg63
g3715
sg56
(lp3727
S':'
asbag49
(g70
g51
NtRp3728
(dp3729
g54
(dp3730
sg63
g3715
sg56
(lp3731
g49
(g50
g51
NtRp3732
(dp3733
g54
(dp3734
g62
I5
ssg63
g3728
sg56
(lp3735
g3148
asbasbasbag49
(g65
g51
NtRp3736
(dp3737
g54
(dp3738
sg63
g3091
sg56
(lp3739
g49
(g70
g51
NtRp3740
(dp3741
g54
(dp3742
g74
g75
ssg63
g3736
sg56
(lp3743
S'session_locked'
p3744
asbag49
(g70
g51
NtRp3745
(dp3746
g54
(dp3747
g81
g82
ssg63
g3736
sg56
(lp3748
S':'
asbag49
(g70
g51
NtRp3749
(dp3750
g54
(dp3751
sg63
g3736
sg56
(lp3752
g49
(g50
g51
NtRp3753
(dp3754
g54
(dp3755
g62
I5
ssg63
g3749
sg56
(lp3756
g1730
asbasbasbag49
(g65
g51
NtRp3757
(dp3758
g54
(dp3759
sg63
g3091
sg56
(lp3760
g49
(g70
g51
NtRp3761
(dp3762
g54
(dp3763
g74
g75
ssg63
g3757
sg56
(lp3764
S'session_new'
p3765
asbag49
(g70
g51
NtRp3766
(dp3767
g54
(dp3768
g81
g82
ssg63
g3757
sg56
(lp3769
S':'
asbag49
(g70
g51
NtRp3770
(dp3771
g54
(dp3772
sg63
g3757
sg56
(lp3773
g49
(g50
g51
NtRp3774
(dp3775
g54
(dp3776
g62
I5
ssg63
g3770
sg56
(lp3777
g92
asbasbasbag49
(g65
g51
NtRp3778
(dp3779
g54
(dp3780
sg63
g3091
sg56
(lp3781
g49
(g70
g51
NtRp3782
(dp3783
g54
(dp3784
g74
g75
ssg63
g3778
sg56
(lp3785
S'status'
p3786
asbag49
(g70
g51
NtRp3787
(dp3788
g54
(dp3789
g81
g82
ssg63
g3778
sg56
(lp3790
S':'
asbag49
(g70
g51
NtRp3791
(dp3792
g54
(dp3793
sg63
g3778
sg56
(lp3794
g49
(g50
g51
NtRp3795
(dp3796
g54
(dp3797
g62
I5
ssg63
g3791
sg56
(lp3798
S'200'
p3799
asbasbasbag49
(g65
g51
NtRp3800
(dp3801
g54
(dp3802
sg63
g3091
sg56
(lp3803
g49
(g70
g51
NtRp3804
(dp3805
g54
(dp3806
g74
g75
ssg63
g3800
sg56
(lp3807
g2394
asbag49
(g70
g51
NtRp3808
(dp3809
g54
(dp3810
g81
g82
ssg63
g3800
sg56
(lp3811
S':'
asbag49
(g70
g51
NtRp3812
(dp3813
g54
(dp3814
sg63
g3800
sg56
(lp3815
g49
(g50
g51
NtRp3816
(dp3817
g54
(dp3818
g62
I5
ssg63
g3812
sg56
(lp3819
g2407
asbasbasbag49
(g65
g51
NtRp3820
(dp3821
g54
(dp3822
sg63
g3091
sg56
(lp3823
g49
(g70
g51
NtRp3824
(dp3825
g54
(dp3826
g74
g75
ssg63
g3820
sg56
(lp3827
S'view'
p3828
asbag49
(g70
g51
NtRp3829
(dp3830
g54
(dp3831
g81
g82
ssg63
g3820
sg56
(lp3832
S':'
asbag49
(g70
g51
NtRp3833
(dp3834
g54
(dp3835
sg63
g3820
sg56
(lp3836
g49
(g50
g51
NtRp3837
(dp3838
g54
(dp3839
g62
I5
ssg63
g3833
sg56
(lp3840
S'default/index.html'
p3841
asbasbasbasbasbsS'locals'
p3842
(dp3843
S'self'
p3844
S"<Table {'presente_1': <gluon.dal.Field object at..., '_id': <gluon.dal.Field object at 0x06F553F0>}>"
p3845
sS'key'
p3846
S"'genero'"
p3847
sssS'traceback'
p3848
S'Traceback (most recent call last):\n  File "gluon/restricted.py", line 205, in restricted\n  File "D:\\Dise\xf1o Web\\Proyectos\\Parleyweb\\web2py\\applications\\parleyweb\\models\\db.py", line 150, in <module>\n  File "gluon/dal.py", line 6774, in __getattr__\n  File "gluon/dal.py", line 6714, in __getitem__\nKeyError: \'genero\'\n'
p3849
s.