(dp1
S'output'
p2
S"<type 'exceptions.KeyError'> 'ejemplos'"
p3
sS'layer'
p4
S'D:\\Dise\xf1o Web\\Proyectos\\Parleyweb\\web2py\\applications\\parleyweb\\views\\default/mostrar.html'
p5
sS'code'
p6
S'response.write(\'<!DOCTYPE html>\\n<!-- paulirish.com/2008/conditional-stylesheets-vs-css-hacks-answer-neither/ -->\\n<!--[if lt IE 7]><html class="ie ie6 ie-lte9 ie-lte8 ie-lte7 no-js" lang="\', escape=False)\nresponse.write(T.accepted_language or \'en\')\nresponse.write(\'"> <![endif]-->\\n<!--[if IE 7]><html class="ie ie7 ie-lte9 ie-lte8 ie-lte7 no-js" lang="\', escape=False)\nresponse.write(T.accepted_language or \'en\')\nresponse.write(\'"> <![endif]-->\\n<!--[if IE 8]><html class="ie ie8 ie-lte9 ie-lte8 no-js" lang="\', escape=False)\nresponse.write(T.accepted_language or \'en\')\nresponse.write(\'"> <![endif]-->\\n<!--[if IE 9]><html class="ie9 ie-lte9 no-js" lang="\', escape=False)\nresponse.write(T.accepted_language or \'en\')\nresponse.write(\'"> <![endif]-->\\n<!--[if (gt IE 9)|!(IE)]><!--> <html class="no-js" lang="\', escape=False)\nresponse.write(T.accepted_language or \'en\')\nresponse.write(\'"> <!--<![endif]-->\\n<head>\\n  <meta charset="utf-8" />\\n  <!-- www.phpied.com/conditional-comments-block-downloads/ -->\\n  <!-- Always force latest IE rendering engine\\n\\t   (even in intranet) & Chrome Frame\\n\\t   Remove this if you use the .htaccess -->\\n  <!--[if IE]>\\n    <meta http-equiv="X-UA-Compatible" content="IE=edge\', escape=False)\nresponse.write(not request.is_local and \',chrome=1\' or \'\')\nresponse.write(\'">\\n  <![endif]-->\\n  \\n  <title>\', escape=False)\nresponse.write(response.title or request.application)\nresponse.write(\'</title>\\n  \\n  <!-- http://dev.w3.org/html5/markup/meta.name.html -->\\n  <meta name="application-name" content="\', escape=False)\nresponse.write(request.application)\nresponse.write(\'" />\\n  \\n  <!-- Speaking of Google, don\\\'t forget to set your site up:\\n\\t   http://google.com/webmasters -->\\n  <meta name="google-site-verification" content="" />\\n\\n  <!--  Mobile Viewport Fix\\n\\t  j.mp/mobileviewport & davidbcalhoun.com/2010/viewport-metatag\\n\\t  device-width: Occupy full width of the screen in its current orientation\\n\\t  initial-scale = 1.0 retains dimensions instead of zooming out if page height > device height\\n\\t  user-scalable = yes allows the user to zoom in -->\\n  <meta name="viewport" content="width=device-width, initial-scale=1.0, user-scalable=yes">\\n  \\n  <!-- Place favicon.ico and apple-touch-icon.png in the root of your domain and delete these references -->\\n  <link rel="shortcut icon" href="\', escape=False)\nresponse.write(URL(\'static\',\'favicon.ico\'))\nresponse.write(\'" type="image/x-icon">\\n  <link rel="apple-touch-icon" href="\', escape=False)\nresponse.write(URL(\'static\',\'favicon.png\'))\nresponse.write(\'">\\n\\n  <!-- All JavaScript at the bottom, except for Modernizr which enables \\n\\t   HTML5 elements & feature detects -->\\n  <script src="\', escape=False)\nresponse.write(URL(\'static\',\'js/modernizr.custom.js\'))\nresponse.write(\'"></script>  \\n\\n  <!-- include stylesheets -->\\n  \', escape=False)\nresponse.files.append(URL(\'static\',\'css/bootstrap.css\'))\nresponse.files.append(URL(\'static\',\'js/bootstrap.js\'))\nresponse.files.append(URL(\'static\',\'css/parleyweb.css\'))\nresponse.files.append(URL(\'static\',\'css/jquery-ui-1.8.18.custom.css\'))\nresponse.files.append(URL(\'static\',\'js/parleyweb.js\'))\nresponse.files.append(URL(\'static\',\'js/jquery-ui-1.8.18.custom.min.js\'))\nresponse.write(\'\\n\\n  \', escape=False)\nresponse.write(\'<script type="text/javascript"><!--\\n    // These variables are used by the web2py_ajax_init function in web2py_ajax.js (which is loaded below).\\n    var w2p_ajax_confirm_message = "\', escape=False)\nresponse.write(T(\'Are you sure you want to delete this object?\'))\nresponse.write(\'";\\n    var w2p_ajax_date_format = "\', escape=False)\nresponse.write(T(\'%Y-%m-%d\'))\nresponse.write(\'";\\n    var w2p_ajax_datetime_format = "\', escape=False)\nresponse.write(T(\'%Y-%m-%d %H:%M:%S\'))\nresponse.write(\'";\\n    //--></script>\\n\', escape=False)\nresponse.files.insert(0,URL(\'static\',\'js/jquery.js\'))\nresponse.files.insert(1,URL(\'static\',\'css/calendar.css\'))\nresponse.files.insert(2,URL(\'static\',\'js/calendar.js\'))\nresponse.files.insert(3,URL(\'static\',\'js/web2py.js\'))\nresponse.include_meta()\nresponse.include_files()\nresponse.write(\'\\n\', escape=False)\nresponse.write(\'\\n\\n  \\n\\n  \', escape=False)\n# using sidebars need to know what sidebar you want to use\nleft_sidebar_enabled = globals().get(\'left_sidebar_enabled\',False)\nright_sidebar_enabled = globals().get(\'right_sidebar_enabled\',False)\nmiddle_columns = {0:\'sixteen\',1:\'twelve\',2:\'eight\'}[\n(left_sidebar_enabled and 1 or 0)+(right_sidebar_enabled and 1 or 0)]\nresponse.write(\'\\n\\n  <!-- uncomment here to load jquery-ui\\n  <link rel="stylesheet" href="http://ajax.googleapis.com/ajax/libs/jqueryui/1.8.16/themes/base/jquery-ui.css" type="text/css" media="all" />\\n  <script src="http://ajax.googleapis.com/ajax/libs/jqueryui/1.8.16/jquery-ui.min.js" type="text/javascript"></script>\\n  uncomment to load jquery-ui //-->\\n</head>\\n <body>\\n\\n    <div class="navbar navbar-fixed-top">\\n      <div class="navbar-inner">\\n        <div class="container-fluid">\\n          <a class="btn btn-navbar" data-toggle="collapse" data-target=".nav-collapse">\\n            <span class="icon-bar"></span>\\n            <span class="icon-bar"></span>\\n            <span class="icon-bar"></span>\\n          </a>\\n          <a class="brand" href="#">Parleyweb</a>\\n          <div class="nav-collapse">\\n\\t    \', escape=False)\n#=MENU(response.menu, _class="nav active")\nresponse.write(\'\\n            <ul class="nav">\\n              <li>\', escape=False)\nresponse.write(A(T(\'Administracion\'), _href=URL(\'admin\', \'index\')))\nresponse.write(\'</li>\\n            </ul>\\n\\t    \\n            <p class="navbar-text pull-right">\', escape=False)\nresponse.write(\'auth\' in globals() and auth.navbar(separators=(\' \',\' | \',\'\')))\nresponse.write(\'</p>\\n          </div><!--/.nav-collapse -->\\n        </div>\\n      </div>\\n    </div>\\n    <div class="flash alert alert-info"></i>\', escape=False)\nresponse.write(response.flash or \'\')\nresponse.write(\'</div>\\n    <div class="container-fluid">\\n      <div class="row-fluid">\\n        <div class="span3">\\n          <div class="well sidebar-nav">\\n            <ul class="nav nav-list">\\n              <li class="nav-header">\', escape=False)\nresponse.write(T(\'Buscar\'))\nresponse.write(\'</li>\\n            </ul>\\n          </div><!--/.well -->\\n        </div><!--/span-->\\n        <div class="span9">\\n\\t  \', escape=False)\nresponse.write(\'\\n\\t    \', escape=False)\nresponse.write(\'\\n\\n   \', escape=False)\nif palabras:\n    response.write(\'                                                             <!-- INICIO IF PALABRAS -->\\n   \\n        \\n        \\n       <h3 class="h3_redondo">\', escape=False)\n    response.write(palabras.palabra.capitalize())\n    response.write(\'</h3>\\n       \\n                                                                                <!-- SI LA PALABRA ES UN VERBO Y SUSTANTIVO A LA VEZ -->\\n       \\n        \', escape=False)\n    if palabras.sustantivo==True and palabras.verbo==True:\n        response.write(\'  <!-- 1 -->\\n        <div class="btn-group botones_mostrar" data-toggle="buttons-checkbox">\\n           <!-- <button class="btn btn-info " onclick=\\\'$("#toggle1-mostrar").slideToggle(200);\\\'>Mostrar como sustantivo</button> -->\\n            <button class="btn btn-info toggle-mostrar-verbo">\\n                <span class="mostrar-verbo"><i class="icon-plus-sign icon-white"></i> Mostrar verbo</span>\\n                <span class="ocultar-verbo hide"><i class="icon-minus-sign icon-white"></i> Ocultar</span>\\n            </button>\\n            <!--<button class="btn btn-info">Ambos</button> -->\\n            <button class="btn btn-info toggle-mostrar-sustantivo">\\n                <span class="mostrar-sustantivo"><i class="icon-plus-sign icon-white"></i> Mostrar sustantivo</span>\\n                <span class="ocultar-sustantivo hide"><i class="icon-minus-sign icon-white"></i> Ocultar</span>\\n            </button>\\n        </div>\\n        <div id="toggle-mostrar-verbo" class="hide">                            <!-- INICIO DIV OCULTO PARA MOSTRAR EL VERBO -->\\n            <div class="toggle-mostrar"><h4>Verbo</h4></div>\\n            <div class="wellparley2">\\n                <h4 class="h4-mostrar">Ejemplos</h4>\\n                <table class="table table-striped table-bordered">\\n                    <thead>\\n                        <tr>\\n                            <th>\', escape=False)\n        response.write(IMG(_src=URL(\'static\', \'images/germany.gif\')))\n        response.write(\'</th>\\n                            <th>\', escape=False)\n        response.write(IMG(_src=URL(\'static\', \'images/spain.gif\')))\n        response.write(\'</th>\\n                            <th>Fuente</th>\\n                        </tr>\\n                    </thead>\\n                    <tbody>\\n                        \', escape=False)\n        for registro in ejemplos(db.palabras.id==request.args(0)).select(db.ejemplos.ALL):\n            response.write(\'\\n                            \', escape=False)\n            for r in registro(registro.ejemplos.tipo==\'verbo\').select:\n                response.write(\'\\n                                \', escape=False)\n                response.write(r.tipo)\n                response.write(\'\\n                            \', escape=False)\n                pass\n            response.write(\'\\n                        <tr>\\n                            <td>\\n                                \', escape=False)\n            response.write(registro.ejemplo_de)\n            response.write(\'\\n                            </td>\\n                            <td>\\n                                \', escape=False)\n            response.write(registro.ejemplo_es)\n            response.write(\'\\n                            </td>\\n                               \\n                            <td>\\n                                 \', escape=False)\n            if registro.fuente:\n                response.write(\'\\n                                    \', escape=False)\n                response.write(registro.fuente.nombre)\n                response.write(\'\\n                                \', escape=False)\n                pass\n            response.write(\'\\n                            </td>\\n                        </tr>\\n                        \', escape=False)\n            pass\n        response.write(\'\\n                    </tbody>\\n                </table>\\n                \\n            </div>\\n        </div>                                                                  <!-- FIN DIV OCULTO PARA MOSTRAR EL VERBO -->\\n        \\n        \\n        <div id="toggle-mostrar-sustantivo" class="hide">                       <!-- INICIO DIV OCULTO PARA MOSTRAR EL SUSTANTIVO -->\\n            <div class="toggle-mostrar">\\n                <h4>Sustantivo</h4>\\n                <a href="#" class="tip" rel="tooltip" \', escape=False)\n        if palabras.articulo==\'Die\':\n            response.write(\'\\n                                                            title="Femenino"\\n                                                        \', escape=False)\n        elif palabras.articulo==\'Der\':\n            response.write(\'\\n                                                            title="Masculino"\\n                                                        \', escape=False)\n        elif palabras.articulo==\'Das\':\n            response.write(\'\\n                                                            title="Neutro"\\n                                                        \', escape=False)\n        else:\n            response.write(\'\\n                                                            title="No hay"\\n                                                        \', escape=False)\n            pass\n        response.write(\'>\\n                    \', escape=False)\n        response.write(palabras.articulo.capitalize())\n        response.write(\'\\n                </a>\\n                <span>\', escape=False)\n        response.write(palabras.palabra.capitalize())\n        response.write(\'</span>\\n                <span>-</span>\\n                <a href="#" class="tip" rel="tooltip" title="Plural">(\', escape=False)\n        response.write(palabras.plural)\n        response.write(\')</a>\\n                <a href="#" class="float_right tip img ocultar-tip"  rel="tooltip" title="Mostrar"><i class="icon-camera icon-white"></i></a>\\n                <a href="#" class="float_right tip img mostrar-tip" id="ocultar-tip" rel="tooltip" title="Ocultar"><i class="icon-camera icon-white"></i></a>\\n            </div>\\n            <div class="wellparley2">\\n                <div id="imagen-sustantivo" class="hide"> \\n                    \', escape=False)\n        if not palabras.imagen:\n            response.write(\'\\n                        <p>No hay imagen</p>\\n                    \', escape=False)\n        else:\n            response.write(\'\\n                        <img class="img-sustantivo" src="\', escape=False)\n            response.write(URL(\'download\', args=palabras.imagen))\n            response.write(\'" />\\n                    \', escape=False)\n            pass\n        response.write(\'\\n                </div>\\n                <h4 class="h4-mostrar">Ejemplos</h4>\\n                <table class="table table-striped table-bordered">\\n                    <thead>\\n                        <tr>\\n                            <th>\', escape=False)\n        response.write(IMG(_src=URL(\'static\', \'images/germany.gif\')))\n        response.write(\'</th>\\n                            <th>\', escape=False)\n        response.write(IMG(_src=URL(\'static\', \'images/spain.gif\')))\n        response.write(\'</th>\\n                            <th>Fuente</th>\\n                        </tr>\\n                    </thead>\\n                    <tbody>\\n                        \', escape=False)\n        for registro in ejemplos(db.palabras.id==request.args(0)).select(db.ejemplos.ALL):\n            response.write(\'\\n                        <tr>\\n                            <td>\\n                                \', escape=False)\n            response.write(registro.ejemplo_de)\n            response.write(\'\\n                            </td>\\n                            <td>\\n                                \', escape=False)\n            response.write(registro.ejemplo_es)\n            response.write(\'\\n                            </td>\\n                               \\n                            <td>\\n                                 \', escape=False)\n            if registro.fuente:\n                response.write(\'\\n                                    \', escape=False)\n                response.write(registro.fuente.nombre)\n                response.write(\'\\n                                \', escape=False)\n                pass\n            response.write(\'\\n                            </td>\\n                        </tr>\\n                        \', escape=False)\n            pass\n        response.write(\'\\n                    </tbody>\\n                </table>\\n            </div>\\n        </div>                                                                  <!-- FIN DIV OCULTO PARA MOSTRAR EL SUSTANTIVO -->\\n        \\n                                                                                <!-- FIN SI LA PALABRA ES UN SUSTANTIVO Y VERBO A LA VEZ -->\\n                        \\n                                                                                 <!-- SIN  LA PALABRA ES SOLO UN SUSTANTIVO -->\\n        \\n        \', escape=False)\n    elif palabras.sustantivo==True:\n        response.write(\' <!-- 2 -->\\n            <div class="toggle-mostrar">\\n                <h4>Sustantivo</h4>\\n                <a href="#" class="tip" rel="tooltip" \', escape=False)\n        if palabras.articulo==\'Die\':\n            response.write(\'\\n                                                            title="Femenino"\\n                                                        \', escape=False)\n        elif palabras.articulo==\'Der\':\n            response.write(\'\\n                                                            title="Masculino"\\n                                                        \', escape=False)\n        elif palabras.articulo==\'Das\':\n            response.write(\'\\n                                                            title="Neutro"\\n                                                        \', escape=False)\n        else:\n            response.write(\'\\n                                                            title="No hay"\\n                                                        \', escape=False)\n            pass\n        response.write(\'>\\n                    \', escape=False)\n        response.write(palabras.articulo.capitalize())\n        response.write(\'\\n                </a>\\n                <span>\', escape=False)\n        response.write(palabras.palabra.capitalize())\n        response.write(\'</span>\\n                <span>-</span>\\n                <a href="#" class="tip" rel="tooltip" title="Plural">(\', escape=False)\n        response.write(palabras.plural)\n        response.write(\')</a>\\n                <a href="#" class="float_right tip img ocultar-tip"  rel="tooltip" title="Mostrar"><i class="icon-camera icon-white"></i></a>\\n                <a href="#" class="float_right tip img mostrar-tip" id="ocultar-tip" rel="tooltip" title="Ocultar"><i class="icon-camera icon-white"></i></a>\\n            </div>\\n            <div class="wellparley2">\\n                <div id="imagen-sustantivo" class="hide"> \\n                    \', escape=False)\n        if not palabras.imagen:\n            response.write(\'\\n                        <p>No hay imagen</p>\\n                    \', escape=False)\n        else:\n            response.write(\'\\n                        <img class="img-sustantivo" src="\', escape=False)\n            response.write(URL(\'download\', args=palabras.imagen))\n            response.write(\'" />\\n                    \', escape=False)\n            pass\n        response.write(\'\\n                </div>\\n                <h4 class="h4-mostrar">Ejemplos</h4>\\n                <table class="table table-striped table-bordered">\\n                    <tbody>\\n                        <thead>\\n                        <tr>\\n                            <th>\', escape=False)\n        response.write(IMG(_src=URL(\'static\', \'images/germany.gif\')))\n        response.write(\'</th>\\n                            <th>\', escape=False)\n        response.write(IMG(_src=URL(\'static\', \'images/spain.gif\')))\n        response.write(\'</th>\\n                            <th>Fuente</th>\\n                        </tr>\\n                    </thead>\\n                          \', escape=False)\n        for registro in ejemplos(db.ejemplos.tipo==\'sustantivo\').select():\n            response.write(\'\\n                        <tr>\\n                            <td>\\n                                \', escape=False)\n            response.write(registro.ejemplo_de)\n            response.write(\'\\n                            </td>\\n                            <td>\\n                                \', escape=False)\n            response.write(registro.ejemplo_es)\n            response.write(\'\\n                            </td>\\n                               \\n                            <td>\\n                                 \', escape=False)\n            if registro.fuente:\n                response.write(\'\\n                                    \', escape=False)\n                response.write(registro.fuente.nombre)\n                response.write(\'\\n                                \', escape=False)\n                pass\n            response.write(\'\\n                            </td>\\n                        </tr>\\n                        \', escape=False)\n            pass\n        response.write(\'\\n                    </tbody>\\n                </table>\\n            </div>\\n            \\n        \', escape=False)\n    elif palabras.adjetivo==True and palabras.adverbio==True:\n        response.write(\'           <!-- SI LA PALABRAS ES UN ADJETIVO Y UN ADVERBIO -->\\n            <div class="btn-group botones_mostrar" data-toggle="buttons-checkbox">\\n           <!-- <button class="btn btn-info " onclick=\\\'$("#toggle1-mostrar").slideToggle(200);\\\'>Mostrar como sustantivo</button> -->\\n            <button class="btn btn-info toggle-mostrar-verbo">\\n                <span class="mostrar-verbo"><i class="icon-plus-sign icon-white"></i> Mostrar Adverbio</span>\\n                <span class="ocultar-verbo hide"><i class="icon-minus-sign icon-white"></i> Ocultar</span>\\n            </button>\\n            <!--<button class="btn btn-info">Ambos</button> -->\\n            <button class="btn btn-info toggle-mostrar-sustantivo">\\n                <span class="mostrar-sustantivo"><i class="icon-plus-sign icon-white"></i> Mostrar Adjetivo</span>\\n                <span class="ocultar-sustantivo hide"><i class="icon-minus-sign icon-white"></i> Ocultar</span>\\n            </button>\\n        </div>\\n        <div id="toggle-mostrar-verbo" class="hide">                            <!-- INICIO DIV OCULTO PARA MOSTRAR EL ADVERBIO -->\\n            <div class="toggle-mostrar"><h4>Adverbio</h4></div>\\n            <div class="wellparley2">\\n                <h4 class="h4-mostrar">Ejemplos</h4>\\n                <table class="table table-striped table-bordered">\\n                    <thead>\\n                        <tr>\\n                            <th>\', escape=False)\n        response.write(IMG(_src=URL(\'static\', \'images/germany.gif\')))\n        response.write(\'</th>\\n                            <th>\', escape=False)\n        response.write(IMG(_src=URL(\'static\', \'images/spain.gif\')))\n        response.write(\'</th>\\n                            <th>Fuente</th>\\n                        </tr>\\n                    </thead>\\n                    <tbody>\\n                        \', escape=False)\n        for registro in ejemplos(db.ejemplos.tipo==\'adverbio\').select():\n            response.write(\'\\n                        <tr>\\n                            <td>\\n                                \', escape=False)\n            response.write(registro.ejemplo_de)\n            response.write(\'\\n                            </td>\\n                            <td>\\n                                \', escape=False)\n            response.write(registro.ejemplo_es)\n            response.write(\'\\n                            </td>\\n                               \\n                            <td>\\n                                 \', escape=False)\n            if registro.fuente:\n                response.write(\'\\n                                    \', escape=False)\n                response.write(registro.fuente.nombre)\n                response.write(\'\\n                                \', escape=False)\n                pass\n            response.write(\'\\n                            </td>\\n                        </tr>\\n                        \', escape=False)\n            pass\n        response.write(\'\\n                    </tbody>\\n                </table>\\n                \\n            </div>\\n        </div>                                                                  <!-- FIN DIV OCULTO PARA MOSTRAR EL ADVERBIO -->\\n        \\n        \\n        <div id="toggle-mostrar-sustantivo" class="hide">                       <!-- INICIO DIV OCULTO PARA MOSTRAR EL ADJETIVO -->\\n            <div class="toggle-mostrar">\\n                <h4>Adjetivo</h4>\\n            </div>\\n            <div class="wellparley2">\\n                <h4 class="h4-mostrar">Ejemplos</h4>\\n                <table class="table table-striped table-bordered">\\n                    <thead>\\n                        <tr>\\n                            <th>\', escape=False)\n        response.write(IMG(_src=URL(\'static\', \'images/germany.gif\')))\n        response.write(\'</th>\\n                            <th>\', escape=False)\n        response.write(IMG(_src=URL(\'static\', \'images/spain.gif\')))\n        response.write(\'</th>\\n                            <th>Fuente</th>\\n                        </tr>\\n                    </thead>\\n                    <tbody>\\n                        \', escape=False)\n        for registro in ejemplos(db.ejemplos.tipo==\'adjetivo\').select():\n            response.write(\'\\n                        <tr>\\n                            <td>\\n                                \', escape=False)\n            response.write(registro.ejemplo_de)\n            response.write(\'\\n                            </td>\\n                            <td>\\n                                \', escape=False)\n            response.write(registro.ejemplo_es)\n            response.write(\'\\n                            </td>\\n                               \\n                            <td>\\n                                 \', escape=False)\n            if registro.fuente:\n                response.write(\'\\n                                    \', escape=False)\n                response.write(registro.fuente.nombre)\n                response.write(\'\\n                                \', escape=False)\n                pass\n            response.write(\'\\n                            </td>\\n                        </tr>\\n                        \', escape=False)\n            pass\n        response.write(\'\\n                    </tbody>\\n                </table>\\n            </div>\\n        </div>                                                                  <!-- FIN DIV OCULTO PARA MOSTRAR EL ADJETIVO -->\\n        \\n                                                                                <!-- FIN SI LA PALABRA ES UN ADVERVIO Y ADJETIVO -->\\n            \\n        \', escape=False)\n    elif palabras.adjetivo==True:\n        response.write(\'                                       <!-- SI LA PALABRAS ES UN ADJETIVO  -->\\n            <div class="toggle-mostrar">\\n                <h4>Adjetivo</h4>\\n            </div>\\n            <div class="wellparley2">\\n                <h4 class="h4-mostrar">Ejemplos</h4>\\n                <table class="table table-striped table-bordered">\\n                    <tbody>\\n                        <thead>\\n                        <tr>\\n                            <th>\', escape=False)\n        response.write(IMG(_src=URL(\'static\', \'images/germany.gif\')))\n        response.write(\'</th>\\n                            <th>\', escape=False)\n        response.write(IMG(_src=URL(\'static\', \'images/spain.gif\')))\n        response.write(\'</th>\\n                            <th>Fuente</th>\\n                        </tr>\\n                    </thead>\\n                          \', escape=False)\n        for registro in ejemplos(db.ejemplos.tipo==\'adjetivo\').select():\n            response.write(\'\\n                        <tr>\\n                            <td>\\n                                \', escape=False)\n            response.write(registro.ejemplo_de)\n            response.write(\'\\n                            </td>\\n                            <td>\\n                                \', escape=False)\n            response.write(registro.ejemplo_es)\n            response.write(\'\\n                            </td>\\n                               \\n                            <td>\\n                                \', escape=False)\n            if registro.fuente:\n                response.write(\'\\n                                    \', escape=False)\n                response.write(registro.fuente.nombre)\n                response.write(\'\\n                                \', escape=False)\n                pass\n            response.write(\'\\n                            </td>\\n                        </tr>\\n                        \', escape=False)\n            pass\n        response.write(\'\\n                    </tbody>\\n                </table>\\n            </div>\\n            \\n        \', escape=False)\n    elif palabras.adverbio==True:\n        response.write(\'           <!-- SI LA PALABRAS ES UN ADVERVIO  -->\\n            <div class="toggle-mostrar">\\n                <h4>Adverbio</h4>\\n            </div>\\n            <div class="wellparley2">\\n                <h4 class="h4-mostrar">Ejemplos</h4>\\n                <table class="table table-striped table-bordered">\\n                    <tbody>\\n                        <thead>\\n                        <tr>\\n                            <th>\', escape=False)\n        response.write(IMG(_src=URL(\'static\', \'images/germany.gif\')))\n        response.write(\'</th>\\n                            <th>\', escape=False)\n        response.write(IMG(_src=URL(\'static\', \'images/spain.gif\')))\n        response.write(\'</th>\\n                            <th>Fuente</th>\\n                        </tr>\\n                    </thead>\\n                          \', escape=False)\n        for registro in ejemplos(db.ejemplos.tipo==\'adverbio\').select():\n            response.write(\'\\n                        <tr>\\n                            <td>\\n                                \', escape=False)\n            response.write(registro.ejemplo_de)\n            response.write(\'\\n                            </td>\\n                            <td>\\n                                \', escape=False)\n            response.write(registro.ejemplo_es)\n            response.write(\'\\n                            </td>\\n                               \\n                            <td>\\n                                \', escape=False)\n            if registro.fuente:\n                response.write(\'\\n                                    \', escape=False)\n                response.write(registro.fuente.nombre)\n                response.write(\'\\n                                \', escape=False)\n                pass\n            response.write(\'\\n                            </td>\\n                        </tr>\\n                        \', escape=False)\n            pass\n        response.write(\'\\n                    </tbody>\\n                </table>\\n            </div>\\n            \\n            \\n        \', escape=False)\n        pass\n    response.write(\'                                                                <!-- FIN SEGUNDO IF CASOS QUE SE PUEDEN DAR CON LAS PALABRAS -->\\n        \\n    \', escape=False)\n    pass\nresponse.write(\'                                                                    <!-- FIN IF PALABRAS -->\\n \\n\', escape=False)\nresponse.write(\'\\n\\t  \', escape=False)\nresponse.write("\\n          \\n        </div><!--/span-->\\n      </div><!--/row-->\\n\\n      <hr>\\n\\n      <footer>\\n        <p>\\xc2\\xa9 Company 2012</p>\\n      </footer>\\n\\n    </div><!--/.fluid-container-->\\n    \\n    <!-- Le javascript\\n    ================================================== -->\\n    <!-- Placed at the end of the document so the pages load faster \\n    <script>\\n      $(function () {\\n      $(\'.tabs a:last\').tab(\'show\')\\n      })\\n    </script>-->\\n   \\n\\n \\n\\n</body>\\n</html>\\n", escape=False)'
p7
sS'snapshot'
p8
(dp9
S'exception'
p10
(dp11
S'__hash__'
p12
S"<method-wrapper '__hash__' of exceptions.KeyError object at 0x067050D0>"
p13
sS'__setattr__'
p14
S"<method-wrapper '__setattr__' of exceptions.KeyError object at 0x067050D0>"
p15
sS'__reduce_ex__'
p16
S'<built-in method __reduce_ex__ of exceptions.KeyError object at 0x067050D0>'
p17
sS'__getslice__'
p18
S"<method-wrapper '__getslice__' of exceptions.KeyError object at 0x067050D0>"
p19
sS'__getitem__'
p20
S"<method-wrapper '__getitem__' of exceptions.KeyError object at 0x067050D0>"
p21
sS'__setstate__'
p22
S'<built-in method __setstate__ of exceptions.KeyError object at 0x067050D0>'
p23
sS'__reduce__'
p24
S'<built-in method __reduce__ of exceptions.KeyError object at 0x067050D0>'
p25
sS'__str__'
p26
S"<method-wrapper '__str__' of exceptions.KeyError object at 0x067050D0>"
p27
sS'args'
p28
S"('ejemplos',)"
p29
sS'__getattribute__'
p30
S"<method-wrapper '__getattribute__' of exceptions.KeyError object at 0x067050D0>"
p31
sS'__class__'
p32
S"<type 'exceptions.KeyError'>"
p33
sS'__delattr__'
p34
S"<method-wrapper '__delattr__' of exceptions.KeyError object at 0x067050D0>"
p35
sS'__repr__'
p36
S"<method-wrapper '__repr__' of exceptions.KeyError object at 0x067050D0>"
p37
sS'__dict__'
p38
S'{}'
p39
sS'__doc__'
p40
S"'Mapping key not found.'"
p41
sS'__init__'
p42
S"<method-wrapper '__init__' of exceptions.KeyError object at 0x067050D0>"
p43
sS'__new__'
p44
S'<built-in method __new__ of type object at 0x1E1CDFB8>'
p45
ssS'evalue'
p46
S"'ejemplos'"
p47
sS'request'
p48
ccopy_reg
_reconstructor
p49
(cgluon.html
BEAUTIFY
p50
c__builtin__
object
p51
NtRp52
(dp53
S'attributes'
p54
(dp55
sS'components'
p56
(lp57
g49
(cgluon.html
TABLE
p58
g51
NtRp59
(dp60
g54
(dp61
S'level'
p62
I5
ssS'parent'
p63
Nsg56
(lp64
g49
(cgluon.html
TR
p65
g51
NtRp66
(dp67
g54
(dp68
sg63
g59
sg56
(lp69
g49
(cgluon.html
TD
p70
g51
NtRp71
(dp72
g54
(dp73
S'_style'
p74
S'font-weight:bold;vertical-align:top'
p75
ssg63
g66
sg56
(lp76
S'ajax'
p77
asbag49
(g70
g51
NtRp78
(dp79
g54
(dp80
S'_valign'
p81
S'top'
p82
ssg63
g66
sg56
(lp83
S':'
asbag49
(g70
g51
NtRp84
(dp85
g54
(dp86
sg63
g66
sg56
(lp87
g49
(g50
g51
NtRp88
(dp89
g54
(dp90
g62
I5
ssg63
g84
sg56
(lp91
S'False'
p92
asbasbasbag49
(g65
g51
NtRp93
(dp94
g54
(dp95
sg63
g59
sg56
(lp96
g49
(g70
g51
NtRp97
(dp98
g54
(dp99
g74
g75
ssg63
g93
sg56
(lp100
S'application'
p101
asbag49
(g70
g51
NtRp102
(dp103
g54
(dp104
g81
g82
ssg63
g93
sg56
(lp105
S':'
asbag49
(g70
g51
NtRp106
(dp107
g54
(dp108
sg63
g93
sg56
(lp109
g49
(g50
g51
NtRp110
(dp111
g54
(dp112
g62
I5
ssg63
g106
sg56
(lp113
S'parleyweb'
p114
asbasbasbag49
(g65
g51
NtRp115
(dp116
g54
(dp117
sg63
g59
sg56
(lp118
g49
(g70
g51
NtRp119
(dp120
g54
(dp121
g74
g75
ssg63
g115
sg56
(lp122
g28
asbag49
(g70
g51
NtRp123
(dp124
g54
(dp125
g81
g82
ssg63
g115
sg56
(lp126
S':'
asbag49
(g70
g51
NtRp127
(dp128
g54
(dp129
sg63
g115
sg56
(lp130
g49
(g50
g51
NtRp131
(dp132
g54
(dp133
g62
I5
ssg63
g127
sg56
(lp134
g49
(g58
g51
NtRp135
(dp136
g54
(dp137
g62
I4
ssg63
Nsg56
(lp138
g49
(g65
g51
NtRp139
(dp140
g54
(dp141
sg63
g135
sg56
(lp142
g49
(g70
g51
NtRp143
(dp144
g54
(dp145
sg63
g139
sg56
(lp146
g49
(g50
g51
NtRp147
(dp148
g54
(dp149
g62
I4
ssg63
g143
sg56
(lp150
S'82'
p151
asbasbasbasbasbasbasbag49
(g65
g51
NtRp152
(dp153
g54
(dp154
sg63
g59
sg56
(lp155
g49
(g70
g51
NtRp156
(dp157
g54
(dp158
g74
g75
ssg63
g152
sg56
(lp159
S'body'
p160
asbag49
(g70
g51
NtRp161
(dp162
g54
(dp163
g81
g82
ssg63
g152
sg56
(lp164
S':'
asbag49
(g70
g51
NtRp165
(dp166
g54
(dp167
sg63
g152
sg56
(lp168
g49
(g50
g51
NtRp169
(dp170
g54
(dp171
g62
I5
ssg63
g165
sg56
(lp172
S'<cStringIO.StringO object at 0x07359340>'
p173
asbasbasbag49
(g65
g51
NtRp174
(dp175
g54
(dp176
sg63
g59
sg56
(lp177
g49
(g70
g51
NtRp178
(dp179
g54
(dp180
g74
g75
ssg63
g174
sg56
(lp181
S'client'
p182
asbag49
(g70
g51
NtRp183
(dp184
g54
(dp185
g81
g82
ssg63
g174
sg56
(lp186
S':'
asbag49
(g70
g51
NtRp187
(dp188
g54
(dp189
sg63
g174
sg56
(lp190
g49
(g50
g51
NtRp191
(dp192
g54
(dp193
g62
I5
ssg63
g187
sg56
(lp194
S'127.0.0.1'
p195
asbasbasbag49
(g65
g51
NtRp196
(dp197
g54
(dp198
sg63
g59
sg56
(lp199
g49
(g70
g51
NtRp200
(dp201
g54
(dp202
g74
g75
ssg63
g196
sg56
(lp203
S'controller'
p204
asbag49
(g70
g51
NtRp205
(dp206
g54
(dp207
g81
g82
ssg63
g196
sg56
(lp208
S':'
asbag49
(g70
g51
NtRp209
(dp210
g54
(dp211
sg63
g196
sg56
(lp212
g49
(g50
g51
NtRp213
(dp214
g54
(dp215
g62
I5
ssg63
g209
sg56
(lp216
S'default'
p217
asbasbasbag49
(g65
g51
NtRp218
(dp219
g54
(dp220
sg63
g59
sg56
(lp221
g49
(g70
g51
NtRp222
(dp223
g54
(dp224
g74
g75
ssg63
g218
sg56
(lp225
S'cookies'
p226
asbag49
(g70
g51
NtRp227
(dp228
g54
(dp229
g81
g82
ssg63
g218
sg56
(lp230
S':'
asbag49
(g70
g51
NtRp231
(dp232
g54
(dp233
sg63
g218
sg56
(lp234
g49
(g50
g51
NtRp235
(dp236
g54
(dp237
g62
I5
ssg63
g231
sg56
(lp238
g49
(g58
g51
NtRp239
(dp240
g54
(dp241
g62
I4
ssg63
Nsg56
(lp242
g49
(g65
g51
NtRp243
(dp244
g54
(dp245
sg63
g239
sg56
(lp246
g49
(g70
g51
NtRp247
(dp248
g54
(dp249
g74
g75
ssg63
g243
sg56
(lp250
S'session_id_admin'
p251
asbag49
(g70
g51
NtRp252
(dp253
g54
(dp254
g81
g82
ssg63
g243
sg56
(lp255
S':'
asbag49
(g70
g51
NtRp256
(dp257
g54
(dp258
sg63
g243
sg56
(lp259
g49
(g50
g51
NtRp260
(dp261
g54
(dp262
g62
I4
ssg63
g256
sg56
(lp263
g49
(g58
g51
NtRp264
(dp265
g54
(dp266
g62
I3
ssg63
Nsg56
(lp267
g49
(g65
g51
NtRp268
(dp269
g54
(dp270
sg63
g264
sg56
(lp271
g49
(g70
g51
NtRp272
(dp273
g54
(dp274
g74
g75
ssg63
g268
sg56
(lp275
S'comment'
p276
asbag49
(g70
g51
NtRp277
(dp278
g54
(dp279
g81
g82
ssg63
g268
sg56
(lp280
S':'
asbag49
(g70
g51
NtRp281
(dp282
g54
(dp283
sg63
g268
sg56
(lp284
g49
(g50
g51
NtRp285
(dp286
g54
(dp287
g62
I3
ssg63
g281
sg56
(lp288
S''
asbasbasbag49
(g65
g51
NtRp289
(dp290
g54
(dp291
sg63
g264
sg56
(lp292
g49
(g70
g51
NtRp293
(dp294
g54
(dp295
g74
g75
ssg63
g289
sg56
(lp296
S'domain'
p297
asbag49
(g70
g51
NtRp298
(dp299
g54
(dp300
g81
g82
ssg63
g289
sg56
(lp301
S':'
asbag49
(g70
g51
NtRp302
(dp303
g54
(dp304
sg63
g289
sg56
(lp305
g49
(g50
g51
NtRp306
(dp307
g54
(dp308
g62
I3
ssg63
g302
sg56
(lp309
S''
asbasbasbag49
(g65
g51
NtRp310
(dp311
g54
(dp312
sg63
g264
sg56
(lp313
g49
(g70
g51
NtRp314
(dp315
g54
(dp316
g74
g75
ssg63
g310
sg56
(lp317
S'expires'
p318
asbag49
(g70
g51
NtRp319
(dp320
g54
(dp321
g81
g82
ssg63
g310
sg56
(lp322
S':'
asbag49
(g70
g51
NtRp323
(dp324
g54
(dp325
sg63
g310
sg56
(lp326
g49
(g50
g51
NtRp327
(dp328
g54
(dp329
g62
I3
ssg63
g323
sg56
(lp330
S''
asbasbasbag49
(g65
g51
NtRp331
(dp332
g54
(dp333
sg63
g264
sg56
(lp334
g49
(g70
g51
NtRp335
(dp336
g54
(dp337
g74
g75
ssg63
g331
sg56
(lp338
S'max-age'
p339
asbag49
(g70
g51
NtRp340
(dp341
g54
(dp342
g81
g82
ssg63
g331
sg56
(lp343
S':'
asbag49
(g70
g51
NtRp344
(dp345
g54
(dp346
sg63
g331
sg56
(lp347
g49
(g50
g51
NtRp348
(dp349
g54
(dp350
g62
I3
ssg63
g344
sg56
(lp351
S''
asbasbasbag49
(g65
g51
NtRp352
(dp353
g54
(dp354
sg63
g264
sg56
(lp355
g49
(g70
g51
NtRp356
(dp357
g54
(dp358
g74
g75
ssg63
g352
sg56
(lp359
S'path'
p360
asbag49
(g70
g51
NtRp361
(dp362
g54
(dp363
g81
g82
ssg63
g352
sg56
(lp364
S':'
asbag49
(g70
g51
NtRp365
(dp366
g54
(dp367
sg63
g352
sg56
(lp368
g49
(g50
g51
NtRp369
(dp370
g54
(dp371
g62
I3
ssg63
g365
sg56
(lp372
S''
asbasbasbag49
(g65
g51
NtRp373
(dp374
g54
(dp375
sg63
g264
sg56
(lp376
g49
(g70
g51
NtRp377
(dp378
g54
(dp379
g74
g75
ssg63
g373
sg56
(lp380
S'secure'
p381
asbag49
(g70
g51
NtRp382
(dp383
g54
(dp384
g81
g82
ssg63
g373
sg56
(lp385
S':'
asbag49
(g70
g51
NtRp386
(dp387
g54
(dp388
sg63
g373
sg56
(lp389
g49
(g50
g51
NtRp390
(dp391
g54
(dp392
g62
I3
ssg63
g386
sg56
(lp393
S''
asbasbasbag49
(g65
g51
NtRp394
(dp395
g54
(dp396
sg63
g264
sg56
(lp397
g49
(g70
g51
NtRp398
(dp399
g54
(dp400
g74
g75
ssg63
g394
sg56
(lp401
S'version'
p402
asbag49
(g70
g51
NtRp403
(dp404
g54
(dp405
g81
g82
ssg63
g394
sg56
(lp406
S':'
asbag49
(g70
g51
NtRp407
(dp408
g54
(dp409
sg63
g394
sg56
(lp410
g49
(g50
g51
NtRp411
(dp412
g54
(dp413
g62
I3
ssg63
g407
sg56
(lp414
S''
asbasbasbasbasbasbasbag49
(g65
g51
NtRp415
(dp416
g54
(dp417
sg63
g239
sg56
(lp418
g49
(g70
g51
NtRp419
(dp420
g54
(dp421
g74
g75
ssg63
g415
sg56
(lp422
S'session_id_klaas'
p423
asbag49
(g70
g51
NtRp424
(dp425
g54
(dp426
g81
g82
ssg63
g415
sg56
(lp427
S':'
asbag49
(g70
g51
NtRp428
(dp429
g54
(dp430
sg63
g415
sg56
(lp431
g49
(g50
g51
NtRp432
(dp433
g54
(dp434
g62
I4
ssg63
g428
sg56
(lp435
g49
(g58
g51
NtRp436
(dp437
g54
(dp438
g62
I3
ssg63
Nsg56
(lp439
g49
(g65
g51
NtRp440
(dp441
g54
(dp442
sg63
g436
sg56
(lp443
g49
(g70
g51
NtRp444
(dp445
g54
(dp446
g74
g75
ssg63
g440
sg56
(lp447
g276
asbag49
(g70
g51
NtRp448
(dp449
g54
(dp450
g81
g82
ssg63
g440
sg56
(lp451
S':'
asbag49
(g70
g51
NtRp452
(dp453
g54
(dp454
sg63
g440
sg56
(lp455
g49
(g50
g51
NtRp456
(dp457
g54
(dp458
g62
I3
ssg63
g452
sg56
(lp459
S''
asbasbasbag49
(g65
g51
NtRp460
(dp461
g54
(dp462
sg63
g436
sg56
(lp463
g49
(g70
g51
NtRp464
(dp465
g54
(dp466
g74
g75
ssg63
g460
sg56
(lp467
g297
asbag49
(g70
g51
NtRp468
(dp469
g54
(dp470
g81
g82
ssg63
g460
sg56
(lp471
S':'
asbag49
(g70
g51
NtRp472
(dp473
g54
(dp474
sg63
g460
sg56
(lp475
g49
(g50
g51
NtRp476
(dp477
g54
(dp478
g62
I3
ssg63
g472
sg56
(lp479
S''
asbasbasbag49
(g65
g51
NtRp480
(dp481
g54
(dp482
sg63
g436
sg56
(lp483
g49
(g70
g51
NtRp484
(dp485
g54
(dp486
g74
g75
ssg63
g480
sg56
(lp487
g318
asbag49
(g70
g51
NtRp488
(dp489
g54
(dp490
g81
g82
ssg63
g480
sg56
(lp491
S':'
asbag49
(g70
g51
NtRp492
(dp493
g54
(dp494
sg63
g480
sg56
(lp495
g49
(g50
g51
NtRp496
(dp497
g54
(dp498
g62
I3
ssg63
g492
sg56
(lp499
S''
asbasbasbag49
(g65
g51
NtRp500
(dp501
g54
(dp502
sg63
g436
sg56
(lp503
g49
(g70
g51
NtRp504
(dp505
g54
(dp506
g74
g75
ssg63
g500
sg56
(lp507
g339
asbag49
(g70
g51
NtRp508
(dp509
g54
(dp510
g81
g82
ssg63
g500
sg56
(lp511
S':'
asbag49
(g70
g51
NtRp512
(dp513
g54
(dp514
sg63
g500
sg56
(lp515
g49
(g50
g51
NtRp516
(dp517
g54
(dp518
g62
I3
ssg63
g512
sg56
(lp519
S''
asbasbasbag49
(g65
g51
NtRp520
(dp521
g54
(dp522
sg63
g436
sg56
(lp523
g49
(g70
g51
NtRp524
(dp525
g54
(dp526
g74
g75
ssg63
g520
sg56
(lp527
g360
asbag49
(g70
g51
NtRp528
(dp529
g54
(dp530
g81
g82
ssg63
g520
sg56
(lp531
S':'
asbag49
(g70
g51
NtRp532
(dp533
g54
(dp534
sg63
g520
sg56
(lp535
g49
(g50
g51
NtRp536
(dp537
g54
(dp538
g62
I3
ssg63
g532
sg56
(lp539
S''
asbasbasbag49
(g65
g51
NtRp540
(dp541
g54
(dp542
sg63
g436
sg56
(lp543
g49
(g70
g51
NtRp544
(dp545
g54
(dp546
g74
g75
ssg63
g540
sg56
(lp547
g381
asbag49
(g70
g51
NtRp548
(dp549
g54
(dp550
g81
g82
ssg63
g540
sg56
(lp551
S':'
asbag49
(g70
g51
NtRp552
(dp553
g54
(dp554
sg63
g540
sg56
(lp555
g49
(g50
g51
NtRp556
(dp557
g54
(dp558
g62
I3
ssg63
g552
sg56
(lp559
S''
asbasbasbag49
(g65
g51
NtRp560
(dp561
g54
(dp562
sg63
g436
sg56
(lp563
g49
(g70
g51
NtRp564
(dp565
g54
(dp566
g74
g75
ssg63
g560
sg56
(lp567
g402
asbag49
(g70
g51
NtRp568
(dp569
g54
(dp570
g81
g82
ssg63
g560
sg56
(lp571
S':'
asbag49
(g70
g51
NtRp572
(dp573
g54
(dp574
sg63
g560
sg56
(lp575
g49
(g50
g51
NtRp576
(dp577
g54
(dp578
g62
I3
ssg63
g572
sg56
(lp579
S''
asbasbasbasbasbasbasbag49
(g65
g51
NtRp580
(dp581
g54
(dp582
sg63
g239
sg56
(lp583
g49
(g70
g51
NtRp584
(dp585
g54
(dp586
g74
g75
ssg63
g580
sg56
(lp587
S'session_id_parleyweb'
p588
asbag49
(g70
g51
NtRp589
(dp590
g54
(dp591
g81
g82
ssg63
g580
sg56
(lp592
S':'
asbag49
(g70
g51
NtRp593
(dp594
g54
(dp595
sg63
g580
sg56
(lp596
g49
(g50
g51
NtRp597
(dp598
g54
(dp599
g62
I4
ssg63
g593
sg56
(lp600
g49
(g58
g51
NtRp601
(dp602
g54
(dp603
g62
I3
ssg63
Nsg56
(lp604
g49
(g65
g51
NtRp605
(dp606
g54
(dp607
sg63
g601
sg56
(lp608
g49
(g70
g51
NtRp609
(dp610
g54
(dp611
g74
g75
ssg63
g605
sg56
(lp612
g276
asbag49
(g70
g51
NtRp613
(dp614
g54
(dp615
g81
g82
ssg63
g605
sg56
(lp616
S':'
asbag49
(g70
g51
NtRp617
(dp618
g54
(dp619
sg63
g605
sg56
(lp620
g49
(g50
g51
NtRp621
(dp622
g54
(dp623
g62
I3
ssg63
g617
sg56
(lp624
S''
asbasbasbag49
(g65
g51
NtRp625
(dp626
g54
(dp627
sg63
g601
sg56
(lp628
g49
(g70
g51
NtRp629
(dp630
g54
(dp631
g74
g75
ssg63
g625
sg56
(lp632
g297
asbag49
(g70
g51
NtRp633
(dp634
g54
(dp635
g81
g82
ssg63
g625
sg56
(lp636
S':'
asbag49
(g70
g51
NtRp637
(dp638
g54
(dp639
sg63
g625
sg56
(lp640
g49
(g50
g51
NtRp641
(dp642
g54
(dp643
g62
I3
ssg63
g637
sg56
(lp644
S''
asbasbasbag49
(g65
g51
NtRp645
(dp646
g54
(dp647
sg63
g601
sg56
(lp648
g49
(g70
g51
NtRp649
(dp650
g54
(dp651
g74
g75
ssg63
g645
sg56
(lp652
g318
asbag49
(g70
g51
NtRp653
(dp654
g54
(dp655
g81
g82
ssg63
g645
sg56
(lp656
S':'
asbag49
(g70
g51
NtRp657
(dp658
g54
(dp659
sg63
g645
sg56
(lp660
g49
(g50
g51
NtRp661
(dp662
g54
(dp663
g62
I3
ssg63
g657
sg56
(lp664
S''
asbasbasbag49
(g65
g51
NtRp665
(dp666
g54
(dp667
sg63
g601
sg56
(lp668
g49
(g70
g51
NtRp669
(dp670
g54
(dp671
g74
g75
ssg63
g665
sg56
(lp672
g339
asbag49
(g70
g51
NtRp673
(dp674
g54
(dp675
g81
g82
ssg63
g665
sg56
(lp676
S':'
asbag49
(g70
g51
NtRp677
(dp678
g54
(dp679
sg63
g665
sg56
(lp680
g49
(g50
g51
NtRp681
(dp682
g54
(dp683
g62
I3
ssg63
g677
sg56
(lp684
S''
asbasbasbag49
(g65
g51
NtRp685
(dp686
g54
(dp687
sg63
g601
sg56
(lp688
g49
(g70
g51
NtRp689
(dp690
g54
(dp691
g74
g75
ssg63
g685
sg56
(lp692
g360
asbag49
(g70
g51
NtRp693
(dp694
g54
(dp695
g81
g82
ssg63
g685
sg56
(lp696
S':'
asbag49
(g70
g51
NtRp697
(dp698
g54
(dp699
sg63
g685
sg56
(lp700
g49
(g50
g51
NtRp701
(dp702
g54
(dp703
g62
I3
ssg63
g697
sg56
(lp704
S''
asbasbasbag49
(g65
g51
NtRp705
(dp706
g54
(dp707
sg63
g601
sg56
(lp708
g49
(g70
g51
NtRp709
(dp710
g54
(dp711
g74
g75
ssg63
g705
sg56
(lp712
g381
asbag49
(g70
g51
NtRp713
(dp714
g54
(dp715
g81
g82
ssg63
g705
sg56
(lp716
S':'
asbag49
(g70
g51
NtRp717
(dp718
g54
(dp719
sg63
g705
sg56
(lp720
g49
(g50
g51
NtRp721
(dp722
g54
(dp723
g62
I3
ssg63
g717
sg56
(lp724
S''
asbasbasbag49
(g65
g51
NtRp725
(dp726
g54
(dp727
sg63
g601
sg56
(lp728
g49
(g70
g51
NtRp729
(dp730
g54
(dp731
g74
g75
ssg63
g725
sg56
(lp732
g402
asbag49
(g70
g51
NtRp733
(dp734
g54
(dp735
g81
g82
ssg63
g725
sg56
(lp736
S':'
asbag49
(g70
g51
NtRp737
(dp738
g54
(dp739
sg63
g725
sg56
(lp740
g49
(g50
g51
NtRp741
(dp742
g54
(dp743
g62
I3
ssg63
g737
sg56
(lp744
S''
asbasbasbasbasbasbasbag49
(g65
g51
NtRp745
(dp746
g54
(dp747
sg63
g239
sg56
(lp748
g49
(g70
g51
NtRp749
(dp750
g54
(dp751
g74
g75
ssg63
g745
sg56
(lp752
S'session_id_welcome'
p753
asbag49
(g70
g51
NtRp754
(dp755
g54
(dp756
g81
g82
ssg63
g745
sg56
(lp757
S':'
asbag49
(g70
g51
NtRp758
(dp759
g54
(dp760
sg63
g745
sg56
(lp761
g49
(g50
g51
NtRp762
(dp763
g54
(dp764
g62
I4
ssg63
g758
sg56
(lp765
g49
(g58
g51
NtRp766
(dp767
g54
(dp768
g62
I3
ssg63
Nsg56
(lp769
g49
(g65
g51
NtRp770
(dp771
g54
(dp772
sg63
g766
sg56
(lp773
g49
(g70
g51
NtRp774
(dp775
g54
(dp776
g74
g75
ssg63
g770
sg56
(lp777
g276
asbag49
(g70
g51
NtRp778
(dp779
g54
(dp780
g81
g82
ssg63
g770
sg56
(lp781
S':'
asbag49
(g70
g51
NtRp782
(dp783
g54
(dp784
sg63
g770
sg56
(lp785
g49
(g50
g51
NtRp786
(dp787
g54
(dp788
g62
I3
ssg63
g782
sg56
(lp789
S''
asbasbasbag49
(g65
g51
NtRp790
(dp791
g54
(dp792
sg63
g766
sg56
(lp793
g49
(g70
g51
NtRp794
(dp795
g54
(dp796
g74
g75
ssg63
g790
sg56
(lp797
g297
asbag49
(g70
g51
NtRp798
(dp799
g54
(dp800
g81
g82
ssg63
g790
sg56
(lp801
S':'
asbag49
(g70
g51
NtRp802
(dp803
g54
(dp804
sg63
g790
sg56
(lp805
g49
(g50
g51
NtRp806
(dp807
g54
(dp808
g62
I3
ssg63
g802
sg56
(lp809
S''
asbasbasbag49
(g65
g51
NtRp810
(dp811
g54
(dp812
sg63
g766
sg56
(lp813
g49
(g70
g51
NtRp814
(dp815
g54
(dp816
g74
g75
ssg63
g810
sg56
(lp817
g318
asbag49
(g70
g51
NtRp818
(dp819
g54
(dp820
g81
g82
ssg63
g810
sg56
(lp821
S':'
asbag49
(g70
g51
NtRp822
(dp823
g54
(dp824
sg63
g810
sg56
(lp825
g49
(g50
g51
NtRp826
(dp827
g54
(dp828
g62
I3
ssg63
g822
sg56
(lp829
S''
asbasbasbag49
(g65
g51
NtRp830
(dp831
g54
(dp832
sg63
g766
sg56
(lp833
g49
(g70
g51
NtRp834
(dp835
g54
(dp836
g74
g75
ssg63
g830
sg56
(lp837
g339
asbag49
(g70
g51
NtRp838
(dp839
g54
(dp840
g81
g82
ssg63
g830
sg56
(lp841
S':'
asbag49
(g70
g51
NtRp842
(dp843
g54
(dp844
sg63
g830
sg56
(lp845
g49
(g50
g51
NtRp846
(dp847
g54
(dp848
g62
I3
ssg63
g842
sg56
(lp849
S''
asbasbasbag49
(g65
g51
NtRp850
(dp851
g54
(dp852
sg63
g766
sg56
(lp853
g49
(g70
g51
NtRp854
(dp855
g54
(dp856
g74
g75
ssg63
g850
sg56
(lp857
g360
asbag49
(g70
g51
NtRp858
(dp859
g54
(dp860
g81
g82
ssg63
g850
sg56
(lp861
S':'
asbag49
(g70
g51
NtRp862
(dp863
g54
(dp864
sg63
g850
sg56
(lp865
g49
(g50
g51
NtRp866
(dp867
g54
(dp868
g62
I3
ssg63
g862
sg56
(lp869
S''
asbasbasbag49
(g65
g51
NtRp870
(dp871
g54
(dp872
sg63
g766
sg56
(lp873
g49
(g70
g51
NtRp874
(dp875
g54
(dp876
g74
g75
ssg63
g870
sg56
(lp877
g381
asbag49
(g70
g51
NtRp878
(dp879
g54
(dp880
g81
g82
ssg63
g870
sg56
(lp881
S':'
asbag49
(g70
g51
NtRp882
(dp883
g54
(dp884
sg63
g870
sg56
(lp885
g49
(g50
g51
NtRp886
(dp887
g54
(dp888
g62
I3
ssg63
g882
sg56
(lp889
S''
asbasbasbag49
(g65
g51
NtRp890
(dp891
g54
(dp892
sg63
g766
sg56
(lp893
g49
(g70
g51
NtRp894
(dp895
g54
(dp896
g74
g75
ssg63
g890
sg56
(lp897
g402
asbag49
(g70
g51
NtRp898
(dp899
g54
(dp900
g81
g82
ssg63
g890
sg56
(lp901
S':'
asbag49
(g70
g51
NtRp902
(dp903
g54
(dp904
sg63
g890
sg56
(lp905
g49
(g50
g51
NtRp906
(dp907
g54
(dp908
g62
I3
ssg63
g902
sg56
(lp909
S''
asbasbasbasbasbasbasbasbasbasbasbag49
(g65
g51
NtRp910
(dp911
g54
(dp912
sg63
g59
sg56
(lp913
g49
(g70
g51
NtRp914
(dp915
g54
(dp916
g74
g75
ssg63
g910
sg56
(lp917
S'env'
p918
asbag49
(g70
g51
NtRp919
(dp920
g54
(dp921
g81
g82
ssg63
g910
sg56
(lp922
S':'
asbag49
(g70
g51
NtRp923
(dp924
g54
(dp925
sg63
g910
sg56
(lp926
g49
(g50
g51
NtRp927
(dp928
g54
(dp929
g62
I5
ssg63
g923
sg56
(lp930
g49
(g58
g51
NtRp931
(dp932
g54
(dp933
g62
I4
ssg63
Nsg56
(lp934
g49
(g65
g51
NtRp935
(dp936
g54
(dp937
sg63
g931
sg56
(lp938
g49
(g70
g51
NtRp939
(dp940
g54
(dp941
g74
g75
ssg63
g935
sg56
(lp942
S'app_folders'
p943
asbag49
(g70
g51
NtRp944
(dp945
g54
(dp946
g81
g82
ssg63
g935
sg56
(lp947
S':'
asbag49
(g70
g51
NtRp948
(dp949
g54
(dp950
sg63
g935
sg56
(lp951
g49
(g50
g51
NtRp952
(dp953
g54
(dp954
g62
I4
ssg63
g948
sg56
(lp955
S"set(['D:\\\\Dise\\xf1o Web\\\\Proyectos\\\\Parleyweb\\\\web2py\\\\applications\\\\parleyweb\\\\', 'D:\\\\Dise\\xf1o Web\\\\Proyectos\\\\Parleyweb\\\\web2py\\\\applications\\\\welcome\\\\', 'D:\\\\Dise\\xf1o Web\\\\Proyectos\\\\Parleyweb\\\\web2py\\\\applications\\\\admin\\\\'])"
p956
asbasbasbag49
(g65
g51
NtRp957
(dp958
g54
(dp959
sg63
g931
sg56
(lp960
g49
(g70
g51
NtRp961
(dp962
g54
(dp963
g74
g75
ssg63
g957
sg56
(lp964
S'applications_parent'
p965
asbag49
(g70
g51
NtRp966
(dp967
g54
(dp968
g81
g82
ssg63
g957
sg56
(lp969
S':'
asbag49
(g70
g51
NtRp970
(dp971
g54
(dp972
sg63
g957
sg56
(lp973
g49
(g50
g51
NtRp974
(dp975
g54
(dp976
g62
I4
ssg63
g970
sg56
(lp977
S'D:\\Dise\xf1o Web\\Proyectos\\Parleyweb\\web2py'
p978
asbasbasbag49
(g65
g51
NtRp979
(dp980
g54
(dp981
sg63
g931
sg56
(lp982
g49
(g70
g51
NtRp983
(dp984
g54
(dp985
g74
g75
ssg63
g979
sg56
(lp986
S'cmd_args'
p987
asbag49
(g70
g51
NtRp988
(dp989
g54
(dp990
g81
g82
ssg63
g979
sg56
(lp991
S':'
asbag49
(g70
g51
NtRp992
(dp993
g54
(dp994
sg63
g979
sg56
(lp995
g49
(g50
g51
NtRp996
(dp997
g54
(dp998
g62
I4
ssg63
g992
sg56
(lp999
g49
(g58
g51
NtRp1000
(dp1001
g54
(dp1002
g62
I3
ssg63
Nsg56
(lp1003
sbasbasbasbag49
(g65
g51
NtRp1004
(dp1005
g54
(dp1006
sg63
g931
sg56
(lp1007
g49
(g70
g51
NtRp1008
(dp1009
g54
(dp1010
g74
g75
ssg63
g1004
sg56
(lp1011
S'cmd_options'
p1012
asbag49
(g70
g51
NtRp1013
(dp1014
g54
(dp1015
g81
g82
ssg63
g1004
sg56
(lp1016
S':'
asbag49
(g70
g51
NtRp1017
(dp1018
g54
(dp1019
sg63
g1004
sg56
(lp1020
g49
(g50
g51
NtRp1021
(dp1022
g54
(dp1023
g62
I4
ssg63
g1017
sg56
(lp1024
S"<Values at 0x331ff30: {'verbose': False, 'ip': '127.0.0.1', 'shutdown_timeout': 5, 'taskbar': False, 'nocron': False, 'pid_filename': 'httpserver.pid', 'maxthreads': None, 'softcron': False, 'server_name': 'craxsnet-PC', 'bpython': False, 'nogui': False, 'port': 8000, 'extcron': False, 'debuglevel': 30, 'test': None, 'folder': 'D:\\\\Dise\\xf1o Web\\\\Proyectos\\\\Parleyweb\\\\web2py', 'config': '', 'import_models': False, 'winservice': '', 'shell': None, 'run': '', 'log_filename': 'httpserver.log', 'args': [''], 'socket_timeout': 5, 'ssl_ca_certificate': None, 'scheduler': None, 'profiler_filename': None, 'ssl_private_key': '', 'password': '<ask>', 'request_queue_size': 5, 'ssl_certificate': '', 'cronjob': False, 'numthreads': None, 'quiet': False, 'interfaces': None, 'minthreads': None, 'timeout': 10, 'plain': False, 'nobanner': False}>"
p1025
asbasbasbag49
(g65
g51
NtRp1026
(dp1027
g54
(dp1028
sg63
g931
sg56
(lp1029
g49
(g70
g51
NtRp1030
(dp1031
g54
(dp1032
g74
g75
ssg63
g1026
sg56
(lp1033
S'db_sessions'
p1034
asbag49
(g70
g51
NtRp1035
(dp1036
g54
(dp1037
g81
g82
ssg63
g1026
sg56
(lp1038
S':'
asbag49
(g70
g51
NtRp1039
(dp1040
g54
(dp1041
sg63
g1026
sg56
(lp1042
g49
(g50
g51
NtRp1043
(dp1044
g54
(dp1045
g62
I4
ssg63
g1039
sg56
(lp1046
S'set([])'
p1047
asbasbasbag49
(g65
g51
NtRp1048
(dp1049
g54
(dp1050
sg63
g931
sg56
(lp1051
g49
(g70
g51
NtRp1052
(dp1053
g54
(dp1054
g74
g75
ssg63
g1048
sg56
(lp1055
S'debugging'
p1056
asbag49
(g70
g51
NtRp1057
(dp1058
g54
(dp1059
g81
g82
ssg63
g1048
sg56
(lp1060
S':'
asbag49
(g70
g51
NtRp1061
(dp1062
g54
(dp1063
sg63
g1048
sg56
(lp1064
g49
(g50
g51
NtRp1065
(dp1066
g54
(dp1067
g62
I4
ssg63
g1061
sg56
(lp1068
g92
asbasbasbag49
(g65
g51
NtRp1069
(dp1070
g54
(dp1071
sg63
g931
sg56
(lp1072
g49
(g70
g51
NtRp1073
(dp1074
g54
(dp1075
g74
g75
ssg63
g1069
sg56
(lp1076
S'gluon_parent'
p1077
asbag49
(g70
g51
NtRp1078
(dp1079
g54
(dp1080
g81
g82
ssg63
g1069
sg56
(lp1081
S':'
asbag49
(g70
g51
NtRp1082
(dp1083
g54
(dp1084
sg63
g1069
sg56
(lp1085
g49
(g50
g51
NtRp1086
(dp1087
g54
(dp1088
g62
I4
ssg63
g1082
sg56
(lp1089
S'D:\\Dise\xf1o Web\\Proyectos\\Parleyweb\\web2py'
p1090
asbasbasbag49
(g65
g51
NtRp1091
(dp1092
g54
(dp1093
sg63
g931
sg56
(lp1094
g49
(g70
g51
NtRp1095
(dp1096
g54
(dp1097
g74
g75
ssg63
g1091
sg56
(lp1098
S'http_accept'
p1099
asbag49
(g70
g51
NtRp1100
(dp1101
g54
(dp1102
g81
g82
ssg63
g1091
sg56
(lp1103
S':'
asbag49
(g70
g51
NtRp1104
(dp1105
g54
(dp1106
sg63
g1091
sg56
(lp1107
g49
(g50
g51
NtRp1108
(dp1109
g54
(dp1110
g62
I4
ssg63
g1104
sg56
(lp1111
S'text/html,application/xhtml+xml,application/xml;q=0.9,*/*;q=0.8'
p1112
asbasbasbag49
(g65
g51
NtRp1113
(dp1114
g54
(dp1115
sg63
g931
sg56
(lp1116
g49
(g70
g51
NtRp1117
(dp1118
g54
(dp1119
g74
g75
ssg63
g1113
sg56
(lp1120
S'http_accept_encoding'
p1121
asbag49
(g70
g51
NtRp1122
(dp1123
g54
(dp1124
g81
g82
ssg63
g1113
sg56
(lp1125
S':'
asbag49
(g70
g51
NtRp1126
(dp1127
g54
(dp1128
sg63
g1113
sg56
(lp1129
g49
(g50
g51
NtRp1130
(dp1131
g54
(dp1132
g62
I4
ssg63
g1126
sg56
(lp1133
S'gzip, deflate'
p1134
asbasbasbag49
(g65
g51
NtRp1135
(dp1136
g54
(dp1137
sg63
g931
sg56
(lp1138
g49
(g70
g51
NtRp1139
(dp1140
g54
(dp1141
g74
g75
ssg63
g1135
sg56
(lp1142
S'http_accept_language'
p1143
asbag49
(g70
g51
NtRp1144
(dp1145
g54
(dp1146
g81
g82
ssg63
g1135
sg56
(lp1147
S':'
asbag49
(g70
g51
NtRp1148
(dp1149
g54
(dp1150
sg63
g1135
sg56
(lp1151
g49
(g50
g51
NtRp1152
(dp1153
g54
(dp1154
g62
I4
ssg63
g1148
sg56
(lp1155
S'es-es,de-de;q=0.8,es;q=0.6,en-us;q=0.4,en;q=0.2'
p1156
asbasbasbag49
(g65
g51
NtRp1157
(dp1158
g54
(dp1159
sg63
g931
sg56
(lp1160
g49
(g70
g51
NtRp1161
(dp1162
g54
(dp1163
g74
g75
ssg63
g1157
sg56
(lp1164
S'http_cache_control'
p1165
asbag49
(g70
g51
NtRp1166
(dp1167
g54
(dp1168
g81
g82
ssg63
g1157
sg56
(lp1169
S':'
asbag49
(g70
g51
NtRp1170
(dp1171
g54
(dp1172
sg63
g1157
sg56
(lp1173
g49
(g50
g51
NtRp1174
(dp1175
g54
(dp1176
g62
I4
ssg63
g1170
sg56
(lp1177
S'max-age=0'
p1178
asbasbasbag49
(g65
g51
NtRp1179
(dp1180
g54
(dp1181
sg63
g931
sg56
(lp1182
g49
(g70
g51
NtRp1183
(dp1184
g54
(dp1185
g74
g75
ssg63
g1179
sg56
(lp1186
S'http_connection'
p1187
asbag49
(g70
g51
NtRp1188
(dp1189
g54
(dp1190
g81
g82
ssg63
g1179
sg56
(lp1191
S':'
asbag49
(g70
g51
NtRp1192
(dp1193
g54
(dp1194
sg63
g1179
sg56
(lp1195
g49
(g50
g51
NtRp1196
(dp1197
g54
(dp1198
g62
I4
ssg63
g1192
sg56
(lp1199
S'keep-alive'
p1200
asbasbasbag49
(g65
g51
NtRp1201
(dp1202
g54
(dp1203
sg63
g931
sg56
(lp1204
g49
(g70
g51
NtRp1205
(dp1206
g54
(dp1207
g74
g75
ssg63
g1201
sg56
(lp1208
S'http_cookie'
p1209
asbag49
(g70
g51
NtRp1210
(dp1211
g54
(dp1212
g81
g82
ssg63
g1201
sg56
(lp1213
S':'
asbag49
(g70
g51
NtRp1214
(dp1215
g54
(dp1216
sg63
g1201
sg56
(lp1217
g49
(g50
g51
NtRp1218
(dp1219
g54
(dp1220
g62
I4
ssg63
g1214
sg56
(lp1221
S'__utma=96992031.26429765.1325029743.1325029743.1326549329.2; __utmz=96992031.1325029743.1.1.utmcsr=(direct)|utmccn=(direct)|utmcmd=(none); session_id_klaas=127.0.0.1-22979940-8cc3-49bc-9f44-0623615d817e; session_id_welcome=127.0.0.1-8cf99883-574c-4d14-bcc4-fd47a1240754; session_id_parleyweb=127.0.0.1-2049810e-c086-402c-857f-06991c56216c; session_id_admin=127.0.0.1-b479623d-7b8d-4dea-ac90-2229c73d86b2'
p1222
asbasbasbag49
(g65
g51
NtRp1223
(dp1224
g54
(dp1225
sg63
g931
sg56
(lp1226
g49
(g70
g51
NtRp1227
(dp1228
g54
(dp1229
g74
g75
ssg63
g1223
sg56
(lp1230
S'http_host'
p1231
asbag49
(g70
g51
NtRp1232
(dp1233
g54
(dp1234
g81
g82
ssg63
g1223
sg56
(lp1235
S':'
asbag49
(g70
g51
NtRp1236
(dp1237
g54
(dp1238
sg63
g1223
sg56
(lp1239
g49
(g50
g51
NtRp1240
(dp1241
g54
(dp1242
g62
I4
ssg63
g1236
sg56
(lp1243
S'127.0.0.1:8000'
p1244
asbasbasbag49
(g65
g51
NtRp1245
(dp1246
g54
(dp1247
sg63
g931
sg56
(lp1248
g49
(g70
g51
NtRp1249
(dp1250
g54
(dp1251
g74
g75
ssg63
g1245
sg56
(lp1252
S'http_referer'
p1253
asbag49
(g70
g51
NtRp1254
(dp1255
g54
(dp1256
g81
g82
ssg63
g1245
sg56
(lp1257
S':'
asbag49
(g70
g51
NtRp1258
(dp1259
g54
(dp1260
sg63
g1245
sg56
(lp1261
g49
(g50
g51
NtRp1262
(dp1263
g54
(dp1264
g62
I4
ssg63
g1258
sg56
(lp1265
S'http://127.0.0.1:8000/parleyweb/admin/agregar_palabra'
p1266
asbasbasbag49
(g65
g51
NtRp1267
(dp1268
g54
(dp1269
sg63
g931
sg56
(lp1270
g49
(g70
g51
NtRp1271
(dp1272
g54
(dp1273
g74
g75
ssg63
g1267
sg56
(lp1274
S'http_user_agent'
p1275
asbag49
(g70
g51
NtRp1276
(dp1277
g54
(dp1278
g81
g82
ssg63
g1267
sg56
(lp1279
S':'
asbag49
(g70
g51
NtRp1280
(dp1281
g54
(dp1282
sg63
g1267
sg56
(lp1283
g49
(g50
g51
NtRp1284
(dp1285
g54
(dp1286
g62
I4
ssg63
g1280
sg56
(lp1287
S'Mozilla/5.0 (Windows NT 6.1; WOW64; rv:10.0.2) Gecko/20100101 Firefox/10.0.2'
p1288
asbasbasbag49
(g65
g51
NtRp1289
(dp1290
g54
(dp1291
sg63
g931
sg56
(lp1292
g49
(g70
g51
NtRp1293
(dp1294
g54
(dp1295
g74
g75
ssg63
g1289
sg56
(lp1296
S'is_jython'
p1297
asbag49
(g70
g51
NtRp1298
(dp1299
g54
(dp1300
g81
g82
ssg63
g1289
sg56
(lp1301
S':'
asbag49
(g70
g51
NtRp1302
(dp1303
g54
(dp1304
sg63
g1289
sg56
(lp1305
g49
(g50
g51
NtRp1306
(dp1307
g54
(dp1308
g62
I4
ssg63
g1302
sg56
(lp1309
g92
asbasbasbag49
(g65
g51
NtRp1310
(dp1311
g54
(dp1312
sg63
g931
sg56
(lp1313
g49
(g70
g51
NtRp1314
(dp1315
g54
(dp1316
g74
g75
ssg63
g1310
sg56
(lp1317
S'is_pypy'
p1318
asbag49
(g70
g51
NtRp1319
(dp1320
g54
(dp1321
g81
g82
ssg63
g1310
sg56
(lp1322
S':'
asbag49
(g70
g51
NtRp1323
(dp1324
g54
(dp1325
sg63
g1310
sg56
(lp1326
g49
(g50
g51
NtRp1327
(dp1328
g54
(dp1329
g62
I4
ssg63
g1323
sg56
(lp1330
g92
asbasbasbag49
(g65
g51
NtRp1331
(dp1332
g54
(dp1333
sg63
g931
sg56
(lp1334
g49
(g70
g51
NtRp1335
(dp1336
g54
(dp1337
g74
g75
ssg63
g1331
sg56
(lp1338
S'path_info'
p1339
asbag49
(g70
g51
NtRp1340
(dp1341
g54
(dp1342
g81
g82
ssg63
g1331
sg56
(lp1343
S':'
asbag49
(g70
g51
NtRp1344
(dp1345
g54
(dp1346
sg63
g1331
sg56
(lp1347
g49
(g50
g51
NtRp1348
(dp1349
g54
(dp1350
g62
I4
ssg63
g1344
sg56
(lp1351
S'/parleyweb/default/mostrar/82'
p1352
asbasbasbag49
(g65
g51
NtRp1353
(dp1354
g54
(dp1355
sg63
g931
sg56
(lp1356
g49
(g70
g51
NtRp1357
(dp1358
g54
(dp1359
g74
g75
ssg63
g1353
sg56
(lp1360
S'query_string'
p1361
asbag49
(g70
g51
NtRp1362
(dp1363
g54
(dp1364
g81
g82
ssg63
g1353
sg56
(lp1365
S':'
asbag49
(g70
g51
NtRp1366
(dp1367
g54
(dp1368
sg63
g1353
sg56
(lp1369
g49
(g50
g51
NtRp1370
(dp1371
g54
(dp1372
g62
I4
ssg63
g1366
sg56
(lp1373
S''
asbasbasbag49
(g65
g51
NtRp1374
(dp1375
g54
(dp1376
sg63
g931
sg56
(lp1377
g49
(g70
g51
NtRp1378
(dp1379
g54
(dp1380
g74
g75
ssg63
g1374
sg56
(lp1381
S'remote_addr'
p1382
asbag49
(g70
g51
NtRp1383
(dp1384
g54
(dp1385
g81
g82
ssg63
g1374
sg56
(lp1386
S':'
asbag49
(g70
g51
NtRp1387
(dp1388
g54
(dp1389
sg63
g1374
sg56
(lp1390
g49
(g50
g51
NtRp1391
(dp1392
g54
(dp1393
g62
I4
ssg63
g1387
sg56
(lp1394
g195
asbasbasbag49
(g65
g51
NtRp1395
(dp1396
g54
(dp1397
sg63
g931
sg56
(lp1398
g49
(g70
g51
NtRp1399
(dp1400
g54
(dp1401
g74
g75
ssg63
g1395
sg56
(lp1402
S'remote_port'
p1403
asbag49
(g70
g51
NtRp1404
(dp1405
g54
(dp1406
g81
g82
ssg63
g1395
sg56
(lp1407
S':'
asbag49
(g70
g51
NtRp1408
(dp1409
g54
(dp1410
sg63
g1395
sg56
(lp1411
g49
(g50
g51
NtRp1412
(dp1413
g54
(dp1414
g62
I4
ssg63
g1408
sg56
(lp1415
S'50616'
p1416
asbasbasbag49
(g65
g51
NtRp1417
(dp1418
g54
(dp1419
sg63
g931
sg56
(lp1420
g49
(g70
g51
NtRp1421
(dp1422
g54
(dp1423
g74
g75
ssg63
g1417
sg56
(lp1424
S'request_method'
p1425
asbag49
(g70
g51
NtRp1426
(dp1427
g54
(dp1428
g81
g82
ssg63
g1417
sg56
(lp1429
S':'
asbag49
(g70
g51
NtRp1430
(dp1431
g54
(dp1432
sg63
g1417
sg56
(lp1433
g49
(g50
g51
NtRp1434
(dp1435
g54
(dp1436
g62
I4
ssg63
g1430
sg56
(lp1437
S'GET'
p1438
asbasbasbag49
(g65
g51
NtRp1439
(dp1440
g54
(dp1441
sg63
g931
sg56
(lp1442
g49
(g70
g51
NtRp1443
(dp1444
g54
(dp1445
g74
g75
ssg63
g1439
sg56
(lp1446
S'script_name'
p1447
asbag49
(g70
g51
NtRp1448
(dp1449
g54
(dp1450
g81
g82
ssg63
g1439
sg56
(lp1451
S':'
asbag49
(g70
g51
NtRp1452
(dp1453
g54
(dp1454
sg63
g1439
sg56
(lp1455
g49
(g50
g51
NtRp1456
(dp1457
g54
(dp1458
g62
I4
ssg63
g1452
sg56
(lp1459
S''
asbasbasbag49
(g65
g51
NtRp1460
(dp1461
g54
(dp1462
sg63
g931
sg56
(lp1463
g49
(g70
g51
NtRp1464
(dp1465
g54
(dp1466
g74
g75
ssg63
g1460
sg56
(lp1467
S'server_name'
p1468
asbag49
(g70
g51
NtRp1469
(dp1470
g54
(dp1471
g81
g82
ssg63
g1460
sg56
(lp1472
S':'
asbag49
(g70
g51
NtRp1473
(dp1474
g54
(dp1475
sg63
g1460
sg56
(lp1476
g49
(g50
g51
NtRp1477
(dp1478
g54
(dp1479
g62
I4
ssg63
g1473
sg56
(lp1480
S'craxsnet-PC'
p1481
asbasbasbag49
(g65
g51
NtRp1482
(dp1483
g54
(dp1484
sg63
g931
sg56
(lp1485
g49
(g70
g51
NtRp1486
(dp1487
g54
(dp1488
g74
g75
ssg63
g1482
sg56
(lp1489
S'server_port'
p1490
asbag49
(g70
g51
NtRp1491
(dp1492
g54
(dp1493
g81
g82
ssg63
g1482
sg56
(lp1494
S':'
asbag49
(g70
g51
NtRp1495
(dp1496
g54
(dp1497
sg63
g1482
sg56
(lp1498
g49
(g50
g51
NtRp1499
(dp1500
g54
(dp1501
g62
I4
ssg63
g1495
sg56
(lp1502
S'8000'
p1503
asbasbasbag49
(g65
g51
NtRp1504
(dp1505
g54
(dp1506
sg63
g931
sg56
(lp1507
g49
(g70
g51
NtRp1508
(dp1509
g54
(dp1510
g74
g75
ssg63
g1504
sg56
(lp1511
S'server_protocol'
p1512
asbag49
(g70
g51
NtRp1513
(dp1514
g54
(dp1515
g81
g82
ssg63
g1504
sg56
(lp1516
S':'
asbag49
(g70
g51
NtRp1517
(dp1518
g54
(dp1519
sg63
g1504
sg56
(lp1520
g49
(g50
g51
NtRp1521
(dp1522
g54
(dp1523
g62
I4
ssg63
g1517
sg56
(lp1524
S'HTTP/1.1'
p1525
asbasbasbag49
(g65
g51
NtRp1526
(dp1527
g54
(dp1528
sg63
g931
sg56
(lp1529
g49
(g70
g51
NtRp1530
(dp1531
g54
(dp1532
g74
g75
ssg63
g1526
sg56
(lp1533
S'server_software'
p1534
asbag49
(g70
g51
NtRp1535
(dp1536
g54
(dp1537
g81
g82
ssg63
g1526
sg56
(lp1538
S':'
asbag49
(g70
g51
NtRp1539
(dp1540
g54
(dp1541
sg63
g1526
sg56
(lp1542
g49
(g50
g51
NtRp1543
(dp1544
g54
(dp1545
g62
I4
ssg63
g1539
sg56
(lp1546
S'Rocket 1.2.4'
p1547
asbasbasbag49
(g65
g51
NtRp1548
(dp1549
g54
(dp1550
sg63
g931
sg56
(lp1551
g49
(g70
g51
NtRp1552
(dp1553
g54
(dp1554
g74
g75
ssg63
g1548
sg56
(lp1555
S'web2py_crontype'
p1556
asbag49
(g70
g51
NtRp1557
(dp1558
g54
(dp1559
g81
g82
ssg63
g1548
sg56
(lp1560
S':'
asbag49
(g70
g51
NtRp1561
(dp1562
g54
(dp1563
sg63
g1548
sg56
(lp1564
g49
(g50
g51
NtRp1565
(dp1566
g54
(dp1567
g62
I4
ssg63
g1561
sg56
(lp1568
S'hard'
p1569
asbasbasbag49
(g65
g51
NtRp1570
(dp1571
g54
(dp1572
sg63
g931
sg56
(lp1573
g49
(g70
g51
NtRp1574
(dp1575
g54
(dp1576
g74
g75
ssg63
g1570
sg56
(lp1577
S'web2py_path'
p1578
asbag49
(g70
g51
NtRp1579
(dp1580
g54
(dp1581
g81
g82
ssg63
g1570
sg56
(lp1582
S':'
asbag49
(g70
g51
NtRp1583
(dp1584
g54
(dp1585
sg63
g1570
sg56
(lp1586
g49
(g50
g51
NtRp1587
(dp1588
g54
(dp1589
g62
I4
ssg63
g1583
sg56
(lp1590
g978
asbasbasbag49
(g65
g51
NtRp1591
(dp1592
g54
(dp1593
sg63
g931
sg56
(lp1594
g49
(g70
g51
NtRp1595
(dp1596
g54
(dp1597
g74
g75
ssg63
g1591
sg56
(lp1598
S'web2py_version'
p1599
asbag49
(g70
g51
NtRp1600
(dp1601
g54
(dp1602
g81
g82
ssg63
g1591
sg56
(lp1603
S':'
asbag49
(g70
g51
NtRp1604
(dp1605
g54
(dp1606
sg63
g1591
sg56
(lp1607
g49
(g50
g51
NtRp1608
(dp1609
g54
(dp1610
g62
I4
ssg63
g1604
sg56
(lp1611
g49
(g58
g51
NtRp1612
(dp1613
g54
(dp1614
g62
I3
ssg63
Nsg56
(lp1615
g49
(g65
g51
NtRp1616
(dp1617
g54
(dp1618
sg63
g1612
sg56
(lp1619
g49
(g70
g51
NtRp1620
(dp1621
g54
(dp1622
sg63
g1616
sg56
(lp1623
g49
(g50
g51
NtRp1624
(dp1625
g54
(dp1626
g62
I3
ssg63
g1620
sg56
(lp1627
S'1'
asbasbasbag49
(g65
g51
NtRp1628
(dp1629
g54
(dp1630
sg63
g1612
sg56
(lp1631
g49
(g70
g51
NtRp1632
(dp1633
g54
(dp1634
sg63
g1628
sg56
(lp1635
g49
(g50
g51
NtRp1636
(dp1637
g54
(dp1638
g62
I3
ssg63
g1632
sg56
(lp1639
S'99'
p1640
asbasbasbag49
(g65
g51
NtRp1641
(dp1642
g54
(dp1643
sg63
g1612
sg56
(lp1644
g49
(g70
g51
NtRp1645
(dp1646
g54
(dp1647
sg63
g1641
sg56
(lp1648
g49
(g50
g51
NtRp1649
(dp1650
g54
(dp1651
g62
I3
ssg63
g1645
sg56
(lp1652
S'7'
asbasbasbag49
(g65
g51
NtRp1653
(dp1654
g54
(dp1655
sg63
g1612
sg56
(lp1656
g49
(g70
g51
NtRp1657
(dp1658
g54
(dp1659
sg63
g1653
sg56
(lp1660
g49
(g50
g51
NtRp1661
(dp1662
g54
(dp1663
g62
I3
ssg63
g1657
sg56
(lp1664
S'datetime.datetime(2012, 3, 4, 22, 12, 8)'
p1665
asbasbasbag49
(g65
g51
NtRp1666
(dp1667
g54
(dp1668
sg63
g1612
sg56
(lp1669
g49
(g70
g51
NtRp1670
(dp1671
g54
(dp1672
sg63
g1666
sg56
(lp1673
g49
(g50
g51
NtRp1674
(dp1675
g54
(dp1676
g62
I3
ssg63
g1670
sg56
(lp1677
S'stable'
p1678
asbasbasbasbasbasbasbag49
(g65
g51
NtRp1679
(dp1680
g54
(dp1681
sg63
g931
sg56
(lp1682
g49
(g70
g51
NtRp1683
(dp1684
g54
(dp1685
g74
g75
ssg63
g1679
sg56
(lp1686
S'wsgi_errors'
p1687
asbag49
(g70
g51
NtRp1688
(dp1689
g54
(dp1690
g81
g82
ssg63
g1679
sg56
(lp1691
S':'
asbag49
(g70
g51
NtRp1692
(dp1693
g54
(dp1694
sg63
g1679
sg56
(lp1695
g49
(g50
g51
NtRp1696
(dp1697
g54
(dp1698
g62
I4
ssg63
g1692
sg56
(lp1699
S"<open file '<stderr>', mode 'w' at 0x004200B0>"
p1700
asbasbasbag49
(g65
g51
NtRp1701
(dp1702
g54
(dp1703
sg63
g931
sg56
(lp1704
g49
(g70
g51
NtRp1705
(dp1706
g54
(dp1707
g74
g75
ssg63
g1701
sg56
(lp1708
S'wsgi_file_wrapper'
p1709
asbag49
(g70
g51
NtRp1710
(dp1711
g54
(dp1712
g81
g82
ssg63
g1701
sg56
(lp1713
S':'
asbag49
(g70
g51
NtRp1714
(dp1715
g54
(dp1716
sg63
g1701
sg56
(lp1717
g49
(g50
g51
NtRp1718
(dp1719
g54
(dp1720
g62
I4
ssg63
g1714
sg56
(lp1721
S'<class wsgiref.util.FileWrapper at 0x03115390>'
p1722
asbasbasbag49
(g65
g51
NtRp1723
(dp1724
g54
(dp1725
sg63
g931
sg56
(lp1726
g49
(g70
g51
NtRp1727
(dp1728
g54
(dp1729
g74
g75
ssg63
g1723
sg56
(lp1730
S'wsgi_input'
p1731
asbag49
(g70
g51
NtRp1732
(dp1733
g54
(dp1734
g81
g82
ssg63
g1723
sg56
(lp1735
S':'
asbag49
(g70
g51
NtRp1736
(dp1737
g54
(dp1738
sg63
g1723
sg56
(lp1739
g49
(g50
g51
NtRp1740
(dp1741
g54
(dp1742
g62
I4
ssg63
g1736
sg56
(lp1743
S'<socket._fileobject object at 0x074B14B0>'
p1744
asbasbasbag49
(g65
g51
NtRp1745
(dp1746
g54
(dp1747
sg63
g931
sg56
(lp1748
g49
(g70
g51
NtRp1749
(dp1750
g54
(dp1751
g74
g75
ssg63
g1745
sg56
(lp1752
S'wsgi_multiprocess'
p1753
asbag49
(g70
g51
NtRp1754
(dp1755
g54
(dp1756
g81
g82
ssg63
g1745
sg56
(lp1757
S':'
asbag49
(g70
g51
NtRp1758
(dp1759
g54
(dp1760
sg63
g1745
sg56
(lp1761
g49
(g50
g51
NtRp1762
(dp1763
g54
(dp1764
g62
I4
ssg63
g1758
sg56
(lp1765
g92
asbasbasbag49
(g65
g51
NtRp1766
(dp1767
g54
(dp1768
sg63
g931
sg56
(lp1769
g49
(g70
g51
NtRp1770
(dp1771
g54
(dp1772
g74
g75
ssg63
g1766
sg56
(lp1773
S'wsgi_multithread'
p1774
asbag49
(g70
g51
NtRp1775
(dp1776
g54
(dp1777
g81
g82
ssg63
g1766
sg56
(lp1778
S':'
asbag49
(g70
g51
NtRp1779
(dp1780
g54
(dp1781
sg63
g1766
sg56
(lp1782
g49
(g50
g51
NtRp1783
(dp1784
g54
(dp1785
g62
I4
ssg63
g1779
sg56
(lp1786
S'True'
p1787
asbasbasbag49
(g65
g51
NtRp1788
(dp1789
g54
(dp1790
sg63
g931
sg56
(lp1791
g49
(g70
g51
NtRp1792
(dp1793
g54
(dp1794
g74
g75
ssg63
g1788
sg56
(lp1795
S'wsgi_run_once'
p1796
asbag49
(g70
g51
NtRp1797
(dp1798
g54
(dp1799
g81
g82
ssg63
g1788
sg56
(lp1800
S':'
asbag49
(g70
g51
NtRp1801
(dp1802
g54
(dp1803
sg63
g1788
sg56
(lp1804
g49
(g50
g51
NtRp1805
(dp1806
g54
(dp1807
g62
I4
ssg63
g1801
sg56
(lp1808
g92
asbasbasbag49
(g65
g51
NtRp1809
(dp1810
g54
(dp1811
sg63
g931
sg56
(lp1812
g49
(g70
g51
NtRp1813
(dp1814
g54
(dp1815
g74
g75
ssg63
g1809
sg56
(lp1816
S'wsgi_url_scheme'
p1817
asbag49
(g70
g51
NtRp1818
(dp1819
g54
(dp1820
g81
g82
ssg63
g1809
sg56
(lp1821
S':'
asbag49
(g70
g51
NtRp1822
(dp1823
g54
(dp1824
sg63
g1809
sg56
(lp1825
g49
(g50
g51
NtRp1826
(dp1827
g54
(dp1828
g62
I4
ssg63
g1822
sg56
(lp1829
S'http'
p1830
asbasbasbag49
(g65
g51
NtRp1831
(dp1832
g54
(dp1833
sg63
g931
sg56
(lp1834
g49
(g70
g51
NtRp1835
(dp1836
g54
(dp1837
g74
g75
ssg63
g1831
sg56
(lp1838
S'wsgi_version'
p1839
asbag49
(g70
g51
NtRp1840
(dp1841
g54
(dp1842
g81
g82
ssg63
g1831
sg56
(lp1843
S':'
asbag49
(g70
g51
NtRp1844
(dp1845
g54
(dp1846
sg63
g1831
sg56
(lp1847
g49
(g50
g51
NtRp1848
(dp1849
g54
(dp1850
g62
I4
ssg63
g1844
sg56
(lp1851
g49
(g58
g51
NtRp1852
(dp1853
g54
(dp1854
g62
I3
ssg63
Nsg56
(lp1855
g49
(g65
g51
NtRp1856
(dp1857
g54
(dp1858
sg63
g1852
sg56
(lp1859
g49
(g70
g51
NtRp1860
(dp1861
g54
(dp1862
sg63
g1856
sg56
(lp1863
g49
(g50
g51
NtRp1864
(dp1865
g54
(dp1866
g62
I3
ssg63
g1860
sg56
(lp1867
S'1'
asbasbasbag49
(g65
g51
NtRp1868
(dp1869
g54
(dp1870
sg63
g1852
sg56
(lp1871
g49
(g70
g51
NtRp1872
(dp1873
g54
(dp1874
sg63
g1868
sg56
(lp1875
g49
(g50
g51
NtRp1876
(dp1877
g54
(dp1878
g62
I3
ssg63
g1872
sg56
(lp1879
S'0'
asbasbasbasbasbasbasbasbasbasbasbag49
(g65
g51
NtRp1880
(dp1881
g54
(dp1882
sg63
g59
sg56
(lp1883
g49
(g70
g51
NtRp1884
(dp1885
g54
(dp1886
g74
g75
ssg63
g1880
sg56
(lp1887
S'extension'
p1888
asbag49
(g70
g51
NtRp1889
(dp1890
g54
(dp1891
g81
g82
ssg63
g1880
sg56
(lp1892
S':'
asbag49
(g70
g51
NtRp1893
(dp1894
g54
(dp1895
sg63
g1880
sg56
(lp1896
g49
(g50
g51
NtRp1897
(dp1898
g54
(dp1899
g62
I5
ssg63
g1893
sg56
(lp1900
S'html'
p1901
asbasbasbag49
(g65
g51
NtRp1902
(dp1903
g54
(dp1904
sg63
g59
sg56
(lp1905
g49
(g70
g51
NtRp1906
(dp1907
g54
(dp1908
g74
g75
ssg63
g1902
sg56
(lp1909
S'folder'
p1910
asbag49
(g70
g51
NtRp1911
(dp1912
g54
(dp1913
g81
g82
ssg63
g1902
sg56
(lp1914
S':'
asbag49
(g70
g51
NtRp1915
(dp1916
g54
(dp1917
sg63
g1902
sg56
(lp1918
g49
(g50
g51
NtRp1919
(dp1920
g54
(dp1921
g62
I5
ssg63
g1915
sg56
(lp1922
S'D:\\Dise\xf1o Web\\Proyectos\\Parleyweb\\web2py\\applications\\parleyweb\\'
p1923
asbasbasbag49
(g65
g51
NtRp1924
(dp1925
g54
(dp1926
sg63
g59
sg56
(lp1927
g49
(g70
g51
NtRp1928
(dp1929
g54
(dp1930
g74
g75
ssg63
g1924
sg56
(lp1931
S'function'
p1932
asbag49
(g70
g51
NtRp1933
(dp1934
g54
(dp1935
g81
g82
ssg63
g1924
sg56
(lp1936
S':'
asbag49
(g70
g51
NtRp1937
(dp1938
g54
(dp1939
sg63
g1924
sg56
(lp1940
g49
(g50
g51
NtRp1941
(dp1942
g54
(dp1943
g62
I5
ssg63
g1937
sg56
(lp1944
S'mostrar'
p1945
asbasbasbag49
(g65
g51
NtRp1946
(dp1947
g54
(dp1948
sg63
g59
sg56
(lp1949
g49
(g70
g51
NtRp1950
(dp1951
g54
(dp1952
g74
g75
ssg63
g1946
sg56
(lp1953
S'get_vars'
p1954
asbag49
(g70
g51
NtRp1955
(dp1956
g54
(dp1957
g81
g82
ssg63
g1946
sg56
(lp1958
S':'
asbag49
(g70
g51
NtRp1959
(dp1960
g54
(dp1961
sg63
g1946
sg56
(lp1962
g49
(g50
g51
NtRp1963
(dp1964
g54
(dp1965
g62
I5
ssg63
g1959
sg56
(lp1966
g49
(g58
g51
NtRp1967
(dp1968
g54
(dp1969
g62
I4
ssg63
Nsg56
(lp1970
sbasbasbasbag49
(g65
g51
NtRp1971
(dp1972
g54
(dp1973
sg63
g59
sg56
(lp1974
g49
(g70
g51
NtRp1975
(dp1976
g54
(dp1977
g74
g75
ssg63
g1971
sg56
(lp1978
S'global_settings'
p1979
asbag49
(g70
g51
NtRp1980
(dp1981
g54
(dp1982
g81
g82
ssg63
g1971
sg56
(lp1983
S':'
asbag49
(g70
g51
NtRp1984
(dp1985
g54
(dp1986
sg63
g1971
sg56
(lp1987
g49
(g50
g51
NtRp1988
(dp1989
g54
(dp1990
g62
I5
ssg63
g1984
sg56
(lp1991
g49
(g58
g51
NtRp1992
(dp1993
g54
(dp1994
g62
I4
ssg63
Nsg56
(lp1995
g49
(g65
g51
NtRp1996
(dp1997
g54
(dp1998
sg63
g1992
sg56
(lp1999
g49
(g70
g51
NtRp2000
(dp2001
g54
(dp2002
g74
g75
ssg63
g1996
sg56
(lp2003
g943
asbag49
(g70
g51
NtRp2004
(dp2005
g54
(dp2006
g81
g82
ssg63
g1996
sg56
(lp2007
S':'
asbag49
(g70
g51
NtRp2008
(dp2009
g54
(dp2010
sg63
g1996
sg56
(lp2011
g49
(g50
g51
NtRp2012
(dp2013
g54
(dp2014
g62
I4
ssg63
g2008
sg56
(lp2015
S"set(['D:\\\\Dise\\xf1o Web\\\\Proyectos\\\\Parleyweb\\\\web2py\\\\applications\\\\parleyweb\\\\', 'D:\\\\Dise\\xf1o Web\\\\Proyectos\\\\Parleyweb\\\\web2py\\\\applications\\\\welcome\\\\', 'D:\\\\Dise\\xf1o Web\\\\Proyectos\\\\Parleyweb\\\\web2py\\\\applications\\\\admin\\\\'])"
p2016
asbasbasbag49
(g65
g51
NtRp2017
(dp2018
g54
(dp2019
sg63
g1992
sg56
(lp2020
g49
(g70
g51
NtRp2021
(dp2022
g54
(dp2023
g74
g75
ssg63
g2017
sg56
(lp2024
g965
asbag49
(g70
g51
NtRp2025
(dp2026
g54
(dp2027
g81
g82
ssg63
g2017
sg56
(lp2028
S':'
asbag49
(g70
g51
NtRp2029
(dp2030
g54
(dp2031
sg63
g2017
sg56
(lp2032
g49
(g50
g51
NtRp2033
(dp2034
g54
(dp2035
g62
I4
ssg63
g2029
sg56
(lp2036
g978
asbasbasbag49
(g65
g51
NtRp2037
(dp2038
g54
(dp2039
sg63
g1992
sg56
(lp2040
g49
(g70
g51
NtRp2041
(dp2042
g54
(dp2043
g74
g75
ssg63
g2037
sg56
(lp2044
g987
asbag49
(g70
g51
NtRp2045
(dp2046
g54
(dp2047
g81
g82
ssg63
g2037
sg56
(lp2048
S':'
asbag49
(g70
g51
NtRp2049
(dp2050
g54
(dp2051
sg63
g2037
sg56
(lp2052
g49
(g50
g51
NtRp2053
(dp2054
g54
(dp2055
g62
I4
ssg63
g2049
sg56
(lp2056
g49
(g58
g51
NtRp2057
(dp2058
g54
(dp2059
g62
I3
ssg63
Nsg56
(lp2060
sbasbasbasbag49
(g65
g51
NtRp2061
(dp2062
g54
(dp2063
sg63
g1992
sg56
(lp2064
g49
(g70
g51
NtRp2065
(dp2066
g54
(dp2067
g74
g75
ssg63
g2061
sg56
(lp2068
g1012
asbag49
(g70
g51
NtRp2069
(dp2070
g54
(dp2071
g81
g82
ssg63
g2061
sg56
(lp2072
S':'
asbag49
(g70
g51
NtRp2073
(dp2074
g54
(dp2075
sg63
g2061
sg56
(lp2076
g49
(g50
g51
NtRp2077
(dp2078
g54
(dp2079
g62
I4
ssg63
g2073
sg56
(lp2080
S"<Values at 0x331ff30: {'verbose': False, 'ip': '127.0.0.1', 'shutdown_timeout': 5, 'taskbar': False, 'nocron': False, 'pid_filename': 'httpserver.pid', 'maxthreads': None, 'softcron': False, 'server_name': 'craxsnet-PC', 'bpython': False, 'nogui': False, 'port': 8000, 'extcron': False, 'debuglevel': 30, 'test': None, 'folder': 'D:\\\\Dise\\xf1o Web\\\\Proyectos\\\\Parleyweb\\\\web2py', 'config': '', 'import_models': False, 'winservice': '', 'shell': None, 'run': '', 'log_filename': 'httpserver.log', 'args': [''], 'socket_timeout': 5, 'ssl_ca_certificate': None, 'scheduler': None, 'profiler_filename': None, 'ssl_private_key': '', 'password': '<ask>', 'request_queue_size': 5, 'ssl_certificate': '', 'cronjob': False, 'numthreads': None, 'quiet': False, 'interfaces': None, 'minthreads': None, 'timeout': 10, 'plain': False, 'nobanner': False}>"
p2081
asbasbasbag49
(g65
g51
NtRp2082
(dp2083
g54
(dp2084
sg63
g1992
sg56
(lp2085
g49
(g70
g51
NtRp2086
(dp2087
g54
(dp2088
g74
g75
ssg63
g2082
sg56
(lp2089
g1034
asbag49
(g70
g51
NtRp2090
(dp2091
g54
(dp2092
g81
g82
ssg63
g2082
sg56
(lp2093
S':'
asbag49
(g70
g51
NtRp2094
(dp2095
g54
(dp2096
sg63
g2082
sg56
(lp2097
g49
(g50
g51
NtRp2098
(dp2099
g54
(dp2100
g62
I4
ssg63
g2094
sg56
(lp2101
S'set([])'
p2102
asbasbasbag49
(g65
g51
NtRp2103
(dp2104
g54
(dp2105
sg63
g1992
sg56
(lp2106
g49
(g70
g51
NtRp2107
(dp2108
g54
(dp2109
g74
g75
ssg63
g2103
sg56
(lp2110
g1056
asbag49
(g70
g51
NtRp2111
(dp2112
g54
(dp2113
g81
g82
ssg63
g2103
sg56
(lp2114
S':'
asbag49
(g70
g51
NtRp2115
(dp2116
g54
(dp2117
sg63
g2103
sg56
(lp2118
g49
(g50
g51
NtRp2119
(dp2120
g54
(dp2121
g62
I4
ssg63
g2115
sg56
(lp2122
g92
asbasbasbag49
(g65
g51
NtRp2123
(dp2124
g54
(dp2125
sg63
g1992
sg56
(lp2126
g49
(g70
g51
NtRp2127
(dp2128
g54
(dp2129
g74
g75
ssg63
g2123
sg56
(lp2130
g1077
asbag49
(g70
g51
NtRp2131
(dp2132
g54
(dp2133
g81
g82
ssg63
g2123
sg56
(lp2134
S':'
asbag49
(g70
g51
NtRp2135
(dp2136
g54
(dp2137
sg63
g2123
sg56
(lp2138
g49
(g50
g51
NtRp2139
(dp2140
g54
(dp2141
g62
I4
ssg63
g2135
sg56
(lp2142
g1090
asbasbasbag49
(g65
g51
NtRp2143
(dp2144
g54
(dp2145
sg63
g1992
sg56
(lp2146
g49
(g70
g51
NtRp2147
(dp2148
g54
(dp2149
g74
g75
ssg63
g2143
sg56
(lp2150
g1297
asbag49
(g70
g51
NtRp2151
(dp2152
g54
(dp2153
g81
g82
ssg63
g2143
sg56
(lp2154
S':'
asbag49
(g70
g51
NtRp2155
(dp2156
g54
(dp2157
sg63
g2143
sg56
(lp2158
g49
(g50
g51
NtRp2159
(dp2160
g54
(dp2161
g62
I4
ssg63
g2155
sg56
(lp2162
g92
asbasbasbag49
(g65
g51
NtRp2163
(dp2164
g54
(dp2165
sg63
g1992
sg56
(lp2166
g49
(g70
g51
NtRp2167
(dp2168
g54
(dp2169
g74
g75
ssg63
g2163
sg56
(lp2170
g1318
asbag49
(g70
g51
NtRp2171
(dp2172
g54
(dp2173
g81
g82
ssg63
g2163
sg56
(lp2174
S':'
asbag49
(g70
g51
NtRp2175
(dp2176
g54
(dp2177
sg63
g2163
sg56
(lp2178
g49
(g50
g51
NtRp2179
(dp2180
g54
(dp2181
g62
I4
ssg63
g2175
sg56
(lp2182
g92
asbasbasbag49
(g65
g51
NtRp2183
(dp2184
g54
(dp2185
sg63
g1992
sg56
(lp2186
g49
(g70
g51
NtRp2187
(dp2188
g54
(dp2189
g74
g75
ssg63
g2183
sg56
(lp2190
g1556
asbag49
(g70
g51
NtRp2191
(dp2192
g54
(dp2193
g81
g82
ssg63
g2183
sg56
(lp2194
S':'
asbag49
(g70
g51
NtRp2195
(dp2196
g54
(dp2197
sg63
g2183
sg56
(lp2198
g49
(g50
g51
NtRp2199
(dp2200
g54
(dp2201
g62
I4
ssg63
g2195
sg56
(lp2202
g1569
asbasbasbag49
(g65
g51
NtRp2203
(dp2204
g54
(dp2205
sg63
g1992
sg56
(lp2206
g49
(g70
g51
NtRp2207
(dp2208
g54
(dp2209
g74
g75
ssg63
g2203
sg56
(lp2210
g1599
asbag49
(g70
g51
NtRp2211
(dp2212
g54
(dp2213
g81
g82
ssg63
g2203
sg56
(lp2214
S':'
asbag49
(g70
g51
NtRp2215
(dp2216
g54
(dp2217
sg63
g2203
sg56
(lp2218
g49
(g50
g51
NtRp2219
(dp2220
g54
(dp2221
g62
I4
ssg63
g2215
sg56
(lp2222
g49
(g58
g51
NtRp2223
(dp2224
g54
(dp2225
g62
I3
ssg63
Nsg56
(lp2226
g49
(g65
g51
NtRp2227
(dp2228
g54
(dp2229
sg63
g2223
sg56
(lp2230
g49
(g70
g51
NtRp2231
(dp2232
g54
(dp2233
sg63
g2227
sg56
(lp2234
g49
(g50
g51
NtRp2235
(dp2236
g54
(dp2237
g62
I3
ssg63
g2231
sg56
(lp2238
S'1'
asbasbasbag49
(g65
g51
NtRp2239
(dp2240
g54
(dp2241
sg63
g2223
sg56
(lp2242
g49
(g70
g51
NtRp2243
(dp2244
g54
(dp2245
sg63
g2239
sg56
(lp2246
g49
(g50
g51
NtRp2247
(dp2248
g54
(dp2249
g62
I3
ssg63
g2243
sg56
(lp2250
S'99'
p2251
asbasbasbag49
(g65
g51
NtRp2252
(dp2253
g54
(dp2254
sg63
g2223
sg56
(lp2255
g49
(g70
g51
NtRp2256
(dp2257
g54
(dp2258
sg63
g2252
sg56
(lp2259
g49
(g50
g51
NtRp2260
(dp2261
g54
(dp2262
g62
I3
ssg63
g2256
sg56
(lp2263
S'7'
asbasbasbag49
(g65
g51
NtRp2264
(dp2265
g54
(dp2266
sg63
g2223
sg56
(lp2267
g49
(g70
g51
NtRp2268
(dp2269
g54
(dp2270
sg63
g2264
sg56
(lp2271
g49
(g50
g51
NtRp2272
(dp2273
g54
(dp2274
g62
I3
ssg63
g2268
sg56
(lp2275
S'datetime.datetime(2012, 3, 4, 22, 12, 8)'
p2276
asbasbasbag49
(g65
g51
NtRp2277
(dp2278
g54
(dp2279
sg63
g2223
sg56
(lp2280
g49
(g70
g51
NtRp2281
(dp2282
g54
(dp2283
sg63
g2277
sg56
(lp2284
g49
(g50
g51
NtRp2285
(dp2286
g54
(dp2287
g62
I3
ssg63
g2281
sg56
(lp2288
g1678
asbasbasbasbasbasbasbasbasbasbasbag49
(g65
g51
NtRp2289
(dp2290
g54
(dp2291
sg63
g59
sg56
(lp2292
g49
(g70
g51
NtRp2293
(dp2294
g54
(dp2295
g74
g75
ssg63
g2289
sg56
(lp2296
S'is_https'
p2297
asbag49
(g70
g51
NtRp2298
(dp2299
g54
(dp2300
g81
g82
ssg63
g2289
sg56
(lp2301
S':'
asbag49
(g70
g51
NtRp2302
(dp2303
g54
(dp2304
sg63
g2289
sg56
(lp2305
g49
(g50
g51
NtRp2306
(dp2307
g54
(dp2308
g62
I5
ssg63
g2302
sg56
(lp2309
g92
asbasbasbag49
(g65
g51
NtRp2310
(dp2311
g54
(dp2312
sg63
g59
sg56
(lp2313
g49
(g70
g51
NtRp2314
(dp2315
g54
(dp2316
g74
g75
ssg63
g2310
sg56
(lp2317
S'is_local'
p2318
asbag49
(g70
g51
NtRp2319
(dp2320
g54
(dp2321
g81
g82
ssg63
g2310
sg56
(lp2322
S':'
asbag49
(g70
g51
NtRp2323
(dp2324
g54
(dp2325
sg63
g2310
sg56
(lp2326
g49
(g50
g51
NtRp2327
(dp2328
g54
(dp2329
g62
I5
ssg63
g2323
sg56
(lp2330
g1787
asbasbasbag49
(g65
g51
NtRp2331
(dp2332
g54
(dp2333
sg63
g59
sg56
(lp2334
g49
(g70
g51
NtRp2335
(dp2336
g54
(dp2337
g74
g75
ssg63
g2331
sg56
(lp2338
S'is_restful'
p2339
asbag49
(g70
g51
NtRp2340
(dp2341
g54
(dp2342
g81
g82
ssg63
g2331
sg56
(lp2343
S':'
asbag49
(g70
g51
NtRp2344
(dp2345
g54
(dp2346
sg63
g2331
sg56
(lp2347
g49
(g50
g51
NtRp2348
(dp2349
g54
(dp2350
g62
I5
ssg63
g2344
sg56
(lp2351
g92
asbasbasbag49
(g65
g51
NtRp2352
(dp2353
g54
(dp2354
sg63
g59
sg56
(lp2355
g49
(g70
g51
NtRp2356
(dp2357
g54
(dp2358
g74
g75
ssg63
g2352
sg56
(lp2359
S'now'
p2360
asbag49
(g70
g51
NtRp2361
(dp2362
g54
(dp2363
g81
g82
ssg63
g2352
sg56
(lp2364
S':'
asbag49
(g70
g51
NtRp2365
(dp2366
g54
(dp2367
sg63
g2352
sg56
(lp2368
g49
(g50
g51
NtRp2369
(dp2370
g54
(dp2371
g62
I5
ssg63
g2365
sg56
(lp2372
S'datetime.datetime(2012, 3, 12, 14, 51, 9, 563000)'
p2373
asbasbasbag49
(g65
g51
NtRp2374
(dp2375
g54
(dp2376
sg63
g59
sg56
(lp2377
g49
(g70
g51
NtRp2378
(dp2379
g54
(dp2380
g74
g75
ssg63
g2374
sg56
(lp2381
S'post_vars'
p2382
asbag49
(g70
g51
NtRp2383
(dp2384
g54
(dp2385
g81
g82
ssg63
g2374
sg56
(lp2386
S':'
asbag49
(g70
g51
NtRp2387
(dp2388
g54
(dp2389
sg63
g2374
sg56
(lp2390
g49
(g50
g51
NtRp2391
(dp2392
g54
(dp2393
g62
I5
ssg63
g2387
sg56
(lp2394
g49
(g58
g51
NtRp2395
(dp2396
g54
(dp2397
g62
I4
ssg63
Nsg56
(lp2398
sbasbasbasbag49
(g65
g51
NtRp2399
(dp2400
g54
(dp2401
sg63
g59
sg56
(lp2402
g49
(g70
g51
NtRp2403
(dp2404
g54
(dp2405
g74
g75
ssg63
g2399
sg56
(lp2406
S'raw_args'
p2407
asbag49
(g70
g51
NtRp2408
(dp2409
g54
(dp2410
g81
g82
ssg63
g2399
sg56
(lp2411
S':'
asbag49
(g70
g51
NtRp2412
(dp2413
g54
(dp2414
sg63
g2399
sg56
(lp2415
g49
(g50
g51
NtRp2416
(dp2417
g54
(dp2418
g62
I5
ssg63
g2412
sg56
(lp2419
S'82'
p2420
asbasbasbag49
(g65
g51
NtRp2421
(dp2422
g54
(dp2423
sg63
g59
sg56
(lp2424
g49
(g70
g51
NtRp2425
(dp2426
g54
(dp2427
g74
g75
ssg63
g2421
sg56
(lp2428
S'url'
p2429
asbag49
(g70
g51
NtRp2430
(dp2431
g54
(dp2432
g81
g82
ssg63
g2421
sg56
(lp2433
S':'
asbag49
(g70
g51
NtRp2434
(dp2435
g54
(dp2436
sg63
g2421
sg56
(lp2437
g49
(g50
g51
NtRp2438
(dp2439
g54
(dp2440
g62
I5
ssg63
g2434
sg56
(lp2441
S'/parleyweb/default/mostrar/82'
p2442
asbasbasbag49
(g65
g51
NtRp2443
(dp2444
g54
(dp2445
sg63
g59
sg56
(lp2446
g49
(g70
g51
NtRp2447
(dp2448
g54
(dp2449
g74
g75
ssg63
g2443
sg56
(lp2450
S'utcnow'
p2451
asbag49
(g70
g51
NtRp2452
(dp2453
g54
(dp2454
g81
g82
ssg63
g2443
sg56
(lp2455
S':'
asbag49
(g70
g51
NtRp2456
(dp2457
g54
(dp2458
sg63
g2443
sg56
(lp2459
g49
(g50
g51
NtRp2460
(dp2461
g54
(dp2462
g62
I5
ssg63
g2456
sg56
(lp2463
S'datetime.datetime(2012, 3, 12, 13, 51, 9, 563000)'
p2464
asbasbasbag49
(g65
g51
NtRp2465
(dp2466
g54
(dp2467
sg63
g59
sg56
(lp2468
g49
(g70
g51
NtRp2469
(dp2470
g54
(dp2471
g74
g75
ssg63
g2465
sg56
(lp2472
S'uuid'
p2473
asbag49
(g70
g51
NtRp2474
(dp2475
g54
(dp2476
g81
g82
ssg63
g2465
sg56
(lp2477
S':'
asbag49
(g70
g51
NtRp2478
(dp2479
g54
(dp2480
sg63
g2465
sg56
(lp2481
g49
(g50
g51
NtRp2482
(dp2483
g54
(dp2484
g62
I5
ssg63
g2478
sg56
(lp2485
S'parleyweb/127.0.0.1.2012-03-12.14-51-09.b4af4269-4d31-447e-b24e-1471646587bc'
p2486
asbasbasbag49
(g65
g51
NtRp2487
(dp2488
g54
(dp2489
sg63
g59
sg56
(lp2490
g49
(g70
g51
NtRp2491
(dp2492
g54
(dp2493
g74
g75
ssg63
g2487
sg56
(lp2494
S'vars'
p2495
asbag49
(g70
g51
NtRp2496
(dp2497
g54
(dp2498
g81
g82
ssg63
g2487
sg56
(lp2499
S':'
asbag49
(g70
g51
NtRp2500
(dp2501
g54
(dp2502
sg63
g2487
sg56
(lp2503
g49
(g50
g51
NtRp2504
(dp2505
g54
(dp2506
g62
I5
ssg63
g2500
sg56
(lp2507
g49
(g58
g51
NtRp2508
(dp2509
g54
(dp2510
g62
I4
ssg63
Nsg56
(lp2511
sbasbasbasbag49
(g65
g51
NtRp2512
(dp2513
g54
(dp2514
sg63
g59
sg56
(lp2515
g49
(g70
g51
NtRp2516
(dp2517
g54
(dp2518
g74
g75
ssg63
g2512
sg56
(lp2519
S'wsgi'
p2520
asbag49
(g70
g51
NtRp2521
(dp2522
g54
(dp2523
g81
g82
ssg63
g2512
sg56
(lp2524
S':'
asbag49
(g70
g51
NtRp2525
(dp2526
g54
(dp2527
sg63
g2512
sg56
(lp2528
g49
(g50
g51
NtRp2529
(dp2530
g54
(dp2531
g62
I5
ssg63
g2525
sg56
(lp2532
g49
(g58
g51
NtRp2533
(dp2534
g54
(dp2535
g62
I4
ssg63
Nsg56
(lp2536
g49
(g65
g51
NtRp2537
(dp2538
g54
(dp2539
sg63
g2533
sg56
(lp2540
g49
(g70
g51
NtRp2541
(dp2542
g54
(dp2543
g74
g75
ssg63
g2537
sg56
(lp2544
S'environ'
p2545
asbag49
(g70
g51
NtRp2546
(dp2547
g54
(dp2548
g81
g82
ssg63
g2537
sg56
(lp2549
S':'
asbag49
(g70
g51
NtRp2550
(dp2551
g54
(dp2552
sg63
g2537
sg56
(lp2553
g49
(g50
g51
NtRp2554
(dp2555
g54
(dp2556
g62
I4
ssg63
g2550
sg56
(lp2557
g49
(g58
g51
NtRp2558
(dp2559
g54
(dp2560
g62
I3
ssg63
Nsg56
(lp2561
g49
(g65
g51
NtRp2562
(dp2563
g54
(dp2564
sg63
g2558
sg56
(lp2565
g49
(g70
g51
NtRp2566
(dp2567
g54
(dp2568
g74
g75
ssg63
g2562
sg56
(lp2569
S'HTTP_ACCEPT'
p2570
asbag49
(g70
g51
NtRp2571
(dp2572
g54
(dp2573
g81
g82
ssg63
g2562
sg56
(lp2574
S':'
asbag49
(g70
g51
NtRp2575
(dp2576
g54
(dp2577
sg63
g2562
sg56
(lp2578
g49
(g50
g51
NtRp2579
(dp2580
g54
(dp2581
g62
I3
ssg63
g2575
sg56
(lp2582
g1112
asbasbasbag49
(g65
g51
NtRp2583
(dp2584
g54
(dp2585
sg63
g2558
sg56
(lp2586
g49
(g70
g51
NtRp2587
(dp2588
g54
(dp2589
g74
g75
ssg63
g2583
sg56
(lp2590
S'HTTP_ACCEPT_ENCODING'
p2591
asbag49
(g70
g51
NtRp2592
(dp2593
g54
(dp2594
g81
g82
ssg63
g2583
sg56
(lp2595
S':'
asbag49
(g70
g51
NtRp2596
(dp2597
g54
(dp2598
sg63
g2583
sg56
(lp2599
g49
(g50
g51
NtRp2600
(dp2601
g54
(dp2602
g62
I3
ssg63
g2596
sg56
(lp2603
g1134
asbasbasbag49
(g65
g51
NtRp2604
(dp2605
g54
(dp2606
sg63
g2558
sg56
(lp2607
g49
(g70
g51
NtRp2608
(dp2609
g54
(dp2610
g74
g75
ssg63
g2604
sg56
(lp2611
S'HTTP_ACCEPT_LANGUAGE'
p2612
asbag49
(g70
g51
NtRp2613
(dp2614
g54
(dp2615
g81
g82
ssg63
g2604
sg56
(lp2616
S':'
asbag49
(g70
g51
NtRp2617
(dp2618
g54
(dp2619
sg63
g2604
sg56
(lp2620
g49
(g50
g51
NtRp2621
(dp2622
g54
(dp2623
g62
I3
ssg63
g2617
sg56
(lp2624
g1156
asbasbasbag49
(g65
g51
NtRp2625
(dp2626
g54
(dp2627
sg63
g2558
sg56
(lp2628
g49
(g70
g51
NtRp2629
(dp2630
g54
(dp2631
g74
g75
ssg63
g2625
sg56
(lp2632
S'HTTP_CACHE_CONTROL'
p2633
asbag49
(g70
g51
NtRp2634
(dp2635
g54
(dp2636
g81
g82
ssg63
g2625
sg56
(lp2637
S':'
asbag49
(g70
g51
NtRp2638
(dp2639
g54
(dp2640
sg63
g2625
sg56
(lp2641
g49
(g50
g51
NtRp2642
(dp2643
g54
(dp2644
g62
I3
ssg63
g2638
sg56
(lp2645
g1178
asbasbasbag49
(g65
g51
NtRp2646
(dp2647
g54
(dp2648
sg63
g2558
sg56
(lp2649
g49
(g70
g51
NtRp2650
(dp2651
g54
(dp2652
g74
g75
ssg63
g2646
sg56
(lp2653
S'HTTP_CONNECTION'
p2654
asbag49
(g70
g51
NtRp2655
(dp2656
g54
(dp2657
g81
g82
ssg63
g2646
sg56
(lp2658
S':'
asbag49
(g70
g51
NtRp2659
(dp2660
g54
(dp2661
sg63
g2646
sg56
(lp2662
g49
(g50
g51
NtRp2663
(dp2664
g54
(dp2665
g62
I3
ssg63
g2659
sg56
(lp2666
g1200
asbasbasbag49
(g65
g51
NtRp2667
(dp2668
g54
(dp2669
sg63
g2558
sg56
(lp2670
g49
(g70
g51
NtRp2671
(dp2672
g54
(dp2673
g74
g75
ssg63
g2667
sg56
(lp2674
S'HTTP_COOKIE'
p2675
asbag49
(g70
g51
NtRp2676
(dp2677
g54
(dp2678
g81
g82
ssg63
g2667
sg56
(lp2679
S':'
asbag49
(g70
g51
NtRp2680
(dp2681
g54
(dp2682
sg63
g2667
sg56
(lp2683
g49
(g50
g51
NtRp2684
(dp2685
g54
(dp2686
g62
I3
ssg63
g2680
sg56
(lp2687
g1222
asbasbasbag49
(g65
g51
NtRp2688
(dp2689
g54
(dp2690
sg63
g2558
sg56
(lp2691
g49
(g70
g51
NtRp2692
(dp2693
g54
(dp2694
g74
g75
ssg63
g2688
sg56
(lp2695
S'HTTP_HOST'
p2696
asbag49
(g70
g51
NtRp2697
(dp2698
g54
(dp2699
g81
g82
ssg63
g2688
sg56
(lp2700
S':'
asbag49
(g70
g51
NtRp2701
(dp2702
g54
(dp2703
sg63
g2688
sg56
(lp2704
g49
(g50
g51
NtRp2705
(dp2706
g54
(dp2707
g62
I3
ssg63
g2701
sg56
(lp2708
g1244
asbasbasbag49
(g65
g51
NtRp2709
(dp2710
g54
(dp2711
sg63
g2558
sg56
(lp2712
g49
(g70
g51
NtRp2713
(dp2714
g54
(dp2715
g74
g75
ssg63
g2709
sg56
(lp2716
S'HTTP_REFERER'
p2717
asbag49
(g70
g51
NtRp2718
(dp2719
g54
(dp2720
g81
g82
ssg63
g2709
sg56
(lp2721
S':'
asbag49
(g70
g51
NtRp2722
(dp2723
g54
(dp2724
sg63
g2709
sg56
(lp2725
g49
(g50
g51
NtRp2726
(dp2727
g54
(dp2728
g62
I3
ssg63
g2722
sg56
(lp2729
g1266
asbasbasbag49
(g65
g51
NtRp2730
(dp2731
g54
(dp2732
sg63
g2558
sg56
(lp2733
g49
(g70
g51
NtRp2734
(dp2735
g54
(dp2736
g74
g75
ssg63
g2730
sg56
(lp2737
S'HTTP_USER_AGENT'
p2738
asbag49
(g70
g51
NtRp2739
(dp2740
g54
(dp2741
g81
g82
ssg63
g2730
sg56
(lp2742
S':'
asbag49
(g70
g51
NtRp2743
(dp2744
g54
(dp2745
sg63
g2730
sg56
(lp2746
g49
(g50
g51
NtRp2747
(dp2748
g54
(dp2749
g62
I3
ssg63
g2743
sg56
(lp2750
g1288
asbasbasbag49
(g65
g51
NtRp2751
(dp2752
g54
(dp2753
sg63
g2558
sg56
(lp2754
g49
(g70
g51
NtRp2755
(dp2756
g54
(dp2757
g74
g75
ssg63
g2751
sg56
(lp2758
S'PATH_INFO'
p2759
asbag49
(g70
g51
NtRp2760
(dp2761
g54
(dp2762
g81
g82
ssg63
g2751
sg56
(lp2763
S':'
asbag49
(g70
g51
NtRp2764
(dp2765
g54
(dp2766
sg63
g2751
sg56
(lp2767
g49
(g50
g51
NtRp2768
(dp2769
g54
(dp2770
g62
I3
ssg63
g2764
sg56
(lp2771
g1352
asbasbasbag49
(g65
g51
NtRp2772
(dp2773
g54
(dp2774
sg63
g2558
sg56
(lp2775
g49
(g70
g51
NtRp2776
(dp2777
g54
(dp2778
g74
g75
ssg63
g2772
sg56
(lp2779
S'QUERY_STRING'
p2780
asbag49
(g70
g51
NtRp2781
(dp2782
g54
(dp2783
g81
g82
ssg63
g2772
sg56
(lp2784
S':'
asbag49
(g70
g51
NtRp2785
(dp2786
g54
(dp2787
sg63
g2772
sg56
(lp2788
g49
(g50
g51
NtRp2789
(dp2790
g54
(dp2791
g62
I3
ssg63
g2785
sg56
(lp2792
S''
asbasbasbag49
(g65
g51
NtRp2793
(dp2794
g54
(dp2795
sg63
g2558
sg56
(lp2796
g49
(g70
g51
NtRp2797
(dp2798
g54
(dp2799
g74
g75
ssg63
g2793
sg56
(lp2800
S'REMOTE_ADDR'
p2801
asbag49
(g70
g51
NtRp2802
(dp2803
g54
(dp2804
g81
g82
ssg63
g2793
sg56
(lp2805
S':'
asbag49
(g70
g51
NtRp2806
(dp2807
g54
(dp2808
sg63
g2793
sg56
(lp2809
g49
(g50
g51
NtRp2810
(dp2811
g54
(dp2812
g62
I3
ssg63
g2806
sg56
(lp2813
g195
asbasbasbag49
(g65
g51
NtRp2814
(dp2815
g54
(dp2816
sg63
g2558
sg56
(lp2817
g49
(g70
g51
NtRp2818
(dp2819
g54
(dp2820
g74
g75
ssg63
g2814
sg56
(lp2821
S'REMOTE_PORT'
p2822
asbag49
(g70
g51
NtRp2823
(dp2824
g54
(dp2825
g81
g82
ssg63
g2814
sg56
(lp2826
S':'
asbag49
(g70
g51
NtRp2827
(dp2828
g54
(dp2829
sg63
g2814
sg56
(lp2830
g49
(g50
g51
NtRp2831
(dp2832
g54
(dp2833
g62
I3
ssg63
g2827
sg56
(lp2834
g1416
asbasbasbag49
(g65
g51
NtRp2835
(dp2836
g54
(dp2837
sg63
g2558
sg56
(lp2838
g49
(g70
g51
NtRp2839
(dp2840
g54
(dp2841
g74
g75
ssg63
g2835
sg56
(lp2842
S'REQUEST_METHOD'
p2843
asbag49
(g70
g51
NtRp2844
(dp2845
g54
(dp2846
g81
g82
ssg63
g2835
sg56
(lp2847
S':'
asbag49
(g70
g51
NtRp2848
(dp2849
g54
(dp2850
sg63
g2835
sg56
(lp2851
g49
(g50
g51
NtRp2852
(dp2853
g54
(dp2854
g62
I3
ssg63
g2848
sg56
(lp2855
g1438
asbasbasbag49
(g65
g51
NtRp2856
(dp2857
g54
(dp2858
sg63
g2558
sg56
(lp2859
g49
(g70
g51
NtRp2860
(dp2861
g54
(dp2862
g74
g75
ssg63
g2856
sg56
(lp2863
S'SCRIPT_NAME'
p2864
asbag49
(g70
g51
NtRp2865
(dp2866
g54
(dp2867
g81
g82
ssg63
g2856
sg56
(lp2868
S':'
asbag49
(g70
g51
NtRp2869
(dp2870
g54
(dp2871
sg63
g2856
sg56
(lp2872
g49
(g50
g51
NtRp2873
(dp2874
g54
(dp2875
g62
I3
ssg63
g2869
sg56
(lp2876
S''
asbasbasbag49
(g65
g51
NtRp2877
(dp2878
g54
(dp2879
sg63
g2558
sg56
(lp2880
g49
(g70
g51
NtRp2881
(dp2882
g54
(dp2883
g74
g75
ssg63
g2877
sg56
(lp2884
S'SERVER_NAME'
p2885
asbag49
(g70
g51
NtRp2886
(dp2887
g54
(dp2888
g81
g82
ssg63
g2877
sg56
(lp2889
S':'
asbag49
(g70
g51
NtRp2890
(dp2891
g54
(dp2892
sg63
g2877
sg56
(lp2893
g49
(g50
g51
NtRp2894
(dp2895
g54
(dp2896
g62
I3
ssg63
g2890
sg56
(lp2897
g1481
asbasbasbag49
(g65
g51
NtRp2898
(dp2899
g54
(dp2900
sg63
g2558
sg56
(lp2901
g49
(g70
g51
NtRp2902
(dp2903
g54
(dp2904
g74
g75
ssg63
g2898
sg56
(lp2905
S'SERVER_PORT'
p2906
asbag49
(g70
g51
NtRp2907
(dp2908
g54
(dp2909
g81
g82
ssg63
g2898
sg56
(lp2910
S':'
asbag49
(g70
g51
NtRp2911
(dp2912
g54
(dp2913
sg63
g2898
sg56
(lp2914
g49
(g50
g51
NtRp2915
(dp2916
g54
(dp2917
g62
I3
ssg63
g2911
sg56
(lp2918
g1503
asbasbasbag49
(g65
g51
NtRp2919
(dp2920
g54
(dp2921
sg63
g2558
sg56
(lp2922
g49
(g70
g51
NtRp2923
(dp2924
g54
(dp2925
g74
g75
ssg63
g2919
sg56
(lp2926
S'SERVER_PROTOCOL'
p2927
asbag49
(g70
g51
NtRp2928
(dp2929
g54
(dp2930
g81
g82
ssg63
g2919
sg56
(lp2931
S':'
asbag49
(g70
g51
NtRp2932
(dp2933
g54
(dp2934
sg63
g2919
sg56
(lp2935
g49
(g50
g51
NtRp2936
(dp2937
g54
(dp2938
g62
I3
ssg63
g2932
sg56
(lp2939
g1525
asbasbasbag49
(g65
g51
NtRp2940
(dp2941
g54
(dp2942
sg63
g2558
sg56
(lp2943
g49
(g70
g51
NtRp2944
(dp2945
g54
(dp2946
g74
g75
ssg63
g2940
sg56
(lp2947
S'SERVER_SOFTWARE'
p2948
asbag49
(g70
g51
NtRp2949
(dp2950
g54
(dp2951
g81
g82
ssg63
g2940
sg56
(lp2952
S':'
asbag49
(g70
g51
NtRp2953
(dp2954
g54
(dp2955
sg63
g2940
sg56
(lp2956
g49
(g50
g51
NtRp2957
(dp2958
g54
(dp2959
g62
I3
ssg63
g2953
sg56
(lp2960
g1547
asbasbasbag49
(g65
g51
NtRp2961
(dp2962
g54
(dp2963
sg63
g2558
sg56
(lp2964
g49
(g70
g51
NtRp2965
(dp2966
g54
(dp2967
g74
g75
ssg63
g2961
sg56
(lp2968
S'wsgi.errors'
p2969
asbag49
(g70
g51
NtRp2970
(dp2971
g54
(dp2972
g81
g82
ssg63
g2961
sg56
(lp2973
S':'
asbag49
(g70
g51
NtRp2974
(dp2975
g54
(dp2976
sg63
g2961
sg56
(lp2977
g49
(g50
g51
NtRp2978
(dp2979
g54
(dp2980
g62
I3
ssg63
g2974
sg56
(lp2981
S"<open file '<stderr>', mode 'w' at 0x004200B0>"
p2982
asbasbasbag49
(g65
g51
NtRp2983
(dp2984
g54
(dp2985
sg63
g2558
sg56
(lp2986
g49
(g70
g51
NtRp2987
(dp2988
g54
(dp2989
g74
g75
ssg63
g2983
sg56
(lp2990
S'wsgi.file_wrapper'
p2991
asbag49
(g70
g51
NtRp2992
(dp2993
g54
(dp2994
g81
g82
ssg63
g2983
sg56
(lp2995
S':'
asbag49
(g70
g51
NtRp2996
(dp2997
g54
(dp2998
sg63
g2983
sg56
(lp2999
g49
(g50
g51
NtRp3000
(dp3001
g54
(dp3002
g62
I3
ssg63
g2996
sg56
(lp3003
S'<class wsgiref.util.FileWrapper at 0x03115390>'
p3004
asbasbasbag49
(g65
g51
NtRp3005
(dp3006
g54
(dp3007
sg63
g2558
sg56
(lp3008
g49
(g70
g51
NtRp3009
(dp3010
g54
(dp3011
g74
g75
ssg63
g3005
sg56
(lp3012
S'wsgi.input'
p3013
asbag49
(g70
g51
NtRp3014
(dp3015
g54
(dp3016
g81
g82
ssg63
g3005
sg56
(lp3017
S':'
asbag49
(g70
g51
NtRp3018
(dp3019
g54
(dp3020
sg63
g3005
sg56
(lp3021
g49
(g50
g51
NtRp3022
(dp3023
g54
(dp3024
g62
I3
ssg63
g3018
sg56
(lp3025
S'<cStringIO.StringO object at 0x07359340>'
p3026
asbasbasbag49
(g65
g51
NtRp3027
(dp3028
g54
(dp3029
sg63
g2558
sg56
(lp3030
g49
(g70
g51
NtRp3031
(dp3032
g54
(dp3033
g74
g75
ssg63
g3027
sg56
(lp3034
S'wsgi.multiprocess'
p3035
asbag49
(g70
g51
NtRp3036
(dp3037
g54
(dp3038
g81
g82
ssg63
g3027
sg56
(lp3039
S':'
asbag49
(g70
g51
NtRp3040
(dp3041
g54
(dp3042
sg63
g3027
sg56
(lp3043
g49
(g50
g51
NtRp3044
(dp3045
g54
(dp3046
g62
I3
ssg63
g3040
sg56
(lp3047
g92
asbasbasbag49
(g65
g51
NtRp3048
(dp3049
g54
(dp3050
sg63
g2558
sg56
(lp3051
g49
(g70
g51
NtRp3052
(dp3053
g54
(dp3054
g74
g75
ssg63
g3048
sg56
(lp3055
S'wsgi.multithread'
p3056
asbag49
(g70
g51
NtRp3057
(dp3058
g54
(dp3059
g81
g82
ssg63
g3048
sg56
(lp3060
S':'
asbag49
(g70
g51
NtRp3061
(dp3062
g54
(dp3063
sg63
g3048
sg56
(lp3064
g49
(g50
g51
NtRp3065
(dp3066
g54
(dp3067
g62
I3
ssg63
g3061
sg56
(lp3068
g1787
asbasbasbag49
(g65
g51
NtRp3069
(dp3070
g54
(dp3071
sg63
g2558
sg56
(lp3072
g49
(g70
g51
NtRp3073
(dp3074
g54
(dp3075
g74
g75
ssg63
g3069
sg56
(lp3076
S'wsgi.run_once'
p3077
asbag49
(g70
g51
NtRp3078
(dp3079
g54
(dp3080
g81
g82
ssg63
g3069
sg56
(lp3081
S':'
asbag49
(g70
g51
NtRp3082
(dp3083
g54
(dp3084
sg63
g3069
sg56
(lp3085
g49
(g50
g51
NtRp3086
(dp3087
g54
(dp3088
g62
I3
ssg63
g3082
sg56
(lp3089
g92
asbasbasbag49
(g65
g51
NtRp3090
(dp3091
g54
(dp3092
sg63
g2558
sg56
(lp3093
g49
(g70
g51
NtRp3094
(dp3095
g54
(dp3096
g74
g75
ssg63
g3090
sg56
(lp3097
S'wsgi.url_scheme'
p3098
asbag49
(g70
g51
NtRp3099
(dp3100
g54
(dp3101
g81
g82
ssg63
g3090
sg56
(lp3102
S':'
asbag49
(g70
g51
NtRp3103
(dp3104
g54
(dp3105
sg63
g3090
sg56
(lp3106
g49
(g50
g51
NtRp3107
(dp3108
g54
(dp3109
g62
I3
ssg63
g3103
sg56
(lp3110
g1830
asbasbasbag49
(g65
g51
NtRp3111
(dp3112
g54
(dp3113
sg63
g2558
sg56
(lp3114
g49
(g70
g51
NtRp3115
(dp3116
g54
(dp3117
g74
g75
ssg63
g3111
sg56
(lp3118
S'wsgi.version'
p3119
asbag49
(g70
g51
NtRp3120
(dp3121
g54
(dp3122
g81
g82
ssg63
g3111
sg56
(lp3123
S':'
asbag49
(g70
g51
NtRp3124
(dp3125
g54
(dp3126
sg63
g3111
sg56
(lp3127
g49
(g50
g51
NtRp3128
(dp3129
g54
(dp3130
g62
I3
ssg63
g3124
sg56
(lp3131
S'1'
asbasbasbasbasbasbasbasbasbasbasbasbasbsS'frames'
p3132
(lp3133
(dp3134
S'file'
p3135
S'D:\\Dise\xf1o Web\\Proyectos\\Parleyweb\\web2py\\gluon\\restricted.py'
p3136
sS'dump'
p3137
(dp3138
sS'lnum'
p3139
I205
sS'lines'
p3140
(dp3141
sS'call'
p3142
S'(code=\'response.write(\\\'<!DOCTYPE html>\\\\n<!-- paulirish....>\\\\n   \\\\n\\\\n \\\\n\\\\n</body>\\\\n</html>\\\\n", escape=False)\', environment={\'A\': <class \'gluon.html.A\'>, \'Auth\': <class \'gluon.tools.Auth\'>, \'B\': <class \'gluon.html.B\'>, \'BEAUTIFY\': <class \'gluon.html.BEAUTIFY\'>, \'BODY\': <class \'gluon.html.BODY\'>, \'BR\': <class \'gluon.html.BR\'>, \'BUTTON\': <class \'gluon.html.BUTTON\'>, \'CAT\': <class \'gluon.html.CAT\'>, \'CENTER\': <class \'gluon.html.CENTER\'>, \'CLEANUP\': <class \'gluon.validators.CLEANUP\'>, ...}, layer=\'D:\\\\Dise\\xf1o Web\\\\Proyectos\\\\Parleyweb\\\\web2py\\\\applications\\\\parleyweb\\\\views\\\\default/mostrar.html\')'
p3143
sS'func'
p3144
S'restricted'
p3145
sa(dp3146
g3135
S'D:\\Dise\xf1o Web\\Proyectos\\Parleyweb\\web2py\\applications\\parleyweb\\views\\default\\mostrar.html'
p3147
sg3137
(dp3148
sg3139
I76
sg3140
(dp3149
I67
S"    response.write('</h3>\\n       \\n                                                                                <!-- SI LA PALABRA ES UN VERBO Y SUSTANTIVO A LA VEZ -->\\n       \\n        ', escape=False)"
p3150
sI68
S'    if palabras.sustantivo==True and palabras.verbo==True:'
p3151
sI69
S'        response.write(\'  <!-- 1 -->\\n        <div class="btn-group botones_mostrar" data-toggle="buttons-checkbox">\\n           <!-- <button class="btn btn-info " onclick=\\\'$("#toggle1-mostrar").slideToggle(200);\\\'>Mostrar como sustantivo</button> -->\\n            <button class="btn btn-info toggle-mostrar-verbo">\\n                <span class="mostrar-verbo"><i class="icon-plus-sign icon-white"></i> Mostrar verbo</span>\\n                <span class="ocultar-verbo hide"><i class="icon-minus-sign icon-white"></i> Ocultar</span>\\n            </button>\\n            <!--<button class="btn btn-info">Ambos</button> -->\\n            <button class="btn btn-info toggle-mostrar-sustantivo">\\n                <span class="mostrar-sustantivo"><i class="icon-plus-sign icon-white"></i> Mostrar sustantivo</span>\\n                <span class="ocultar-sustantivo hide"><i class="icon-minus-sign icon-white"></i> Ocultar</span>\\n            </button>\\n        </div>\\n        <div id="toggle-mostrar-verbo" class="hide">                            <!-- INICIO DIV OCULTO PARA MOSTRAR EL VERBO -->\\n            <div class="toggle-mostrar"><h4>Verbo</h4></div>\\n            <div class="wellparley2">\\n                <h4 class="h4-mostrar">Ejemplos</h4>\\n                <table class="table table-striped table-bordered">\\n                    <thead>\\n                        <tr>\\n                            <th>\', escape=False)'
p3152
sI70
S"        response.write(IMG(_src=URL('static', 'images/germany.gif')))"
p3153
sI71
S"        response.write('</th>\\n                            <th>', escape=False)"
p3154
sI72
S"        response.write(IMG(_src=URL('static', 'images/spain.gif')))"
p3155
sI73
S"        response.write('</th>\\n                            <th>Fuente</th>\\n                        </tr>\\n                    </thead>\\n                    <tbody>\\n                        ', escape=False)"
p3156
sI74
S'        for registro in ejemplos(db.palabras.id==request.args(0)).select(db.ejemplos.ALL):'
p3157
sI75
S"            response.write('\\n                            ', escape=False)"
p3158
sI76
S"            for r in registro(registro.ejemplos.tipo=='verbo').select:"
p3159
sI77
S"                response.write('\\n                                ', escape=False)"
p3160
sI78
S'                response.write(r.tipo)'
p3161
sI79
S"                response.write('\\n                            ', escape=False)"
p3162
sI80
S'                pass'
p3163
sI81
S"            response.write('\\n                        <tr>\\n                            <td>\\n                                ', escape=False)"
p3164
sI82
S'            response.write(registro.ejemplo_de)'
p3165
sI83
S"            response.write('\\n                            </td>\\n                            <td>\\n                                ', escape=False)"
p3166
sI84
S'            response.write(registro.ejemplo_es)'
p3167
sI85
S"            response.write('\\n                            </td>\\n                               \\n                            <td>\\n                                 ', escape=False)"
p3168
sI86
S'            if registro.fuente:'
p3169
ssg3142
S'()'
p3170
sg3144
S'<module>'
p3171
sa(dp3172
g3135
S'D:\\Dise\xf1o Web\\Proyectos\\Parleyweb\\web2py\\gluon\\dal.py'
p3173
sg3137
(dp3174
sg3139
I5657
sg3140
(dp3175
sg3142
S"(self=<Row {'tipo': 'verbo', 'update_record': <functio...lete_record': <function <lambda> at 0x0666FE70>}>, key='ejemplos')"
p3176
sg3144
S'__getattr__'
p3177
sa(dp3178
g3135
S'D:\\Dise\xf1o Web\\Proyectos\\Parleyweb\\web2py\\gluon\\dal.py'
p3179
sg3137
(dp3180
sg3139
I5648
sg3140
(dp3181
sg3142
S"(self=<Row {'tipo': 'verbo', 'update_record': <functio...lete_record': <function <lambda> at 0x0666FE70>}>, key='ejemplos')"
p3182
sg3144
g20
sasS'pyver'
p3183
S'Python 2.5.4: D:\\Dise\xf1o Web\\Proyectos\\Parleyweb\\web2py\\web2py.exe'
p3184
sS'session'
p3185
g49
(g50
g51
NtRp3186
(dp3187
g54
(dp3188
sg56
(lp3189
g49
(g58
g51
NtRp3190
(dp3191
g54
(dp3192
g62
I5
ssg63
Nsg56
(lp3193
g49
(g65
g51
NtRp3194
(dp3195
g54
(dp3196
sg63
g3190
sg56
(lp3197
g49
(g70
g51
NtRp3198
(dp3199
g54
(dp3200
g74
g75
ssg63
g3194
sg56
(lp3201
S'last_query'
p3202
asbag49
(g70
g51
NtRp3203
(dp3204
g54
(dp3205
g81
g82
ssg63
g3194
sg56
(lp3206
S':'
asbag49
(g70
g51
NtRp3207
(dp3208
g54
(dp3209
sg63
g3194
sg56
(lp3210
g49
(g50
g51
NtRp3211
(dp3212
g54
(dp3213
g62
I5
ssg63
g3207
sg56
(lp3214
S'db.palabra_ejemplo.id>0'
p3215
asbasbasbasbasbsS'etype'
p3216
S"<type 'exceptions.KeyError'>"
p3217
sS'date'
p3218
S'Mon Mar 12 14:51:09 2012'
p3219
sS'response'
p3220
g49
(g50
g51
NtRp3221
(dp3222
g54
(dp3223
sg56
(lp3224
g49
(g58
g51
NtRp3225
(dp3226
g54
(dp3227
g62
I5
ssg63
Nsg56
(lp3228
g49
(g65
g51
NtRp3229
(dp3230
g54
(dp3231
sg63
g3225
sg56
(lp3232
g49
(g70
g51
NtRp3233
(dp3234
g54
(dp3235
g74
g75
ssg63
g3229
sg56
(lp3236
g160
asbag49
(g70
g51
NtRp3237
(dp3238
g54
(dp3239
g81
g82
ssg63
g3229
sg56
(lp3240
S':'
asbag49
(g70
g51
NtRp3241
(dp3242
g54
(dp3243
sg63
g3229
sg56
(lp3244
g49
(g50
g51
NtRp3245
(dp3246
g54
(dp3247
g62
I5
ssg63
g3241
sg56
(lp3248
S'<cStringIO.StringO object at 0x07359600>'
p3249
asbasbasbag49
(g65
g51
NtRp3250
(dp3251
g54
(dp3252
sg63
g3225
sg56
(lp3253
g49
(g70
g51
NtRp3254
(dp3255
g54
(dp3256
g74
g75
ssg63
g3250
sg56
(lp3257
g226
asbag49
(g70
g51
NtRp3258
(dp3259
g54
(dp3260
g81
g82
ssg63
g3250
sg56
(lp3261
S':'
asbag49
(g70
g51
NtRp3262
(dp3263
g54
(dp3264
sg63
g3250
sg56
(lp3265
g49
(g50
g51
NtRp3266
(dp3267
g54
(dp3268
g62
I5
ssg63
g3262
sg56
(lp3269
g49
(g58
g51
NtRp3270
(dp3271
g54
(dp3272
g62
I4
ssg63
Nsg56
(lp3273
g49
(g65
g51
NtRp3274
(dp3275
g54
(dp3276
sg63
g3270
sg56
(lp3277
g49
(g70
g51
NtRp3278
(dp3279
g54
(dp3280
g74
g75
ssg63
g3274
sg56
(lp3281
S'session_id_parleyweb'
p3282
asbag49
(g70
g51
NtRp3283
(dp3284
g54
(dp3285
g81
g82
ssg63
g3274
sg56
(lp3286
S':'
asbag49
(g70
g51
NtRp3287
(dp3288
g54
(dp3289
sg63
g3274
sg56
(lp3290
g49
(g50
g51
NtRp3291
(dp3292
g54
(dp3293
g62
I4
ssg63
g3287
sg56
(lp3294
g49
(g58
g51
NtRp3295
(dp3296
g54
(dp3297
g62
I3
ssg63
Nsg56
(lp3298
g49
(g65
g51
NtRp3299
(dp3300
g54
(dp3301
sg63
g3295
sg56
(lp3302
g49
(g70
g51
NtRp3303
(dp3304
g54
(dp3305
g74
g75
ssg63
g3299
sg56
(lp3306
g276
asbag49
(g70
g51
NtRp3307
(dp3308
g54
(dp3309
g81
g82
ssg63
g3299
sg56
(lp3310
S':'
asbag49
(g70
g51
NtRp3311
(dp3312
g54
(dp3313
sg63
g3299
sg56
(lp3314
g49
(g50
g51
NtRp3315
(dp3316
g54
(dp3317
g62
I3
ssg63
g3311
sg56
(lp3318
S''
asbasbasbag49
(g65
g51
NtRp3319
(dp3320
g54
(dp3321
sg63
g3295
sg56
(lp3322
g49
(g70
g51
NtRp3323
(dp3324
g54
(dp3325
g74
g75
ssg63
g3319
sg56
(lp3326
g297
asbag49
(g70
g51
NtRp3327
(dp3328
g54
(dp3329
g81
g82
ssg63
g3319
sg56
(lp3330
S':'
asbag49
(g70
g51
NtRp3331
(dp3332
g54
(dp3333
sg63
g3319
sg56
(lp3334
g49
(g50
g51
NtRp3335
(dp3336
g54
(dp3337
g62
I3
ssg63
g3331
sg56
(lp3338
S''
asbasbasbag49
(g65
g51
NtRp3339
(dp3340
g54
(dp3341
sg63
g3295
sg56
(lp3342
g49
(g70
g51
NtRp3343
(dp3344
g54
(dp3345
g74
g75
ssg63
g3339
sg56
(lp3346
g318
asbag49
(g70
g51
NtRp3347
(dp3348
g54
(dp3349
g81
g82
ssg63
g3339
sg56
(lp3350
S':'
asbag49
(g70
g51
NtRp3351
(dp3352
g54
(dp3353
sg63
g3339
sg56
(lp3354
g49
(g50
g51
NtRp3355
(dp3356
g54
(dp3357
g62
I3
ssg63
g3351
sg56
(lp3358
S''
asbasbasbag49
(g65
g51
NtRp3359
(dp3360
g54
(dp3361
sg63
g3295
sg56
(lp3362
g49
(g70
g51
NtRp3363
(dp3364
g54
(dp3365
g74
g75
ssg63
g3359
sg56
(lp3366
g339
asbag49
(g70
g51
NtRp3367
(dp3368
g54
(dp3369
g81
g82
ssg63
g3359
sg56
(lp3370
S':'
asbag49
(g70
g51
NtRp3371
(dp3372
g54
(dp3373
sg63
g3359
sg56
(lp3374
g49
(g50
g51
NtRp3375
(dp3376
g54
(dp3377
g62
I3
ssg63
g3371
sg56
(lp3378
S''
asbasbasbag49
(g65
g51
NtRp3379
(dp3380
g54
(dp3381
sg63
g3295
sg56
(lp3382
g49
(g70
g51
NtRp3383
(dp3384
g54
(dp3385
g74
g75
ssg63
g3379
sg56
(lp3386
g360
asbag49
(g70
g51
NtRp3387
(dp3388
g54
(dp3389
g81
g82
ssg63
g3379
sg56
(lp3390
S':'
asbag49
(g70
g51
NtRp3391
(dp3392
g54
(dp3393
sg63
g3379
sg56
(lp3394
g49
(g50
g51
NtRp3395
(dp3396
g54
(dp3397
g62
I3
ssg63
g3391
sg56
(lp3398
S'/'
asbasbasbag49
(g65
g51
NtRp3399
(dp3400
g54
(dp3401
sg63
g3295
sg56
(lp3402
g49
(g70
g51
NtRp3403
(dp3404
g54
(dp3405
g74
g75
ssg63
g3399
sg56
(lp3406
g381
asbag49
(g70
g51
NtRp3407
(dp3408
g54
(dp3409
g81
g82
ssg63
g3399
sg56
(lp3410
S':'
asbag49
(g70
g51
NtRp3411
(dp3412
g54
(dp3413
sg63
g3399
sg56
(lp3414
g49
(g50
g51
NtRp3415
(dp3416
g54
(dp3417
g62
I3
ssg63
g3411
sg56
(lp3418
S''
asbasbasbag49
(g65
g51
NtRp3419
(dp3420
g54
(dp3421
sg63
g3295
sg56
(lp3422
g49
(g70
g51
NtRp3423
(dp3424
g54
(dp3425
g74
g75
ssg63
g3419
sg56
(lp3426
g402
asbag49
(g70
g51
NtRp3427
(dp3428
g54
(dp3429
g81
g82
ssg63
g3419
sg56
(lp3430
S':'
asbag49
(g70
g51
NtRp3431
(dp3432
g54
(dp3433
sg63
g3419
sg56
(lp3434
g49
(g50
g51
NtRp3435
(dp3436
g54
(dp3437
g62
I3
ssg63
g3431
sg56
(lp3438
S''
asbasbasbasbasbasbasbasbasbasbasbag49
(g65
g51
NtRp3439
(dp3440
g54
(dp3441
sg63
g3225
sg56
(lp3442
g49
(g70
g51
NtRp3443
(dp3444
g54
(dp3445
g74
g75
ssg63
g3439
sg56
(lp3446
S'delimiters'
p3447
asbag49
(g70
g51
NtRp3448
(dp3449
g54
(dp3450
g81
g82
ssg63
g3439
sg56
(lp3451
S':'
asbag49
(g70
g51
NtRp3452
(dp3453
g54
(dp3454
sg63
g3439
sg56
(lp3455
g49
(g50
g51
NtRp3456
(dp3457
g54
(dp3458
g62
I5
ssg63
g3452
sg56
(lp3459
g49
(g58
g51
NtRp3460
(dp3461
g54
(dp3462
g62
I4
ssg63
Nsg56
(lp3463
g49
(g65
g51
NtRp3464
(dp3465
g54
(dp3466
sg63
g3460
sg56
(lp3467
g49
(g70
g51
NtRp3468
(dp3469
g54
(dp3470
sg63
g3464
sg56
(lp3471
g49
(g50
g51
NtRp3472
(dp3473
g54
(dp3474
g62
I4
ssg63
g3468
sg56
(lp3475
S'{{'
p3476
asbasbasbag49
(g65
g51
NtRp3477
(dp3478
g54
(dp3479
sg63
g3460
sg56
(lp3480
g49
(g70
g51
NtRp3481
(dp3482
g54
(dp3483
sg63
g3477
sg56
(lp3484
g49
(g50
g51
NtRp3485
(dp3486
g54
(dp3487
g62
I4
ssg63
g3481
sg56
(lp3488
S'}}'
p3489
asbasbasbasbasbasbasbag49
(g65
g51
NtRp3490
(dp3491
g54
(dp3492
sg63
g3225
sg56
(lp3493
g49
(g70
g51
NtRp3494
(dp3495
g54
(dp3496
g74
g75
ssg63
g3490
sg56
(lp3497
S'files'
p3498
asbag49
(g70
g51
NtRp3499
(dp3500
g54
(dp3501
g81
g82
ssg63
g3490
sg56
(lp3502
S':'
asbag49
(g70
g51
NtRp3503
(dp3504
g54
(dp3505
sg63
g3490
sg56
(lp3506
g49
(g50
g51
NtRp3507
(dp3508
g54
(dp3509
g62
I5
ssg63
g3503
sg56
(lp3510
g49
(g58
g51
NtRp3511
(dp3512
g54
(dp3513
g62
I4
ssg63
Nsg56
(lp3514
g49
(g65
g51
NtRp3515
(dp3516
g54
(dp3517
sg63
g3511
sg56
(lp3518
g49
(g70
g51
NtRp3519
(dp3520
g54
(dp3521
sg63
g3515
sg56
(lp3522
g49
(g50
g51
NtRp3523
(dp3524
g54
(dp3525
g62
I4
ssg63
g3519
sg56
(lp3526
S'/parleyweb/static/js/jquery.js'
p3527
asbasbasbag49
(g65
g51
NtRp3528
(dp3529
g54
(dp3530
sg63
g3511
sg56
(lp3531
g49
(g70
g51
NtRp3532
(dp3533
g54
(dp3534
sg63
g3528
sg56
(lp3535
g49
(g50
g51
NtRp3536
(dp3537
g54
(dp3538
g62
I4
ssg63
g3532
sg56
(lp3539
S'/parleyweb/static/css/calendar.css'
p3540
asbasbasbag49
(g65
g51
NtRp3541
(dp3542
g54
(dp3543
sg63
g3511
sg56
(lp3544
g49
(g70
g51
NtRp3545
(dp3546
g54
(dp3547
sg63
g3541
sg56
(lp3548
g49
(g50
g51
NtRp3549
(dp3550
g54
(dp3551
g62
I4
ssg63
g3545
sg56
(lp3552
S'/parleyweb/static/js/calendar.js'
p3553
asbasbasbag49
(g65
g51
NtRp3554
(dp3555
g54
(dp3556
sg63
g3511
sg56
(lp3557
g49
(g70
g51
NtRp3558
(dp3559
g54
(dp3560
sg63
g3554
sg56
(lp3561
g49
(g50
g51
NtRp3562
(dp3563
g54
(dp3564
g62
I4
ssg63
g3558
sg56
(lp3565
S'/parleyweb/static/js/web2py.js'
p3566
asbasbasbag49
(g65
g51
NtRp3567
(dp3568
g54
(dp3569
sg63
g3511
sg56
(lp3570
g49
(g70
g51
NtRp3571
(dp3572
g54
(dp3573
sg63
g3567
sg56
(lp3574
g49
(g50
g51
NtRp3575
(dp3576
g54
(dp3577
g62
I4
ssg63
g3571
sg56
(lp3578
S'/parleyweb/static/css/bootstrap.css'
p3579
asbasbasbag49
(g65
g51
NtRp3580
(dp3581
g54
(dp3582
sg63
g3511
sg56
(lp3583
g49
(g70
g51
NtRp3584
(dp3585
g54
(dp3586
sg63
g3580
sg56
(lp3587
g49
(g50
g51
NtRp3588
(dp3589
g54
(dp3590
g62
I4
ssg63
g3584
sg56
(lp3591
S'/parleyweb/static/js/bootstrap.js'
p3592
asbasbasbag49
(g65
g51
NtRp3593
(dp3594
g54
(dp3595
sg63
g3511
sg56
(lp3596
g49
(g70
g51
NtRp3597
(dp3598
g54
(dp3599
sg63
g3593
sg56
(lp3600
g49
(g50
g51
NtRp3601
(dp3602
g54
(dp3603
g62
I4
ssg63
g3597
sg56
(lp3604
S'/parleyweb/static/css/parleyweb.css'
p3605
asbasbasbag49
(g65
g51
NtRp3606
(dp3607
g54
(dp3608
sg63
g3511
sg56
(lp3609
g49
(g70
g51
NtRp3610
(dp3611
g54
(dp3612
sg63
g3606
sg56
(lp3613
g49
(g50
g51
NtRp3614
(dp3615
g54
(dp3616
g62
I4
ssg63
g3610
sg56
(lp3617
S'/parleyweb/static/css/jquery-ui-1.8.18.custom.css'
p3618
asbasbasbag49
(g65
g51
NtRp3619
(dp3620
g54
(dp3621
sg63
g3511
sg56
(lp3622
g49
(g70
g51
NtRp3623
(dp3624
g54
(dp3625
sg63
g3619
sg56
(lp3626
g49
(g50
g51
NtRp3627
(dp3628
g54
(dp3629
g62
I4
ssg63
g3623
sg56
(lp3630
S'/parleyweb/static/js/parleyweb.js'
p3631
asbasbasbag49
(g65
g51
NtRp3632
(dp3633
g54
(dp3634
sg63
g3511
sg56
(lp3635
g49
(g70
g51
NtRp3636
(dp3637
g54
(dp3638
sg63
g3632
sg56
(lp3639
g49
(g50
g51
NtRp3640
(dp3641
g54
(dp3642
g62
I4
ssg63
g3636
sg56
(lp3643
S'/parleyweb/static/js/jquery-ui-1.8.18.custom.min.js'
p3644
asbasbasbasbasbasbasbag49
(g65
g51
NtRp3645
(dp3646
g54
(dp3647
sg63
g3225
sg56
(lp3648
g49
(g70
g51
NtRp3649
(dp3650
g54
(dp3651
g74
g75
ssg63
g3645
sg56
(lp3652
S'flash'
p3653
asbag49
(g70
g51
NtRp3654
(dp3655
g54
(dp3656
g81
g82
ssg63
g3645
sg56
(lp3657
S':'
asbag49
(g70
g51
NtRp3658
(dp3659
g54
(dp3660
sg63
g3645
sg56
(lp3661
g49
(g50
g51
NtRp3662
(dp3663
g54
(dp3664
g62
I5
ssg63
g3658
sg56
(lp3665
S''
asbasbasbag49
(g65
g51
NtRp3666
(dp3667
g54
(dp3668
sg63
g3225
sg56
(lp3669
g49
(g70
g51
NtRp3670
(dp3671
g54
(dp3672
g74
g75
ssg63
g3666
sg56
(lp3673
S'generic_patterns'
p3674
asbag49
(g70
g51
NtRp3675
(dp3676
g54
(dp3677
g81
g82
ssg63
g3666
sg56
(lp3678
S':'
asbag49
(g70
g51
NtRp3679
(dp3680
g54
(dp3681
sg63
g3666
sg56
(lp3682
g49
(g50
g51
NtRp3683
(dp3684
g54
(dp3685
g62
I5
ssg63
g3679
sg56
(lp3686
g49
(g58
g51
NtRp3687
(dp3688
g54
(dp3689
g62
I4
ssg63
Nsg56
(lp3690
g49
(g65
g51
NtRp3691
(dp3692
g54
(dp3693
sg63
g3687
sg56
(lp3694
g49
(g70
g51
NtRp3695
(dp3696
g54
(dp3697
sg63
g3691
sg56
(lp3698
g49
(g50
g51
NtRp3699
(dp3700
g54
(dp3701
g62
I4
ssg63
g3695
sg56
(lp3702
S'*'
asbasbasbasbasbasbasbag49
(g65
g51
NtRp3703
(dp3704
g54
(dp3705
sg63
g3225
sg56
(lp3706
g49
(g70
g51
NtRp3707
(dp3708
g54
(dp3709
g74
g75
ssg63
g3703
sg56
(lp3710
S'headers'
p3711
asbag49
(g70
g51
NtRp3712
(dp3713
g54
(dp3714
g81
g82
ssg63
g3703
sg56
(lp3715
S':'
asbag49
(g70
g51
NtRp3716
(dp3717
g54
(dp3718
sg63
g3703
sg56
(lp3719
g49
(g50
g51
NtRp3720
(dp3721
g54
(dp3722
g62
I5
ssg63
g3716
sg56
(lp3723
g49
(g58
g51
NtRp3724
(dp3725
g54
(dp3726
g62
I4
ssg63
Nsg56
(lp3727
g49
(g65
g51
NtRp3728
(dp3729
g54
(dp3730
sg63
g3724
sg56
(lp3731
g49
(g70
g51
NtRp3732
(dp3733
g54
(dp3734
g74
g75
ssg63
g3728
sg56
(lp3735
S'Cache-Control'
p3736
asbag49
(g70
g51
NtRp3737
(dp3738
g54
(dp3739
g81
g82
ssg63
g3728
sg56
(lp3740
S':'
asbag49
(g70
g51
NtRp3741
(dp3742
g54
(dp3743
sg63
g3728
sg56
(lp3744
g49
(g50
g51
NtRp3745
(dp3746
g54
(dp3747
g62
I4
ssg63
g3741
sg56
(lp3748
S'no-store, no-cache, must-revalidate, post-check=0, pre-check=0'
p3749
asbasbasbag49
(g65
g51
NtRp3750
(dp3751
g54
(dp3752
sg63
g3724
sg56
(lp3753
g49
(g70
g51
NtRp3754
(dp3755
g54
(dp3756
g74
g75
ssg63
g3750
sg56
(lp3757
S'Content-Type'
p3758
asbag49
(g70
g51
NtRp3759
(dp3760
g54
(dp3761
g81
g82
ssg63
g3750
sg56
(lp3762
S':'
asbag49
(g70
g51
NtRp3763
(dp3764
g54
(dp3765
sg63
g3750
sg56
(lp3766
g49
(g50
g51
NtRp3767
(dp3768
g54
(dp3769
g62
I4
ssg63
g3763
sg56
(lp3770
S'text/html; charset=utf-8'
p3771
asbasbasbag49
(g65
g51
NtRp3772
(dp3773
g54
(dp3774
sg63
g3724
sg56
(lp3775
g49
(g70
g51
NtRp3776
(dp3777
g54
(dp3778
g74
g75
ssg63
g3772
sg56
(lp3779
S'Expires'
p3780
asbag49
(g70
g51
NtRp3781
(dp3782
g54
(dp3783
g81
g82
ssg63
g3772
sg56
(lp3784
S':'
asbag49
(g70
g51
NtRp3785
(dp3786
g54
(dp3787
sg63
g3772
sg56
(lp3788
g49
(g50
g51
NtRp3789
(dp3790
g54
(dp3791
g62
I4
ssg63
g3785
sg56
(lp3792
S'Mon, 12 Mar 2012 13:51:09 GMT'
p3793
asbasbasbag49
(g65
g51
NtRp3794
(dp3795
g54
(dp3796
sg63
g3724
sg56
(lp3797
g49
(g70
g51
NtRp3798
(dp3799
g54
(dp3800
g74
g75
ssg63
g3794
sg56
(lp3801
S'Pragma'
p3802
asbag49
(g70
g51
NtRp3803
(dp3804
g54
(dp3805
g81
g82
ssg63
g3794
sg56
(lp3806
S':'
asbag49
(g70
g51
NtRp3807
(dp3808
g54
(dp3809
sg63
g3794
sg56
(lp3810
g49
(g50
g51
NtRp3811
(dp3812
g54
(dp3813
g62
I4
ssg63
g3807
sg56
(lp3814
S'no-cache'
p3815
asbasbasbag49
(g65
g51
NtRp3816
(dp3817
g54
(dp3818
sg63
g3724
sg56
(lp3819
g49
(g70
g51
NtRp3820
(dp3821
g54
(dp3822
g74
g75
ssg63
g3816
sg56
(lp3823
S'X-Powered-By'
p3824
asbag49
(g70
g51
NtRp3825
(dp3826
g54
(dp3827
g81
g82
ssg63
g3816
sg56
(lp3828
S':'
asbag49
(g70
g51
NtRp3829
(dp3830
g54
(dp3831
sg63
g3816
sg56
(lp3832
g49
(g50
g51
NtRp3833
(dp3834
g54
(dp3835
g62
I4
ssg63
g3829
sg56
(lp3836
S'web2py'
p3837
asbasbasbasbasbasbasbag49
(g65
g51
NtRp3838
(dp3839
g54
(dp3840
sg63
g3225
sg56
(lp3841
g49
(g70
g51
NtRp3842
(dp3843
g54
(dp3844
g74
g75
ssg63
g3838
sg56
(lp3845
S'menu'
p3846
asbag49
(g70
g51
NtRp3847
(dp3848
g54
(dp3849
g81
g82
ssg63
g3838
sg56
(lp3850
S':'
asbag49
(g70
g51
NtRp3851
(dp3852
g54
(dp3853
sg63
g3838
sg56
(lp3854
g49
(g50
g51
NtRp3855
(dp3856
g54
(dp3857
g62
I5
ssg63
g3851
sg56
(lp3858
g49
(g58
g51
NtRp3859
(dp3860
g54
(dp3861
g62
I4
ssg63
Nsg56
(lp3862
g49
(g65
g51
NtRp3863
(dp3864
g54
(dp3865
sg63
g3859
sg56
(lp3866
g49
(g70
g51
NtRp3867
(dp3868
g54
(dp3869
sg63
g3863
sg56
(lp3870
g49
(g50
g51
NtRp3871
(dp3872
g54
(dp3873
g62
I4
ssg63
g3867
sg56
(lp3874
g49
(g58
g51
NtRp3875
(dp3876
g54
(dp3877
g62
I3
ssg63
Nsg56
(lp3878
g49
(g65
g51
NtRp3879
(dp3880
g54
(dp3881
sg63
g3875
sg56
(lp3882
g49
(g70
g51
NtRp3883
(dp3884
g54
(dp3885
sg63
g3879
sg56
(lp3886
g49
(g50
g51
NtRp3887
(dp3888
g54
(dp3889
g62
I3
ssg63
g3883
sg56
(lp3890
cgluon.languages
lazyT_unpickle
p3891
(S't\x04\x00\x00\x00Home'
tRp3892
asbasbasbag49
(g65
g51
NtRp3893
(dp3894
g54
(dp3895
sg63
g3875
sg56
(lp3896
g49
(g70
g51
NtRp3897
(dp3898
g54
(dp3899
sg63
g3893
sg56
(lp3900
g49
(g50
g51
NtRp3901
(dp3902
g54
(dp3903
g62
I3
ssg63
g3897
sg56
(lp3904
g92
asbasbasbag49
(g65
g51
NtRp3905
(dp3906
g54
(dp3907
sg63
g3875
sg56
(lp3908
g49
(g70
g51
NtRp3909
(dp3910
g54
(dp3911
sg63
g3905
sg56
(lp3912
g49
(g50
g51
NtRp3913
(dp3914
g54
(dp3915
g62
I3
ssg63
g3909
sg56
(lp3916
S'/parleyweb/default/index'
p3917
asbasbasbag49
(g65
g51
NtRp3918
(dp3919
g54
(dp3920
sg63
g3875
sg56
(lp3921
g49
(g70
g51
NtRp3922
(dp3923
g54
(dp3924
sg63
g3918
sg56
(lp3925
g49
(g50
g51
NtRp3926
(dp3927
g54
(dp3928
g62
I3
ssg63
g3922
sg56
(lp3929
g49
(g58
g51
NtRp3930
(dp3931
g54
(dp3932
g62
I2
ssg63
Nsg56
(lp3933
sbasbasbasbasbasbasbasbasbasbasbasbag49
(g65
g51
NtRp3934
(dp3935
g54
(dp3936
sg63
g3225
sg56
(lp3937
g49
(g70
g51
NtRp3938
(dp3939
g54
(dp3940
g74
g75
ssg63
g3934
sg56
(lp3941
S'meta'
p3942
asbag49
(g70
g51
NtRp3943
(dp3944
g54
(dp3945
g81
g82
ssg63
g3934
sg56
(lp3946
S':'
asbag49
(g70
g51
NtRp3947
(dp3948
g54
(dp3949
sg63
g3934
sg56
(lp3950
g49
(g50
g51
NtRp3951
(dp3952
g54
(dp3953
g62
I5
ssg63
g3947
sg56
(lp3954
g49
(g58
g51
NtRp3955
(dp3956
g54
(dp3957
g62
I4
ssg63
Nsg56
(lp3958
g49
(g65
g51
NtRp3959
(dp3960
g54
(dp3961
sg63
g3955
sg56
(lp3962
g49
(g70
g51
NtRp3963
(dp3964
g54
(dp3965
g74
g75
ssg63
g3959
sg56
(lp3966
S'author'
p3967
asbag49
(g70
g51
NtRp3968
(dp3969
g54
(dp3970
g81
g82
ssg63
g3959
sg56
(lp3971
S':'
asbag49
(g70
g51
NtRp3972
(dp3973
g54
(dp3974
sg63
g3959
sg56
(lp3975
g49
(g50
g51
NtRp3976
(dp3977
g54
(dp3978
g62
I4
ssg63
g3972
sg56
(lp3979
S'Your Name <you@example.com>'
p3980
asbasbasbag49
(g65
g51
NtRp3981
(dp3982
g54
(dp3983
sg63
g3955
sg56
(lp3984
g49
(g70
g51
NtRp3985
(dp3986
g54
(dp3987
g74
g75
ssg63
g3981
sg56
(lp3988
S'copyright'
p3989
asbag49
(g70
g51
NtRp3990
(dp3991
g54
(dp3992
g81
g82
ssg63
g3981
sg56
(lp3993
S':'
asbag49
(g70
g51
NtRp3994
(dp3995
g54
(dp3996
sg63
g3981
sg56
(lp3997
g49
(g50
g51
NtRp3998
(dp3999
g54
(dp4000
g62
I4
ssg63
g3994
sg56
(lp4001
S'Copyright 2011'
p4002
asbasbasbag49
(g65
g51
NtRp4003
(dp4004
g54
(dp4005
sg63
g3955
sg56
(lp4006
g49
(g70
g51
NtRp4007
(dp4008
g54
(dp4009
g74
g75
ssg63
g4003
sg56
(lp4010
S'description'
p4011
asbag49
(g70
g51
NtRp4012
(dp4013
g54
(dp4014
g81
g82
ssg63
g4003
sg56
(lp4015
S':'
asbag49
(g70
g51
NtRp4016
(dp4017
g54
(dp4018
sg63
g4003
sg56
(lp4019
g49
(g50
g51
NtRp4020
(dp4021
g54
(dp4022
g62
I4
ssg63
g4016
sg56
(lp4023
S'a cool new app'
p4024
asbasbasbag49
(g65
g51
NtRp4025
(dp4026
g54
(dp4027
sg63
g3955
sg56
(lp4028
g49
(g70
g51
NtRp4029
(dp4030
g54
(dp4031
g74
g75
ssg63
g4025
sg56
(lp4032
S'generator'
p4033
asbag49
(g70
g51
NtRp4034
(dp4035
g54
(dp4036
g81
g82
ssg63
g4025
sg56
(lp4037
S':'
asbag49
(g70
g51
NtRp4038
(dp4039
g54
(dp4040
sg63
g4025
sg56
(lp4041
g49
(g50
g51
NtRp4042
(dp4043
g54
(dp4044
g62
I4
ssg63
g4038
sg56
(lp4045
S'Web2py Web Framework'
p4046
asbasbasbag49
(g65
g51
NtRp4047
(dp4048
g54
(dp4049
sg63
g3955
sg56
(lp4050
g49
(g70
g51
NtRp4051
(dp4052
g54
(dp4053
g74
g75
ssg63
g4047
sg56
(lp4054
S'keywords'
p4055
asbag49
(g70
g51
NtRp4056
(dp4057
g54
(dp4058
g81
g82
ssg63
g4047
sg56
(lp4059
S':'
asbag49
(g70
g51
NtRp4060
(dp4061
g54
(dp4062
sg63
g4047
sg56
(lp4063
g49
(g50
g51
NtRp4064
(dp4065
g54
(dp4066
g62
I4
ssg63
g4060
sg56
(lp4067
S'web2py, python, framework'
p4068
asbasbasbasbasbasbasbag49
(g65
g51
NtRp4069
(dp4070
g54
(dp4071
sg63
g3225
sg56
(lp4072
g49
(g70
g51
NtRp4073
(dp4074
g54
(dp4075
g74
g75
ssg63
g4069
sg56
(lp4076
S'postprocessing'
p4077
asbag49
(g70
g51
NtRp4078
(dp4079
g54
(dp4080
g81
g82
ssg63
g4069
sg56
(lp4081
S':'
asbag49
(g70
g51
NtRp4082
(dp4083
g54
(dp4084
sg63
g4069
sg56
(lp4085
g49
(g50
g51
NtRp4086
(dp4087
g54
(dp4088
g62
I5
ssg63
g4082
sg56
(lp4089
g49
(g58
g51
NtRp4090
(dp4091
g54
(dp4092
g62
I4
ssg63
Nsg56
(lp4093
sbasbasbasbag49
(g65
g51
NtRp4094
(dp4095
g54
(dp4096
sg63
g3225
sg56
(lp4097
g49
(g70
g51
NtRp4098
(dp4099
g54
(dp4100
g74
g75
ssg63
g4094
sg56
(lp4101
S'session_file'
p4102
asbag49
(g70
g51
NtRp4103
(dp4104
g54
(dp4105
g81
g82
ssg63
g4094
sg56
(lp4106
S':'
asbag49
(g70
g51
NtRp4107
(dp4108
g54
(dp4109
sg63
g4094
sg56
(lp4110
g49
(g50
g51
NtRp4111
(dp4112
g54
(dp4113
g62
I5
ssg63
g4107
sg56
(lp4114
S"<open file 'D:\\Dise\xf1o Web\\Proyectos\\Parleyweb\\web2py\\applications\\parleyweb\\sessions\\127.0.0.1-2049810e-c086-402c-857f-06991c56216c', mode 'rb+' at 0x06E9E920>"
p4115
asbasbasbag49
(g65
g51
NtRp4116
(dp4117
g54
(dp4118
sg63
g3225
sg56
(lp4119
g49
(g70
g51
NtRp4120
(dp4121
g54
(dp4122
g74
g75
ssg63
g4116
sg56
(lp4123
S'session_filename'
p4124
asbag49
(g70
g51
NtRp4125
(dp4126
g54
(dp4127
g81
g82
ssg63
g4116
sg56
(lp4128
S':'
asbag49
(g70
g51
NtRp4129
(dp4130
g54
(dp4131
sg63
g4116
sg56
(lp4132
g49
(g50
g51
NtRp4133
(dp4134
g54
(dp4135
g62
I5
ssg63
g4129
sg56
(lp4136
S'D:\\Dise\xf1o Web\\Proyectos\\Parleyweb\\web2py\\applications\\parleyweb\\sessions\\127.0.0.1-2049810e-c086-402c-857f-06991c56216c'
p4137
asbasbasbag49
(g65
g51
NtRp4138
(dp4139
g54
(dp4140
sg63
g3225
sg56
(lp4141
g49
(g70
g51
NtRp4142
(dp4143
g54
(dp4144
g74
g75
ssg63
g4138
sg56
(lp4145
S'session_id'
p4146
asbag49
(g70
g51
NtRp4147
(dp4148
g54
(dp4149
g81
g82
ssg63
g4138
sg56
(lp4150
S':'
asbag49
(g70
g51
NtRp4151
(dp4152
g54
(dp4153
sg63
g4138
sg56
(lp4154
g49
(g50
g51
NtRp4155
(dp4156
g54
(dp4157
g62
I5
ssg63
g4151
sg56
(lp4158
S'127.0.0.1-2049810e-c086-402c-857f-06991c56216c'
p4159
asbasbasbag49
(g65
g51
NtRp4160
(dp4161
g54
(dp4162
sg63
g3225
sg56
(lp4163
g49
(g70
g51
NtRp4164
(dp4165
g54
(dp4166
g74
g75
ssg63
g4160
sg56
(lp4167
S'session_id_name'
p4168
asbag49
(g70
g51
NtRp4169
(dp4170
g54
(dp4171
g81
g82
ssg63
g4160
sg56
(lp4172
S':'
asbag49
(g70
g51
NtRp4173
(dp4174
g54
(dp4175
sg63
g4160
sg56
(lp4176
g49
(g50
g51
NtRp4177
(dp4178
g54
(dp4179
g62
I5
ssg63
g4173
sg56
(lp4180
g3282
asbasbasbag49
(g65
g51
NtRp4181
(dp4182
g54
(dp4183
sg63
g3225
sg56
(lp4184
g49
(g70
g51
NtRp4185
(dp4186
g54
(dp4187
g74
g75
ssg63
g4181
sg56
(lp4188
S'session_locked'
p4189
asbag49
(g70
g51
NtRp4190
(dp4191
g54
(dp4192
g81
g82
ssg63
g4181
sg56
(lp4193
S':'
asbag49
(g70
g51
NtRp4194
(dp4195
g54
(dp4196
sg63
g4181
sg56
(lp4197
g49
(g50
g51
NtRp4198
(dp4199
g54
(dp4200
g62
I5
ssg63
g4194
sg56
(lp4201
g1787
asbasbasbag49
(g65
g51
NtRp4202
(dp4203
g54
(dp4204
sg63
g3225
sg56
(lp4205
g49
(g70
g51
NtRp4206
(dp4207
g54
(dp4208
g74
g75
ssg63
g4202
sg56
(lp4209
S'session_new'
p4210
asbag49
(g70
g51
NtRp4211
(dp4212
g54
(dp4213
g81
g82
ssg63
g4202
sg56
(lp4214
S':'
asbag49
(g70
g51
NtRp4215
(dp4216
g54
(dp4217
sg63
g4202
sg56
(lp4218
g49
(g50
g51
NtRp4219
(dp4220
g54
(dp4221
g62
I5
ssg63
g4215
sg56
(lp4222
g92
asbasbasbag49
(g65
g51
NtRp4223
(dp4224
g54
(dp4225
sg63
g3225
sg56
(lp4226
g49
(g70
g51
NtRp4227
(dp4228
g54
(dp4229
g74
g75
ssg63
g4223
sg56
(lp4230
S'status'
p4231
asbag49
(g70
g51
NtRp4232
(dp4233
g54
(dp4234
g81
g82
ssg63
g4223
sg56
(lp4235
S':'
asbag49
(g70
g51
NtRp4236
(dp4237
g54
(dp4238
sg63
g4223
sg56
(lp4239
g49
(g50
g51
NtRp4240
(dp4241
g54
(dp4242
g62
I5
ssg63
g4236
sg56
(lp4243
S'200'
p4244
asbasbasbag49
(g65
g51
NtRp4245
(dp4246
g54
(dp4247
sg63
g3225
sg56
(lp4248
g49
(g70
g51
NtRp4249
(dp4250
g54
(dp4251
g74
g75
ssg63
g4245
sg56
(lp4252
S'subtitle'
p4253
asbag49
(g70
g51
NtRp4254
(dp4255
g54
(dp4256
g81
g82
ssg63
g4245
sg56
(lp4257
S':'
asbag49
(g70
g51
NtRp4258
(dp4259
g54
(dp4260
sg63
g4245
sg56
(lp4261
g49
(g50
g51
NtRp4262
(dp4263
g54
(dp4264
g62
I5
ssg63
g4258
sg56
(lp4265
g3891
(S's\t\x00\x00\x00Adaptame!'
tRp4266
asbasbasbag49
(g65
g51
NtRp4267
(dp4268
g54
(dp4269
sg63
g3225
sg56
(lp4270
g49
(g70
g51
NtRp4271
(dp4272
g54
(dp4273
g74
g75
ssg63
g4267
sg56
(lp4274
S'title'
p4275
asbag49
(g70
g51
NtRp4276
(dp4277
g54
(dp4278
g81
g82
ssg63
g4267
sg56
(lp4279
S':'
asbag49
(g70
g51
NtRp4280
(dp4281
g54
(dp4282
sg63
g4267
sg56
(lp4283
g49
(g50
g51
NtRp4284
(dp4285
g54
(dp4286
g62
I5
ssg63
g4280
sg56
(lp4287
S'Parleyweb'
p4288
asbasbasbag49
(g65
g51
NtRp4289
(dp4290
g54
(dp4291
sg63
g3225
sg56
(lp4292
g49
(g70
g51
NtRp4293
(dp4294
g54
(dp4295
g74
g75
ssg63
g4289
sg56
(lp4296
g2473
asbag49
(g70
g51
NtRp4297
(dp4298
g54
(dp4299
g81
g82
ssg63
g4289
sg56
(lp4300
S':'
asbag49
(g70
g51
NtRp4301
(dp4302
g54
(dp4303
sg63
g4289
sg56
(lp4304
g49
(g50
g51
NtRp4305
(dp4306
g54
(dp4307
g62
I5
ssg63
g4301
sg56
(lp4308
g2486
asbasbasbag49
(g65
g51
NtRp4309
(dp4310
g54
(dp4311
sg63
g3225
sg56
(lp4312
g49
(g70
g51
NtRp4313
(dp4314
g54
(dp4315
g74
g75
ssg63
g4309
sg56
(lp4316
S'view'
p4317
asbag49
(g70
g51
NtRp4318
(dp4319
g54
(dp4320
g81
g82
ssg63
g4309
sg56
(lp4321
S':'
asbag49
(g70
g51
NtRp4322
(dp4323
g54
(dp4324
sg63
g4309
sg56
(lp4325
g49
(g50
g51
NtRp4326
(dp4327
g54
(dp4328
g62
I5
ssg63
g4322
sg56
(lp4329
S'default/mostrar.html'
p4330
asbasbasbasbasbsS'locals'
p4331
(dp4332
S'self'
p4333
S"<Row {'tipo': 'verbo', 'update_record': <functio...lete_record': <function <lambda> at 0x0666FE70>}>"
p4334
sS'm'
S'None'
p4335
sS'key'
p4336
S"'ejemplos'"
p4337
sssS'traceback'
p4338
S'Traceback (most recent call last):\n  File "gluon/restricted.py", line 205, in restricted\n  File "D:\\Dise\xf1o Web\\Proyectos\\Parleyweb\\web2py\\applications\\parleyweb\\views\\default/mostrar.html", line 76, in <module>\n  File "gluon/dal.py", line 5657, in __getattr__\n  File "gluon/dal.py", line 5648, in __getitem__\nKeyError: \'ejemplos\'\n'
p4339
s.