(dp1
S'output'
p2
S"<type 'exceptions.KeyError'> 'glosario'"
p3
sS'layer'
p4
S'D:\\Dise\xf1o Web\\Proyectos\\Parleyweb\\web2py\\applications\\webparley\\models\\db.py'
p5
sS'code'
p6
S'# -*- coding: utf-8 -*-\n\n#########################################################################\n## This scaffolding model makes your app work on Google App Engine too\n## File is released under public domain and you can use without limitations\n#########################################################################\n\n## if SSL/HTTPS is properly configured and you want all HTTP requests to\n## be redirected to HTTPS, uncomment the line below:\n# request.requires_https()\n\nif not request.env.web2py_runtime_gae:\n    ## if NOT running on Google App Engine use SQLite or other DB\n    db = DAL(\'sqlite://storage.sqlite\')\nelse:\n    ## connect to Google BigTable (optional \'google:datastore://namespace\')\n    db = DAL(\'google:datastore\')\n    ## store sessions and tickets there\n    session.connect(request, response, db = db)\n    ## or store session in Memcache, Redis, etc.\n    ## from gluon.contrib.memdb import MEMDB\n    ## from google.appengine.api.memcache import Client\n    ## session.connect(request, response, db = MEMDB(Client()))\n\n## by default give a view/generic.extension to all actions from localhost\n## none otherwise. a pattern can be \'controller/function.extension\'\nresponse.generic_patterns = [\'*\'] if request.is_local else []\n## (optional) optimize handling of static files\n# response.optimize_css = \'concat,minify,inline\'\n# response.optimize_js = \'concat,minify,inline\'\n\n#########################################################################\n## Here is sample code if you need for\n## - email capabilities\n## - authentication (registration, login, logout, ... )\n## - authorization (role based authorization)\n## - services (xml, csv, json, xmlrpc, jsonrpc, amf, rss)\n## - old style crud actions\n## (more options discussed in gluon/tools.py)\n#########################################################################\n\nfrom gluon.tools import Auth, Crud, Service, PluginManager, prettydate\nauth = Auth(db, hmac_key=Auth.get_or_create_key())\ncrud, service, plugins = Crud(db), Service(), PluginManager()\n\n\n\n## create all tables needed by auth if not custom tables\nauth.define_tables()\n\n## configure email\nmail=auth.settings.mailer\nmail.settings.server = \'logging\' or \'smtp.gmail.com:587\'\nmail.settings.sender = \'you@gmail.com\'\nmail.settings.login = \'username:password\'\n\n## configure auth policy\nauth.settings.registration_requires_verification = False\nauth.settings.registration_requires_approval = False\nauth.settings.reset_password_requires_verification = True\n\n## if you need to use OpenID, Facebook, MySpace, Twitter, Linkedin, etc.\n## register with janrain.com, write your domain:api_key in private/janrain.key\nfrom gluon.contrib.login_methods.rpx_account import use_janrain\nuse_janrain(auth,filename=\'private/janrain.key\')\n\n#########################################################################\n## Define your tables below (or better in another model file) for example\n##\n## >>> db.define_table(\'mytable\',Field(\'myfield\',\'string\'))\n##\n## Fields can be \'string\',\'text\',\'password\',\'integer\',\'double\',\'boolean\'\n##       \'date\',\'time\',\'datetime\',\'blob\',\'upload\', \'reference TABLENAME\'\n## There is an implicit \'id integer autoincrement\' field\n## Consult manual for more options, validators, etc.\n##\n## More API examples for controllers:\n##\n## >>> db.mytable.insert(myfield=\'value\')\n## >>> rows=db(db.mytable.myfield==\'value\').select(db.mytable.ALL)\n## >>> for row in rows: print row.id, row.myfield\n#########################################################################\ndb.define_table(\'Tag\',\n   Field(\'Name\', unique=True),\n   format = \'%(Name)s\')\n\ndb.define_table(\'Image\',\n   Field(\'Nom\'),\n   Field(\'Date_Creation\', \'date\'),\n   Field(\'Tag\',\'list:reference Tag\'),\n   format = \'%(Nom)s\')\n\n\ndb.define_table(\'glosarios\',\n                Field(\'nombre_glosario\', unique=True), # no puede estar repetido\n                #Field(\'descripcion_glosario\',  widget=SQLFORM.widgets.text.widget), #poner widget mostrar como campo text\n                format = \'%(nombre_glosario)s%(descripcion_glosario)s\'\n                )\n\ndb.define_table(\'palabras\',\n                Field(\'palabra\', \'string\', unique=True),\n                Field(\'sustantivo\', \'boolean\'),\n                Field(\'articulo\'),\n                Field(\'plural\', \'string\'),\n                Field(\'imagen\', \'upload\'),\n                Field(\'adverbio\', \'boolean\'),\n                Field(\'adjetivo\', \'boolean\'),\n                # verbo\n                Field(\'verbo\', \'boolean\'),\n                Field(\'verbo_irregular\', \'boolean\'),\n                Field(\'participio2\', \'string\'),\n                Field(\'reflexivo\', \'boolean\'),\n                Field(\'presente_1\'),\n                Field(\'presente_2\'),\n                Field(\'presente_3\'),\n                Field(\'presente_1_p\'),\n                Field(\'presente_2_p\'),\n                Field(\'presente_3_p\'),\n                Field(\'anadir_glosario\', \'boolean\'),\n                \n                )\n\ndb.define_table(\'fuentes\',\n                Field(\'nombre\', \'string\')\n                )\n\ndb.define_table(\'ejemplos\',\n                Field(\'ejemplo_de\', \'text\'),  # no puede estar vacio\n                Field(\'ejemplo_es\', \'text\'),   # puede estar vacio\n                Field(\'adverbio\', \'boolean\'),\n                Field(\'verbo\', \'boolean\'),\n                Field(\'adjetivo\', \'boolean\'),\n                Field(\'sustantivo\', \'boolean\'),\n                Field(\'preposicion\', \'boolean\'),\n                Field(\'fuente\', db.fuentes)\n                )\ndb.define_table(\'palabra_ejemplo\',  # refereciada por los Id\n                Field(\'palabra\', db.palabras),   # no puede estar vacio\n                Field(\'ejemplo\', db.ejemplos))   # no puede estar vacio\n\n## Tablas para los widget de autocompletar ##\n\ndb.define_table(\'autocompletar_palabra\',\n                Field(\'palabra\')\n                )\n\ndb.define_table(\'busqueda\',\n                 Field(\'buscar_palabra\')\n                 )\n\ndb.define_table(\'busqueda_front\',\n                 Field(\'buscar_palabra\')\n                 )\n\n### Validacion glosario referece ###\n#db.palabras.glosario.requires = IS_IN_DB(db,\'glosarios.id\',db.glosarios._format,multiple=True)\n\n\n### Validaciones tabla glosario ###\n#db.glosarios.nombre_glosario.requires = IS_NOT_IN_DB(db,\'glosarios.nombre_glosario\')\n\n### Autocompletar palabra ###\n#db.autocompletar_palabra.palabra.widget = SQLFORM.widgets.autocomplete(\n  #   request, db.palabras.palabra, limitby=(0,10), min_length=1)\n\n### Autocompletar busqueda ###\ndb.busqueda.buscar_palabra.widget = SQLFORM.widgets.autocomplete(\n     request, db.palabras.palabra, limitby=(0,10), min_length=1)\n\n### Autocompletar busqueda front ###\ndb.busqueda_front.buscar_palabra.widget = SQLFORM.widgets.autocomplete(\n     request, db.palabras.palabra, limitby=(0,10), min_length=1)\n\n\n### Validacion tabla palabras ###\n#db.palabras.palabra.represent = lambda palabra: palabra.capitalize()\ndb.palabras.articulo.requires = IS_EMPTY_OR(IS_IN_SET([\'Die\', \'Der\', \'Das\'],zero=T(\'Elige uno\'),\n         error_message=T(\'Elige Die, Der o Das\')))\ndb.palabras.glosario.requires = IS_EMPTY_OR(IS_IN_DB(db, \'glosarios.id\', \'%(nombre_glosario)s\'))\n\n\n \n### WIDGET AUTOCOMPLETAR para la tabla fuentes ###\ndb.ejemplos.fuente.widget = SQLFORM.widgets.autocomplete(\n     request, db.fuentes.nombre, id_field=db.fuentes.id, min_length=1)\ndb.fuentes.nombre.requires = IS_NOT_EMPTY()\n\n### Validierung EJEMPLOS ###\ndb.ejemplos.ejemplo_de.requires = IS_NOT_EMPTY()\ndb.ejemplos.ejemplo_es.requires = IS_NOT_EMPTY()\n\n\n### WIDGET AUTOCOMPLETAR para la tabla palabra_ejemplo ###\ndb.palabra_ejemplo.palabra.widget = SQLFORM.widgets.autocomplete(\n     request, db.palabras.palabra, id_field=db.palabras.id, min_length=1)\ndb.palabra_ejemplo.ejemplo.widget = SQLFORM.widgets.autocomplete(\n     request, db.ejemplos.ejemplo_de, id_field=db.ejemplos.id, min_length=1)\n\n### Caja de busqueda de palabra administracion ###\nform_busqueda_palabra_admin = SQLFORM(db.busqueda, formstyle=\'divs\', _id="buscar_palabra_admin", submit_button=\'Enviar\')\nif form_busqueda_palabra_admin.accepts(request.vars, session, dbio=False): # metodo para validar las entradas del formulario, dbio=False no guarda en la bases de datos\n    a = db(db.palabras.palabra==request.post_vars.buscar_palabra).select().first()\n    if not a:\n        redirect(URL(\'agregar_palabra\', vars=dict(a=request.post_vars.buscar_palabra)))\n        \n    else:\n        id_palabra = db(db.palabras.palabra==request.post_vars.buscar_palabra).select().first()\n        redirect(URL(\'mostrar_palabra\', args=id_palabra.id))\n        \n### Caja de busqueda de palabra la pagina principal ###\nform_busqueda_palabra_front = SQLFORM(db.busqueda_front, formstyle=\'divs\', _id="buscar_palabra_front", submit_button=\'Buscar\')\nif form_busqueda_palabra_front.accepts(request.vars, session, dbio=False): # metodo para validar las entradas del formulario, dbio=False no guarda en la bases de datos\n    a = db(db.palabras.palabra==request.post_vars.buscar_palabra).select().first()\n    if not a:\n        session.flash = "Palabra no existe"\n    else:\n        id_palabra = db(db.palabras.palabra==request.post_vars.buscar_palabra).select().first()\n        redirect(URL(\'default\', \'mostrar\', args=id_palabra.id))\n\n\n\n\n####################################################################\n#                    Codigo para pegar y copiar\n#\n# db.palabras.palabra.requires = IS_NOT_IN_DB(db,\'palabras.palabra\') << Devuelve un error si el campo se encuentra en la DB o si estas vacio. tambien se le debe colocar el  unique=True  >> \n# db.palabras.palabra.requires = IS_NOT_EMPTY() << no es necesario si se usa este validador >>\n# db.palabra_ejemplo.ejemplo.requires = IS_IN_DB(db, \'ejemplo.id\', \'%(ejemplo)s\') << este validador crea una lista >>\n# db.palabras.articulo.requires = IS_IN_SET([\'Die\', \'Der\', \'Das\'],zero=T(\'Elige uno\'), error_message=T(\'Elige Die, Der o Das\'))\n#  db.busqueda.buscar_palabra.widget = SQLFORM.widgets.autocomplete(request, db.palabras.palabra, limitby=(0,10), min_length=2)      \n#db.busqueda.buscar_palabra.widget = SQLFORM.widgets.autocomplete(request, db.palabras.palabra, id_field=db.palabras.id, min_length=1)\n#\n#\n#\n#\n#\n#\n#\n#\n#\n#\n#\n#\n#\n\n'
p7
sS'snapshot'
p8
(dp9
S'exception'
p10
(dp11
S'__hash__'
p12
S"<method-wrapper '__hash__' of exceptions.KeyError object at 0x05FDCAA8>"
p13
sS'__setattr__'
p14
S"<method-wrapper '__setattr__' of exceptions.KeyError object at 0x05FDCAA8>"
p15
sS'__reduce_ex__'
p16
S'<built-in method __reduce_ex__ of exceptions.KeyError object at 0x05FDCAA8>'
p17
sS'__getslice__'
p18
S"<method-wrapper '__getslice__' of exceptions.KeyError object at 0x05FDCAA8>"
p19
sS'__getitem__'
p20
S"<method-wrapper '__getitem__' of exceptions.KeyError object at 0x05FDCAA8>"
p21
sS'__setstate__'
p22
S'<built-in method __setstate__ of exceptions.KeyError object at 0x05FDCAA8>'
p23
sS'__reduce__'
p24
S'<built-in method __reduce__ of exceptions.KeyError object at 0x05FDCAA8>'
p25
sS'__str__'
p26
S"<method-wrapper '__str__' of exceptions.KeyError object at 0x05FDCAA8>"
p27
sS'args'
p28
S"('glosario',)"
p29
sS'__getattribute__'
p30
S"<method-wrapper '__getattribute__' of exceptions.KeyError object at 0x05FDCAA8>"
p31
sS'__class__'
p32
S"<type 'exceptions.KeyError'>"
p33
sS'__delattr__'
p34
S"<method-wrapper '__delattr__' of exceptions.KeyError object at 0x05FDCAA8>"
p35
sS'__repr__'
p36
S"<method-wrapper '__repr__' of exceptions.KeyError object at 0x05FDCAA8>"
p37
sS'__dict__'
p38
S'{}'
p39
sS'__doc__'
p40
S"'Mapping key not found.'"
p41
sS'__init__'
p42
S"<method-wrapper '__init__' of exceptions.KeyError object at 0x05FDCAA8>"
p43
sS'__new__'
p44
S'<built-in method __new__ of type object at 0x1E1CDFB8>'
p45
ssS'evalue'
p46
S"'glosario'"
p47
sS'request'
p48
ccopy_reg
_reconstructor
p49
(cgluon.html
BEAUTIFY
p50
c__builtin__
object
p51
NtRp52
(dp53
S'attributes'
p54
(dp55
sS'components'
p56
(lp57
g49
(cgluon.html
TABLE
p58
g51
NtRp59
(dp60
g54
(dp61
S'level'
p62
I5
ssS'parent'
p63
Nsg56
(lp64
g49
(cgluon.html
TR
p65
g51
NtRp66
(dp67
g54
(dp68
sg63
g59
sg56
(lp69
g49
(cgluon.html
TD
p70
g51
NtRp71
(dp72
g54
(dp73
S'_style'
p74
S'font-weight:bold;vertical-align:top'
p75
ssg63
g66
sg56
(lp76
S'ajax'
p77
asbag49
(g70
g51
NtRp78
(dp79
g54
(dp80
S'_valign'
p81
S'top'
p82
ssg63
g66
sg56
(lp83
S':'
asbag49
(g70
g51
NtRp84
(dp85
g54
(dp86
sg63
g66
sg56
(lp87
g49
(g50
g51
NtRp88
(dp89
g54
(dp90
g62
I5
ssg63
g84
sg56
(lp91
S'False'
p92
asbasbasbag49
(g65
g51
NtRp93
(dp94
g54
(dp95
sg63
g59
sg56
(lp96
g49
(g70
g51
NtRp97
(dp98
g54
(dp99
g74
g75
ssg63
g93
sg56
(lp100
S'application'
p101
asbag49
(g70
g51
NtRp102
(dp103
g54
(dp104
g81
g82
ssg63
g93
sg56
(lp105
S':'
asbag49
(g70
g51
NtRp106
(dp107
g54
(dp108
sg63
g93
sg56
(lp109
g49
(g50
g51
NtRp110
(dp111
g54
(dp112
g62
I5
ssg63
g106
sg56
(lp113
S'webparley'
p114
asbasbasbag49
(g65
g51
NtRp115
(dp116
g54
(dp117
sg63
g59
sg56
(lp118
g49
(g70
g51
NtRp119
(dp120
g54
(dp121
g74
g75
ssg63
g115
sg56
(lp122
g28
asbag49
(g70
g51
NtRp123
(dp124
g54
(dp125
g81
g82
ssg63
g115
sg56
(lp126
S':'
asbag49
(g70
g51
NtRp127
(dp128
g54
(dp129
sg63
g115
sg56
(lp130
g49
(g50
g51
NtRp131
(dp132
g54
(dp133
g62
I5
ssg63
g127
sg56
(lp134
g49
(g58
g51
NtRp135
(dp136
g54
(dp137
g62
I4
ssg63
Nsg56
(lp138
sbasbasbasbag49
(g65
g51
NtRp139
(dp140
g54
(dp141
sg63
g59
sg56
(lp142
g49
(g70
g51
NtRp143
(dp144
g54
(dp145
g74
g75
ssg63
g139
sg56
(lp146
S'body'
p147
asbag49
(g70
g51
NtRp148
(dp149
g54
(dp150
g81
g82
ssg63
g139
sg56
(lp151
S':'
asbag49
(g70
g51
NtRp152
(dp153
g54
(dp154
sg63
g139
sg56
(lp155
g49
(g50
g51
NtRp156
(dp157
g54
(dp158
g62
I5
ssg63
g152
sg56
(lp159
S'<cStringIO.StringO object at 0x05FC8860>'
p160
asbasbasbag49
(g65
g51
NtRp161
(dp162
g54
(dp163
sg63
g59
sg56
(lp164
g49
(g70
g51
NtRp165
(dp166
g54
(dp167
g74
g75
ssg63
g161
sg56
(lp168
S'client'
p169
asbag49
(g70
g51
NtRp170
(dp171
g54
(dp172
g81
g82
ssg63
g161
sg56
(lp173
S':'
asbag49
(g70
g51
NtRp174
(dp175
g54
(dp176
sg63
g161
sg56
(lp177
g49
(g50
g51
NtRp178
(dp179
g54
(dp180
g62
I5
ssg63
g174
sg56
(lp181
S'127.0.0.1'
p182
asbasbasbag49
(g65
g51
NtRp183
(dp184
g54
(dp185
sg63
g59
sg56
(lp186
g49
(g70
g51
NtRp187
(dp188
g54
(dp189
g74
g75
ssg63
g183
sg56
(lp190
S'controller'
p191
asbag49
(g70
g51
NtRp192
(dp193
g54
(dp194
g81
g82
ssg63
g183
sg56
(lp195
S':'
asbag49
(g70
g51
NtRp196
(dp197
g54
(dp198
sg63
g183
sg56
(lp199
g49
(g50
g51
NtRp200
(dp201
g54
(dp202
g62
I5
ssg63
g196
sg56
(lp203
S'admin'
p204
asbasbasbag49
(g65
g51
NtRp205
(dp206
g54
(dp207
sg63
g59
sg56
(lp208
g49
(g70
g51
NtRp209
(dp210
g54
(dp211
g74
g75
ssg63
g205
sg56
(lp212
S'cookies'
p213
asbag49
(g70
g51
NtRp214
(dp215
g54
(dp216
g81
g82
ssg63
g205
sg56
(lp217
S':'
asbag49
(g70
g51
NtRp218
(dp219
g54
(dp220
sg63
g205
sg56
(lp221
g49
(g50
g51
NtRp222
(dp223
g54
(dp224
g62
I5
ssg63
g218
sg56
(lp225
g49
(g58
g51
NtRp226
(dp227
g54
(dp228
g62
I4
ssg63
Nsg56
(lp229
g49
(g65
g51
NtRp230
(dp231
g54
(dp232
sg63
g226
sg56
(lp233
g49
(g70
g51
NtRp234
(dp235
g54
(dp236
g74
g75
ssg63
g230
sg56
(lp237
S'session_id_webparley'
p238
asbag49
(g70
g51
NtRp239
(dp240
g54
(dp241
g81
g82
ssg63
g230
sg56
(lp242
S':'
asbag49
(g70
g51
NtRp243
(dp244
g54
(dp245
sg63
g230
sg56
(lp246
g49
(g50
g51
NtRp247
(dp248
g54
(dp249
g62
I4
ssg63
g243
sg56
(lp250
g49
(g58
g51
NtRp251
(dp252
g54
(dp253
g62
I3
ssg63
Nsg56
(lp254
g49
(g65
g51
NtRp255
(dp256
g54
(dp257
sg63
g251
sg56
(lp258
g49
(g70
g51
NtRp259
(dp260
g54
(dp261
g74
g75
ssg63
g255
sg56
(lp262
S'comment'
p263
asbag49
(g70
g51
NtRp264
(dp265
g54
(dp266
g81
g82
ssg63
g255
sg56
(lp267
S':'
asbag49
(g70
g51
NtRp268
(dp269
g54
(dp270
sg63
g255
sg56
(lp271
g49
(g50
g51
NtRp272
(dp273
g54
(dp274
g62
I3
ssg63
g268
sg56
(lp275
S''
asbasbasbag49
(g65
g51
NtRp276
(dp277
g54
(dp278
sg63
g251
sg56
(lp279
g49
(g70
g51
NtRp280
(dp281
g54
(dp282
g74
g75
ssg63
g276
sg56
(lp283
S'domain'
p284
asbag49
(g70
g51
NtRp285
(dp286
g54
(dp287
g81
g82
ssg63
g276
sg56
(lp288
S':'
asbag49
(g70
g51
NtRp289
(dp290
g54
(dp291
sg63
g276
sg56
(lp292
g49
(g50
g51
NtRp293
(dp294
g54
(dp295
g62
I3
ssg63
g289
sg56
(lp296
S''
asbasbasbag49
(g65
g51
NtRp297
(dp298
g54
(dp299
sg63
g251
sg56
(lp300
g49
(g70
g51
NtRp301
(dp302
g54
(dp303
g74
g75
ssg63
g297
sg56
(lp304
S'expires'
p305
asbag49
(g70
g51
NtRp306
(dp307
g54
(dp308
g81
g82
ssg63
g297
sg56
(lp309
S':'
asbag49
(g70
g51
NtRp310
(dp311
g54
(dp312
sg63
g297
sg56
(lp313
g49
(g50
g51
NtRp314
(dp315
g54
(dp316
g62
I3
ssg63
g310
sg56
(lp317
S''
asbasbasbag49
(g65
g51
NtRp318
(dp319
g54
(dp320
sg63
g251
sg56
(lp321
g49
(g70
g51
NtRp322
(dp323
g54
(dp324
g74
g75
ssg63
g318
sg56
(lp325
S'max-age'
p326
asbag49
(g70
g51
NtRp327
(dp328
g54
(dp329
g81
g82
ssg63
g318
sg56
(lp330
S':'
asbag49
(g70
g51
NtRp331
(dp332
g54
(dp333
sg63
g318
sg56
(lp334
g49
(g50
g51
NtRp335
(dp336
g54
(dp337
g62
I3
ssg63
g331
sg56
(lp338
S''
asbasbasbag49
(g65
g51
NtRp339
(dp340
g54
(dp341
sg63
g251
sg56
(lp342
g49
(g70
g51
NtRp343
(dp344
g54
(dp345
g74
g75
ssg63
g339
sg56
(lp346
S'path'
p347
asbag49
(g70
g51
NtRp348
(dp349
g54
(dp350
g81
g82
ssg63
g339
sg56
(lp351
S':'
asbag49
(g70
g51
NtRp352
(dp353
g54
(dp354
sg63
g339
sg56
(lp355
g49
(g50
g51
NtRp356
(dp357
g54
(dp358
g62
I3
ssg63
g352
sg56
(lp359
S''
asbasbasbag49
(g65
g51
NtRp360
(dp361
g54
(dp362
sg63
g251
sg56
(lp363
g49
(g70
g51
NtRp364
(dp365
g54
(dp366
g74
g75
ssg63
g360
sg56
(lp367
S'secure'
p368
asbag49
(g70
g51
NtRp369
(dp370
g54
(dp371
g81
g82
ssg63
g360
sg56
(lp372
S':'
asbag49
(g70
g51
NtRp373
(dp374
g54
(dp375
sg63
g360
sg56
(lp376
g49
(g50
g51
NtRp377
(dp378
g54
(dp379
g62
I3
ssg63
g373
sg56
(lp380
S''
asbasbasbag49
(g65
g51
NtRp381
(dp382
g54
(dp383
sg63
g251
sg56
(lp384
g49
(g70
g51
NtRp385
(dp386
g54
(dp387
g74
g75
ssg63
g381
sg56
(lp388
S'version'
p389
asbag49
(g70
g51
NtRp390
(dp391
g54
(dp392
g81
g82
ssg63
g381
sg56
(lp393
S':'
asbag49
(g70
g51
NtRp394
(dp395
g54
(dp396
sg63
g381
sg56
(lp397
g49
(g50
g51
NtRp398
(dp399
g54
(dp400
g62
I3
ssg63
g394
sg56
(lp401
S''
asbasbasbasbasbasbasbasbasbasbasbag49
(g65
g51
NtRp402
(dp403
g54
(dp404
sg63
g59
sg56
(lp405
g49
(g70
g51
NtRp406
(dp407
g54
(dp408
g74
g75
ssg63
g402
sg56
(lp409
S'env'
p410
asbag49
(g70
g51
NtRp411
(dp412
g54
(dp413
g81
g82
ssg63
g402
sg56
(lp414
S':'
asbag49
(g70
g51
NtRp415
(dp416
g54
(dp417
sg63
g402
sg56
(lp418
g49
(g50
g51
NtRp419
(dp420
g54
(dp421
g62
I5
ssg63
g415
sg56
(lp422
g49
(g58
g51
NtRp423
(dp424
g54
(dp425
g62
I4
ssg63
Nsg56
(lp426
g49
(g65
g51
NtRp427
(dp428
g54
(dp429
sg63
g423
sg56
(lp430
g49
(g70
g51
NtRp431
(dp432
g54
(dp433
g74
g75
ssg63
g427
sg56
(lp434
S'app_folders'
p435
asbag49
(g70
g51
NtRp436
(dp437
g54
(dp438
g81
g82
ssg63
g427
sg56
(lp439
S':'
asbag49
(g70
g51
NtRp440
(dp441
g54
(dp442
sg63
g427
sg56
(lp443
g49
(g50
g51
NtRp444
(dp445
g54
(dp446
g62
I4
ssg63
g440
sg56
(lp447
S"set(['D:\\\\Dise\\xf1o Web\\\\Proyectos\\\\Parleyweb\\\\web2py\\\\applications\\\\webparley\\\\'])"
p448
asbasbasbag49
(g65
g51
NtRp449
(dp450
g54
(dp451
sg63
g423
sg56
(lp452
g49
(g70
g51
NtRp453
(dp454
g54
(dp455
g74
g75
ssg63
g449
sg56
(lp456
S'applications_parent'
p457
asbag49
(g70
g51
NtRp458
(dp459
g54
(dp460
g81
g82
ssg63
g449
sg56
(lp461
S':'
asbag49
(g70
g51
NtRp462
(dp463
g54
(dp464
sg63
g449
sg56
(lp465
g49
(g50
g51
NtRp466
(dp467
g54
(dp468
g62
I4
ssg63
g462
sg56
(lp469
S'D:\\Dise\xf1o Web\\Proyectos\\Parleyweb\\web2py'
p470
asbasbasbag49
(g65
g51
NtRp471
(dp472
g54
(dp473
sg63
g423
sg56
(lp474
g49
(g70
g51
NtRp475
(dp476
g54
(dp477
g74
g75
ssg63
g471
sg56
(lp478
S'cmd_args'
p479
asbag49
(g70
g51
NtRp480
(dp481
g54
(dp482
g81
g82
ssg63
g471
sg56
(lp483
S':'
asbag49
(g70
g51
NtRp484
(dp485
g54
(dp486
sg63
g471
sg56
(lp487
g49
(g50
g51
NtRp488
(dp489
g54
(dp490
g62
I4
ssg63
g484
sg56
(lp491
g49
(g58
g51
NtRp492
(dp493
g54
(dp494
g62
I3
ssg63
Nsg56
(lp495
sbasbasbasbag49
(g65
g51
NtRp496
(dp497
g54
(dp498
sg63
g423
sg56
(lp499
g49
(g70
g51
NtRp500
(dp501
g54
(dp502
g74
g75
ssg63
g496
sg56
(lp503
S'cmd_options'
p504
asbag49
(g70
g51
NtRp505
(dp506
g54
(dp507
g81
g82
ssg63
g496
sg56
(lp508
S':'
asbag49
(g70
g51
NtRp509
(dp510
g54
(dp511
sg63
g496
sg56
(lp512
g49
(g50
g51
NtRp513
(dp514
g54
(dp515
g62
I4
ssg63
g509
sg56
(lp516
S"<Values at 0x2d6c260: {'verbose': False, 'ip': '127.0.0.1', 'shutdown_timeout': 5, 'taskbar': False, 'nocron': False, 'pid_filename': 'httpserver.pid', 'maxthreads': None, 'softcron': False, 'server_name': 'craxsnet-PC', 'bpython': False, 'nogui': False, 'port': 8000, 'extcron': False, 'debuglevel': 30, 'test': None, 'folder': 'D:\\\\Dise\\xf1o Web\\\\Proyectos\\\\Parleyweb\\\\web2py', 'config': '', 'import_models': False, 'winservice': '', 'shell': None, 'run': '', 'log_filename': 'httpserver.log', 'args': [''], 'socket_timeout': 5, 'ssl_ca_certificate': None, 'scheduler': None, 'profiler_filename': None, 'ssl_private_key': '', 'password': '<ask>', 'request_queue_size': 5, 'ssl_certificate': '', 'cronjob': False, 'numthreads': None, 'quiet': False, 'interfaces': None, 'minthreads': None, 'timeout': 10, 'plain': False, 'nobanner': False}>"
p517
asbasbasbag49
(g65
g51
NtRp518
(dp519
g54
(dp520
sg63
g423
sg56
(lp521
g49
(g70
g51
NtRp522
(dp523
g54
(dp524
g74
g75
ssg63
g518
sg56
(lp525
S'db_sessions'
p526
asbag49
(g70
g51
NtRp527
(dp528
g54
(dp529
g81
g82
ssg63
g518
sg56
(lp530
S':'
asbag49
(g70
g51
NtRp531
(dp532
g54
(dp533
sg63
g518
sg56
(lp534
g49
(g50
g51
NtRp535
(dp536
g54
(dp537
g62
I4
ssg63
g531
sg56
(lp538
S'set([])'
p539
asbasbasbag49
(g65
g51
NtRp540
(dp541
g54
(dp542
sg63
g423
sg56
(lp543
g49
(g70
g51
NtRp544
(dp545
g54
(dp546
g74
g75
ssg63
g540
sg56
(lp547
S'debugging'
p548
asbag49
(g70
g51
NtRp549
(dp550
g54
(dp551
g81
g82
ssg63
g540
sg56
(lp552
S':'
asbag49
(g70
g51
NtRp553
(dp554
g54
(dp555
sg63
g540
sg56
(lp556
g49
(g50
g51
NtRp557
(dp558
g54
(dp559
g62
I4
ssg63
g553
sg56
(lp560
g92
asbasbasbag49
(g65
g51
NtRp561
(dp562
g54
(dp563
sg63
g423
sg56
(lp564
g49
(g70
g51
NtRp565
(dp566
g54
(dp567
g74
g75
ssg63
g561
sg56
(lp568
S'gluon_parent'
p569
asbag49
(g70
g51
NtRp570
(dp571
g54
(dp572
g81
g82
ssg63
g561
sg56
(lp573
S':'
asbag49
(g70
g51
NtRp574
(dp575
g54
(dp576
sg63
g561
sg56
(lp577
g49
(g50
g51
NtRp578
(dp579
g54
(dp580
g62
I4
ssg63
g574
sg56
(lp581
S'D:\\Dise\xf1o Web\\Proyectos\\Parleyweb\\web2py'
p582
asbasbasbag49
(g65
g51
NtRp583
(dp584
g54
(dp585
sg63
g423
sg56
(lp586
g49
(g70
g51
NtRp587
(dp588
g54
(dp589
g74
g75
ssg63
g583
sg56
(lp590
S'http_accept'
p591
asbag49
(g70
g51
NtRp592
(dp593
g54
(dp594
g81
g82
ssg63
g583
sg56
(lp595
S':'
asbag49
(g70
g51
NtRp596
(dp597
g54
(dp598
sg63
g583
sg56
(lp599
g49
(g50
g51
NtRp600
(dp601
g54
(dp602
g62
I4
ssg63
g596
sg56
(lp603
S'text/html,application/xhtml+xml,application/xml;q=0.9,*/*;q=0.8'
p604
asbasbasbag49
(g65
g51
NtRp605
(dp606
g54
(dp607
sg63
g423
sg56
(lp608
g49
(g70
g51
NtRp609
(dp610
g54
(dp611
g74
g75
ssg63
g605
sg56
(lp612
S'http_accept_encoding'
p613
asbag49
(g70
g51
NtRp614
(dp615
g54
(dp616
g81
g82
ssg63
g605
sg56
(lp617
S':'
asbag49
(g70
g51
NtRp618
(dp619
g54
(dp620
sg63
g605
sg56
(lp621
g49
(g50
g51
NtRp622
(dp623
g54
(dp624
g62
I4
ssg63
g618
sg56
(lp625
S'gzip, deflate'
p626
asbasbasbag49
(g65
g51
NtRp627
(dp628
g54
(dp629
sg63
g423
sg56
(lp630
g49
(g70
g51
NtRp631
(dp632
g54
(dp633
g74
g75
ssg63
g627
sg56
(lp634
S'http_accept_language'
p635
asbag49
(g70
g51
NtRp636
(dp637
g54
(dp638
g81
g82
ssg63
g627
sg56
(lp639
S':'
asbag49
(g70
g51
NtRp640
(dp641
g54
(dp642
sg63
g627
sg56
(lp643
g49
(g50
g51
NtRp644
(dp645
g54
(dp646
g62
I4
ssg63
g640
sg56
(lp647
S'es-es,de-de;q=0.8,es;q=0.6,en-us;q=0.4,en;q=0.2'
p648
asbasbasbag49
(g65
g51
NtRp649
(dp650
g54
(dp651
sg63
g423
sg56
(lp652
g49
(g70
g51
NtRp653
(dp654
g54
(dp655
g74
g75
ssg63
g649
sg56
(lp656
S'http_cache_control'
p657
asbag49
(g70
g51
NtRp658
(dp659
g54
(dp660
g81
g82
ssg63
g649
sg56
(lp661
S':'
asbag49
(g70
g51
NtRp662
(dp663
g54
(dp664
sg63
g649
sg56
(lp665
g49
(g50
g51
NtRp666
(dp667
g54
(dp668
g62
I4
ssg63
g662
sg56
(lp669
S'max-age=0'
p670
asbasbasbag49
(g65
g51
NtRp671
(dp672
g54
(dp673
sg63
g423
sg56
(lp674
g49
(g70
g51
NtRp675
(dp676
g54
(dp677
g74
g75
ssg63
g671
sg56
(lp678
S'http_connection'
p679
asbag49
(g70
g51
NtRp680
(dp681
g54
(dp682
g81
g82
ssg63
g671
sg56
(lp683
S':'
asbag49
(g70
g51
NtRp684
(dp685
g54
(dp686
sg63
g671
sg56
(lp687
g49
(g50
g51
NtRp688
(dp689
g54
(dp690
g62
I4
ssg63
g684
sg56
(lp691
S'keep-alive'
p692
asbasbasbag49
(g65
g51
NtRp693
(dp694
g54
(dp695
sg63
g423
sg56
(lp696
g49
(g70
g51
NtRp697
(dp698
g54
(dp699
g74
g75
ssg63
g693
sg56
(lp700
S'http_cookie'
p701
asbag49
(g70
g51
NtRp702
(dp703
g54
(dp704
g81
g82
ssg63
g693
sg56
(lp705
S':'
asbag49
(g70
g51
NtRp706
(dp707
g54
(dp708
sg63
g693
sg56
(lp709
g49
(g50
g51
NtRp710
(dp711
g54
(dp712
g62
I4
ssg63
g706
sg56
(lp713
S'__utma=96992031.26429765.1325029743.1325029743.1326549329.2; __utmz=96992031.1325029743.1.1.utmcsr=(direct)|utmccn=(direct)|utmcmd=(none); session_id_webparley=127.0.0.1-bc69089f-ede7-4142-9e2c-fc2ecaebea00'
p714
asbasbasbag49
(g65
g51
NtRp715
(dp716
g54
(dp717
sg63
g423
sg56
(lp718
g49
(g70
g51
NtRp719
(dp720
g54
(dp721
g74
g75
ssg63
g715
sg56
(lp722
S'http_host'
p723
asbag49
(g70
g51
NtRp724
(dp725
g54
(dp726
g81
g82
ssg63
g715
sg56
(lp727
S':'
asbag49
(g70
g51
NtRp728
(dp729
g54
(dp730
sg63
g715
sg56
(lp731
g49
(g50
g51
NtRp732
(dp733
g54
(dp734
g62
I4
ssg63
g728
sg56
(lp735
S'127.0.0.1:8000'
p736
asbasbasbag49
(g65
g51
NtRp737
(dp738
g54
(dp739
sg63
g423
sg56
(lp740
g49
(g70
g51
NtRp741
(dp742
g54
(dp743
g74
g75
ssg63
g737
sg56
(lp744
S'http_referer'
p745
asbag49
(g70
g51
NtRp746
(dp747
g54
(dp748
g81
g82
ssg63
g737
sg56
(lp749
S':'
asbag49
(g70
g51
NtRp750
(dp751
g54
(dp752
sg63
g737
sg56
(lp753
g49
(g50
g51
NtRp754
(dp755
g54
(dp756
g62
I4
ssg63
g750
sg56
(lp757
S'http://127.0.0.1:8000/webparley/admin/index'
p758
asbasbasbag49
(g65
g51
NtRp759
(dp760
g54
(dp761
sg63
g423
sg56
(lp762
g49
(g70
g51
NtRp763
(dp764
g54
(dp765
g74
g75
ssg63
g759
sg56
(lp766
S'http_user_agent'
p767
asbag49
(g70
g51
NtRp768
(dp769
g54
(dp770
g81
g82
ssg63
g759
sg56
(lp771
S':'
asbag49
(g70
g51
NtRp772
(dp773
g54
(dp774
sg63
g759
sg56
(lp775
g49
(g50
g51
NtRp776
(dp777
g54
(dp778
g62
I4
ssg63
g772
sg56
(lp779
S'Mozilla/5.0 (Windows NT 6.1; WOW64; rv:11.0) Gecko/20100101 Firefox/11.0'
p780
asbasbasbag49
(g65
g51
NtRp781
(dp782
g54
(dp783
sg63
g423
sg56
(lp784
g49
(g70
g51
NtRp785
(dp786
g54
(dp787
g74
g75
ssg63
g781
sg56
(lp788
S'is_jython'
p789
asbag49
(g70
g51
NtRp790
(dp791
g54
(dp792
g81
g82
ssg63
g781
sg56
(lp793
S':'
asbag49
(g70
g51
NtRp794
(dp795
g54
(dp796
sg63
g781
sg56
(lp797
g49
(g50
g51
NtRp798
(dp799
g54
(dp800
g62
I4
ssg63
g794
sg56
(lp801
g92
asbasbasbag49
(g65
g51
NtRp802
(dp803
g54
(dp804
sg63
g423
sg56
(lp805
g49
(g70
g51
NtRp806
(dp807
g54
(dp808
g74
g75
ssg63
g802
sg56
(lp809
S'is_pypy'
p810
asbag49
(g70
g51
NtRp811
(dp812
g54
(dp813
g81
g82
ssg63
g802
sg56
(lp814
S':'
asbag49
(g70
g51
NtRp815
(dp816
g54
(dp817
sg63
g802
sg56
(lp818
g49
(g50
g51
NtRp819
(dp820
g54
(dp821
g62
I4
ssg63
g815
sg56
(lp822
g92
asbasbasbag49
(g65
g51
NtRp823
(dp824
g54
(dp825
sg63
g423
sg56
(lp826
g49
(g70
g51
NtRp827
(dp828
g54
(dp829
g74
g75
ssg63
g823
sg56
(lp830
S'path_info'
p831
asbag49
(g70
g51
NtRp832
(dp833
g54
(dp834
g81
g82
ssg63
g823
sg56
(lp835
S':'
asbag49
(g70
g51
NtRp836
(dp837
g54
(dp838
sg63
g823
sg56
(lp839
g49
(g50
g51
NtRp840
(dp841
g54
(dp842
g62
I4
ssg63
g836
sg56
(lp843
S'/webparley/admin/agregar_palabra'
p844
asbasbasbag49
(g65
g51
NtRp845
(dp846
g54
(dp847
sg63
g423
sg56
(lp848
g49
(g70
g51
NtRp849
(dp850
g54
(dp851
g74
g75
ssg63
g845
sg56
(lp852
S'query_string'
p853
asbag49
(g70
g51
NtRp854
(dp855
g54
(dp856
g81
g82
ssg63
g845
sg56
(lp857
S':'
asbag49
(g70
g51
NtRp858
(dp859
g54
(dp860
sg63
g845
sg56
(lp861
g49
(g50
g51
NtRp862
(dp863
g54
(dp864
g62
I4
ssg63
g858
sg56
(lp865
S''
asbasbasbag49
(g65
g51
NtRp866
(dp867
g54
(dp868
sg63
g423
sg56
(lp869
g49
(g70
g51
NtRp870
(dp871
g54
(dp872
g74
g75
ssg63
g866
sg56
(lp873
S'remote_addr'
p874
asbag49
(g70
g51
NtRp875
(dp876
g54
(dp877
g81
g82
ssg63
g866
sg56
(lp878
S':'
asbag49
(g70
g51
NtRp879
(dp880
g54
(dp881
sg63
g866
sg56
(lp882
g49
(g50
g51
NtRp883
(dp884
g54
(dp885
g62
I4
ssg63
g879
sg56
(lp886
g182
asbasbasbag49
(g65
g51
NtRp887
(dp888
g54
(dp889
sg63
g423
sg56
(lp890
g49
(g70
g51
NtRp891
(dp892
g54
(dp893
g74
g75
ssg63
g887
sg56
(lp894
S'remote_port'
p895
asbag49
(g70
g51
NtRp896
(dp897
g54
(dp898
g81
g82
ssg63
g887
sg56
(lp899
S':'
asbag49
(g70
g51
NtRp900
(dp901
g54
(dp902
sg63
g887
sg56
(lp903
g49
(g50
g51
NtRp904
(dp905
g54
(dp906
g62
I4
ssg63
g900
sg56
(lp907
S'64654'
p908
asbasbasbag49
(g65
g51
NtRp909
(dp910
g54
(dp911
sg63
g423
sg56
(lp912
g49
(g70
g51
NtRp913
(dp914
g54
(dp915
g74
g75
ssg63
g909
sg56
(lp916
S'request_method'
p917
asbag49
(g70
g51
NtRp918
(dp919
g54
(dp920
g81
g82
ssg63
g909
sg56
(lp921
S':'
asbag49
(g70
g51
NtRp922
(dp923
g54
(dp924
sg63
g909
sg56
(lp925
g49
(g50
g51
NtRp926
(dp927
g54
(dp928
g62
I4
ssg63
g922
sg56
(lp929
S'GET'
p930
asbasbasbag49
(g65
g51
NtRp931
(dp932
g54
(dp933
sg63
g423
sg56
(lp934
g49
(g70
g51
NtRp935
(dp936
g54
(dp937
g74
g75
ssg63
g931
sg56
(lp938
S'request_uri'
p939
asbag49
(g70
g51
NtRp940
(dp941
g54
(dp942
g81
g82
ssg63
g931
sg56
(lp943
S':'
asbag49
(g70
g51
NtRp944
(dp945
g54
(dp946
sg63
g931
sg56
(lp947
g49
(g50
g51
NtRp948
(dp949
g54
(dp950
g62
I4
ssg63
g944
sg56
(lp951
g844
asbasbasbag49
(g65
g51
NtRp952
(dp953
g54
(dp954
sg63
g423
sg56
(lp955
g49
(g70
g51
NtRp956
(dp957
g54
(dp958
g74
g75
ssg63
g952
sg56
(lp959
S'script_name'
p960
asbag49
(g70
g51
NtRp961
(dp962
g54
(dp963
g81
g82
ssg63
g952
sg56
(lp964
S':'
asbag49
(g70
g51
NtRp965
(dp966
g54
(dp967
sg63
g952
sg56
(lp968
g49
(g50
g51
NtRp969
(dp970
g54
(dp971
g62
I4
ssg63
g965
sg56
(lp972
S''
asbasbasbag49
(g65
g51
NtRp973
(dp974
g54
(dp975
sg63
g423
sg56
(lp976
g49
(g70
g51
NtRp977
(dp978
g54
(dp979
g74
g75
ssg63
g973
sg56
(lp980
S'server_name'
p981
asbag49
(g70
g51
NtRp982
(dp983
g54
(dp984
g81
g82
ssg63
g973
sg56
(lp985
S':'
asbag49
(g70
g51
NtRp986
(dp987
g54
(dp988
sg63
g973
sg56
(lp989
g49
(g50
g51
NtRp990
(dp991
g54
(dp992
g62
I4
ssg63
g986
sg56
(lp993
S'craxsnet-PC'
p994
asbasbasbag49
(g65
g51
NtRp995
(dp996
g54
(dp997
sg63
g423
sg56
(lp998
g49
(g70
g51
NtRp999
(dp1000
g54
(dp1001
g74
g75
ssg63
g995
sg56
(lp1002
S'server_port'
p1003
asbag49
(g70
g51
NtRp1004
(dp1005
g54
(dp1006
g81
g82
ssg63
g995
sg56
(lp1007
S':'
asbag49
(g70
g51
NtRp1008
(dp1009
g54
(dp1010
sg63
g995
sg56
(lp1011
g49
(g50
g51
NtRp1012
(dp1013
g54
(dp1014
g62
I4
ssg63
g1008
sg56
(lp1015
S'8000'
p1016
asbasbasbag49
(g65
g51
NtRp1017
(dp1018
g54
(dp1019
sg63
g423
sg56
(lp1020
g49
(g70
g51
NtRp1021
(dp1022
g54
(dp1023
g74
g75
ssg63
g1017
sg56
(lp1024
S'server_protocol'
p1025
asbag49
(g70
g51
NtRp1026
(dp1027
g54
(dp1028
g81
g82
ssg63
g1017
sg56
(lp1029
S':'
asbag49
(g70
g51
NtRp1030
(dp1031
g54
(dp1032
sg63
g1017
sg56
(lp1033
g49
(g50
g51
NtRp1034
(dp1035
g54
(dp1036
g62
I4
ssg63
g1030
sg56
(lp1037
S'HTTP/1.1'
p1038
asbasbasbag49
(g65
g51
NtRp1039
(dp1040
g54
(dp1041
sg63
g423
sg56
(lp1042
g49
(g70
g51
NtRp1043
(dp1044
g54
(dp1045
g74
g75
ssg63
g1039
sg56
(lp1046
S'server_software'
p1047
asbag49
(g70
g51
NtRp1048
(dp1049
g54
(dp1050
g81
g82
ssg63
g1039
sg56
(lp1051
S':'
asbag49
(g70
g51
NtRp1052
(dp1053
g54
(dp1054
sg63
g1039
sg56
(lp1055
g49
(g50
g51
NtRp1056
(dp1057
g54
(dp1058
g62
I4
ssg63
g1052
sg56
(lp1059
S'Rocket 1.2.4'
p1060
asbasbasbag49
(g65
g51
NtRp1061
(dp1062
g54
(dp1063
sg63
g423
sg56
(lp1064
g49
(g70
g51
NtRp1065
(dp1066
g54
(dp1067
g74
g75
ssg63
g1061
sg56
(lp1068
S'web2py_crontype'
p1069
asbag49
(g70
g51
NtRp1070
(dp1071
g54
(dp1072
g81
g82
ssg63
g1061
sg56
(lp1073
S':'
asbag49
(g70
g51
NtRp1074
(dp1075
g54
(dp1076
sg63
g1061
sg56
(lp1077
g49
(g50
g51
NtRp1078
(dp1079
g54
(dp1080
g62
I4
ssg63
g1074
sg56
(lp1081
S'hard'
p1082
asbasbasbag49
(g65
g51
NtRp1083
(dp1084
g54
(dp1085
sg63
g423
sg56
(lp1086
g49
(g70
g51
NtRp1087
(dp1088
g54
(dp1089
g74
g75
ssg63
g1083
sg56
(lp1090
S'web2py_original_uri'
p1091
asbag49
(g70
g51
NtRp1092
(dp1093
g54
(dp1094
g81
g82
ssg63
g1083
sg56
(lp1095
S':'
asbag49
(g70
g51
NtRp1096
(dp1097
g54
(dp1098
sg63
g1083
sg56
(lp1099
g49
(g50
g51
NtRp1100
(dp1101
g54
(dp1102
g62
I4
ssg63
g1096
sg56
(lp1103
S'/webparley/admin/agregar_palabra'
p1104
asbasbasbag49
(g65
g51
NtRp1105
(dp1106
g54
(dp1107
sg63
g423
sg56
(lp1108
g49
(g70
g51
NtRp1109
(dp1110
g54
(dp1111
g74
g75
ssg63
g1105
sg56
(lp1112
S'web2py_path'
p1113
asbag49
(g70
g51
NtRp1114
(dp1115
g54
(dp1116
g81
g82
ssg63
g1105
sg56
(lp1117
S':'
asbag49
(g70
g51
NtRp1118
(dp1119
g54
(dp1120
sg63
g1105
sg56
(lp1121
g49
(g50
g51
NtRp1122
(dp1123
g54
(dp1124
g62
I4
ssg63
g1118
sg56
(lp1125
g470
asbasbasbag49
(g65
g51
NtRp1126
(dp1127
g54
(dp1128
sg63
g423
sg56
(lp1129
g49
(g70
g51
NtRp1130
(dp1131
g54
(dp1132
g74
g75
ssg63
g1126
sg56
(lp1133
S'web2py_version'
p1134
asbag49
(g70
g51
NtRp1135
(dp1136
g54
(dp1137
g81
g82
ssg63
g1126
sg56
(lp1138
S':'
asbag49
(g70
g51
NtRp1139
(dp1140
g54
(dp1141
sg63
g1126
sg56
(lp1142
g49
(g50
g51
NtRp1143
(dp1144
g54
(dp1145
g62
I4
ssg63
g1139
sg56
(lp1146
g49
(g58
g51
NtRp1147
(dp1148
g54
(dp1149
g62
I3
ssg63
Nsg56
(lp1150
g49
(g65
g51
NtRp1151
(dp1152
g54
(dp1153
sg63
g1147
sg56
(lp1154
g49
(g70
g51
NtRp1155
(dp1156
g54
(dp1157
sg63
g1151
sg56
(lp1158
g49
(g50
g51
NtRp1159
(dp1160
g54
(dp1161
g62
I3
ssg63
g1155
sg56
(lp1162
S'1'
asbasbasbag49
(g65
g51
NtRp1163
(dp1164
g54
(dp1165
sg63
g1147
sg56
(lp1166
g49
(g70
g51
NtRp1167
(dp1168
g54
(dp1169
sg63
g1163
sg56
(lp1170
g49
(g50
g51
NtRp1171
(dp1172
g54
(dp1173
g62
I3
ssg63
g1167
sg56
(lp1174
S'99'
p1175
asbasbasbag49
(g65
g51
NtRp1176
(dp1177
g54
(dp1178
sg63
g1147
sg56
(lp1179
g49
(g70
g51
NtRp1180
(dp1181
g54
(dp1182
sg63
g1176
sg56
(lp1183
g49
(g50
g51
NtRp1184
(dp1185
g54
(dp1186
g62
I3
ssg63
g1180
sg56
(lp1187
S'7'
asbasbasbag49
(g65
g51
NtRp1188
(dp1189
g54
(dp1190
sg63
g1147
sg56
(lp1191
g49
(g70
g51
NtRp1192
(dp1193
g54
(dp1194
sg63
g1188
sg56
(lp1195
g49
(g50
g51
NtRp1196
(dp1197
g54
(dp1198
g62
I3
ssg63
g1192
sg56
(lp1199
S'datetime.datetime(2012, 3, 4, 22, 12, 8)'
p1200
asbasbasbag49
(g65
g51
NtRp1201
(dp1202
g54
(dp1203
sg63
g1147
sg56
(lp1204
g49
(g70
g51
NtRp1205
(dp1206
g54
(dp1207
sg63
g1201
sg56
(lp1208
g49
(g50
g51
NtRp1209
(dp1210
g54
(dp1211
g62
I3
ssg63
g1205
sg56
(lp1212
S'stable'
p1213
asbasbasbasbasbasbasbag49
(g65
g51
NtRp1214
(dp1215
g54
(dp1216
sg63
g423
sg56
(lp1217
g49
(g70
g51
NtRp1218
(dp1219
g54
(dp1220
g74
g75
ssg63
g1214
sg56
(lp1221
S'wsgi_errors'
p1222
asbag49
(g70
g51
NtRp1223
(dp1224
g54
(dp1225
g81
g82
ssg63
g1214
sg56
(lp1226
S':'
asbag49
(g70
g51
NtRp1227
(dp1228
g54
(dp1229
sg63
g1214
sg56
(lp1230
g49
(g50
g51
NtRp1231
(dp1232
g54
(dp1233
g62
I4
ssg63
g1227
sg56
(lp1234
S"<open file '<stderr>', mode 'w' at 0x004200B0>"
p1235
asbasbasbag49
(g65
g51
NtRp1236
(dp1237
g54
(dp1238
sg63
g423
sg56
(lp1239
g49
(g70
g51
NtRp1240
(dp1241
g54
(dp1242
g74
g75
ssg63
g1236
sg56
(lp1243
S'wsgi_file_wrapper'
p1244
asbag49
(g70
g51
NtRp1245
(dp1246
g54
(dp1247
g81
g82
ssg63
g1236
sg56
(lp1248
S':'
asbag49
(g70
g51
NtRp1249
(dp1250
g54
(dp1251
sg63
g1236
sg56
(lp1252
g49
(g50
g51
NtRp1253
(dp1254
g54
(dp1255
g62
I4
ssg63
g1249
sg56
(lp1256
S'<class wsgiref.util.FileWrapper at 0x02B69390>'
p1257
asbasbasbag49
(g65
g51
NtRp1258
(dp1259
g54
(dp1260
sg63
g423
sg56
(lp1261
g49
(g70
g51
NtRp1262
(dp1263
g54
(dp1264
g74
g75
ssg63
g1258
sg56
(lp1265
S'wsgi_input'
p1266
asbag49
(g70
g51
NtRp1267
(dp1268
g54
(dp1269
g81
g82
ssg63
g1258
sg56
(lp1270
S':'
asbag49
(g70
g51
NtRp1271
(dp1272
g54
(dp1273
sg63
g1258
sg56
(lp1274
g49
(g50
g51
NtRp1275
(dp1276
g54
(dp1277
g62
I4
ssg63
g1271
sg56
(lp1278
S'<socket._fileobject object at 0x05F02F70>'
p1279
asbasbasbag49
(g65
g51
NtRp1280
(dp1281
g54
(dp1282
sg63
g423
sg56
(lp1283
g49
(g70
g51
NtRp1284
(dp1285
g54
(dp1286
g74
g75
ssg63
g1280
sg56
(lp1287
S'wsgi_multiprocess'
p1288
asbag49
(g70
g51
NtRp1289
(dp1290
g54
(dp1291
g81
g82
ssg63
g1280
sg56
(lp1292
S':'
asbag49
(g70
g51
NtRp1293
(dp1294
g54
(dp1295
sg63
g1280
sg56
(lp1296
g49
(g50
g51
NtRp1297
(dp1298
g54
(dp1299
g62
I4
ssg63
g1293
sg56
(lp1300
g92
asbasbasbag49
(g65
g51
NtRp1301
(dp1302
g54
(dp1303
sg63
g423
sg56
(lp1304
g49
(g70
g51
NtRp1305
(dp1306
g54
(dp1307
g74
g75
ssg63
g1301
sg56
(lp1308
S'wsgi_multithread'
p1309
asbag49
(g70
g51
NtRp1310
(dp1311
g54
(dp1312
g81
g82
ssg63
g1301
sg56
(lp1313
S':'
asbag49
(g70
g51
NtRp1314
(dp1315
g54
(dp1316
sg63
g1301
sg56
(lp1317
g49
(g50
g51
NtRp1318
(dp1319
g54
(dp1320
g62
I4
ssg63
g1314
sg56
(lp1321
S'True'
p1322
asbasbasbag49
(g65
g51
NtRp1323
(dp1324
g54
(dp1325
sg63
g423
sg56
(lp1326
g49
(g70
g51
NtRp1327
(dp1328
g54
(dp1329
g74
g75
ssg63
g1323
sg56
(lp1330
S'wsgi_run_once'
p1331
asbag49
(g70
g51
NtRp1332
(dp1333
g54
(dp1334
g81
g82
ssg63
g1323
sg56
(lp1335
S':'
asbag49
(g70
g51
NtRp1336
(dp1337
g54
(dp1338
sg63
g1323
sg56
(lp1339
g49
(g50
g51
NtRp1340
(dp1341
g54
(dp1342
g62
I4
ssg63
g1336
sg56
(lp1343
g92
asbasbasbag49
(g65
g51
NtRp1344
(dp1345
g54
(dp1346
sg63
g423
sg56
(lp1347
g49
(g70
g51
NtRp1348
(dp1349
g54
(dp1350
g74
g75
ssg63
g1344
sg56
(lp1351
S'wsgi_url_scheme'
p1352
asbag49
(g70
g51
NtRp1353
(dp1354
g54
(dp1355
g81
g82
ssg63
g1344
sg56
(lp1356
S':'
asbag49
(g70
g51
NtRp1357
(dp1358
g54
(dp1359
sg63
g1344
sg56
(lp1360
g49
(g50
g51
NtRp1361
(dp1362
g54
(dp1363
g62
I4
ssg63
g1357
sg56
(lp1364
S'http'
p1365
asbasbasbag49
(g65
g51
NtRp1366
(dp1367
g54
(dp1368
sg63
g423
sg56
(lp1369
g49
(g70
g51
NtRp1370
(dp1371
g54
(dp1372
g74
g75
ssg63
g1366
sg56
(lp1373
S'wsgi_version'
p1374
asbag49
(g70
g51
NtRp1375
(dp1376
g54
(dp1377
g81
g82
ssg63
g1366
sg56
(lp1378
S':'
asbag49
(g70
g51
NtRp1379
(dp1380
g54
(dp1381
sg63
g1366
sg56
(lp1382
g49
(g50
g51
NtRp1383
(dp1384
g54
(dp1385
g62
I4
ssg63
g1379
sg56
(lp1386
g49
(g58
g51
NtRp1387
(dp1388
g54
(dp1389
g62
I3
ssg63
Nsg56
(lp1390
g49
(g65
g51
NtRp1391
(dp1392
g54
(dp1393
sg63
g1387
sg56
(lp1394
g49
(g70
g51
NtRp1395
(dp1396
g54
(dp1397
sg63
g1391
sg56
(lp1398
g49
(g50
g51
NtRp1399
(dp1400
g54
(dp1401
g62
I3
ssg63
g1395
sg56
(lp1402
S'1'
asbasbasbag49
(g65
g51
NtRp1403
(dp1404
g54
(dp1405
sg63
g1387
sg56
(lp1406
g49
(g70
g51
NtRp1407
(dp1408
g54
(dp1409
sg63
g1403
sg56
(lp1410
g49
(g50
g51
NtRp1411
(dp1412
g54
(dp1413
g62
I3
ssg63
g1407
sg56
(lp1414
S'0'
asbasbasbasbasbasbasbasbasbasbasbag49
(g65
g51
NtRp1415
(dp1416
g54
(dp1417
sg63
g59
sg56
(lp1418
g49
(g70
g51
NtRp1419
(dp1420
g54
(dp1421
g74
g75
ssg63
g1415
sg56
(lp1422
S'extension'
p1423
asbag49
(g70
g51
NtRp1424
(dp1425
g54
(dp1426
g81
g82
ssg63
g1415
sg56
(lp1427
S':'
asbag49
(g70
g51
NtRp1428
(dp1429
g54
(dp1430
sg63
g1415
sg56
(lp1431
g49
(g50
g51
NtRp1432
(dp1433
g54
(dp1434
g62
I5
ssg63
g1428
sg56
(lp1435
S'html'
p1436
asbasbasbag49
(g65
g51
NtRp1437
(dp1438
g54
(dp1439
sg63
g59
sg56
(lp1440
g49
(g70
g51
NtRp1441
(dp1442
g54
(dp1443
g74
g75
ssg63
g1437
sg56
(lp1444
S'folder'
p1445
asbag49
(g70
g51
NtRp1446
(dp1447
g54
(dp1448
g81
g82
ssg63
g1437
sg56
(lp1449
S':'
asbag49
(g70
g51
NtRp1450
(dp1451
g54
(dp1452
sg63
g1437
sg56
(lp1453
g49
(g50
g51
NtRp1454
(dp1455
g54
(dp1456
g62
I5
ssg63
g1450
sg56
(lp1457
S'D:\\Dise\xf1o Web\\Proyectos\\Parleyweb\\web2py\\applications\\webparley\\'
p1458
asbasbasbag49
(g65
g51
NtRp1459
(dp1460
g54
(dp1461
sg63
g59
sg56
(lp1462
g49
(g70
g51
NtRp1463
(dp1464
g54
(dp1465
g74
g75
ssg63
g1459
sg56
(lp1466
S'function'
p1467
asbag49
(g70
g51
NtRp1468
(dp1469
g54
(dp1470
g81
g82
ssg63
g1459
sg56
(lp1471
S':'
asbag49
(g70
g51
NtRp1472
(dp1473
g54
(dp1474
sg63
g1459
sg56
(lp1475
g49
(g50
g51
NtRp1476
(dp1477
g54
(dp1478
g62
I5
ssg63
g1472
sg56
(lp1479
S'agregar_palabra'
p1480
asbasbasbag49
(g65
g51
NtRp1481
(dp1482
g54
(dp1483
sg63
g59
sg56
(lp1484
g49
(g70
g51
NtRp1485
(dp1486
g54
(dp1487
g74
g75
ssg63
g1481
sg56
(lp1488
S'get_vars'
p1489
asbag49
(g70
g51
NtRp1490
(dp1491
g54
(dp1492
g81
g82
ssg63
g1481
sg56
(lp1493
S':'
asbag49
(g70
g51
NtRp1494
(dp1495
g54
(dp1496
sg63
g1481
sg56
(lp1497
g49
(g50
g51
NtRp1498
(dp1499
g54
(dp1500
g62
I5
ssg63
g1494
sg56
(lp1501
g49
(g58
g51
NtRp1502
(dp1503
g54
(dp1504
g62
I4
ssg63
Nsg56
(lp1505
sbasbasbasbag49
(g65
g51
NtRp1506
(dp1507
g54
(dp1508
sg63
g59
sg56
(lp1509
g49
(g70
g51
NtRp1510
(dp1511
g54
(dp1512
g74
g75
ssg63
g1506
sg56
(lp1513
S'global_settings'
p1514
asbag49
(g70
g51
NtRp1515
(dp1516
g54
(dp1517
g81
g82
ssg63
g1506
sg56
(lp1518
S':'
asbag49
(g70
g51
NtRp1519
(dp1520
g54
(dp1521
sg63
g1506
sg56
(lp1522
g49
(g50
g51
NtRp1523
(dp1524
g54
(dp1525
g62
I5
ssg63
g1519
sg56
(lp1526
g49
(g58
g51
NtRp1527
(dp1528
g54
(dp1529
g62
I4
ssg63
Nsg56
(lp1530
g49
(g65
g51
NtRp1531
(dp1532
g54
(dp1533
sg63
g1527
sg56
(lp1534
g49
(g70
g51
NtRp1535
(dp1536
g54
(dp1537
g74
g75
ssg63
g1531
sg56
(lp1538
g435
asbag49
(g70
g51
NtRp1539
(dp1540
g54
(dp1541
g81
g82
ssg63
g1531
sg56
(lp1542
S':'
asbag49
(g70
g51
NtRp1543
(dp1544
g54
(dp1545
sg63
g1531
sg56
(lp1546
g49
(g50
g51
NtRp1547
(dp1548
g54
(dp1549
g62
I4
ssg63
g1543
sg56
(lp1550
S"set(['D:\\\\Dise\\xf1o Web\\\\Proyectos\\\\Parleyweb\\\\web2py\\\\applications\\\\webparley\\\\'])"
p1551
asbasbasbag49
(g65
g51
NtRp1552
(dp1553
g54
(dp1554
sg63
g1527
sg56
(lp1555
g49
(g70
g51
NtRp1556
(dp1557
g54
(dp1558
g74
g75
ssg63
g1552
sg56
(lp1559
g457
asbag49
(g70
g51
NtRp1560
(dp1561
g54
(dp1562
g81
g82
ssg63
g1552
sg56
(lp1563
S':'
asbag49
(g70
g51
NtRp1564
(dp1565
g54
(dp1566
sg63
g1552
sg56
(lp1567
g49
(g50
g51
NtRp1568
(dp1569
g54
(dp1570
g62
I4
ssg63
g1564
sg56
(lp1571
g470
asbasbasbag49
(g65
g51
NtRp1572
(dp1573
g54
(dp1574
sg63
g1527
sg56
(lp1575
g49
(g70
g51
NtRp1576
(dp1577
g54
(dp1578
g74
g75
ssg63
g1572
sg56
(lp1579
g479
asbag49
(g70
g51
NtRp1580
(dp1581
g54
(dp1582
g81
g82
ssg63
g1572
sg56
(lp1583
S':'
asbag49
(g70
g51
NtRp1584
(dp1585
g54
(dp1586
sg63
g1572
sg56
(lp1587
g49
(g50
g51
NtRp1588
(dp1589
g54
(dp1590
g62
I4
ssg63
g1584
sg56
(lp1591
g49
(g58
g51
NtRp1592
(dp1593
g54
(dp1594
g62
I3
ssg63
Nsg56
(lp1595
sbasbasbasbag49
(g65
g51
NtRp1596
(dp1597
g54
(dp1598
sg63
g1527
sg56
(lp1599
g49
(g70
g51
NtRp1600
(dp1601
g54
(dp1602
g74
g75
ssg63
g1596
sg56
(lp1603
g504
asbag49
(g70
g51
NtRp1604
(dp1605
g54
(dp1606
g81
g82
ssg63
g1596
sg56
(lp1607
S':'
asbag49
(g70
g51
NtRp1608
(dp1609
g54
(dp1610
sg63
g1596
sg56
(lp1611
g49
(g50
g51
NtRp1612
(dp1613
g54
(dp1614
g62
I4
ssg63
g1608
sg56
(lp1615
S"<Values at 0x2d6c260: {'verbose': False, 'ip': '127.0.0.1', 'shutdown_timeout': 5, 'taskbar': False, 'nocron': False, 'pid_filename': 'httpserver.pid', 'maxthreads': None, 'softcron': False, 'server_name': 'craxsnet-PC', 'bpython': False, 'nogui': False, 'port': 8000, 'extcron': False, 'debuglevel': 30, 'test': None, 'folder': 'D:\\\\Dise\\xf1o Web\\\\Proyectos\\\\Parleyweb\\\\web2py', 'config': '', 'import_models': False, 'winservice': '', 'shell': None, 'run': '', 'log_filename': 'httpserver.log', 'args': [''], 'socket_timeout': 5, 'ssl_ca_certificate': None, 'scheduler': None, 'profiler_filename': None, 'ssl_private_key': '', 'password': '<ask>', 'request_queue_size': 5, 'ssl_certificate': '', 'cronjob': False, 'numthreads': None, 'quiet': False, 'interfaces': None, 'minthreads': None, 'timeout': 10, 'plain': False, 'nobanner': False}>"
p1616
asbasbasbag49
(g65
g51
NtRp1617
(dp1618
g54
(dp1619
sg63
g1527
sg56
(lp1620
g49
(g70
g51
NtRp1621
(dp1622
g54
(dp1623
g74
g75
ssg63
g1617
sg56
(lp1624
g526
asbag49
(g70
g51
NtRp1625
(dp1626
g54
(dp1627
g81
g82
ssg63
g1617
sg56
(lp1628
S':'
asbag49
(g70
g51
NtRp1629
(dp1630
g54
(dp1631
sg63
g1617
sg56
(lp1632
g49
(g50
g51
NtRp1633
(dp1634
g54
(dp1635
g62
I4
ssg63
g1629
sg56
(lp1636
S'set([])'
p1637
asbasbasbag49
(g65
g51
NtRp1638
(dp1639
g54
(dp1640
sg63
g1527
sg56
(lp1641
g49
(g70
g51
NtRp1642
(dp1643
g54
(dp1644
g74
g75
ssg63
g1638
sg56
(lp1645
g548
asbag49
(g70
g51
NtRp1646
(dp1647
g54
(dp1648
g81
g82
ssg63
g1638
sg56
(lp1649
S':'
asbag49
(g70
g51
NtRp1650
(dp1651
g54
(dp1652
sg63
g1638
sg56
(lp1653
g49
(g50
g51
NtRp1654
(dp1655
g54
(dp1656
g62
I4
ssg63
g1650
sg56
(lp1657
g92
asbasbasbag49
(g65
g51
NtRp1658
(dp1659
g54
(dp1660
sg63
g1527
sg56
(lp1661
g49
(g70
g51
NtRp1662
(dp1663
g54
(dp1664
g74
g75
ssg63
g1658
sg56
(lp1665
g569
asbag49
(g70
g51
NtRp1666
(dp1667
g54
(dp1668
g81
g82
ssg63
g1658
sg56
(lp1669
S':'
asbag49
(g70
g51
NtRp1670
(dp1671
g54
(dp1672
sg63
g1658
sg56
(lp1673
g49
(g50
g51
NtRp1674
(dp1675
g54
(dp1676
g62
I4
ssg63
g1670
sg56
(lp1677
g582
asbasbasbag49
(g65
g51
NtRp1678
(dp1679
g54
(dp1680
sg63
g1527
sg56
(lp1681
g49
(g70
g51
NtRp1682
(dp1683
g54
(dp1684
g74
g75
ssg63
g1678
sg56
(lp1685
g789
asbag49
(g70
g51
NtRp1686
(dp1687
g54
(dp1688
g81
g82
ssg63
g1678
sg56
(lp1689
S':'
asbag49
(g70
g51
NtRp1690
(dp1691
g54
(dp1692
sg63
g1678
sg56
(lp1693
g49
(g50
g51
NtRp1694
(dp1695
g54
(dp1696
g62
I4
ssg63
g1690
sg56
(lp1697
g92
asbasbasbag49
(g65
g51
NtRp1698
(dp1699
g54
(dp1700
sg63
g1527
sg56
(lp1701
g49
(g70
g51
NtRp1702
(dp1703
g54
(dp1704
g74
g75
ssg63
g1698
sg56
(lp1705
g810
asbag49
(g70
g51
NtRp1706
(dp1707
g54
(dp1708
g81
g82
ssg63
g1698
sg56
(lp1709
S':'
asbag49
(g70
g51
NtRp1710
(dp1711
g54
(dp1712
sg63
g1698
sg56
(lp1713
g49
(g50
g51
NtRp1714
(dp1715
g54
(dp1716
g62
I4
ssg63
g1710
sg56
(lp1717
g92
asbasbasbag49
(g65
g51
NtRp1718
(dp1719
g54
(dp1720
sg63
g1527
sg56
(lp1721
g49
(g70
g51
NtRp1722
(dp1723
g54
(dp1724
g74
g75
ssg63
g1718
sg56
(lp1725
g1069
asbag49
(g70
g51
NtRp1726
(dp1727
g54
(dp1728
g81
g82
ssg63
g1718
sg56
(lp1729
S':'
asbag49
(g70
g51
NtRp1730
(dp1731
g54
(dp1732
sg63
g1718
sg56
(lp1733
g49
(g50
g51
NtRp1734
(dp1735
g54
(dp1736
g62
I4
ssg63
g1730
sg56
(lp1737
g1082
asbasbasbag49
(g65
g51
NtRp1738
(dp1739
g54
(dp1740
sg63
g1527
sg56
(lp1741
g49
(g70
g51
NtRp1742
(dp1743
g54
(dp1744
g74
g75
ssg63
g1738
sg56
(lp1745
g1134
asbag49
(g70
g51
NtRp1746
(dp1747
g54
(dp1748
g81
g82
ssg63
g1738
sg56
(lp1749
S':'
asbag49
(g70
g51
NtRp1750
(dp1751
g54
(dp1752
sg63
g1738
sg56
(lp1753
g49
(g50
g51
NtRp1754
(dp1755
g54
(dp1756
g62
I4
ssg63
g1750
sg56
(lp1757
g49
(g58
g51
NtRp1758
(dp1759
g54
(dp1760
g62
I3
ssg63
Nsg56
(lp1761
g49
(g65
g51
NtRp1762
(dp1763
g54
(dp1764
sg63
g1758
sg56
(lp1765
g49
(g70
g51
NtRp1766
(dp1767
g54
(dp1768
sg63
g1762
sg56
(lp1769
g49
(g50
g51
NtRp1770
(dp1771
g54
(dp1772
g62
I3
ssg63
g1766
sg56
(lp1773
S'1'
asbasbasbag49
(g65
g51
NtRp1774
(dp1775
g54
(dp1776
sg63
g1758
sg56
(lp1777
g49
(g70
g51
NtRp1778
(dp1779
g54
(dp1780
sg63
g1774
sg56
(lp1781
g49
(g50
g51
NtRp1782
(dp1783
g54
(dp1784
g62
I3
ssg63
g1778
sg56
(lp1785
S'99'
p1786
asbasbasbag49
(g65
g51
NtRp1787
(dp1788
g54
(dp1789
sg63
g1758
sg56
(lp1790
g49
(g70
g51
NtRp1791
(dp1792
g54
(dp1793
sg63
g1787
sg56
(lp1794
g49
(g50
g51
NtRp1795
(dp1796
g54
(dp1797
g62
I3
ssg63
g1791
sg56
(lp1798
S'7'
asbasbasbag49
(g65
g51
NtRp1799
(dp1800
g54
(dp1801
sg63
g1758
sg56
(lp1802
g49
(g70
g51
NtRp1803
(dp1804
g54
(dp1805
sg63
g1799
sg56
(lp1806
g49
(g50
g51
NtRp1807
(dp1808
g54
(dp1809
g62
I3
ssg63
g1803
sg56
(lp1810
S'datetime.datetime(2012, 3, 4, 22, 12, 8)'
p1811
asbasbasbag49
(g65
g51
NtRp1812
(dp1813
g54
(dp1814
sg63
g1758
sg56
(lp1815
g49
(g70
g51
NtRp1816
(dp1817
g54
(dp1818
sg63
g1812
sg56
(lp1819
g49
(g50
g51
NtRp1820
(dp1821
g54
(dp1822
g62
I3
ssg63
g1816
sg56
(lp1823
g1213
asbasbasbasbasbasbasbasbasbasbasbag49
(g65
g51
NtRp1824
(dp1825
g54
(dp1826
sg63
g59
sg56
(lp1827
g49
(g70
g51
NtRp1828
(dp1829
g54
(dp1830
g74
g75
ssg63
g1824
sg56
(lp1831
S'is_https'
p1832
asbag49
(g70
g51
NtRp1833
(dp1834
g54
(dp1835
g81
g82
ssg63
g1824
sg56
(lp1836
S':'
asbag49
(g70
g51
NtRp1837
(dp1838
g54
(dp1839
sg63
g1824
sg56
(lp1840
g49
(g50
g51
NtRp1841
(dp1842
g54
(dp1843
g62
I5
ssg63
g1837
sg56
(lp1844
g92
asbasbasbag49
(g65
g51
NtRp1845
(dp1846
g54
(dp1847
sg63
g59
sg56
(lp1848
g49
(g70
g51
NtRp1849
(dp1850
g54
(dp1851
g74
g75
ssg63
g1845
sg56
(lp1852
S'is_local'
p1853
asbag49
(g70
g51
NtRp1854
(dp1855
g54
(dp1856
g81
g82
ssg63
g1845
sg56
(lp1857
S':'
asbag49
(g70
g51
NtRp1858
(dp1859
g54
(dp1860
sg63
g1845
sg56
(lp1861
g49
(g50
g51
NtRp1862
(dp1863
g54
(dp1864
g62
I5
ssg63
g1858
sg56
(lp1865
g1322
asbasbasbag49
(g65
g51
NtRp1866
(dp1867
g54
(dp1868
sg63
g59
sg56
(lp1869
g49
(g70
g51
NtRp1870
(dp1871
g54
(dp1872
g74
g75
ssg63
g1866
sg56
(lp1873
S'is_restful'
p1874
asbag49
(g70
g51
NtRp1875
(dp1876
g54
(dp1877
g81
g82
ssg63
g1866
sg56
(lp1878
S':'
asbag49
(g70
g51
NtRp1879
(dp1880
g54
(dp1881
sg63
g1866
sg56
(lp1882
g49
(g50
g51
NtRp1883
(dp1884
g54
(dp1885
g62
I5
ssg63
g1879
sg56
(lp1886
g92
asbasbasbag49
(g65
g51
NtRp1887
(dp1888
g54
(dp1889
sg63
g59
sg56
(lp1890
g49
(g70
g51
NtRp1891
(dp1892
g54
(dp1893
g74
g75
ssg63
g1887
sg56
(lp1894
S'now'
p1895
asbag49
(g70
g51
NtRp1896
(dp1897
g54
(dp1898
g81
g82
ssg63
g1887
sg56
(lp1899
S':'
asbag49
(g70
g51
NtRp1900
(dp1901
g54
(dp1902
sg63
g1887
sg56
(lp1903
g49
(g50
g51
NtRp1904
(dp1905
g54
(dp1906
g62
I5
ssg63
g1900
sg56
(lp1907
S'datetime.datetime(2012, 3, 21, 0, 27, 44, 86000)'
p1908
asbasbasbag49
(g65
g51
NtRp1909
(dp1910
g54
(dp1911
sg63
g59
sg56
(lp1912
g49
(g70
g51
NtRp1913
(dp1914
g54
(dp1915
g74
g75
ssg63
g1909
sg56
(lp1916
S'post_vars'
p1917
asbag49
(g70
g51
NtRp1918
(dp1919
g54
(dp1920
g81
g82
ssg63
g1909
sg56
(lp1921
S':'
asbag49
(g70
g51
NtRp1922
(dp1923
g54
(dp1924
sg63
g1909
sg56
(lp1925
g49
(g50
g51
NtRp1926
(dp1927
g54
(dp1928
g62
I5
ssg63
g1922
sg56
(lp1929
g49
(g58
g51
NtRp1930
(dp1931
g54
(dp1932
g62
I4
ssg63
Nsg56
(lp1933
sbasbasbasbag49
(g65
g51
NtRp1934
(dp1935
g54
(dp1936
sg63
g59
sg56
(lp1937
g49
(g70
g51
NtRp1938
(dp1939
g54
(dp1940
g74
g75
ssg63
g1934
sg56
(lp1941
S'url'
p1942
asbag49
(g70
g51
NtRp1943
(dp1944
g54
(dp1945
g81
g82
ssg63
g1934
sg56
(lp1946
S':'
asbag49
(g70
g51
NtRp1947
(dp1948
g54
(dp1949
sg63
g1934
sg56
(lp1950
g49
(g50
g51
NtRp1951
(dp1952
g54
(dp1953
g62
I5
ssg63
g1947
sg56
(lp1954
S'/webparley/admin/agregar_palabra'
p1955
asbasbasbag49
(g65
g51
NtRp1956
(dp1957
g54
(dp1958
sg63
g59
sg56
(lp1959
g49
(g70
g51
NtRp1960
(dp1961
g54
(dp1962
g74
g75
ssg63
g1956
sg56
(lp1963
S'utcnow'
p1964
asbag49
(g70
g51
NtRp1965
(dp1966
g54
(dp1967
g81
g82
ssg63
g1956
sg56
(lp1968
S':'
asbag49
(g70
g51
NtRp1969
(dp1970
g54
(dp1971
sg63
g1956
sg56
(lp1972
g49
(g50
g51
NtRp1973
(dp1974
g54
(dp1975
g62
I5
ssg63
g1969
sg56
(lp1976
S'datetime.datetime(2012, 3, 20, 23, 27, 44, 86000)'
p1977
asbasbasbag49
(g65
g51
NtRp1978
(dp1979
g54
(dp1980
sg63
g59
sg56
(lp1981
g49
(g70
g51
NtRp1982
(dp1983
g54
(dp1984
g74
g75
ssg63
g1978
sg56
(lp1985
S'uuid'
p1986
asbag49
(g70
g51
NtRp1987
(dp1988
g54
(dp1989
g81
g82
ssg63
g1978
sg56
(lp1990
S':'
asbag49
(g70
g51
NtRp1991
(dp1992
g54
(dp1993
sg63
g1978
sg56
(lp1994
g49
(g50
g51
NtRp1995
(dp1996
g54
(dp1997
g62
I5
ssg63
g1991
sg56
(lp1998
S'webparley/127.0.0.1.2012-03-21.00-27-44.03ef36d0-bfe3-4dae-a515-849bd7ff8ec9'
p1999
asbasbasbag49
(g65
g51
NtRp2000
(dp2001
g54
(dp2002
sg63
g59
sg56
(lp2003
g49
(g70
g51
NtRp2004
(dp2005
g54
(dp2006
g74
g75
ssg63
g2000
sg56
(lp2007
S'vars'
p2008
asbag49
(g70
g51
NtRp2009
(dp2010
g54
(dp2011
g81
g82
ssg63
g2000
sg56
(lp2012
S':'
asbag49
(g70
g51
NtRp2013
(dp2014
g54
(dp2015
sg63
g2000
sg56
(lp2016
g49
(g50
g51
NtRp2017
(dp2018
g54
(dp2019
g62
I5
ssg63
g2013
sg56
(lp2020
g49
(g58
g51
NtRp2021
(dp2022
g54
(dp2023
g62
I4
ssg63
Nsg56
(lp2024
sbasbasbasbag49
(g65
g51
NtRp2025
(dp2026
g54
(dp2027
sg63
g59
sg56
(lp2028
g49
(g70
g51
NtRp2029
(dp2030
g54
(dp2031
g74
g75
ssg63
g2025
sg56
(lp2032
S'wsgi'
p2033
asbag49
(g70
g51
NtRp2034
(dp2035
g54
(dp2036
g81
g82
ssg63
g2025
sg56
(lp2037
S':'
asbag49
(g70
g51
NtRp2038
(dp2039
g54
(dp2040
sg63
g2025
sg56
(lp2041
g49
(g50
g51
NtRp2042
(dp2043
g54
(dp2044
g62
I5
ssg63
g2038
sg56
(lp2045
g49
(g58
g51
NtRp2046
(dp2047
g54
(dp2048
g62
I4
ssg63
Nsg56
(lp2049
g49
(g65
g51
NtRp2050
(dp2051
g54
(dp2052
sg63
g2046
sg56
(lp2053
g49
(g70
g51
NtRp2054
(dp2055
g54
(dp2056
g74
g75
ssg63
g2050
sg56
(lp2057
S'environ'
p2058
asbag49
(g70
g51
NtRp2059
(dp2060
g54
(dp2061
g81
g82
ssg63
g2050
sg56
(lp2062
S':'
asbag49
(g70
g51
NtRp2063
(dp2064
g54
(dp2065
sg63
g2050
sg56
(lp2066
g49
(g50
g51
NtRp2067
(dp2068
g54
(dp2069
g62
I4
ssg63
g2063
sg56
(lp2070
g49
(g58
g51
NtRp2071
(dp2072
g54
(dp2073
g62
I3
ssg63
Nsg56
(lp2074
g49
(g65
g51
NtRp2075
(dp2076
g54
(dp2077
sg63
g2071
sg56
(lp2078
g49
(g70
g51
NtRp2079
(dp2080
g54
(dp2081
g74
g75
ssg63
g2075
sg56
(lp2082
S'HTTP_ACCEPT'
p2083
asbag49
(g70
g51
NtRp2084
(dp2085
g54
(dp2086
g81
g82
ssg63
g2075
sg56
(lp2087
S':'
asbag49
(g70
g51
NtRp2088
(dp2089
g54
(dp2090
sg63
g2075
sg56
(lp2091
g49
(g50
g51
NtRp2092
(dp2093
g54
(dp2094
g62
I3
ssg63
g2088
sg56
(lp2095
g604
asbasbasbag49
(g65
g51
NtRp2096
(dp2097
g54
(dp2098
sg63
g2071
sg56
(lp2099
g49
(g70
g51
NtRp2100
(dp2101
g54
(dp2102
g74
g75
ssg63
g2096
sg56
(lp2103
S'HTTP_ACCEPT_ENCODING'
p2104
asbag49
(g70
g51
NtRp2105
(dp2106
g54
(dp2107
g81
g82
ssg63
g2096
sg56
(lp2108
S':'
asbag49
(g70
g51
NtRp2109
(dp2110
g54
(dp2111
sg63
g2096
sg56
(lp2112
g49
(g50
g51
NtRp2113
(dp2114
g54
(dp2115
g62
I3
ssg63
g2109
sg56
(lp2116
g626
asbasbasbag49
(g65
g51
NtRp2117
(dp2118
g54
(dp2119
sg63
g2071
sg56
(lp2120
g49
(g70
g51
NtRp2121
(dp2122
g54
(dp2123
g74
g75
ssg63
g2117
sg56
(lp2124
S'HTTP_ACCEPT_LANGUAGE'
p2125
asbag49
(g70
g51
NtRp2126
(dp2127
g54
(dp2128
g81
g82
ssg63
g2117
sg56
(lp2129
S':'
asbag49
(g70
g51
NtRp2130
(dp2131
g54
(dp2132
sg63
g2117
sg56
(lp2133
g49
(g50
g51
NtRp2134
(dp2135
g54
(dp2136
g62
I3
ssg63
g2130
sg56
(lp2137
g648
asbasbasbag49
(g65
g51
NtRp2138
(dp2139
g54
(dp2140
sg63
g2071
sg56
(lp2141
g49
(g70
g51
NtRp2142
(dp2143
g54
(dp2144
g74
g75
ssg63
g2138
sg56
(lp2145
S'HTTP_CACHE_CONTROL'
p2146
asbag49
(g70
g51
NtRp2147
(dp2148
g54
(dp2149
g81
g82
ssg63
g2138
sg56
(lp2150
S':'
asbag49
(g70
g51
NtRp2151
(dp2152
g54
(dp2153
sg63
g2138
sg56
(lp2154
g49
(g50
g51
NtRp2155
(dp2156
g54
(dp2157
g62
I3
ssg63
g2151
sg56
(lp2158
g670
asbasbasbag49
(g65
g51
NtRp2159
(dp2160
g54
(dp2161
sg63
g2071
sg56
(lp2162
g49
(g70
g51
NtRp2163
(dp2164
g54
(dp2165
g74
g75
ssg63
g2159
sg56
(lp2166
S'HTTP_CONNECTION'
p2167
asbag49
(g70
g51
NtRp2168
(dp2169
g54
(dp2170
g81
g82
ssg63
g2159
sg56
(lp2171
S':'
asbag49
(g70
g51
NtRp2172
(dp2173
g54
(dp2174
sg63
g2159
sg56
(lp2175
g49
(g50
g51
NtRp2176
(dp2177
g54
(dp2178
g62
I3
ssg63
g2172
sg56
(lp2179
g692
asbasbasbag49
(g65
g51
NtRp2180
(dp2181
g54
(dp2182
sg63
g2071
sg56
(lp2183
g49
(g70
g51
NtRp2184
(dp2185
g54
(dp2186
g74
g75
ssg63
g2180
sg56
(lp2187
S'HTTP_COOKIE'
p2188
asbag49
(g70
g51
NtRp2189
(dp2190
g54
(dp2191
g81
g82
ssg63
g2180
sg56
(lp2192
S':'
asbag49
(g70
g51
NtRp2193
(dp2194
g54
(dp2195
sg63
g2180
sg56
(lp2196
g49
(g50
g51
NtRp2197
(dp2198
g54
(dp2199
g62
I3
ssg63
g2193
sg56
(lp2200
g714
asbasbasbag49
(g65
g51
NtRp2201
(dp2202
g54
(dp2203
sg63
g2071
sg56
(lp2204
g49
(g70
g51
NtRp2205
(dp2206
g54
(dp2207
g74
g75
ssg63
g2201
sg56
(lp2208
S'HTTP_HOST'
p2209
asbag49
(g70
g51
NtRp2210
(dp2211
g54
(dp2212
g81
g82
ssg63
g2201
sg56
(lp2213
S':'
asbag49
(g70
g51
NtRp2214
(dp2215
g54
(dp2216
sg63
g2201
sg56
(lp2217
g49
(g50
g51
NtRp2218
(dp2219
g54
(dp2220
g62
I3
ssg63
g2214
sg56
(lp2221
g736
asbasbasbag49
(g65
g51
NtRp2222
(dp2223
g54
(dp2224
sg63
g2071
sg56
(lp2225
g49
(g70
g51
NtRp2226
(dp2227
g54
(dp2228
g74
g75
ssg63
g2222
sg56
(lp2229
S'HTTP_REFERER'
p2230
asbag49
(g70
g51
NtRp2231
(dp2232
g54
(dp2233
g81
g82
ssg63
g2222
sg56
(lp2234
S':'
asbag49
(g70
g51
NtRp2235
(dp2236
g54
(dp2237
sg63
g2222
sg56
(lp2238
g49
(g50
g51
NtRp2239
(dp2240
g54
(dp2241
g62
I3
ssg63
g2235
sg56
(lp2242
g758
asbasbasbag49
(g65
g51
NtRp2243
(dp2244
g54
(dp2245
sg63
g2071
sg56
(lp2246
g49
(g70
g51
NtRp2247
(dp2248
g54
(dp2249
g74
g75
ssg63
g2243
sg56
(lp2250
S'HTTP_USER_AGENT'
p2251
asbag49
(g70
g51
NtRp2252
(dp2253
g54
(dp2254
g81
g82
ssg63
g2243
sg56
(lp2255
S':'
asbag49
(g70
g51
NtRp2256
(dp2257
g54
(dp2258
sg63
g2243
sg56
(lp2259
g49
(g50
g51
NtRp2260
(dp2261
g54
(dp2262
g62
I3
ssg63
g2256
sg56
(lp2263
g780
asbasbasbag49
(g65
g51
NtRp2264
(dp2265
g54
(dp2266
sg63
g2071
sg56
(lp2267
g49
(g70
g51
NtRp2268
(dp2269
g54
(dp2270
g74
g75
ssg63
g2264
sg56
(lp2271
S'PATH_INFO'
p2272
asbag49
(g70
g51
NtRp2273
(dp2274
g54
(dp2275
g81
g82
ssg63
g2264
sg56
(lp2276
S':'
asbag49
(g70
g51
NtRp2277
(dp2278
g54
(dp2279
sg63
g2264
sg56
(lp2280
g49
(g50
g51
NtRp2281
(dp2282
g54
(dp2283
g62
I3
ssg63
g2277
sg56
(lp2284
g844
asbasbasbag49
(g65
g51
NtRp2285
(dp2286
g54
(dp2287
sg63
g2071
sg56
(lp2288
g49
(g70
g51
NtRp2289
(dp2290
g54
(dp2291
g74
g75
ssg63
g2285
sg56
(lp2292
S'QUERY_STRING'
p2293
asbag49
(g70
g51
NtRp2294
(dp2295
g54
(dp2296
g81
g82
ssg63
g2285
sg56
(lp2297
S':'
asbag49
(g70
g51
NtRp2298
(dp2299
g54
(dp2300
sg63
g2285
sg56
(lp2301
g49
(g50
g51
NtRp2302
(dp2303
g54
(dp2304
g62
I3
ssg63
g2298
sg56
(lp2305
S''
asbasbasbag49
(g65
g51
NtRp2306
(dp2307
g54
(dp2308
sg63
g2071
sg56
(lp2309
g49
(g70
g51
NtRp2310
(dp2311
g54
(dp2312
g74
g75
ssg63
g2306
sg56
(lp2313
S'REMOTE_ADDR'
p2314
asbag49
(g70
g51
NtRp2315
(dp2316
g54
(dp2317
g81
g82
ssg63
g2306
sg56
(lp2318
S':'
asbag49
(g70
g51
NtRp2319
(dp2320
g54
(dp2321
sg63
g2306
sg56
(lp2322
g49
(g50
g51
NtRp2323
(dp2324
g54
(dp2325
g62
I3
ssg63
g2319
sg56
(lp2326
g182
asbasbasbag49
(g65
g51
NtRp2327
(dp2328
g54
(dp2329
sg63
g2071
sg56
(lp2330
g49
(g70
g51
NtRp2331
(dp2332
g54
(dp2333
g74
g75
ssg63
g2327
sg56
(lp2334
S'REMOTE_PORT'
p2335
asbag49
(g70
g51
NtRp2336
(dp2337
g54
(dp2338
g81
g82
ssg63
g2327
sg56
(lp2339
S':'
asbag49
(g70
g51
NtRp2340
(dp2341
g54
(dp2342
sg63
g2327
sg56
(lp2343
g49
(g50
g51
NtRp2344
(dp2345
g54
(dp2346
g62
I3
ssg63
g2340
sg56
(lp2347
g908
asbasbasbag49
(g65
g51
NtRp2348
(dp2349
g54
(dp2350
sg63
g2071
sg56
(lp2351
g49
(g70
g51
NtRp2352
(dp2353
g54
(dp2354
g74
g75
ssg63
g2348
sg56
(lp2355
S'REQUEST_METHOD'
p2356
asbag49
(g70
g51
NtRp2357
(dp2358
g54
(dp2359
g81
g82
ssg63
g2348
sg56
(lp2360
S':'
asbag49
(g70
g51
NtRp2361
(dp2362
g54
(dp2363
sg63
g2348
sg56
(lp2364
g49
(g50
g51
NtRp2365
(dp2366
g54
(dp2367
g62
I3
ssg63
g2361
sg56
(lp2368
g930
asbasbasbag49
(g65
g51
NtRp2369
(dp2370
g54
(dp2371
sg63
g2071
sg56
(lp2372
g49
(g70
g51
NtRp2373
(dp2374
g54
(dp2375
g74
g75
ssg63
g2369
sg56
(lp2376
S'REQUEST_URI'
p2377
asbag49
(g70
g51
NtRp2378
(dp2379
g54
(dp2380
g81
g82
ssg63
g2369
sg56
(lp2381
S':'
asbag49
(g70
g51
NtRp2382
(dp2383
g54
(dp2384
sg63
g2369
sg56
(lp2385
g49
(g50
g51
NtRp2386
(dp2387
g54
(dp2388
g62
I3
ssg63
g2382
sg56
(lp2389
g844
asbasbasbag49
(g65
g51
NtRp2390
(dp2391
g54
(dp2392
sg63
g2071
sg56
(lp2393
g49
(g70
g51
NtRp2394
(dp2395
g54
(dp2396
g74
g75
ssg63
g2390
sg56
(lp2397
S'SCRIPT_NAME'
p2398
asbag49
(g70
g51
NtRp2399
(dp2400
g54
(dp2401
g81
g82
ssg63
g2390
sg56
(lp2402
S':'
asbag49
(g70
g51
NtRp2403
(dp2404
g54
(dp2405
sg63
g2390
sg56
(lp2406
g49
(g50
g51
NtRp2407
(dp2408
g54
(dp2409
g62
I3
ssg63
g2403
sg56
(lp2410
S''
asbasbasbag49
(g65
g51
NtRp2411
(dp2412
g54
(dp2413
sg63
g2071
sg56
(lp2414
g49
(g70
g51
NtRp2415
(dp2416
g54
(dp2417
g74
g75
ssg63
g2411
sg56
(lp2418
S'SERVER_NAME'
p2419
asbag49
(g70
g51
NtRp2420
(dp2421
g54
(dp2422
g81
g82
ssg63
g2411
sg56
(lp2423
S':'
asbag49
(g70
g51
NtRp2424
(dp2425
g54
(dp2426
sg63
g2411
sg56
(lp2427
g49
(g50
g51
NtRp2428
(dp2429
g54
(dp2430
g62
I3
ssg63
g2424
sg56
(lp2431
g994
asbasbasbag49
(g65
g51
NtRp2432
(dp2433
g54
(dp2434
sg63
g2071
sg56
(lp2435
g49
(g70
g51
NtRp2436
(dp2437
g54
(dp2438
g74
g75
ssg63
g2432
sg56
(lp2439
S'SERVER_PORT'
p2440
asbag49
(g70
g51
NtRp2441
(dp2442
g54
(dp2443
g81
g82
ssg63
g2432
sg56
(lp2444
S':'
asbag49
(g70
g51
NtRp2445
(dp2446
g54
(dp2447
sg63
g2432
sg56
(lp2448
g49
(g50
g51
NtRp2449
(dp2450
g54
(dp2451
g62
I3
ssg63
g2445
sg56
(lp2452
g1016
asbasbasbag49
(g65
g51
NtRp2453
(dp2454
g54
(dp2455
sg63
g2071
sg56
(lp2456
g49
(g70
g51
NtRp2457
(dp2458
g54
(dp2459
g74
g75
ssg63
g2453
sg56
(lp2460
S'SERVER_PROTOCOL'
p2461
asbag49
(g70
g51
NtRp2462
(dp2463
g54
(dp2464
g81
g82
ssg63
g2453
sg56
(lp2465
S':'
asbag49
(g70
g51
NtRp2466
(dp2467
g54
(dp2468
sg63
g2453
sg56
(lp2469
g49
(g50
g51
NtRp2470
(dp2471
g54
(dp2472
g62
I3
ssg63
g2466
sg56
(lp2473
g1038
asbasbasbag49
(g65
g51
NtRp2474
(dp2475
g54
(dp2476
sg63
g2071
sg56
(lp2477
g49
(g70
g51
NtRp2478
(dp2479
g54
(dp2480
g74
g75
ssg63
g2474
sg56
(lp2481
S'SERVER_SOFTWARE'
p2482
asbag49
(g70
g51
NtRp2483
(dp2484
g54
(dp2485
g81
g82
ssg63
g2474
sg56
(lp2486
S':'
asbag49
(g70
g51
NtRp2487
(dp2488
g54
(dp2489
sg63
g2474
sg56
(lp2490
g49
(g50
g51
NtRp2491
(dp2492
g54
(dp2493
g62
I3
ssg63
g2487
sg56
(lp2494
g1060
asbasbasbag49
(g65
g51
NtRp2495
(dp2496
g54
(dp2497
sg63
g2071
sg56
(lp2498
g49
(g70
g51
NtRp2499
(dp2500
g54
(dp2501
g74
g75
ssg63
g2495
sg56
(lp2502
S'WEB2PY_ORIGINAL_URI'
p2503
asbag49
(g70
g51
NtRp2504
(dp2505
g54
(dp2506
g81
g82
ssg63
g2495
sg56
(lp2507
S':'
asbag49
(g70
g51
NtRp2508
(dp2509
g54
(dp2510
sg63
g2495
sg56
(lp2511
g49
(g50
g51
NtRp2512
(dp2513
g54
(dp2514
g62
I3
ssg63
g2508
sg56
(lp2515
g1104
asbasbasbag49
(g65
g51
NtRp2516
(dp2517
g54
(dp2518
sg63
g2071
sg56
(lp2519
g49
(g70
g51
NtRp2520
(dp2521
g54
(dp2522
g74
g75
ssg63
g2516
sg56
(lp2523
S'wsgi.errors'
p2524
asbag49
(g70
g51
NtRp2525
(dp2526
g54
(dp2527
g81
g82
ssg63
g2516
sg56
(lp2528
S':'
asbag49
(g70
g51
NtRp2529
(dp2530
g54
(dp2531
sg63
g2516
sg56
(lp2532
g49
(g50
g51
NtRp2533
(dp2534
g54
(dp2535
g62
I3
ssg63
g2529
sg56
(lp2536
S"<open file '<stderr>', mode 'w' at 0x004200B0>"
p2537
asbasbasbag49
(g65
g51
NtRp2538
(dp2539
g54
(dp2540
sg63
g2071
sg56
(lp2541
g49
(g70
g51
NtRp2542
(dp2543
g54
(dp2544
g74
g75
ssg63
g2538
sg56
(lp2545
S'wsgi.file_wrapper'
p2546
asbag49
(g70
g51
NtRp2547
(dp2548
g54
(dp2549
g81
g82
ssg63
g2538
sg56
(lp2550
S':'
asbag49
(g70
g51
NtRp2551
(dp2552
g54
(dp2553
sg63
g2538
sg56
(lp2554
g49
(g50
g51
NtRp2555
(dp2556
g54
(dp2557
g62
I3
ssg63
g2551
sg56
(lp2558
S'<class wsgiref.util.FileWrapper at 0x02B69390>'
p2559
asbasbasbag49
(g65
g51
NtRp2560
(dp2561
g54
(dp2562
sg63
g2071
sg56
(lp2563
g49
(g70
g51
NtRp2564
(dp2565
g54
(dp2566
g74
g75
ssg63
g2560
sg56
(lp2567
S'wsgi.input'
p2568
asbag49
(g70
g51
NtRp2569
(dp2570
g54
(dp2571
g81
g82
ssg63
g2560
sg56
(lp2572
S':'
asbag49
(g70
g51
NtRp2573
(dp2574
g54
(dp2575
sg63
g2560
sg56
(lp2576
g49
(g50
g51
NtRp2577
(dp2578
g54
(dp2579
g62
I3
ssg63
g2573
sg56
(lp2580
S'<cStringIO.StringO object at 0x05FC8860>'
p2581
asbasbasbag49
(g65
g51
NtRp2582
(dp2583
g54
(dp2584
sg63
g2071
sg56
(lp2585
g49
(g70
g51
NtRp2586
(dp2587
g54
(dp2588
g74
g75
ssg63
g2582
sg56
(lp2589
S'wsgi.multiprocess'
p2590
asbag49
(g70
g51
NtRp2591
(dp2592
g54
(dp2593
g81
g82
ssg63
g2582
sg56
(lp2594
S':'
asbag49
(g70
g51
NtRp2595
(dp2596
g54
(dp2597
sg63
g2582
sg56
(lp2598
g49
(g50
g51
NtRp2599
(dp2600
g54
(dp2601
g62
I3
ssg63
g2595
sg56
(lp2602
g92
asbasbasbag49
(g65
g51
NtRp2603
(dp2604
g54
(dp2605
sg63
g2071
sg56
(lp2606
g49
(g70
g51
NtRp2607
(dp2608
g54
(dp2609
g74
g75
ssg63
g2603
sg56
(lp2610
S'wsgi.multithread'
p2611
asbag49
(g70
g51
NtRp2612
(dp2613
g54
(dp2614
g81
g82
ssg63
g2603
sg56
(lp2615
S':'
asbag49
(g70
g51
NtRp2616
(dp2617
g54
(dp2618
sg63
g2603
sg56
(lp2619
g49
(g50
g51
NtRp2620
(dp2621
g54
(dp2622
g62
I3
ssg63
g2616
sg56
(lp2623
g1322
asbasbasbag49
(g65
g51
NtRp2624
(dp2625
g54
(dp2626
sg63
g2071
sg56
(lp2627
g49
(g70
g51
NtRp2628
(dp2629
g54
(dp2630
g74
g75
ssg63
g2624
sg56
(lp2631
S'wsgi.run_once'
p2632
asbag49
(g70
g51
NtRp2633
(dp2634
g54
(dp2635
g81
g82
ssg63
g2624
sg56
(lp2636
S':'
asbag49
(g70
g51
NtRp2637
(dp2638
g54
(dp2639
sg63
g2624
sg56
(lp2640
g49
(g50
g51
NtRp2641
(dp2642
g54
(dp2643
g62
I3
ssg63
g2637
sg56
(lp2644
g92
asbasbasbag49
(g65
g51
NtRp2645
(dp2646
g54
(dp2647
sg63
g2071
sg56
(lp2648
g49
(g70
g51
NtRp2649
(dp2650
g54
(dp2651
g74
g75
ssg63
g2645
sg56
(lp2652
S'wsgi.url_scheme'
p2653
asbag49
(g70
g51
NtRp2654
(dp2655
g54
(dp2656
g81
g82
ssg63
g2645
sg56
(lp2657
S':'
asbag49
(g70
g51
NtRp2658
(dp2659
g54
(dp2660
sg63
g2645
sg56
(lp2661
g49
(g50
g51
NtRp2662
(dp2663
g54
(dp2664
g62
I3
ssg63
g2658
sg56
(lp2665
g1365
asbasbasbag49
(g65
g51
NtRp2666
(dp2667
g54
(dp2668
sg63
g2071
sg56
(lp2669
g49
(g70
g51
NtRp2670
(dp2671
g54
(dp2672
g74
g75
ssg63
g2666
sg56
(lp2673
S'wsgi.version'
p2674
asbag49
(g70
g51
NtRp2675
(dp2676
g54
(dp2677
g81
g82
ssg63
g2666
sg56
(lp2678
S':'
asbag49
(g70
g51
NtRp2679
(dp2680
g54
(dp2681
sg63
g2666
sg56
(lp2682
g49
(g50
g51
NtRp2683
(dp2684
g54
(dp2685
g62
I3
ssg63
g2679
sg56
(lp2686
S'1'
asbasbasbasbasbasbasbasbasbasbasbasbasbsS'frames'
p2687
(lp2688
(dp2689
S'file'
p2690
S'D:\\Dise\xf1o Web\\Proyectos\\Parleyweb\\web2py\\gluon\\restricted.py'
p2691
sS'dump'
p2692
(dp2693
sS'lnum'
p2694
I205
sS'lines'
p2695
(dp2696
sS'call'
p2697
S"(code='# -*- coding: utf-8 -*-\\n\\n#######################...ras.id, min_length=1)\\n#\\n#\\n#\\n#\\n#\\n#\\n#\\n#\\n#\\n#\\n#\\n#\\n#\\n\\n', environment={'A': <class 'gluon.html.A'>, 'Auth': <class 'gluon.tools.Auth'>, 'B': <class 'gluon.html.B'>, 'BEAUTIFY': <class 'gluon.html.BEAUTIFY'>, 'BODY': <class 'gluon.html.BODY'>, 'BR': <class 'gluon.html.BR'>, 'BUTTON': <class 'gluon.html.BUTTON'>, 'CAT': <class 'gluon.html.CAT'>, 'CENTER': <class 'gluon.html.CENTER'>, 'CLEANUP': <class 'gluon.validators.CLEANUP'>, ...}, layer='D:\\\\Dise\\xf1o Web\\\\Proyectos\\\\Parleyweb\\\\web2py\\\\applications\\\\webparley\\\\models\\\\db.py')"
p2698
sS'func'
p2699
S'restricted'
p2700
sa(dp2701
g2690
S'D:\\Dise\xf1o Web\\Proyectos\\Parleyweb\\web2py\\applications\\webparley\\models\\db.py'
p2702
sg2692
(dp2703
sg2694
I179
sg2695
(dp2704
I174
S''
sI175
S'### Validacion tabla palabras ###'
p2705
sI176
S'#db.palabras.palabra.represent = lambda palabra: palabra.capitalize()'
p2706
sI177
S"db.palabras.articulo.requires = IS_EMPTY_OR(IS_IN_SET(['Die', 'Der', 'Das'],zero=T('Elige uno'),"
p2707
sI178
S"         error_message=T('Elige Die, Der o Das')))"
p2708
sI179
S"db.palabras.glosario.requires = IS_EMPTY_OR(IS_IN_DB(db, 'glosarios.id', '%(nombre_glosario)s'))"
p2709
sI180
S''
sI181
S''
sI182
S''
sI183
S'### WIDGET AUTOCOMPLETAR para la tabla fuentes ###'
p2710
ssg2697
S'()'
p2711
sg2699
S'<module>'
p2712
sa(dp2713
g2690
S'D:\\Dise\xf1o Web\\Proyectos\\Parleyweb\\web2py\\gluon\\dal.py'
p2714
sg2692
(dp2715
sg2694
I6774
sg2695
(dp2716
sg2697
S"(self=<Table {'presente_1': <gluon.dal.Field object at..., '_id': <gluon.dal.Field object at 0x05CDB590>}>, key='glosario')"
p2717
sg2699
S'__getattr__'
p2718
sa(dp2719
g2690
S'D:\\Dise\xf1o Web\\Proyectos\\Parleyweb\\web2py\\gluon\\dal.py'
p2720
sg2692
(dp2721
sg2694
I6714
sg2695
(dp2722
sg2697
S"(self=<Table {'presente_1': <gluon.dal.Field object at..., '_id': <gluon.dal.Field object at 0x05CDB590>}>, key='glosario')"
p2723
sg2699
g20
sasS'pyver'
p2724
S'Python 2.5.4: D:\\Dise\xf1o Web\\Proyectos\\Parleyweb\\web2py\\web2py.exe'
p2725
sS'session'
p2726
g49
(g50
g51
NtRp2727
(dp2728
g54
(dp2729
sg56
(lp2730
g49
(g58
g51
NtRp2731
(dp2732
g54
(dp2733
g62
I5
ssg63
Nsg56
(lp2734
sbasbsS'etype'
p2735
S"<type 'exceptions.KeyError'>"
p2736
sS'date'
p2737
S'Wed Mar 21 00:27:44 2012'
p2738
sS'response'
p2739
g49
(g50
g51
NtRp2740
(dp2741
g54
(dp2742
sg56
(lp2743
g49
(g58
g51
NtRp2744
(dp2745
g54
(dp2746
g62
I5
ssg63
Nsg56
(lp2747
g49
(g65
g51
NtRp2748
(dp2749
g54
(dp2750
sg63
g2744
sg56
(lp2751
g49
(g70
g51
NtRp2752
(dp2753
g54
(dp2754
g74
g75
ssg63
g2748
sg56
(lp2755
g147
asbag49
(g70
g51
NtRp2756
(dp2757
g54
(dp2758
g81
g82
ssg63
g2748
sg56
(lp2759
S':'
asbag49
(g70
g51
NtRp2760
(dp2761
g54
(dp2762
sg63
g2748
sg56
(lp2763
g49
(g50
g51
NtRp2764
(dp2765
g54
(dp2766
g62
I5
ssg63
g2760
sg56
(lp2767
S'<cStringIO.StringO object at 0x05EEE340>'
p2768
asbasbasbag49
(g65
g51
NtRp2769
(dp2770
g54
(dp2771
sg63
g2744
sg56
(lp2772
g49
(g70
g51
NtRp2773
(dp2774
g54
(dp2775
g74
g75
ssg63
g2769
sg56
(lp2776
g213
asbag49
(g70
g51
NtRp2777
(dp2778
g54
(dp2779
g81
g82
ssg63
g2769
sg56
(lp2780
S':'
asbag49
(g70
g51
NtRp2781
(dp2782
g54
(dp2783
sg63
g2769
sg56
(lp2784
g49
(g50
g51
NtRp2785
(dp2786
g54
(dp2787
g62
I5
ssg63
g2781
sg56
(lp2788
g49
(g58
g51
NtRp2789
(dp2790
g54
(dp2791
g62
I4
ssg63
Nsg56
(lp2792
g49
(g65
g51
NtRp2793
(dp2794
g54
(dp2795
sg63
g2789
sg56
(lp2796
g49
(g70
g51
NtRp2797
(dp2798
g54
(dp2799
g74
g75
ssg63
g2793
sg56
(lp2800
S'session_id_webparley'
p2801
asbag49
(g70
g51
NtRp2802
(dp2803
g54
(dp2804
g81
g82
ssg63
g2793
sg56
(lp2805
S':'
asbag49
(g70
g51
NtRp2806
(dp2807
g54
(dp2808
sg63
g2793
sg56
(lp2809
g49
(g50
g51
NtRp2810
(dp2811
g54
(dp2812
g62
I4
ssg63
g2806
sg56
(lp2813
g49
(g58
g51
NtRp2814
(dp2815
g54
(dp2816
g62
I3
ssg63
Nsg56
(lp2817
g49
(g65
g51
NtRp2818
(dp2819
g54
(dp2820
sg63
g2814
sg56
(lp2821
g49
(g70
g51
NtRp2822
(dp2823
g54
(dp2824
g74
g75
ssg63
g2818
sg56
(lp2825
g263
asbag49
(g70
g51
NtRp2826
(dp2827
g54
(dp2828
g81
g82
ssg63
g2818
sg56
(lp2829
S':'
asbag49
(g70
g51
NtRp2830
(dp2831
g54
(dp2832
sg63
g2818
sg56
(lp2833
g49
(g50
g51
NtRp2834
(dp2835
g54
(dp2836
g62
I3
ssg63
g2830
sg56
(lp2837
S''
asbasbasbag49
(g65
g51
NtRp2838
(dp2839
g54
(dp2840
sg63
g2814
sg56
(lp2841
g49
(g70
g51
NtRp2842
(dp2843
g54
(dp2844
g74
g75
ssg63
g2838
sg56
(lp2845
g284
asbag49
(g70
g51
NtRp2846
(dp2847
g54
(dp2848
g81
g82
ssg63
g2838
sg56
(lp2849
S':'
asbag49
(g70
g51
NtRp2850
(dp2851
g54
(dp2852
sg63
g2838
sg56
(lp2853
g49
(g50
g51
NtRp2854
(dp2855
g54
(dp2856
g62
I3
ssg63
g2850
sg56
(lp2857
S''
asbasbasbag49
(g65
g51
NtRp2858
(dp2859
g54
(dp2860
sg63
g2814
sg56
(lp2861
g49
(g70
g51
NtRp2862
(dp2863
g54
(dp2864
g74
g75
ssg63
g2858
sg56
(lp2865
g305
asbag49
(g70
g51
NtRp2866
(dp2867
g54
(dp2868
g81
g82
ssg63
g2858
sg56
(lp2869
S':'
asbag49
(g70
g51
NtRp2870
(dp2871
g54
(dp2872
sg63
g2858
sg56
(lp2873
g49
(g50
g51
NtRp2874
(dp2875
g54
(dp2876
g62
I3
ssg63
g2870
sg56
(lp2877
S''
asbasbasbag49
(g65
g51
NtRp2878
(dp2879
g54
(dp2880
sg63
g2814
sg56
(lp2881
g49
(g70
g51
NtRp2882
(dp2883
g54
(dp2884
g74
g75
ssg63
g2878
sg56
(lp2885
g326
asbag49
(g70
g51
NtRp2886
(dp2887
g54
(dp2888
g81
g82
ssg63
g2878
sg56
(lp2889
S':'
asbag49
(g70
g51
NtRp2890
(dp2891
g54
(dp2892
sg63
g2878
sg56
(lp2893
g49
(g50
g51
NtRp2894
(dp2895
g54
(dp2896
g62
I3
ssg63
g2890
sg56
(lp2897
S''
asbasbasbag49
(g65
g51
NtRp2898
(dp2899
g54
(dp2900
sg63
g2814
sg56
(lp2901
g49
(g70
g51
NtRp2902
(dp2903
g54
(dp2904
g74
g75
ssg63
g2898
sg56
(lp2905
g347
asbag49
(g70
g51
NtRp2906
(dp2907
g54
(dp2908
g81
g82
ssg63
g2898
sg56
(lp2909
S':'
asbag49
(g70
g51
NtRp2910
(dp2911
g54
(dp2912
sg63
g2898
sg56
(lp2913
g49
(g50
g51
NtRp2914
(dp2915
g54
(dp2916
g62
I3
ssg63
g2910
sg56
(lp2917
S'/'
asbasbasbag49
(g65
g51
NtRp2918
(dp2919
g54
(dp2920
sg63
g2814
sg56
(lp2921
g49
(g70
g51
NtRp2922
(dp2923
g54
(dp2924
g74
g75
ssg63
g2918
sg56
(lp2925
g368
asbag49
(g70
g51
NtRp2926
(dp2927
g54
(dp2928
g81
g82
ssg63
g2918
sg56
(lp2929
S':'
asbag49
(g70
g51
NtRp2930
(dp2931
g54
(dp2932
sg63
g2918
sg56
(lp2933
g49
(g50
g51
NtRp2934
(dp2935
g54
(dp2936
g62
I3
ssg63
g2930
sg56
(lp2937
S''
asbasbasbag49
(g65
g51
NtRp2938
(dp2939
g54
(dp2940
sg63
g2814
sg56
(lp2941
g49
(g70
g51
NtRp2942
(dp2943
g54
(dp2944
g74
g75
ssg63
g2938
sg56
(lp2945
g389
asbag49
(g70
g51
NtRp2946
(dp2947
g54
(dp2948
g81
g82
ssg63
g2938
sg56
(lp2949
S':'
asbag49
(g70
g51
NtRp2950
(dp2951
g54
(dp2952
sg63
g2938
sg56
(lp2953
g49
(g50
g51
NtRp2954
(dp2955
g54
(dp2956
g62
I3
ssg63
g2950
sg56
(lp2957
S''
asbasbasbasbasbasbasbasbasbasbasbag49
(g65
g51
NtRp2958
(dp2959
g54
(dp2960
sg63
g2744
sg56
(lp2961
g49
(g70
g51
NtRp2962
(dp2963
g54
(dp2964
g74
g75
ssg63
g2958
sg56
(lp2965
S'delimiters'
p2966
asbag49
(g70
g51
NtRp2967
(dp2968
g54
(dp2969
g81
g82
ssg63
g2958
sg56
(lp2970
S':'
asbag49
(g70
g51
NtRp2971
(dp2972
g54
(dp2973
sg63
g2958
sg56
(lp2974
g49
(g50
g51
NtRp2975
(dp2976
g54
(dp2977
g62
I5
ssg63
g2971
sg56
(lp2978
g49
(g58
g51
NtRp2979
(dp2980
g54
(dp2981
g62
I4
ssg63
Nsg56
(lp2982
g49
(g65
g51
NtRp2983
(dp2984
g54
(dp2985
sg63
g2979
sg56
(lp2986
g49
(g70
g51
NtRp2987
(dp2988
g54
(dp2989
sg63
g2983
sg56
(lp2990
g49
(g50
g51
NtRp2991
(dp2992
g54
(dp2993
g62
I4
ssg63
g2987
sg56
(lp2994
S'{{'
p2995
asbasbasbag49
(g65
g51
NtRp2996
(dp2997
g54
(dp2998
sg63
g2979
sg56
(lp2999
g49
(g70
g51
NtRp3000
(dp3001
g54
(dp3002
sg63
g2996
sg56
(lp3003
g49
(g50
g51
NtRp3004
(dp3005
g54
(dp3006
g62
I4
ssg63
g3000
sg56
(lp3007
S'}}'
p3008
asbasbasbasbasbasbasbag49
(g65
g51
NtRp3009
(dp3010
g54
(dp3011
sg63
g2744
sg56
(lp3012
g49
(g70
g51
NtRp3013
(dp3014
g54
(dp3015
g74
g75
ssg63
g3009
sg56
(lp3016
S'files'
p3017
asbag49
(g70
g51
NtRp3018
(dp3019
g54
(dp3020
g81
g82
ssg63
g3009
sg56
(lp3021
S':'
asbag49
(g70
g51
NtRp3022
(dp3023
g54
(dp3024
sg63
g3009
sg56
(lp3025
g49
(g50
g51
NtRp3026
(dp3027
g54
(dp3028
g62
I5
ssg63
g3022
sg56
(lp3029
g49
(g58
g51
NtRp3030
(dp3031
g54
(dp3032
g62
I4
ssg63
Nsg56
(lp3033
sbasbasbasbag49
(g65
g51
NtRp3034
(dp3035
g54
(dp3036
sg63
g2744
sg56
(lp3037
g49
(g70
g51
NtRp3038
(dp3039
g54
(dp3040
g74
g75
ssg63
g3034
sg56
(lp3041
S'flash'
p3042
asbag49
(g70
g51
NtRp3043
(dp3044
g54
(dp3045
g81
g82
ssg63
g3034
sg56
(lp3046
S':'
asbag49
(g70
g51
NtRp3047
(dp3048
g54
(dp3049
sg63
g3034
sg56
(lp3050
g49
(g50
g51
NtRp3051
(dp3052
g54
(dp3053
g62
I5
ssg63
g3047
sg56
(lp3054
S''
asbasbasbag49
(g65
g51
NtRp3055
(dp3056
g54
(dp3057
sg63
g2744
sg56
(lp3058
g49
(g70
g51
NtRp3059
(dp3060
g54
(dp3061
g74
g75
ssg63
g3055
sg56
(lp3062
S'generic_patterns'
p3063
asbag49
(g70
g51
NtRp3064
(dp3065
g54
(dp3066
g81
g82
ssg63
g3055
sg56
(lp3067
S':'
asbag49
(g70
g51
NtRp3068
(dp3069
g54
(dp3070
sg63
g3055
sg56
(lp3071
g49
(g50
g51
NtRp3072
(dp3073
g54
(dp3074
g62
I5
ssg63
g3068
sg56
(lp3075
g49
(g58
g51
NtRp3076
(dp3077
g54
(dp3078
g62
I4
ssg63
Nsg56
(lp3079
g49
(g65
g51
NtRp3080
(dp3081
g54
(dp3082
sg63
g3076
sg56
(lp3083
g49
(g70
g51
NtRp3084
(dp3085
g54
(dp3086
sg63
g3080
sg56
(lp3087
g49
(g50
g51
NtRp3088
(dp3089
g54
(dp3090
g62
I4
ssg63
g3084
sg56
(lp3091
S'*'
asbasbasbasbasbasbasbag49
(g65
g51
NtRp3092
(dp3093
g54
(dp3094
sg63
g2744
sg56
(lp3095
g49
(g70
g51
NtRp3096
(dp3097
g54
(dp3098
g74
g75
ssg63
g3092
sg56
(lp3099
S'headers'
p3100
asbag49
(g70
g51
NtRp3101
(dp3102
g54
(dp3103
g81
g82
ssg63
g3092
sg56
(lp3104
S':'
asbag49
(g70
g51
NtRp3105
(dp3106
g54
(dp3107
sg63
g3092
sg56
(lp3108
g49
(g50
g51
NtRp3109
(dp3110
g54
(dp3111
g62
I5
ssg63
g3105
sg56
(lp3112
g49
(g58
g51
NtRp3113
(dp3114
g54
(dp3115
g62
I4
ssg63
Nsg56
(lp3116
g49
(g65
g51
NtRp3117
(dp3118
g54
(dp3119
sg63
g3113
sg56
(lp3120
g49
(g70
g51
NtRp3121
(dp3122
g54
(dp3123
g74
g75
ssg63
g3117
sg56
(lp3124
S'Cache-Control'
p3125
asbag49
(g70
g51
NtRp3126
(dp3127
g54
(dp3128
g81
g82
ssg63
g3117
sg56
(lp3129
S':'
asbag49
(g70
g51
NtRp3130
(dp3131
g54
(dp3132
sg63
g3117
sg56
(lp3133
g49
(g50
g51
NtRp3134
(dp3135
g54
(dp3136
g62
I4
ssg63
g3130
sg56
(lp3137
S'no-store, no-cache, must-revalidate, post-check=0, pre-check=0'
p3138
asbasbasbag49
(g65
g51
NtRp3139
(dp3140
g54
(dp3141
sg63
g3113
sg56
(lp3142
g49
(g70
g51
NtRp3143
(dp3144
g54
(dp3145
g74
g75
ssg63
g3139
sg56
(lp3146
S'Content-Type'
p3147
asbag49
(g70
g51
NtRp3148
(dp3149
g54
(dp3150
g81
g82
ssg63
g3139
sg56
(lp3151
S':'
asbag49
(g70
g51
NtRp3152
(dp3153
g54
(dp3154
sg63
g3139
sg56
(lp3155
g49
(g50
g51
NtRp3156
(dp3157
g54
(dp3158
g62
I4
ssg63
g3152
sg56
(lp3159
S'text/html; charset=utf-8'
p3160
asbasbasbag49
(g65
g51
NtRp3161
(dp3162
g54
(dp3163
sg63
g3113
sg56
(lp3164
g49
(g70
g51
NtRp3165
(dp3166
g54
(dp3167
g74
g75
ssg63
g3161
sg56
(lp3168
S'Expires'
p3169
asbag49
(g70
g51
NtRp3170
(dp3171
g54
(dp3172
g81
g82
ssg63
g3161
sg56
(lp3173
S':'
asbag49
(g70
g51
NtRp3174
(dp3175
g54
(dp3176
sg63
g3161
sg56
(lp3177
g49
(g50
g51
NtRp3178
(dp3179
g54
(dp3180
g62
I4
ssg63
g3174
sg56
(lp3181
S'Tue, 20 Mar 2012 23:27:44 GMT'
p3182
asbasbasbag49
(g65
g51
NtRp3183
(dp3184
g54
(dp3185
sg63
g3113
sg56
(lp3186
g49
(g70
g51
NtRp3187
(dp3188
g54
(dp3189
g74
g75
ssg63
g3183
sg56
(lp3190
S'Pragma'
p3191
asbag49
(g70
g51
NtRp3192
(dp3193
g54
(dp3194
g81
g82
ssg63
g3183
sg56
(lp3195
S':'
asbag49
(g70
g51
NtRp3196
(dp3197
g54
(dp3198
sg63
g3183
sg56
(lp3199
g49
(g50
g51
NtRp3200
(dp3201
g54
(dp3202
g62
I4
ssg63
g3196
sg56
(lp3203
S'no-cache'
p3204
asbasbasbag49
(g65
g51
NtRp3205
(dp3206
g54
(dp3207
sg63
g3113
sg56
(lp3208
g49
(g70
g51
NtRp3209
(dp3210
g54
(dp3211
g74
g75
ssg63
g3205
sg56
(lp3212
S'X-Powered-By'
p3213
asbag49
(g70
g51
NtRp3214
(dp3215
g54
(dp3216
g81
g82
ssg63
g3205
sg56
(lp3217
S':'
asbag49
(g70
g51
NtRp3218
(dp3219
g54
(dp3220
sg63
g3205
sg56
(lp3221
g49
(g50
g51
NtRp3222
(dp3223
g54
(dp3224
g62
I4
ssg63
g3218
sg56
(lp3225
S'web2py'
p3226
asbasbasbasbasbasbasbag49
(g65
g51
NtRp3227
(dp3228
g54
(dp3229
sg63
g2744
sg56
(lp3230
g49
(g70
g51
NtRp3231
(dp3232
g54
(dp3233
g74
g75
ssg63
g3227
sg56
(lp3234
S'menu'
p3235
asbag49
(g70
g51
NtRp3236
(dp3237
g54
(dp3238
g81
g82
ssg63
g3227
sg56
(lp3239
S':'
asbag49
(g70
g51
NtRp3240
(dp3241
g54
(dp3242
sg63
g3227
sg56
(lp3243
g49
(g50
g51
NtRp3244
(dp3245
g54
(dp3246
g62
I5
ssg63
g3240
sg56
(lp3247
g49
(g58
g51
NtRp3248
(dp3249
g54
(dp3250
g62
I4
ssg63
Nsg56
(lp3251
sbasbasbasbag49
(g65
g51
NtRp3252
(dp3253
g54
(dp3254
sg63
g2744
sg56
(lp3255
g49
(g70
g51
NtRp3256
(dp3257
g54
(dp3258
g74
g75
ssg63
g3252
sg56
(lp3259
S'meta'
p3260
asbag49
(g70
g51
NtRp3261
(dp3262
g54
(dp3263
g81
g82
ssg63
g3252
sg56
(lp3264
S':'
asbag49
(g70
g51
NtRp3265
(dp3266
g54
(dp3267
sg63
g3252
sg56
(lp3268
g49
(g50
g51
NtRp3269
(dp3270
g54
(dp3271
g62
I5
ssg63
g3265
sg56
(lp3272
g49
(g58
g51
NtRp3273
(dp3274
g54
(dp3275
g62
I4
ssg63
Nsg56
(lp3276
sbasbasbasbag49
(g65
g51
NtRp3277
(dp3278
g54
(dp3279
sg63
g2744
sg56
(lp3280
g49
(g70
g51
NtRp3281
(dp3282
g54
(dp3283
g74
g75
ssg63
g3277
sg56
(lp3284
S'postprocessing'
p3285
asbag49
(g70
g51
NtRp3286
(dp3287
g54
(dp3288
g81
g82
ssg63
g3277
sg56
(lp3289
S':'
asbag49
(g70
g51
NtRp3290
(dp3291
g54
(dp3292
sg63
g3277
sg56
(lp3293
g49
(g50
g51
NtRp3294
(dp3295
g54
(dp3296
g62
I5
ssg63
g3290
sg56
(lp3297
g49
(g58
g51
NtRp3298
(dp3299
g54
(dp3300
g62
I4
ssg63
Nsg56
(lp3301
sbasbasbasbag49
(g65
g51
NtRp3302
(dp3303
g54
(dp3304
sg63
g2744
sg56
(lp3305
g49
(g70
g51
NtRp3306
(dp3307
g54
(dp3308
g74
g75
ssg63
g3302
sg56
(lp3309
S'session_file'
p3310
asbag49
(g70
g51
NtRp3311
(dp3312
g54
(dp3313
g81
g82
ssg63
g3302
sg56
(lp3314
S':'
asbag49
(g70
g51
NtRp3315
(dp3316
g54
(dp3317
sg63
g3302
sg56
(lp3318
g49
(g50
g51
NtRp3319
(dp3320
g54
(dp3321
g62
I5
ssg63
g3315
sg56
(lp3322
S"<open file 'D:\\Dise\xf1o Web\\Proyectos\\Parleyweb\\web2py\\applications\\webparley\\sessions\\127.0.0.1-bc69089f-ede7-4142-9e2c-fc2ecaebea00', mode 'rb+' at 0x05FD3458>"
p3323
asbasbasbag49
(g65
g51
NtRp3324
(dp3325
g54
(dp3326
sg63
g2744
sg56
(lp3327
g49
(g70
g51
NtRp3328
(dp3329
g54
(dp3330
g74
g75
ssg63
g3324
sg56
(lp3331
S'session_filename'
p3332
asbag49
(g70
g51
NtRp3333
(dp3334
g54
(dp3335
g81
g82
ssg63
g3324
sg56
(lp3336
S':'
asbag49
(g70
g51
NtRp3337
(dp3338
g54
(dp3339
sg63
g3324
sg56
(lp3340
g49
(g50
g51
NtRp3341
(dp3342
g54
(dp3343
g62
I5
ssg63
g3337
sg56
(lp3344
S'D:\\Dise\xf1o Web\\Proyectos\\Parleyweb\\web2py\\applications\\webparley\\sessions\\127.0.0.1-bc69089f-ede7-4142-9e2c-fc2ecaebea00'
p3345
asbasbasbag49
(g65
g51
NtRp3346
(dp3347
g54
(dp3348
sg63
g2744
sg56
(lp3349
g49
(g70
g51
NtRp3350
(dp3351
g54
(dp3352
g74
g75
ssg63
g3346
sg56
(lp3353
S'session_id'
p3354
asbag49
(g70
g51
NtRp3355
(dp3356
g54
(dp3357
g81
g82
ssg63
g3346
sg56
(lp3358
S':'
asbag49
(g70
g51
NtRp3359
(dp3360
g54
(dp3361
sg63
g3346
sg56
(lp3362
g49
(g50
g51
NtRp3363
(dp3364
g54
(dp3365
g62
I5
ssg63
g3359
sg56
(lp3366
S'127.0.0.1-bc69089f-ede7-4142-9e2c-fc2ecaebea00'
p3367
asbasbasbag49
(g65
g51
NtRp3368
(dp3369
g54
(dp3370
sg63
g2744
sg56
(lp3371
g49
(g70
g51
NtRp3372
(dp3373
g54
(dp3374
g74
g75
ssg63
g3368
sg56
(lp3375
S'session_id_name'
p3376
asbag49
(g70
g51
NtRp3377
(dp3378
g54
(dp3379
g81
g82
ssg63
g3368
sg56
(lp3380
S':'
asbag49
(g70
g51
NtRp3381
(dp3382
g54
(dp3383
sg63
g3368
sg56
(lp3384
g49
(g50
g51
NtRp3385
(dp3386
g54
(dp3387
g62
I5
ssg63
g3381
sg56
(lp3388
g2801
asbasbasbag49
(g65
g51
NtRp3389
(dp3390
g54
(dp3391
sg63
g2744
sg56
(lp3392
g49
(g70
g51
NtRp3393
(dp3394
g54
(dp3395
g74
g75
ssg63
g3389
sg56
(lp3396
S'session_locked'
p3397
asbag49
(g70
g51
NtRp3398
(dp3399
g54
(dp3400
g81
g82
ssg63
g3389
sg56
(lp3401
S':'
asbag49
(g70
g51
NtRp3402
(dp3403
g54
(dp3404
sg63
g3389
sg56
(lp3405
g49
(g50
g51
NtRp3406
(dp3407
g54
(dp3408
g62
I5
ssg63
g3402
sg56
(lp3409
g1322
asbasbasbag49
(g65
g51
NtRp3410
(dp3411
g54
(dp3412
sg63
g2744
sg56
(lp3413
g49
(g70
g51
NtRp3414
(dp3415
g54
(dp3416
g74
g75
ssg63
g3410
sg56
(lp3417
S'session_new'
p3418
asbag49
(g70
g51
NtRp3419
(dp3420
g54
(dp3421
g81
g82
ssg63
g3410
sg56
(lp3422
S':'
asbag49
(g70
g51
NtRp3423
(dp3424
g54
(dp3425
sg63
g3410
sg56
(lp3426
g49
(g50
g51
NtRp3427
(dp3428
g54
(dp3429
g62
I5
ssg63
g3423
sg56
(lp3430
g92
asbasbasbag49
(g65
g51
NtRp3431
(dp3432
g54
(dp3433
sg63
g2744
sg56
(lp3434
g49
(g70
g51
NtRp3435
(dp3436
g54
(dp3437
g74
g75
ssg63
g3431
sg56
(lp3438
S'status'
p3439
asbag49
(g70
g51
NtRp3440
(dp3441
g54
(dp3442
g81
g82
ssg63
g3431
sg56
(lp3443
S':'
asbag49
(g70
g51
NtRp3444
(dp3445
g54
(dp3446
sg63
g3431
sg56
(lp3447
g49
(g50
g51
NtRp3448
(dp3449
g54
(dp3450
g62
I5
ssg63
g3444
sg56
(lp3451
S'200'
p3452
asbasbasbag49
(g65
g51
NtRp3453
(dp3454
g54
(dp3455
sg63
g2744
sg56
(lp3456
g49
(g70
g51
NtRp3457
(dp3458
g54
(dp3459
g74
g75
ssg63
g3453
sg56
(lp3460
g1986
asbag49
(g70
g51
NtRp3461
(dp3462
g54
(dp3463
g81
g82
ssg63
g3453
sg56
(lp3464
S':'
asbag49
(g70
g51
NtRp3465
(dp3466
g54
(dp3467
sg63
g3453
sg56
(lp3468
g49
(g50
g51
NtRp3469
(dp3470
g54
(dp3471
g62
I5
ssg63
g3465
sg56
(lp3472
g1999
asbasbasbag49
(g65
g51
NtRp3473
(dp3474
g54
(dp3475
sg63
g2744
sg56
(lp3476
g49
(g70
g51
NtRp3477
(dp3478
g54
(dp3479
g74
g75
ssg63
g3473
sg56
(lp3480
S'view'
p3481
asbag49
(g70
g51
NtRp3482
(dp3483
g54
(dp3484
g81
g82
ssg63
g3473
sg56
(lp3485
S':'
asbag49
(g70
g51
NtRp3486
(dp3487
g54
(dp3488
sg63
g3473
sg56
(lp3489
g49
(g50
g51
NtRp3490
(dp3491
g54
(dp3492
g62
I5
ssg63
g3486
sg56
(lp3493
S'admin/agregar_palabra.html'
p3494
asbasbasbasbasbsS'locals'
p3495
(dp3496
S'self'
p3497
S"<Table {'presente_1': <gluon.dal.Field object at..., '_id': <gluon.dal.Field object at 0x05CDB590>}>"
p3498
sS'key'
p3499
S"'glosario'"
p3500
sssS'traceback'
p3501
S'Traceback (most recent call last):\n  File "gluon/restricted.py", line 205, in restricted\n  File "D:\\Dise\xf1o Web\\Proyectos\\Parleyweb\\web2py\\applications\\webparley\\models\\db.py", line 179, in <module>\n  File "gluon/dal.py", line 6774, in __getattr__\n  File "gluon/dal.py", line 6714, in __getitem__\nKeyError: \'glosario\'\n'
p3502
s.