(dp1
S'output'
p2
S"<type 'exceptions.IndentationError'> expected an indented block (controllers/admin.py, line 14)"
p3
sS'layer'
p4
S'D:\\Dise\xf1o Web\\Proyectos\\Parleyweb\\web2py\\applications\\parleyweb\\controllers/admin.py'
p5
sS'code'
p6
S'# coding: utf8\n# intente algo como\ndef index():\n    """\n    Pagina principal de la administracion \n    """\n    form = SQLFORM(db.busqueda, formstyle=\'divs\', _id="buscar_palabra_admin", submit_button=\'Enviar\')\n    if form.accepts(request.vars, session, dbio=False): # metodo para validar las entradas del formulario, dbio=False no guarda en la bases de datos\n      #  a = db(db.palabras.palabra==request.post_vars.buscar_palabra)\n        #if not request.post_vars.buscar_palabra:\n            #response.flash = \'Palabra no encontrada\'\n    #id_palabra = request.vars.buscar_palabra # el id de la palabra cuando se envia el formulario #borrar\n    #palabra_ejemplo = db(db.palabras.id==id_palabra).select(db.palabras.palabra).first()         #borrar\n    ejemplos = db((db.palabras.id==db.palabra_ejemplo.palabra)&(db.ejemplos.id==db.palabra_ejemplo.ejemplo)) # asi se igualan las tablas para las relaciones muchos a muchos\n    return dict(form=form, ejemplos=ejemplos) # llama a la vista con el nombre de la funcion las variables\n        \ndef agregar_palabra():\n    """\n    Se agregan  palabras y se muestran los ultimos 10 registros insertados con los cuales\n    se pueden hacer distintas operaciones\n    """\n    db.palabras.palabra.requires = IS_NOT_IN_DB(db,\'palabras.palabra\') # Validacion para  la palabra que se inserte no puede estar ya en la DB\n    agregar = SQLFORM(db.palabras, formstyle="divs", _id="form-agregar", submit_button="Enviar" , _autocomplete="off") # se genera el formulario para la tabla palabras\n    if agregar.accepts(request.vars, session): #metodo para validar las entradas del formulario\n       \n       response.flash = \'Registro insertado\' # mensajes del sistema\n    elif agregar.errors:  # Metodo usado para cuando se producen errores\n       response.flash = \'Hay un error\'\n    contador_ejemplo = db().select(db.palabra_ejemplo.ALL) # selecionar todos los registro de la tabla palabra_ejemplo para luego contarlos\n    consulta = db().select(db.palabras.ALL, orderby=~db.palabras.id , limitby=(0,9)) # muestra los 10 ultimos registros insertados\n    contador = db(db.palabras.id > 0).count() # cuenta cuantos registros hay en la DB\n    return dict(agregar=agregar, consulta=consulta, contador=contador, contador_ejemplo=contador_ejemplo)\n\ndef agregar_ejemplo():\n    """\n    Se agregan los ejemplos y se muestran los ultimos 10 registros insertados con los cuales\n    se pueden hacer distintas operaciones\n    """\n    agregar_ejemplo = SQLFORM(db.ejemplos, formstyle="divs", _id="form-ejemplo", labels={\'ejemplo_de\':\'\', \'ejemplo_es\':\'\'} )\n    if agregar_ejemplo.accepts(request.vars, session):\n        response.flash = \'Ejemplo agregado\'\n        redirect(URL(\'agregar_ejemplo\'))\n    elif agregar_ejemplo.errors:\n        response.flash="Hay algun error"\n    nombre_fuente = db().select(db.fuentes.ALL)\n    contador_palabra = db().select(db.palabra_ejemplo.ALL) # selecionar todos los registro de la tabla palabra_ejemplo para luego contarlos\n    consulta_ejemplos = db().select(db.ejemplos.ALL, orderby=~db.ejemplos.id, limitby=(0,9)) # muestra los 10 ultimos registros insertados\n    contador2 = db(db.ejemplos.id > 0).count() # cuenta cuantos registros hay en la DB\n    ejemplos = db((db.palabras.id==db.palabra_ejemplo.palabra)&(db.ejemplos.id==db.palabra_ejemplo.ejemplo))\n    #palabras = db(db.palabra_ejemplo.palabra==db.palabras.id)\n    return dict(ejemplos=ejemplos, consulta_ejemplos=consulta_ejemplos, agregar_ejemplo=agregar_ejemplo, contador2=contador2, contador_palabra=contador_palabra, nombre_fuente=nombre_fuente)\ndef agregar_fuente():\n    agregar_fuente = SQLFORM(db.fuentes, formstyle="divs", _id="form-fuentes" )\n    if agregar_fuente.accepts(request.vars, session):\n       response.flash = \'Fuente insertado\'\n    elif agregar_fuente.errors:\n       response.flash = \'Hay un error\'\n    consulta = db().select(db.fuentes.ALL, orderby=~db.fuentes.id , limitby=(0,9)) # muestra los 10 ultimos registros insertados\n    contador = db(db.fuentes.id > 0).count() # cuenta cuantos registros hay en la DB\n    return dict(agregar_fuente=agregar_fuente, consulta=consulta, contador=contador)\n    \ndef agregar_glosario():\n    agregar_glosario = SQLFORM(db.glosario, formstyle="divs", _id="form-glsoario" )\n    if agregar_glosario.accepts(request.vars, session):\n       response.flash = \'Fuente insertado\'\n    elif agregar_glosario.errors:\n       response.flash = \'Hay un error\'\n    consulta = db().select(db.glosario.ALL, orderby=~db.glosario.id , limitby=(0,9)) # muestra los 10 ultimos registros insertados\n    contador = db(db.glosario.id > 0).count() # cuenta cuantos registros hay en la DB\n    return dict(agregar_glosario=agregar_glosario, consulta=consulta, contador=contador)\n    \ndef agregar_palabra_grid():\n    """\n    El grid propocionado por web2py, utilizado para administracion\n    """\n    agregar = SQLFORM.grid(db.worte, _class="table margin-top table-striped")\n    return dict(agregar=agregar)\n\ndef borrar_palabra():# \n    """\n    simplemente carga la vista para ejecutar el Modal\n    """\n    return dict()\n\ndef borrar_palabra2():\n    """\n    Es la accion que borra la palabra y redirecciona al index de admin\n    """\n    db(db.palabras.id == request.args(0)).delete() # borra la palabra de la DB\n    session.flash=\'Registro borrado\' # se usa cuando se redirecciona a otra, y se quiere mostrar el mensaje del sistema\n    redirect(URL(\'agregar_palabra\'))\n \ndef borrar_ejemplo(): \n    """\n    simplemente carga la vista para ejecutar el Modal\n    """\n    return dict()\n\ndef borrar_ejemplo2():\n    """\n    realiza la accion de borrar y redirecciona\n    """\n    db(db.ejemplos.id == request.args(0)).delete() # borra la palabra de la DB\n    session.flash=\'Ejemplo borrado\'\n    redirect(URL(\'agregar_ejemplo\'))\n    \ndef borrar_fuente():# \n    """\n    simplemente carga la vista para ejecutar el Modal\n    """\n    return dict()\n    \ndef borrar_fuente2():\n    """\n    realiza la accion de borrar y redirecciona\n    """\n    db(db.fuentes.id == request.args(0)).delete() # borra la palabra de la DB\n    session.flash=\'Fuente borrada\'\n    redirect(URL(\'agregar_fuente\'))\n\ndef editar_palabra():\n    """\n    Se carga el formulario para editar el registro\n    """\n    record = db.palabras(request.args(0)) # Seleciona el registro de la DB con el primer argumentro pasado\n    form = SQLFORM(db.palabras, record, formstyle=\'divs\', _class=\'form-inline wellparley\', _id=\'form-editar\') # formulario para actualizar hay que pasarle el registro que se quiere actualizar\n    if form.accepts(request.vars, session):\n       session.flash=\'Palabra editada\' \n       redirect(URL(\'agregar_palabra\'))\n    elif form.errors:\n     response.flash = \'El formulario tiene errores\'\n    return dict(form=form)\n    \n\n    \ndef editar_ejemplo():\n    """\n    carga el formulario para la edicion de el ejemplo, valida y redirecciona\n    """\n    record = db.ejemplos(request.args(0)) # Seleciona el registro de la DB con el primer argumentro pasado\n    form = SQLFORM(db.ejemplos, record, formstyle=\'divs\', _class=\'form-inline wellparley\', _id=\'form-editar-ejemplo\')\n    if form.accepts(request.vars):\n       session.flash=\'Ejemplo editado\' \n       redirect(URL(\'agregar_ejemplo\'))\n    elif form.errors:\n       response.flash = \'El formulario tiene errores\'\n    return dict(form=form)\n    \ndef editar_fuente():\n    """\n    carga el formulario para la edicion de el ejemplo, valida y redirecciona\n    """\n    record = db.fuentes(request.args(0)) # Seleciona el registro de la DB con el primer argumentro pasado\n    form = SQLFORM(db.fuentes, record, formstyle=\'divs\', _class=\'form-inline wellparley\', _id=\'form-editar-fuente\')\n    if form.accepts(request.vars):\n       session.flash=\'Fuente editada\' \n       redirect(URL(\'agregar_fuente\'))\n    elif form.errors:\n       response.flash = \'form has errors\'\n    return dict(form=form)\n    \ndef relacionar_ejemplo():\n    """\n    Recibe el id de la palabra para guardarlo en\n    DB junto al ejemplo a relacionar, quiere decir que tengo que cargar el un formulario\n    con los campos de la tabla ejemplo, meter las id en variables y luego guardarlas en las tablas\n    correspondiente\n    """\n    id_palabra = request.args(0) # Mete en una variable el valor de request.args(0), no es necesario\n    palabra = db(db.palabras.id==id_palabra).select().first() # selecciona el primer registro que se igual al id de la palabra\n    form = SQLFORM(db.ejemplos, labels={\'ejemplo_de\':\'\', \'ejemplo_es\':\'\'}) # para ingresar en la db debe tener el metodo form.accepts\n    if form.accepts(request.vars, session):\n        id_ejemplo = db(db.ejemplos.ejemplo_de==request.vars.ejemplo_de).select().first() # mete la consulta en una variable\n        db.palabra_ejemplo.insert(palabra=id_palabra, ejemplo=id_ejemplo.id) # inserta en la DB los id de los registro selecionados, estos es para las relaciones muchos a muschos\n        session.flash = \'Ejemplo Relacionado\'\n        redirect(URL(\'agregar_palabra\'))\n    elif form.errors:\n        response.flash = \'Mira otra vez\'\n    return dict(palabra=palabra, form=form,)\n    \ndef relacionar_palabra(): #Redisenar \n    """\n    Recibe el id de el ejemplo para guardarlo en\n    DB junto a la palabra a relacionar, quiere decir que tengo que cargar el un formulario\n    con los campos de la tabla palabra, meter las id en variables y luego guardarlas en las tablas\n    correspondiente *********importante cuando se relacione la palabra hay que traer todos los campos de ingresar palabra cuando la palabra no se encuentra en DB\n    *********** redisenar no sirve este codigo\n    """\n    id_ejemplo = request.args(0)\n    #form=FORM(\'Palabra:\',\n              #INPUT(_name=\'palabra\', requires=IS_NOT_EMPTY()),\n              #INPUT(_type=\'submit\'))\n    ejemplo = db(db.ejemplos.id==id_ejemplo).select().first()\n    form = SQLFORM(db.autocompletar_palabra, _autocomplete="off")\n    if form.accepts(request.vars, session, dbio=False):\n        consulta = db(db.palabras.palabra==request.vars.palabra).select().first() # se busca si la palabra ya esta en la DB\n        #igualar = db((db.palabras.id==db.palabra_ejemplo.palabra)&(db.ejemplos.id==db.palabra_ejemplo.ejemplo))\n        #selecionar = igualar(db.palabras.palabra==request.vars.palabra).select(db.palabra_ejemplo.ALL)\n        #consulta = selecionar\n        if consulta: # si la palabra esta ya en la db, solo hay que ingresar ambos id de la palabra y el ejemplo en la tabla palabra_ejemplo\n            consulta_id_palabra = db((db.palabra_ejemplo.palabra==consulta.id)&(db.palabra_ejemplo.ejemplo==request.args(0))).select().first() # consulta si el id de la palabra ya se encuentra en la db\n            if consulta_id_palabra:\n                session.flash="Palabra ya relacionada con el ejemplo"\n                redirect(URL(\'admin\', \'agregar_ejemplo\'))\n            else:\n                db.palabra_ejemplo.insert(palabra=consulta.id, ejemplo=request.args(0))\n                session.flash = \'Palabra relacionada\'\n                redirect(URL(\'admin\', \'agregar_ejemplo\'))\n        else:\n            db.palabras.insert(palabra=request.vars.palabra)\n            ultimo_registro = db(db.palabras.id > 0).select().last()\n            db.palabra_ejemplo.insert(palabra=ultimo_registro.id, ejemplo=request.args(0))\n            session.flash = \'Palabra relacionada y agregada\'\n            redirect(URL(\'admin\', \'agregar_ejemplo\'))\n            \n    elif form.errors:\n        response.flash = \'Mira otra vez\'\n    return dict(ejemplo=ejemplo, form=form)    \n    \n    \n    \n    \n    \n    \n    \n    \n    \n    \n    \n    \n    \n    \n    \n    \n    \n    \n    \n\nresponse._vars=response._caller(index)\n'
p7
sS'snapshot'
p8
(dp9
S'exception'
p10
(dp11
S'__getslice__'
p12
S"<method-wrapper '__getslice__' of exceptions.IndentationError object at 0x06EAA470>"
p13
sS'text'
p14
S"'    ejemplos = db((db.palabras.id==db.palabra_ej...n las tablas para las relaciones muchos a muchos\\n'"
p15
sS'__str__'
p16
S"<method-wrapper '__str__' of exceptions.IndentationError object at 0x06EAA470>"
p17
sS'__reduce__'
p18
S'<built-in method __reduce__ of exceptions.IndentationError object at 0x06EAA470>'
p19
sS'__dict__'
p20
S'{}'
p21
sS'__init__'
p22
S"<method-wrapper '__init__' of exceptions.IndentationError object at 0x06EAA470>"
p23
sS'__setattr__'
p24
S"<method-wrapper '__setattr__' of exceptions.IndentationError object at 0x06EAA470>"
p25
sS'__reduce_ex__'
p26
S'<built-in method __reduce_ex__ of exceptions.IndentationError object at 0x06EAA470>'
p27
sS'__new__'
p28
S'<built-in method __new__ of type object at 0x1E1CDC98>'
p29
sS'__class__'
p30
S"<type 'exceptions.IndentationError'>"
p31
sS'filename'
p32
S"'D:\\\\Dise\\xf1o Web\\\\Proyectos\\\\Parleyweb\\\\web2py\\\\applications\\\\parleyweb\\\\controllers/admin.py'"
p33
sS'lineno'
p34
S'14'
p35
sS'msg'
p36
S"'expected an indented block'"
p37
sS'__doc__'
p38
S"'Improper indentation.'"
p39
sS'__getitem__'
p40
S"<method-wrapper '__getitem__' of exceptions.IndentationError object at 0x06EAA470>"
p41
sS'__setstate__'
p42
S'<built-in method __setstate__ of exceptions.IndentationError object at 0x06EAA470>'
p43
sS'__getattribute__'
p44
S"<method-wrapper '__getattribute__' of exceptions.IndentationError object at 0x06EAA470>"
p45
sS'print_file_and_line'
p46
S'None'
p47
sS'args'
p48
S"('expected an indented block', ('D:\\\\Dise\\xf1o Web\\\\Proyectos\\\\Parleyweb\\\\web2py\\\\applications\\\\parleyweb\\\\controllers/admin.py', 14, 12, '    ejemplos = db((db.palabras.id==db.palabra_ej...n las tablas para las relaciones muchos a muchos\\n'))"
p49
sS'offset'
p50
S'12'
p51
sS'__delattr__'
p52
S"<method-wrapper '__delattr__' of exceptions.IndentationError object at 0x06EAA470>"
p53
sS'__repr__'
p54
S"<method-wrapper '__repr__' of exceptions.IndentationError object at 0x06EAA470>"
p55
sS'__hash__'
p56
S"<method-wrapper '__hash__' of exceptions.IndentationError object at 0x06EAA470>"
p57
ssS'evalue'
p58
S'expected an indented block (controllers/admin.py, line 14)'
p59
sS'request'
p60
ccopy_reg
_reconstructor
p61
(cgluon.html
BEAUTIFY
p62
c__builtin__
object
p63
NtRp64
(dp65
S'attributes'
p66
(dp67
sS'components'
p68
(lp69
g61
(cgluon.html
TABLE
p70
g63
NtRp71
(dp72
g66
(dp73
S'level'
p74
I5
ssS'parent'
p75
Nsg68
(lp76
g61
(cgluon.html
TR
p77
g63
NtRp78
(dp79
g66
(dp80
sg75
g71
sg68
(lp81
g61
(cgluon.html
TD
p82
g63
NtRp83
(dp84
g66
(dp85
S'_style'
p86
S'font-weight:bold;vertical-align:top'
p87
ssg75
g78
sg68
(lp88
S'ajax'
p89
asbag61
(g82
g63
NtRp90
(dp91
g66
(dp92
S'_valign'
p93
S'top'
p94
ssg75
g78
sg68
(lp95
S':'
asbag61
(g82
g63
NtRp96
(dp97
g66
(dp98
sg75
g78
sg68
(lp99
g61
(g62
g63
NtRp100
(dp101
g66
(dp102
g74
I5
ssg75
g96
sg68
(lp103
S'False'
p104
asbasbasbag61
(g77
g63
NtRp105
(dp106
g66
(dp107
sg75
g71
sg68
(lp108
g61
(g82
g63
NtRp109
(dp110
g66
(dp111
g86
g87
ssg75
g105
sg68
(lp112
S'application'
p113
asbag61
(g82
g63
NtRp114
(dp115
g66
(dp116
g93
g94
ssg75
g105
sg68
(lp117
S':'
asbag61
(g82
g63
NtRp118
(dp119
g66
(dp120
sg75
g105
sg68
(lp121
g61
(g62
g63
NtRp122
(dp123
g66
(dp124
g74
I5
ssg75
g118
sg68
(lp125
S'parleyweb'
p126
asbasbasbag61
(g77
g63
NtRp127
(dp128
g66
(dp129
sg75
g71
sg68
(lp130
g61
(g82
g63
NtRp131
(dp132
g66
(dp133
g86
g87
ssg75
g127
sg68
(lp134
g48
asbag61
(g82
g63
NtRp135
(dp136
g66
(dp137
g93
g94
ssg75
g127
sg68
(lp138
S':'
asbag61
(g82
g63
NtRp139
(dp140
g66
(dp141
sg75
g127
sg68
(lp142
g61
(g62
g63
NtRp143
(dp144
g66
(dp145
g74
I5
ssg75
g139
sg68
(lp146
g61
(g70
g63
NtRp147
(dp148
g66
(dp149
g74
I4
ssg75
Nsg68
(lp150
sbasbasbasbag61
(g77
g63
NtRp151
(dp152
g66
(dp153
sg75
g71
sg68
(lp154
g61
(g82
g63
NtRp155
(dp156
g66
(dp157
g86
g87
ssg75
g151
sg68
(lp158
S'body'
p159
asbag61
(g82
g63
NtRp160
(dp161
g66
(dp162
g93
g94
ssg75
g151
sg68
(lp163
S':'
asbag61
(g82
g63
NtRp164
(dp165
g66
(dp166
sg75
g151
sg68
(lp167
g61
(g62
g63
NtRp168
(dp169
g66
(dp170
g74
I5
ssg75
g164
sg68
(lp171
S"<open file '<fdopen>', mode 'w+b' at 0x0663A7B8>"
p172
asbasbasbag61
(g77
g63
NtRp173
(dp174
g66
(dp175
sg75
g71
sg68
(lp176
g61
(g82
g63
NtRp177
(dp178
g66
(dp179
g86
g87
ssg75
g173
sg68
(lp180
S'client'
p181
asbag61
(g82
g63
NtRp182
(dp183
g66
(dp184
g93
g94
ssg75
g173
sg68
(lp185
S':'
asbag61
(g82
g63
NtRp186
(dp187
g66
(dp188
sg75
g173
sg68
(lp189
g61
(g62
g63
NtRp190
(dp191
g66
(dp192
g74
I5
ssg75
g186
sg68
(lp193
S'127.0.0.1'
p194
asbasbasbag61
(g77
g63
NtRp195
(dp196
g66
(dp197
sg75
g71
sg68
(lp198
g61
(g82
g63
NtRp199
(dp200
g66
(dp201
g86
g87
ssg75
g195
sg68
(lp202
S'controller'
p203
asbag61
(g82
g63
NtRp204
(dp205
g66
(dp206
g93
g94
ssg75
g195
sg68
(lp207
S':'
asbag61
(g82
g63
NtRp208
(dp209
g66
(dp210
sg75
g195
sg68
(lp211
g61
(g62
g63
NtRp212
(dp213
g66
(dp214
g74
I5
ssg75
g208
sg68
(lp215
S'admin'
p216
asbasbasbag61
(g77
g63
NtRp217
(dp218
g66
(dp219
sg75
g71
sg68
(lp220
g61
(g82
g63
NtRp221
(dp222
g66
(dp223
g86
g87
ssg75
g217
sg68
(lp224
S'cookies'
p225
asbag61
(g82
g63
NtRp226
(dp227
g66
(dp228
g93
g94
ssg75
g217
sg68
(lp229
S':'
asbag61
(g82
g63
NtRp230
(dp231
g66
(dp232
sg75
g217
sg68
(lp233
g61
(g62
g63
NtRp234
(dp235
g66
(dp236
g74
I5
ssg75
g230
sg68
(lp237
g61
(g70
g63
NtRp238
(dp239
g66
(dp240
g74
I4
ssg75
Nsg68
(lp241
g61
(g77
g63
NtRp242
(dp243
g66
(dp244
sg75
g238
sg68
(lp245
g61
(g82
g63
NtRp246
(dp247
g66
(dp248
g86
g87
ssg75
g242
sg68
(lp249
S'session_id_admin'
p250
asbag61
(g82
g63
NtRp251
(dp252
g66
(dp253
g93
g94
ssg75
g242
sg68
(lp254
S':'
asbag61
(g82
g63
NtRp255
(dp256
g66
(dp257
sg75
g242
sg68
(lp258
g61
(g62
g63
NtRp259
(dp260
g66
(dp261
g74
I4
ssg75
g255
sg68
(lp262
g61
(g70
g63
NtRp263
(dp264
g66
(dp265
g74
I3
ssg75
Nsg68
(lp266
g61
(g77
g63
NtRp267
(dp268
g66
(dp269
sg75
g263
sg68
(lp270
g61
(g82
g63
NtRp271
(dp272
g66
(dp273
g86
g87
ssg75
g267
sg68
(lp274
S'comment'
p275
asbag61
(g82
g63
NtRp276
(dp277
g66
(dp278
g93
g94
ssg75
g267
sg68
(lp279
S':'
asbag61
(g82
g63
NtRp280
(dp281
g66
(dp282
sg75
g267
sg68
(lp283
g61
(g62
g63
NtRp284
(dp285
g66
(dp286
g74
I3
ssg75
g280
sg68
(lp287
S''
asbasbasbag61
(g77
g63
NtRp288
(dp289
g66
(dp290
sg75
g263
sg68
(lp291
g61
(g82
g63
NtRp292
(dp293
g66
(dp294
g86
g87
ssg75
g288
sg68
(lp295
S'domain'
p296
asbag61
(g82
g63
NtRp297
(dp298
g66
(dp299
g93
g94
ssg75
g288
sg68
(lp300
S':'
asbag61
(g82
g63
NtRp301
(dp302
g66
(dp303
sg75
g288
sg68
(lp304
g61
(g62
g63
NtRp305
(dp306
g66
(dp307
g74
I3
ssg75
g301
sg68
(lp308
S''
asbasbasbag61
(g77
g63
NtRp309
(dp310
g66
(dp311
sg75
g263
sg68
(lp312
g61
(g82
g63
NtRp313
(dp314
g66
(dp315
g86
g87
ssg75
g309
sg68
(lp316
S'expires'
p317
asbag61
(g82
g63
NtRp318
(dp319
g66
(dp320
g93
g94
ssg75
g309
sg68
(lp321
S':'
asbag61
(g82
g63
NtRp322
(dp323
g66
(dp324
sg75
g309
sg68
(lp325
g61
(g62
g63
NtRp326
(dp327
g66
(dp328
g74
I3
ssg75
g322
sg68
(lp329
S''
asbasbasbag61
(g77
g63
NtRp330
(dp331
g66
(dp332
sg75
g263
sg68
(lp333
g61
(g82
g63
NtRp334
(dp335
g66
(dp336
g86
g87
ssg75
g330
sg68
(lp337
S'max-age'
p338
asbag61
(g82
g63
NtRp339
(dp340
g66
(dp341
g93
g94
ssg75
g330
sg68
(lp342
S':'
asbag61
(g82
g63
NtRp343
(dp344
g66
(dp345
sg75
g330
sg68
(lp346
g61
(g62
g63
NtRp347
(dp348
g66
(dp349
g74
I3
ssg75
g343
sg68
(lp350
S''
asbasbasbag61
(g77
g63
NtRp351
(dp352
g66
(dp353
sg75
g263
sg68
(lp354
g61
(g82
g63
NtRp355
(dp356
g66
(dp357
g86
g87
ssg75
g351
sg68
(lp358
S'path'
p359
asbag61
(g82
g63
NtRp360
(dp361
g66
(dp362
g93
g94
ssg75
g351
sg68
(lp363
S':'
asbag61
(g82
g63
NtRp364
(dp365
g66
(dp366
sg75
g351
sg68
(lp367
g61
(g62
g63
NtRp368
(dp369
g66
(dp370
g74
I3
ssg75
g364
sg68
(lp371
S''
asbasbasbag61
(g77
g63
NtRp372
(dp373
g66
(dp374
sg75
g263
sg68
(lp375
g61
(g82
g63
NtRp376
(dp377
g66
(dp378
g86
g87
ssg75
g372
sg68
(lp379
S'secure'
p380
asbag61
(g82
g63
NtRp381
(dp382
g66
(dp383
g93
g94
ssg75
g372
sg68
(lp384
S':'
asbag61
(g82
g63
NtRp385
(dp386
g66
(dp387
sg75
g372
sg68
(lp388
g61
(g62
g63
NtRp389
(dp390
g66
(dp391
g74
I3
ssg75
g385
sg68
(lp392
S''
asbasbasbag61
(g77
g63
NtRp393
(dp394
g66
(dp395
sg75
g263
sg68
(lp396
g61
(g82
g63
NtRp397
(dp398
g66
(dp399
g86
g87
ssg75
g393
sg68
(lp400
S'version'
p401
asbag61
(g82
g63
NtRp402
(dp403
g66
(dp404
g93
g94
ssg75
g393
sg68
(lp405
S':'
asbag61
(g82
g63
NtRp406
(dp407
g66
(dp408
sg75
g393
sg68
(lp409
g61
(g62
g63
NtRp410
(dp411
g66
(dp412
g74
I3
ssg75
g406
sg68
(lp413
S''
asbasbasbasbasbasbasbag61
(g77
g63
NtRp414
(dp415
g66
(dp416
sg75
g238
sg68
(lp417
g61
(g82
g63
NtRp418
(dp419
g66
(dp420
g86
g87
ssg75
g414
sg68
(lp421
S'session_id_klaas'
p422
asbag61
(g82
g63
NtRp423
(dp424
g66
(dp425
g93
g94
ssg75
g414
sg68
(lp426
S':'
asbag61
(g82
g63
NtRp427
(dp428
g66
(dp429
sg75
g414
sg68
(lp430
g61
(g62
g63
NtRp431
(dp432
g66
(dp433
g74
I4
ssg75
g427
sg68
(lp434
g61
(g70
g63
NtRp435
(dp436
g66
(dp437
g74
I3
ssg75
Nsg68
(lp438
g61
(g77
g63
NtRp439
(dp440
g66
(dp441
sg75
g435
sg68
(lp442
g61
(g82
g63
NtRp443
(dp444
g66
(dp445
g86
g87
ssg75
g439
sg68
(lp446
g275
asbag61
(g82
g63
NtRp447
(dp448
g66
(dp449
g93
g94
ssg75
g439
sg68
(lp450
S':'
asbag61
(g82
g63
NtRp451
(dp452
g66
(dp453
sg75
g439
sg68
(lp454
g61
(g62
g63
NtRp455
(dp456
g66
(dp457
g74
I3
ssg75
g451
sg68
(lp458
S''
asbasbasbag61
(g77
g63
NtRp459
(dp460
g66
(dp461
sg75
g435
sg68
(lp462
g61
(g82
g63
NtRp463
(dp464
g66
(dp465
g86
g87
ssg75
g459
sg68
(lp466
g296
asbag61
(g82
g63
NtRp467
(dp468
g66
(dp469
g93
g94
ssg75
g459
sg68
(lp470
S':'
asbag61
(g82
g63
NtRp471
(dp472
g66
(dp473
sg75
g459
sg68
(lp474
g61
(g62
g63
NtRp475
(dp476
g66
(dp477
g74
I3
ssg75
g471
sg68
(lp478
S''
asbasbasbag61
(g77
g63
NtRp479
(dp480
g66
(dp481
sg75
g435
sg68
(lp482
g61
(g82
g63
NtRp483
(dp484
g66
(dp485
g86
g87
ssg75
g479
sg68
(lp486
g317
asbag61
(g82
g63
NtRp487
(dp488
g66
(dp489
g93
g94
ssg75
g479
sg68
(lp490
S':'
asbag61
(g82
g63
NtRp491
(dp492
g66
(dp493
sg75
g479
sg68
(lp494
g61
(g62
g63
NtRp495
(dp496
g66
(dp497
g74
I3
ssg75
g491
sg68
(lp498
S''
asbasbasbag61
(g77
g63
NtRp499
(dp500
g66
(dp501
sg75
g435
sg68
(lp502
g61
(g82
g63
NtRp503
(dp504
g66
(dp505
g86
g87
ssg75
g499
sg68
(lp506
g338
asbag61
(g82
g63
NtRp507
(dp508
g66
(dp509
g93
g94
ssg75
g499
sg68
(lp510
S':'
asbag61
(g82
g63
NtRp511
(dp512
g66
(dp513
sg75
g499
sg68
(lp514
g61
(g62
g63
NtRp515
(dp516
g66
(dp517
g74
I3
ssg75
g511
sg68
(lp518
S''
asbasbasbag61
(g77
g63
NtRp519
(dp520
g66
(dp521
sg75
g435
sg68
(lp522
g61
(g82
g63
NtRp523
(dp524
g66
(dp525
g86
g87
ssg75
g519
sg68
(lp526
g359
asbag61
(g82
g63
NtRp527
(dp528
g66
(dp529
g93
g94
ssg75
g519
sg68
(lp530
S':'
asbag61
(g82
g63
NtRp531
(dp532
g66
(dp533
sg75
g519
sg68
(lp534
g61
(g62
g63
NtRp535
(dp536
g66
(dp537
g74
I3
ssg75
g531
sg68
(lp538
S''
asbasbasbag61
(g77
g63
NtRp539
(dp540
g66
(dp541
sg75
g435
sg68
(lp542
g61
(g82
g63
NtRp543
(dp544
g66
(dp545
g86
g87
ssg75
g539
sg68
(lp546
g380
asbag61
(g82
g63
NtRp547
(dp548
g66
(dp549
g93
g94
ssg75
g539
sg68
(lp550
S':'
asbag61
(g82
g63
NtRp551
(dp552
g66
(dp553
sg75
g539
sg68
(lp554
g61
(g62
g63
NtRp555
(dp556
g66
(dp557
g74
I3
ssg75
g551
sg68
(lp558
S''
asbasbasbag61
(g77
g63
NtRp559
(dp560
g66
(dp561
sg75
g435
sg68
(lp562
g61
(g82
g63
NtRp563
(dp564
g66
(dp565
g86
g87
ssg75
g559
sg68
(lp566
g401
asbag61
(g82
g63
NtRp567
(dp568
g66
(dp569
g93
g94
ssg75
g559
sg68
(lp570
S':'
asbag61
(g82
g63
NtRp571
(dp572
g66
(dp573
sg75
g559
sg68
(lp574
g61
(g62
g63
NtRp575
(dp576
g66
(dp577
g74
I3
ssg75
g571
sg68
(lp578
S''
asbasbasbasbasbasbasbag61
(g77
g63
NtRp579
(dp580
g66
(dp581
sg75
g238
sg68
(lp582
g61
(g82
g63
NtRp583
(dp584
g66
(dp585
g86
g87
ssg75
g579
sg68
(lp586
S'session_id_parleyweb'
p587
asbag61
(g82
g63
NtRp588
(dp589
g66
(dp590
g93
g94
ssg75
g579
sg68
(lp591
S':'
asbag61
(g82
g63
NtRp592
(dp593
g66
(dp594
sg75
g579
sg68
(lp595
g61
(g62
g63
NtRp596
(dp597
g66
(dp598
g74
I4
ssg75
g592
sg68
(lp599
g61
(g70
g63
NtRp600
(dp601
g66
(dp602
g74
I3
ssg75
Nsg68
(lp603
g61
(g77
g63
NtRp604
(dp605
g66
(dp606
sg75
g600
sg68
(lp607
g61
(g82
g63
NtRp608
(dp609
g66
(dp610
g86
g87
ssg75
g604
sg68
(lp611
g275
asbag61
(g82
g63
NtRp612
(dp613
g66
(dp614
g93
g94
ssg75
g604
sg68
(lp615
S':'
asbag61
(g82
g63
NtRp616
(dp617
g66
(dp618
sg75
g604
sg68
(lp619
g61
(g62
g63
NtRp620
(dp621
g66
(dp622
g74
I3
ssg75
g616
sg68
(lp623
S''
asbasbasbag61
(g77
g63
NtRp624
(dp625
g66
(dp626
sg75
g600
sg68
(lp627
g61
(g82
g63
NtRp628
(dp629
g66
(dp630
g86
g87
ssg75
g624
sg68
(lp631
g296
asbag61
(g82
g63
NtRp632
(dp633
g66
(dp634
g93
g94
ssg75
g624
sg68
(lp635
S':'
asbag61
(g82
g63
NtRp636
(dp637
g66
(dp638
sg75
g624
sg68
(lp639
g61
(g62
g63
NtRp640
(dp641
g66
(dp642
g74
I3
ssg75
g636
sg68
(lp643
S''
asbasbasbag61
(g77
g63
NtRp644
(dp645
g66
(dp646
sg75
g600
sg68
(lp647
g61
(g82
g63
NtRp648
(dp649
g66
(dp650
g86
g87
ssg75
g644
sg68
(lp651
g317
asbag61
(g82
g63
NtRp652
(dp653
g66
(dp654
g93
g94
ssg75
g644
sg68
(lp655
S':'
asbag61
(g82
g63
NtRp656
(dp657
g66
(dp658
sg75
g644
sg68
(lp659
g61
(g62
g63
NtRp660
(dp661
g66
(dp662
g74
I3
ssg75
g656
sg68
(lp663
S''
asbasbasbag61
(g77
g63
NtRp664
(dp665
g66
(dp666
sg75
g600
sg68
(lp667
g61
(g82
g63
NtRp668
(dp669
g66
(dp670
g86
g87
ssg75
g664
sg68
(lp671
g338
asbag61
(g82
g63
NtRp672
(dp673
g66
(dp674
g93
g94
ssg75
g664
sg68
(lp675
S':'
asbag61
(g82
g63
NtRp676
(dp677
g66
(dp678
sg75
g664
sg68
(lp679
g61
(g62
g63
NtRp680
(dp681
g66
(dp682
g74
I3
ssg75
g676
sg68
(lp683
S''
asbasbasbag61
(g77
g63
NtRp684
(dp685
g66
(dp686
sg75
g600
sg68
(lp687
g61
(g82
g63
NtRp688
(dp689
g66
(dp690
g86
g87
ssg75
g684
sg68
(lp691
g359
asbag61
(g82
g63
NtRp692
(dp693
g66
(dp694
g93
g94
ssg75
g684
sg68
(lp695
S':'
asbag61
(g82
g63
NtRp696
(dp697
g66
(dp698
sg75
g684
sg68
(lp699
g61
(g62
g63
NtRp700
(dp701
g66
(dp702
g74
I3
ssg75
g696
sg68
(lp703
S''
asbasbasbag61
(g77
g63
NtRp704
(dp705
g66
(dp706
sg75
g600
sg68
(lp707
g61
(g82
g63
NtRp708
(dp709
g66
(dp710
g86
g87
ssg75
g704
sg68
(lp711
g380
asbag61
(g82
g63
NtRp712
(dp713
g66
(dp714
g93
g94
ssg75
g704
sg68
(lp715
S':'
asbag61
(g82
g63
NtRp716
(dp717
g66
(dp718
sg75
g704
sg68
(lp719
g61
(g62
g63
NtRp720
(dp721
g66
(dp722
g74
I3
ssg75
g716
sg68
(lp723
S''
asbasbasbag61
(g77
g63
NtRp724
(dp725
g66
(dp726
sg75
g600
sg68
(lp727
g61
(g82
g63
NtRp728
(dp729
g66
(dp730
g86
g87
ssg75
g724
sg68
(lp731
g401
asbag61
(g82
g63
NtRp732
(dp733
g66
(dp734
g93
g94
ssg75
g724
sg68
(lp735
S':'
asbag61
(g82
g63
NtRp736
(dp737
g66
(dp738
sg75
g724
sg68
(lp739
g61
(g62
g63
NtRp740
(dp741
g66
(dp742
g74
I3
ssg75
g736
sg68
(lp743
S''
asbasbasbasbasbasbasbag61
(g77
g63
NtRp744
(dp745
g66
(dp746
sg75
g238
sg68
(lp747
g61
(g82
g63
NtRp748
(dp749
g66
(dp750
g86
g87
ssg75
g744
sg68
(lp751
S'session_id_welcome'
p752
asbag61
(g82
g63
NtRp753
(dp754
g66
(dp755
g93
g94
ssg75
g744
sg68
(lp756
S':'
asbag61
(g82
g63
NtRp757
(dp758
g66
(dp759
sg75
g744
sg68
(lp760
g61
(g62
g63
NtRp761
(dp762
g66
(dp763
g74
I4
ssg75
g757
sg68
(lp764
g61
(g70
g63
NtRp765
(dp766
g66
(dp767
g74
I3
ssg75
Nsg68
(lp768
g61
(g77
g63
NtRp769
(dp770
g66
(dp771
sg75
g765
sg68
(lp772
g61
(g82
g63
NtRp773
(dp774
g66
(dp775
g86
g87
ssg75
g769
sg68
(lp776
g275
asbag61
(g82
g63
NtRp777
(dp778
g66
(dp779
g93
g94
ssg75
g769
sg68
(lp780
S':'
asbag61
(g82
g63
NtRp781
(dp782
g66
(dp783
sg75
g769
sg68
(lp784
g61
(g62
g63
NtRp785
(dp786
g66
(dp787
g74
I3
ssg75
g781
sg68
(lp788
S''
asbasbasbag61
(g77
g63
NtRp789
(dp790
g66
(dp791
sg75
g765
sg68
(lp792
g61
(g82
g63
NtRp793
(dp794
g66
(dp795
g86
g87
ssg75
g789
sg68
(lp796
g296
asbag61
(g82
g63
NtRp797
(dp798
g66
(dp799
g93
g94
ssg75
g789
sg68
(lp800
S':'
asbag61
(g82
g63
NtRp801
(dp802
g66
(dp803
sg75
g789
sg68
(lp804
g61
(g62
g63
NtRp805
(dp806
g66
(dp807
g74
I3
ssg75
g801
sg68
(lp808
S''
asbasbasbag61
(g77
g63
NtRp809
(dp810
g66
(dp811
sg75
g765
sg68
(lp812
g61
(g82
g63
NtRp813
(dp814
g66
(dp815
g86
g87
ssg75
g809
sg68
(lp816
g317
asbag61
(g82
g63
NtRp817
(dp818
g66
(dp819
g93
g94
ssg75
g809
sg68
(lp820
S':'
asbag61
(g82
g63
NtRp821
(dp822
g66
(dp823
sg75
g809
sg68
(lp824
g61
(g62
g63
NtRp825
(dp826
g66
(dp827
g74
I3
ssg75
g821
sg68
(lp828
S''
asbasbasbag61
(g77
g63
NtRp829
(dp830
g66
(dp831
sg75
g765
sg68
(lp832
g61
(g82
g63
NtRp833
(dp834
g66
(dp835
g86
g87
ssg75
g829
sg68
(lp836
g338
asbag61
(g82
g63
NtRp837
(dp838
g66
(dp839
g93
g94
ssg75
g829
sg68
(lp840
S':'
asbag61
(g82
g63
NtRp841
(dp842
g66
(dp843
sg75
g829
sg68
(lp844
g61
(g62
g63
NtRp845
(dp846
g66
(dp847
g74
I3
ssg75
g841
sg68
(lp848
S''
asbasbasbag61
(g77
g63
NtRp849
(dp850
g66
(dp851
sg75
g765
sg68
(lp852
g61
(g82
g63
NtRp853
(dp854
g66
(dp855
g86
g87
ssg75
g849
sg68
(lp856
g359
asbag61
(g82
g63
NtRp857
(dp858
g66
(dp859
g93
g94
ssg75
g849
sg68
(lp860
S':'
asbag61
(g82
g63
NtRp861
(dp862
g66
(dp863
sg75
g849
sg68
(lp864
g61
(g62
g63
NtRp865
(dp866
g66
(dp867
g74
I3
ssg75
g861
sg68
(lp868
S''
asbasbasbag61
(g77
g63
NtRp869
(dp870
g66
(dp871
sg75
g765
sg68
(lp872
g61
(g82
g63
NtRp873
(dp874
g66
(dp875
g86
g87
ssg75
g869
sg68
(lp876
g380
asbag61
(g82
g63
NtRp877
(dp878
g66
(dp879
g93
g94
ssg75
g869
sg68
(lp880
S':'
asbag61
(g82
g63
NtRp881
(dp882
g66
(dp883
sg75
g869
sg68
(lp884
g61
(g62
g63
NtRp885
(dp886
g66
(dp887
g74
I3
ssg75
g881
sg68
(lp888
S''
asbasbasbag61
(g77
g63
NtRp889
(dp890
g66
(dp891
sg75
g765
sg68
(lp892
g61
(g82
g63
NtRp893
(dp894
g66
(dp895
g86
g87
ssg75
g889
sg68
(lp896
g401
asbag61
(g82
g63
NtRp897
(dp898
g66
(dp899
g93
g94
ssg75
g889
sg68
(lp900
S':'
asbag61
(g82
g63
NtRp901
(dp902
g66
(dp903
sg75
g889
sg68
(lp904
g61
(g62
g63
NtRp905
(dp906
g66
(dp907
g74
I3
ssg75
g901
sg68
(lp908
S''
asbasbasbasbasbasbasbasbasbasbasbag61
(g77
g63
NtRp909
(dp910
g66
(dp911
sg75
g71
sg68
(lp912
g61
(g82
g63
NtRp913
(dp914
g66
(dp915
g86
g87
ssg75
g909
sg68
(lp916
S'env'
p917
asbag61
(g82
g63
NtRp918
(dp919
g66
(dp920
g93
g94
ssg75
g909
sg68
(lp921
S':'
asbag61
(g82
g63
NtRp922
(dp923
g66
(dp924
sg75
g909
sg68
(lp925
g61
(g62
g63
NtRp926
(dp927
g66
(dp928
g74
I5
ssg75
g922
sg68
(lp929
g61
(g70
g63
NtRp930
(dp931
g66
(dp932
g74
I4
ssg75
Nsg68
(lp933
g61
(g77
g63
NtRp934
(dp935
g66
(dp936
sg75
g930
sg68
(lp937
g61
(g82
g63
NtRp938
(dp939
g66
(dp940
g86
g87
ssg75
g934
sg68
(lp941
S'app_folders'
p942
asbag61
(g82
g63
NtRp943
(dp944
g66
(dp945
g93
g94
ssg75
g934
sg68
(lp946
S':'
asbag61
(g82
g63
NtRp947
(dp948
g66
(dp949
sg75
g934
sg68
(lp950
g61
(g62
g63
NtRp951
(dp952
g66
(dp953
g74
I4
ssg75
g947
sg68
(lp954
S"set(['D:\\\\Dise\\xf1o Web\\\\Proyectos\\\\Parleyweb\\\\web2py\\\\applications\\\\parleyweb\\\\', 'D:\\\\Dise\\xf1o Web\\\\Proyectos\\\\Parleyweb\\\\web2py\\\\applications\\\\welcome\\\\', 'D:\\\\Dise\\xf1o Web\\\\Proyectos\\\\Parleyweb\\\\web2py\\\\applications\\\\admin\\\\'])"
p955
asbasbasbag61
(g77
g63
NtRp956
(dp957
g66
(dp958
sg75
g930
sg68
(lp959
g61
(g82
g63
NtRp960
(dp961
g66
(dp962
g86
g87
ssg75
g956
sg68
(lp963
S'applications_parent'
p964
asbag61
(g82
g63
NtRp965
(dp966
g66
(dp967
g93
g94
ssg75
g956
sg68
(lp968
S':'
asbag61
(g82
g63
NtRp969
(dp970
g66
(dp971
sg75
g956
sg68
(lp972
g61
(g62
g63
NtRp973
(dp974
g66
(dp975
g74
I4
ssg75
g969
sg68
(lp976
S'D:\\Dise\xf1o Web\\Proyectos\\Parleyweb\\web2py'
p977
asbasbasbag61
(g77
g63
NtRp978
(dp979
g66
(dp980
sg75
g930
sg68
(lp981
g61
(g82
g63
NtRp982
(dp983
g66
(dp984
g86
g87
ssg75
g978
sg68
(lp985
S'cmd_args'
p986
asbag61
(g82
g63
NtRp987
(dp988
g66
(dp989
g93
g94
ssg75
g978
sg68
(lp990
S':'
asbag61
(g82
g63
NtRp991
(dp992
g66
(dp993
sg75
g978
sg68
(lp994
g61
(g62
g63
NtRp995
(dp996
g66
(dp997
g74
I4
ssg75
g991
sg68
(lp998
g61
(g70
g63
NtRp999
(dp1000
g66
(dp1001
g74
I3
ssg75
Nsg68
(lp1002
sbasbasbasbag61
(g77
g63
NtRp1003
(dp1004
g66
(dp1005
sg75
g930
sg68
(lp1006
g61
(g82
g63
NtRp1007
(dp1008
g66
(dp1009
g86
g87
ssg75
g1003
sg68
(lp1010
S'cmd_options'
p1011
asbag61
(g82
g63
NtRp1012
(dp1013
g66
(dp1014
g93
g94
ssg75
g1003
sg68
(lp1015
S':'
asbag61
(g82
g63
NtRp1016
(dp1017
g66
(dp1018
sg75
g1003
sg68
(lp1019
g61
(g62
g63
NtRp1020
(dp1021
g66
(dp1022
g74
I4
ssg75
g1016
sg68
(lp1023
S"<Values at 0x331ff30: {'verbose': False, 'ip': '127.0.0.1', 'shutdown_timeout': 5, 'taskbar': False, 'nocron': False, 'pid_filename': 'httpserver.pid', 'maxthreads': None, 'softcron': False, 'server_name': 'craxsnet-PC', 'bpython': False, 'nogui': False, 'port': 8000, 'extcron': False, 'debuglevel': 30, 'test': None, 'folder': 'D:\\\\Dise\\xf1o Web\\\\Proyectos\\\\Parleyweb\\\\web2py', 'config': '', 'import_models': False, 'winservice': '', 'shell': None, 'run': '', 'log_filename': 'httpserver.log', 'args': [''], 'socket_timeout': 5, 'ssl_ca_certificate': None, 'scheduler': None, 'profiler_filename': None, 'ssl_private_key': '', 'password': '<ask>', 'request_queue_size': 5, 'ssl_certificate': '', 'cronjob': False, 'numthreads': None, 'quiet': False, 'interfaces': None, 'minthreads': None, 'timeout': 10, 'plain': False, 'nobanner': False}>"
p1024
asbasbasbag61
(g77
g63
NtRp1025
(dp1026
g66
(dp1027
sg75
g930
sg68
(lp1028
g61
(g82
g63
NtRp1029
(dp1030
g66
(dp1031
g86
g87
ssg75
g1025
sg68
(lp1032
S'content_length'
p1033
asbag61
(g82
g63
NtRp1034
(dp1035
g66
(dp1036
g93
g94
ssg75
g1025
sg68
(lp1037
S':'
asbag61
(g82
g63
NtRp1038
(dp1039
g66
(dp1040
sg75
g1025
sg68
(lp1041
g61
(g62
g63
NtRp1042
(dp1043
g66
(dp1044
g74
I4
ssg75
g1038
sg68
(lp1045
S'403'
p1046
asbasbasbag61
(g77
g63
NtRp1047
(dp1048
g66
(dp1049
sg75
g930
sg68
(lp1050
g61
(g82
g63
NtRp1051
(dp1052
g66
(dp1053
g86
g87
ssg75
g1047
sg68
(lp1054
S'content_type'
p1055
asbag61
(g82
g63
NtRp1056
(dp1057
g66
(dp1058
g93
g94
ssg75
g1047
sg68
(lp1059
S':'
asbag61
(g82
g63
NtRp1060
(dp1061
g66
(dp1062
sg75
g1047
sg68
(lp1063
g61
(g62
g63
NtRp1064
(dp1065
g66
(dp1066
g74
I4
ssg75
g1060
sg68
(lp1067
S'multipart/form-data; boundary=---------------------------34303110730191'
p1068
asbasbasbag61
(g77
g63
NtRp1069
(dp1070
g66
(dp1071
sg75
g930
sg68
(lp1072
g61
(g82
g63
NtRp1073
(dp1074
g66
(dp1075
g86
g87
ssg75
g1069
sg68
(lp1076
S'db_sessions'
p1077
asbag61
(g82
g63
NtRp1078
(dp1079
g66
(dp1080
g93
g94
ssg75
g1069
sg68
(lp1081
S':'
asbag61
(g82
g63
NtRp1082
(dp1083
g66
(dp1084
sg75
g1069
sg68
(lp1085
g61
(g62
g63
NtRp1086
(dp1087
g66
(dp1088
g74
I4
ssg75
g1082
sg68
(lp1089
S'set([])'
p1090
asbasbasbag61
(g77
g63
NtRp1091
(dp1092
g66
(dp1093
sg75
g930
sg68
(lp1094
g61
(g82
g63
NtRp1095
(dp1096
g66
(dp1097
g86
g87
ssg75
g1091
sg68
(lp1098
S'debugging'
p1099
asbag61
(g82
g63
NtRp1100
(dp1101
g66
(dp1102
g93
g94
ssg75
g1091
sg68
(lp1103
S':'
asbag61
(g82
g63
NtRp1104
(dp1105
g66
(dp1106
sg75
g1091
sg68
(lp1107
g61
(g62
g63
NtRp1108
(dp1109
g66
(dp1110
g74
I4
ssg75
g1104
sg68
(lp1111
g104
asbasbasbag61
(g77
g63
NtRp1112
(dp1113
g66
(dp1114
sg75
g930
sg68
(lp1115
g61
(g82
g63
NtRp1116
(dp1117
g66
(dp1118
g86
g87
ssg75
g1112
sg68
(lp1119
S'gluon_parent'
p1120
asbag61
(g82
g63
NtRp1121
(dp1122
g66
(dp1123
g93
g94
ssg75
g1112
sg68
(lp1124
S':'
asbag61
(g82
g63
NtRp1125
(dp1126
g66
(dp1127
sg75
g1112
sg68
(lp1128
g61
(g62
g63
NtRp1129
(dp1130
g66
(dp1131
g74
I4
ssg75
g1125
sg68
(lp1132
S'D:\\Dise\xf1o Web\\Proyectos\\Parleyweb\\web2py'
p1133
asbasbasbag61
(g77
g63
NtRp1134
(dp1135
g66
(dp1136
sg75
g930
sg68
(lp1137
g61
(g82
g63
NtRp1138
(dp1139
g66
(dp1140
g86
g87
ssg75
g1134
sg68
(lp1141
S'http_accept'
p1142
asbag61
(g82
g63
NtRp1143
(dp1144
g66
(dp1145
g93
g94
ssg75
g1134
sg68
(lp1146
S':'
asbag61
(g82
g63
NtRp1147
(dp1148
g66
(dp1149
sg75
g1134
sg68
(lp1150
g61
(g62
g63
NtRp1151
(dp1152
g66
(dp1153
g74
I4
ssg75
g1147
sg68
(lp1154
S'text/html,application/xhtml+xml,application/xml;q=0.9,*/*;q=0.8'
p1155
asbasbasbag61
(g77
g63
NtRp1156
(dp1157
g66
(dp1158
sg75
g930
sg68
(lp1159
g61
(g82
g63
NtRp1160
(dp1161
g66
(dp1162
g86
g87
ssg75
g1156
sg68
(lp1163
S'http_accept_encoding'
p1164
asbag61
(g82
g63
NtRp1165
(dp1166
g66
(dp1167
g93
g94
ssg75
g1156
sg68
(lp1168
S':'
asbag61
(g82
g63
NtRp1169
(dp1170
g66
(dp1171
sg75
g1156
sg68
(lp1172
g61
(g62
g63
NtRp1173
(dp1174
g66
(dp1175
g74
I4
ssg75
g1169
sg68
(lp1176
S'gzip, deflate'
p1177
asbasbasbag61
(g77
g63
NtRp1178
(dp1179
g66
(dp1180
sg75
g930
sg68
(lp1181
g61
(g82
g63
NtRp1182
(dp1183
g66
(dp1184
g86
g87
ssg75
g1178
sg68
(lp1185
S'http_accept_language'
p1186
asbag61
(g82
g63
NtRp1187
(dp1188
g66
(dp1189
g93
g94
ssg75
g1178
sg68
(lp1190
S':'
asbag61
(g82
g63
NtRp1191
(dp1192
g66
(dp1193
sg75
g1178
sg68
(lp1194
g61
(g62
g63
NtRp1195
(dp1196
g66
(dp1197
g74
I4
ssg75
g1191
sg68
(lp1198
S'es-es,de-de;q=0.8,es;q=0.6,en-us;q=0.4,en;q=0.2'
p1199
asbasbasbag61
(g77
g63
NtRp1200
(dp1201
g66
(dp1202
sg75
g930
sg68
(lp1203
g61
(g82
g63
NtRp1204
(dp1205
g66
(dp1206
g86
g87
ssg75
g1200
sg68
(lp1207
S'http_connection'
p1208
asbag61
(g82
g63
NtRp1209
(dp1210
g66
(dp1211
g93
g94
ssg75
g1200
sg68
(lp1212
S':'
asbag61
(g82
g63
NtRp1213
(dp1214
g66
(dp1215
sg75
g1200
sg68
(lp1216
g61
(g62
g63
NtRp1217
(dp1218
g66
(dp1219
g74
I4
ssg75
g1213
sg68
(lp1220
S'keep-alive'
p1221
asbasbasbag61
(g77
g63
NtRp1222
(dp1223
g66
(dp1224
sg75
g930
sg68
(lp1225
g61
(g82
g63
NtRp1226
(dp1227
g66
(dp1228
g86
g87
ssg75
g1222
sg68
(lp1229
S'http_content_length'
p1230
asbag61
(g82
g63
NtRp1231
(dp1232
g66
(dp1233
g93
g94
ssg75
g1222
sg68
(lp1234
S':'
asbag61
(g82
g63
NtRp1235
(dp1236
g66
(dp1237
sg75
g1222
sg68
(lp1238
g61
(g62
g63
NtRp1239
(dp1240
g66
(dp1241
g74
I4
ssg75
g1235
sg68
(lp1242
g1046
asbasbasbag61
(g77
g63
NtRp1243
(dp1244
g66
(dp1245
sg75
g930
sg68
(lp1246
g61
(g82
g63
NtRp1247
(dp1248
g66
(dp1249
g86
g87
ssg75
g1243
sg68
(lp1250
S'http_content_type'
p1251
asbag61
(g82
g63
NtRp1252
(dp1253
g66
(dp1254
g93
g94
ssg75
g1243
sg68
(lp1255
S':'
asbag61
(g82
g63
NtRp1256
(dp1257
g66
(dp1258
sg75
g1243
sg68
(lp1259
g61
(g62
g63
NtRp1260
(dp1261
g66
(dp1262
g74
I4
ssg75
g1256
sg68
(lp1263
g1068
asbasbasbag61
(g77
g63
NtRp1264
(dp1265
g66
(dp1266
sg75
g930
sg68
(lp1267
g61
(g82
g63
NtRp1268
(dp1269
g66
(dp1270
g86
g87
ssg75
g1264
sg68
(lp1271
S'http_cookie'
p1272
asbag61
(g82
g63
NtRp1273
(dp1274
g66
(dp1275
g93
g94
ssg75
g1264
sg68
(lp1276
S':'
asbag61
(g82
g63
NtRp1277
(dp1278
g66
(dp1279
sg75
g1264
sg68
(lp1280
g61
(g62
g63
NtRp1281
(dp1282
g66
(dp1283
g74
I4
ssg75
g1277
sg68
(lp1284
S'__utma=96992031.26429765.1325029743.1325029743.1326549329.2; __utmz=96992031.1325029743.1.1.utmcsr=(direct)|utmccn=(direct)|utmcmd=(none); session_id_klaas=127.0.0.1-22979940-8cc3-49bc-9f44-0623615d817e; session_id_welcome=127.0.0.1-8cf99883-574c-4d14-bcc4-fd47a1240754; session_id_parleyweb=127.0.0.1-2049810e-c086-402c-857f-06991c56216c; session_id_admin=127.0.0.1-6fdcfcda-6c0c-425c-b11c-f2681aab7aa0'
p1285
asbasbasbag61
(g77
g63
NtRp1286
(dp1287
g66
(dp1288
sg75
g930
sg68
(lp1289
g61
(g82
g63
NtRp1290
(dp1291
g66
(dp1292
g86
g87
ssg75
g1286
sg68
(lp1293
S'http_host'
p1294
asbag61
(g82
g63
NtRp1295
(dp1296
g66
(dp1297
g93
g94
ssg75
g1286
sg68
(lp1298
S':'
asbag61
(g82
g63
NtRp1299
(dp1300
g66
(dp1301
sg75
g1286
sg68
(lp1302
g61
(g62
g63
NtRp1303
(dp1304
g66
(dp1305
g74
I4
ssg75
g1299
sg68
(lp1306
S'127.0.0.1:8000'
p1307
asbasbasbag61
(g77
g63
NtRp1308
(dp1309
g66
(dp1310
sg75
g930
sg68
(lp1311
g61
(g82
g63
NtRp1312
(dp1313
g66
(dp1314
g86
g87
ssg75
g1308
sg68
(lp1315
S'http_referer'
p1316
asbag61
(g82
g63
NtRp1317
(dp1318
g66
(dp1319
g93
g94
ssg75
g1308
sg68
(lp1320
S':'
asbag61
(g82
g63
NtRp1321
(dp1322
g66
(dp1323
sg75
g1308
sg68
(lp1324
g61
(g62
g63
NtRp1325
(dp1326
g66
(dp1327
g74
I4
ssg75
g1321
sg68
(lp1328
S'http://127.0.0.1:8000/parleyweb/admin/index'
p1329
asbasbasbag61
(g77
g63
NtRp1330
(dp1331
g66
(dp1332
sg75
g930
sg68
(lp1333
g61
(g82
g63
NtRp1334
(dp1335
g66
(dp1336
g86
g87
ssg75
g1330
sg68
(lp1337
S'http_user_agent'
p1338
asbag61
(g82
g63
NtRp1339
(dp1340
g66
(dp1341
g93
g94
ssg75
g1330
sg68
(lp1342
S':'
asbag61
(g82
g63
NtRp1343
(dp1344
g66
(dp1345
sg75
g1330
sg68
(lp1346
g61
(g62
g63
NtRp1347
(dp1348
g66
(dp1349
g74
I4
ssg75
g1343
sg68
(lp1350
S'Mozilla/5.0 (Windows NT 6.1; WOW64; rv:10.0.2) Gecko/20100101 Firefox/10.0.2'
p1351
asbasbasbag61
(g77
g63
NtRp1352
(dp1353
g66
(dp1354
sg75
g930
sg68
(lp1355
g61
(g82
g63
NtRp1356
(dp1357
g66
(dp1358
g86
g87
ssg75
g1352
sg68
(lp1359
S'is_jython'
p1360
asbag61
(g82
g63
NtRp1361
(dp1362
g66
(dp1363
g93
g94
ssg75
g1352
sg68
(lp1364
S':'
asbag61
(g82
g63
NtRp1365
(dp1366
g66
(dp1367
sg75
g1352
sg68
(lp1368
g61
(g62
g63
NtRp1369
(dp1370
g66
(dp1371
g74
I4
ssg75
g1365
sg68
(lp1372
g104
asbasbasbag61
(g77
g63
NtRp1373
(dp1374
g66
(dp1375
sg75
g930
sg68
(lp1376
g61
(g82
g63
NtRp1377
(dp1378
g66
(dp1379
g86
g87
ssg75
g1373
sg68
(lp1380
S'is_pypy'
p1381
asbag61
(g82
g63
NtRp1382
(dp1383
g66
(dp1384
g93
g94
ssg75
g1373
sg68
(lp1385
S':'
asbag61
(g82
g63
NtRp1386
(dp1387
g66
(dp1388
sg75
g1373
sg68
(lp1389
g61
(g62
g63
NtRp1390
(dp1391
g66
(dp1392
g74
I4
ssg75
g1386
sg68
(lp1393
g104
asbasbasbag61
(g77
g63
NtRp1394
(dp1395
g66
(dp1396
sg75
g930
sg68
(lp1397
g61
(g82
g63
NtRp1398
(dp1399
g66
(dp1400
g86
g87
ssg75
g1394
sg68
(lp1401
S'path_info'
p1402
asbag61
(g82
g63
NtRp1403
(dp1404
g66
(dp1405
g93
g94
ssg75
g1394
sg68
(lp1406
S':'
asbag61
(g82
g63
NtRp1407
(dp1408
g66
(dp1409
sg75
g1394
sg68
(lp1410
g61
(g62
g63
NtRp1411
(dp1412
g66
(dp1413
g74
I4
ssg75
g1407
sg68
(lp1414
S'/parleyweb/admin/index'
p1415
asbasbasbag61
(g77
g63
NtRp1416
(dp1417
g66
(dp1418
sg75
g930
sg68
(lp1419
g61
(g82
g63
NtRp1420
(dp1421
g66
(dp1422
g86
g87
ssg75
g1416
sg68
(lp1423
S'query_string'
p1424
asbag61
(g82
g63
NtRp1425
(dp1426
g66
(dp1427
g93
g94
ssg75
g1416
sg68
(lp1428
S':'
asbag61
(g82
g63
NtRp1429
(dp1430
g66
(dp1431
sg75
g1416
sg68
(lp1432
g61
(g62
g63
NtRp1433
(dp1434
g66
(dp1435
g74
I4
ssg75
g1429
sg68
(lp1436
S''
asbasbasbag61
(g77
g63
NtRp1437
(dp1438
g66
(dp1439
sg75
g930
sg68
(lp1440
g61
(g82
g63
NtRp1441
(dp1442
g66
(dp1443
g86
g87
ssg75
g1437
sg68
(lp1444
S'remote_addr'
p1445
asbag61
(g82
g63
NtRp1446
(dp1447
g66
(dp1448
g93
g94
ssg75
g1437
sg68
(lp1449
S':'
asbag61
(g82
g63
NtRp1450
(dp1451
g66
(dp1452
sg75
g1437
sg68
(lp1453
g61
(g62
g63
NtRp1454
(dp1455
g66
(dp1456
g74
I4
ssg75
g1450
sg68
(lp1457
g194
asbasbasbag61
(g77
g63
NtRp1458
(dp1459
g66
(dp1460
sg75
g930
sg68
(lp1461
g61
(g82
g63
NtRp1462
(dp1463
g66
(dp1464
g86
g87
ssg75
g1458
sg68
(lp1465
S'remote_port'
p1466
asbag61
(g82
g63
NtRp1467
(dp1468
g66
(dp1469
g93
g94
ssg75
g1458
sg68
(lp1470
S':'
asbag61
(g82
g63
NtRp1471
(dp1472
g66
(dp1473
sg75
g1458
sg68
(lp1474
g61
(g62
g63
NtRp1475
(dp1476
g66
(dp1477
g74
I4
ssg75
g1471
sg68
(lp1478
S'53360'
p1479
asbasbasbag61
(g77
g63
NtRp1480
(dp1481
g66
(dp1482
sg75
g930
sg68
(lp1483
g61
(g82
g63
NtRp1484
(dp1485
g66
(dp1486
g86
g87
ssg75
g1480
sg68
(lp1487
S'request_method'
p1488
asbag61
(g82
g63
NtRp1489
(dp1490
g66
(dp1491
g93
g94
ssg75
g1480
sg68
(lp1492
S':'
asbag61
(g82
g63
NtRp1493
(dp1494
g66
(dp1495
sg75
g1480
sg68
(lp1496
g61
(g62
g63
NtRp1497
(dp1498
g66
(dp1499
g74
I4
ssg75
g1493
sg68
(lp1500
S'POST'
p1501
asbasbasbag61
(g77
g63
NtRp1502
(dp1503
g66
(dp1504
sg75
g930
sg68
(lp1505
g61
(g82
g63
NtRp1506
(dp1507
g66
(dp1508
g86
g87
ssg75
g1502
sg68
(lp1509
S'script_name'
p1510
asbag61
(g82
g63
NtRp1511
(dp1512
g66
(dp1513
g93
g94
ssg75
g1502
sg68
(lp1514
S':'
asbag61
(g82
g63
NtRp1515
(dp1516
g66
(dp1517
sg75
g1502
sg68
(lp1518
g61
(g62
g63
NtRp1519
(dp1520
g66
(dp1521
g74
I4
ssg75
g1515
sg68
(lp1522
S''
asbasbasbag61
(g77
g63
NtRp1523
(dp1524
g66
(dp1525
sg75
g930
sg68
(lp1526
g61
(g82
g63
NtRp1527
(dp1528
g66
(dp1529
g86
g87
ssg75
g1523
sg68
(lp1530
S'server_name'
p1531
asbag61
(g82
g63
NtRp1532
(dp1533
g66
(dp1534
g93
g94
ssg75
g1523
sg68
(lp1535
S':'
asbag61
(g82
g63
NtRp1536
(dp1537
g66
(dp1538
sg75
g1523
sg68
(lp1539
g61
(g62
g63
NtRp1540
(dp1541
g66
(dp1542
g74
I4
ssg75
g1536
sg68
(lp1543
S'craxsnet-PC'
p1544
asbasbasbag61
(g77
g63
NtRp1545
(dp1546
g66
(dp1547
sg75
g930
sg68
(lp1548
g61
(g82
g63
NtRp1549
(dp1550
g66
(dp1551
g86
g87
ssg75
g1545
sg68
(lp1552
S'server_port'
p1553
asbag61
(g82
g63
NtRp1554
(dp1555
g66
(dp1556
g93
g94
ssg75
g1545
sg68
(lp1557
S':'
asbag61
(g82
g63
NtRp1558
(dp1559
g66
(dp1560
sg75
g1545
sg68
(lp1561
g61
(g62
g63
NtRp1562
(dp1563
g66
(dp1564
g74
I4
ssg75
g1558
sg68
(lp1565
S'8000'
p1566
asbasbasbag61
(g77
g63
NtRp1567
(dp1568
g66
(dp1569
sg75
g930
sg68
(lp1570
g61
(g82
g63
NtRp1571
(dp1572
g66
(dp1573
g86
g87
ssg75
g1567
sg68
(lp1574
S'server_protocol'
p1575
asbag61
(g82
g63
NtRp1576
(dp1577
g66
(dp1578
g93
g94
ssg75
g1567
sg68
(lp1579
S':'
asbag61
(g82
g63
NtRp1580
(dp1581
g66
(dp1582
sg75
g1567
sg68
(lp1583
g61
(g62
g63
NtRp1584
(dp1585
g66
(dp1586
g74
I4
ssg75
g1580
sg68
(lp1587
S'HTTP/1.1'
p1588
asbasbasbag61
(g77
g63
NtRp1589
(dp1590
g66
(dp1591
sg75
g930
sg68
(lp1592
g61
(g82
g63
NtRp1593
(dp1594
g66
(dp1595
g86
g87
ssg75
g1589
sg68
(lp1596
S'server_software'
p1597
asbag61
(g82
g63
NtRp1598
(dp1599
g66
(dp1600
g93
g94
ssg75
g1589
sg68
(lp1601
S':'
asbag61
(g82
g63
NtRp1602
(dp1603
g66
(dp1604
sg75
g1589
sg68
(lp1605
g61
(g62
g63
NtRp1606
(dp1607
g66
(dp1608
g74
I4
ssg75
g1602
sg68
(lp1609
S'Rocket 1.2.4'
p1610
asbasbasbag61
(g77
g63
NtRp1611
(dp1612
g66
(dp1613
sg75
g930
sg68
(lp1614
g61
(g82
g63
NtRp1615
(dp1616
g66
(dp1617
g86
g87
ssg75
g1611
sg68
(lp1618
S'web2py_crontype'
p1619
asbag61
(g82
g63
NtRp1620
(dp1621
g66
(dp1622
g93
g94
ssg75
g1611
sg68
(lp1623
S':'
asbag61
(g82
g63
NtRp1624
(dp1625
g66
(dp1626
sg75
g1611
sg68
(lp1627
g61
(g62
g63
NtRp1628
(dp1629
g66
(dp1630
g74
I4
ssg75
g1624
sg68
(lp1631
S'hard'
p1632
asbasbasbag61
(g77
g63
NtRp1633
(dp1634
g66
(dp1635
sg75
g930
sg68
(lp1636
g61
(g82
g63
NtRp1637
(dp1638
g66
(dp1639
g86
g87
ssg75
g1633
sg68
(lp1640
S'web2py_path'
p1641
asbag61
(g82
g63
NtRp1642
(dp1643
g66
(dp1644
g93
g94
ssg75
g1633
sg68
(lp1645
S':'
asbag61
(g82
g63
NtRp1646
(dp1647
g66
(dp1648
sg75
g1633
sg68
(lp1649
g61
(g62
g63
NtRp1650
(dp1651
g66
(dp1652
g74
I4
ssg75
g1646
sg68
(lp1653
g977
asbasbasbag61
(g77
g63
NtRp1654
(dp1655
g66
(dp1656
sg75
g930
sg68
(lp1657
g61
(g82
g63
NtRp1658
(dp1659
g66
(dp1660
g86
g87
ssg75
g1654
sg68
(lp1661
S'web2py_version'
p1662
asbag61
(g82
g63
NtRp1663
(dp1664
g66
(dp1665
g93
g94
ssg75
g1654
sg68
(lp1666
S':'
asbag61
(g82
g63
NtRp1667
(dp1668
g66
(dp1669
sg75
g1654
sg68
(lp1670
g61
(g62
g63
NtRp1671
(dp1672
g66
(dp1673
g74
I4
ssg75
g1667
sg68
(lp1674
g61
(g70
g63
NtRp1675
(dp1676
g66
(dp1677
g74
I3
ssg75
Nsg68
(lp1678
g61
(g77
g63
NtRp1679
(dp1680
g66
(dp1681
sg75
g1675
sg68
(lp1682
g61
(g82
g63
NtRp1683
(dp1684
g66
(dp1685
sg75
g1679
sg68
(lp1686
g61
(g62
g63
NtRp1687
(dp1688
g66
(dp1689
g74
I3
ssg75
g1683
sg68
(lp1690
S'1'
asbasbasbag61
(g77
g63
NtRp1691
(dp1692
g66
(dp1693
sg75
g1675
sg68
(lp1694
g61
(g82
g63
NtRp1695
(dp1696
g66
(dp1697
sg75
g1691
sg68
(lp1698
g61
(g62
g63
NtRp1699
(dp1700
g66
(dp1701
g74
I3
ssg75
g1695
sg68
(lp1702
S'99'
p1703
asbasbasbag61
(g77
g63
NtRp1704
(dp1705
g66
(dp1706
sg75
g1675
sg68
(lp1707
g61
(g82
g63
NtRp1708
(dp1709
g66
(dp1710
sg75
g1704
sg68
(lp1711
g61
(g62
g63
NtRp1712
(dp1713
g66
(dp1714
g74
I3
ssg75
g1708
sg68
(lp1715
S'7'
asbasbasbag61
(g77
g63
NtRp1716
(dp1717
g66
(dp1718
sg75
g1675
sg68
(lp1719
g61
(g82
g63
NtRp1720
(dp1721
g66
(dp1722
sg75
g1716
sg68
(lp1723
g61
(g62
g63
NtRp1724
(dp1725
g66
(dp1726
g74
I3
ssg75
g1720
sg68
(lp1727
S'datetime.datetime(2012, 3, 4, 22, 12, 8)'
p1728
asbasbasbag61
(g77
g63
NtRp1729
(dp1730
g66
(dp1731
sg75
g1675
sg68
(lp1732
g61
(g82
g63
NtRp1733
(dp1734
g66
(dp1735
sg75
g1729
sg68
(lp1736
g61
(g62
g63
NtRp1737
(dp1738
g66
(dp1739
g74
I3
ssg75
g1733
sg68
(lp1740
S'stable'
p1741
asbasbasbasbasbasbasbag61
(g77
g63
NtRp1742
(dp1743
g66
(dp1744
sg75
g930
sg68
(lp1745
g61
(g82
g63
NtRp1746
(dp1747
g66
(dp1748
g86
g87
ssg75
g1742
sg68
(lp1749
S'wsgi_errors'
p1750
asbag61
(g82
g63
NtRp1751
(dp1752
g66
(dp1753
g93
g94
ssg75
g1742
sg68
(lp1754
S':'
asbag61
(g82
g63
NtRp1755
(dp1756
g66
(dp1757
sg75
g1742
sg68
(lp1758
g61
(g62
g63
NtRp1759
(dp1760
g66
(dp1761
g74
I4
ssg75
g1755
sg68
(lp1762
S"<open file '<stderr>', mode 'w' at 0x004200B0>"
p1763
asbasbasbag61
(g77
g63
NtRp1764
(dp1765
g66
(dp1766
sg75
g930
sg68
(lp1767
g61
(g82
g63
NtRp1768
(dp1769
g66
(dp1770
g86
g87
ssg75
g1764
sg68
(lp1771
S'wsgi_file_wrapper'
p1772
asbag61
(g82
g63
NtRp1773
(dp1774
g66
(dp1775
g93
g94
ssg75
g1764
sg68
(lp1776
S':'
asbag61
(g82
g63
NtRp1777
(dp1778
g66
(dp1779
sg75
g1764
sg68
(lp1780
g61
(g62
g63
NtRp1781
(dp1782
g66
(dp1783
g74
I4
ssg75
g1777
sg68
(lp1784
S'<class wsgiref.util.FileWrapper at 0x03115390>'
p1785
asbasbasbag61
(g77
g63
NtRp1786
(dp1787
g66
(dp1788
sg75
g930
sg68
(lp1789
g61
(g82
g63
NtRp1790
(dp1791
g66
(dp1792
g86
g87
ssg75
g1786
sg68
(lp1793
S'wsgi_input'
p1794
asbag61
(g82
g63
NtRp1795
(dp1796
g66
(dp1797
g93
g94
ssg75
g1786
sg68
(lp1798
S':'
asbag61
(g82
g63
NtRp1799
(dp1800
g66
(dp1801
sg75
g1786
sg68
(lp1802
g61
(g62
g63
NtRp1803
(dp1804
g66
(dp1805
g74
I4
ssg75
g1799
sg68
(lp1806
S'<socket._fileobject object at 0x0788FF70>'
p1807
asbasbasbag61
(g77
g63
NtRp1808
(dp1809
g66
(dp1810
sg75
g930
sg68
(lp1811
g61
(g82
g63
NtRp1812
(dp1813
g66
(dp1814
g86
g87
ssg75
g1808
sg68
(lp1815
S'wsgi_multiprocess'
p1816
asbag61
(g82
g63
NtRp1817
(dp1818
g66
(dp1819
g93
g94
ssg75
g1808
sg68
(lp1820
S':'
asbag61
(g82
g63
NtRp1821
(dp1822
g66
(dp1823
sg75
g1808
sg68
(lp1824
g61
(g62
g63
NtRp1825
(dp1826
g66
(dp1827
g74
I4
ssg75
g1821
sg68
(lp1828
g104
asbasbasbag61
(g77
g63
NtRp1829
(dp1830
g66
(dp1831
sg75
g930
sg68
(lp1832
g61
(g82
g63
NtRp1833
(dp1834
g66
(dp1835
g86
g87
ssg75
g1829
sg68
(lp1836
S'wsgi_multithread'
p1837
asbag61
(g82
g63
NtRp1838
(dp1839
g66
(dp1840
g93
g94
ssg75
g1829
sg68
(lp1841
S':'
asbag61
(g82
g63
NtRp1842
(dp1843
g66
(dp1844
sg75
g1829
sg68
(lp1845
g61
(g62
g63
NtRp1846
(dp1847
g66
(dp1848
g74
I4
ssg75
g1842
sg68
(lp1849
S'True'
p1850
asbasbasbag61
(g77
g63
NtRp1851
(dp1852
g66
(dp1853
sg75
g930
sg68
(lp1854
g61
(g82
g63
NtRp1855
(dp1856
g66
(dp1857
g86
g87
ssg75
g1851
sg68
(lp1858
S'wsgi_run_once'
p1859
asbag61
(g82
g63
NtRp1860
(dp1861
g66
(dp1862
g93
g94
ssg75
g1851
sg68
(lp1863
S':'
asbag61
(g82
g63
NtRp1864
(dp1865
g66
(dp1866
sg75
g1851
sg68
(lp1867
g61
(g62
g63
NtRp1868
(dp1869
g66
(dp1870
g74
I4
ssg75
g1864
sg68
(lp1871
g104
asbasbasbag61
(g77
g63
NtRp1872
(dp1873
g66
(dp1874
sg75
g930
sg68
(lp1875
g61
(g82
g63
NtRp1876
(dp1877
g66
(dp1878
g86
g87
ssg75
g1872
sg68
(lp1879
S'wsgi_url_scheme'
p1880
asbag61
(g82
g63
NtRp1881
(dp1882
g66
(dp1883
g93
g94
ssg75
g1872
sg68
(lp1884
S':'
asbag61
(g82
g63
NtRp1885
(dp1886
g66
(dp1887
sg75
g1872
sg68
(lp1888
g61
(g62
g63
NtRp1889
(dp1890
g66
(dp1891
g74
I4
ssg75
g1885
sg68
(lp1892
S'http'
p1893
asbasbasbag61
(g77
g63
NtRp1894
(dp1895
g66
(dp1896
sg75
g930
sg68
(lp1897
g61
(g82
g63
NtRp1898
(dp1899
g66
(dp1900
g86
g87
ssg75
g1894
sg68
(lp1901
S'wsgi_version'
p1902
asbag61
(g82
g63
NtRp1903
(dp1904
g66
(dp1905
g93
g94
ssg75
g1894
sg68
(lp1906
S':'
asbag61
(g82
g63
NtRp1907
(dp1908
g66
(dp1909
sg75
g1894
sg68
(lp1910
g61
(g62
g63
NtRp1911
(dp1912
g66
(dp1913
g74
I4
ssg75
g1907
sg68
(lp1914
g61
(g70
g63
NtRp1915
(dp1916
g66
(dp1917
g74
I3
ssg75
Nsg68
(lp1918
g61
(g77
g63
NtRp1919
(dp1920
g66
(dp1921
sg75
g1915
sg68
(lp1922
g61
(g82
g63
NtRp1923
(dp1924
g66
(dp1925
sg75
g1919
sg68
(lp1926
g61
(g62
g63
NtRp1927
(dp1928
g66
(dp1929
g74
I3
ssg75
g1923
sg68
(lp1930
S'1'
asbasbasbag61
(g77
g63
NtRp1931
(dp1932
g66
(dp1933
sg75
g1915
sg68
(lp1934
g61
(g82
g63
NtRp1935
(dp1936
g66
(dp1937
sg75
g1931
sg68
(lp1938
g61
(g62
g63
NtRp1939
(dp1940
g66
(dp1941
g74
I3
ssg75
g1935
sg68
(lp1942
S'0'
asbasbasbasbasbasbasbasbasbasbasbag61
(g77
g63
NtRp1943
(dp1944
g66
(dp1945
sg75
g71
sg68
(lp1946
g61
(g82
g63
NtRp1947
(dp1948
g66
(dp1949
g86
g87
ssg75
g1943
sg68
(lp1950
S'extension'
p1951
asbag61
(g82
g63
NtRp1952
(dp1953
g66
(dp1954
g93
g94
ssg75
g1943
sg68
(lp1955
S':'
asbag61
(g82
g63
NtRp1956
(dp1957
g66
(dp1958
sg75
g1943
sg68
(lp1959
g61
(g62
g63
NtRp1960
(dp1961
g66
(dp1962
g74
I5
ssg75
g1956
sg68
(lp1963
S'html'
p1964
asbasbasbag61
(g77
g63
NtRp1965
(dp1966
g66
(dp1967
sg75
g71
sg68
(lp1968
g61
(g82
g63
NtRp1969
(dp1970
g66
(dp1971
g86
g87
ssg75
g1965
sg68
(lp1972
S'folder'
p1973
asbag61
(g82
g63
NtRp1974
(dp1975
g66
(dp1976
g93
g94
ssg75
g1965
sg68
(lp1977
S':'
asbag61
(g82
g63
NtRp1978
(dp1979
g66
(dp1980
sg75
g1965
sg68
(lp1981
g61
(g62
g63
NtRp1982
(dp1983
g66
(dp1984
g74
I5
ssg75
g1978
sg68
(lp1985
S'D:\\Dise\xf1o Web\\Proyectos\\Parleyweb\\web2py\\applications\\parleyweb\\'
p1986
asbasbasbag61
(g77
g63
NtRp1987
(dp1988
g66
(dp1989
sg75
g71
sg68
(lp1990
g61
(g82
g63
NtRp1991
(dp1992
g66
(dp1993
g86
g87
ssg75
g1987
sg68
(lp1994
S'function'
p1995
asbag61
(g82
g63
NtRp1996
(dp1997
g66
(dp1998
g93
g94
ssg75
g1987
sg68
(lp1999
S':'
asbag61
(g82
g63
NtRp2000
(dp2001
g66
(dp2002
sg75
g1987
sg68
(lp2003
g61
(g62
g63
NtRp2004
(dp2005
g66
(dp2006
g74
I5
ssg75
g2000
sg68
(lp2007
S'index'
p2008
asbasbasbag61
(g77
g63
NtRp2009
(dp2010
g66
(dp2011
sg75
g71
sg68
(lp2012
g61
(g82
g63
NtRp2013
(dp2014
g66
(dp2015
g86
g87
ssg75
g2009
sg68
(lp2016
S'get_vars'
p2017
asbag61
(g82
g63
NtRp2018
(dp2019
g66
(dp2020
g93
g94
ssg75
g2009
sg68
(lp2021
S':'
asbag61
(g82
g63
NtRp2022
(dp2023
g66
(dp2024
sg75
g2009
sg68
(lp2025
g61
(g62
g63
NtRp2026
(dp2027
g66
(dp2028
g74
I5
ssg75
g2022
sg68
(lp2029
g61
(g70
g63
NtRp2030
(dp2031
g66
(dp2032
g74
I4
ssg75
Nsg68
(lp2033
sbasbasbasbag61
(g77
g63
NtRp2034
(dp2035
g66
(dp2036
sg75
g71
sg68
(lp2037
g61
(g82
g63
NtRp2038
(dp2039
g66
(dp2040
g86
g87
ssg75
g2034
sg68
(lp2041
S'global_settings'
p2042
asbag61
(g82
g63
NtRp2043
(dp2044
g66
(dp2045
g93
g94
ssg75
g2034
sg68
(lp2046
S':'
asbag61
(g82
g63
NtRp2047
(dp2048
g66
(dp2049
sg75
g2034
sg68
(lp2050
g61
(g62
g63
NtRp2051
(dp2052
g66
(dp2053
g74
I5
ssg75
g2047
sg68
(lp2054
g61
(g70
g63
NtRp2055
(dp2056
g66
(dp2057
g74
I4
ssg75
Nsg68
(lp2058
g61
(g77
g63
NtRp2059
(dp2060
g66
(dp2061
sg75
g2055
sg68
(lp2062
g61
(g82
g63
NtRp2063
(dp2064
g66
(dp2065
g86
g87
ssg75
g2059
sg68
(lp2066
g942
asbag61
(g82
g63
NtRp2067
(dp2068
g66
(dp2069
g93
g94
ssg75
g2059
sg68
(lp2070
S':'
asbag61
(g82
g63
NtRp2071
(dp2072
g66
(dp2073
sg75
g2059
sg68
(lp2074
g61
(g62
g63
NtRp2075
(dp2076
g66
(dp2077
g74
I4
ssg75
g2071
sg68
(lp2078
S"set(['D:\\\\Dise\\xf1o Web\\\\Proyectos\\\\Parleyweb\\\\web2py\\\\applications\\\\parleyweb\\\\', 'D:\\\\Dise\\xf1o Web\\\\Proyectos\\\\Parleyweb\\\\web2py\\\\applications\\\\welcome\\\\', 'D:\\\\Dise\\xf1o Web\\\\Proyectos\\\\Parleyweb\\\\web2py\\\\applications\\\\admin\\\\'])"
p2079
asbasbasbag61
(g77
g63
NtRp2080
(dp2081
g66
(dp2082
sg75
g2055
sg68
(lp2083
g61
(g82
g63
NtRp2084
(dp2085
g66
(dp2086
g86
g87
ssg75
g2080
sg68
(lp2087
g964
asbag61
(g82
g63
NtRp2088
(dp2089
g66
(dp2090
g93
g94
ssg75
g2080
sg68
(lp2091
S':'
asbag61
(g82
g63
NtRp2092
(dp2093
g66
(dp2094
sg75
g2080
sg68
(lp2095
g61
(g62
g63
NtRp2096
(dp2097
g66
(dp2098
g74
I4
ssg75
g2092
sg68
(lp2099
g977
asbasbasbag61
(g77
g63
NtRp2100
(dp2101
g66
(dp2102
sg75
g2055
sg68
(lp2103
g61
(g82
g63
NtRp2104
(dp2105
g66
(dp2106
g86
g87
ssg75
g2100
sg68
(lp2107
g986
asbag61
(g82
g63
NtRp2108
(dp2109
g66
(dp2110
g93
g94
ssg75
g2100
sg68
(lp2111
S':'
asbag61
(g82
g63
NtRp2112
(dp2113
g66
(dp2114
sg75
g2100
sg68
(lp2115
g61
(g62
g63
NtRp2116
(dp2117
g66
(dp2118
g74
I4
ssg75
g2112
sg68
(lp2119
g61
(g70
g63
NtRp2120
(dp2121
g66
(dp2122
g74
I3
ssg75
Nsg68
(lp2123
sbasbasbasbag61
(g77
g63
NtRp2124
(dp2125
g66
(dp2126
sg75
g2055
sg68
(lp2127
g61
(g82
g63
NtRp2128
(dp2129
g66
(dp2130
g86
g87
ssg75
g2124
sg68
(lp2131
g1011
asbag61
(g82
g63
NtRp2132
(dp2133
g66
(dp2134
g93
g94
ssg75
g2124
sg68
(lp2135
S':'
asbag61
(g82
g63
NtRp2136
(dp2137
g66
(dp2138
sg75
g2124
sg68
(lp2139
g61
(g62
g63
NtRp2140
(dp2141
g66
(dp2142
g74
I4
ssg75
g2136
sg68
(lp2143
S"<Values at 0x331ff30: {'verbose': False, 'ip': '127.0.0.1', 'shutdown_timeout': 5, 'taskbar': False, 'nocron': False, 'pid_filename': 'httpserver.pid', 'maxthreads': None, 'softcron': False, 'server_name': 'craxsnet-PC', 'bpython': False, 'nogui': False, 'port': 8000, 'extcron': False, 'debuglevel': 30, 'test': None, 'folder': 'D:\\\\Dise\\xf1o Web\\\\Proyectos\\\\Parleyweb\\\\web2py', 'config': '', 'import_models': False, 'winservice': '', 'shell': None, 'run': '', 'log_filename': 'httpserver.log', 'args': [''], 'socket_timeout': 5, 'ssl_ca_certificate': None, 'scheduler': None, 'profiler_filename': None, 'ssl_private_key': '', 'password': '<ask>', 'request_queue_size': 5, 'ssl_certificate': '', 'cronjob': False, 'numthreads': None, 'quiet': False, 'interfaces': None, 'minthreads': None, 'timeout': 10, 'plain': False, 'nobanner': False}>"
p2144
asbasbasbag61
(g77
g63
NtRp2145
(dp2146
g66
(dp2147
sg75
g2055
sg68
(lp2148
g61
(g82
g63
NtRp2149
(dp2150
g66
(dp2151
g86
g87
ssg75
g2145
sg68
(lp2152
g1077
asbag61
(g82
g63
NtRp2153
(dp2154
g66
(dp2155
g93
g94
ssg75
g2145
sg68
(lp2156
S':'
asbag61
(g82
g63
NtRp2157
(dp2158
g66
(dp2159
sg75
g2145
sg68
(lp2160
g61
(g62
g63
NtRp2161
(dp2162
g66
(dp2163
g74
I4
ssg75
g2157
sg68
(lp2164
S'set([])'
p2165
asbasbasbag61
(g77
g63
NtRp2166
(dp2167
g66
(dp2168
sg75
g2055
sg68
(lp2169
g61
(g82
g63
NtRp2170
(dp2171
g66
(dp2172
g86
g87
ssg75
g2166
sg68
(lp2173
g1099
asbag61
(g82
g63
NtRp2174
(dp2175
g66
(dp2176
g93
g94
ssg75
g2166
sg68
(lp2177
S':'
asbag61
(g82
g63
NtRp2178
(dp2179
g66
(dp2180
sg75
g2166
sg68
(lp2181
g61
(g62
g63
NtRp2182
(dp2183
g66
(dp2184
g74
I4
ssg75
g2178
sg68
(lp2185
g104
asbasbasbag61
(g77
g63
NtRp2186
(dp2187
g66
(dp2188
sg75
g2055
sg68
(lp2189
g61
(g82
g63
NtRp2190
(dp2191
g66
(dp2192
g86
g87
ssg75
g2186
sg68
(lp2193
g1120
asbag61
(g82
g63
NtRp2194
(dp2195
g66
(dp2196
g93
g94
ssg75
g2186
sg68
(lp2197
S':'
asbag61
(g82
g63
NtRp2198
(dp2199
g66
(dp2200
sg75
g2186
sg68
(lp2201
g61
(g62
g63
NtRp2202
(dp2203
g66
(dp2204
g74
I4
ssg75
g2198
sg68
(lp2205
g1133
asbasbasbag61
(g77
g63
NtRp2206
(dp2207
g66
(dp2208
sg75
g2055
sg68
(lp2209
g61
(g82
g63
NtRp2210
(dp2211
g66
(dp2212
g86
g87
ssg75
g2206
sg68
(lp2213
g1360
asbag61
(g82
g63
NtRp2214
(dp2215
g66
(dp2216
g93
g94
ssg75
g2206
sg68
(lp2217
S':'
asbag61
(g82
g63
NtRp2218
(dp2219
g66
(dp2220
sg75
g2206
sg68
(lp2221
g61
(g62
g63
NtRp2222
(dp2223
g66
(dp2224
g74
I4
ssg75
g2218
sg68
(lp2225
g104
asbasbasbag61
(g77
g63
NtRp2226
(dp2227
g66
(dp2228
sg75
g2055
sg68
(lp2229
g61
(g82
g63
NtRp2230
(dp2231
g66
(dp2232
g86
g87
ssg75
g2226
sg68
(lp2233
g1381
asbag61
(g82
g63
NtRp2234
(dp2235
g66
(dp2236
g93
g94
ssg75
g2226
sg68
(lp2237
S':'
asbag61
(g82
g63
NtRp2238
(dp2239
g66
(dp2240
sg75
g2226
sg68
(lp2241
g61
(g62
g63
NtRp2242
(dp2243
g66
(dp2244
g74
I4
ssg75
g2238
sg68
(lp2245
g104
asbasbasbag61
(g77
g63
NtRp2246
(dp2247
g66
(dp2248
sg75
g2055
sg68
(lp2249
g61
(g82
g63
NtRp2250
(dp2251
g66
(dp2252
g86
g87
ssg75
g2246
sg68
(lp2253
g1619
asbag61
(g82
g63
NtRp2254
(dp2255
g66
(dp2256
g93
g94
ssg75
g2246
sg68
(lp2257
S':'
asbag61
(g82
g63
NtRp2258
(dp2259
g66
(dp2260
sg75
g2246
sg68
(lp2261
g61
(g62
g63
NtRp2262
(dp2263
g66
(dp2264
g74
I4
ssg75
g2258
sg68
(lp2265
g1632
asbasbasbag61
(g77
g63
NtRp2266
(dp2267
g66
(dp2268
sg75
g2055
sg68
(lp2269
g61
(g82
g63
NtRp2270
(dp2271
g66
(dp2272
g86
g87
ssg75
g2266
sg68
(lp2273
g1662
asbag61
(g82
g63
NtRp2274
(dp2275
g66
(dp2276
g93
g94
ssg75
g2266
sg68
(lp2277
S':'
asbag61
(g82
g63
NtRp2278
(dp2279
g66
(dp2280
sg75
g2266
sg68
(lp2281
g61
(g62
g63
NtRp2282
(dp2283
g66
(dp2284
g74
I4
ssg75
g2278
sg68
(lp2285
g61
(g70
g63
NtRp2286
(dp2287
g66
(dp2288
g74
I3
ssg75
Nsg68
(lp2289
g61
(g77
g63
NtRp2290
(dp2291
g66
(dp2292
sg75
g2286
sg68
(lp2293
g61
(g82
g63
NtRp2294
(dp2295
g66
(dp2296
sg75
g2290
sg68
(lp2297
g61
(g62
g63
NtRp2298
(dp2299
g66
(dp2300
g74
I3
ssg75
g2294
sg68
(lp2301
S'1'
asbasbasbag61
(g77
g63
NtRp2302
(dp2303
g66
(dp2304
sg75
g2286
sg68
(lp2305
g61
(g82
g63
NtRp2306
(dp2307
g66
(dp2308
sg75
g2302
sg68
(lp2309
g61
(g62
g63
NtRp2310
(dp2311
g66
(dp2312
g74
I3
ssg75
g2306
sg68
(lp2313
S'99'
p2314
asbasbasbag61
(g77
g63
NtRp2315
(dp2316
g66
(dp2317
sg75
g2286
sg68
(lp2318
g61
(g82
g63
NtRp2319
(dp2320
g66
(dp2321
sg75
g2315
sg68
(lp2322
g61
(g62
g63
NtRp2323
(dp2324
g66
(dp2325
g74
I3
ssg75
g2319
sg68
(lp2326
S'7'
asbasbasbag61
(g77
g63
NtRp2327
(dp2328
g66
(dp2329
sg75
g2286
sg68
(lp2330
g61
(g82
g63
NtRp2331
(dp2332
g66
(dp2333
sg75
g2327
sg68
(lp2334
g61
(g62
g63
NtRp2335
(dp2336
g66
(dp2337
g74
I3
ssg75
g2331
sg68
(lp2338
S'datetime.datetime(2012, 3, 4, 22, 12, 8)'
p2339
asbasbasbag61
(g77
g63
NtRp2340
(dp2341
g66
(dp2342
sg75
g2286
sg68
(lp2343
g61
(g82
g63
NtRp2344
(dp2345
g66
(dp2346
sg75
g2340
sg68
(lp2347
g61
(g62
g63
NtRp2348
(dp2349
g66
(dp2350
g74
I3
ssg75
g2344
sg68
(lp2351
g1741
asbasbasbasbasbasbasbasbasbasbasbag61
(g77
g63
NtRp2352
(dp2353
g66
(dp2354
sg75
g71
sg68
(lp2355
g61
(g82
g63
NtRp2356
(dp2357
g66
(dp2358
g86
g87
ssg75
g2352
sg68
(lp2359
S'is_https'
p2360
asbag61
(g82
g63
NtRp2361
(dp2362
g66
(dp2363
g93
g94
ssg75
g2352
sg68
(lp2364
S':'
asbag61
(g82
g63
NtRp2365
(dp2366
g66
(dp2367
sg75
g2352
sg68
(lp2368
g61
(g62
g63
NtRp2369
(dp2370
g66
(dp2371
g74
I5
ssg75
g2365
sg68
(lp2372
g104
asbasbasbag61
(g77
g63
NtRp2373
(dp2374
g66
(dp2375
sg75
g71
sg68
(lp2376
g61
(g82
g63
NtRp2377
(dp2378
g66
(dp2379
g86
g87
ssg75
g2373
sg68
(lp2380
S'is_local'
p2381
asbag61
(g82
g63
NtRp2382
(dp2383
g66
(dp2384
g93
g94
ssg75
g2373
sg68
(lp2385
S':'
asbag61
(g82
g63
NtRp2386
(dp2387
g66
(dp2388
sg75
g2373
sg68
(lp2389
g61
(g62
g63
NtRp2390
(dp2391
g66
(dp2392
g74
I5
ssg75
g2386
sg68
(lp2393
g1850
asbasbasbag61
(g77
g63
NtRp2394
(dp2395
g66
(dp2396
sg75
g71
sg68
(lp2397
g61
(g82
g63
NtRp2398
(dp2399
g66
(dp2400
g86
g87
ssg75
g2394
sg68
(lp2401
S'is_restful'
p2402
asbag61
(g82
g63
NtRp2403
(dp2404
g66
(dp2405
g93
g94
ssg75
g2394
sg68
(lp2406
S':'
asbag61
(g82
g63
NtRp2407
(dp2408
g66
(dp2409
sg75
g2394
sg68
(lp2410
g61
(g62
g63
NtRp2411
(dp2412
g66
(dp2413
g74
I5
ssg75
g2407
sg68
(lp2414
g104
asbasbasbag61
(g77
g63
NtRp2415
(dp2416
g66
(dp2417
sg75
g71
sg68
(lp2418
g61
(g82
g63
NtRp2419
(dp2420
g66
(dp2421
g86
g87
ssg75
g2415
sg68
(lp2422
S'now'
p2423
asbag61
(g82
g63
NtRp2424
(dp2425
g66
(dp2426
g93
g94
ssg75
g2415
sg68
(lp2427
S':'
asbag61
(g82
g63
NtRp2428
(dp2429
g66
(dp2430
sg75
g2415
sg68
(lp2431
g61
(g62
g63
NtRp2432
(dp2433
g66
(dp2434
g74
I5
ssg75
g2428
sg68
(lp2435
S'datetime.datetime(2012, 3, 13, 0, 38, 22, 675000)'
p2436
asbasbasbag61
(g77
g63
NtRp2437
(dp2438
g66
(dp2439
sg75
g71
sg68
(lp2440
g61
(g82
g63
NtRp2441
(dp2442
g66
(dp2443
g86
g87
ssg75
g2437
sg68
(lp2444
S'post_vars'
p2445
asbag61
(g82
g63
NtRp2446
(dp2447
g66
(dp2448
g93
g94
ssg75
g2437
sg68
(lp2449
S':'
asbag61
(g82
g63
NtRp2450
(dp2451
g66
(dp2452
sg75
g2437
sg68
(lp2453
g61
(g62
g63
NtRp2454
(dp2455
g66
(dp2456
g74
I5
ssg75
g2450
sg68
(lp2457
g61
(g70
g63
NtRp2458
(dp2459
g66
(dp2460
g74
I4
ssg75
Nsg68
(lp2461
g61
(g77
g63
NtRp2462
(dp2463
g66
(dp2464
sg75
g2458
sg68
(lp2465
g61
(g82
g63
NtRp2466
(dp2467
g66
(dp2468
g86
g87
ssg75
g2462
sg68
(lp2469
S'buscar_palabra'
p2470
asbag61
(g82
g63
NtRp2471
(dp2472
g66
(dp2473
g93
g94
ssg75
g2462
sg68
(lp2474
S':'
asbag61
(g82
g63
NtRp2475
(dp2476
g66
(dp2477
sg75
g2462
sg68
(lp2478
g61
(g62
g63
NtRp2479
(dp2480
g66
(dp2481
g74
I4
ssg75
g2475
sg68
(lp2482
S'gato'
p2483
asbasbasbasbasbasbasbag61
(g77
g63
NtRp2484
(dp2485
g66
(dp2486
sg75
g71
sg68
(lp2487
g61
(g82
g63
NtRp2488
(dp2489
g66
(dp2490
g86
g87
ssg75
g2484
sg68
(lp2491
S'url'
p2492
asbag61
(g82
g63
NtRp2493
(dp2494
g66
(dp2495
g93
g94
ssg75
g2484
sg68
(lp2496
S':'
asbag61
(g82
g63
NtRp2497
(dp2498
g66
(dp2499
sg75
g2484
sg68
(lp2500
g61
(g62
g63
NtRp2501
(dp2502
g66
(dp2503
g74
I5
ssg75
g2497
sg68
(lp2504
S'/parleyweb/admin/index'
p2505
asbasbasbag61
(g77
g63
NtRp2506
(dp2507
g66
(dp2508
sg75
g71
sg68
(lp2509
g61
(g82
g63
NtRp2510
(dp2511
g66
(dp2512
g86
g87
ssg75
g2506
sg68
(lp2513
S'utcnow'
p2514
asbag61
(g82
g63
NtRp2515
(dp2516
g66
(dp2517
g93
g94
ssg75
g2506
sg68
(lp2518
S':'
asbag61
(g82
g63
NtRp2519
(dp2520
g66
(dp2521
sg75
g2506
sg68
(lp2522
g61
(g62
g63
NtRp2523
(dp2524
g66
(dp2525
g74
I5
ssg75
g2519
sg68
(lp2526
S'datetime.datetime(2012, 3, 12, 23, 38, 22, 675000)'
p2527
asbasbasbag61
(g77
g63
NtRp2528
(dp2529
g66
(dp2530
sg75
g71
sg68
(lp2531
g61
(g82
g63
NtRp2532
(dp2533
g66
(dp2534
g86
g87
ssg75
g2528
sg68
(lp2535
S'uuid'
p2536
asbag61
(g82
g63
NtRp2537
(dp2538
g66
(dp2539
g93
g94
ssg75
g2528
sg68
(lp2540
S':'
asbag61
(g82
g63
NtRp2541
(dp2542
g66
(dp2543
sg75
g2528
sg68
(lp2544
g61
(g62
g63
NtRp2545
(dp2546
g66
(dp2547
g74
I5
ssg75
g2541
sg68
(lp2548
S'parleyweb/127.0.0.1.2012-03-13.00-38-22.bcd51f40-33d0-4b0e-a900-c5115b886149'
p2549
asbasbasbag61
(g77
g63
NtRp2550
(dp2551
g66
(dp2552
sg75
g71
sg68
(lp2553
g61
(g82
g63
NtRp2554
(dp2555
g66
(dp2556
g86
g87
ssg75
g2550
sg68
(lp2557
S'vars'
p2558
asbag61
(g82
g63
NtRp2559
(dp2560
g66
(dp2561
g93
g94
ssg75
g2550
sg68
(lp2562
S':'
asbag61
(g82
g63
NtRp2563
(dp2564
g66
(dp2565
sg75
g2550
sg68
(lp2566
g61
(g62
g63
NtRp2567
(dp2568
g66
(dp2569
g74
I5
ssg75
g2563
sg68
(lp2570
g61
(g70
g63
NtRp2571
(dp2572
g66
(dp2573
g74
I4
ssg75
Nsg68
(lp2574
g61
(g77
g63
NtRp2575
(dp2576
g66
(dp2577
sg75
g2571
sg68
(lp2578
g61
(g82
g63
NtRp2579
(dp2580
g66
(dp2581
g86
g87
ssg75
g2575
sg68
(lp2582
g2470
asbag61
(g82
g63
NtRp2583
(dp2584
g66
(dp2585
g93
g94
ssg75
g2575
sg68
(lp2586
S':'
asbag61
(g82
g63
NtRp2587
(dp2588
g66
(dp2589
sg75
g2575
sg68
(lp2590
g61
(g62
g63
NtRp2591
(dp2592
g66
(dp2593
g74
I4
ssg75
g2587
sg68
(lp2594
g2483
asbasbasbasbasbasbasbag61
(g77
g63
NtRp2595
(dp2596
g66
(dp2597
sg75
g71
sg68
(lp2598
g61
(g82
g63
NtRp2599
(dp2600
g66
(dp2601
g86
g87
ssg75
g2595
sg68
(lp2602
S'wsgi'
p2603
asbag61
(g82
g63
NtRp2604
(dp2605
g66
(dp2606
g93
g94
ssg75
g2595
sg68
(lp2607
S':'
asbag61
(g82
g63
NtRp2608
(dp2609
g66
(dp2610
sg75
g2595
sg68
(lp2611
g61
(g62
g63
NtRp2612
(dp2613
g66
(dp2614
g74
I5
ssg75
g2608
sg68
(lp2615
g61
(g70
g63
NtRp2616
(dp2617
g66
(dp2618
g74
I4
ssg75
Nsg68
(lp2619
g61
(g77
g63
NtRp2620
(dp2621
g66
(dp2622
sg75
g2616
sg68
(lp2623
g61
(g82
g63
NtRp2624
(dp2625
g66
(dp2626
g86
g87
ssg75
g2620
sg68
(lp2627
S'environ'
p2628
asbag61
(g82
g63
NtRp2629
(dp2630
g66
(dp2631
g93
g94
ssg75
g2620
sg68
(lp2632
S':'
asbag61
(g82
g63
NtRp2633
(dp2634
g66
(dp2635
sg75
g2620
sg68
(lp2636
g61
(g62
g63
NtRp2637
(dp2638
g66
(dp2639
g74
I4
ssg75
g2633
sg68
(lp2640
g61
(g70
g63
NtRp2641
(dp2642
g66
(dp2643
g74
I3
ssg75
Nsg68
(lp2644
g61
(g77
g63
NtRp2645
(dp2646
g66
(dp2647
sg75
g2641
sg68
(lp2648
g61
(g82
g63
NtRp2649
(dp2650
g66
(dp2651
g86
g87
ssg75
g2645
sg68
(lp2652
S'CONTENT_LENGTH'
p2653
asbag61
(g82
g63
NtRp2654
(dp2655
g66
(dp2656
g93
g94
ssg75
g2645
sg68
(lp2657
S':'
asbag61
(g82
g63
NtRp2658
(dp2659
g66
(dp2660
sg75
g2645
sg68
(lp2661
g61
(g62
g63
NtRp2662
(dp2663
g66
(dp2664
g74
I3
ssg75
g2658
sg68
(lp2665
g1046
asbasbasbag61
(g77
g63
NtRp2666
(dp2667
g66
(dp2668
sg75
g2641
sg68
(lp2669
g61
(g82
g63
NtRp2670
(dp2671
g66
(dp2672
g86
g87
ssg75
g2666
sg68
(lp2673
S'CONTENT_TYPE'
p2674
asbag61
(g82
g63
NtRp2675
(dp2676
g66
(dp2677
g93
g94
ssg75
g2666
sg68
(lp2678
S':'
asbag61
(g82
g63
NtRp2679
(dp2680
g66
(dp2681
sg75
g2666
sg68
(lp2682
g61
(g62
g63
NtRp2683
(dp2684
g66
(dp2685
g74
I3
ssg75
g2679
sg68
(lp2686
g1068
asbasbasbag61
(g77
g63
NtRp2687
(dp2688
g66
(dp2689
sg75
g2641
sg68
(lp2690
g61
(g82
g63
NtRp2691
(dp2692
g66
(dp2693
g86
g87
ssg75
g2687
sg68
(lp2694
S'HTTP_ACCEPT'
p2695
asbag61
(g82
g63
NtRp2696
(dp2697
g66
(dp2698
g93
g94
ssg75
g2687
sg68
(lp2699
S':'
asbag61
(g82
g63
NtRp2700
(dp2701
g66
(dp2702
sg75
g2687
sg68
(lp2703
g61
(g62
g63
NtRp2704
(dp2705
g66
(dp2706
g74
I3
ssg75
g2700
sg68
(lp2707
g1155
asbasbasbag61
(g77
g63
NtRp2708
(dp2709
g66
(dp2710
sg75
g2641
sg68
(lp2711
g61
(g82
g63
NtRp2712
(dp2713
g66
(dp2714
g86
g87
ssg75
g2708
sg68
(lp2715
S'HTTP_ACCEPT_ENCODING'
p2716
asbag61
(g82
g63
NtRp2717
(dp2718
g66
(dp2719
g93
g94
ssg75
g2708
sg68
(lp2720
S':'
asbag61
(g82
g63
NtRp2721
(dp2722
g66
(dp2723
sg75
g2708
sg68
(lp2724
g61
(g62
g63
NtRp2725
(dp2726
g66
(dp2727
g74
I3
ssg75
g2721
sg68
(lp2728
g1177
asbasbasbag61
(g77
g63
NtRp2729
(dp2730
g66
(dp2731
sg75
g2641
sg68
(lp2732
g61
(g82
g63
NtRp2733
(dp2734
g66
(dp2735
g86
g87
ssg75
g2729
sg68
(lp2736
S'HTTP_ACCEPT_LANGUAGE'
p2737
asbag61
(g82
g63
NtRp2738
(dp2739
g66
(dp2740
g93
g94
ssg75
g2729
sg68
(lp2741
S':'
asbag61
(g82
g63
NtRp2742
(dp2743
g66
(dp2744
sg75
g2729
sg68
(lp2745
g61
(g62
g63
NtRp2746
(dp2747
g66
(dp2748
g74
I3
ssg75
g2742
sg68
(lp2749
g1199
asbasbasbag61
(g77
g63
NtRp2750
(dp2751
g66
(dp2752
sg75
g2641
sg68
(lp2753
g61
(g82
g63
NtRp2754
(dp2755
g66
(dp2756
g86
g87
ssg75
g2750
sg68
(lp2757
S'HTTP_CONNECTION'
p2758
asbag61
(g82
g63
NtRp2759
(dp2760
g66
(dp2761
g93
g94
ssg75
g2750
sg68
(lp2762
S':'
asbag61
(g82
g63
NtRp2763
(dp2764
g66
(dp2765
sg75
g2750
sg68
(lp2766
g61
(g62
g63
NtRp2767
(dp2768
g66
(dp2769
g74
I3
ssg75
g2763
sg68
(lp2770
g1221
asbasbasbag61
(g77
g63
NtRp2771
(dp2772
g66
(dp2773
sg75
g2641
sg68
(lp2774
g61
(g82
g63
NtRp2775
(dp2776
g66
(dp2777
g86
g87
ssg75
g2771
sg68
(lp2778
S'HTTP_CONTENT_LENGTH'
p2779
asbag61
(g82
g63
NtRp2780
(dp2781
g66
(dp2782
g93
g94
ssg75
g2771
sg68
(lp2783
S':'
asbag61
(g82
g63
NtRp2784
(dp2785
g66
(dp2786
sg75
g2771
sg68
(lp2787
g61
(g62
g63
NtRp2788
(dp2789
g66
(dp2790
g74
I3
ssg75
g2784
sg68
(lp2791
g1046
asbasbasbag61
(g77
g63
NtRp2792
(dp2793
g66
(dp2794
sg75
g2641
sg68
(lp2795
g61
(g82
g63
NtRp2796
(dp2797
g66
(dp2798
g86
g87
ssg75
g2792
sg68
(lp2799
S'HTTP_CONTENT_TYPE'
p2800
asbag61
(g82
g63
NtRp2801
(dp2802
g66
(dp2803
g93
g94
ssg75
g2792
sg68
(lp2804
S':'
asbag61
(g82
g63
NtRp2805
(dp2806
g66
(dp2807
sg75
g2792
sg68
(lp2808
g61
(g62
g63
NtRp2809
(dp2810
g66
(dp2811
g74
I3
ssg75
g2805
sg68
(lp2812
g1068
asbasbasbag61
(g77
g63
NtRp2813
(dp2814
g66
(dp2815
sg75
g2641
sg68
(lp2816
g61
(g82
g63
NtRp2817
(dp2818
g66
(dp2819
g86
g87
ssg75
g2813
sg68
(lp2820
S'HTTP_COOKIE'
p2821
asbag61
(g82
g63
NtRp2822
(dp2823
g66
(dp2824
g93
g94
ssg75
g2813
sg68
(lp2825
S':'
asbag61
(g82
g63
NtRp2826
(dp2827
g66
(dp2828
sg75
g2813
sg68
(lp2829
g61
(g62
g63
NtRp2830
(dp2831
g66
(dp2832
g74
I3
ssg75
g2826
sg68
(lp2833
g1285
asbasbasbag61
(g77
g63
NtRp2834
(dp2835
g66
(dp2836
sg75
g2641
sg68
(lp2837
g61
(g82
g63
NtRp2838
(dp2839
g66
(dp2840
g86
g87
ssg75
g2834
sg68
(lp2841
S'HTTP_HOST'
p2842
asbag61
(g82
g63
NtRp2843
(dp2844
g66
(dp2845
g93
g94
ssg75
g2834
sg68
(lp2846
S':'
asbag61
(g82
g63
NtRp2847
(dp2848
g66
(dp2849
sg75
g2834
sg68
(lp2850
g61
(g62
g63
NtRp2851
(dp2852
g66
(dp2853
g74
I3
ssg75
g2847
sg68
(lp2854
g1307
asbasbasbag61
(g77
g63
NtRp2855
(dp2856
g66
(dp2857
sg75
g2641
sg68
(lp2858
g61
(g82
g63
NtRp2859
(dp2860
g66
(dp2861
g86
g87
ssg75
g2855
sg68
(lp2862
S'HTTP_REFERER'
p2863
asbag61
(g82
g63
NtRp2864
(dp2865
g66
(dp2866
g93
g94
ssg75
g2855
sg68
(lp2867
S':'
asbag61
(g82
g63
NtRp2868
(dp2869
g66
(dp2870
sg75
g2855
sg68
(lp2871
g61
(g62
g63
NtRp2872
(dp2873
g66
(dp2874
g74
I3
ssg75
g2868
sg68
(lp2875
g1329
asbasbasbag61
(g77
g63
NtRp2876
(dp2877
g66
(dp2878
sg75
g2641
sg68
(lp2879
g61
(g82
g63
NtRp2880
(dp2881
g66
(dp2882
g86
g87
ssg75
g2876
sg68
(lp2883
S'HTTP_USER_AGENT'
p2884
asbag61
(g82
g63
NtRp2885
(dp2886
g66
(dp2887
g93
g94
ssg75
g2876
sg68
(lp2888
S':'
asbag61
(g82
g63
NtRp2889
(dp2890
g66
(dp2891
sg75
g2876
sg68
(lp2892
g61
(g62
g63
NtRp2893
(dp2894
g66
(dp2895
g74
I3
ssg75
g2889
sg68
(lp2896
g1351
asbasbasbag61
(g77
g63
NtRp2897
(dp2898
g66
(dp2899
sg75
g2641
sg68
(lp2900
g61
(g82
g63
NtRp2901
(dp2902
g66
(dp2903
g86
g87
ssg75
g2897
sg68
(lp2904
S'PATH_INFO'
p2905
asbag61
(g82
g63
NtRp2906
(dp2907
g66
(dp2908
g93
g94
ssg75
g2897
sg68
(lp2909
S':'
asbag61
(g82
g63
NtRp2910
(dp2911
g66
(dp2912
sg75
g2897
sg68
(lp2913
g61
(g62
g63
NtRp2914
(dp2915
g66
(dp2916
g74
I3
ssg75
g2910
sg68
(lp2917
g1415
asbasbasbag61
(g77
g63
NtRp2918
(dp2919
g66
(dp2920
sg75
g2641
sg68
(lp2921
g61
(g82
g63
NtRp2922
(dp2923
g66
(dp2924
g86
g87
ssg75
g2918
sg68
(lp2925
S'QUERY_STRING'
p2926
asbag61
(g82
g63
NtRp2927
(dp2928
g66
(dp2929
g93
g94
ssg75
g2918
sg68
(lp2930
S':'
asbag61
(g82
g63
NtRp2931
(dp2932
g66
(dp2933
sg75
g2918
sg68
(lp2934
g61
(g62
g63
NtRp2935
(dp2936
g66
(dp2937
g74
I3
ssg75
g2931
sg68
(lp2938
S''
asbasbasbag61
(g77
g63
NtRp2939
(dp2940
g66
(dp2941
sg75
g2641
sg68
(lp2942
g61
(g82
g63
NtRp2943
(dp2944
g66
(dp2945
g86
g87
ssg75
g2939
sg68
(lp2946
S'REMOTE_ADDR'
p2947
asbag61
(g82
g63
NtRp2948
(dp2949
g66
(dp2950
g93
g94
ssg75
g2939
sg68
(lp2951
S':'
asbag61
(g82
g63
NtRp2952
(dp2953
g66
(dp2954
sg75
g2939
sg68
(lp2955
g61
(g62
g63
NtRp2956
(dp2957
g66
(dp2958
g74
I3
ssg75
g2952
sg68
(lp2959
g194
asbasbasbag61
(g77
g63
NtRp2960
(dp2961
g66
(dp2962
sg75
g2641
sg68
(lp2963
g61
(g82
g63
NtRp2964
(dp2965
g66
(dp2966
g86
g87
ssg75
g2960
sg68
(lp2967
S'REMOTE_PORT'
p2968
asbag61
(g82
g63
NtRp2969
(dp2970
g66
(dp2971
g93
g94
ssg75
g2960
sg68
(lp2972
S':'
asbag61
(g82
g63
NtRp2973
(dp2974
g66
(dp2975
sg75
g2960
sg68
(lp2976
g61
(g62
g63
NtRp2977
(dp2978
g66
(dp2979
g74
I3
ssg75
g2973
sg68
(lp2980
g1479
asbasbasbag61
(g77
g63
NtRp2981
(dp2982
g66
(dp2983
sg75
g2641
sg68
(lp2984
g61
(g82
g63
NtRp2985
(dp2986
g66
(dp2987
g86
g87
ssg75
g2981
sg68
(lp2988
S'REQUEST_METHOD'
p2989
asbag61
(g82
g63
NtRp2990
(dp2991
g66
(dp2992
g93
g94
ssg75
g2981
sg68
(lp2993
S':'
asbag61
(g82
g63
NtRp2994
(dp2995
g66
(dp2996
sg75
g2981
sg68
(lp2997
g61
(g62
g63
NtRp2998
(dp2999
g66
(dp3000
g74
I3
ssg75
g2994
sg68
(lp3001
g1501
asbasbasbag61
(g77
g63
NtRp3002
(dp3003
g66
(dp3004
sg75
g2641
sg68
(lp3005
g61
(g82
g63
NtRp3006
(dp3007
g66
(dp3008
g86
g87
ssg75
g3002
sg68
(lp3009
S'SCRIPT_NAME'
p3010
asbag61
(g82
g63
NtRp3011
(dp3012
g66
(dp3013
g93
g94
ssg75
g3002
sg68
(lp3014
S':'
asbag61
(g82
g63
NtRp3015
(dp3016
g66
(dp3017
sg75
g3002
sg68
(lp3018
g61
(g62
g63
NtRp3019
(dp3020
g66
(dp3021
g74
I3
ssg75
g3015
sg68
(lp3022
S''
asbasbasbag61
(g77
g63
NtRp3023
(dp3024
g66
(dp3025
sg75
g2641
sg68
(lp3026
g61
(g82
g63
NtRp3027
(dp3028
g66
(dp3029
g86
g87
ssg75
g3023
sg68
(lp3030
S'SERVER_NAME'
p3031
asbag61
(g82
g63
NtRp3032
(dp3033
g66
(dp3034
g93
g94
ssg75
g3023
sg68
(lp3035
S':'
asbag61
(g82
g63
NtRp3036
(dp3037
g66
(dp3038
sg75
g3023
sg68
(lp3039
g61
(g62
g63
NtRp3040
(dp3041
g66
(dp3042
g74
I3
ssg75
g3036
sg68
(lp3043
g1544
asbasbasbag61
(g77
g63
NtRp3044
(dp3045
g66
(dp3046
sg75
g2641
sg68
(lp3047
g61
(g82
g63
NtRp3048
(dp3049
g66
(dp3050
g86
g87
ssg75
g3044
sg68
(lp3051
S'SERVER_PORT'
p3052
asbag61
(g82
g63
NtRp3053
(dp3054
g66
(dp3055
g93
g94
ssg75
g3044
sg68
(lp3056
S':'
asbag61
(g82
g63
NtRp3057
(dp3058
g66
(dp3059
sg75
g3044
sg68
(lp3060
g61
(g62
g63
NtRp3061
(dp3062
g66
(dp3063
g74
I3
ssg75
g3057
sg68
(lp3064
g1566
asbasbasbag61
(g77
g63
NtRp3065
(dp3066
g66
(dp3067
sg75
g2641
sg68
(lp3068
g61
(g82
g63
NtRp3069
(dp3070
g66
(dp3071
g86
g87
ssg75
g3065
sg68
(lp3072
S'SERVER_PROTOCOL'
p3073
asbag61
(g82
g63
NtRp3074
(dp3075
g66
(dp3076
g93
g94
ssg75
g3065
sg68
(lp3077
S':'
asbag61
(g82
g63
NtRp3078
(dp3079
g66
(dp3080
sg75
g3065
sg68
(lp3081
g61
(g62
g63
NtRp3082
(dp3083
g66
(dp3084
g74
I3
ssg75
g3078
sg68
(lp3085
g1588
asbasbasbag61
(g77
g63
NtRp3086
(dp3087
g66
(dp3088
sg75
g2641
sg68
(lp3089
g61
(g82
g63
NtRp3090
(dp3091
g66
(dp3092
g86
g87
ssg75
g3086
sg68
(lp3093
S'SERVER_SOFTWARE'
p3094
asbag61
(g82
g63
NtRp3095
(dp3096
g66
(dp3097
g93
g94
ssg75
g3086
sg68
(lp3098
S':'
asbag61
(g82
g63
NtRp3099
(dp3100
g66
(dp3101
sg75
g3086
sg68
(lp3102
g61
(g62
g63
NtRp3103
(dp3104
g66
(dp3105
g74
I3
ssg75
g3099
sg68
(lp3106
g1610
asbasbasbag61
(g77
g63
NtRp3107
(dp3108
g66
(dp3109
sg75
g2641
sg68
(lp3110
g61
(g82
g63
NtRp3111
(dp3112
g66
(dp3113
g86
g87
ssg75
g3107
sg68
(lp3114
S'wsgi.errors'
p3115
asbag61
(g82
g63
NtRp3116
(dp3117
g66
(dp3118
g93
g94
ssg75
g3107
sg68
(lp3119
S':'
asbag61
(g82
g63
NtRp3120
(dp3121
g66
(dp3122
sg75
g3107
sg68
(lp3123
g61
(g62
g63
NtRp3124
(dp3125
g66
(dp3126
g74
I3
ssg75
g3120
sg68
(lp3127
S"<open file '<stderr>', mode 'w' at 0x004200B0>"
p3128
asbasbasbag61
(g77
g63
NtRp3129
(dp3130
g66
(dp3131
sg75
g2641
sg68
(lp3132
g61
(g82
g63
NtRp3133
(dp3134
g66
(dp3135
g86
g87
ssg75
g3129
sg68
(lp3136
S'wsgi.file_wrapper'
p3137
asbag61
(g82
g63
NtRp3138
(dp3139
g66
(dp3140
g93
g94
ssg75
g3129
sg68
(lp3141
S':'
asbag61
(g82
g63
NtRp3142
(dp3143
g66
(dp3144
sg75
g3129
sg68
(lp3145
g61
(g62
g63
NtRp3146
(dp3147
g66
(dp3148
g74
I3
ssg75
g3142
sg68
(lp3149
S'<class wsgiref.util.FileWrapper at 0x03115390>'
p3150
asbasbasbag61
(g77
g63
NtRp3151
(dp3152
g66
(dp3153
sg75
g2641
sg68
(lp3154
g61
(g82
g63
NtRp3155
(dp3156
g66
(dp3157
g86
g87
ssg75
g3151
sg68
(lp3158
S'wsgi.input'
p3159
asbag61
(g82
g63
NtRp3160
(dp3161
g66
(dp3162
g93
g94
ssg75
g3151
sg68
(lp3163
S':'
asbag61
(g82
g63
NtRp3164
(dp3165
g66
(dp3166
sg75
g3151
sg68
(lp3167
g61
(g62
g63
NtRp3168
(dp3169
g66
(dp3170
g74
I3
ssg75
g3164
sg68
(lp3171
S"<open file '<fdopen>', mode 'w+b' at 0x0663A7B8>"
p3172
asbasbasbag61
(g77
g63
NtRp3173
(dp3174
g66
(dp3175
sg75
g2641
sg68
(lp3176
g61
(g82
g63
NtRp3177
(dp3178
g66
(dp3179
g86
g87
ssg75
g3173
sg68
(lp3180
S'wsgi.multiprocess'
p3181
asbag61
(g82
g63
NtRp3182
(dp3183
g66
(dp3184
g93
g94
ssg75
g3173
sg68
(lp3185
S':'
asbag61
(g82
g63
NtRp3186
(dp3187
g66
(dp3188
sg75
g3173
sg68
(lp3189
g61
(g62
g63
NtRp3190
(dp3191
g66
(dp3192
g74
I3
ssg75
g3186
sg68
(lp3193
g104
asbasbasbag61
(g77
g63
NtRp3194
(dp3195
g66
(dp3196
sg75
g2641
sg68
(lp3197
g61
(g82
g63
NtRp3198
(dp3199
g66
(dp3200
g86
g87
ssg75
g3194
sg68
(lp3201
S'wsgi.multithread'
p3202
asbag61
(g82
g63
NtRp3203
(dp3204
g66
(dp3205
g93
g94
ssg75
g3194
sg68
(lp3206
S':'
asbag61
(g82
g63
NtRp3207
(dp3208
g66
(dp3209
sg75
g3194
sg68
(lp3210
g61
(g62
g63
NtRp3211
(dp3212
g66
(dp3213
g74
I3
ssg75
g3207
sg68
(lp3214
g1850
asbasbasbag61
(g77
g63
NtRp3215
(dp3216
g66
(dp3217
sg75
g2641
sg68
(lp3218
g61
(g82
g63
NtRp3219
(dp3220
g66
(dp3221
g86
g87
ssg75
g3215
sg68
(lp3222
S'wsgi.run_once'
p3223
asbag61
(g82
g63
NtRp3224
(dp3225
g66
(dp3226
g93
g94
ssg75
g3215
sg68
(lp3227
S':'
asbag61
(g82
g63
NtRp3228
(dp3229
g66
(dp3230
sg75
g3215
sg68
(lp3231
g61
(g62
g63
NtRp3232
(dp3233
g66
(dp3234
g74
I3
ssg75
g3228
sg68
(lp3235
g104
asbasbasbag61
(g77
g63
NtRp3236
(dp3237
g66
(dp3238
sg75
g2641
sg68
(lp3239
g61
(g82
g63
NtRp3240
(dp3241
g66
(dp3242
g86
g87
ssg75
g3236
sg68
(lp3243
S'wsgi.url_scheme'
p3244
asbag61
(g82
g63
NtRp3245
(dp3246
g66
(dp3247
g93
g94
ssg75
g3236
sg68
(lp3248
S':'
asbag61
(g82
g63
NtRp3249
(dp3250
g66
(dp3251
sg75
g3236
sg68
(lp3252
g61
(g62
g63
NtRp3253
(dp3254
g66
(dp3255
g74
I3
ssg75
g3249
sg68
(lp3256
g1893
asbasbasbag61
(g77
g63
NtRp3257
(dp3258
g66
(dp3259
sg75
g2641
sg68
(lp3260
g61
(g82
g63
NtRp3261
(dp3262
g66
(dp3263
g86
g87
ssg75
g3257
sg68
(lp3264
S'wsgi.version'
p3265
asbag61
(g82
g63
NtRp3266
(dp3267
g66
(dp3268
g93
g94
ssg75
g3257
sg68
(lp3269
S':'
asbag61
(g82
g63
NtRp3270
(dp3271
g66
(dp3272
sg75
g3257
sg68
(lp3273
g61
(g62
g63
NtRp3274
(dp3275
g66
(dp3276
g74
I3
ssg75
g3270
sg68
(lp3277
S'1'
asbasbasbasbasbasbasbasbasbasbasbasbasbsS'frames'
p3278
(lp3279
(dp3280
S'file'
p3281
S'D:\\Dise\xf1o Web\\Proyectos\\Parleyweb\\web2py\\gluon\\restricted.py'
p3282
sS'dump'
p3283
(dp3284
sS'lnum'
p3285
I204
sS'lines'
p3286
(dp3287
sS'call'
p3288
S"(code='# coding: utf8\\n# intente algo como\\ndef index():\\n...   \\n    \\n\\nresponse._vars=response._caller(index)\\n', environment={'A': <class 'gluon.html.A'>, 'Auth': <class 'gluon.tools.Auth'>, 'B': <class 'gluon.html.B'>, 'BEAUTIFY': <class 'gluon.html.BEAUTIFY'>, 'BODY': <class 'gluon.html.BODY'>, 'BR': <class 'gluon.html.BR'>, 'BUTTON': <class 'gluon.html.BUTTON'>, 'CAT': <class 'gluon.html.CAT'>, 'CENTER': <class 'gluon.html.CENTER'>, 'CLEANUP': <class 'gluon.validators.CLEANUP'>, ...}, layer='D:\\\\Dise\\xf1o Web\\\\Proyectos\\\\Parleyweb\\\\web2py\\\\applications\\\\parleyweb\\\\controllers/admin.py')"
p3289
sS'func'
p3290
S'restricted'
p3291
sa(dp3292
g3281
S'D:\\Dise\xf1o Web\\Proyectos\\Parleyweb\\web2py\\gluon\\restricted.py'
p3293
sg3283
(dp3294
sg3285
I189
sg3286
(dp3295
sg3288
S"(code='# coding: utf8\\n# intente algo como\\ndef index():\\n...   \\n    \\n\\nresponse._vars=response._caller(index)\\n', layer='D:\\\\Dise\\xf1o Web\\\\Proyectos\\\\Parleyweb\\\\web2py\\\\applications\\\\parleyweb\\\\controllers/admin.py')"
p3296
sg3290
S'compile2'
p3297
sasS'pyver'
p3298
S'Python 2.5.4: D:\\Dise\xf1o Web\\Proyectos\\Parleyweb\\web2py\\web2py.exe'
p3299
sS'session'
p3300
g61
(g62
g63
NtRp3301
(dp3302
g66
(dp3303
sg68
(lp3304
g61
(g70
g63
NtRp3305
(dp3306
g66
(dp3307
g74
I5
ssg75
Nsg68
(lp3308
g61
(g77
g63
NtRp3309
(dp3310
g66
(dp3311
sg75
g3305
sg68
(lp3312
g61
(g82
g63
NtRp3313
(dp3314
g66
(dp3315
g86
g87
ssg75
g3309
sg68
(lp3316
S'last_query'
p3317
asbag61
(g82
g63
NtRp3318
(dp3319
g66
(dp3320
g93
g94
ssg75
g3309
sg68
(lp3321
S':'
asbag61
(g82
g63
NtRp3322
(dp3323
g66
(dp3324
sg75
g3309
sg68
(lp3325
g61
(g62
g63
NtRp3326
(dp3327
g66
(dp3328
g74
I5
ssg75
g3322
sg68
(lp3329
S'db.palabra_ejemplo.id>0'
p3330
asbasbasbasbasbsS'etype'
p3331
S"<type 'exceptions.IndentationError'>"
p3332
sS'date'
p3333
S'Tue Mar 13 00:38:22 2012'
p3334
sS'response'
p3335
g61
(g62
g63
NtRp3336
(dp3337
g66
(dp3338
sg68
(lp3339
g61
(g70
g63
NtRp3340
(dp3341
g66
(dp3342
g74
I5
ssg75
Nsg68
(lp3343
g61
(g77
g63
NtRp3344
(dp3345
g66
(dp3346
sg75
g3340
sg68
(lp3347
g61
(g82
g63
NtRp3348
(dp3349
g66
(dp3350
g86
g87
ssg75
g3344
sg68
(lp3351
g159
asbag61
(g82
g63
NtRp3352
(dp3353
g66
(dp3354
g93
g94
ssg75
g3344
sg68
(lp3355
S':'
asbag61
(g82
g63
NtRp3356
(dp3357
g66
(dp3358
sg75
g3344
sg68
(lp3359
g61
(g62
g63
NtRp3360
(dp3361
g66
(dp3362
g74
I5
ssg75
g3356
sg68
(lp3363
S'<cStringIO.StringO object at 0x07095FA0>'
p3364
asbasbasbag61
(g77
g63
NtRp3365
(dp3366
g66
(dp3367
sg75
g3340
sg68
(lp3368
g61
(g82
g63
NtRp3369
(dp3370
g66
(dp3371
g86
g87
ssg75
g3365
sg68
(lp3372
g225
asbag61
(g82
g63
NtRp3373
(dp3374
g66
(dp3375
g93
g94
ssg75
g3365
sg68
(lp3376
S':'
asbag61
(g82
g63
NtRp3377
(dp3378
g66
(dp3379
sg75
g3365
sg68
(lp3380
g61
(g62
g63
NtRp3381
(dp3382
g66
(dp3383
g74
I5
ssg75
g3377
sg68
(lp3384
g61
(g70
g63
NtRp3385
(dp3386
g66
(dp3387
g74
I4
ssg75
Nsg68
(lp3388
g61
(g77
g63
NtRp3389
(dp3390
g66
(dp3391
sg75
g3385
sg68
(lp3392
g61
(g82
g63
NtRp3393
(dp3394
g66
(dp3395
g86
g87
ssg75
g3389
sg68
(lp3396
S'session_id_parleyweb'
p3397
asbag61
(g82
g63
NtRp3398
(dp3399
g66
(dp3400
g93
g94
ssg75
g3389
sg68
(lp3401
S':'
asbag61
(g82
g63
NtRp3402
(dp3403
g66
(dp3404
sg75
g3389
sg68
(lp3405
g61
(g62
g63
NtRp3406
(dp3407
g66
(dp3408
g74
I4
ssg75
g3402
sg68
(lp3409
g61
(g70
g63
NtRp3410
(dp3411
g66
(dp3412
g74
I3
ssg75
Nsg68
(lp3413
g61
(g77
g63
NtRp3414
(dp3415
g66
(dp3416
sg75
g3410
sg68
(lp3417
g61
(g82
g63
NtRp3418
(dp3419
g66
(dp3420
g86
g87
ssg75
g3414
sg68
(lp3421
g275
asbag61
(g82
g63
NtRp3422
(dp3423
g66
(dp3424
g93
g94
ssg75
g3414
sg68
(lp3425
S':'
asbag61
(g82
g63
NtRp3426
(dp3427
g66
(dp3428
sg75
g3414
sg68
(lp3429
g61
(g62
g63
NtRp3430
(dp3431
g66
(dp3432
g74
I3
ssg75
g3426
sg68
(lp3433
S''
asbasbasbag61
(g77
g63
NtRp3434
(dp3435
g66
(dp3436
sg75
g3410
sg68
(lp3437
g61
(g82
g63
NtRp3438
(dp3439
g66
(dp3440
g86
g87
ssg75
g3434
sg68
(lp3441
g296
asbag61
(g82
g63
NtRp3442
(dp3443
g66
(dp3444
g93
g94
ssg75
g3434
sg68
(lp3445
S':'
asbag61
(g82
g63
NtRp3446
(dp3447
g66
(dp3448
sg75
g3434
sg68
(lp3449
g61
(g62
g63
NtRp3450
(dp3451
g66
(dp3452
g74
I3
ssg75
g3446
sg68
(lp3453
S''
asbasbasbag61
(g77
g63
NtRp3454
(dp3455
g66
(dp3456
sg75
g3410
sg68
(lp3457
g61
(g82
g63
NtRp3458
(dp3459
g66
(dp3460
g86
g87
ssg75
g3454
sg68
(lp3461
g317
asbag61
(g82
g63
NtRp3462
(dp3463
g66
(dp3464
g93
g94
ssg75
g3454
sg68
(lp3465
S':'
asbag61
(g82
g63
NtRp3466
(dp3467
g66
(dp3468
sg75
g3454
sg68
(lp3469
g61
(g62
g63
NtRp3470
(dp3471
g66
(dp3472
g74
I3
ssg75
g3466
sg68
(lp3473
S''
asbasbasbag61
(g77
g63
NtRp3474
(dp3475
g66
(dp3476
sg75
g3410
sg68
(lp3477
g61
(g82
g63
NtRp3478
(dp3479
g66
(dp3480
g86
g87
ssg75
g3474
sg68
(lp3481
g338
asbag61
(g82
g63
NtRp3482
(dp3483
g66
(dp3484
g93
g94
ssg75
g3474
sg68
(lp3485
S':'
asbag61
(g82
g63
NtRp3486
(dp3487
g66
(dp3488
sg75
g3474
sg68
(lp3489
g61
(g62
g63
NtRp3490
(dp3491
g66
(dp3492
g74
I3
ssg75
g3486
sg68
(lp3493
S''
asbasbasbag61
(g77
g63
NtRp3494
(dp3495
g66
(dp3496
sg75
g3410
sg68
(lp3497
g61
(g82
g63
NtRp3498
(dp3499
g66
(dp3500
g86
g87
ssg75
g3494
sg68
(lp3501
g359
asbag61
(g82
g63
NtRp3502
(dp3503
g66
(dp3504
g93
g94
ssg75
g3494
sg68
(lp3505
S':'
asbag61
(g82
g63
NtRp3506
(dp3507
g66
(dp3508
sg75
g3494
sg68
(lp3509
g61
(g62
g63
NtRp3510
(dp3511
g66
(dp3512
g74
I3
ssg75
g3506
sg68
(lp3513
S'/'
asbasbasbag61
(g77
g63
NtRp3514
(dp3515
g66
(dp3516
sg75
g3410
sg68
(lp3517
g61
(g82
g63
NtRp3518
(dp3519
g66
(dp3520
g86
g87
ssg75
g3514
sg68
(lp3521
g380
asbag61
(g82
g63
NtRp3522
(dp3523
g66
(dp3524
g93
g94
ssg75
g3514
sg68
(lp3525
S':'
asbag61
(g82
g63
NtRp3526
(dp3527
g66
(dp3528
sg75
g3514
sg68
(lp3529
g61
(g62
g63
NtRp3530
(dp3531
g66
(dp3532
g74
I3
ssg75
g3526
sg68
(lp3533
S''
asbasbasbag61
(g77
g63
NtRp3534
(dp3535
g66
(dp3536
sg75
g3410
sg68
(lp3537
g61
(g82
g63
NtRp3538
(dp3539
g66
(dp3540
g86
g87
ssg75
g3534
sg68
(lp3541
g401
asbag61
(g82
g63
NtRp3542
(dp3543
g66
(dp3544
g93
g94
ssg75
g3534
sg68
(lp3545
S':'
asbag61
(g82
g63
NtRp3546
(dp3547
g66
(dp3548
sg75
g3534
sg68
(lp3549
g61
(g62
g63
NtRp3550
(dp3551
g66
(dp3552
g74
I3
ssg75
g3546
sg68
(lp3553
S''
asbasbasbasbasbasbasbasbasbasbasbag61
(g77
g63
NtRp3554
(dp3555
g66
(dp3556
sg75
g3340
sg68
(lp3557
g61
(g82
g63
NtRp3558
(dp3559
g66
(dp3560
g86
g87
ssg75
g3554
sg68
(lp3561
S'delimiters'
p3562
asbag61
(g82
g63
NtRp3563
(dp3564
g66
(dp3565
g93
g94
ssg75
g3554
sg68
(lp3566
S':'
asbag61
(g82
g63
NtRp3567
(dp3568
g66
(dp3569
sg75
g3554
sg68
(lp3570
g61
(g62
g63
NtRp3571
(dp3572
g66
(dp3573
g74
I5
ssg75
g3567
sg68
(lp3574
g61
(g70
g63
NtRp3575
(dp3576
g66
(dp3577
g74
I4
ssg75
Nsg68
(lp3578
g61
(g77
g63
NtRp3579
(dp3580
g66
(dp3581
sg75
g3575
sg68
(lp3582
g61
(g82
g63
NtRp3583
(dp3584
g66
(dp3585
sg75
g3579
sg68
(lp3586
g61
(g62
g63
NtRp3587
(dp3588
g66
(dp3589
g74
I4
ssg75
g3583
sg68
(lp3590
S'{{'
p3591
asbasbasbag61
(g77
g63
NtRp3592
(dp3593
g66
(dp3594
sg75
g3575
sg68
(lp3595
g61
(g82
g63
NtRp3596
(dp3597
g66
(dp3598
sg75
g3592
sg68
(lp3599
g61
(g62
g63
NtRp3600
(dp3601
g66
(dp3602
g74
I4
ssg75
g3596
sg68
(lp3603
S'}}'
p3604
asbasbasbasbasbasbasbag61
(g77
g63
NtRp3605
(dp3606
g66
(dp3607
sg75
g3340
sg68
(lp3608
g61
(g82
g63
NtRp3609
(dp3610
g66
(dp3611
g86
g87
ssg75
g3605
sg68
(lp3612
S'files'
p3613
asbag61
(g82
g63
NtRp3614
(dp3615
g66
(dp3616
g93
g94
ssg75
g3605
sg68
(lp3617
S':'
asbag61
(g82
g63
NtRp3618
(dp3619
g66
(dp3620
sg75
g3605
sg68
(lp3621
g61
(g62
g63
NtRp3622
(dp3623
g66
(dp3624
g74
I5
ssg75
g3618
sg68
(lp3625
g61
(g70
g63
NtRp3626
(dp3627
g66
(dp3628
g74
I4
ssg75
Nsg68
(lp3629
sbasbasbasbag61
(g77
g63
NtRp3630
(dp3631
g66
(dp3632
sg75
g3340
sg68
(lp3633
g61
(g82
g63
NtRp3634
(dp3635
g66
(dp3636
g86
g87
ssg75
g3630
sg68
(lp3637
S'flash'
p3638
asbag61
(g82
g63
NtRp3639
(dp3640
g66
(dp3641
g93
g94
ssg75
g3630
sg68
(lp3642
S':'
asbag61
(g82
g63
NtRp3643
(dp3644
g66
(dp3645
sg75
g3630
sg68
(lp3646
g61
(g62
g63
NtRp3647
(dp3648
g66
(dp3649
g74
I5
ssg75
g3643
sg68
(lp3650
S''
asbasbasbag61
(g77
g63
NtRp3651
(dp3652
g66
(dp3653
sg75
g3340
sg68
(lp3654
g61
(g82
g63
NtRp3655
(dp3656
g66
(dp3657
g86
g87
ssg75
g3651
sg68
(lp3658
S'generic_patterns'
p3659
asbag61
(g82
g63
NtRp3660
(dp3661
g66
(dp3662
g93
g94
ssg75
g3651
sg68
(lp3663
S':'
asbag61
(g82
g63
NtRp3664
(dp3665
g66
(dp3666
sg75
g3651
sg68
(lp3667
g61
(g62
g63
NtRp3668
(dp3669
g66
(dp3670
g74
I5
ssg75
g3664
sg68
(lp3671
g61
(g70
g63
NtRp3672
(dp3673
g66
(dp3674
g74
I4
ssg75
Nsg68
(lp3675
g61
(g77
g63
NtRp3676
(dp3677
g66
(dp3678
sg75
g3672
sg68
(lp3679
g61
(g82
g63
NtRp3680
(dp3681
g66
(dp3682
sg75
g3676
sg68
(lp3683
g61
(g62
g63
NtRp3684
(dp3685
g66
(dp3686
g74
I4
ssg75
g3680
sg68
(lp3687
S'*'
asbasbasbasbasbasbasbag61
(g77
g63
NtRp3688
(dp3689
g66
(dp3690
sg75
g3340
sg68
(lp3691
g61
(g82
g63
NtRp3692
(dp3693
g66
(dp3694
g86
g87
ssg75
g3688
sg68
(lp3695
S'headers'
p3696
asbag61
(g82
g63
NtRp3697
(dp3698
g66
(dp3699
g93
g94
ssg75
g3688
sg68
(lp3700
S':'
asbag61
(g82
g63
NtRp3701
(dp3702
g66
(dp3703
sg75
g3688
sg68
(lp3704
g61
(g62
g63
NtRp3705
(dp3706
g66
(dp3707
g74
I5
ssg75
g3701
sg68
(lp3708
g61
(g70
g63
NtRp3709
(dp3710
g66
(dp3711
g74
I4
ssg75
Nsg68
(lp3712
g61
(g77
g63
NtRp3713
(dp3714
g66
(dp3715
sg75
g3709
sg68
(lp3716
g61
(g82
g63
NtRp3717
(dp3718
g66
(dp3719
g86
g87
ssg75
g3713
sg68
(lp3720
S'Cache-Control'
p3721
asbag61
(g82
g63
NtRp3722
(dp3723
g66
(dp3724
g93
g94
ssg75
g3713
sg68
(lp3725
S':'
asbag61
(g82
g63
NtRp3726
(dp3727
g66
(dp3728
sg75
g3713
sg68
(lp3729
g61
(g62
g63
NtRp3730
(dp3731
g66
(dp3732
g74
I4
ssg75
g3726
sg68
(lp3733
S'no-store, no-cache, must-revalidate, post-check=0, pre-check=0'
p3734
asbasbasbag61
(g77
g63
NtRp3735
(dp3736
g66
(dp3737
sg75
g3709
sg68
(lp3738
g61
(g82
g63
NtRp3739
(dp3740
g66
(dp3741
g86
g87
ssg75
g3735
sg68
(lp3742
S'Content-Type'
p3743
asbag61
(g82
g63
NtRp3744
(dp3745
g66
(dp3746
g93
g94
ssg75
g3735
sg68
(lp3747
S':'
asbag61
(g82
g63
NtRp3748
(dp3749
g66
(dp3750
sg75
g3735
sg68
(lp3751
g61
(g62
g63
NtRp3752
(dp3753
g66
(dp3754
g74
I4
ssg75
g3748
sg68
(lp3755
S'text/html; charset=utf-8'
p3756
asbasbasbag61
(g77
g63
NtRp3757
(dp3758
g66
(dp3759
sg75
g3709
sg68
(lp3760
g61
(g82
g63
NtRp3761
(dp3762
g66
(dp3763
g86
g87
ssg75
g3757
sg68
(lp3764
S'Expires'
p3765
asbag61
(g82
g63
NtRp3766
(dp3767
g66
(dp3768
g93
g94
ssg75
g3757
sg68
(lp3769
S':'
asbag61
(g82
g63
NtRp3770
(dp3771
g66
(dp3772
sg75
g3757
sg68
(lp3773
g61
(g62
g63
NtRp3774
(dp3775
g66
(dp3776
g74
I4
ssg75
g3770
sg68
(lp3777
S'Mon, 12 Mar 2012 23:38:22 GMT'
p3778
asbasbasbag61
(g77
g63
NtRp3779
(dp3780
g66
(dp3781
sg75
g3709
sg68
(lp3782
g61
(g82
g63
NtRp3783
(dp3784
g66
(dp3785
g86
g87
ssg75
g3779
sg68
(lp3786
S'Pragma'
p3787
asbag61
(g82
g63
NtRp3788
(dp3789
g66
(dp3790
g93
g94
ssg75
g3779
sg68
(lp3791
S':'
asbag61
(g82
g63
NtRp3792
(dp3793
g66
(dp3794
sg75
g3779
sg68
(lp3795
g61
(g62
g63
NtRp3796
(dp3797
g66
(dp3798
g74
I4
ssg75
g3792
sg68
(lp3799
S'no-cache'
p3800
asbasbasbag61
(g77
g63
NtRp3801
(dp3802
g66
(dp3803
sg75
g3709
sg68
(lp3804
g61
(g82
g63
NtRp3805
(dp3806
g66
(dp3807
g86
g87
ssg75
g3801
sg68
(lp3808
S'X-Powered-By'
p3809
asbag61
(g82
g63
NtRp3810
(dp3811
g66
(dp3812
g93
g94
ssg75
g3801
sg68
(lp3813
S':'
asbag61
(g82
g63
NtRp3814
(dp3815
g66
(dp3816
sg75
g3801
sg68
(lp3817
g61
(g62
g63
NtRp3818
(dp3819
g66
(dp3820
g74
I4
ssg75
g3814
sg68
(lp3821
S'web2py'
p3822
asbasbasbasbasbasbasbag61
(g77
g63
NtRp3823
(dp3824
g66
(dp3825
sg75
g3340
sg68
(lp3826
g61
(g82
g63
NtRp3827
(dp3828
g66
(dp3829
g86
g87
ssg75
g3823
sg68
(lp3830
S'menu'
p3831
asbag61
(g82
g63
NtRp3832
(dp3833
g66
(dp3834
g93
g94
ssg75
g3823
sg68
(lp3835
S':'
asbag61
(g82
g63
NtRp3836
(dp3837
g66
(dp3838
sg75
g3823
sg68
(lp3839
g61
(g62
g63
NtRp3840
(dp3841
g66
(dp3842
g74
I5
ssg75
g3836
sg68
(lp3843
g61
(g70
g63
NtRp3844
(dp3845
g66
(dp3846
g74
I4
ssg75
Nsg68
(lp3847
g61
(g77
g63
NtRp3848
(dp3849
g66
(dp3850
sg75
g3844
sg68
(lp3851
g61
(g82
g63
NtRp3852
(dp3853
g66
(dp3854
sg75
g3848
sg68
(lp3855
g61
(g62
g63
NtRp3856
(dp3857
g66
(dp3858
g74
I4
ssg75
g3852
sg68
(lp3859
g61
(g70
g63
NtRp3860
(dp3861
g66
(dp3862
g74
I3
ssg75
Nsg68
(lp3863
g61
(g77
g63
NtRp3864
(dp3865
g66
(dp3866
sg75
g3860
sg68
(lp3867
g61
(g82
g63
NtRp3868
(dp3869
g66
(dp3870
sg75
g3864
sg68
(lp3871
g61
(g62
g63
NtRp3872
(dp3873
g66
(dp3874
g74
I3
ssg75
g3868
sg68
(lp3875
cgluon.languages
lazyT_unpickle
p3876
(S't\x04\x00\x00\x00Home'
tRp3877
asbasbasbag61
(g77
g63
NtRp3878
(dp3879
g66
(dp3880
sg75
g3860
sg68
(lp3881
g61
(g82
g63
NtRp3882
(dp3883
g66
(dp3884
sg75
g3878
sg68
(lp3885
g61
(g62
g63
NtRp3886
(dp3887
g66
(dp3888
g74
I3
ssg75
g3882
sg68
(lp3889
g104
asbasbasbag61
(g77
g63
NtRp3890
(dp3891
g66
(dp3892
sg75
g3860
sg68
(lp3893
g61
(g82
g63
NtRp3894
(dp3895
g66
(dp3896
sg75
g3890
sg68
(lp3897
g61
(g62
g63
NtRp3898
(dp3899
g66
(dp3900
g74
I3
ssg75
g3894
sg68
(lp3901
S'/parleyweb/default/index'
p3902
asbasbasbag61
(g77
g63
NtRp3903
(dp3904
g66
(dp3905
sg75
g3860
sg68
(lp3906
g61
(g82
g63
NtRp3907
(dp3908
g66
(dp3909
sg75
g3903
sg68
(lp3910
g61
(g62
g63
NtRp3911
(dp3912
g66
(dp3913
g74
I3
ssg75
g3907
sg68
(lp3914
g61
(g70
g63
NtRp3915
(dp3916
g66
(dp3917
g74
I2
ssg75
Nsg68
(lp3918
sbasbasbasbasbasbasbasbasbasbasbasbag61
(g77
g63
NtRp3919
(dp3920
g66
(dp3921
sg75
g3340
sg68
(lp3922
g61
(g82
g63
NtRp3923
(dp3924
g66
(dp3925
g86
g87
ssg75
g3919
sg68
(lp3926
S'meta'
p3927
asbag61
(g82
g63
NtRp3928
(dp3929
g66
(dp3930
g93
g94
ssg75
g3919
sg68
(lp3931
S':'
asbag61
(g82
g63
NtRp3932
(dp3933
g66
(dp3934
sg75
g3919
sg68
(lp3935
g61
(g62
g63
NtRp3936
(dp3937
g66
(dp3938
g74
I5
ssg75
g3932
sg68
(lp3939
g61
(g70
g63
NtRp3940
(dp3941
g66
(dp3942
g74
I4
ssg75
Nsg68
(lp3943
g61
(g77
g63
NtRp3944
(dp3945
g66
(dp3946
sg75
g3940
sg68
(lp3947
g61
(g82
g63
NtRp3948
(dp3949
g66
(dp3950
g86
g87
ssg75
g3944
sg68
(lp3951
S'author'
p3952
asbag61
(g82
g63
NtRp3953
(dp3954
g66
(dp3955
g93
g94
ssg75
g3944
sg68
(lp3956
S':'
asbag61
(g82
g63
NtRp3957
(dp3958
g66
(dp3959
sg75
g3944
sg68
(lp3960
g61
(g62
g63
NtRp3961
(dp3962
g66
(dp3963
g74
I4
ssg75
g3957
sg68
(lp3964
S'Your Name <you@example.com>'
p3965
asbasbasbag61
(g77
g63
NtRp3966
(dp3967
g66
(dp3968
sg75
g3940
sg68
(lp3969
g61
(g82
g63
NtRp3970
(dp3971
g66
(dp3972
g86
g87
ssg75
g3966
sg68
(lp3973
S'copyright'
p3974
asbag61
(g82
g63
NtRp3975
(dp3976
g66
(dp3977
g93
g94
ssg75
g3966
sg68
(lp3978
S':'
asbag61
(g82
g63
NtRp3979
(dp3980
g66
(dp3981
sg75
g3966
sg68
(lp3982
g61
(g62
g63
NtRp3983
(dp3984
g66
(dp3985
g74
I4
ssg75
g3979
sg68
(lp3986
S'Copyright 2011'
p3987
asbasbasbag61
(g77
g63
NtRp3988
(dp3989
g66
(dp3990
sg75
g3940
sg68
(lp3991
g61
(g82
g63
NtRp3992
(dp3993
g66
(dp3994
g86
g87
ssg75
g3988
sg68
(lp3995
S'description'
p3996
asbag61
(g82
g63
NtRp3997
(dp3998
g66
(dp3999
g93
g94
ssg75
g3988
sg68
(lp4000
S':'
asbag61
(g82
g63
NtRp4001
(dp4002
g66
(dp4003
sg75
g3988
sg68
(lp4004
g61
(g62
g63
NtRp4005
(dp4006
g66
(dp4007
g74
I4
ssg75
g4001
sg68
(lp4008
S'a cool new app'
p4009
asbasbasbag61
(g77
g63
NtRp4010
(dp4011
g66
(dp4012
sg75
g3940
sg68
(lp4013
g61
(g82
g63
NtRp4014
(dp4015
g66
(dp4016
g86
g87
ssg75
g4010
sg68
(lp4017
S'generator'
p4018
asbag61
(g82
g63
NtRp4019
(dp4020
g66
(dp4021
g93
g94
ssg75
g4010
sg68
(lp4022
S':'
asbag61
(g82
g63
NtRp4023
(dp4024
g66
(dp4025
sg75
g4010
sg68
(lp4026
g61
(g62
g63
NtRp4027
(dp4028
g66
(dp4029
g74
I4
ssg75
g4023
sg68
(lp4030
S'Web2py Web Framework'
p4031
asbasbasbag61
(g77
g63
NtRp4032
(dp4033
g66
(dp4034
sg75
g3940
sg68
(lp4035
g61
(g82
g63
NtRp4036
(dp4037
g66
(dp4038
g86
g87
ssg75
g4032
sg68
(lp4039
S'keywords'
p4040
asbag61
(g82
g63
NtRp4041
(dp4042
g66
(dp4043
g93
g94
ssg75
g4032
sg68
(lp4044
S':'
asbag61
(g82
g63
NtRp4045
(dp4046
g66
(dp4047
sg75
g4032
sg68
(lp4048
g61
(g62
g63
NtRp4049
(dp4050
g66
(dp4051
g74
I4
ssg75
g4045
sg68
(lp4052
S'web2py, python, framework'
p4053
asbasbasbasbasbasbasbag61
(g77
g63
NtRp4054
(dp4055
g66
(dp4056
sg75
g3340
sg68
(lp4057
g61
(g82
g63
NtRp4058
(dp4059
g66
(dp4060
g86
g87
ssg75
g4054
sg68
(lp4061
S'postprocessing'
p4062
asbag61
(g82
g63
NtRp4063
(dp4064
g66
(dp4065
g93
g94
ssg75
g4054
sg68
(lp4066
S':'
asbag61
(g82
g63
NtRp4067
(dp4068
g66
(dp4069
sg75
g4054
sg68
(lp4070
g61
(g62
g63
NtRp4071
(dp4072
g66
(dp4073
g74
I5
ssg75
g4067
sg68
(lp4074
g61
(g70
g63
NtRp4075
(dp4076
g66
(dp4077
g74
I4
ssg75
Nsg68
(lp4078
sbasbasbasbag61
(g77
g63
NtRp4079
(dp4080
g66
(dp4081
sg75
g3340
sg68
(lp4082
g61
(g82
g63
NtRp4083
(dp4084
g66
(dp4085
g86
g87
ssg75
g4079
sg68
(lp4086
S'session_file'
p4087
asbag61
(g82
g63
NtRp4088
(dp4089
g66
(dp4090
g93
g94
ssg75
g4079
sg68
(lp4091
S':'
asbag61
(g82
g63
NtRp4092
(dp4093
g66
(dp4094
sg75
g4079
sg68
(lp4095
g61
(g62
g63
NtRp4096
(dp4097
g66
(dp4098
g74
I5
ssg75
g4092
sg68
(lp4099
S"<open file 'D:\\Dise\xf1o Web\\Proyectos\\Parleyweb\\web2py\\applications\\parleyweb\\sessions\\127.0.0.1-2049810e-c086-402c-857f-06991c56216c', mode 'rb+' at 0x0663A020>"
p4100
asbasbasbag61
(g77
g63
NtRp4101
(dp4102
g66
(dp4103
sg75
g3340
sg68
(lp4104
g61
(g82
g63
NtRp4105
(dp4106
g66
(dp4107
g86
g87
ssg75
g4101
sg68
(lp4108
S'session_filename'
p4109
asbag61
(g82
g63
NtRp4110
(dp4111
g66
(dp4112
g93
g94
ssg75
g4101
sg68
(lp4113
S':'
asbag61
(g82
g63
NtRp4114
(dp4115
g66
(dp4116
sg75
g4101
sg68
(lp4117
g61
(g62
g63
NtRp4118
(dp4119
g66
(dp4120
g74
I5
ssg75
g4114
sg68
(lp4121
S'D:\\Dise\xf1o Web\\Proyectos\\Parleyweb\\web2py\\applications\\parleyweb\\sessions\\127.0.0.1-2049810e-c086-402c-857f-06991c56216c'
p4122
asbasbasbag61
(g77
g63
NtRp4123
(dp4124
g66
(dp4125
sg75
g3340
sg68
(lp4126
g61
(g82
g63
NtRp4127
(dp4128
g66
(dp4129
g86
g87
ssg75
g4123
sg68
(lp4130
S'session_id'
p4131
asbag61
(g82
g63
NtRp4132
(dp4133
g66
(dp4134
g93
g94
ssg75
g4123
sg68
(lp4135
S':'
asbag61
(g82
g63
NtRp4136
(dp4137
g66
(dp4138
sg75
g4123
sg68
(lp4139
g61
(g62
g63
NtRp4140
(dp4141
g66
(dp4142
g74
I5
ssg75
g4136
sg68
(lp4143
S'127.0.0.1-2049810e-c086-402c-857f-06991c56216c'
p4144
asbasbasbag61
(g77
g63
NtRp4145
(dp4146
g66
(dp4147
sg75
g3340
sg68
(lp4148
g61
(g82
g63
NtRp4149
(dp4150
g66
(dp4151
g86
g87
ssg75
g4145
sg68
(lp4152
S'session_id_name'
p4153
asbag61
(g82
g63
NtRp4154
(dp4155
g66
(dp4156
g93
g94
ssg75
g4145
sg68
(lp4157
S':'
asbag61
(g82
g63
NtRp4158
(dp4159
g66
(dp4160
sg75
g4145
sg68
(lp4161
g61
(g62
g63
NtRp4162
(dp4163
g66
(dp4164
g74
I5
ssg75
g4158
sg68
(lp4165
g3397
asbasbasbag61
(g77
g63
NtRp4166
(dp4167
g66
(dp4168
sg75
g3340
sg68
(lp4169
g61
(g82
g63
NtRp4170
(dp4171
g66
(dp4172
g86
g87
ssg75
g4166
sg68
(lp4173
S'session_locked'
p4174
asbag61
(g82
g63
NtRp4175
(dp4176
g66
(dp4177
g93
g94
ssg75
g4166
sg68
(lp4178
S':'
asbag61
(g82
g63
NtRp4179
(dp4180
g66
(dp4181
sg75
g4166
sg68
(lp4182
g61
(g62
g63
NtRp4183
(dp4184
g66
(dp4185
g74
I5
ssg75
g4179
sg68
(lp4186
g1850
asbasbasbag61
(g77
g63
NtRp4187
(dp4188
g66
(dp4189
sg75
g3340
sg68
(lp4190
g61
(g82
g63
NtRp4191
(dp4192
g66
(dp4193
g86
g87
ssg75
g4187
sg68
(lp4194
S'session_new'
p4195
asbag61
(g82
g63
NtRp4196
(dp4197
g66
(dp4198
g93
g94
ssg75
g4187
sg68
(lp4199
S':'
asbag61
(g82
g63
NtRp4200
(dp4201
g66
(dp4202
sg75
g4187
sg68
(lp4203
g61
(g62
g63
NtRp4204
(dp4205
g66
(dp4206
g74
I5
ssg75
g4200
sg68
(lp4207
g104
asbasbasbag61
(g77
g63
NtRp4208
(dp4209
g66
(dp4210
sg75
g3340
sg68
(lp4211
g61
(g82
g63
NtRp4212
(dp4213
g66
(dp4214
g86
g87
ssg75
g4208
sg68
(lp4215
S'status'
p4216
asbag61
(g82
g63
NtRp4217
(dp4218
g66
(dp4219
g93
g94
ssg75
g4208
sg68
(lp4220
S':'
asbag61
(g82
g63
NtRp4221
(dp4222
g66
(dp4223
sg75
g4208
sg68
(lp4224
g61
(g62
g63
NtRp4225
(dp4226
g66
(dp4227
g74
I5
ssg75
g4221
sg68
(lp4228
S'200'
p4229
asbasbasbag61
(g77
g63
NtRp4230
(dp4231
g66
(dp4232
sg75
g3340
sg68
(lp4233
g61
(g82
g63
NtRp4234
(dp4235
g66
(dp4236
g86
g87
ssg75
g4230
sg68
(lp4237
S'subtitle'
p4238
asbag61
(g82
g63
NtRp4239
(dp4240
g66
(dp4241
g93
g94
ssg75
g4230
sg68
(lp4242
S':'
asbag61
(g82
g63
NtRp4243
(dp4244
g66
(dp4245
sg75
g4230
sg68
(lp4246
g61
(g62
g63
NtRp4247
(dp4248
g66
(dp4249
g74
I5
ssg75
g4243
sg68
(lp4250
g3876
(S's\t\x00\x00\x00Adaptame!'
tRp4251
asbasbasbag61
(g77
g63
NtRp4252
(dp4253
g66
(dp4254
sg75
g3340
sg68
(lp4255
g61
(g82
g63
NtRp4256
(dp4257
g66
(dp4258
g86
g87
ssg75
g4252
sg68
(lp4259
S'title'
p4260
asbag61
(g82
g63
NtRp4261
(dp4262
g66
(dp4263
g93
g94
ssg75
g4252
sg68
(lp4264
S':'
asbag61
(g82
g63
NtRp4265
(dp4266
g66
(dp4267
sg75
g4252
sg68
(lp4268
g61
(g62
g63
NtRp4269
(dp4270
g66
(dp4271
g74
I5
ssg75
g4265
sg68
(lp4272
S'Parleyweb'
p4273
asbasbasbag61
(g77
g63
NtRp4274
(dp4275
g66
(dp4276
sg75
g3340
sg68
(lp4277
g61
(g82
g63
NtRp4278
(dp4279
g66
(dp4280
g86
g87
ssg75
g4274
sg68
(lp4281
g2536
asbag61
(g82
g63
NtRp4282
(dp4283
g66
(dp4284
g93
g94
ssg75
g4274
sg68
(lp4285
S':'
asbag61
(g82
g63
NtRp4286
(dp4287
g66
(dp4288
sg75
g4274
sg68
(lp4289
g61
(g62
g63
NtRp4290
(dp4291
g66
(dp4292
g74
I5
ssg75
g4286
sg68
(lp4293
g2549
asbasbasbag61
(g77
g63
NtRp4294
(dp4295
g66
(dp4296
sg75
g3340
sg68
(lp4297
g61
(g82
g63
NtRp4298
(dp4299
g66
(dp4300
g86
g87
ssg75
g4294
sg68
(lp4301
S'view'
p4302
asbag61
(g82
g63
NtRp4303
(dp4304
g66
(dp4305
g93
g94
ssg75
g4294
sg68
(lp4306
S':'
asbag61
(g82
g63
NtRp4307
(dp4308
g66
(dp4309
sg75
g4294
sg68
(lp4310
g61
(g62
g63
NtRp4311
(dp4312
g66
(dp4313
g74
I5
ssg75
g4307
sg68
(lp4314
S'admin/index.html'
p4315
asbasbasbasbasbsS'locals'
p4316
(dp4317
g4
S"'D:\\\\Dise\\xf1o Web\\\\Proyectos\\\\Parleyweb\\\\web2py\\\\applications\\\\parleyweb\\\\controllers/admin.py'"
p4318
sg6
S"'# coding: utf8\\n# intente algo como\\ndef index():\\n...   \\n    \\n\\nresponse._vars=response._caller(index)\\n'"
p4319
sssS'traceback'
p4320
S'Traceback (most recent call last):\n  File "gluon/restricted.py", line 204, in restricted\n  File "gluon/restricted.py", line 189, in compile2\n  File "D:\\Dise\xf1o Web\\Proyectos\\Parleyweb\\web2py\\applications\\parleyweb\\controllers/admin.py", line 14\n    ejemplos = db((db.palabras.id==db.palabra_ejemplo.palabra)&(db.ejemplos.id==db.palabra_ejemplo.ejemplo)) # asi se igualan las tablas para las relaciones muchos a muchos\n           ^\nIndentationError: expected an indented block\n'
p4321
s.