(dp1
S'output'
p2
S"<type 'exceptions.TypeError'> 'NoneType' object is not callable"
p3
sS'layer'
p4
S'D:\\Dise\xf1o Web\\Proyectos\\Parleyweb\\web2py\\applications\\parleyweb\\controllers/admin.py'
p5
sS'code'
p6
S'# coding: utf8\n# intente algo como\ndef index():\n    """\n    Pagina principal de la administracion \n    """\n    form = SQLFORM(db.busqueda, formstyle=\'divs\', _id="buscar_palabra_admin", submit_button=\'Enviar\')\n    if form.accepts(request.vars, session, dbio=False): # metodo para validar las entradas del formulario, dbio=False no guarda en la bases de datos\n        a = db(db.palabras.palabra==request.post_vars.buscar_palabra).select()\n        if not a:\n            session.flash = \'Ingresa nueva palabra\'\n            redirect(URL(\'agregar_palabra\', args=request.post_vars.buscar_palabra))\n            \n        else:\n            response.flash = \'Palabra encontrada\'\n        #if not request.post_vars.buscar_palabra:\n        #response.flash = \'Palabra no encontrada\'\n    #id_palabra = request.vars.buscar_palabra # el id de la palabra cuando se envia el formulario #borrar\n    #palabra_ejemplo = db(db.palabras.id==id_palabra).select(db.palabras.palabra).first()         #borrar\n    ejemplos = db((db.palabras.id==db.palabra_ejemplo.palabra)&(db.ejemplos.id==db.palabra_ejemplo.ejemplo)) # asi se igualan las tablas para las relaciones muchos a muchos\n    return dict(form=form, ejemplos=ejemplos) # llama a la vista con el nombre de la funcion las variables\n        \ndef agregar_palabra():\n    """\n    Se agregan  palabras y se muestran los ultimos 10 registros insertados con los cuales\n    se pueden hacer distintas operaciones\n    """\n    if request.raw_args:\n        db.palabras.palabra.default = request.raw_args\n    db.palabras.palabra.requires = IS_NOT_IN_DB(db,\'palabras.palabra\') # Validacion para  la palabra que se inserte no puede estar ya en la DB\n    agregar = SQLFORM(db.palabras, formstyle="divs", _id="form-agregar", submit_button="Enviar" , _autocomplete="off") # se genera el formulario para la tabla palabras\n    if agregar.accepts(request.vars, session): #metodo para validar las entradas del formulario\n       redirect(URL(\'buscar_ejemplos\', args=request.post_vars.palabra))\n       #response.flash = \'Registro insertado\' # mensajes del sistema\n    elif agregar.errors:  # Metodo usado para cuando se producen errores\n       response.flash = \'Hay un error\'\n    contador_ejemplo = db().select(db.palabra_ejemplo.ALL) # selecionar todos los registro de la tabla palabra_ejemplo para luego contarlos\n    consulta = db().select(db.palabras.ALL, orderby=~db.palabras.id , limitby=(0,9)) # muestra los 10 ultimos registros insertados\n    contador = db(db.palabras.id > 0).count() # cuenta cuantos registros hay en la DB\n    return dict(agregar=agregar, consulta=consulta, contador=contador, contador_ejemplo=contador_ejemplo)\n    \ndef buscar_ejemplos():\n    return dict()\n    \ndef buscar_ejemplos2():\n    id = db(db.palabras.palabra==request.raw_args).select().first()\n    buscar = db(db.ejemplos.ejemplo_de.contains(request.raw_args)).select()\n    return dict(buscar=buscar, id=id)\n\n\ndef agregar_ejemplo():\n    """\n    Se agregan los ejemplos y se muestran los ultimos 10 registros insertados con los cuales\n    se pueden hacer distintas operaciones\n    """\n    agregar_ejemplo = SQLFORM(db.ejemplos, formstyle="divs", _id="form-ejemplo", labels={\'ejemplo_de\':\'\', \'ejemplo_es\':\'\'} )\n    if agregar_ejemplo.accepts(request.vars, session):\n        response.flash = \'Ejemplo agregado\'\n        redirect(URL(\'agregar_ejemplo\'))\n    elif agregar_ejemplo.errors:\n        response.flash="Hay algun error"\n    nombre_fuente = db().select(db.fuentes.ALL)\n    contador_palabra = db().select(db.palabra_ejemplo.ALL) # selecionar todos los registro de la tabla palabra_ejemplo para luego contarlos\n    consulta_ejemplos = db().select(db.ejemplos.ALL, orderby=~db.ejemplos.id, limitby=(0,9)) # muestra los 10 ultimos registros insertados\n    contador2 = db(db.ejemplos.id > 0).count() # cuenta cuantos registros hay en la DB\n    ejemplos = db((db.palabras.id==db.palabra_ejemplo.palabra)&(db.ejemplos.id==db.palabra_ejemplo.ejemplo))\n    #palabras = db(db.palabra_ejemplo.palabra==db.palabras.id)\n    return dict(ejemplos=ejemplos, consulta_ejemplos=consulta_ejemplos, agregar_ejemplo=agregar_ejemplo, contador2=contador2, contador_palabra=contador_palabra, nombre_fuente=nombre_fuente)\ndef agregar_fuente():\n    agregar_fuente = SQLFORM(db.fuentes, formstyle="divs", _id="form-fuentes" )\n    if agregar_fuente.accepts(request.vars, session):\n       response.flash = \'Fuente insertado\'\n    elif agregar_fuente.errors:\n       response.flash = \'Hay un error\'\n    consulta = db().select(db.fuentes.ALL, orderby=~db.fuentes.id , limitby=(0,9)) # muestra los 10 ultimos registros insertados\n    contador = db(db.fuentes.id > 0).count() # cuenta cuantos registros hay en la DB\n    return dict(agregar_fuente=agregar_fuente, consulta=consulta, contador=contador)\n    \ndef agregar_glosario():\n    agregar_glosario = SQLFORM(db.glosario, formstyle="divs", _id="form-glsoario" )\n    if agregar_glosario.accepts(request.vars, session):\n       response.flash = \'Fuente insertado\'\n    elif agregar_glosario.errors:\n       response.flash = \'Hay un error\'\n    consulta = db().select(db.glosario.ALL, orderby=~db.glosario.id , limitby=(0,9)) # muestra los 10 ultimos registros insertados\n    contador = db(db.glosario.id > 0).count() # cuenta cuantos registros hay en la DB\n    return dict(agregar_glosario=agregar_glosario, consulta=consulta, contador=contador)\n    \ndef agregar_palabra_grid():\n    """\n    El grid propocionado por web2py, utilizado para administracion\n    """\n    agregar = SQLFORM.grid(db.worte, _class="table margin-top table-striped")\n    return dict(agregar=agregar)\n\ndef borrar_palabra():# \n    """\n    simplemente carga la vista para ejecutar el Modal\n    """\n    return dict()\n\ndef borrar_palabra2():\n    """\n    Es la accion que borra la palabra y redirecciona al index de admin\n    """\n    db(db.palabras.id == request.raw_args).delete() # borra la palabra de la DB\n    session.flash=\'Registro borrado\' # se usa cuando se redirecciona a otra, y se quiere mostrar el mensaje del sistema\n    redirect(URL(\'agregar_palabra\'))\n \ndef borrar_ejemplo(): \n    """\n    simplemente carga la vista para ejecutar el Modal\n    """\n    return dict()\n\ndef borrar_ejemplo2():\n    """\n    realiza la accion de borrar y redirecciona\n    """\n    db(db.ejemplos.id == request.args(0)).delete() # borra la palabra de la DB\n    session.flash=\'Ejemplo borrado\'\n    redirect(URL(\'agregar_ejemplo\'))\n    \ndef borrar_fuente():# \n    """\n    simplemente carga la vista para ejecutar el Modal\n    """\n    return dict()\n    \ndef borrar_fuente2():\n    """\n    realiza la accion de borrar y redirecciona\n    """\n    db(db.fuentes.id == request.args(0)).delete() # borra la palabra de la DB\n    session.flash=\'Fuente borrada\'\n    redirect(URL(\'agregar_fuente\'))\n\ndef editar_palabra():\n    """\n    Se carga el formulario para editar el registro\n    """\n    record = db.palabras(request.args(0)) # Seleciona el registro de la DB con el primer argumentro pasado\n    form = SQLFORM(db.palabras, record, formstyle=\'divs\', _class=\'form-inline wellparley\', _id=\'form-editar\') # formulario para actualizar hay que pasarle el registro que se quiere actualizar\n    if form.accepts(request.vars, session):\n       session.flash=\'Palabra editada\' \n       redirect(URL(\'agregar_palabra\'))\n    elif form.errors:\n     response.flash = \'El formulario tiene errores\'\n    return dict(form=form)\n    \n\n    \ndef editar_ejemplo():\n    """\n    carga el formulario para la edicion de el ejemplo, valida y redirecciona\n    """\n    record = db.ejemplos(request.args(0)) # Seleciona el registro de la DB con el primer argumentro pasado\n    form = SQLFORM(db.ejemplos, record, formstyle=\'divs\', _class=\'form-inline wellparley\', _id=\'form-editar-ejemplo\')\n    if form.accepts(request.vars):\n       session.flash=\'Ejemplo editado\' \n       redirect(URL(\'agregar_ejemplo\'))\n    elif form.errors:\n       response.flash = \'El formulario tiene errores\'\n    return dict(form=form)\n    \ndef editar_fuente():\n    """\n    carga el formulario para la edicion de el ejemplo, valida y redirecciona\n    """\n    record = db.fuentes(request.args(0)) # Seleciona el registro de la DB con el primer argumentro pasado\n    form = SQLFORM(db.fuentes, record, formstyle=\'divs\', _class=\'form-inline wellparley\', _id=\'form-editar-fuente\')\n    if form.accepts(request.vars):\n       session.flash=\'Fuente editada\' \n       redirect(URL(\'agregar_fuente\'))\n    elif form.errors:\n       response.flash = \'form has errors\'\n    return dict(form=form)\n    \ndef relacionar_ejemplo():\n    """\n    Recibe el id de la palabra para guardarlo en\n    DB junto al ejemplo a relacionar, quiere decir que tengo que cargar el un formulario\n    con los campos de la tabla ejemplo, meter las id en variables y luego guardarlas en las tablas\n    correspondiente\n    """\n    id_palabra = request.args(0) # Mete en una variable el valor de request.args(0), no es necesario\n    palabra = db(db.palabras.id==id_palabra).select().first() # selecciona el primer registro que se igual al id de la palabra\n    form = SQLFORM(db.ejemplos, labels={\'ejemplo_de\':\'\', \'ejemplo_es\':\'\'}) # para ingresar en la db debe tener el metodo form.accepts\n    if form.accepts(request.vars, session):\n        id_ejemplo = db(db.ejemplos.ejemplo_de==request.vars.ejemplo_de).select().first() # mete la consulta en una variable\n        db.palabra_ejemplo.insert(palabra=id_palabra, ejemplo=id_ejemplo.id) # inserta en la DB los id de los registro selecionados, estos es para las relaciones muchos a muschos\n        session.flash = \'Ejemplo Relacionado\'\n        redirect(URL(\'agregar_palabra\'))\n    elif form.errors:\n        response.flash = \'Mira otra vez\'\n    return dict(palabra=palabra, form=form,)\n    \ndef relacionar_palabra(): #Redisenar \n    """\n    Recibe el id de el ejemplo para guardarlo en\n    DB junto a la palabra a relacionar, quiere decir que tengo que cargar el un formulario\n    con los campos de la tabla palabra, meter las id en variables y luego guardarlas en las tablas\n    correspondiente *********importante cuando se relacione la palabra hay que traer todos los campos de ingresar palabra cuando la palabra no se encuentra en DB\n    *********** redisenar no sirve este codigo\n    """\n    id_ejemplo = request.args(0)\n    #form=FORM(\'Palabra:\',\n              #INPUT(_name=\'palabra\', requires=IS_NOT_EMPTY()),\n              #INPUT(_type=\'submit\'))\n    ejemplo = db(db.ejemplos.id==id_ejemplo).select().first()\n    form = SQLFORM(db.autocompletar_palabra, _autocomplete="off")\n    if form.accepts(request.vars, session, dbio=False):\n        consulta = db(db.palabras.palabra==request.vars.palabra).select().first() # se busca si la palabra ya esta en la DB\n        #igualar = db((db.palabras.id==db.palabra_ejemplo.palabra)&(db.ejemplos.id==db.palabra_ejemplo.ejemplo))\n        #selecionar = igualar(db.palabras.palabra==request.vars.palabra).select(db.palabra_ejemplo.ALL)\n        #consulta = selecionar\n        if consulta: # si la palabra esta ya en la db, solo hay que ingresar ambos id de la palabra y el ejemplo en la tabla palabra_ejemplo\n            consulta_id_palabra = db((db.palabra_ejemplo.palabra==consulta.id)&(db.palabra_ejemplo.ejemplo==request.args(0))).select().first() # consulta si el id de la palabra ya se encuentra en la db\n            if consulta_id_palabra:\n                session.flash="Palabra ya relacionada con el ejemplo"\n                redirect(URL(\'admin\', \'agregar_ejemplo\'))\n            else:\n                db.palabra_ejemplo.insert(palabra=consulta.id, ejemplo=request.args(0))\n                session.flash = \'Palabra relacionada\'\n                redirect(URL(\'admin\', \'agregar_ejemplo\'))\n        else:\n            db.palabras.insert(palabra=request.vars.palabra)\n            ultimo_registro = db(db.palabras.id > 0).select().last()\n            db.palabra_ejemplo.insert(palabra=ultimo_registro.id, ejemplo=request.args(0))\n            session.flash = \'Palabra relacionada y agregada\'\n            redirect(URL(\'admin\', \'agregar_ejemplo\'))\n            \n    elif form.errors:\n        response.flash = \'Mira otra vez\'\n    return dict(ejemplo=ejemplo, form=form)    \n    \ndef relacionar():\n    for i in request.post_vars.relacionar:\n        db.palabra_ejemplo.insert(palabra=request.post_vars.id_palabra, ejemplo=i)\n    tabla = crud.select(db.palabra_ejemplo)\n    return dict(tabla=tabla)\n    \n   \n    \n    \n    \n    \n    \n    \n    \n    \n    \n    \n    \n    \n    \n    \n    \n\nresponse._vars=response._caller(relacionar_palabra)\n'
p7
sS'snapshot'
p8
(dp9
S'exception'
p10
(dp11
S'__hash__'
p12
S"<method-wrapper '__hash__' of exceptions.TypeError object at 0x03353058>"
p13
sS'__setattr__'
p14
S"<method-wrapper '__setattr__' of exceptions.TypeError object at 0x03353058>"
p15
sS'__reduce_ex__'
p16
S'<built-in method __reduce_ex__ of exceptions.TypeError object at 0x03353058>'
p17
sS'__getslice__'
p18
S"<method-wrapper '__getslice__' of exceptions.TypeError object at 0x03353058>"
p19
sS'__getitem__'
p20
S"<method-wrapper '__getitem__' of exceptions.TypeError object at 0x03353058>"
p21
sS'__setstate__'
p22
S'<built-in method __setstate__ of exceptions.TypeError object at 0x03353058>'
p23
sS'__reduce__'
p24
S'<built-in method __reduce__ of exceptions.TypeError object at 0x03353058>'
p25
sS'__str__'
p26
S"<method-wrapper '__str__' of exceptions.TypeError object at 0x03353058>"
p27
sS'args'
p28
S'("\'NoneType\' object is not callable",)'
p29
sS'__getattribute__'
p30
S"<method-wrapper '__getattribute__' of exceptions.TypeError object at 0x03353058>"
p31
sS'__class__'
p32
S"<type 'exceptions.TypeError'>"
p33
sS'__delattr__'
p34
S"<method-wrapper '__delattr__' of exceptions.TypeError object at 0x03353058>"
p35
sS'__repr__'
p36
S"<method-wrapper '__repr__' of exceptions.TypeError object at 0x03353058>"
p37
sS'__dict__'
p38
S'{}'
p39
sS'__doc__'
p40
S"'Inappropriate argument type.'"
p41
sS'__init__'
p42
S"<method-wrapper '__init__' of exceptions.TypeError object at 0x03353058>"
p43
sS'__new__'
p44
S'<built-in method __new__ of type object at 0x1E1CCD78>'
p45
ssS'evalue'
p46
S"'NoneType' object is not callable"
p47
sS'request'
p48
ccopy_reg
_reconstructor
p49
(cgluon.html
BEAUTIFY
p50
c__builtin__
object
p51
NtRp52
(dp53
S'attributes'
p54
(dp55
sS'components'
p56
(lp57
g49
(cgluon.html
TABLE
p58
g51
NtRp59
(dp60
g54
(dp61
S'level'
p62
I5
ssS'parent'
p63
Nsg56
(lp64
g49
(cgluon.html
TR
p65
g51
NtRp66
(dp67
g54
(dp68
sg63
g59
sg56
(lp69
g49
(cgluon.html
TD
p70
g51
NtRp71
(dp72
g54
(dp73
S'_style'
p74
S'font-weight:bold;vertical-align:top'
p75
ssg63
g66
sg56
(lp76
S'ajax'
p77
asbag49
(g70
g51
NtRp78
(dp79
g54
(dp80
S'_valign'
p81
S'top'
p82
ssg63
g66
sg56
(lp83
S':'
asbag49
(g70
g51
NtRp84
(dp85
g54
(dp86
sg63
g66
sg56
(lp87
g49
(g50
g51
NtRp88
(dp89
g54
(dp90
g62
I5
ssg63
g84
sg56
(lp91
S'False'
p92
asbasbasbag49
(g65
g51
NtRp93
(dp94
g54
(dp95
sg63
g59
sg56
(lp96
g49
(g70
g51
NtRp97
(dp98
g54
(dp99
g74
g75
ssg63
g93
sg56
(lp100
S'application'
p101
asbag49
(g70
g51
NtRp102
(dp103
g54
(dp104
g81
g82
ssg63
g93
sg56
(lp105
S':'
asbag49
(g70
g51
NtRp106
(dp107
g54
(dp108
sg63
g93
sg56
(lp109
g49
(g50
g51
NtRp110
(dp111
g54
(dp112
g62
I5
ssg63
g106
sg56
(lp113
S'parleyweb'
p114
asbasbasbag49
(g65
g51
NtRp115
(dp116
g54
(dp117
sg63
g59
sg56
(lp118
g49
(g70
g51
NtRp119
(dp120
g54
(dp121
g74
g75
ssg63
g115
sg56
(lp122
S'body'
p123
asbag49
(g70
g51
NtRp124
(dp125
g54
(dp126
g81
g82
ssg63
g115
sg56
(lp127
S':'
asbag49
(g70
g51
NtRp128
(dp129
g54
(dp130
sg63
g115
sg56
(lp131
g49
(g50
g51
NtRp132
(dp133
g54
(dp134
g62
I5
ssg63
g128
sg56
(lp135
S'<cStringIO.StringO object at 0x074550C0>'
p136
asbasbasbag49
(g65
g51
NtRp137
(dp138
g54
(dp139
sg63
g59
sg56
(lp140
g49
(g70
g51
NtRp141
(dp142
g54
(dp143
g74
g75
ssg63
g137
sg56
(lp144
S'client'
p145
asbag49
(g70
g51
NtRp146
(dp147
g54
(dp148
g81
g82
ssg63
g137
sg56
(lp149
S':'
asbag49
(g70
g51
NtRp150
(dp151
g54
(dp152
sg63
g137
sg56
(lp153
g49
(g50
g51
NtRp154
(dp155
g54
(dp156
g62
I5
ssg63
g150
sg56
(lp157
S'127.0.0.1'
p158
asbasbasbag49
(g65
g51
NtRp159
(dp160
g54
(dp161
sg63
g59
sg56
(lp162
g49
(g70
g51
NtRp163
(dp164
g54
(dp165
g74
g75
ssg63
g159
sg56
(lp166
S'controller'
p167
asbag49
(g70
g51
NtRp168
(dp169
g54
(dp170
g81
g82
ssg63
g159
sg56
(lp171
S':'
asbag49
(g70
g51
NtRp172
(dp173
g54
(dp174
sg63
g159
sg56
(lp175
g49
(g50
g51
NtRp176
(dp177
g54
(dp178
g62
I5
ssg63
g172
sg56
(lp179
S'admin'
p180
asbasbasbag49
(g65
g51
NtRp181
(dp182
g54
(dp183
sg63
g59
sg56
(lp184
g49
(g70
g51
NtRp185
(dp186
g54
(dp187
g74
g75
ssg63
g181
sg56
(lp188
S'cookies'
p189
asbag49
(g70
g51
NtRp190
(dp191
g54
(dp192
g81
g82
ssg63
g181
sg56
(lp193
S':'
asbag49
(g70
g51
NtRp194
(dp195
g54
(dp196
sg63
g181
sg56
(lp197
g49
(g50
g51
NtRp198
(dp199
g54
(dp200
g62
I5
ssg63
g194
sg56
(lp201
g49
(g58
g51
NtRp202
(dp203
g54
(dp204
g62
I4
ssg63
Nsg56
(lp205
g49
(g65
g51
NtRp206
(dp207
g54
(dp208
sg63
g202
sg56
(lp209
g49
(g70
g51
NtRp210
(dp211
g54
(dp212
g74
g75
ssg63
g206
sg56
(lp213
S'session_id_admin'
p214
asbag49
(g70
g51
NtRp215
(dp216
g54
(dp217
g81
g82
ssg63
g206
sg56
(lp218
S':'
asbag49
(g70
g51
NtRp219
(dp220
g54
(dp221
sg63
g206
sg56
(lp222
g49
(g50
g51
NtRp223
(dp224
g54
(dp225
g62
I4
ssg63
g219
sg56
(lp226
g49
(g58
g51
NtRp227
(dp228
g54
(dp229
g62
I3
ssg63
Nsg56
(lp230
g49
(g65
g51
NtRp231
(dp232
g54
(dp233
sg63
g227
sg56
(lp234
g49
(g70
g51
NtRp235
(dp236
g54
(dp237
g74
g75
ssg63
g231
sg56
(lp238
S'comment'
p239
asbag49
(g70
g51
NtRp240
(dp241
g54
(dp242
g81
g82
ssg63
g231
sg56
(lp243
S':'
asbag49
(g70
g51
NtRp244
(dp245
g54
(dp246
sg63
g231
sg56
(lp247
g49
(g50
g51
NtRp248
(dp249
g54
(dp250
g62
I3
ssg63
g244
sg56
(lp251
S''
asbasbasbag49
(g65
g51
NtRp252
(dp253
g54
(dp254
sg63
g227
sg56
(lp255
g49
(g70
g51
NtRp256
(dp257
g54
(dp258
g74
g75
ssg63
g252
sg56
(lp259
S'domain'
p260
asbag49
(g70
g51
NtRp261
(dp262
g54
(dp263
g81
g82
ssg63
g252
sg56
(lp264
S':'
asbag49
(g70
g51
NtRp265
(dp266
g54
(dp267
sg63
g252
sg56
(lp268
g49
(g50
g51
NtRp269
(dp270
g54
(dp271
g62
I3
ssg63
g265
sg56
(lp272
S''
asbasbasbag49
(g65
g51
NtRp273
(dp274
g54
(dp275
sg63
g227
sg56
(lp276
g49
(g70
g51
NtRp277
(dp278
g54
(dp279
g74
g75
ssg63
g273
sg56
(lp280
S'expires'
p281
asbag49
(g70
g51
NtRp282
(dp283
g54
(dp284
g81
g82
ssg63
g273
sg56
(lp285
S':'
asbag49
(g70
g51
NtRp286
(dp287
g54
(dp288
sg63
g273
sg56
(lp289
g49
(g50
g51
NtRp290
(dp291
g54
(dp292
g62
I3
ssg63
g286
sg56
(lp293
S''
asbasbasbag49
(g65
g51
NtRp294
(dp295
g54
(dp296
sg63
g227
sg56
(lp297
g49
(g70
g51
NtRp298
(dp299
g54
(dp300
g74
g75
ssg63
g294
sg56
(lp301
S'max-age'
p302
asbag49
(g70
g51
NtRp303
(dp304
g54
(dp305
g81
g82
ssg63
g294
sg56
(lp306
S':'
asbag49
(g70
g51
NtRp307
(dp308
g54
(dp309
sg63
g294
sg56
(lp310
g49
(g50
g51
NtRp311
(dp312
g54
(dp313
g62
I3
ssg63
g307
sg56
(lp314
S''
asbasbasbag49
(g65
g51
NtRp315
(dp316
g54
(dp317
sg63
g227
sg56
(lp318
g49
(g70
g51
NtRp319
(dp320
g54
(dp321
g74
g75
ssg63
g315
sg56
(lp322
S'path'
p323
asbag49
(g70
g51
NtRp324
(dp325
g54
(dp326
g81
g82
ssg63
g315
sg56
(lp327
S':'
asbag49
(g70
g51
NtRp328
(dp329
g54
(dp330
sg63
g315
sg56
(lp331
g49
(g50
g51
NtRp332
(dp333
g54
(dp334
g62
I3
ssg63
g328
sg56
(lp335
S''
asbasbasbag49
(g65
g51
NtRp336
(dp337
g54
(dp338
sg63
g227
sg56
(lp339
g49
(g70
g51
NtRp340
(dp341
g54
(dp342
g74
g75
ssg63
g336
sg56
(lp343
S'secure'
p344
asbag49
(g70
g51
NtRp345
(dp346
g54
(dp347
g81
g82
ssg63
g336
sg56
(lp348
S':'
asbag49
(g70
g51
NtRp349
(dp350
g54
(dp351
sg63
g336
sg56
(lp352
g49
(g50
g51
NtRp353
(dp354
g54
(dp355
g62
I3
ssg63
g349
sg56
(lp356
S''
asbasbasbag49
(g65
g51
NtRp357
(dp358
g54
(dp359
sg63
g227
sg56
(lp360
g49
(g70
g51
NtRp361
(dp362
g54
(dp363
g74
g75
ssg63
g357
sg56
(lp364
S'version'
p365
asbag49
(g70
g51
NtRp366
(dp367
g54
(dp368
g81
g82
ssg63
g357
sg56
(lp369
S':'
asbag49
(g70
g51
NtRp370
(dp371
g54
(dp372
sg63
g357
sg56
(lp373
g49
(g50
g51
NtRp374
(dp375
g54
(dp376
g62
I3
ssg63
g370
sg56
(lp377
S''
asbasbasbasbasbasbasbag49
(g65
g51
NtRp378
(dp379
g54
(dp380
sg63
g202
sg56
(lp381
g49
(g70
g51
NtRp382
(dp383
g54
(dp384
g74
g75
ssg63
g378
sg56
(lp385
S'session_id_parleyweb'
p386
asbag49
(g70
g51
NtRp387
(dp388
g54
(dp389
g81
g82
ssg63
g378
sg56
(lp390
S':'
asbag49
(g70
g51
NtRp391
(dp392
g54
(dp393
sg63
g378
sg56
(lp394
g49
(g50
g51
NtRp395
(dp396
g54
(dp397
g62
I4
ssg63
g391
sg56
(lp398
g49
(g58
g51
NtRp399
(dp400
g54
(dp401
g62
I3
ssg63
Nsg56
(lp402
g49
(g65
g51
NtRp403
(dp404
g54
(dp405
sg63
g399
sg56
(lp406
g49
(g70
g51
NtRp407
(dp408
g54
(dp409
g74
g75
ssg63
g403
sg56
(lp410
g239
asbag49
(g70
g51
NtRp411
(dp412
g54
(dp413
g81
g82
ssg63
g403
sg56
(lp414
S':'
asbag49
(g70
g51
NtRp415
(dp416
g54
(dp417
sg63
g403
sg56
(lp418
g49
(g50
g51
NtRp419
(dp420
g54
(dp421
g62
I3
ssg63
g415
sg56
(lp422
S''
asbasbasbag49
(g65
g51
NtRp423
(dp424
g54
(dp425
sg63
g399
sg56
(lp426
g49
(g70
g51
NtRp427
(dp428
g54
(dp429
g74
g75
ssg63
g423
sg56
(lp430
g260
asbag49
(g70
g51
NtRp431
(dp432
g54
(dp433
g81
g82
ssg63
g423
sg56
(lp434
S':'
asbag49
(g70
g51
NtRp435
(dp436
g54
(dp437
sg63
g423
sg56
(lp438
g49
(g50
g51
NtRp439
(dp440
g54
(dp441
g62
I3
ssg63
g435
sg56
(lp442
S''
asbasbasbag49
(g65
g51
NtRp443
(dp444
g54
(dp445
sg63
g399
sg56
(lp446
g49
(g70
g51
NtRp447
(dp448
g54
(dp449
g74
g75
ssg63
g443
sg56
(lp450
g281
asbag49
(g70
g51
NtRp451
(dp452
g54
(dp453
g81
g82
ssg63
g443
sg56
(lp454
S':'
asbag49
(g70
g51
NtRp455
(dp456
g54
(dp457
sg63
g443
sg56
(lp458
g49
(g50
g51
NtRp459
(dp460
g54
(dp461
g62
I3
ssg63
g455
sg56
(lp462
S''
asbasbasbag49
(g65
g51
NtRp463
(dp464
g54
(dp465
sg63
g399
sg56
(lp466
g49
(g70
g51
NtRp467
(dp468
g54
(dp469
g74
g75
ssg63
g463
sg56
(lp470
g302
asbag49
(g70
g51
NtRp471
(dp472
g54
(dp473
g81
g82
ssg63
g463
sg56
(lp474
S':'
asbag49
(g70
g51
NtRp475
(dp476
g54
(dp477
sg63
g463
sg56
(lp478
g49
(g50
g51
NtRp479
(dp480
g54
(dp481
g62
I3
ssg63
g475
sg56
(lp482
S''
asbasbasbag49
(g65
g51
NtRp483
(dp484
g54
(dp485
sg63
g399
sg56
(lp486
g49
(g70
g51
NtRp487
(dp488
g54
(dp489
g74
g75
ssg63
g483
sg56
(lp490
g323
asbag49
(g70
g51
NtRp491
(dp492
g54
(dp493
g81
g82
ssg63
g483
sg56
(lp494
S':'
asbag49
(g70
g51
NtRp495
(dp496
g54
(dp497
sg63
g483
sg56
(lp498
g49
(g50
g51
NtRp499
(dp500
g54
(dp501
g62
I3
ssg63
g495
sg56
(lp502
S''
asbasbasbag49
(g65
g51
NtRp503
(dp504
g54
(dp505
sg63
g399
sg56
(lp506
g49
(g70
g51
NtRp507
(dp508
g54
(dp509
g74
g75
ssg63
g503
sg56
(lp510
g344
asbag49
(g70
g51
NtRp511
(dp512
g54
(dp513
g81
g82
ssg63
g503
sg56
(lp514
S':'
asbag49
(g70
g51
NtRp515
(dp516
g54
(dp517
sg63
g503
sg56
(lp518
g49
(g50
g51
NtRp519
(dp520
g54
(dp521
g62
I3
ssg63
g515
sg56
(lp522
S''
asbasbasbag49
(g65
g51
NtRp523
(dp524
g54
(dp525
sg63
g399
sg56
(lp526
g49
(g70
g51
NtRp527
(dp528
g54
(dp529
g74
g75
ssg63
g523
sg56
(lp530
g365
asbag49
(g70
g51
NtRp531
(dp532
g54
(dp533
g81
g82
ssg63
g523
sg56
(lp534
S':'
asbag49
(g70
g51
NtRp535
(dp536
g54
(dp537
sg63
g523
sg56
(lp538
g49
(g50
g51
NtRp539
(dp540
g54
(dp541
g62
I3
ssg63
g535
sg56
(lp542
S''
asbasbasbasbasbasbasbasbasbasbasbag49
(g65
g51
NtRp543
(dp544
g54
(dp545
sg63
g59
sg56
(lp546
g49
(g70
g51
NtRp547
(dp548
g54
(dp549
g74
g75
ssg63
g543
sg56
(lp550
S'env'
p551
asbag49
(g70
g51
NtRp552
(dp553
g54
(dp554
g81
g82
ssg63
g543
sg56
(lp555
S':'
asbag49
(g70
g51
NtRp556
(dp557
g54
(dp558
sg63
g543
sg56
(lp559
g49
(g50
g51
NtRp560
(dp561
g54
(dp562
g62
I5
ssg63
g556
sg56
(lp563
g49
(g58
g51
NtRp564
(dp565
g54
(dp566
g62
I4
ssg63
Nsg56
(lp567
g49
(g65
g51
NtRp568
(dp569
g54
(dp570
sg63
g564
sg56
(lp571
g49
(g70
g51
NtRp572
(dp573
g54
(dp574
g74
g75
ssg63
g568
sg56
(lp575
S'app_folders'
p576
asbag49
(g70
g51
NtRp577
(dp578
g54
(dp579
g81
g82
ssg63
g568
sg56
(lp580
S':'
asbag49
(g70
g51
NtRp581
(dp582
g54
(dp583
sg63
g568
sg56
(lp584
g49
(g50
g51
NtRp585
(dp586
g54
(dp587
g62
I4
ssg63
g581
sg56
(lp588
S"set(['D:\\\\Dise\\xf1o Web\\\\Proyectos\\\\Parleyweb\\\\web2py\\\\applications\\\\parleyweb\\\\', 'D:\\\\Dise\\xf1o Web\\\\Proyectos\\\\Parleyweb\\\\web2py\\\\applications\\\\admin\\\\'])"
p589
asbasbasbag49
(g65
g51
NtRp590
(dp591
g54
(dp592
sg63
g564
sg56
(lp593
g49
(g70
g51
NtRp594
(dp595
g54
(dp596
g74
g75
ssg63
g590
sg56
(lp597
S'applications_parent'
p598
asbag49
(g70
g51
NtRp599
(dp600
g54
(dp601
g81
g82
ssg63
g590
sg56
(lp602
S':'
asbag49
(g70
g51
NtRp603
(dp604
g54
(dp605
sg63
g590
sg56
(lp606
g49
(g50
g51
NtRp607
(dp608
g54
(dp609
g62
I4
ssg63
g603
sg56
(lp610
S'D:\\Dise\xf1o Web\\Proyectos\\Parleyweb\\web2py'
p611
asbasbasbag49
(g65
g51
NtRp612
(dp613
g54
(dp614
sg63
g564
sg56
(lp615
g49
(g70
g51
NtRp616
(dp617
g54
(dp618
g74
g75
ssg63
g612
sg56
(lp619
S'cmd_args'
p620
asbag49
(g70
g51
NtRp621
(dp622
g54
(dp623
g81
g82
ssg63
g612
sg56
(lp624
S':'
asbag49
(g70
g51
NtRp625
(dp626
g54
(dp627
sg63
g612
sg56
(lp628
g49
(g50
g51
NtRp629
(dp630
g54
(dp631
g62
I4
ssg63
g625
sg56
(lp632
g49
(g58
g51
NtRp633
(dp634
g54
(dp635
g62
I3
ssg63
Nsg56
(lp636
sbasbasbasbag49
(g65
g51
NtRp637
(dp638
g54
(dp639
sg63
g564
sg56
(lp640
g49
(g70
g51
NtRp641
(dp642
g54
(dp643
g74
g75
ssg63
g637
sg56
(lp644
S'cmd_options'
p645
asbag49
(g70
g51
NtRp646
(dp647
g54
(dp648
g81
g82
ssg63
g637
sg56
(lp649
S':'
asbag49
(g70
g51
NtRp650
(dp651
g54
(dp652
sg63
g637
sg56
(lp653
g49
(g50
g51
NtRp654
(dp655
g54
(dp656
g62
I4
ssg63
g650
sg56
(lp657
S"<Values at 0x3185238: {'verbose': False, 'ip': '127.0.0.1', 'shutdown_timeout': 5, 'taskbar': False, 'nocron': False, 'pid_filename': 'httpserver.pid', 'maxthreads': None, 'softcron': False, 'server_name': 'craxsnet-PC', 'bpython': False, 'nogui': False, 'port': 8000, 'extcron': False, 'debuglevel': 30, 'test': None, 'folder': 'D:\\\\Dise\\xf1o Web\\\\Proyectos\\\\Parleyweb\\\\web2py', 'config': '', 'import_models': False, 'winservice': '', 'shell': None, 'run': '', 'log_filename': 'httpserver.log', 'args': [''], 'socket_timeout': 5, 'ssl_ca_certificate': None, 'scheduler': None, 'profiler_filename': None, 'ssl_private_key': '', 'password': '<ask>', 'request_queue_size': 5, 'ssl_certificate': '', 'cronjob': False, 'numthreads': None, 'quiet': False, 'interfaces': None, 'minthreads': None, 'timeout': 10, 'plain': False, 'nobanner': False}>"
p658
asbasbasbag49
(g65
g51
NtRp659
(dp660
g54
(dp661
sg63
g564
sg56
(lp662
g49
(g70
g51
NtRp663
(dp664
g54
(dp665
g74
g75
ssg63
g659
sg56
(lp666
S'db_sessions'
p667
asbag49
(g70
g51
NtRp668
(dp669
g54
(dp670
g81
g82
ssg63
g659
sg56
(lp671
S':'
asbag49
(g70
g51
NtRp672
(dp673
g54
(dp674
sg63
g659
sg56
(lp675
g49
(g50
g51
NtRp676
(dp677
g54
(dp678
g62
I4
ssg63
g672
sg56
(lp679
S'set([])'
p680
asbasbasbag49
(g65
g51
NtRp681
(dp682
g54
(dp683
sg63
g564
sg56
(lp684
g49
(g70
g51
NtRp685
(dp686
g54
(dp687
g74
g75
ssg63
g681
sg56
(lp688
S'debugging'
p689
asbag49
(g70
g51
NtRp690
(dp691
g54
(dp692
g81
g82
ssg63
g681
sg56
(lp693
S':'
asbag49
(g70
g51
NtRp694
(dp695
g54
(dp696
sg63
g681
sg56
(lp697
g49
(g50
g51
NtRp698
(dp699
g54
(dp700
g62
I4
ssg63
g694
sg56
(lp701
g92
asbasbasbag49
(g65
g51
NtRp702
(dp703
g54
(dp704
sg63
g564
sg56
(lp705
g49
(g70
g51
NtRp706
(dp707
g54
(dp708
g74
g75
ssg63
g702
sg56
(lp709
S'gluon_parent'
p710
asbag49
(g70
g51
NtRp711
(dp712
g54
(dp713
g81
g82
ssg63
g702
sg56
(lp714
S':'
asbag49
(g70
g51
NtRp715
(dp716
g54
(dp717
sg63
g702
sg56
(lp718
g49
(g50
g51
NtRp719
(dp720
g54
(dp721
g62
I4
ssg63
g715
sg56
(lp722
S'D:\\Dise\xf1o Web\\Proyectos\\Parleyweb\\web2py'
p723
asbasbasbag49
(g65
g51
NtRp724
(dp725
g54
(dp726
sg63
g564
sg56
(lp727
g49
(g70
g51
NtRp728
(dp729
g54
(dp730
g74
g75
ssg63
g724
sg56
(lp731
S'http_accept'
p732
asbag49
(g70
g51
NtRp733
(dp734
g54
(dp735
g81
g82
ssg63
g724
sg56
(lp736
S':'
asbag49
(g70
g51
NtRp737
(dp738
g54
(dp739
sg63
g724
sg56
(lp740
g49
(g50
g51
NtRp741
(dp742
g54
(dp743
g62
I4
ssg63
g737
sg56
(lp744
S'text/html,application/xhtml+xml,application/xml;q=0.9,*/*;q=0.8'
p745
asbasbasbag49
(g65
g51
NtRp746
(dp747
g54
(dp748
sg63
g564
sg56
(lp749
g49
(g70
g51
NtRp750
(dp751
g54
(dp752
g74
g75
ssg63
g746
sg56
(lp753
S'http_accept_encoding'
p754
asbag49
(g70
g51
NtRp755
(dp756
g54
(dp757
g81
g82
ssg63
g746
sg56
(lp758
S':'
asbag49
(g70
g51
NtRp759
(dp760
g54
(dp761
sg63
g746
sg56
(lp762
g49
(g50
g51
NtRp763
(dp764
g54
(dp765
g62
I4
ssg63
g759
sg56
(lp766
S'gzip, deflate'
p767
asbasbasbag49
(g65
g51
NtRp768
(dp769
g54
(dp770
sg63
g564
sg56
(lp771
g49
(g70
g51
NtRp772
(dp773
g54
(dp774
g74
g75
ssg63
g768
sg56
(lp775
S'http_accept_language'
p776
asbag49
(g70
g51
NtRp777
(dp778
g54
(dp779
g81
g82
ssg63
g768
sg56
(lp780
S':'
asbag49
(g70
g51
NtRp781
(dp782
g54
(dp783
sg63
g768
sg56
(lp784
g49
(g50
g51
NtRp785
(dp786
g54
(dp787
g62
I4
ssg63
g781
sg56
(lp788
S'es-es,de-de;q=0.8,es;q=0.6,en-us;q=0.4,en;q=0.2'
p789
asbasbasbag49
(g65
g51
NtRp790
(dp791
g54
(dp792
sg63
g564
sg56
(lp793
g49
(g70
g51
NtRp794
(dp795
g54
(dp796
g74
g75
ssg63
g790
sg56
(lp797
S'http_connection'
p798
asbag49
(g70
g51
NtRp799
(dp800
g54
(dp801
g81
g82
ssg63
g790
sg56
(lp802
S':'
asbag49
(g70
g51
NtRp803
(dp804
g54
(dp805
sg63
g790
sg56
(lp806
g49
(g50
g51
NtRp807
(dp808
g54
(dp809
g62
I4
ssg63
g803
sg56
(lp810
S'keep-alive'
p811
asbasbasbag49
(g65
g51
NtRp812
(dp813
g54
(dp814
sg63
g564
sg56
(lp815
g49
(g70
g51
NtRp816
(dp817
g54
(dp818
g74
g75
ssg63
g812
sg56
(lp819
S'http_cookie'
p820
asbag49
(g70
g51
NtRp821
(dp822
g54
(dp823
g81
g82
ssg63
g812
sg56
(lp824
S':'
asbag49
(g70
g51
NtRp825
(dp826
g54
(dp827
sg63
g812
sg56
(lp828
g49
(g50
g51
NtRp829
(dp830
g54
(dp831
g62
I4
ssg63
g825
sg56
(lp832
S'__utma=96992031.26429765.1325029743.1325029743.1326549329.2; __utmz=96992031.1325029743.1.1.utmcsr=(direct)|utmccn=(direct)|utmcmd=(none); session_id_parleyweb=127.0.0.1-8bc0d624-a7ac-4822-aaf0-ed4b06ce8341; session_id_admin=127.0.0.1-fca687a4-73c3-45ca-8b8b-3788208a9c53'
p833
asbasbasbag49
(g65
g51
NtRp834
(dp835
g54
(dp836
sg63
g564
sg56
(lp837
g49
(g70
g51
NtRp838
(dp839
g54
(dp840
g74
g75
ssg63
g834
sg56
(lp841
S'http_host'
p842
asbag49
(g70
g51
NtRp843
(dp844
g54
(dp845
g81
g82
ssg63
g834
sg56
(lp846
S':'
asbag49
(g70
g51
NtRp847
(dp848
g54
(dp849
sg63
g834
sg56
(lp850
g49
(g50
g51
NtRp851
(dp852
g54
(dp853
g62
I4
ssg63
g847
sg56
(lp854
S'127.0.0.1:8000'
p855
asbasbasbag49
(g65
g51
NtRp856
(dp857
g54
(dp858
sg63
g564
sg56
(lp859
g49
(g70
g51
NtRp860
(dp861
g54
(dp862
g74
g75
ssg63
g856
sg56
(lp863
S'http_user_agent'
p864
asbag49
(g70
g51
NtRp865
(dp866
g54
(dp867
g81
g82
ssg63
g856
sg56
(lp868
S':'
asbag49
(g70
g51
NtRp869
(dp870
g54
(dp871
sg63
g856
sg56
(lp872
g49
(g50
g51
NtRp873
(dp874
g54
(dp875
g62
I4
ssg63
g869
sg56
(lp876
S'Mozilla/5.0 (Windows NT 6.1; WOW64; rv:10.0.2) Gecko/20100101 Firefox/10.0.2'
p877
asbasbasbag49
(g65
g51
NtRp878
(dp879
g54
(dp880
sg63
g564
sg56
(lp881
g49
(g70
g51
NtRp882
(dp883
g54
(dp884
g74
g75
ssg63
g878
sg56
(lp885
S'is_jython'
p886
asbag49
(g70
g51
NtRp887
(dp888
g54
(dp889
g81
g82
ssg63
g878
sg56
(lp890
S':'
asbag49
(g70
g51
NtRp891
(dp892
g54
(dp893
sg63
g878
sg56
(lp894
g49
(g50
g51
NtRp895
(dp896
g54
(dp897
g62
I4
ssg63
g891
sg56
(lp898
g92
asbasbasbag49
(g65
g51
NtRp899
(dp900
g54
(dp901
sg63
g564
sg56
(lp902
g49
(g70
g51
NtRp903
(dp904
g54
(dp905
g74
g75
ssg63
g899
sg56
(lp906
S'is_pypy'
p907
asbag49
(g70
g51
NtRp908
(dp909
g54
(dp910
g81
g82
ssg63
g899
sg56
(lp911
S':'
asbag49
(g70
g51
NtRp912
(dp913
g54
(dp914
sg63
g899
sg56
(lp915
g49
(g50
g51
NtRp916
(dp917
g54
(dp918
g62
I4
ssg63
g912
sg56
(lp919
g92
asbasbasbag49
(g65
g51
NtRp920
(dp921
g54
(dp922
sg63
g564
sg56
(lp923
g49
(g70
g51
NtRp924
(dp925
g54
(dp926
g74
g75
ssg63
g920
sg56
(lp927
S'path_info'
p928
asbag49
(g70
g51
NtRp929
(dp930
g54
(dp931
g81
g82
ssg63
g920
sg56
(lp932
S':'
asbag49
(g70
g51
NtRp933
(dp934
g54
(dp935
sg63
g920
sg56
(lp936
g49
(g50
g51
NtRp937
(dp938
g54
(dp939
g62
I4
ssg63
g933
sg56
(lp940
S'/parleyweb/admin/relacionar_palabra'
p941
asbasbasbag49
(g65
g51
NtRp942
(dp943
g54
(dp944
sg63
g564
sg56
(lp945
g49
(g70
g51
NtRp946
(dp947
g54
(dp948
g74
g75
ssg63
g942
sg56
(lp949
S'query_string'
p950
asbag49
(g70
g51
NtRp951
(dp952
g54
(dp953
g81
g82
ssg63
g942
sg56
(lp954
S':'
asbag49
(g70
g51
NtRp955
(dp956
g54
(dp957
sg63
g942
sg56
(lp958
g49
(g50
g51
NtRp959
(dp960
g54
(dp961
g62
I4
ssg63
g955
sg56
(lp962
S''
asbasbasbag49
(g65
g51
NtRp963
(dp964
g54
(dp965
sg63
g564
sg56
(lp966
g49
(g70
g51
NtRp967
(dp968
g54
(dp969
g74
g75
ssg63
g963
sg56
(lp970
S'remote_addr'
p971
asbag49
(g70
g51
NtRp972
(dp973
g54
(dp974
g81
g82
ssg63
g963
sg56
(lp975
S':'
asbag49
(g70
g51
NtRp976
(dp977
g54
(dp978
sg63
g963
sg56
(lp979
g49
(g50
g51
NtRp980
(dp981
g54
(dp982
g62
I4
ssg63
g976
sg56
(lp983
g158
asbasbasbag49
(g65
g51
NtRp984
(dp985
g54
(dp986
sg63
g564
sg56
(lp987
g49
(g70
g51
NtRp988
(dp989
g54
(dp990
g74
g75
ssg63
g984
sg56
(lp991
S'remote_port'
p992
asbag49
(g70
g51
NtRp993
(dp994
g54
(dp995
g81
g82
ssg63
g984
sg56
(lp996
S':'
asbag49
(g70
g51
NtRp997
(dp998
g54
(dp999
sg63
g984
sg56
(lp1000
g49
(g50
g51
NtRp1001
(dp1002
g54
(dp1003
g62
I4
ssg63
g997
sg56
(lp1004
S'49891'
p1005
asbasbasbag49
(g65
g51
NtRp1006
(dp1007
g54
(dp1008
sg63
g564
sg56
(lp1009
g49
(g70
g51
NtRp1010
(dp1011
g54
(dp1012
g74
g75
ssg63
g1006
sg56
(lp1013
S'request_method'
p1014
asbag49
(g70
g51
NtRp1015
(dp1016
g54
(dp1017
g81
g82
ssg63
g1006
sg56
(lp1018
S':'
asbag49
(g70
g51
NtRp1019
(dp1020
g54
(dp1021
sg63
g1006
sg56
(lp1022
g49
(g50
g51
NtRp1023
(dp1024
g54
(dp1025
g62
I4
ssg63
g1019
sg56
(lp1026
S'GET'
p1027
asbasbasbag49
(g65
g51
NtRp1028
(dp1029
g54
(dp1030
sg63
g564
sg56
(lp1031
g49
(g70
g51
NtRp1032
(dp1033
g54
(dp1034
g74
g75
ssg63
g1028
sg56
(lp1035
S'request_uri'
p1036
asbag49
(g70
g51
NtRp1037
(dp1038
g54
(dp1039
g81
g82
ssg63
g1028
sg56
(lp1040
S':'
asbag49
(g70
g51
NtRp1041
(dp1042
g54
(dp1043
sg63
g1028
sg56
(lp1044
g49
(g50
g51
NtRp1045
(dp1046
g54
(dp1047
g62
I4
ssg63
g1041
sg56
(lp1048
g941
asbasbasbag49
(g65
g51
NtRp1049
(dp1050
g54
(dp1051
sg63
g564
sg56
(lp1052
g49
(g70
g51
NtRp1053
(dp1054
g54
(dp1055
g74
g75
ssg63
g1049
sg56
(lp1056
S'script_name'
p1057
asbag49
(g70
g51
NtRp1058
(dp1059
g54
(dp1060
g81
g82
ssg63
g1049
sg56
(lp1061
S':'
asbag49
(g70
g51
NtRp1062
(dp1063
g54
(dp1064
sg63
g1049
sg56
(lp1065
g49
(g50
g51
NtRp1066
(dp1067
g54
(dp1068
g62
I4
ssg63
g1062
sg56
(lp1069
S''
asbasbasbag49
(g65
g51
NtRp1070
(dp1071
g54
(dp1072
sg63
g564
sg56
(lp1073
g49
(g70
g51
NtRp1074
(dp1075
g54
(dp1076
g74
g75
ssg63
g1070
sg56
(lp1077
S'server_name'
p1078
asbag49
(g70
g51
NtRp1079
(dp1080
g54
(dp1081
g81
g82
ssg63
g1070
sg56
(lp1082
S':'
asbag49
(g70
g51
NtRp1083
(dp1084
g54
(dp1085
sg63
g1070
sg56
(lp1086
g49
(g50
g51
NtRp1087
(dp1088
g54
(dp1089
g62
I4
ssg63
g1083
sg56
(lp1090
S'craxsnet-PC'
p1091
asbasbasbag49
(g65
g51
NtRp1092
(dp1093
g54
(dp1094
sg63
g564
sg56
(lp1095
g49
(g70
g51
NtRp1096
(dp1097
g54
(dp1098
g74
g75
ssg63
g1092
sg56
(lp1099
S'server_port'
p1100
asbag49
(g70
g51
NtRp1101
(dp1102
g54
(dp1103
g81
g82
ssg63
g1092
sg56
(lp1104
S':'
asbag49
(g70
g51
NtRp1105
(dp1106
g54
(dp1107
sg63
g1092
sg56
(lp1108
g49
(g50
g51
NtRp1109
(dp1110
g54
(dp1111
g62
I4
ssg63
g1105
sg56
(lp1112
S'8000'
p1113
asbasbasbag49
(g65
g51
NtRp1114
(dp1115
g54
(dp1116
sg63
g564
sg56
(lp1117
g49
(g70
g51
NtRp1118
(dp1119
g54
(dp1120
g74
g75
ssg63
g1114
sg56
(lp1121
S'server_protocol'
p1122
asbag49
(g70
g51
NtRp1123
(dp1124
g54
(dp1125
g81
g82
ssg63
g1114
sg56
(lp1126
S':'
asbag49
(g70
g51
NtRp1127
(dp1128
g54
(dp1129
sg63
g1114
sg56
(lp1130
g49
(g50
g51
NtRp1131
(dp1132
g54
(dp1133
g62
I4
ssg63
g1127
sg56
(lp1134
S'HTTP/1.1'
p1135
asbasbasbag49
(g65
g51
NtRp1136
(dp1137
g54
(dp1138
sg63
g564
sg56
(lp1139
g49
(g70
g51
NtRp1140
(dp1141
g54
(dp1142
g74
g75
ssg63
g1136
sg56
(lp1143
S'server_software'
p1144
asbag49
(g70
g51
NtRp1145
(dp1146
g54
(dp1147
g81
g82
ssg63
g1136
sg56
(lp1148
S':'
asbag49
(g70
g51
NtRp1149
(dp1150
g54
(dp1151
sg63
g1136
sg56
(lp1152
g49
(g50
g51
NtRp1153
(dp1154
g54
(dp1155
g62
I4
ssg63
g1149
sg56
(lp1156
S'Rocket 1.2.4'
p1157
asbasbasbag49
(g65
g51
NtRp1158
(dp1159
g54
(dp1160
sg63
g564
sg56
(lp1161
g49
(g70
g51
NtRp1162
(dp1163
g54
(dp1164
g74
g75
ssg63
g1158
sg56
(lp1165
S'web2py_crontype'
p1166
asbag49
(g70
g51
NtRp1167
(dp1168
g54
(dp1169
g81
g82
ssg63
g1158
sg56
(lp1170
S':'
asbag49
(g70
g51
NtRp1171
(dp1172
g54
(dp1173
sg63
g1158
sg56
(lp1174
g49
(g50
g51
NtRp1175
(dp1176
g54
(dp1177
g62
I4
ssg63
g1171
sg56
(lp1178
S'hard'
p1179
asbasbasbag49
(g65
g51
NtRp1180
(dp1181
g54
(dp1182
sg63
g564
sg56
(lp1183
g49
(g70
g51
NtRp1184
(dp1185
g54
(dp1186
g74
g75
ssg63
g1180
sg56
(lp1187
S'web2py_original_uri'
p1188
asbag49
(g70
g51
NtRp1189
(dp1190
g54
(dp1191
g81
g82
ssg63
g1180
sg56
(lp1192
S':'
asbag49
(g70
g51
NtRp1193
(dp1194
g54
(dp1195
sg63
g1180
sg56
(lp1196
g49
(g50
g51
NtRp1197
(dp1198
g54
(dp1199
g62
I4
ssg63
g1193
sg56
(lp1200
S'/parleyweb/admin/relacionar_palabra'
p1201
asbasbasbag49
(g65
g51
NtRp1202
(dp1203
g54
(dp1204
sg63
g564
sg56
(lp1205
g49
(g70
g51
NtRp1206
(dp1207
g54
(dp1208
g74
g75
ssg63
g1202
sg56
(lp1209
S'web2py_path'
p1210
asbag49
(g70
g51
NtRp1211
(dp1212
g54
(dp1213
g81
g82
ssg63
g1202
sg56
(lp1214
S':'
asbag49
(g70
g51
NtRp1215
(dp1216
g54
(dp1217
sg63
g1202
sg56
(lp1218
g49
(g50
g51
NtRp1219
(dp1220
g54
(dp1221
g62
I4
ssg63
g1215
sg56
(lp1222
g611
asbasbasbag49
(g65
g51
NtRp1223
(dp1224
g54
(dp1225
sg63
g564
sg56
(lp1226
g49
(g70
g51
NtRp1227
(dp1228
g54
(dp1229
g74
g75
ssg63
g1223
sg56
(lp1230
S'web2py_version'
p1231
asbag49
(g70
g51
NtRp1232
(dp1233
g54
(dp1234
g81
g82
ssg63
g1223
sg56
(lp1235
S':'
asbag49
(g70
g51
NtRp1236
(dp1237
g54
(dp1238
sg63
g1223
sg56
(lp1239
g49
(g50
g51
NtRp1240
(dp1241
g54
(dp1242
g62
I4
ssg63
g1236
sg56
(lp1243
g49
(g58
g51
NtRp1244
(dp1245
g54
(dp1246
g62
I3
ssg63
Nsg56
(lp1247
g49
(g65
g51
NtRp1248
(dp1249
g54
(dp1250
sg63
g1244
sg56
(lp1251
g49
(g70
g51
NtRp1252
(dp1253
g54
(dp1254
sg63
g1248
sg56
(lp1255
g49
(g50
g51
NtRp1256
(dp1257
g54
(dp1258
g62
I3
ssg63
g1252
sg56
(lp1259
S'1'
asbasbasbag49
(g65
g51
NtRp1260
(dp1261
g54
(dp1262
sg63
g1244
sg56
(lp1263
g49
(g70
g51
NtRp1264
(dp1265
g54
(dp1266
sg63
g1260
sg56
(lp1267
g49
(g50
g51
NtRp1268
(dp1269
g54
(dp1270
g62
I3
ssg63
g1264
sg56
(lp1271
S'99'
p1272
asbasbasbag49
(g65
g51
NtRp1273
(dp1274
g54
(dp1275
sg63
g1244
sg56
(lp1276
g49
(g70
g51
NtRp1277
(dp1278
g54
(dp1279
sg63
g1273
sg56
(lp1280
g49
(g50
g51
NtRp1281
(dp1282
g54
(dp1283
g62
I3
ssg63
g1277
sg56
(lp1284
S'7'
asbasbasbag49
(g65
g51
NtRp1285
(dp1286
g54
(dp1287
sg63
g1244
sg56
(lp1288
g49
(g70
g51
NtRp1289
(dp1290
g54
(dp1291
sg63
g1285
sg56
(lp1292
g49
(g50
g51
NtRp1293
(dp1294
g54
(dp1295
g62
I3
ssg63
g1289
sg56
(lp1296
S'datetime.datetime(2012, 3, 4, 22, 12, 8)'
p1297
asbasbasbag49
(g65
g51
NtRp1298
(dp1299
g54
(dp1300
sg63
g1244
sg56
(lp1301
g49
(g70
g51
NtRp1302
(dp1303
g54
(dp1304
sg63
g1298
sg56
(lp1305
g49
(g50
g51
NtRp1306
(dp1307
g54
(dp1308
g62
I3
ssg63
g1302
sg56
(lp1309
S'stable'
p1310
asbasbasbasbasbasbasbag49
(g65
g51
NtRp1311
(dp1312
g54
(dp1313
sg63
g564
sg56
(lp1314
g49
(g70
g51
NtRp1315
(dp1316
g54
(dp1317
g74
g75
ssg63
g1311
sg56
(lp1318
S'wsgi_errors'
p1319
asbag49
(g70
g51
NtRp1320
(dp1321
g54
(dp1322
g81
g82
ssg63
g1311
sg56
(lp1323
S':'
asbag49
(g70
g51
NtRp1324
(dp1325
g54
(dp1326
sg63
g1311
sg56
(lp1327
g49
(g50
g51
NtRp1328
(dp1329
g54
(dp1330
g62
I4
ssg63
g1324
sg56
(lp1331
S"<open file '<stderr>', mode 'w' at 0x004200B0>"
p1332
asbasbasbag49
(g65
g51
NtRp1333
(dp1334
g54
(dp1335
sg63
g564
sg56
(lp1336
g49
(g70
g51
NtRp1337
(dp1338
g54
(dp1339
g74
g75
ssg63
g1333
sg56
(lp1340
S'wsgi_file_wrapper'
p1341
asbag49
(g70
g51
NtRp1342
(dp1343
g54
(dp1344
g81
g82
ssg63
g1333
sg56
(lp1345
S':'
asbag49
(g70
g51
NtRp1346
(dp1347
g54
(dp1348
sg63
g1333
sg56
(lp1349
g49
(g50
g51
NtRp1350
(dp1351
g54
(dp1352
g62
I4
ssg63
g1346
sg56
(lp1353
S'<class wsgiref.util.FileWrapper at 0x02FC6390>'
p1354
asbasbasbag49
(g65
g51
NtRp1355
(dp1356
g54
(dp1357
sg63
g564
sg56
(lp1358
g49
(g70
g51
NtRp1359
(dp1360
g54
(dp1361
g74
g75
ssg63
g1355
sg56
(lp1362
S'wsgi_input'
p1363
asbag49
(g70
g51
NtRp1364
(dp1365
g54
(dp1366
g81
g82
ssg63
g1355
sg56
(lp1367
S':'
asbag49
(g70
g51
NtRp1368
(dp1369
g54
(dp1370
sg63
g1355
sg56
(lp1371
g49
(g50
g51
NtRp1372
(dp1373
g54
(dp1374
g62
I4
ssg63
g1368
sg56
(lp1375
S'<socket._fileobject object at 0x0766BDB0>'
p1376
asbasbasbag49
(g65
g51
NtRp1377
(dp1378
g54
(dp1379
sg63
g564
sg56
(lp1380
g49
(g70
g51
NtRp1381
(dp1382
g54
(dp1383
g74
g75
ssg63
g1377
sg56
(lp1384
S'wsgi_multiprocess'
p1385
asbag49
(g70
g51
NtRp1386
(dp1387
g54
(dp1388
g81
g82
ssg63
g1377
sg56
(lp1389
S':'
asbag49
(g70
g51
NtRp1390
(dp1391
g54
(dp1392
sg63
g1377
sg56
(lp1393
g49
(g50
g51
NtRp1394
(dp1395
g54
(dp1396
g62
I4
ssg63
g1390
sg56
(lp1397
g92
asbasbasbag49
(g65
g51
NtRp1398
(dp1399
g54
(dp1400
sg63
g564
sg56
(lp1401
g49
(g70
g51
NtRp1402
(dp1403
g54
(dp1404
g74
g75
ssg63
g1398
sg56
(lp1405
S'wsgi_multithread'
p1406
asbag49
(g70
g51
NtRp1407
(dp1408
g54
(dp1409
g81
g82
ssg63
g1398
sg56
(lp1410
S':'
asbag49
(g70
g51
NtRp1411
(dp1412
g54
(dp1413
sg63
g1398
sg56
(lp1414
g49
(g50
g51
NtRp1415
(dp1416
g54
(dp1417
g62
I4
ssg63
g1411
sg56
(lp1418
S'True'
p1419
asbasbasbag49
(g65
g51
NtRp1420
(dp1421
g54
(dp1422
sg63
g564
sg56
(lp1423
g49
(g70
g51
NtRp1424
(dp1425
g54
(dp1426
g74
g75
ssg63
g1420
sg56
(lp1427
S'wsgi_run_once'
p1428
asbag49
(g70
g51
NtRp1429
(dp1430
g54
(dp1431
g81
g82
ssg63
g1420
sg56
(lp1432
S':'
asbag49
(g70
g51
NtRp1433
(dp1434
g54
(dp1435
sg63
g1420
sg56
(lp1436
g49
(g50
g51
NtRp1437
(dp1438
g54
(dp1439
g62
I4
ssg63
g1433
sg56
(lp1440
g92
asbasbasbag49
(g65
g51
NtRp1441
(dp1442
g54
(dp1443
sg63
g564
sg56
(lp1444
g49
(g70
g51
NtRp1445
(dp1446
g54
(dp1447
g74
g75
ssg63
g1441
sg56
(lp1448
S'wsgi_url_scheme'
p1449
asbag49
(g70
g51
NtRp1450
(dp1451
g54
(dp1452
g81
g82
ssg63
g1441
sg56
(lp1453
S':'
asbag49
(g70
g51
NtRp1454
(dp1455
g54
(dp1456
sg63
g1441
sg56
(lp1457
g49
(g50
g51
NtRp1458
(dp1459
g54
(dp1460
g62
I4
ssg63
g1454
sg56
(lp1461
S'http'
p1462
asbasbasbag49
(g65
g51
NtRp1463
(dp1464
g54
(dp1465
sg63
g564
sg56
(lp1466
g49
(g70
g51
NtRp1467
(dp1468
g54
(dp1469
g74
g75
ssg63
g1463
sg56
(lp1470
S'wsgi_version'
p1471
asbag49
(g70
g51
NtRp1472
(dp1473
g54
(dp1474
g81
g82
ssg63
g1463
sg56
(lp1475
S':'
asbag49
(g70
g51
NtRp1476
(dp1477
g54
(dp1478
sg63
g1463
sg56
(lp1479
g49
(g50
g51
NtRp1480
(dp1481
g54
(dp1482
g62
I4
ssg63
g1476
sg56
(lp1483
g49
(g58
g51
NtRp1484
(dp1485
g54
(dp1486
g62
I3
ssg63
Nsg56
(lp1487
g49
(g65
g51
NtRp1488
(dp1489
g54
(dp1490
sg63
g1484
sg56
(lp1491
g49
(g70
g51
NtRp1492
(dp1493
g54
(dp1494
sg63
g1488
sg56
(lp1495
g49
(g50
g51
NtRp1496
(dp1497
g54
(dp1498
g62
I3
ssg63
g1492
sg56
(lp1499
S'1'
asbasbasbag49
(g65
g51
NtRp1500
(dp1501
g54
(dp1502
sg63
g1484
sg56
(lp1503
g49
(g70
g51
NtRp1504
(dp1505
g54
(dp1506
sg63
g1500
sg56
(lp1507
g49
(g50
g51
NtRp1508
(dp1509
g54
(dp1510
g62
I3
ssg63
g1504
sg56
(lp1511
S'0'
asbasbasbasbasbasbasbasbasbasbasbag49
(g65
g51
NtRp1512
(dp1513
g54
(dp1514
sg63
g59
sg56
(lp1515
g49
(g70
g51
NtRp1516
(dp1517
g54
(dp1518
g74
g75
ssg63
g1512
sg56
(lp1519
S'extension'
p1520
asbag49
(g70
g51
NtRp1521
(dp1522
g54
(dp1523
g81
g82
ssg63
g1512
sg56
(lp1524
S':'
asbag49
(g70
g51
NtRp1525
(dp1526
g54
(dp1527
sg63
g1512
sg56
(lp1528
g49
(g50
g51
NtRp1529
(dp1530
g54
(dp1531
g62
I5
ssg63
g1525
sg56
(lp1532
S'html'
p1533
asbasbasbag49
(g65
g51
NtRp1534
(dp1535
g54
(dp1536
sg63
g59
sg56
(lp1537
g49
(g70
g51
NtRp1538
(dp1539
g54
(dp1540
g74
g75
ssg63
g1534
sg56
(lp1541
S'folder'
p1542
asbag49
(g70
g51
NtRp1543
(dp1544
g54
(dp1545
g81
g82
ssg63
g1534
sg56
(lp1546
S':'
asbag49
(g70
g51
NtRp1547
(dp1548
g54
(dp1549
sg63
g1534
sg56
(lp1550
g49
(g50
g51
NtRp1551
(dp1552
g54
(dp1553
g62
I5
ssg63
g1547
sg56
(lp1554
S'D:\\Dise\xf1o Web\\Proyectos\\Parleyweb\\web2py\\applications\\parleyweb\\'
p1555
asbasbasbag49
(g65
g51
NtRp1556
(dp1557
g54
(dp1558
sg63
g59
sg56
(lp1559
g49
(g70
g51
NtRp1560
(dp1561
g54
(dp1562
g74
g75
ssg63
g1556
sg56
(lp1563
S'function'
p1564
asbag49
(g70
g51
NtRp1565
(dp1566
g54
(dp1567
g81
g82
ssg63
g1556
sg56
(lp1568
S':'
asbag49
(g70
g51
NtRp1569
(dp1570
g54
(dp1571
sg63
g1556
sg56
(lp1572
g49
(g50
g51
NtRp1573
(dp1574
g54
(dp1575
g62
I5
ssg63
g1569
sg56
(lp1576
S'relacionar_palabra'
p1577
asbasbasbag49
(g65
g51
NtRp1578
(dp1579
g54
(dp1580
sg63
g59
sg56
(lp1581
g49
(g70
g51
NtRp1582
(dp1583
g54
(dp1584
g74
g75
ssg63
g1578
sg56
(lp1585
S'get_vars'
p1586
asbag49
(g70
g51
NtRp1587
(dp1588
g54
(dp1589
g81
g82
ssg63
g1578
sg56
(lp1590
S':'
asbag49
(g70
g51
NtRp1591
(dp1592
g54
(dp1593
sg63
g1578
sg56
(lp1594
g49
(g50
g51
NtRp1595
(dp1596
g54
(dp1597
g62
I5
ssg63
g1591
sg56
(lp1598
g49
(g58
g51
NtRp1599
(dp1600
g54
(dp1601
g62
I4
ssg63
Nsg56
(lp1602
sbasbasbasbag49
(g65
g51
NtRp1603
(dp1604
g54
(dp1605
sg63
g59
sg56
(lp1606
g49
(g70
g51
NtRp1607
(dp1608
g54
(dp1609
g74
g75
ssg63
g1603
sg56
(lp1610
S'global_settings'
p1611
asbag49
(g70
g51
NtRp1612
(dp1613
g54
(dp1614
g81
g82
ssg63
g1603
sg56
(lp1615
S':'
asbag49
(g70
g51
NtRp1616
(dp1617
g54
(dp1618
sg63
g1603
sg56
(lp1619
g49
(g50
g51
NtRp1620
(dp1621
g54
(dp1622
g62
I5
ssg63
g1616
sg56
(lp1623
g49
(g58
g51
NtRp1624
(dp1625
g54
(dp1626
g62
I4
ssg63
Nsg56
(lp1627
g49
(g65
g51
NtRp1628
(dp1629
g54
(dp1630
sg63
g1624
sg56
(lp1631
g49
(g70
g51
NtRp1632
(dp1633
g54
(dp1634
g74
g75
ssg63
g1628
sg56
(lp1635
g576
asbag49
(g70
g51
NtRp1636
(dp1637
g54
(dp1638
g81
g82
ssg63
g1628
sg56
(lp1639
S':'
asbag49
(g70
g51
NtRp1640
(dp1641
g54
(dp1642
sg63
g1628
sg56
(lp1643
g49
(g50
g51
NtRp1644
(dp1645
g54
(dp1646
g62
I4
ssg63
g1640
sg56
(lp1647
S"set(['D:\\\\Dise\\xf1o Web\\\\Proyectos\\\\Parleyweb\\\\web2py\\\\applications\\\\parleyweb\\\\', 'D:\\\\Dise\\xf1o Web\\\\Proyectos\\\\Parleyweb\\\\web2py\\\\applications\\\\admin\\\\'])"
p1648
asbasbasbag49
(g65
g51
NtRp1649
(dp1650
g54
(dp1651
sg63
g1624
sg56
(lp1652
g49
(g70
g51
NtRp1653
(dp1654
g54
(dp1655
g74
g75
ssg63
g1649
sg56
(lp1656
g598
asbag49
(g70
g51
NtRp1657
(dp1658
g54
(dp1659
g81
g82
ssg63
g1649
sg56
(lp1660
S':'
asbag49
(g70
g51
NtRp1661
(dp1662
g54
(dp1663
sg63
g1649
sg56
(lp1664
g49
(g50
g51
NtRp1665
(dp1666
g54
(dp1667
g62
I4
ssg63
g1661
sg56
(lp1668
g611
asbasbasbag49
(g65
g51
NtRp1669
(dp1670
g54
(dp1671
sg63
g1624
sg56
(lp1672
g49
(g70
g51
NtRp1673
(dp1674
g54
(dp1675
g74
g75
ssg63
g1669
sg56
(lp1676
g620
asbag49
(g70
g51
NtRp1677
(dp1678
g54
(dp1679
g81
g82
ssg63
g1669
sg56
(lp1680
S':'
asbag49
(g70
g51
NtRp1681
(dp1682
g54
(dp1683
sg63
g1669
sg56
(lp1684
g49
(g50
g51
NtRp1685
(dp1686
g54
(dp1687
g62
I4
ssg63
g1681
sg56
(lp1688
g49
(g58
g51
NtRp1689
(dp1690
g54
(dp1691
g62
I3
ssg63
Nsg56
(lp1692
sbasbasbasbag49
(g65
g51
NtRp1693
(dp1694
g54
(dp1695
sg63
g1624
sg56
(lp1696
g49
(g70
g51
NtRp1697
(dp1698
g54
(dp1699
g74
g75
ssg63
g1693
sg56
(lp1700
g645
asbag49
(g70
g51
NtRp1701
(dp1702
g54
(dp1703
g81
g82
ssg63
g1693
sg56
(lp1704
S':'
asbag49
(g70
g51
NtRp1705
(dp1706
g54
(dp1707
sg63
g1693
sg56
(lp1708
g49
(g50
g51
NtRp1709
(dp1710
g54
(dp1711
g62
I4
ssg63
g1705
sg56
(lp1712
S"<Values at 0x3185238: {'verbose': False, 'ip': '127.0.0.1', 'shutdown_timeout': 5, 'taskbar': False, 'nocron': False, 'pid_filename': 'httpserver.pid', 'maxthreads': None, 'softcron': False, 'server_name': 'craxsnet-PC', 'bpython': False, 'nogui': False, 'port': 8000, 'extcron': False, 'debuglevel': 30, 'test': None, 'folder': 'D:\\\\Dise\\xf1o Web\\\\Proyectos\\\\Parleyweb\\\\web2py', 'config': '', 'import_models': False, 'winservice': '', 'shell': None, 'run': '', 'log_filename': 'httpserver.log', 'args': [''], 'socket_timeout': 5, 'ssl_ca_certificate': None, 'scheduler': None, 'profiler_filename': None, 'ssl_private_key': '', 'password': '<ask>', 'request_queue_size': 5, 'ssl_certificate': '', 'cronjob': False, 'numthreads': None, 'quiet': False, 'interfaces': None, 'minthreads': None, 'timeout': 10, 'plain': False, 'nobanner': False}>"
p1713
asbasbasbag49
(g65
g51
NtRp1714
(dp1715
g54
(dp1716
sg63
g1624
sg56
(lp1717
g49
(g70
g51
NtRp1718
(dp1719
g54
(dp1720
g74
g75
ssg63
g1714
sg56
(lp1721
g667
asbag49
(g70
g51
NtRp1722
(dp1723
g54
(dp1724
g81
g82
ssg63
g1714
sg56
(lp1725
S':'
asbag49
(g70
g51
NtRp1726
(dp1727
g54
(dp1728
sg63
g1714
sg56
(lp1729
g49
(g50
g51
NtRp1730
(dp1731
g54
(dp1732
g62
I4
ssg63
g1726
sg56
(lp1733
S'set([])'
p1734
asbasbasbag49
(g65
g51
NtRp1735
(dp1736
g54
(dp1737
sg63
g1624
sg56
(lp1738
g49
(g70
g51
NtRp1739
(dp1740
g54
(dp1741
g74
g75
ssg63
g1735
sg56
(lp1742
g689
asbag49
(g70
g51
NtRp1743
(dp1744
g54
(dp1745
g81
g82
ssg63
g1735
sg56
(lp1746
S':'
asbag49
(g70
g51
NtRp1747
(dp1748
g54
(dp1749
sg63
g1735
sg56
(lp1750
g49
(g50
g51
NtRp1751
(dp1752
g54
(dp1753
g62
I4
ssg63
g1747
sg56
(lp1754
g92
asbasbasbag49
(g65
g51
NtRp1755
(dp1756
g54
(dp1757
sg63
g1624
sg56
(lp1758
g49
(g70
g51
NtRp1759
(dp1760
g54
(dp1761
g74
g75
ssg63
g1755
sg56
(lp1762
g710
asbag49
(g70
g51
NtRp1763
(dp1764
g54
(dp1765
g81
g82
ssg63
g1755
sg56
(lp1766
S':'
asbag49
(g70
g51
NtRp1767
(dp1768
g54
(dp1769
sg63
g1755
sg56
(lp1770
g49
(g50
g51
NtRp1771
(dp1772
g54
(dp1773
g62
I4
ssg63
g1767
sg56
(lp1774
g723
asbasbasbag49
(g65
g51
NtRp1775
(dp1776
g54
(dp1777
sg63
g1624
sg56
(lp1778
g49
(g70
g51
NtRp1779
(dp1780
g54
(dp1781
g74
g75
ssg63
g1775
sg56
(lp1782
g886
asbag49
(g70
g51
NtRp1783
(dp1784
g54
(dp1785
g81
g82
ssg63
g1775
sg56
(lp1786
S':'
asbag49
(g70
g51
NtRp1787
(dp1788
g54
(dp1789
sg63
g1775
sg56
(lp1790
g49
(g50
g51
NtRp1791
(dp1792
g54
(dp1793
g62
I4
ssg63
g1787
sg56
(lp1794
g92
asbasbasbag49
(g65
g51
NtRp1795
(dp1796
g54
(dp1797
sg63
g1624
sg56
(lp1798
g49
(g70
g51
NtRp1799
(dp1800
g54
(dp1801
g74
g75
ssg63
g1795
sg56
(lp1802
g907
asbag49
(g70
g51
NtRp1803
(dp1804
g54
(dp1805
g81
g82
ssg63
g1795
sg56
(lp1806
S':'
asbag49
(g70
g51
NtRp1807
(dp1808
g54
(dp1809
sg63
g1795
sg56
(lp1810
g49
(g50
g51
NtRp1811
(dp1812
g54
(dp1813
g62
I4
ssg63
g1807
sg56
(lp1814
g92
asbasbasbag49
(g65
g51
NtRp1815
(dp1816
g54
(dp1817
sg63
g1624
sg56
(lp1818
g49
(g70
g51
NtRp1819
(dp1820
g54
(dp1821
g74
g75
ssg63
g1815
sg56
(lp1822
g1166
asbag49
(g70
g51
NtRp1823
(dp1824
g54
(dp1825
g81
g82
ssg63
g1815
sg56
(lp1826
S':'
asbag49
(g70
g51
NtRp1827
(dp1828
g54
(dp1829
sg63
g1815
sg56
(lp1830
g49
(g50
g51
NtRp1831
(dp1832
g54
(dp1833
g62
I4
ssg63
g1827
sg56
(lp1834
g1179
asbasbasbag49
(g65
g51
NtRp1835
(dp1836
g54
(dp1837
sg63
g1624
sg56
(lp1838
g49
(g70
g51
NtRp1839
(dp1840
g54
(dp1841
g74
g75
ssg63
g1835
sg56
(lp1842
g1231
asbag49
(g70
g51
NtRp1843
(dp1844
g54
(dp1845
g81
g82
ssg63
g1835
sg56
(lp1846
S':'
asbag49
(g70
g51
NtRp1847
(dp1848
g54
(dp1849
sg63
g1835
sg56
(lp1850
g49
(g50
g51
NtRp1851
(dp1852
g54
(dp1853
g62
I4
ssg63
g1847
sg56
(lp1854
g49
(g58
g51
NtRp1855
(dp1856
g54
(dp1857
g62
I3
ssg63
Nsg56
(lp1858
g49
(g65
g51
NtRp1859
(dp1860
g54
(dp1861
sg63
g1855
sg56
(lp1862
g49
(g70
g51
NtRp1863
(dp1864
g54
(dp1865
sg63
g1859
sg56
(lp1866
g49
(g50
g51
NtRp1867
(dp1868
g54
(dp1869
g62
I3
ssg63
g1863
sg56
(lp1870
S'1'
asbasbasbag49
(g65
g51
NtRp1871
(dp1872
g54
(dp1873
sg63
g1855
sg56
(lp1874
g49
(g70
g51
NtRp1875
(dp1876
g54
(dp1877
sg63
g1871
sg56
(lp1878
g49
(g50
g51
NtRp1879
(dp1880
g54
(dp1881
g62
I3
ssg63
g1875
sg56
(lp1882
S'99'
p1883
asbasbasbag49
(g65
g51
NtRp1884
(dp1885
g54
(dp1886
sg63
g1855
sg56
(lp1887
g49
(g70
g51
NtRp1888
(dp1889
g54
(dp1890
sg63
g1884
sg56
(lp1891
g49
(g50
g51
NtRp1892
(dp1893
g54
(dp1894
g62
I3
ssg63
g1888
sg56
(lp1895
S'7'
asbasbasbag49
(g65
g51
NtRp1896
(dp1897
g54
(dp1898
sg63
g1855
sg56
(lp1899
g49
(g70
g51
NtRp1900
(dp1901
g54
(dp1902
sg63
g1896
sg56
(lp1903
g49
(g50
g51
NtRp1904
(dp1905
g54
(dp1906
g62
I3
ssg63
g1900
sg56
(lp1907
S'datetime.datetime(2012, 3, 4, 22, 12, 8)'
p1908
asbasbasbag49
(g65
g51
NtRp1909
(dp1910
g54
(dp1911
sg63
g1855
sg56
(lp1912
g49
(g70
g51
NtRp1913
(dp1914
g54
(dp1915
sg63
g1909
sg56
(lp1916
g49
(g50
g51
NtRp1917
(dp1918
g54
(dp1919
g62
I3
ssg63
g1913
sg56
(lp1920
g1310
asbasbasbasbasbasbasbasbasbasbasbag49
(g65
g51
NtRp1921
(dp1922
g54
(dp1923
sg63
g59
sg56
(lp1924
g49
(g70
g51
NtRp1925
(dp1926
g54
(dp1927
g74
g75
ssg63
g1921
sg56
(lp1928
S'is_https'
p1929
asbag49
(g70
g51
NtRp1930
(dp1931
g54
(dp1932
g81
g82
ssg63
g1921
sg56
(lp1933
S':'
asbag49
(g70
g51
NtRp1934
(dp1935
g54
(dp1936
sg63
g1921
sg56
(lp1937
g49
(g50
g51
NtRp1938
(dp1939
g54
(dp1940
g62
I5
ssg63
g1934
sg56
(lp1941
g92
asbasbasbag49
(g65
g51
NtRp1942
(dp1943
g54
(dp1944
sg63
g59
sg56
(lp1945
g49
(g70
g51
NtRp1946
(dp1947
g54
(dp1948
g74
g75
ssg63
g1942
sg56
(lp1949
S'is_local'
p1950
asbag49
(g70
g51
NtRp1951
(dp1952
g54
(dp1953
g81
g82
ssg63
g1942
sg56
(lp1954
S':'
asbag49
(g70
g51
NtRp1955
(dp1956
g54
(dp1957
sg63
g1942
sg56
(lp1958
g49
(g50
g51
NtRp1959
(dp1960
g54
(dp1961
g62
I5
ssg63
g1955
sg56
(lp1962
g1419
asbasbasbag49
(g65
g51
NtRp1963
(dp1964
g54
(dp1965
sg63
g59
sg56
(lp1966
g49
(g70
g51
NtRp1967
(dp1968
g54
(dp1969
g74
g75
ssg63
g1963
sg56
(lp1970
S'is_restful'
p1971
asbag49
(g70
g51
NtRp1972
(dp1973
g54
(dp1974
g81
g82
ssg63
g1963
sg56
(lp1975
S':'
asbag49
(g70
g51
NtRp1976
(dp1977
g54
(dp1978
sg63
g1963
sg56
(lp1979
g49
(g50
g51
NtRp1980
(dp1981
g54
(dp1982
g62
I5
ssg63
g1976
sg56
(lp1983
g92
asbasbasbag49
(g65
g51
NtRp1984
(dp1985
g54
(dp1986
sg63
g59
sg56
(lp1987
g49
(g70
g51
NtRp1988
(dp1989
g54
(dp1990
g74
g75
ssg63
g1984
sg56
(lp1991
S'now'
p1992
asbag49
(g70
g51
NtRp1993
(dp1994
g54
(dp1995
g81
g82
ssg63
g1984
sg56
(lp1996
S':'
asbag49
(g70
g51
NtRp1997
(dp1998
g54
(dp1999
sg63
g1984
sg56
(lp2000
g49
(g50
g51
NtRp2001
(dp2002
g54
(dp2003
g62
I5
ssg63
g1997
sg56
(lp2004
S'datetime.datetime(2012, 3, 15, 14, 4, 6, 315000)'
p2005
asbasbasbag49
(g65
g51
NtRp2006
(dp2007
g54
(dp2008
sg63
g59
sg56
(lp2009
g49
(g70
g51
NtRp2010
(dp2011
g54
(dp2012
g74
g75
ssg63
g2006
sg56
(lp2013
S'post_vars'
p2014
asbag49
(g70
g51
NtRp2015
(dp2016
g54
(dp2017
g81
g82
ssg63
g2006
sg56
(lp2018
S':'
asbag49
(g70
g51
NtRp2019
(dp2020
g54
(dp2021
sg63
g2006
sg56
(lp2022
g49
(g50
g51
NtRp2023
(dp2024
g54
(dp2025
g62
I5
ssg63
g2019
sg56
(lp2026
g49
(g58
g51
NtRp2027
(dp2028
g54
(dp2029
g62
I4
ssg63
Nsg56
(lp2030
sbasbasbasbag49
(g65
g51
NtRp2031
(dp2032
g54
(dp2033
sg63
g59
sg56
(lp2034
g49
(g70
g51
NtRp2035
(dp2036
g54
(dp2037
g74
g75
ssg63
g2031
sg56
(lp2038
S'url'
p2039
asbag49
(g70
g51
NtRp2040
(dp2041
g54
(dp2042
g81
g82
ssg63
g2031
sg56
(lp2043
S':'
asbag49
(g70
g51
NtRp2044
(dp2045
g54
(dp2046
sg63
g2031
sg56
(lp2047
g49
(g50
g51
NtRp2048
(dp2049
g54
(dp2050
g62
I5
ssg63
g2044
sg56
(lp2051
S'/parleyweb/admin/relacionar_palabra'
p2052
asbasbasbag49
(g65
g51
NtRp2053
(dp2054
g54
(dp2055
sg63
g59
sg56
(lp2056
g49
(g70
g51
NtRp2057
(dp2058
g54
(dp2059
g74
g75
ssg63
g2053
sg56
(lp2060
S'utcnow'
p2061
asbag49
(g70
g51
NtRp2062
(dp2063
g54
(dp2064
g81
g82
ssg63
g2053
sg56
(lp2065
S':'
asbag49
(g70
g51
NtRp2066
(dp2067
g54
(dp2068
sg63
g2053
sg56
(lp2069
g49
(g50
g51
NtRp2070
(dp2071
g54
(dp2072
g62
I5
ssg63
g2066
sg56
(lp2073
S'datetime.datetime(2012, 3, 15, 13, 4, 6, 315000)'
p2074
asbasbasbag49
(g65
g51
NtRp2075
(dp2076
g54
(dp2077
sg63
g59
sg56
(lp2078
g49
(g70
g51
NtRp2079
(dp2080
g54
(dp2081
g74
g75
ssg63
g2075
sg56
(lp2082
S'uuid'
p2083
asbag49
(g70
g51
NtRp2084
(dp2085
g54
(dp2086
g81
g82
ssg63
g2075
sg56
(lp2087
S':'
asbag49
(g70
g51
NtRp2088
(dp2089
g54
(dp2090
sg63
g2075
sg56
(lp2091
g49
(g50
g51
NtRp2092
(dp2093
g54
(dp2094
g62
I5
ssg63
g2088
sg56
(lp2095
S'parleyweb/127.0.0.1.2012-03-15.14-04-06.3c6dd44a-7324-456a-8f7e-fa7b0d262db2'
p2096
asbasbasbag49
(g65
g51
NtRp2097
(dp2098
g54
(dp2099
sg63
g59
sg56
(lp2100
g49
(g70
g51
NtRp2101
(dp2102
g54
(dp2103
g74
g75
ssg63
g2097
sg56
(lp2104
S'vars'
p2105
asbag49
(g70
g51
NtRp2106
(dp2107
g54
(dp2108
g81
g82
ssg63
g2097
sg56
(lp2109
S':'
asbag49
(g70
g51
NtRp2110
(dp2111
g54
(dp2112
sg63
g2097
sg56
(lp2113
g49
(g50
g51
NtRp2114
(dp2115
g54
(dp2116
g62
I5
ssg63
g2110
sg56
(lp2117
g49
(g58
g51
NtRp2118
(dp2119
g54
(dp2120
g62
I4
ssg63
Nsg56
(lp2121
sbasbasbasbag49
(g65
g51
NtRp2122
(dp2123
g54
(dp2124
sg63
g59
sg56
(lp2125
g49
(g70
g51
NtRp2126
(dp2127
g54
(dp2128
g74
g75
ssg63
g2122
sg56
(lp2129
S'wsgi'
p2130
asbag49
(g70
g51
NtRp2131
(dp2132
g54
(dp2133
g81
g82
ssg63
g2122
sg56
(lp2134
S':'
asbag49
(g70
g51
NtRp2135
(dp2136
g54
(dp2137
sg63
g2122
sg56
(lp2138
g49
(g50
g51
NtRp2139
(dp2140
g54
(dp2141
g62
I5
ssg63
g2135
sg56
(lp2142
g49
(g58
g51
NtRp2143
(dp2144
g54
(dp2145
g62
I4
ssg63
Nsg56
(lp2146
g49
(g65
g51
NtRp2147
(dp2148
g54
(dp2149
sg63
g2143
sg56
(lp2150
g49
(g70
g51
NtRp2151
(dp2152
g54
(dp2153
g74
g75
ssg63
g2147
sg56
(lp2154
S'environ'
p2155
asbag49
(g70
g51
NtRp2156
(dp2157
g54
(dp2158
g81
g82
ssg63
g2147
sg56
(lp2159
S':'
asbag49
(g70
g51
NtRp2160
(dp2161
g54
(dp2162
sg63
g2147
sg56
(lp2163
g49
(g50
g51
NtRp2164
(dp2165
g54
(dp2166
g62
I4
ssg63
g2160
sg56
(lp2167
g49
(g58
g51
NtRp2168
(dp2169
g54
(dp2170
g62
I3
ssg63
Nsg56
(lp2171
g49
(g65
g51
NtRp2172
(dp2173
g54
(dp2174
sg63
g2168
sg56
(lp2175
g49
(g70
g51
NtRp2176
(dp2177
g54
(dp2178
g74
g75
ssg63
g2172
sg56
(lp2179
S'HTTP_ACCEPT'
p2180
asbag49
(g70
g51
NtRp2181
(dp2182
g54
(dp2183
g81
g82
ssg63
g2172
sg56
(lp2184
S':'
asbag49
(g70
g51
NtRp2185
(dp2186
g54
(dp2187
sg63
g2172
sg56
(lp2188
g49
(g50
g51
NtRp2189
(dp2190
g54
(dp2191
g62
I3
ssg63
g2185
sg56
(lp2192
g745
asbasbasbag49
(g65
g51
NtRp2193
(dp2194
g54
(dp2195
sg63
g2168
sg56
(lp2196
g49
(g70
g51
NtRp2197
(dp2198
g54
(dp2199
g74
g75
ssg63
g2193
sg56
(lp2200
S'HTTP_ACCEPT_ENCODING'
p2201
asbag49
(g70
g51
NtRp2202
(dp2203
g54
(dp2204
g81
g82
ssg63
g2193
sg56
(lp2205
S':'
asbag49
(g70
g51
NtRp2206
(dp2207
g54
(dp2208
sg63
g2193
sg56
(lp2209
g49
(g50
g51
NtRp2210
(dp2211
g54
(dp2212
g62
I3
ssg63
g2206
sg56
(lp2213
g767
asbasbasbag49
(g65
g51
NtRp2214
(dp2215
g54
(dp2216
sg63
g2168
sg56
(lp2217
g49
(g70
g51
NtRp2218
(dp2219
g54
(dp2220
g74
g75
ssg63
g2214
sg56
(lp2221
S'HTTP_ACCEPT_LANGUAGE'
p2222
asbag49
(g70
g51
NtRp2223
(dp2224
g54
(dp2225
g81
g82
ssg63
g2214
sg56
(lp2226
S':'
asbag49
(g70
g51
NtRp2227
(dp2228
g54
(dp2229
sg63
g2214
sg56
(lp2230
g49
(g50
g51
NtRp2231
(dp2232
g54
(dp2233
g62
I3
ssg63
g2227
sg56
(lp2234
g789
asbasbasbag49
(g65
g51
NtRp2235
(dp2236
g54
(dp2237
sg63
g2168
sg56
(lp2238
g49
(g70
g51
NtRp2239
(dp2240
g54
(dp2241
g74
g75
ssg63
g2235
sg56
(lp2242
S'HTTP_CONNECTION'
p2243
asbag49
(g70
g51
NtRp2244
(dp2245
g54
(dp2246
g81
g82
ssg63
g2235
sg56
(lp2247
S':'
asbag49
(g70
g51
NtRp2248
(dp2249
g54
(dp2250
sg63
g2235
sg56
(lp2251
g49
(g50
g51
NtRp2252
(dp2253
g54
(dp2254
g62
I3
ssg63
g2248
sg56
(lp2255
g811
asbasbasbag49
(g65
g51
NtRp2256
(dp2257
g54
(dp2258
sg63
g2168
sg56
(lp2259
g49
(g70
g51
NtRp2260
(dp2261
g54
(dp2262
g74
g75
ssg63
g2256
sg56
(lp2263
S'HTTP_COOKIE'
p2264
asbag49
(g70
g51
NtRp2265
(dp2266
g54
(dp2267
g81
g82
ssg63
g2256
sg56
(lp2268
S':'
asbag49
(g70
g51
NtRp2269
(dp2270
g54
(dp2271
sg63
g2256
sg56
(lp2272
g49
(g50
g51
NtRp2273
(dp2274
g54
(dp2275
g62
I3
ssg63
g2269
sg56
(lp2276
g833
asbasbasbag49
(g65
g51
NtRp2277
(dp2278
g54
(dp2279
sg63
g2168
sg56
(lp2280
g49
(g70
g51
NtRp2281
(dp2282
g54
(dp2283
g74
g75
ssg63
g2277
sg56
(lp2284
S'HTTP_HOST'
p2285
asbag49
(g70
g51
NtRp2286
(dp2287
g54
(dp2288
g81
g82
ssg63
g2277
sg56
(lp2289
S':'
asbag49
(g70
g51
NtRp2290
(dp2291
g54
(dp2292
sg63
g2277
sg56
(lp2293
g49
(g50
g51
NtRp2294
(dp2295
g54
(dp2296
g62
I3
ssg63
g2290
sg56
(lp2297
g855
asbasbasbag49
(g65
g51
NtRp2298
(dp2299
g54
(dp2300
sg63
g2168
sg56
(lp2301
g49
(g70
g51
NtRp2302
(dp2303
g54
(dp2304
g74
g75
ssg63
g2298
sg56
(lp2305
S'HTTP_USER_AGENT'
p2306
asbag49
(g70
g51
NtRp2307
(dp2308
g54
(dp2309
g81
g82
ssg63
g2298
sg56
(lp2310
S':'
asbag49
(g70
g51
NtRp2311
(dp2312
g54
(dp2313
sg63
g2298
sg56
(lp2314
g49
(g50
g51
NtRp2315
(dp2316
g54
(dp2317
g62
I3
ssg63
g2311
sg56
(lp2318
g877
asbasbasbag49
(g65
g51
NtRp2319
(dp2320
g54
(dp2321
sg63
g2168
sg56
(lp2322
g49
(g70
g51
NtRp2323
(dp2324
g54
(dp2325
g74
g75
ssg63
g2319
sg56
(lp2326
S'PATH_INFO'
p2327
asbag49
(g70
g51
NtRp2328
(dp2329
g54
(dp2330
g81
g82
ssg63
g2319
sg56
(lp2331
S':'
asbag49
(g70
g51
NtRp2332
(dp2333
g54
(dp2334
sg63
g2319
sg56
(lp2335
g49
(g50
g51
NtRp2336
(dp2337
g54
(dp2338
g62
I3
ssg63
g2332
sg56
(lp2339
g941
asbasbasbag49
(g65
g51
NtRp2340
(dp2341
g54
(dp2342
sg63
g2168
sg56
(lp2343
g49
(g70
g51
NtRp2344
(dp2345
g54
(dp2346
g74
g75
ssg63
g2340
sg56
(lp2347
S'QUERY_STRING'
p2348
asbag49
(g70
g51
NtRp2349
(dp2350
g54
(dp2351
g81
g82
ssg63
g2340
sg56
(lp2352
S':'
asbag49
(g70
g51
NtRp2353
(dp2354
g54
(dp2355
sg63
g2340
sg56
(lp2356
g49
(g50
g51
NtRp2357
(dp2358
g54
(dp2359
g62
I3
ssg63
g2353
sg56
(lp2360
S''
asbasbasbag49
(g65
g51
NtRp2361
(dp2362
g54
(dp2363
sg63
g2168
sg56
(lp2364
g49
(g70
g51
NtRp2365
(dp2366
g54
(dp2367
g74
g75
ssg63
g2361
sg56
(lp2368
S'REMOTE_ADDR'
p2369
asbag49
(g70
g51
NtRp2370
(dp2371
g54
(dp2372
g81
g82
ssg63
g2361
sg56
(lp2373
S':'
asbag49
(g70
g51
NtRp2374
(dp2375
g54
(dp2376
sg63
g2361
sg56
(lp2377
g49
(g50
g51
NtRp2378
(dp2379
g54
(dp2380
g62
I3
ssg63
g2374
sg56
(lp2381
g158
asbasbasbag49
(g65
g51
NtRp2382
(dp2383
g54
(dp2384
sg63
g2168
sg56
(lp2385
g49
(g70
g51
NtRp2386
(dp2387
g54
(dp2388
g74
g75
ssg63
g2382
sg56
(lp2389
S'REMOTE_PORT'
p2390
asbag49
(g70
g51
NtRp2391
(dp2392
g54
(dp2393
g81
g82
ssg63
g2382
sg56
(lp2394
S':'
asbag49
(g70
g51
NtRp2395
(dp2396
g54
(dp2397
sg63
g2382
sg56
(lp2398
g49
(g50
g51
NtRp2399
(dp2400
g54
(dp2401
g62
I3
ssg63
g2395
sg56
(lp2402
g1005
asbasbasbag49
(g65
g51
NtRp2403
(dp2404
g54
(dp2405
sg63
g2168
sg56
(lp2406
g49
(g70
g51
NtRp2407
(dp2408
g54
(dp2409
g74
g75
ssg63
g2403
sg56
(lp2410
S'REQUEST_METHOD'
p2411
asbag49
(g70
g51
NtRp2412
(dp2413
g54
(dp2414
g81
g82
ssg63
g2403
sg56
(lp2415
S':'
asbag49
(g70
g51
NtRp2416
(dp2417
g54
(dp2418
sg63
g2403
sg56
(lp2419
g49
(g50
g51
NtRp2420
(dp2421
g54
(dp2422
g62
I3
ssg63
g2416
sg56
(lp2423
g1027
asbasbasbag49
(g65
g51
NtRp2424
(dp2425
g54
(dp2426
sg63
g2168
sg56
(lp2427
g49
(g70
g51
NtRp2428
(dp2429
g54
(dp2430
g74
g75
ssg63
g2424
sg56
(lp2431
S'REQUEST_URI'
p2432
asbag49
(g70
g51
NtRp2433
(dp2434
g54
(dp2435
g81
g82
ssg63
g2424
sg56
(lp2436
S':'
asbag49
(g70
g51
NtRp2437
(dp2438
g54
(dp2439
sg63
g2424
sg56
(lp2440
g49
(g50
g51
NtRp2441
(dp2442
g54
(dp2443
g62
I3
ssg63
g2437
sg56
(lp2444
g941
asbasbasbag49
(g65
g51
NtRp2445
(dp2446
g54
(dp2447
sg63
g2168
sg56
(lp2448
g49
(g70
g51
NtRp2449
(dp2450
g54
(dp2451
g74
g75
ssg63
g2445
sg56
(lp2452
S'SCRIPT_NAME'
p2453
asbag49
(g70
g51
NtRp2454
(dp2455
g54
(dp2456
g81
g82
ssg63
g2445
sg56
(lp2457
S':'
asbag49
(g70
g51
NtRp2458
(dp2459
g54
(dp2460
sg63
g2445
sg56
(lp2461
g49
(g50
g51
NtRp2462
(dp2463
g54
(dp2464
g62
I3
ssg63
g2458
sg56
(lp2465
S''
asbasbasbag49
(g65
g51
NtRp2466
(dp2467
g54
(dp2468
sg63
g2168
sg56
(lp2469
g49
(g70
g51
NtRp2470
(dp2471
g54
(dp2472
g74
g75
ssg63
g2466
sg56
(lp2473
S'SERVER_NAME'
p2474
asbag49
(g70
g51
NtRp2475
(dp2476
g54
(dp2477
g81
g82
ssg63
g2466
sg56
(lp2478
S':'
asbag49
(g70
g51
NtRp2479
(dp2480
g54
(dp2481
sg63
g2466
sg56
(lp2482
g49
(g50
g51
NtRp2483
(dp2484
g54
(dp2485
g62
I3
ssg63
g2479
sg56
(lp2486
g1091
asbasbasbag49
(g65
g51
NtRp2487
(dp2488
g54
(dp2489
sg63
g2168
sg56
(lp2490
g49
(g70
g51
NtRp2491
(dp2492
g54
(dp2493
g74
g75
ssg63
g2487
sg56
(lp2494
S'SERVER_PORT'
p2495
asbag49
(g70
g51
NtRp2496
(dp2497
g54
(dp2498
g81
g82
ssg63
g2487
sg56
(lp2499
S':'
asbag49
(g70
g51
NtRp2500
(dp2501
g54
(dp2502
sg63
g2487
sg56
(lp2503
g49
(g50
g51
NtRp2504
(dp2505
g54
(dp2506
g62
I3
ssg63
g2500
sg56
(lp2507
g1113
asbasbasbag49
(g65
g51
NtRp2508
(dp2509
g54
(dp2510
sg63
g2168
sg56
(lp2511
g49
(g70
g51
NtRp2512
(dp2513
g54
(dp2514
g74
g75
ssg63
g2508
sg56
(lp2515
S'SERVER_PROTOCOL'
p2516
asbag49
(g70
g51
NtRp2517
(dp2518
g54
(dp2519
g81
g82
ssg63
g2508
sg56
(lp2520
S':'
asbag49
(g70
g51
NtRp2521
(dp2522
g54
(dp2523
sg63
g2508
sg56
(lp2524
g49
(g50
g51
NtRp2525
(dp2526
g54
(dp2527
g62
I3
ssg63
g2521
sg56
(lp2528
g1135
asbasbasbag49
(g65
g51
NtRp2529
(dp2530
g54
(dp2531
sg63
g2168
sg56
(lp2532
g49
(g70
g51
NtRp2533
(dp2534
g54
(dp2535
g74
g75
ssg63
g2529
sg56
(lp2536
S'SERVER_SOFTWARE'
p2537
asbag49
(g70
g51
NtRp2538
(dp2539
g54
(dp2540
g81
g82
ssg63
g2529
sg56
(lp2541
S':'
asbag49
(g70
g51
NtRp2542
(dp2543
g54
(dp2544
sg63
g2529
sg56
(lp2545
g49
(g50
g51
NtRp2546
(dp2547
g54
(dp2548
g62
I3
ssg63
g2542
sg56
(lp2549
g1157
asbasbasbag49
(g65
g51
NtRp2550
(dp2551
g54
(dp2552
sg63
g2168
sg56
(lp2553
g49
(g70
g51
NtRp2554
(dp2555
g54
(dp2556
g74
g75
ssg63
g2550
sg56
(lp2557
S'WEB2PY_ORIGINAL_URI'
p2558
asbag49
(g70
g51
NtRp2559
(dp2560
g54
(dp2561
g81
g82
ssg63
g2550
sg56
(lp2562
S':'
asbag49
(g70
g51
NtRp2563
(dp2564
g54
(dp2565
sg63
g2550
sg56
(lp2566
g49
(g50
g51
NtRp2567
(dp2568
g54
(dp2569
g62
I3
ssg63
g2563
sg56
(lp2570
g1201
asbasbasbag49
(g65
g51
NtRp2571
(dp2572
g54
(dp2573
sg63
g2168
sg56
(lp2574
g49
(g70
g51
NtRp2575
(dp2576
g54
(dp2577
g74
g75
ssg63
g2571
sg56
(lp2578
S'wsgi.errors'
p2579
asbag49
(g70
g51
NtRp2580
(dp2581
g54
(dp2582
g81
g82
ssg63
g2571
sg56
(lp2583
S':'
asbag49
(g70
g51
NtRp2584
(dp2585
g54
(dp2586
sg63
g2571
sg56
(lp2587
g49
(g50
g51
NtRp2588
(dp2589
g54
(dp2590
g62
I3
ssg63
g2584
sg56
(lp2591
S"<open file '<stderr>', mode 'w' at 0x004200B0>"
p2592
asbasbasbag49
(g65
g51
NtRp2593
(dp2594
g54
(dp2595
sg63
g2168
sg56
(lp2596
g49
(g70
g51
NtRp2597
(dp2598
g54
(dp2599
g74
g75
ssg63
g2593
sg56
(lp2600
S'wsgi.file_wrapper'
p2601
asbag49
(g70
g51
NtRp2602
(dp2603
g54
(dp2604
g81
g82
ssg63
g2593
sg56
(lp2605
S':'
asbag49
(g70
g51
NtRp2606
(dp2607
g54
(dp2608
sg63
g2593
sg56
(lp2609
g49
(g50
g51
NtRp2610
(dp2611
g54
(dp2612
g62
I3
ssg63
g2606
sg56
(lp2613
S'<class wsgiref.util.FileWrapper at 0x02FC6390>'
p2614
asbasbasbag49
(g65
g51
NtRp2615
(dp2616
g54
(dp2617
sg63
g2168
sg56
(lp2618
g49
(g70
g51
NtRp2619
(dp2620
g54
(dp2621
g74
g75
ssg63
g2615
sg56
(lp2622
S'wsgi.input'
p2623
asbag49
(g70
g51
NtRp2624
(dp2625
g54
(dp2626
g81
g82
ssg63
g2615
sg56
(lp2627
S':'
asbag49
(g70
g51
NtRp2628
(dp2629
g54
(dp2630
sg63
g2615
sg56
(lp2631
g49
(g50
g51
NtRp2632
(dp2633
g54
(dp2634
g62
I3
ssg63
g2628
sg56
(lp2635
S'<cStringIO.StringO object at 0x074550C0>'
p2636
asbasbasbag49
(g65
g51
NtRp2637
(dp2638
g54
(dp2639
sg63
g2168
sg56
(lp2640
g49
(g70
g51
NtRp2641
(dp2642
g54
(dp2643
g74
g75
ssg63
g2637
sg56
(lp2644
S'wsgi.multiprocess'
p2645
asbag49
(g70
g51
NtRp2646
(dp2647
g54
(dp2648
g81
g82
ssg63
g2637
sg56
(lp2649
S':'
asbag49
(g70
g51
NtRp2650
(dp2651
g54
(dp2652
sg63
g2637
sg56
(lp2653
g49
(g50
g51
NtRp2654
(dp2655
g54
(dp2656
g62
I3
ssg63
g2650
sg56
(lp2657
g92
asbasbasbag49
(g65
g51
NtRp2658
(dp2659
g54
(dp2660
sg63
g2168
sg56
(lp2661
g49
(g70
g51
NtRp2662
(dp2663
g54
(dp2664
g74
g75
ssg63
g2658
sg56
(lp2665
S'wsgi.multithread'
p2666
asbag49
(g70
g51
NtRp2667
(dp2668
g54
(dp2669
g81
g82
ssg63
g2658
sg56
(lp2670
S':'
asbag49
(g70
g51
NtRp2671
(dp2672
g54
(dp2673
sg63
g2658
sg56
(lp2674
g49
(g50
g51
NtRp2675
(dp2676
g54
(dp2677
g62
I3
ssg63
g2671
sg56
(lp2678
g1419
asbasbasbag49
(g65
g51
NtRp2679
(dp2680
g54
(dp2681
sg63
g2168
sg56
(lp2682
g49
(g70
g51
NtRp2683
(dp2684
g54
(dp2685
g74
g75
ssg63
g2679
sg56
(lp2686
S'wsgi.run_once'
p2687
asbag49
(g70
g51
NtRp2688
(dp2689
g54
(dp2690
g81
g82
ssg63
g2679
sg56
(lp2691
S':'
asbag49
(g70
g51
NtRp2692
(dp2693
g54
(dp2694
sg63
g2679
sg56
(lp2695
g49
(g50
g51
NtRp2696
(dp2697
g54
(dp2698
g62
I3
ssg63
g2692
sg56
(lp2699
g92
asbasbasbag49
(g65
g51
NtRp2700
(dp2701
g54
(dp2702
sg63
g2168
sg56
(lp2703
g49
(g70
g51
NtRp2704
(dp2705
g54
(dp2706
g74
g75
ssg63
g2700
sg56
(lp2707
S'wsgi.url_scheme'
p2708
asbag49
(g70
g51
NtRp2709
(dp2710
g54
(dp2711
g81
g82
ssg63
g2700
sg56
(lp2712
S':'
asbag49
(g70
g51
NtRp2713
(dp2714
g54
(dp2715
sg63
g2700
sg56
(lp2716
g49
(g50
g51
NtRp2717
(dp2718
g54
(dp2719
g62
I3
ssg63
g2713
sg56
(lp2720
g1462
asbasbasbag49
(g65
g51
NtRp2721
(dp2722
g54
(dp2723
sg63
g2168
sg56
(lp2724
g49
(g70
g51
NtRp2725
(dp2726
g54
(dp2727
g74
g75
ssg63
g2721
sg56
(lp2728
S'wsgi.version'
p2729
asbag49
(g70
g51
NtRp2730
(dp2731
g54
(dp2732
g81
g82
ssg63
g2721
sg56
(lp2733
S':'
asbag49
(g70
g51
NtRp2734
(dp2735
g54
(dp2736
sg63
g2721
sg56
(lp2737
g49
(g50
g51
NtRp2738
(dp2739
g54
(dp2740
g62
I3
ssg63
g2734
sg56
(lp2741
S'1'
asbasbasbasbasbasbasbasbasbasbasbasbasbsS'frames'
p2742
(lp2743
(dp2744
S'file'
p2745
S'D:\\Dise\xf1o Web\\Proyectos\\Parleyweb\\web2py\\gluon\\restricted.py'
p2746
sS'dump'
p2747
(dp2748
sS'lnum'
p2749
I205
sS'lines'
p2750
(dp2751
sS'call'
p2752
S"(code='# coding: utf8\\n# intente algo como\\ndef index():\\n...ponse._vars=response._caller(relacionar_palabra)\\n', environment={'A': <class 'gluon.html.A'>, 'Auth': <class 'gluon.tools.Auth'>, 'B': <class 'gluon.html.B'>, 'BEAUTIFY': <class 'gluon.html.BEAUTIFY'>, 'BODY': <class 'gluon.html.BODY'>, 'BR': <class 'gluon.html.BR'>, 'BUTTON': <class 'gluon.html.BUTTON'>, 'CAT': <class 'gluon.html.CAT'>, 'CENTER': <class 'gluon.html.CENTER'>, 'CLEANUP': <class 'gluon.validators.CLEANUP'>, ...}, layer='D:\\\\Dise\\xf1o Web\\\\Proyectos\\\\Parleyweb\\\\web2py\\\\applications\\\\parleyweb\\\\controllers/admin.py')"
p2753
sS'func'
p2754
S'restricted'
p2755
sa(dp2756
g2745
S'D:\\Dise\xf1o Web\\Proyectos\\Parleyweb\\web2py\\applications\\parleyweb\\controllers\\admin.py'
p2757
sg2747
(dp2758
sg2749
I260
sg2750
(dp2759
I256
S''
sI257
S''
sI258
S''
sI249
S''
sI250
S''
sI251
S''
sI252
S''
sI253
S''
sI254
S''
sI255
S''
ssg2752
S'()'
p2760
sg2754
S'<module>'
p2761
sa(dp2762
g2745
S'D:\\Dise\xf1o Web\\Proyectos\\Parleyweb\\web2py\\gluon\\globals.py'
p2763
sg2747
(dp2764
sg2749
I173
sg2750
(dp2765
sg2752
S'(f=<function relacionar_palabra at 0x078F80F0>)'
p2766
sg2754
S'<lambda>'
p2767
sa(dp2768
g2745
S'D:\\Dise\xf1o Web\\Proyectos\\Parleyweb\\web2py\\applications\\parleyweb\\controllers\\admin.py'
p2769
sg2747
(dp2770
sg2749
I206
sg2750
(dp2771
I201
S'    DB junto a la palabra a relacionar, quiere decir que tengo que cargar el un formulario'
p2772
sI202
S'    con los campos de la tabla palabra, meter las id en variables y luego guardarlas en las tablas'
p2773
sI203
S'    correspondiente *********importante cuando se relacione la palabra hay que traer todos los campos de ingresar palabra cuando la palabra no se encuentra en DB'
p2774
sI204
S'    *********** redisenar no sirve este codigo'
p2775
sI205
S'    """'
p2776
sI206
S'    id_ejemplo = request.args(0)'
p2777
sI207
S"    #form=FORM('Palabra:',"
p2778
sI208
S"              #INPUT(_name='palabra', requires=IS_NOT_EMPTY()),"
p2779
sI209
S"              #INPUT(_type='submit'))"
p2780
sI210
S'    ejemplo = db(db.ejemplos.id==id_ejemplo).select().first()'
p2781
ssg2752
S'()'
p2782
sg2754
S'relacionar_palabra'
p2783
sasS'pyver'
p2784
S'Python 2.5.4: D:\\Dise\xf1o Web\\Proyectos\\Parleyweb\\web2py\\web2py.exe'
p2785
sS'session'
p2786
g49
(g50
g51
NtRp2787
(dp2788
g54
(dp2789
sg56
(lp2790
g49
(g58
g51
NtRp2791
(dp2792
g54
(dp2793
g62
I5
ssg63
Nsg56
(lp2794
sbasbsS'etype'
p2795
S"<type 'exceptions.TypeError'>"
p2796
sS'date'
p2797
S'Thu Mar 15 14:04:06 2012'
p2798
sS'response'
p2799
g49
(g50
g51
NtRp2800
(dp2801
g54
(dp2802
sg56
(lp2803
g49
(g58
g51
NtRp2804
(dp2805
g54
(dp2806
g62
I5
ssg63
Nsg56
(lp2807
g49
(g65
g51
NtRp2808
(dp2809
g54
(dp2810
sg63
g2804
sg56
(lp2811
g49
(g70
g51
NtRp2812
(dp2813
g54
(dp2814
g74
g75
ssg63
g2808
sg56
(lp2815
g123
asbag49
(g70
g51
NtRp2816
(dp2817
g54
(dp2818
g81
g82
ssg63
g2808
sg56
(lp2819
S':'
asbag49
(g70
g51
NtRp2820
(dp2821
g54
(dp2822
sg63
g2808
sg56
(lp2823
g49
(g50
g51
NtRp2824
(dp2825
g54
(dp2826
g62
I5
ssg63
g2820
sg56
(lp2827
S'<cStringIO.StringO object at 0x074E6020>'
p2828
asbasbasbag49
(g65
g51
NtRp2829
(dp2830
g54
(dp2831
sg63
g2804
sg56
(lp2832
g49
(g70
g51
NtRp2833
(dp2834
g54
(dp2835
g74
g75
ssg63
g2829
sg56
(lp2836
g189
asbag49
(g70
g51
NtRp2837
(dp2838
g54
(dp2839
g81
g82
ssg63
g2829
sg56
(lp2840
S':'
asbag49
(g70
g51
NtRp2841
(dp2842
g54
(dp2843
sg63
g2829
sg56
(lp2844
g49
(g50
g51
NtRp2845
(dp2846
g54
(dp2847
g62
I5
ssg63
g2841
sg56
(lp2848
g49
(g58
g51
NtRp2849
(dp2850
g54
(dp2851
g62
I4
ssg63
Nsg56
(lp2852
g49
(g65
g51
NtRp2853
(dp2854
g54
(dp2855
sg63
g2849
sg56
(lp2856
g49
(g70
g51
NtRp2857
(dp2858
g54
(dp2859
g74
g75
ssg63
g2853
sg56
(lp2860
S'session_id_parleyweb'
p2861
asbag49
(g70
g51
NtRp2862
(dp2863
g54
(dp2864
g81
g82
ssg63
g2853
sg56
(lp2865
S':'
asbag49
(g70
g51
NtRp2866
(dp2867
g54
(dp2868
sg63
g2853
sg56
(lp2869
g49
(g50
g51
NtRp2870
(dp2871
g54
(dp2872
g62
I4
ssg63
g2866
sg56
(lp2873
g49
(g58
g51
NtRp2874
(dp2875
g54
(dp2876
g62
I3
ssg63
Nsg56
(lp2877
g49
(g65
g51
NtRp2878
(dp2879
g54
(dp2880
sg63
g2874
sg56
(lp2881
g49
(g70
g51
NtRp2882
(dp2883
g54
(dp2884
g74
g75
ssg63
g2878
sg56
(lp2885
g239
asbag49
(g70
g51
NtRp2886
(dp2887
g54
(dp2888
g81
g82
ssg63
g2878
sg56
(lp2889
S':'
asbag49
(g70
g51
NtRp2890
(dp2891
g54
(dp2892
sg63
g2878
sg56
(lp2893
g49
(g50
g51
NtRp2894
(dp2895
g54
(dp2896
g62
I3
ssg63
g2890
sg56
(lp2897
S''
asbasbasbag49
(g65
g51
NtRp2898
(dp2899
g54
(dp2900
sg63
g2874
sg56
(lp2901
g49
(g70
g51
NtRp2902
(dp2903
g54
(dp2904
g74
g75
ssg63
g2898
sg56
(lp2905
g260
asbag49
(g70
g51
NtRp2906
(dp2907
g54
(dp2908
g81
g82
ssg63
g2898
sg56
(lp2909
S':'
asbag49
(g70
g51
NtRp2910
(dp2911
g54
(dp2912
sg63
g2898
sg56
(lp2913
g49
(g50
g51
NtRp2914
(dp2915
g54
(dp2916
g62
I3
ssg63
g2910
sg56
(lp2917
S''
asbasbasbag49
(g65
g51
NtRp2918
(dp2919
g54
(dp2920
sg63
g2874
sg56
(lp2921
g49
(g70
g51
NtRp2922
(dp2923
g54
(dp2924
g74
g75
ssg63
g2918
sg56
(lp2925
g281
asbag49
(g70
g51
NtRp2926
(dp2927
g54
(dp2928
g81
g82
ssg63
g2918
sg56
(lp2929
S':'
asbag49
(g70
g51
NtRp2930
(dp2931
g54
(dp2932
sg63
g2918
sg56
(lp2933
g49
(g50
g51
NtRp2934
(dp2935
g54
(dp2936
g62
I3
ssg63
g2930
sg56
(lp2937
S''
asbasbasbag49
(g65
g51
NtRp2938
(dp2939
g54
(dp2940
sg63
g2874
sg56
(lp2941
g49
(g70
g51
NtRp2942
(dp2943
g54
(dp2944
g74
g75
ssg63
g2938
sg56
(lp2945
g302
asbag49
(g70
g51
NtRp2946
(dp2947
g54
(dp2948
g81
g82
ssg63
g2938
sg56
(lp2949
S':'
asbag49
(g70
g51
NtRp2950
(dp2951
g54
(dp2952
sg63
g2938
sg56
(lp2953
g49
(g50
g51
NtRp2954
(dp2955
g54
(dp2956
g62
I3
ssg63
g2950
sg56
(lp2957
S''
asbasbasbag49
(g65
g51
NtRp2958
(dp2959
g54
(dp2960
sg63
g2874
sg56
(lp2961
g49
(g70
g51
NtRp2962
(dp2963
g54
(dp2964
g74
g75
ssg63
g2958
sg56
(lp2965
g323
asbag49
(g70
g51
NtRp2966
(dp2967
g54
(dp2968
g81
g82
ssg63
g2958
sg56
(lp2969
S':'
asbag49
(g70
g51
NtRp2970
(dp2971
g54
(dp2972
sg63
g2958
sg56
(lp2973
g49
(g50
g51
NtRp2974
(dp2975
g54
(dp2976
g62
I3
ssg63
g2970
sg56
(lp2977
S'/'
asbasbasbag49
(g65
g51
NtRp2978
(dp2979
g54
(dp2980
sg63
g2874
sg56
(lp2981
g49
(g70
g51
NtRp2982
(dp2983
g54
(dp2984
g74
g75
ssg63
g2978
sg56
(lp2985
g344
asbag49
(g70
g51
NtRp2986
(dp2987
g54
(dp2988
g81
g82
ssg63
g2978
sg56
(lp2989
S':'
asbag49
(g70
g51
NtRp2990
(dp2991
g54
(dp2992
sg63
g2978
sg56
(lp2993
g49
(g50
g51
NtRp2994
(dp2995
g54
(dp2996
g62
I3
ssg63
g2990
sg56
(lp2997
S''
asbasbasbag49
(g65
g51
NtRp2998
(dp2999
g54
(dp3000
sg63
g2874
sg56
(lp3001
g49
(g70
g51
NtRp3002
(dp3003
g54
(dp3004
g74
g75
ssg63
g2998
sg56
(lp3005
g365
asbag49
(g70
g51
NtRp3006
(dp3007
g54
(dp3008
g81
g82
ssg63
g2998
sg56
(lp3009
S':'
asbag49
(g70
g51
NtRp3010
(dp3011
g54
(dp3012
sg63
g2998
sg56
(lp3013
g49
(g50
g51
NtRp3014
(dp3015
g54
(dp3016
g62
I3
ssg63
g3010
sg56
(lp3017
S''
asbasbasbasbasbasbasbasbasbasbasbag49
(g65
g51
NtRp3018
(dp3019
g54
(dp3020
sg63
g2804
sg56
(lp3021
g49
(g70
g51
NtRp3022
(dp3023
g54
(dp3024
g74
g75
ssg63
g3018
sg56
(lp3025
S'delimiters'
p3026
asbag49
(g70
g51
NtRp3027
(dp3028
g54
(dp3029
g81
g82
ssg63
g3018
sg56
(lp3030
S':'
asbag49
(g70
g51
NtRp3031
(dp3032
g54
(dp3033
sg63
g3018
sg56
(lp3034
g49
(g50
g51
NtRp3035
(dp3036
g54
(dp3037
g62
I5
ssg63
g3031
sg56
(lp3038
g49
(g58
g51
NtRp3039
(dp3040
g54
(dp3041
g62
I4
ssg63
Nsg56
(lp3042
g49
(g65
g51
NtRp3043
(dp3044
g54
(dp3045
sg63
g3039
sg56
(lp3046
g49
(g70
g51
NtRp3047
(dp3048
g54
(dp3049
sg63
g3043
sg56
(lp3050
g49
(g50
g51
NtRp3051
(dp3052
g54
(dp3053
g62
I4
ssg63
g3047
sg56
(lp3054
S'{{'
p3055
asbasbasbag49
(g65
g51
NtRp3056
(dp3057
g54
(dp3058
sg63
g3039
sg56
(lp3059
g49
(g70
g51
NtRp3060
(dp3061
g54
(dp3062
sg63
g3056
sg56
(lp3063
g49
(g50
g51
NtRp3064
(dp3065
g54
(dp3066
g62
I4
ssg63
g3060
sg56
(lp3067
S'}}'
p3068
asbasbasbasbasbasbasbag49
(g65
g51
NtRp3069
(dp3070
g54
(dp3071
sg63
g2804
sg56
(lp3072
g49
(g70
g51
NtRp3073
(dp3074
g54
(dp3075
g74
g75
ssg63
g3069
sg56
(lp3076
S'files'
p3077
asbag49
(g70
g51
NtRp3078
(dp3079
g54
(dp3080
g81
g82
ssg63
g3069
sg56
(lp3081
S':'
asbag49
(g70
g51
NtRp3082
(dp3083
g54
(dp3084
sg63
g3069
sg56
(lp3085
g49
(g50
g51
NtRp3086
(dp3087
g54
(dp3088
g62
I5
ssg63
g3082
sg56
(lp3089
g49
(g58
g51
NtRp3090
(dp3091
g54
(dp3092
g62
I4
ssg63
Nsg56
(lp3093
sbasbasbasbag49
(g65
g51
NtRp3094
(dp3095
g54
(dp3096
sg63
g2804
sg56
(lp3097
g49
(g70
g51
NtRp3098
(dp3099
g54
(dp3100
g74
g75
ssg63
g3094
sg56
(lp3101
S'flash'
p3102
asbag49
(g70
g51
NtRp3103
(dp3104
g54
(dp3105
g81
g82
ssg63
g3094
sg56
(lp3106
S':'
asbag49
(g70
g51
NtRp3107
(dp3108
g54
(dp3109
sg63
g3094
sg56
(lp3110
g49
(g50
g51
NtRp3111
(dp3112
g54
(dp3113
g62
I5
ssg63
g3107
sg56
(lp3114
S''
asbasbasbag49
(g65
g51
NtRp3115
(dp3116
g54
(dp3117
sg63
g2804
sg56
(lp3118
g49
(g70
g51
NtRp3119
(dp3120
g54
(dp3121
g74
g75
ssg63
g3115
sg56
(lp3122
S'generic_patterns'
p3123
asbag49
(g70
g51
NtRp3124
(dp3125
g54
(dp3126
g81
g82
ssg63
g3115
sg56
(lp3127
S':'
asbag49
(g70
g51
NtRp3128
(dp3129
g54
(dp3130
sg63
g3115
sg56
(lp3131
g49
(g50
g51
NtRp3132
(dp3133
g54
(dp3134
g62
I5
ssg63
g3128
sg56
(lp3135
g49
(g58
g51
NtRp3136
(dp3137
g54
(dp3138
g62
I4
ssg63
Nsg56
(lp3139
g49
(g65
g51
NtRp3140
(dp3141
g54
(dp3142
sg63
g3136
sg56
(lp3143
g49
(g70
g51
NtRp3144
(dp3145
g54
(dp3146
sg63
g3140
sg56
(lp3147
g49
(g50
g51
NtRp3148
(dp3149
g54
(dp3150
g62
I4
ssg63
g3144
sg56
(lp3151
S'*'
asbasbasbasbasbasbasbag49
(g65
g51
NtRp3152
(dp3153
g54
(dp3154
sg63
g2804
sg56
(lp3155
g49
(g70
g51
NtRp3156
(dp3157
g54
(dp3158
g74
g75
ssg63
g3152
sg56
(lp3159
S'headers'
p3160
asbag49
(g70
g51
NtRp3161
(dp3162
g54
(dp3163
g81
g82
ssg63
g3152
sg56
(lp3164
S':'
asbag49
(g70
g51
NtRp3165
(dp3166
g54
(dp3167
sg63
g3152
sg56
(lp3168
g49
(g50
g51
NtRp3169
(dp3170
g54
(dp3171
g62
I5
ssg63
g3165
sg56
(lp3172
g49
(g58
g51
NtRp3173
(dp3174
g54
(dp3175
g62
I4
ssg63
Nsg56
(lp3176
g49
(g65
g51
NtRp3177
(dp3178
g54
(dp3179
sg63
g3173
sg56
(lp3180
g49
(g70
g51
NtRp3181
(dp3182
g54
(dp3183
g74
g75
ssg63
g3177
sg56
(lp3184
S'Cache-Control'
p3185
asbag49
(g70
g51
NtRp3186
(dp3187
g54
(dp3188
g81
g82
ssg63
g3177
sg56
(lp3189
S':'
asbag49
(g70
g51
NtRp3190
(dp3191
g54
(dp3192
sg63
g3177
sg56
(lp3193
g49
(g50
g51
NtRp3194
(dp3195
g54
(dp3196
g62
I4
ssg63
g3190
sg56
(lp3197
S'no-store, no-cache, must-revalidate, post-check=0, pre-check=0'
p3198
asbasbasbag49
(g65
g51
NtRp3199
(dp3200
g54
(dp3201
sg63
g3173
sg56
(lp3202
g49
(g70
g51
NtRp3203
(dp3204
g54
(dp3205
g74
g75
ssg63
g3199
sg56
(lp3206
S'Content-Type'
p3207
asbag49
(g70
g51
NtRp3208
(dp3209
g54
(dp3210
g81
g82
ssg63
g3199
sg56
(lp3211
S':'
asbag49
(g70
g51
NtRp3212
(dp3213
g54
(dp3214
sg63
g3199
sg56
(lp3215
g49
(g50
g51
NtRp3216
(dp3217
g54
(dp3218
g62
I4
ssg63
g3212
sg56
(lp3219
S'text/html; charset=utf-8'
p3220
asbasbasbag49
(g65
g51
NtRp3221
(dp3222
g54
(dp3223
sg63
g3173
sg56
(lp3224
g49
(g70
g51
NtRp3225
(dp3226
g54
(dp3227
g74
g75
ssg63
g3221
sg56
(lp3228
S'Expires'
p3229
asbag49
(g70
g51
NtRp3230
(dp3231
g54
(dp3232
g81
g82
ssg63
g3221
sg56
(lp3233
S':'
asbag49
(g70
g51
NtRp3234
(dp3235
g54
(dp3236
sg63
g3221
sg56
(lp3237
g49
(g50
g51
NtRp3238
(dp3239
g54
(dp3240
g62
I4
ssg63
g3234
sg56
(lp3241
S'Thu, 15 Mar 2012 13:04:06 GMT'
p3242
asbasbasbag49
(g65
g51
NtRp3243
(dp3244
g54
(dp3245
sg63
g3173
sg56
(lp3246
g49
(g70
g51
NtRp3247
(dp3248
g54
(dp3249
g74
g75
ssg63
g3243
sg56
(lp3250
S'Pragma'
p3251
asbag49
(g70
g51
NtRp3252
(dp3253
g54
(dp3254
g81
g82
ssg63
g3243
sg56
(lp3255
S':'
asbag49
(g70
g51
NtRp3256
(dp3257
g54
(dp3258
sg63
g3243
sg56
(lp3259
g49
(g50
g51
NtRp3260
(dp3261
g54
(dp3262
g62
I4
ssg63
g3256
sg56
(lp3263
S'no-cache'
p3264
asbasbasbag49
(g65
g51
NtRp3265
(dp3266
g54
(dp3267
sg63
g3173
sg56
(lp3268
g49
(g70
g51
NtRp3269
(dp3270
g54
(dp3271
g74
g75
ssg63
g3265
sg56
(lp3272
S'X-Powered-By'
p3273
asbag49
(g70
g51
NtRp3274
(dp3275
g54
(dp3276
g81
g82
ssg63
g3265
sg56
(lp3277
S':'
asbag49
(g70
g51
NtRp3278
(dp3279
g54
(dp3280
sg63
g3265
sg56
(lp3281
g49
(g50
g51
NtRp3282
(dp3283
g54
(dp3284
g62
I4
ssg63
g3278
sg56
(lp3285
S'web2py'
p3286
asbasbasbasbasbasbasbag49
(g65
g51
NtRp3287
(dp3288
g54
(dp3289
sg63
g2804
sg56
(lp3290
g49
(g70
g51
NtRp3291
(dp3292
g54
(dp3293
g74
g75
ssg63
g3287
sg56
(lp3294
S'menu'
p3295
asbag49
(g70
g51
NtRp3296
(dp3297
g54
(dp3298
g81
g82
ssg63
g3287
sg56
(lp3299
S':'
asbag49
(g70
g51
NtRp3300
(dp3301
g54
(dp3302
sg63
g3287
sg56
(lp3303
g49
(g50
g51
NtRp3304
(dp3305
g54
(dp3306
g62
I5
ssg63
g3300
sg56
(lp3307
g49
(g58
g51
NtRp3308
(dp3309
g54
(dp3310
g62
I4
ssg63
Nsg56
(lp3311
g49
(g65
g51
NtRp3312
(dp3313
g54
(dp3314
sg63
g3308
sg56
(lp3315
g49
(g70
g51
NtRp3316
(dp3317
g54
(dp3318
sg63
g3312
sg56
(lp3319
g49
(g50
g51
NtRp3320
(dp3321
g54
(dp3322
g62
I4
ssg63
g3316
sg56
(lp3323
g49
(g58
g51
NtRp3324
(dp3325
g54
(dp3326
g62
I3
ssg63
Nsg56
(lp3327
g49
(g65
g51
NtRp3328
(dp3329
g54
(dp3330
sg63
g3324
sg56
(lp3331
g49
(g70
g51
NtRp3332
(dp3333
g54
(dp3334
sg63
g3328
sg56
(lp3335
g49
(g50
g51
NtRp3336
(dp3337
g54
(dp3338
g62
I3
ssg63
g3332
sg56
(lp3339
cgluon.languages
lazyT_unpickle
p3340
(S't\x04\x00\x00\x00Home'
tRp3341
asbasbasbag49
(g65
g51
NtRp3342
(dp3343
g54
(dp3344
sg63
g3324
sg56
(lp3345
g49
(g70
g51
NtRp3346
(dp3347
g54
(dp3348
sg63
g3342
sg56
(lp3349
g49
(g50
g51
NtRp3350
(dp3351
g54
(dp3352
g62
I3
ssg63
g3346
sg56
(lp3353
g92
asbasbasbag49
(g65
g51
NtRp3354
(dp3355
g54
(dp3356
sg63
g3324
sg56
(lp3357
g49
(g70
g51
NtRp3358
(dp3359
g54
(dp3360
sg63
g3354
sg56
(lp3361
g49
(g50
g51
NtRp3362
(dp3363
g54
(dp3364
g62
I3
ssg63
g3358
sg56
(lp3365
S'/parleyweb/default/index'
p3366
asbasbasbag49
(g65
g51
NtRp3367
(dp3368
g54
(dp3369
sg63
g3324
sg56
(lp3370
g49
(g70
g51
NtRp3371
(dp3372
g54
(dp3373
sg63
g3367
sg56
(lp3374
g49
(g50
g51
NtRp3375
(dp3376
g54
(dp3377
g62
I3
ssg63
g3371
sg56
(lp3378
g49
(g58
g51
NtRp3379
(dp3380
g54
(dp3381
g62
I2
ssg63
Nsg56
(lp3382
sbasbasbasbasbasbasbasbasbasbasbasbag49
(g65
g51
NtRp3383
(dp3384
g54
(dp3385
sg63
g2804
sg56
(lp3386
g49
(g70
g51
NtRp3387
(dp3388
g54
(dp3389
g74
g75
ssg63
g3383
sg56
(lp3390
S'meta'
p3391
asbag49
(g70
g51
NtRp3392
(dp3393
g54
(dp3394
g81
g82
ssg63
g3383
sg56
(lp3395
S':'
asbag49
(g70
g51
NtRp3396
(dp3397
g54
(dp3398
sg63
g3383
sg56
(lp3399
g49
(g50
g51
NtRp3400
(dp3401
g54
(dp3402
g62
I5
ssg63
g3396
sg56
(lp3403
g49
(g58
g51
NtRp3404
(dp3405
g54
(dp3406
g62
I4
ssg63
Nsg56
(lp3407
g49
(g65
g51
NtRp3408
(dp3409
g54
(dp3410
sg63
g3404
sg56
(lp3411
g49
(g70
g51
NtRp3412
(dp3413
g54
(dp3414
g74
g75
ssg63
g3408
sg56
(lp3415
S'author'
p3416
asbag49
(g70
g51
NtRp3417
(dp3418
g54
(dp3419
g81
g82
ssg63
g3408
sg56
(lp3420
S':'
asbag49
(g70
g51
NtRp3421
(dp3422
g54
(dp3423
sg63
g3408
sg56
(lp3424
g49
(g50
g51
NtRp3425
(dp3426
g54
(dp3427
g62
I4
ssg63
g3421
sg56
(lp3428
S'Your Name <you@example.com>'
p3429
asbasbasbag49
(g65
g51
NtRp3430
(dp3431
g54
(dp3432
sg63
g3404
sg56
(lp3433
g49
(g70
g51
NtRp3434
(dp3435
g54
(dp3436
g74
g75
ssg63
g3430
sg56
(lp3437
S'copyright'
p3438
asbag49
(g70
g51
NtRp3439
(dp3440
g54
(dp3441
g81
g82
ssg63
g3430
sg56
(lp3442
S':'
asbag49
(g70
g51
NtRp3443
(dp3444
g54
(dp3445
sg63
g3430
sg56
(lp3446
g49
(g50
g51
NtRp3447
(dp3448
g54
(dp3449
g62
I4
ssg63
g3443
sg56
(lp3450
S'Copyright 2011'
p3451
asbasbasbag49
(g65
g51
NtRp3452
(dp3453
g54
(dp3454
sg63
g3404
sg56
(lp3455
g49
(g70
g51
NtRp3456
(dp3457
g54
(dp3458
g74
g75
ssg63
g3452
sg56
(lp3459
S'description'
p3460
asbag49
(g70
g51
NtRp3461
(dp3462
g54
(dp3463
g81
g82
ssg63
g3452
sg56
(lp3464
S':'
asbag49
(g70
g51
NtRp3465
(dp3466
g54
(dp3467
sg63
g3452
sg56
(lp3468
g49
(g50
g51
NtRp3469
(dp3470
g54
(dp3471
g62
I4
ssg63
g3465
sg56
(lp3472
S'a cool new app'
p3473
asbasbasbag49
(g65
g51
NtRp3474
(dp3475
g54
(dp3476
sg63
g3404
sg56
(lp3477
g49
(g70
g51
NtRp3478
(dp3479
g54
(dp3480
g74
g75
ssg63
g3474
sg56
(lp3481
S'generator'
p3482
asbag49
(g70
g51
NtRp3483
(dp3484
g54
(dp3485
g81
g82
ssg63
g3474
sg56
(lp3486
S':'
asbag49
(g70
g51
NtRp3487
(dp3488
g54
(dp3489
sg63
g3474
sg56
(lp3490
g49
(g50
g51
NtRp3491
(dp3492
g54
(dp3493
g62
I4
ssg63
g3487
sg56
(lp3494
S'Web2py Web Framework'
p3495
asbasbasbag49
(g65
g51
NtRp3496
(dp3497
g54
(dp3498
sg63
g3404
sg56
(lp3499
g49
(g70
g51
NtRp3500
(dp3501
g54
(dp3502
g74
g75
ssg63
g3496
sg56
(lp3503
S'keywords'
p3504
asbag49
(g70
g51
NtRp3505
(dp3506
g54
(dp3507
g81
g82
ssg63
g3496
sg56
(lp3508
S':'
asbag49
(g70
g51
NtRp3509
(dp3510
g54
(dp3511
sg63
g3496
sg56
(lp3512
g49
(g50
g51
NtRp3513
(dp3514
g54
(dp3515
g62
I4
ssg63
g3509
sg56
(lp3516
S'web2py, python, framework'
p3517
asbasbasbasbasbasbasbag49
(g65
g51
NtRp3518
(dp3519
g54
(dp3520
sg63
g2804
sg56
(lp3521
g49
(g70
g51
NtRp3522
(dp3523
g54
(dp3524
g74
g75
ssg63
g3518
sg56
(lp3525
S'postprocessing'
p3526
asbag49
(g70
g51
NtRp3527
(dp3528
g54
(dp3529
g81
g82
ssg63
g3518
sg56
(lp3530
S':'
asbag49
(g70
g51
NtRp3531
(dp3532
g54
(dp3533
sg63
g3518
sg56
(lp3534
g49
(g50
g51
NtRp3535
(dp3536
g54
(dp3537
g62
I5
ssg63
g3531
sg56
(lp3538
g49
(g58
g51
NtRp3539
(dp3540
g54
(dp3541
g62
I4
ssg63
Nsg56
(lp3542
sbasbasbasbag49
(g65
g51
NtRp3543
(dp3544
g54
(dp3545
sg63
g2804
sg56
(lp3546
g49
(g70
g51
NtRp3547
(dp3548
g54
(dp3549
g74
g75
ssg63
g3543
sg56
(lp3550
S'session_file'
p3551
asbag49
(g70
g51
NtRp3552
(dp3553
g54
(dp3554
g81
g82
ssg63
g3543
sg56
(lp3555
S':'
asbag49
(g70
g51
NtRp3556
(dp3557
g54
(dp3558
sg63
g3543
sg56
(lp3559
g49
(g50
g51
NtRp3560
(dp3561
g54
(dp3562
g62
I5
ssg63
g3556
sg56
(lp3563
S"<open file 'D:\\Dise\xf1o Web\\Proyectos\\Parleyweb\\web2py\\applications\\parleyweb\\sessions\\127.0.0.1-8bc0d624-a7ac-4822-aaf0-ed4b06ce8341', mode 'rb+' at 0x078F1068>"
p3564
asbasbasbag49
(g65
g51
NtRp3565
(dp3566
g54
(dp3567
sg63
g2804
sg56
(lp3568
g49
(g70
g51
NtRp3569
(dp3570
g54
(dp3571
g74
g75
ssg63
g3565
sg56
(lp3572
S'session_filename'
p3573
asbag49
(g70
g51
NtRp3574
(dp3575
g54
(dp3576
g81
g82
ssg63
g3565
sg56
(lp3577
S':'
asbag49
(g70
g51
NtRp3578
(dp3579
g54
(dp3580
sg63
g3565
sg56
(lp3581
g49
(g50
g51
NtRp3582
(dp3583
g54
(dp3584
g62
I5
ssg63
g3578
sg56
(lp3585
S'D:\\Dise\xf1o Web\\Proyectos\\Parleyweb\\web2py\\applications\\parleyweb\\sessions\\127.0.0.1-8bc0d624-a7ac-4822-aaf0-ed4b06ce8341'
p3586
asbasbasbag49
(g65
g51
NtRp3587
(dp3588
g54
(dp3589
sg63
g2804
sg56
(lp3590
g49
(g70
g51
NtRp3591
(dp3592
g54
(dp3593
g74
g75
ssg63
g3587
sg56
(lp3594
S'session_id'
p3595
asbag49
(g70
g51
NtRp3596
(dp3597
g54
(dp3598
g81
g82
ssg63
g3587
sg56
(lp3599
S':'
asbag49
(g70
g51
NtRp3600
(dp3601
g54
(dp3602
sg63
g3587
sg56
(lp3603
g49
(g50
g51
NtRp3604
(dp3605
g54
(dp3606
g62
I5
ssg63
g3600
sg56
(lp3607
S'127.0.0.1-8bc0d624-a7ac-4822-aaf0-ed4b06ce8341'
p3608
asbasbasbag49
(g65
g51
NtRp3609
(dp3610
g54
(dp3611
sg63
g2804
sg56
(lp3612
g49
(g70
g51
NtRp3613
(dp3614
g54
(dp3615
g74
g75
ssg63
g3609
sg56
(lp3616
S'session_id_name'
p3617
asbag49
(g70
g51
NtRp3618
(dp3619
g54
(dp3620
g81
g82
ssg63
g3609
sg56
(lp3621
S':'
asbag49
(g70
g51
NtRp3622
(dp3623
g54
(dp3624
sg63
g3609
sg56
(lp3625
g49
(g50
g51
NtRp3626
(dp3627
g54
(dp3628
g62
I5
ssg63
g3622
sg56
(lp3629
g2861
asbasbasbag49
(g65
g51
NtRp3630
(dp3631
g54
(dp3632
sg63
g2804
sg56
(lp3633
g49
(g70
g51
NtRp3634
(dp3635
g54
(dp3636
g74
g75
ssg63
g3630
sg56
(lp3637
S'session_locked'
p3638
asbag49
(g70
g51
NtRp3639
(dp3640
g54
(dp3641
g81
g82
ssg63
g3630
sg56
(lp3642
S':'
asbag49
(g70
g51
NtRp3643
(dp3644
g54
(dp3645
sg63
g3630
sg56
(lp3646
g49
(g50
g51
NtRp3647
(dp3648
g54
(dp3649
g62
I5
ssg63
g3643
sg56
(lp3650
g1419
asbasbasbag49
(g65
g51
NtRp3651
(dp3652
g54
(dp3653
sg63
g2804
sg56
(lp3654
g49
(g70
g51
NtRp3655
(dp3656
g54
(dp3657
g74
g75
ssg63
g3651
sg56
(lp3658
S'session_new'
p3659
asbag49
(g70
g51
NtRp3660
(dp3661
g54
(dp3662
g81
g82
ssg63
g3651
sg56
(lp3663
S':'
asbag49
(g70
g51
NtRp3664
(dp3665
g54
(dp3666
sg63
g3651
sg56
(lp3667
g49
(g50
g51
NtRp3668
(dp3669
g54
(dp3670
g62
I5
ssg63
g3664
sg56
(lp3671
g92
asbasbasbag49
(g65
g51
NtRp3672
(dp3673
g54
(dp3674
sg63
g2804
sg56
(lp3675
g49
(g70
g51
NtRp3676
(dp3677
g54
(dp3678
g74
g75
ssg63
g3672
sg56
(lp3679
S'status'
p3680
asbag49
(g70
g51
NtRp3681
(dp3682
g54
(dp3683
g81
g82
ssg63
g3672
sg56
(lp3684
S':'
asbag49
(g70
g51
NtRp3685
(dp3686
g54
(dp3687
sg63
g3672
sg56
(lp3688
g49
(g50
g51
NtRp3689
(dp3690
g54
(dp3691
g62
I5
ssg63
g3685
sg56
(lp3692
S'200'
p3693
asbasbasbag49
(g65
g51
NtRp3694
(dp3695
g54
(dp3696
sg63
g2804
sg56
(lp3697
g49
(g70
g51
NtRp3698
(dp3699
g54
(dp3700
g74
g75
ssg63
g3694
sg56
(lp3701
S'subtitle'
p3702
asbag49
(g70
g51
NtRp3703
(dp3704
g54
(dp3705
g81
g82
ssg63
g3694
sg56
(lp3706
S':'
asbag49
(g70
g51
NtRp3707
(dp3708
g54
(dp3709
sg63
g3694
sg56
(lp3710
g49
(g50
g51
NtRp3711
(dp3712
g54
(dp3713
g62
I5
ssg63
g3707
sg56
(lp3714
g3340
(S's\t\x00\x00\x00Adaptame!'
tRp3715
asbasbasbag49
(g65
g51
NtRp3716
(dp3717
g54
(dp3718
sg63
g2804
sg56
(lp3719
g49
(g70
g51
NtRp3720
(dp3721
g54
(dp3722
g74
g75
ssg63
g3716
sg56
(lp3723
S'title'
p3724
asbag49
(g70
g51
NtRp3725
(dp3726
g54
(dp3727
g81
g82
ssg63
g3716
sg56
(lp3728
S':'
asbag49
(g70
g51
NtRp3729
(dp3730
g54
(dp3731
sg63
g3716
sg56
(lp3732
g49
(g50
g51
NtRp3733
(dp3734
g54
(dp3735
g62
I5
ssg63
g3729
sg56
(lp3736
S'Parleyweb'
p3737
asbasbasbag49
(g65
g51
NtRp3738
(dp3739
g54
(dp3740
sg63
g2804
sg56
(lp3741
g49
(g70
g51
NtRp3742
(dp3743
g54
(dp3744
g74
g75
ssg63
g3738
sg56
(lp3745
g2083
asbag49
(g70
g51
NtRp3746
(dp3747
g54
(dp3748
g81
g82
ssg63
g3738
sg56
(lp3749
S':'
asbag49
(g70
g51
NtRp3750
(dp3751
g54
(dp3752
sg63
g3738
sg56
(lp3753
g49
(g50
g51
NtRp3754
(dp3755
g54
(dp3756
g62
I5
ssg63
g3750
sg56
(lp3757
g2096
asbasbasbag49
(g65
g51
NtRp3758
(dp3759
g54
(dp3760
sg63
g2804
sg56
(lp3761
g49
(g70
g51
NtRp3762
(dp3763
g54
(dp3764
g74
g75
ssg63
g3758
sg56
(lp3765
S'view'
p3766
asbag49
(g70
g51
NtRp3767
(dp3768
g54
(dp3769
g81
g82
ssg63
g3758
sg56
(lp3770
S':'
asbag49
(g70
g51
NtRp3771
(dp3772
g54
(dp3773
sg63
g3758
sg56
(lp3774
g49
(g50
g51
NtRp3775
(dp3776
g54
(dp3777
g62
I5
ssg63
g3771
sg56
(lp3778
S'admin/relacionar_palabra.html'
p3779
asbasbasbasbasbsS'locals'
p3780
(dp3781
ssS'traceback'
p3782
S'Traceback (most recent call last):\n  File "gluon/restricted.py", line 205, in restricted\n  File "D:\\Dise\xf1o Web\\Proyectos\\Parleyweb\\web2py\\applications\\parleyweb\\controllers/admin.py", line 260, in <module>\n  File "gluon/globals.py", line 173, in <lambda>\n  File "D:\\Dise\xf1o Web\\Proyectos\\Parleyweb\\web2py\\applications\\parleyweb\\controllers/admin.py", line 206, in relacionar_palabra\nTypeError: \'NoneType\' object is not callable\n'
p3783
s.