(dp1
S'output'
p2
S"<type 'exceptions.SyntaxError'> invalid syntax (globales.py, line 6)"
p3
sS'layer'
p4
S'D:\\Dise\xf1o Web\\Proyectos\\Parleyweb\\web2py\\applications\\parleyweb\\models\\globales.py'
p5
sS'code'
p6
S'\nformulario_busqueda = SQLFORM(db.busqueda, formstyle=\'divs\', _id="buscar_palabra_parley", submit_button=\'Enviar\')\nif formulario_busqueda.accepts(request.vars, session, dbio=False):\n    redirect(URL(\'default\', \'mostrar\', args=request.post_vars.buscar_palabra))\nelif formulario_busqueda.errors:\n    redirect(URL(\'default\', \'index\')\n   \n\n'
p7
sS'snapshot'
p8
(dp9
S'exception'
p10
(dp11
S'__getslice__'
p12
S"<method-wrapper '__getslice__' of exceptions.SyntaxError object at 0x07255A30>"
p13
sS'text'
p14
S'"    redirect(URL(\'default\', \'index\')\\n"'
p15
sS'__str__'
p16
S"<method-wrapper '__str__' of exceptions.SyntaxError object at 0x07255A30>"
p17
sS'__reduce__'
p18
S'<built-in method __reduce__ of exceptions.SyntaxError object at 0x07255A30>'
p19
sS'__dict__'
p20
S'{}'
p21
sS'__init__'
p22
S"<method-wrapper '__init__' of exceptions.SyntaxError object at 0x07255A30>"
p23
sS'__setattr__'
p24
S"<method-wrapper '__setattr__' of exceptions.SyntaxError object at 0x07255A30>"
p25
sS'__reduce_ex__'
p26
S'<built-in method __reduce_ex__ of exceptions.SyntaxError object at 0x07255A30>'
p27
sS'__new__'
p28
S'<built-in method __new__ of type object at 0x1E1CDBD0>'
p29
sS'__class__'
p30
S"<type 'exceptions.SyntaxError'>"
p31
sS'filename'
p32
S"'D:\\\\Dise\\xf1o Web\\\\Proyectos\\\\Parleyweb\\\\web2py\\\\applications\\\\parleyweb\\\\models\\\\globales.py'"
p33
sS'lineno'
p34
S'6'
sS'msg'
p35
S"'invalid syntax'"
p36
sS'__doc__'
p37
S"'Invalid syntax.'"
p38
sS'__getitem__'
p39
S"<method-wrapper '__getitem__' of exceptions.SyntaxError object at 0x07255A30>"
p40
sS'__setstate__'
p41
S'<built-in method __setstate__ of exceptions.SyntaxError object at 0x07255A30>'
p42
sS'__getattribute__'
p43
S"<method-wrapper '__getattribute__' of exceptions.SyntaxError object at 0x07255A30>"
p44
sS'print_file_and_line'
p45
S'None'
p46
sS'args'
p47
S'(\'invalid syntax\', (\'D:\\\\Dise\\xf1o Web\\\\Proyectos\\\\Parleyweb\\\\web2py\\\\applications\\\\parleyweb\\\\models\\\\globales.py\', 6, 37, "    redirect(URL(\'default\', \'index\')\\n"))'
p48
sS'offset'
p49
S'37'
p50
sS'__delattr__'
p51
S"<method-wrapper '__delattr__' of exceptions.SyntaxError object at 0x07255A30>"
p52
sS'__repr__'
p53
S"<method-wrapper '__repr__' of exceptions.SyntaxError object at 0x07255A30>"
p54
sS'__hash__'
p55
S"<method-wrapper '__hash__' of exceptions.SyntaxError object at 0x07255A30>"
p56
ssS'evalue'
p57
S'invalid syntax (globales.py, line 6)'
p58
sS'request'
p59
ccopy_reg
_reconstructor
p60
(cgluon.html
BEAUTIFY
p61
c__builtin__
object
p62
NtRp63
(dp64
S'attributes'
p65
(dp66
sS'components'
p67
(lp68
g60
(cgluon.html
TABLE
p69
g62
NtRp70
(dp71
g65
(dp72
S'level'
p73
I5
ssS'parent'
p74
Nsg67
(lp75
g60
(cgluon.html
TR
p76
g62
NtRp77
(dp78
g65
(dp79
sg74
g70
sg67
(lp80
g60
(cgluon.html
TD
p81
g62
NtRp82
(dp83
g65
(dp84
S'_style'
p85
S'font-weight:bold;vertical-align:top'
p86
ssg74
g77
sg67
(lp87
S'ajax'
p88
asbag60
(g81
g62
NtRp89
(dp90
g65
(dp91
S'_valign'
p92
S'top'
p93
ssg74
g77
sg67
(lp94
S':'
asbag60
(g81
g62
NtRp95
(dp96
g65
(dp97
sg74
g77
sg67
(lp98
g60
(g61
g62
NtRp99
(dp100
g65
(dp101
g73
I5
ssg74
g95
sg67
(lp102
S'False'
p103
asbasbasbag60
(g76
g62
NtRp104
(dp105
g65
(dp106
sg74
g70
sg67
(lp107
g60
(g81
g62
NtRp108
(dp109
g65
(dp110
g85
g86
ssg74
g104
sg67
(lp111
S'application'
p112
asbag60
(g81
g62
NtRp113
(dp114
g65
(dp115
g92
g93
ssg74
g104
sg67
(lp116
S':'
asbag60
(g81
g62
NtRp117
(dp118
g65
(dp119
sg74
g104
sg67
(lp120
g60
(g61
g62
NtRp121
(dp122
g65
(dp123
g73
I5
ssg74
g117
sg67
(lp124
S'parleyweb'
p125
asbasbasbag60
(g76
g62
NtRp126
(dp127
g65
(dp128
sg74
g70
sg67
(lp129
g60
(g81
g62
NtRp130
(dp131
g65
(dp132
g85
g86
ssg74
g126
sg67
(lp133
g47
asbag60
(g81
g62
NtRp134
(dp135
g65
(dp136
g92
g93
ssg74
g126
sg67
(lp137
S':'
asbag60
(g81
g62
NtRp138
(dp139
g65
(dp140
sg74
g126
sg67
(lp141
g60
(g61
g62
NtRp142
(dp143
g65
(dp144
g73
I5
ssg74
g138
sg67
(lp145
g60
(g69
g62
NtRp146
(dp147
g65
(dp148
g73
I4
ssg74
Nsg67
(lp149
sbasbasbasbag60
(g76
g62
NtRp150
(dp151
g65
(dp152
sg74
g70
sg67
(lp153
g60
(g81
g62
NtRp154
(dp155
g65
(dp156
g85
g86
ssg74
g150
sg67
(lp157
S'body'
p158
asbag60
(g81
g62
NtRp159
(dp160
g65
(dp161
g92
g93
ssg74
g150
sg67
(lp162
S':'
asbag60
(g81
g62
NtRp163
(dp164
g65
(dp165
sg74
g150
sg67
(lp166
g60
(g61
g62
NtRp167
(dp168
g65
(dp169
g73
I5
ssg74
g163
sg67
(lp170
S'<cStringIO.StringO object at 0x06E885C0>'
p171
asbasbasbag60
(g76
g62
NtRp172
(dp173
g65
(dp174
sg74
g70
sg67
(lp175
g60
(g81
g62
NtRp176
(dp177
g65
(dp178
g85
g86
ssg74
g172
sg67
(lp179
S'client'
p180
asbag60
(g81
g62
NtRp181
(dp182
g65
(dp183
g92
g93
ssg74
g172
sg67
(lp184
S':'
asbag60
(g81
g62
NtRp185
(dp186
g65
(dp187
sg74
g172
sg67
(lp188
g60
(g61
g62
NtRp189
(dp190
g65
(dp191
g73
I5
ssg74
g185
sg67
(lp192
S'127.0.0.1'
p193
asbasbasbag60
(g76
g62
NtRp194
(dp195
g65
(dp196
sg74
g70
sg67
(lp197
g60
(g81
g62
NtRp198
(dp199
g65
(dp200
g85
g86
ssg74
g194
sg67
(lp201
S'controller'
p202
asbag60
(g81
g62
NtRp203
(dp204
g65
(dp205
g92
g93
ssg74
g194
sg67
(lp206
S':'
asbag60
(g81
g62
NtRp207
(dp208
g65
(dp209
sg74
g194
sg67
(lp210
g60
(g61
g62
NtRp211
(dp212
g65
(dp213
g73
I5
ssg74
g207
sg67
(lp214
S'admin'
p215
asbasbasbag60
(g76
g62
NtRp216
(dp217
g65
(dp218
sg74
g70
sg67
(lp219
g60
(g81
g62
NtRp220
(dp221
g65
(dp222
g85
g86
ssg74
g216
sg67
(lp223
S'cookies'
p224
asbag60
(g81
g62
NtRp225
(dp226
g65
(dp227
g92
g93
ssg74
g216
sg67
(lp228
S':'
asbag60
(g81
g62
NtRp229
(dp230
g65
(dp231
sg74
g216
sg67
(lp232
g60
(g61
g62
NtRp233
(dp234
g65
(dp235
g73
I5
ssg74
g229
sg67
(lp236
g60
(g69
g62
NtRp237
(dp238
g65
(dp239
g73
I4
ssg74
Nsg67
(lp240
g60
(g76
g62
NtRp241
(dp242
g65
(dp243
sg74
g237
sg67
(lp244
g60
(g81
g62
NtRp245
(dp246
g65
(dp247
g85
g86
ssg74
g241
sg67
(lp248
S'session_id_admin'
p249
asbag60
(g81
g62
NtRp250
(dp251
g65
(dp252
g92
g93
ssg74
g241
sg67
(lp253
S':'
asbag60
(g81
g62
NtRp254
(dp255
g65
(dp256
sg74
g241
sg67
(lp257
g60
(g61
g62
NtRp258
(dp259
g65
(dp260
g73
I4
ssg74
g254
sg67
(lp261
g60
(g69
g62
NtRp262
(dp263
g65
(dp264
g73
I3
ssg74
Nsg67
(lp265
g60
(g76
g62
NtRp266
(dp267
g65
(dp268
sg74
g262
sg67
(lp269
g60
(g81
g62
NtRp270
(dp271
g65
(dp272
g85
g86
ssg74
g266
sg67
(lp273
S'comment'
p274
asbag60
(g81
g62
NtRp275
(dp276
g65
(dp277
g92
g93
ssg74
g266
sg67
(lp278
S':'
asbag60
(g81
g62
NtRp279
(dp280
g65
(dp281
sg74
g266
sg67
(lp282
g60
(g61
g62
NtRp283
(dp284
g65
(dp285
g73
I3
ssg74
g279
sg67
(lp286
S''
asbasbasbag60
(g76
g62
NtRp287
(dp288
g65
(dp289
sg74
g262
sg67
(lp290
g60
(g81
g62
NtRp291
(dp292
g65
(dp293
g85
g86
ssg74
g287
sg67
(lp294
S'domain'
p295
asbag60
(g81
g62
NtRp296
(dp297
g65
(dp298
g92
g93
ssg74
g287
sg67
(lp299
S':'
asbag60
(g81
g62
NtRp300
(dp301
g65
(dp302
sg74
g287
sg67
(lp303
g60
(g61
g62
NtRp304
(dp305
g65
(dp306
g73
I3
ssg74
g300
sg67
(lp307
S''
asbasbasbag60
(g76
g62
NtRp308
(dp309
g65
(dp310
sg74
g262
sg67
(lp311
g60
(g81
g62
NtRp312
(dp313
g65
(dp314
g85
g86
ssg74
g308
sg67
(lp315
S'expires'
p316
asbag60
(g81
g62
NtRp317
(dp318
g65
(dp319
g92
g93
ssg74
g308
sg67
(lp320
S':'
asbag60
(g81
g62
NtRp321
(dp322
g65
(dp323
sg74
g308
sg67
(lp324
g60
(g61
g62
NtRp325
(dp326
g65
(dp327
g73
I3
ssg74
g321
sg67
(lp328
S''
asbasbasbag60
(g76
g62
NtRp329
(dp330
g65
(dp331
sg74
g262
sg67
(lp332
g60
(g81
g62
NtRp333
(dp334
g65
(dp335
g85
g86
ssg74
g329
sg67
(lp336
S'max-age'
p337
asbag60
(g81
g62
NtRp338
(dp339
g65
(dp340
g92
g93
ssg74
g329
sg67
(lp341
S':'
asbag60
(g81
g62
NtRp342
(dp343
g65
(dp344
sg74
g329
sg67
(lp345
g60
(g61
g62
NtRp346
(dp347
g65
(dp348
g73
I3
ssg74
g342
sg67
(lp349
S''
asbasbasbag60
(g76
g62
NtRp350
(dp351
g65
(dp352
sg74
g262
sg67
(lp353
g60
(g81
g62
NtRp354
(dp355
g65
(dp356
g85
g86
ssg74
g350
sg67
(lp357
S'path'
p358
asbag60
(g81
g62
NtRp359
(dp360
g65
(dp361
g92
g93
ssg74
g350
sg67
(lp362
S':'
asbag60
(g81
g62
NtRp363
(dp364
g65
(dp365
sg74
g350
sg67
(lp366
g60
(g61
g62
NtRp367
(dp368
g65
(dp369
g73
I3
ssg74
g363
sg67
(lp370
S''
asbasbasbag60
(g76
g62
NtRp371
(dp372
g65
(dp373
sg74
g262
sg67
(lp374
g60
(g81
g62
NtRp375
(dp376
g65
(dp377
g85
g86
ssg74
g371
sg67
(lp378
S'secure'
p379
asbag60
(g81
g62
NtRp380
(dp381
g65
(dp382
g92
g93
ssg74
g371
sg67
(lp383
S':'
asbag60
(g81
g62
NtRp384
(dp385
g65
(dp386
sg74
g371
sg67
(lp387
g60
(g61
g62
NtRp388
(dp389
g65
(dp390
g73
I3
ssg74
g384
sg67
(lp391
S''
asbasbasbag60
(g76
g62
NtRp392
(dp393
g65
(dp394
sg74
g262
sg67
(lp395
g60
(g81
g62
NtRp396
(dp397
g65
(dp398
g85
g86
ssg74
g392
sg67
(lp399
S'version'
p400
asbag60
(g81
g62
NtRp401
(dp402
g65
(dp403
g92
g93
ssg74
g392
sg67
(lp404
S':'
asbag60
(g81
g62
NtRp405
(dp406
g65
(dp407
sg74
g392
sg67
(lp408
g60
(g61
g62
NtRp409
(dp410
g65
(dp411
g73
I3
ssg74
g405
sg67
(lp412
S''
asbasbasbasbasbasbasbag60
(g76
g62
NtRp413
(dp414
g65
(dp415
sg74
g237
sg67
(lp416
g60
(g81
g62
NtRp417
(dp418
g65
(dp419
g85
g86
ssg74
g413
sg67
(lp420
S'session_id_parleyweb'
p421
asbag60
(g81
g62
NtRp422
(dp423
g65
(dp424
g92
g93
ssg74
g413
sg67
(lp425
S':'
asbag60
(g81
g62
NtRp426
(dp427
g65
(dp428
sg74
g413
sg67
(lp429
g60
(g61
g62
NtRp430
(dp431
g65
(dp432
g73
I4
ssg74
g426
sg67
(lp433
g60
(g69
g62
NtRp434
(dp435
g65
(dp436
g73
I3
ssg74
Nsg67
(lp437
g60
(g76
g62
NtRp438
(dp439
g65
(dp440
sg74
g434
sg67
(lp441
g60
(g81
g62
NtRp442
(dp443
g65
(dp444
g85
g86
ssg74
g438
sg67
(lp445
g274
asbag60
(g81
g62
NtRp446
(dp447
g65
(dp448
g92
g93
ssg74
g438
sg67
(lp449
S':'
asbag60
(g81
g62
NtRp450
(dp451
g65
(dp452
sg74
g438
sg67
(lp453
g60
(g61
g62
NtRp454
(dp455
g65
(dp456
g73
I3
ssg74
g450
sg67
(lp457
S''
asbasbasbag60
(g76
g62
NtRp458
(dp459
g65
(dp460
sg74
g434
sg67
(lp461
g60
(g81
g62
NtRp462
(dp463
g65
(dp464
g85
g86
ssg74
g458
sg67
(lp465
g295
asbag60
(g81
g62
NtRp466
(dp467
g65
(dp468
g92
g93
ssg74
g458
sg67
(lp469
S':'
asbag60
(g81
g62
NtRp470
(dp471
g65
(dp472
sg74
g458
sg67
(lp473
g60
(g61
g62
NtRp474
(dp475
g65
(dp476
g73
I3
ssg74
g470
sg67
(lp477
S''
asbasbasbag60
(g76
g62
NtRp478
(dp479
g65
(dp480
sg74
g434
sg67
(lp481
g60
(g81
g62
NtRp482
(dp483
g65
(dp484
g85
g86
ssg74
g478
sg67
(lp485
g316
asbag60
(g81
g62
NtRp486
(dp487
g65
(dp488
g92
g93
ssg74
g478
sg67
(lp489
S':'
asbag60
(g81
g62
NtRp490
(dp491
g65
(dp492
sg74
g478
sg67
(lp493
g60
(g61
g62
NtRp494
(dp495
g65
(dp496
g73
I3
ssg74
g490
sg67
(lp497
S''
asbasbasbag60
(g76
g62
NtRp498
(dp499
g65
(dp500
sg74
g434
sg67
(lp501
g60
(g81
g62
NtRp502
(dp503
g65
(dp504
g85
g86
ssg74
g498
sg67
(lp505
g337
asbag60
(g81
g62
NtRp506
(dp507
g65
(dp508
g92
g93
ssg74
g498
sg67
(lp509
S':'
asbag60
(g81
g62
NtRp510
(dp511
g65
(dp512
sg74
g498
sg67
(lp513
g60
(g61
g62
NtRp514
(dp515
g65
(dp516
g73
I3
ssg74
g510
sg67
(lp517
S''
asbasbasbag60
(g76
g62
NtRp518
(dp519
g65
(dp520
sg74
g434
sg67
(lp521
g60
(g81
g62
NtRp522
(dp523
g65
(dp524
g85
g86
ssg74
g518
sg67
(lp525
g358
asbag60
(g81
g62
NtRp526
(dp527
g65
(dp528
g92
g93
ssg74
g518
sg67
(lp529
S':'
asbag60
(g81
g62
NtRp530
(dp531
g65
(dp532
sg74
g518
sg67
(lp533
g60
(g61
g62
NtRp534
(dp535
g65
(dp536
g73
I3
ssg74
g530
sg67
(lp537
S''
asbasbasbag60
(g76
g62
NtRp538
(dp539
g65
(dp540
sg74
g434
sg67
(lp541
g60
(g81
g62
NtRp542
(dp543
g65
(dp544
g85
g86
ssg74
g538
sg67
(lp545
g379
asbag60
(g81
g62
NtRp546
(dp547
g65
(dp548
g92
g93
ssg74
g538
sg67
(lp549
S':'
asbag60
(g81
g62
NtRp550
(dp551
g65
(dp552
sg74
g538
sg67
(lp553
g60
(g61
g62
NtRp554
(dp555
g65
(dp556
g73
I3
ssg74
g550
sg67
(lp557
S''
asbasbasbag60
(g76
g62
NtRp558
(dp559
g65
(dp560
sg74
g434
sg67
(lp561
g60
(g81
g62
NtRp562
(dp563
g65
(dp564
g85
g86
ssg74
g558
sg67
(lp565
g400
asbag60
(g81
g62
NtRp566
(dp567
g65
(dp568
g92
g93
ssg74
g558
sg67
(lp569
S':'
asbag60
(g81
g62
NtRp570
(dp571
g65
(dp572
sg74
g558
sg67
(lp573
g60
(g61
g62
NtRp574
(dp575
g65
(dp576
g73
I3
ssg74
g570
sg67
(lp577
S''
asbasbasbasbasbasbasbag60
(g76
g62
NtRp578
(dp579
g65
(dp580
sg74
g237
sg67
(lp581
g60
(g81
g62
NtRp582
(dp583
g65
(dp584
g85
g86
ssg74
g578
sg67
(lp585
S'session_id_welcome'
p586
asbag60
(g81
g62
NtRp587
(dp588
g65
(dp589
g92
g93
ssg74
g578
sg67
(lp590
S':'
asbag60
(g81
g62
NtRp591
(dp592
g65
(dp593
sg74
g578
sg67
(lp594
g60
(g61
g62
NtRp595
(dp596
g65
(dp597
g73
I4
ssg74
g591
sg67
(lp598
g60
(g69
g62
NtRp599
(dp600
g65
(dp601
g73
I3
ssg74
Nsg67
(lp602
g60
(g76
g62
NtRp603
(dp604
g65
(dp605
sg74
g599
sg67
(lp606
g60
(g81
g62
NtRp607
(dp608
g65
(dp609
g85
g86
ssg74
g603
sg67
(lp610
g274
asbag60
(g81
g62
NtRp611
(dp612
g65
(dp613
g92
g93
ssg74
g603
sg67
(lp614
S':'
asbag60
(g81
g62
NtRp615
(dp616
g65
(dp617
sg74
g603
sg67
(lp618
g60
(g61
g62
NtRp619
(dp620
g65
(dp621
g73
I3
ssg74
g615
sg67
(lp622
S''
asbasbasbag60
(g76
g62
NtRp623
(dp624
g65
(dp625
sg74
g599
sg67
(lp626
g60
(g81
g62
NtRp627
(dp628
g65
(dp629
g85
g86
ssg74
g623
sg67
(lp630
g295
asbag60
(g81
g62
NtRp631
(dp632
g65
(dp633
g92
g93
ssg74
g623
sg67
(lp634
S':'
asbag60
(g81
g62
NtRp635
(dp636
g65
(dp637
sg74
g623
sg67
(lp638
g60
(g61
g62
NtRp639
(dp640
g65
(dp641
g73
I3
ssg74
g635
sg67
(lp642
S''
asbasbasbag60
(g76
g62
NtRp643
(dp644
g65
(dp645
sg74
g599
sg67
(lp646
g60
(g81
g62
NtRp647
(dp648
g65
(dp649
g85
g86
ssg74
g643
sg67
(lp650
g316
asbag60
(g81
g62
NtRp651
(dp652
g65
(dp653
g92
g93
ssg74
g643
sg67
(lp654
S':'
asbag60
(g81
g62
NtRp655
(dp656
g65
(dp657
sg74
g643
sg67
(lp658
g60
(g61
g62
NtRp659
(dp660
g65
(dp661
g73
I3
ssg74
g655
sg67
(lp662
S''
asbasbasbag60
(g76
g62
NtRp663
(dp664
g65
(dp665
sg74
g599
sg67
(lp666
g60
(g81
g62
NtRp667
(dp668
g65
(dp669
g85
g86
ssg74
g663
sg67
(lp670
g337
asbag60
(g81
g62
NtRp671
(dp672
g65
(dp673
g92
g93
ssg74
g663
sg67
(lp674
S':'
asbag60
(g81
g62
NtRp675
(dp676
g65
(dp677
sg74
g663
sg67
(lp678
g60
(g61
g62
NtRp679
(dp680
g65
(dp681
g73
I3
ssg74
g675
sg67
(lp682
S''
asbasbasbag60
(g76
g62
NtRp683
(dp684
g65
(dp685
sg74
g599
sg67
(lp686
g60
(g81
g62
NtRp687
(dp688
g65
(dp689
g85
g86
ssg74
g683
sg67
(lp690
g358
asbag60
(g81
g62
NtRp691
(dp692
g65
(dp693
g92
g93
ssg74
g683
sg67
(lp694
S':'
asbag60
(g81
g62
NtRp695
(dp696
g65
(dp697
sg74
g683
sg67
(lp698
g60
(g61
g62
NtRp699
(dp700
g65
(dp701
g73
I3
ssg74
g695
sg67
(lp702
S''
asbasbasbag60
(g76
g62
NtRp703
(dp704
g65
(dp705
sg74
g599
sg67
(lp706
g60
(g81
g62
NtRp707
(dp708
g65
(dp709
g85
g86
ssg74
g703
sg67
(lp710
g379
asbag60
(g81
g62
NtRp711
(dp712
g65
(dp713
g92
g93
ssg74
g703
sg67
(lp714
S':'
asbag60
(g81
g62
NtRp715
(dp716
g65
(dp717
sg74
g703
sg67
(lp718
g60
(g61
g62
NtRp719
(dp720
g65
(dp721
g73
I3
ssg74
g715
sg67
(lp722
S''
asbasbasbag60
(g76
g62
NtRp723
(dp724
g65
(dp725
sg74
g599
sg67
(lp726
g60
(g81
g62
NtRp727
(dp728
g65
(dp729
g85
g86
ssg74
g723
sg67
(lp730
g400
asbag60
(g81
g62
NtRp731
(dp732
g65
(dp733
g92
g93
ssg74
g723
sg67
(lp734
S':'
asbag60
(g81
g62
NtRp735
(dp736
g65
(dp737
sg74
g723
sg67
(lp738
g60
(g61
g62
NtRp739
(dp740
g65
(dp741
g73
I3
ssg74
g735
sg67
(lp742
S''
asbasbasbasbasbasbasbasbasbasbasbag60
(g76
g62
NtRp743
(dp744
g65
(dp745
sg74
g70
sg67
(lp746
g60
(g81
g62
NtRp747
(dp748
g65
(dp749
g85
g86
ssg74
g743
sg67
(lp750
S'env'
p751
asbag60
(g81
g62
NtRp752
(dp753
g65
(dp754
g92
g93
ssg74
g743
sg67
(lp755
S':'
asbag60
(g81
g62
NtRp756
(dp757
g65
(dp758
sg74
g743
sg67
(lp759
g60
(g61
g62
NtRp760
(dp761
g65
(dp762
g73
I5
ssg74
g756
sg67
(lp763
g60
(g69
g62
NtRp764
(dp765
g65
(dp766
g73
I4
ssg74
Nsg67
(lp767
g60
(g76
g62
NtRp768
(dp769
g65
(dp770
sg74
g764
sg67
(lp771
g60
(g81
g62
NtRp772
(dp773
g65
(dp774
g85
g86
ssg74
g768
sg67
(lp775
S'app_folders'
p776
asbag60
(g81
g62
NtRp777
(dp778
g65
(dp779
g92
g93
ssg74
g768
sg67
(lp780
S':'
asbag60
(g81
g62
NtRp781
(dp782
g65
(dp783
sg74
g768
sg67
(lp784
g60
(g61
g62
NtRp785
(dp786
g65
(dp787
g73
I4
ssg74
g781
sg67
(lp788
S"set(['D:\\\\Dise\\xf1o Web\\\\Proyectos\\\\Parleyweb\\\\web2py\\\\applications\\\\parleyweb\\\\', 'D:\\\\Dise\\xf1o Web\\\\Proyectos\\\\Parleyweb\\\\web2py\\\\applications\\\\welcome\\\\', 'D:\\\\Dise\\xf1o Web\\\\Proyectos\\\\Parleyweb\\\\web2py\\\\applications\\\\admin\\\\'])"
p789
asbasbasbag60
(g76
g62
NtRp790
(dp791
g65
(dp792
sg74
g764
sg67
(lp793
g60
(g81
g62
NtRp794
(dp795
g65
(dp796
g85
g86
ssg74
g790
sg67
(lp797
S'applications_parent'
p798
asbag60
(g81
g62
NtRp799
(dp800
g65
(dp801
g92
g93
ssg74
g790
sg67
(lp802
S':'
asbag60
(g81
g62
NtRp803
(dp804
g65
(dp805
sg74
g790
sg67
(lp806
g60
(g61
g62
NtRp807
(dp808
g65
(dp809
g73
I4
ssg74
g803
sg67
(lp810
S'D:\\Dise\xf1o Web\\Proyectos\\Parleyweb\\web2py'
p811
asbasbasbag60
(g76
g62
NtRp812
(dp813
g65
(dp814
sg74
g764
sg67
(lp815
g60
(g81
g62
NtRp816
(dp817
g65
(dp818
g85
g86
ssg74
g812
sg67
(lp819
S'cmd_args'
p820
asbag60
(g81
g62
NtRp821
(dp822
g65
(dp823
g92
g93
ssg74
g812
sg67
(lp824
S':'
asbag60
(g81
g62
NtRp825
(dp826
g65
(dp827
sg74
g812
sg67
(lp828
g60
(g61
g62
NtRp829
(dp830
g65
(dp831
g73
I4
ssg74
g825
sg67
(lp832
g60
(g69
g62
NtRp833
(dp834
g65
(dp835
g73
I3
ssg74
Nsg67
(lp836
sbasbasbasbag60
(g76
g62
NtRp837
(dp838
g65
(dp839
sg74
g764
sg67
(lp840
g60
(g81
g62
NtRp841
(dp842
g65
(dp843
g85
g86
ssg74
g837
sg67
(lp844
S'cmd_options'
p845
asbag60
(g81
g62
NtRp846
(dp847
g65
(dp848
g92
g93
ssg74
g837
sg67
(lp849
S':'
asbag60
(g81
g62
NtRp850
(dp851
g65
(dp852
sg74
g837
sg67
(lp853
g60
(g61
g62
NtRp854
(dp855
g65
(dp856
g73
I4
ssg74
g850
sg67
(lp857
S"<Values at 0x3110f30: {'verbose': False, 'ip': '127.0.0.1', 'shutdown_timeout': 5, 'taskbar': False, 'nocron': False, 'pid_filename': 'httpserver.pid', 'maxthreads': None, 'softcron': False, 'server_name': 'craxsnet-PC', 'bpython': False, 'nogui': False, 'port': 8000, 'extcron': False, 'debuglevel': 30, 'test': None, 'folder': 'D:\\\\Dise\\xf1o Web\\\\Proyectos\\\\Parleyweb\\\\web2py', 'config': '', 'import_models': False, 'winservice': '', 'shell': None, 'run': '', 'log_filename': 'httpserver.log', 'args': [''], 'socket_timeout': 5, 'ssl_ca_certificate': None, 'scheduler': None, 'profiler_filename': None, 'ssl_private_key': '', 'password': '<ask>', 'request_queue_size': 5, 'ssl_certificate': '', 'cronjob': False, 'numthreads': None, 'quiet': False, 'interfaces': None, 'minthreads': None, 'timeout': 10, 'plain': False, 'nobanner': False}>"
p858
asbasbasbag60
(g76
g62
NtRp859
(dp860
g65
(dp861
sg74
g764
sg67
(lp862
g60
(g81
g62
NtRp863
(dp864
g65
(dp865
g85
g86
ssg74
g859
sg67
(lp866
S'db_sessions'
p867
asbag60
(g81
g62
NtRp868
(dp869
g65
(dp870
g92
g93
ssg74
g859
sg67
(lp871
S':'
asbag60
(g81
g62
NtRp872
(dp873
g65
(dp874
sg74
g859
sg67
(lp875
g60
(g61
g62
NtRp876
(dp877
g65
(dp878
g73
I4
ssg74
g872
sg67
(lp879
S'set([])'
p880
asbasbasbag60
(g76
g62
NtRp881
(dp882
g65
(dp883
sg74
g764
sg67
(lp884
g60
(g81
g62
NtRp885
(dp886
g65
(dp887
g85
g86
ssg74
g881
sg67
(lp888
S'debugging'
p889
asbag60
(g81
g62
NtRp890
(dp891
g65
(dp892
g92
g93
ssg74
g881
sg67
(lp893
S':'
asbag60
(g81
g62
NtRp894
(dp895
g65
(dp896
sg74
g881
sg67
(lp897
g60
(g61
g62
NtRp898
(dp899
g65
(dp900
g73
I4
ssg74
g894
sg67
(lp901
g103
asbasbasbag60
(g76
g62
NtRp902
(dp903
g65
(dp904
sg74
g764
sg67
(lp905
g60
(g81
g62
NtRp906
(dp907
g65
(dp908
g85
g86
ssg74
g902
sg67
(lp909
S'gluon_parent'
p910
asbag60
(g81
g62
NtRp911
(dp912
g65
(dp913
g92
g93
ssg74
g902
sg67
(lp914
S':'
asbag60
(g81
g62
NtRp915
(dp916
g65
(dp917
sg74
g902
sg67
(lp918
g60
(g61
g62
NtRp919
(dp920
g65
(dp921
g73
I4
ssg74
g915
sg67
(lp922
S'D:\\Dise\xf1o Web\\Proyectos\\Parleyweb\\web2py'
p923
asbasbasbag60
(g76
g62
NtRp924
(dp925
g65
(dp926
sg74
g764
sg67
(lp927
g60
(g81
g62
NtRp928
(dp929
g65
(dp930
g85
g86
ssg74
g924
sg67
(lp931
S'http_accept'
p932
asbag60
(g81
g62
NtRp933
(dp934
g65
(dp935
g92
g93
ssg74
g924
sg67
(lp936
S':'
asbag60
(g81
g62
NtRp937
(dp938
g65
(dp939
sg74
g924
sg67
(lp940
g60
(g61
g62
NtRp941
(dp942
g65
(dp943
g73
I4
ssg74
g937
sg67
(lp944
S'text/html,application/xhtml+xml,application/xml;q=0.9,*/*;q=0.8'
p945
asbasbasbag60
(g76
g62
NtRp946
(dp947
g65
(dp948
sg74
g764
sg67
(lp949
g60
(g81
g62
NtRp950
(dp951
g65
(dp952
g85
g86
ssg74
g946
sg67
(lp953
S'http_accept_encoding'
p954
asbag60
(g81
g62
NtRp955
(dp956
g65
(dp957
g92
g93
ssg74
g946
sg67
(lp958
S':'
asbag60
(g81
g62
NtRp959
(dp960
g65
(dp961
sg74
g946
sg67
(lp962
g60
(g61
g62
NtRp963
(dp964
g65
(dp965
g73
I4
ssg74
g959
sg67
(lp966
S'gzip, deflate'
p967
asbasbasbag60
(g76
g62
NtRp968
(dp969
g65
(dp970
sg74
g764
sg67
(lp971
g60
(g81
g62
NtRp972
(dp973
g65
(dp974
g85
g86
ssg74
g968
sg67
(lp975
S'http_accept_language'
p976
asbag60
(g81
g62
NtRp977
(dp978
g65
(dp979
g92
g93
ssg74
g968
sg67
(lp980
S':'
asbag60
(g81
g62
NtRp981
(dp982
g65
(dp983
sg74
g968
sg67
(lp984
g60
(g61
g62
NtRp985
(dp986
g65
(dp987
g73
I4
ssg74
g981
sg67
(lp988
S'es-es,de-de;q=0.8,es;q=0.6,en-us;q=0.4,en;q=0.2'
p989
asbasbasbag60
(g76
g62
NtRp990
(dp991
g65
(dp992
sg74
g764
sg67
(lp993
g60
(g81
g62
NtRp994
(dp995
g65
(dp996
g85
g86
ssg74
g990
sg67
(lp997
S'http_cache_control'
p998
asbag60
(g81
g62
NtRp999
(dp1000
g65
(dp1001
g92
g93
ssg74
g990
sg67
(lp1002
S':'
asbag60
(g81
g62
NtRp1003
(dp1004
g65
(dp1005
sg74
g990
sg67
(lp1006
g60
(g61
g62
NtRp1007
(dp1008
g65
(dp1009
g73
I4
ssg74
g1003
sg67
(lp1010
S'max-age=0'
p1011
asbasbasbag60
(g76
g62
NtRp1012
(dp1013
g65
(dp1014
sg74
g764
sg67
(lp1015
g60
(g81
g62
NtRp1016
(dp1017
g65
(dp1018
g85
g86
ssg74
g1012
sg67
(lp1019
S'http_connection'
p1020
asbag60
(g81
g62
NtRp1021
(dp1022
g65
(dp1023
g92
g93
ssg74
g1012
sg67
(lp1024
S':'
asbag60
(g81
g62
NtRp1025
(dp1026
g65
(dp1027
sg74
g1012
sg67
(lp1028
g60
(g61
g62
NtRp1029
(dp1030
g65
(dp1031
g73
I4
ssg74
g1025
sg67
(lp1032
S'keep-alive'
p1033
asbasbasbag60
(g76
g62
NtRp1034
(dp1035
g65
(dp1036
sg74
g764
sg67
(lp1037
g60
(g81
g62
NtRp1038
(dp1039
g65
(dp1040
g85
g86
ssg74
g1034
sg67
(lp1041
S'http_cookie'
p1042
asbag60
(g81
g62
NtRp1043
(dp1044
g65
(dp1045
g92
g93
ssg74
g1034
sg67
(lp1046
S':'
asbag60
(g81
g62
NtRp1047
(dp1048
g65
(dp1049
sg74
g1034
sg67
(lp1050
g60
(g61
g62
NtRp1051
(dp1052
g65
(dp1053
g73
I4
ssg74
g1047
sg67
(lp1054
S'__utma=96992031.26429765.1325029743.1325029743.1326549329.2; __utmz=96992031.1325029743.1.1.utmcsr=(direct)|utmccn=(direct)|utmcmd=(none); session_id_welcome=127.0.0.1-644b7da8-0d4f-4bbf-b94b-66f6992adfc8; session_id_parleyweb=127.0.0.1-0780c0c1-affd-425a-affb-ac061c4961c7; session_id_admin=127.0.0.1-532b2264-f480-4135-a7d5-01c72ef908a1'
p1055
asbasbasbag60
(g76
g62
NtRp1056
(dp1057
g65
(dp1058
sg74
g764
sg67
(lp1059
g60
(g81
g62
NtRp1060
(dp1061
g65
(dp1062
g85
g86
ssg74
g1056
sg67
(lp1063
S'http_host'
p1064
asbag60
(g81
g62
NtRp1065
(dp1066
g65
(dp1067
g92
g93
ssg74
g1056
sg67
(lp1068
S':'
asbag60
(g81
g62
NtRp1069
(dp1070
g65
(dp1071
sg74
g1056
sg67
(lp1072
g60
(g61
g62
NtRp1073
(dp1074
g65
(dp1075
g73
I4
ssg74
g1069
sg67
(lp1076
S'127.0.0.1:8000'
p1077
asbasbasbag60
(g76
g62
NtRp1078
(dp1079
g65
(dp1080
sg74
g764
sg67
(lp1081
g60
(g81
g62
NtRp1082
(dp1083
g65
(dp1084
g85
g86
ssg74
g1078
sg67
(lp1085
S'http_referer'
p1086
asbag60
(g81
g62
NtRp1087
(dp1088
g65
(dp1089
g92
g93
ssg74
g1078
sg67
(lp1090
S':'
asbag60
(g81
g62
NtRp1091
(dp1092
g65
(dp1093
sg74
g1078
sg67
(lp1094
g60
(g61
g62
NtRp1095
(dp1096
g65
(dp1097
g73
I4
ssg74
g1091
sg67
(lp1098
S'http://127.0.0.1:8000/parleyweb/default/mostrar/82'
p1099
asbasbasbag60
(g76
g62
NtRp1100
(dp1101
g65
(dp1102
sg74
g764
sg67
(lp1103
g60
(g81
g62
NtRp1104
(dp1105
g65
(dp1106
g85
g86
ssg74
g1100
sg67
(lp1107
S'http_user_agent'
p1108
asbag60
(g81
g62
NtRp1109
(dp1110
g65
(dp1111
g92
g93
ssg74
g1100
sg67
(lp1112
S':'
asbag60
(g81
g62
NtRp1113
(dp1114
g65
(dp1115
sg74
g1100
sg67
(lp1116
g60
(g61
g62
NtRp1117
(dp1118
g65
(dp1119
g73
I4
ssg74
g1113
sg67
(lp1120
S'Mozilla/5.0 (Windows NT 6.1; WOW64; rv:11.0) Gecko/20100101 Firefox/11.0'
p1121
asbasbasbag60
(g76
g62
NtRp1122
(dp1123
g65
(dp1124
sg74
g764
sg67
(lp1125
g60
(g81
g62
NtRp1126
(dp1127
g65
(dp1128
g85
g86
ssg74
g1122
sg67
(lp1129
S'is_jython'
p1130
asbag60
(g81
g62
NtRp1131
(dp1132
g65
(dp1133
g92
g93
ssg74
g1122
sg67
(lp1134
S':'
asbag60
(g81
g62
NtRp1135
(dp1136
g65
(dp1137
sg74
g1122
sg67
(lp1138
g60
(g61
g62
NtRp1139
(dp1140
g65
(dp1141
g73
I4
ssg74
g1135
sg67
(lp1142
g103
asbasbasbag60
(g76
g62
NtRp1143
(dp1144
g65
(dp1145
sg74
g764
sg67
(lp1146
g60
(g81
g62
NtRp1147
(dp1148
g65
(dp1149
g85
g86
ssg74
g1143
sg67
(lp1150
S'is_pypy'
p1151
asbag60
(g81
g62
NtRp1152
(dp1153
g65
(dp1154
g92
g93
ssg74
g1143
sg67
(lp1155
S':'
asbag60
(g81
g62
NtRp1156
(dp1157
g65
(dp1158
sg74
g1143
sg67
(lp1159
g60
(g61
g62
NtRp1160
(dp1161
g65
(dp1162
g73
I4
ssg74
g1156
sg67
(lp1163
g103
asbasbasbag60
(g76
g62
NtRp1164
(dp1165
g65
(dp1166
sg74
g764
sg67
(lp1167
g60
(g81
g62
NtRp1168
(dp1169
g65
(dp1170
g85
g86
ssg74
g1164
sg67
(lp1171
S'path_info'
p1172
asbag60
(g81
g62
NtRp1173
(dp1174
g65
(dp1175
g92
g93
ssg74
g1164
sg67
(lp1176
S':'
asbag60
(g81
g62
NtRp1177
(dp1178
g65
(dp1179
sg74
g1164
sg67
(lp1180
g60
(g61
g62
NtRp1181
(dp1182
g65
(dp1183
g73
I4
ssg74
g1177
sg67
(lp1184
S'/parleyweb/admin/index'
p1185
asbasbasbag60
(g76
g62
NtRp1186
(dp1187
g65
(dp1188
sg74
g764
sg67
(lp1189
g60
(g81
g62
NtRp1190
(dp1191
g65
(dp1192
g85
g86
ssg74
g1186
sg67
(lp1193
S'query_string'
p1194
asbag60
(g81
g62
NtRp1195
(dp1196
g65
(dp1197
g92
g93
ssg74
g1186
sg67
(lp1198
S':'
asbag60
(g81
g62
NtRp1199
(dp1200
g65
(dp1201
sg74
g1186
sg67
(lp1202
g60
(g61
g62
NtRp1203
(dp1204
g65
(dp1205
g73
I4
ssg74
g1199
sg67
(lp1206
S''
asbasbasbag60
(g76
g62
NtRp1207
(dp1208
g65
(dp1209
sg74
g764
sg67
(lp1210
g60
(g81
g62
NtRp1211
(dp1212
g65
(dp1213
g85
g86
ssg74
g1207
sg67
(lp1214
S'remote_addr'
p1215
asbag60
(g81
g62
NtRp1216
(dp1217
g65
(dp1218
g92
g93
ssg74
g1207
sg67
(lp1219
S':'
asbag60
(g81
g62
NtRp1220
(dp1221
g65
(dp1222
sg74
g1207
sg67
(lp1223
g60
(g61
g62
NtRp1224
(dp1225
g65
(dp1226
g73
I4
ssg74
g1220
sg67
(lp1227
g193
asbasbasbag60
(g76
g62
NtRp1228
(dp1229
g65
(dp1230
sg74
g764
sg67
(lp1231
g60
(g81
g62
NtRp1232
(dp1233
g65
(dp1234
g85
g86
ssg74
g1228
sg67
(lp1235
S'remote_port'
p1236
asbag60
(g81
g62
NtRp1237
(dp1238
g65
(dp1239
g92
g93
ssg74
g1228
sg67
(lp1240
S':'
asbag60
(g81
g62
NtRp1241
(dp1242
g65
(dp1243
sg74
g1228
sg67
(lp1244
g60
(g61
g62
NtRp1245
(dp1246
g65
(dp1247
g73
I4
ssg74
g1241
sg67
(lp1248
S'52242'
p1249
asbasbasbag60
(g76
g62
NtRp1250
(dp1251
g65
(dp1252
sg74
g764
sg67
(lp1253
g60
(g81
g62
NtRp1254
(dp1255
g65
(dp1256
g85
g86
ssg74
g1250
sg67
(lp1257
S'request_method'
p1258
asbag60
(g81
g62
NtRp1259
(dp1260
g65
(dp1261
g92
g93
ssg74
g1250
sg67
(lp1262
S':'
asbag60
(g81
g62
NtRp1263
(dp1264
g65
(dp1265
sg74
g1250
sg67
(lp1266
g60
(g61
g62
NtRp1267
(dp1268
g65
(dp1269
g73
I4
ssg74
g1263
sg67
(lp1270
S'GET'
p1271
asbasbasbag60
(g76
g62
NtRp1272
(dp1273
g65
(dp1274
sg74
g764
sg67
(lp1275
g60
(g81
g62
NtRp1276
(dp1277
g65
(dp1278
g85
g86
ssg74
g1272
sg67
(lp1279
S'script_name'
p1280
asbag60
(g81
g62
NtRp1281
(dp1282
g65
(dp1283
g92
g93
ssg74
g1272
sg67
(lp1284
S':'
asbag60
(g81
g62
NtRp1285
(dp1286
g65
(dp1287
sg74
g1272
sg67
(lp1288
g60
(g61
g62
NtRp1289
(dp1290
g65
(dp1291
g73
I4
ssg74
g1285
sg67
(lp1292
S''
asbasbasbag60
(g76
g62
NtRp1293
(dp1294
g65
(dp1295
sg74
g764
sg67
(lp1296
g60
(g81
g62
NtRp1297
(dp1298
g65
(dp1299
g85
g86
ssg74
g1293
sg67
(lp1300
S'server_name'
p1301
asbag60
(g81
g62
NtRp1302
(dp1303
g65
(dp1304
g92
g93
ssg74
g1293
sg67
(lp1305
S':'
asbag60
(g81
g62
NtRp1306
(dp1307
g65
(dp1308
sg74
g1293
sg67
(lp1309
g60
(g61
g62
NtRp1310
(dp1311
g65
(dp1312
g73
I4
ssg74
g1306
sg67
(lp1313
S'craxsnet-PC'
p1314
asbasbasbag60
(g76
g62
NtRp1315
(dp1316
g65
(dp1317
sg74
g764
sg67
(lp1318
g60
(g81
g62
NtRp1319
(dp1320
g65
(dp1321
g85
g86
ssg74
g1315
sg67
(lp1322
S'server_port'
p1323
asbag60
(g81
g62
NtRp1324
(dp1325
g65
(dp1326
g92
g93
ssg74
g1315
sg67
(lp1327
S':'
asbag60
(g81
g62
NtRp1328
(dp1329
g65
(dp1330
sg74
g1315
sg67
(lp1331
g60
(g61
g62
NtRp1332
(dp1333
g65
(dp1334
g73
I4
ssg74
g1328
sg67
(lp1335
S'8000'
p1336
asbasbasbag60
(g76
g62
NtRp1337
(dp1338
g65
(dp1339
sg74
g764
sg67
(lp1340
g60
(g81
g62
NtRp1341
(dp1342
g65
(dp1343
g85
g86
ssg74
g1337
sg67
(lp1344
S'server_protocol'
p1345
asbag60
(g81
g62
NtRp1346
(dp1347
g65
(dp1348
g92
g93
ssg74
g1337
sg67
(lp1349
S':'
asbag60
(g81
g62
NtRp1350
(dp1351
g65
(dp1352
sg74
g1337
sg67
(lp1353
g60
(g61
g62
NtRp1354
(dp1355
g65
(dp1356
g73
I4
ssg74
g1350
sg67
(lp1357
S'HTTP/1.1'
p1358
asbasbasbag60
(g76
g62
NtRp1359
(dp1360
g65
(dp1361
sg74
g764
sg67
(lp1362
g60
(g81
g62
NtRp1363
(dp1364
g65
(dp1365
g85
g86
ssg74
g1359
sg67
(lp1366
S'server_software'
p1367
asbag60
(g81
g62
NtRp1368
(dp1369
g65
(dp1370
g92
g93
ssg74
g1359
sg67
(lp1371
S':'
asbag60
(g81
g62
NtRp1372
(dp1373
g65
(dp1374
sg74
g1359
sg67
(lp1375
g60
(g61
g62
NtRp1376
(dp1377
g65
(dp1378
g73
I4
ssg74
g1372
sg67
(lp1379
S'Rocket 1.2.4'
p1380
asbasbasbag60
(g76
g62
NtRp1381
(dp1382
g65
(dp1383
sg74
g764
sg67
(lp1384
g60
(g81
g62
NtRp1385
(dp1386
g65
(dp1387
g85
g86
ssg74
g1381
sg67
(lp1388
S'web2py_crontype'
p1389
asbag60
(g81
g62
NtRp1390
(dp1391
g65
(dp1392
g92
g93
ssg74
g1381
sg67
(lp1393
S':'
asbag60
(g81
g62
NtRp1394
(dp1395
g65
(dp1396
sg74
g1381
sg67
(lp1397
g60
(g61
g62
NtRp1398
(dp1399
g65
(dp1400
g73
I4
ssg74
g1394
sg67
(lp1401
S'hard'
p1402
asbasbasbag60
(g76
g62
NtRp1403
(dp1404
g65
(dp1405
sg74
g764
sg67
(lp1406
g60
(g81
g62
NtRp1407
(dp1408
g65
(dp1409
g85
g86
ssg74
g1403
sg67
(lp1410
S'web2py_path'
p1411
asbag60
(g81
g62
NtRp1412
(dp1413
g65
(dp1414
g92
g93
ssg74
g1403
sg67
(lp1415
S':'
asbag60
(g81
g62
NtRp1416
(dp1417
g65
(dp1418
sg74
g1403
sg67
(lp1419
g60
(g61
g62
NtRp1420
(dp1421
g65
(dp1422
g73
I4
ssg74
g1416
sg67
(lp1423
g811
asbasbasbag60
(g76
g62
NtRp1424
(dp1425
g65
(dp1426
sg74
g764
sg67
(lp1427
g60
(g81
g62
NtRp1428
(dp1429
g65
(dp1430
g85
g86
ssg74
g1424
sg67
(lp1431
S'web2py_version'
p1432
asbag60
(g81
g62
NtRp1433
(dp1434
g65
(dp1435
g92
g93
ssg74
g1424
sg67
(lp1436
S':'
asbag60
(g81
g62
NtRp1437
(dp1438
g65
(dp1439
sg74
g1424
sg67
(lp1440
g60
(g61
g62
NtRp1441
(dp1442
g65
(dp1443
g73
I4
ssg74
g1437
sg67
(lp1444
g60
(g69
g62
NtRp1445
(dp1446
g65
(dp1447
g73
I3
ssg74
Nsg67
(lp1448
g60
(g76
g62
NtRp1449
(dp1450
g65
(dp1451
sg74
g1445
sg67
(lp1452
g60
(g81
g62
NtRp1453
(dp1454
g65
(dp1455
sg74
g1449
sg67
(lp1456
g60
(g61
g62
NtRp1457
(dp1458
g65
(dp1459
g73
I3
ssg74
g1453
sg67
(lp1460
S'1'
asbasbasbag60
(g76
g62
NtRp1461
(dp1462
g65
(dp1463
sg74
g1445
sg67
(lp1464
g60
(g81
g62
NtRp1465
(dp1466
g65
(dp1467
sg74
g1461
sg67
(lp1468
g60
(g61
g62
NtRp1469
(dp1470
g65
(dp1471
g73
I3
ssg74
g1465
sg67
(lp1472
S'99'
p1473
asbasbasbag60
(g76
g62
NtRp1474
(dp1475
g65
(dp1476
sg74
g1445
sg67
(lp1477
g60
(g81
g62
NtRp1478
(dp1479
g65
(dp1480
sg74
g1474
sg67
(lp1481
g60
(g61
g62
NtRp1482
(dp1483
g65
(dp1484
g73
I3
ssg74
g1478
sg67
(lp1485
S'7'
asbasbasbag60
(g76
g62
NtRp1486
(dp1487
g65
(dp1488
sg74
g1445
sg67
(lp1489
g60
(g81
g62
NtRp1490
(dp1491
g65
(dp1492
sg74
g1486
sg67
(lp1493
g60
(g61
g62
NtRp1494
(dp1495
g65
(dp1496
g73
I3
ssg74
g1490
sg67
(lp1497
S'datetime.datetime(2012, 3, 4, 22, 12, 8)'
p1498
asbasbasbag60
(g76
g62
NtRp1499
(dp1500
g65
(dp1501
sg74
g1445
sg67
(lp1502
g60
(g81
g62
NtRp1503
(dp1504
g65
(dp1505
sg74
g1499
sg67
(lp1506
g60
(g61
g62
NtRp1507
(dp1508
g65
(dp1509
g73
I3
ssg74
g1503
sg67
(lp1510
S'stable'
p1511
asbasbasbasbasbasbasbag60
(g76
g62
NtRp1512
(dp1513
g65
(dp1514
sg74
g764
sg67
(lp1515
g60
(g81
g62
NtRp1516
(dp1517
g65
(dp1518
g85
g86
ssg74
g1512
sg67
(lp1519
S'wsgi_errors'
p1520
asbag60
(g81
g62
NtRp1521
(dp1522
g65
(dp1523
g92
g93
ssg74
g1512
sg67
(lp1524
S':'
asbag60
(g81
g62
NtRp1525
(dp1526
g65
(dp1527
sg74
g1512
sg67
(lp1528
g60
(g61
g62
NtRp1529
(dp1530
g65
(dp1531
g73
I4
ssg74
g1525
sg67
(lp1532
S"<open file '<stderr>', mode 'w' at 0x01FB00B0>"
p1533
asbasbasbag60
(g76
g62
NtRp1534
(dp1535
g65
(dp1536
sg74
g764
sg67
(lp1537
g60
(g81
g62
NtRp1538
(dp1539
g65
(dp1540
g85
g86
ssg74
g1534
sg67
(lp1541
S'wsgi_file_wrapper'
p1542
asbag60
(g81
g62
NtRp1543
(dp1544
g65
(dp1545
g92
g93
ssg74
g1534
sg67
(lp1546
S':'
asbag60
(g81
g62
NtRp1547
(dp1548
g65
(dp1549
sg74
g1534
sg67
(lp1550
g60
(g61
g62
NtRp1551
(dp1552
g65
(dp1553
g73
I4
ssg74
g1547
sg67
(lp1554
S'<class wsgiref.util.FileWrapper at 0x02F56390>'
p1555
asbasbasbag60
(g76
g62
NtRp1556
(dp1557
g65
(dp1558
sg74
g764
sg67
(lp1559
g60
(g81
g62
NtRp1560
(dp1561
g65
(dp1562
g85
g86
ssg74
g1556
sg67
(lp1563
S'wsgi_input'
p1564
asbag60
(g81
g62
NtRp1565
(dp1566
g65
(dp1567
g92
g93
ssg74
g1556
sg67
(lp1568
S':'
asbag60
(g81
g62
NtRp1569
(dp1570
g65
(dp1571
sg74
g1556
sg67
(lp1572
g60
(g61
g62
NtRp1573
(dp1574
g65
(dp1575
g73
I4
ssg74
g1569
sg67
(lp1576
S'<socket._fileobject object at 0x07552830>'
p1577
asbasbasbag60
(g76
g62
NtRp1578
(dp1579
g65
(dp1580
sg74
g764
sg67
(lp1581
g60
(g81
g62
NtRp1582
(dp1583
g65
(dp1584
g85
g86
ssg74
g1578
sg67
(lp1585
S'wsgi_multiprocess'
p1586
asbag60
(g81
g62
NtRp1587
(dp1588
g65
(dp1589
g92
g93
ssg74
g1578
sg67
(lp1590
S':'
asbag60
(g81
g62
NtRp1591
(dp1592
g65
(dp1593
sg74
g1578
sg67
(lp1594
g60
(g61
g62
NtRp1595
(dp1596
g65
(dp1597
g73
I4
ssg74
g1591
sg67
(lp1598
g103
asbasbasbag60
(g76
g62
NtRp1599
(dp1600
g65
(dp1601
sg74
g764
sg67
(lp1602
g60
(g81
g62
NtRp1603
(dp1604
g65
(dp1605
g85
g86
ssg74
g1599
sg67
(lp1606
S'wsgi_multithread'
p1607
asbag60
(g81
g62
NtRp1608
(dp1609
g65
(dp1610
g92
g93
ssg74
g1599
sg67
(lp1611
S':'
asbag60
(g81
g62
NtRp1612
(dp1613
g65
(dp1614
sg74
g1599
sg67
(lp1615
g60
(g61
g62
NtRp1616
(dp1617
g65
(dp1618
g73
I4
ssg74
g1612
sg67
(lp1619
S'True'
p1620
asbasbasbag60
(g76
g62
NtRp1621
(dp1622
g65
(dp1623
sg74
g764
sg67
(lp1624
g60
(g81
g62
NtRp1625
(dp1626
g65
(dp1627
g85
g86
ssg74
g1621
sg67
(lp1628
S'wsgi_run_once'
p1629
asbag60
(g81
g62
NtRp1630
(dp1631
g65
(dp1632
g92
g93
ssg74
g1621
sg67
(lp1633
S':'
asbag60
(g81
g62
NtRp1634
(dp1635
g65
(dp1636
sg74
g1621
sg67
(lp1637
g60
(g61
g62
NtRp1638
(dp1639
g65
(dp1640
g73
I4
ssg74
g1634
sg67
(lp1641
g103
asbasbasbag60
(g76
g62
NtRp1642
(dp1643
g65
(dp1644
sg74
g764
sg67
(lp1645
g60
(g81
g62
NtRp1646
(dp1647
g65
(dp1648
g85
g86
ssg74
g1642
sg67
(lp1649
S'wsgi_url_scheme'
p1650
asbag60
(g81
g62
NtRp1651
(dp1652
g65
(dp1653
g92
g93
ssg74
g1642
sg67
(lp1654
S':'
asbag60
(g81
g62
NtRp1655
(dp1656
g65
(dp1657
sg74
g1642
sg67
(lp1658
g60
(g61
g62
NtRp1659
(dp1660
g65
(dp1661
g73
I4
ssg74
g1655
sg67
(lp1662
S'http'
p1663
asbasbasbag60
(g76
g62
NtRp1664
(dp1665
g65
(dp1666
sg74
g764
sg67
(lp1667
g60
(g81
g62
NtRp1668
(dp1669
g65
(dp1670
g85
g86
ssg74
g1664
sg67
(lp1671
S'wsgi_version'
p1672
asbag60
(g81
g62
NtRp1673
(dp1674
g65
(dp1675
g92
g93
ssg74
g1664
sg67
(lp1676
S':'
asbag60
(g81
g62
NtRp1677
(dp1678
g65
(dp1679
sg74
g1664
sg67
(lp1680
g60
(g61
g62
NtRp1681
(dp1682
g65
(dp1683
g73
I4
ssg74
g1677
sg67
(lp1684
g60
(g69
g62
NtRp1685
(dp1686
g65
(dp1687
g73
I3
ssg74
Nsg67
(lp1688
g60
(g76
g62
NtRp1689
(dp1690
g65
(dp1691
sg74
g1685
sg67
(lp1692
g60
(g81
g62
NtRp1693
(dp1694
g65
(dp1695
sg74
g1689
sg67
(lp1696
g60
(g61
g62
NtRp1697
(dp1698
g65
(dp1699
g73
I3
ssg74
g1693
sg67
(lp1700
S'1'
asbasbasbag60
(g76
g62
NtRp1701
(dp1702
g65
(dp1703
sg74
g1685
sg67
(lp1704
g60
(g81
g62
NtRp1705
(dp1706
g65
(dp1707
sg74
g1701
sg67
(lp1708
g60
(g61
g62
NtRp1709
(dp1710
g65
(dp1711
g73
I3
ssg74
g1705
sg67
(lp1712
S'0'
asbasbasbasbasbasbasbasbasbasbasbag60
(g76
g62
NtRp1713
(dp1714
g65
(dp1715
sg74
g70
sg67
(lp1716
g60
(g81
g62
NtRp1717
(dp1718
g65
(dp1719
g85
g86
ssg74
g1713
sg67
(lp1720
S'extension'
p1721
asbag60
(g81
g62
NtRp1722
(dp1723
g65
(dp1724
g92
g93
ssg74
g1713
sg67
(lp1725
S':'
asbag60
(g81
g62
NtRp1726
(dp1727
g65
(dp1728
sg74
g1713
sg67
(lp1729
g60
(g61
g62
NtRp1730
(dp1731
g65
(dp1732
g73
I5
ssg74
g1726
sg67
(lp1733
S'html'
p1734
asbasbasbag60
(g76
g62
NtRp1735
(dp1736
g65
(dp1737
sg74
g70
sg67
(lp1738
g60
(g81
g62
NtRp1739
(dp1740
g65
(dp1741
g85
g86
ssg74
g1735
sg67
(lp1742
S'folder'
p1743
asbag60
(g81
g62
NtRp1744
(dp1745
g65
(dp1746
g92
g93
ssg74
g1735
sg67
(lp1747
S':'
asbag60
(g81
g62
NtRp1748
(dp1749
g65
(dp1750
sg74
g1735
sg67
(lp1751
g60
(g61
g62
NtRp1752
(dp1753
g65
(dp1754
g73
I5
ssg74
g1748
sg67
(lp1755
S'D:\\Dise\xf1o Web\\Proyectos\\Parleyweb\\web2py\\applications\\parleyweb\\'
p1756
asbasbasbag60
(g76
g62
NtRp1757
(dp1758
g65
(dp1759
sg74
g70
sg67
(lp1760
g60
(g81
g62
NtRp1761
(dp1762
g65
(dp1763
g85
g86
ssg74
g1757
sg67
(lp1764
S'function'
p1765
asbag60
(g81
g62
NtRp1766
(dp1767
g65
(dp1768
g92
g93
ssg74
g1757
sg67
(lp1769
S':'
asbag60
(g81
g62
NtRp1770
(dp1771
g65
(dp1772
sg74
g1757
sg67
(lp1773
g60
(g61
g62
NtRp1774
(dp1775
g65
(dp1776
g73
I5
ssg74
g1770
sg67
(lp1777
S'index'
p1778
asbasbasbag60
(g76
g62
NtRp1779
(dp1780
g65
(dp1781
sg74
g70
sg67
(lp1782
g60
(g81
g62
NtRp1783
(dp1784
g65
(dp1785
g85
g86
ssg74
g1779
sg67
(lp1786
S'get_vars'
p1787
asbag60
(g81
g62
NtRp1788
(dp1789
g65
(dp1790
g92
g93
ssg74
g1779
sg67
(lp1791
S':'
asbag60
(g81
g62
NtRp1792
(dp1793
g65
(dp1794
sg74
g1779
sg67
(lp1795
g60
(g61
g62
NtRp1796
(dp1797
g65
(dp1798
g73
I5
ssg74
g1792
sg67
(lp1799
g60
(g69
g62
NtRp1800
(dp1801
g65
(dp1802
g73
I4
ssg74
Nsg67
(lp1803
sbasbasbasbag60
(g76
g62
NtRp1804
(dp1805
g65
(dp1806
sg74
g70
sg67
(lp1807
g60
(g81
g62
NtRp1808
(dp1809
g65
(dp1810
g85
g86
ssg74
g1804
sg67
(lp1811
S'global_settings'
p1812
asbag60
(g81
g62
NtRp1813
(dp1814
g65
(dp1815
g92
g93
ssg74
g1804
sg67
(lp1816
S':'
asbag60
(g81
g62
NtRp1817
(dp1818
g65
(dp1819
sg74
g1804
sg67
(lp1820
g60
(g61
g62
NtRp1821
(dp1822
g65
(dp1823
g73
I5
ssg74
g1817
sg67
(lp1824
g60
(g69
g62
NtRp1825
(dp1826
g65
(dp1827
g73
I4
ssg74
Nsg67
(lp1828
g60
(g76
g62
NtRp1829
(dp1830
g65
(dp1831
sg74
g1825
sg67
(lp1832
g60
(g81
g62
NtRp1833
(dp1834
g65
(dp1835
g85
g86
ssg74
g1829
sg67
(lp1836
g776
asbag60
(g81
g62
NtRp1837
(dp1838
g65
(dp1839
g92
g93
ssg74
g1829
sg67
(lp1840
S':'
asbag60
(g81
g62
NtRp1841
(dp1842
g65
(dp1843
sg74
g1829
sg67
(lp1844
g60
(g61
g62
NtRp1845
(dp1846
g65
(dp1847
g73
I4
ssg74
g1841
sg67
(lp1848
S"set(['D:\\\\Dise\\xf1o Web\\\\Proyectos\\\\Parleyweb\\\\web2py\\\\applications\\\\parleyweb\\\\', 'D:\\\\Dise\\xf1o Web\\\\Proyectos\\\\Parleyweb\\\\web2py\\\\applications\\\\welcome\\\\', 'D:\\\\Dise\\xf1o Web\\\\Proyectos\\\\Parleyweb\\\\web2py\\\\applications\\\\admin\\\\'])"
p1849
asbasbasbag60
(g76
g62
NtRp1850
(dp1851
g65
(dp1852
sg74
g1825
sg67
(lp1853
g60
(g81
g62
NtRp1854
(dp1855
g65
(dp1856
g85
g86
ssg74
g1850
sg67
(lp1857
g798
asbag60
(g81
g62
NtRp1858
(dp1859
g65
(dp1860
g92
g93
ssg74
g1850
sg67
(lp1861
S':'
asbag60
(g81
g62
NtRp1862
(dp1863
g65
(dp1864
sg74
g1850
sg67
(lp1865
g60
(g61
g62
NtRp1866
(dp1867
g65
(dp1868
g73
I4
ssg74
g1862
sg67
(lp1869
g811
asbasbasbag60
(g76
g62
NtRp1870
(dp1871
g65
(dp1872
sg74
g1825
sg67
(lp1873
g60
(g81
g62
NtRp1874
(dp1875
g65
(dp1876
g85
g86
ssg74
g1870
sg67
(lp1877
g820
asbag60
(g81
g62
NtRp1878
(dp1879
g65
(dp1880
g92
g93
ssg74
g1870
sg67
(lp1881
S':'
asbag60
(g81
g62
NtRp1882
(dp1883
g65
(dp1884
sg74
g1870
sg67
(lp1885
g60
(g61
g62
NtRp1886
(dp1887
g65
(dp1888
g73
I4
ssg74
g1882
sg67
(lp1889
g60
(g69
g62
NtRp1890
(dp1891
g65
(dp1892
g73
I3
ssg74
Nsg67
(lp1893
sbasbasbasbag60
(g76
g62
NtRp1894
(dp1895
g65
(dp1896
sg74
g1825
sg67
(lp1897
g60
(g81
g62
NtRp1898
(dp1899
g65
(dp1900
g85
g86
ssg74
g1894
sg67
(lp1901
g845
asbag60
(g81
g62
NtRp1902
(dp1903
g65
(dp1904
g92
g93
ssg74
g1894
sg67
(lp1905
S':'
asbag60
(g81
g62
NtRp1906
(dp1907
g65
(dp1908
sg74
g1894
sg67
(lp1909
g60
(g61
g62
NtRp1910
(dp1911
g65
(dp1912
g73
I4
ssg74
g1906
sg67
(lp1913
S"<Values at 0x3110f30: {'verbose': False, 'ip': '127.0.0.1', 'shutdown_timeout': 5, 'taskbar': False, 'nocron': False, 'pid_filename': 'httpserver.pid', 'maxthreads': None, 'softcron': False, 'server_name': 'craxsnet-PC', 'bpython': False, 'nogui': False, 'port': 8000, 'extcron': False, 'debuglevel': 30, 'test': None, 'folder': 'D:\\\\Dise\\xf1o Web\\\\Proyectos\\\\Parleyweb\\\\web2py', 'config': '', 'import_models': False, 'winservice': '', 'shell': None, 'run': '', 'log_filename': 'httpserver.log', 'args': [''], 'socket_timeout': 5, 'ssl_ca_certificate': None, 'scheduler': None, 'profiler_filename': None, 'ssl_private_key': '', 'password': '<ask>', 'request_queue_size': 5, 'ssl_certificate': '', 'cronjob': False, 'numthreads': None, 'quiet': False, 'interfaces': None, 'minthreads': None, 'timeout': 10, 'plain': False, 'nobanner': False}>"
p1914
asbasbasbag60
(g76
g62
NtRp1915
(dp1916
g65
(dp1917
sg74
g1825
sg67
(lp1918
g60
(g81
g62
NtRp1919
(dp1920
g65
(dp1921
g85
g86
ssg74
g1915
sg67
(lp1922
g867
asbag60
(g81
g62
NtRp1923
(dp1924
g65
(dp1925
g92
g93
ssg74
g1915
sg67
(lp1926
S':'
asbag60
(g81
g62
NtRp1927
(dp1928
g65
(dp1929
sg74
g1915
sg67
(lp1930
g60
(g61
g62
NtRp1931
(dp1932
g65
(dp1933
g73
I4
ssg74
g1927
sg67
(lp1934
S'set([])'
p1935
asbasbasbag60
(g76
g62
NtRp1936
(dp1937
g65
(dp1938
sg74
g1825
sg67
(lp1939
g60
(g81
g62
NtRp1940
(dp1941
g65
(dp1942
g85
g86
ssg74
g1936
sg67
(lp1943
g889
asbag60
(g81
g62
NtRp1944
(dp1945
g65
(dp1946
g92
g93
ssg74
g1936
sg67
(lp1947
S':'
asbag60
(g81
g62
NtRp1948
(dp1949
g65
(dp1950
sg74
g1936
sg67
(lp1951
g60
(g61
g62
NtRp1952
(dp1953
g65
(dp1954
g73
I4
ssg74
g1948
sg67
(lp1955
g103
asbasbasbag60
(g76
g62
NtRp1956
(dp1957
g65
(dp1958
sg74
g1825
sg67
(lp1959
g60
(g81
g62
NtRp1960
(dp1961
g65
(dp1962
g85
g86
ssg74
g1956
sg67
(lp1963
g910
asbag60
(g81
g62
NtRp1964
(dp1965
g65
(dp1966
g92
g93
ssg74
g1956
sg67
(lp1967
S':'
asbag60
(g81
g62
NtRp1968
(dp1969
g65
(dp1970
sg74
g1956
sg67
(lp1971
g60
(g61
g62
NtRp1972
(dp1973
g65
(dp1974
g73
I4
ssg74
g1968
sg67
(lp1975
g923
asbasbasbag60
(g76
g62
NtRp1976
(dp1977
g65
(dp1978
sg74
g1825
sg67
(lp1979
g60
(g81
g62
NtRp1980
(dp1981
g65
(dp1982
g85
g86
ssg74
g1976
sg67
(lp1983
g1130
asbag60
(g81
g62
NtRp1984
(dp1985
g65
(dp1986
g92
g93
ssg74
g1976
sg67
(lp1987
S':'
asbag60
(g81
g62
NtRp1988
(dp1989
g65
(dp1990
sg74
g1976
sg67
(lp1991
g60
(g61
g62
NtRp1992
(dp1993
g65
(dp1994
g73
I4
ssg74
g1988
sg67
(lp1995
g103
asbasbasbag60
(g76
g62
NtRp1996
(dp1997
g65
(dp1998
sg74
g1825
sg67
(lp1999
g60
(g81
g62
NtRp2000
(dp2001
g65
(dp2002
g85
g86
ssg74
g1996
sg67
(lp2003
g1151
asbag60
(g81
g62
NtRp2004
(dp2005
g65
(dp2006
g92
g93
ssg74
g1996
sg67
(lp2007
S':'
asbag60
(g81
g62
NtRp2008
(dp2009
g65
(dp2010
sg74
g1996
sg67
(lp2011
g60
(g61
g62
NtRp2012
(dp2013
g65
(dp2014
g73
I4
ssg74
g2008
sg67
(lp2015
g103
asbasbasbag60
(g76
g62
NtRp2016
(dp2017
g65
(dp2018
sg74
g1825
sg67
(lp2019
g60
(g81
g62
NtRp2020
(dp2021
g65
(dp2022
g85
g86
ssg74
g2016
sg67
(lp2023
g1389
asbag60
(g81
g62
NtRp2024
(dp2025
g65
(dp2026
g92
g93
ssg74
g2016
sg67
(lp2027
S':'
asbag60
(g81
g62
NtRp2028
(dp2029
g65
(dp2030
sg74
g2016
sg67
(lp2031
g60
(g61
g62
NtRp2032
(dp2033
g65
(dp2034
g73
I4
ssg74
g2028
sg67
(lp2035
g1402
asbasbasbag60
(g76
g62
NtRp2036
(dp2037
g65
(dp2038
sg74
g1825
sg67
(lp2039
g60
(g81
g62
NtRp2040
(dp2041
g65
(dp2042
g85
g86
ssg74
g2036
sg67
(lp2043
g1432
asbag60
(g81
g62
NtRp2044
(dp2045
g65
(dp2046
g92
g93
ssg74
g2036
sg67
(lp2047
S':'
asbag60
(g81
g62
NtRp2048
(dp2049
g65
(dp2050
sg74
g2036
sg67
(lp2051
g60
(g61
g62
NtRp2052
(dp2053
g65
(dp2054
g73
I4
ssg74
g2048
sg67
(lp2055
g60
(g69
g62
NtRp2056
(dp2057
g65
(dp2058
g73
I3
ssg74
Nsg67
(lp2059
g60
(g76
g62
NtRp2060
(dp2061
g65
(dp2062
sg74
g2056
sg67
(lp2063
g60
(g81
g62
NtRp2064
(dp2065
g65
(dp2066
sg74
g2060
sg67
(lp2067
g60
(g61
g62
NtRp2068
(dp2069
g65
(dp2070
g73
I3
ssg74
g2064
sg67
(lp2071
S'1'
asbasbasbag60
(g76
g62
NtRp2072
(dp2073
g65
(dp2074
sg74
g2056
sg67
(lp2075
g60
(g81
g62
NtRp2076
(dp2077
g65
(dp2078
sg74
g2072
sg67
(lp2079
g60
(g61
g62
NtRp2080
(dp2081
g65
(dp2082
g73
I3
ssg74
g2076
sg67
(lp2083
S'99'
p2084
asbasbasbag60
(g76
g62
NtRp2085
(dp2086
g65
(dp2087
sg74
g2056
sg67
(lp2088
g60
(g81
g62
NtRp2089
(dp2090
g65
(dp2091
sg74
g2085
sg67
(lp2092
g60
(g61
g62
NtRp2093
(dp2094
g65
(dp2095
g73
I3
ssg74
g2089
sg67
(lp2096
S'7'
asbasbasbag60
(g76
g62
NtRp2097
(dp2098
g65
(dp2099
sg74
g2056
sg67
(lp2100
g60
(g81
g62
NtRp2101
(dp2102
g65
(dp2103
sg74
g2097
sg67
(lp2104
g60
(g61
g62
NtRp2105
(dp2106
g65
(dp2107
g73
I3
ssg74
g2101
sg67
(lp2108
S'datetime.datetime(2012, 3, 4, 22, 12, 8)'
p2109
asbasbasbag60
(g76
g62
NtRp2110
(dp2111
g65
(dp2112
sg74
g2056
sg67
(lp2113
g60
(g81
g62
NtRp2114
(dp2115
g65
(dp2116
sg74
g2110
sg67
(lp2117
g60
(g61
g62
NtRp2118
(dp2119
g65
(dp2120
g73
I3
ssg74
g2114
sg67
(lp2121
g1511
asbasbasbasbasbasbasbasbasbasbasbag60
(g76
g62
NtRp2122
(dp2123
g65
(dp2124
sg74
g70
sg67
(lp2125
g60
(g81
g62
NtRp2126
(dp2127
g65
(dp2128
g85
g86
ssg74
g2122
sg67
(lp2129
S'is_https'
p2130
asbag60
(g81
g62
NtRp2131
(dp2132
g65
(dp2133
g92
g93
ssg74
g2122
sg67
(lp2134
S':'
asbag60
(g81
g62
NtRp2135
(dp2136
g65
(dp2137
sg74
g2122
sg67
(lp2138
g60
(g61
g62
NtRp2139
(dp2140
g65
(dp2141
g73
I5
ssg74
g2135
sg67
(lp2142
g103
asbasbasbag60
(g76
g62
NtRp2143
(dp2144
g65
(dp2145
sg74
g70
sg67
(lp2146
g60
(g81
g62
NtRp2147
(dp2148
g65
(dp2149
g85
g86
ssg74
g2143
sg67
(lp2150
S'is_local'
p2151
asbag60
(g81
g62
NtRp2152
(dp2153
g65
(dp2154
g92
g93
ssg74
g2143
sg67
(lp2155
S':'
asbag60
(g81
g62
NtRp2156
(dp2157
g65
(dp2158
sg74
g2143
sg67
(lp2159
g60
(g61
g62
NtRp2160
(dp2161
g65
(dp2162
g73
I5
ssg74
g2156
sg67
(lp2163
g1620
asbasbasbag60
(g76
g62
NtRp2164
(dp2165
g65
(dp2166
sg74
g70
sg67
(lp2167
g60
(g81
g62
NtRp2168
(dp2169
g65
(dp2170
g85
g86
ssg74
g2164
sg67
(lp2171
S'is_restful'
p2172
asbag60
(g81
g62
NtRp2173
(dp2174
g65
(dp2175
g92
g93
ssg74
g2164
sg67
(lp2176
S':'
asbag60
(g81
g62
NtRp2177
(dp2178
g65
(dp2179
sg74
g2164
sg67
(lp2180
g60
(g61
g62
NtRp2181
(dp2182
g65
(dp2183
g73
I5
ssg74
g2177
sg67
(lp2184
g103
asbasbasbag60
(g76
g62
NtRp2185
(dp2186
g65
(dp2187
sg74
g70
sg67
(lp2188
g60
(g81
g62
NtRp2189
(dp2190
g65
(dp2191
g85
g86
ssg74
g2185
sg67
(lp2192
S'now'
p2193
asbag60
(g81
g62
NtRp2194
(dp2195
g65
(dp2196
g92
g93
ssg74
g2185
sg67
(lp2197
S':'
asbag60
(g81
g62
NtRp2198
(dp2199
g65
(dp2200
sg74
g2185
sg67
(lp2201
g60
(g61
g62
NtRp2202
(dp2203
g65
(dp2204
g73
I5
ssg74
g2198
sg67
(lp2205
S'datetime.datetime(2012, 3, 17, 1, 16, 4, 921000)'
p2206
asbasbasbag60
(g76
g62
NtRp2207
(dp2208
g65
(dp2209
sg74
g70
sg67
(lp2210
g60
(g81
g62
NtRp2211
(dp2212
g65
(dp2213
g85
g86
ssg74
g2207
sg67
(lp2214
S'post_vars'
p2215
asbag60
(g81
g62
NtRp2216
(dp2217
g65
(dp2218
g92
g93
ssg74
g2207
sg67
(lp2219
S':'
asbag60
(g81
g62
NtRp2220
(dp2221
g65
(dp2222
sg74
g2207
sg67
(lp2223
g60
(g61
g62
NtRp2224
(dp2225
g65
(dp2226
g73
I5
ssg74
g2220
sg67
(lp2227
g60
(g69
g62
NtRp2228
(dp2229
g65
(dp2230
g73
I4
ssg74
Nsg67
(lp2231
sbasbasbasbag60
(g76
g62
NtRp2232
(dp2233
g65
(dp2234
sg74
g70
sg67
(lp2235
g60
(g81
g62
NtRp2236
(dp2237
g65
(dp2238
g85
g86
ssg74
g2232
sg67
(lp2239
S'url'
p2240
asbag60
(g81
g62
NtRp2241
(dp2242
g65
(dp2243
g92
g93
ssg74
g2232
sg67
(lp2244
S':'
asbag60
(g81
g62
NtRp2245
(dp2246
g65
(dp2247
sg74
g2232
sg67
(lp2248
g60
(g61
g62
NtRp2249
(dp2250
g65
(dp2251
g73
I5
ssg74
g2245
sg67
(lp2252
S'/parleyweb/admin/index'
p2253
asbasbasbag60
(g76
g62
NtRp2254
(dp2255
g65
(dp2256
sg74
g70
sg67
(lp2257
g60
(g81
g62
NtRp2258
(dp2259
g65
(dp2260
g85
g86
ssg74
g2254
sg67
(lp2261
S'utcnow'
p2262
asbag60
(g81
g62
NtRp2263
(dp2264
g65
(dp2265
g92
g93
ssg74
g2254
sg67
(lp2266
S':'
asbag60
(g81
g62
NtRp2267
(dp2268
g65
(dp2269
sg74
g2254
sg67
(lp2270
g60
(g61
g62
NtRp2271
(dp2272
g65
(dp2273
g73
I5
ssg74
g2267
sg67
(lp2274
S'datetime.datetime(2012, 3, 17, 0, 16, 4, 921000)'
p2275
asbasbasbag60
(g76
g62
NtRp2276
(dp2277
g65
(dp2278
sg74
g70
sg67
(lp2279
g60
(g81
g62
NtRp2280
(dp2281
g65
(dp2282
g85
g86
ssg74
g2276
sg67
(lp2283
S'uuid'
p2284
asbag60
(g81
g62
NtRp2285
(dp2286
g65
(dp2287
g92
g93
ssg74
g2276
sg67
(lp2288
S':'
asbag60
(g81
g62
NtRp2289
(dp2290
g65
(dp2291
sg74
g2276
sg67
(lp2292
g60
(g61
g62
NtRp2293
(dp2294
g65
(dp2295
g73
I5
ssg74
g2289
sg67
(lp2296
S'parleyweb/127.0.0.1.2012-03-17.01-16-04.2b8308ae-fa0f-4070-9ccd-ca04604e816c'
p2297
asbasbasbag60
(g76
g62
NtRp2298
(dp2299
g65
(dp2300
sg74
g70
sg67
(lp2301
g60
(g81
g62
NtRp2302
(dp2303
g65
(dp2304
g85
g86
ssg74
g2298
sg67
(lp2305
S'vars'
p2306
asbag60
(g81
g62
NtRp2307
(dp2308
g65
(dp2309
g92
g93
ssg74
g2298
sg67
(lp2310
S':'
asbag60
(g81
g62
NtRp2311
(dp2312
g65
(dp2313
sg74
g2298
sg67
(lp2314
g60
(g61
g62
NtRp2315
(dp2316
g65
(dp2317
g73
I5
ssg74
g2311
sg67
(lp2318
g60
(g69
g62
NtRp2319
(dp2320
g65
(dp2321
g73
I4
ssg74
Nsg67
(lp2322
sbasbasbasbag60
(g76
g62
NtRp2323
(dp2324
g65
(dp2325
sg74
g70
sg67
(lp2326
g60
(g81
g62
NtRp2327
(dp2328
g65
(dp2329
g85
g86
ssg74
g2323
sg67
(lp2330
S'wsgi'
p2331
asbag60
(g81
g62
NtRp2332
(dp2333
g65
(dp2334
g92
g93
ssg74
g2323
sg67
(lp2335
S':'
asbag60
(g81
g62
NtRp2336
(dp2337
g65
(dp2338
sg74
g2323
sg67
(lp2339
g60
(g61
g62
NtRp2340
(dp2341
g65
(dp2342
g73
I5
ssg74
g2336
sg67
(lp2343
g60
(g69
g62
NtRp2344
(dp2345
g65
(dp2346
g73
I4
ssg74
Nsg67
(lp2347
g60
(g76
g62
NtRp2348
(dp2349
g65
(dp2350
sg74
g2344
sg67
(lp2351
g60
(g81
g62
NtRp2352
(dp2353
g65
(dp2354
g85
g86
ssg74
g2348
sg67
(lp2355
S'environ'
p2356
asbag60
(g81
g62
NtRp2357
(dp2358
g65
(dp2359
g92
g93
ssg74
g2348
sg67
(lp2360
S':'
asbag60
(g81
g62
NtRp2361
(dp2362
g65
(dp2363
sg74
g2348
sg67
(lp2364
g60
(g61
g62
NtRp2365
(dp2366
g65
(dp2367
g73
I4
ssg74
g2361
sg67
(lp2368
g60
(g69
g62
NtRp2369
(dp2370
g65
(dp2371
g73
I3
ssg74
Nsg67
(lp2372
g60
(g76
g62
NtRp2373
(dp2374
g65
(dp2375
sg74
g2369
sg67
(lp2376
g60
(g81
g62
NtRp2377
(dp2378
g65
(dp2379
g85
g86
ssg74
g2373
sg67
(lp2380
S'HTTP_ACCEPT'
p2381
asbag60
(g81
g62
NtRp2382
(dp2383
g65
(dp2384
g92
g93
ssg74
g2373
sg67
(lp2385
S':'
asbag60
(g81
g62
NtRp2386
(dp2387
g65
(dp2388
sg74
g2373
sg67
(lp2389
g60
(g61
g62
NtRp2390
(dp2391
g65
(dp2392
g73
I3
ssg74
g2386
sg67
(lp2393
g945
asbasbasbag60
(g76
g62
NtRp2394
(dp2395
g65
(dp2396
sg74
g2369
sg67
(lp2397
g60
(g81
g62
NtRp2398
(dp2399
g65
(dp2400
g85
g86
ssg74
g2394
sg67
(lp2401
S'HTTP_ACCEPT_ENCODING'
p2402
asbag60
(g81
g62
NtRp2403
(dp2404
g65
(dp2405
g92
g93
ssg74
g2394
sg67
(lp2406
S':'
asbag60
(g81
g62
NtRp2407
(dp2408
g65
(dp2409
sg74
g2394
sg67
(lp2410
g60
(g61
g62
NtRp2411
(dp2412
g65
(dp2413
g73
I3
ssg74
g2407
sg67
(lp2414
g967
asbasbasbag60
(g76
g62
NtRp2415
(dp2416
g65
(dp2417
sg74
g2369
sg67
(lp2418
g60
(g81
g62
NtRp2419
(dp2420
g65
(dp2421
g85
g86
ssg74
g2415
sg67
(lp2422
S'HTTP_ACCEPT_LANGUAGE'
p2423
asbag60
(g81
g62
NtRp2424
(dp2425
g65
(dp2426
g92
g93
ssg74
g2415
sg67
(lp2427
S':'
asbag60
(g81
g62
NtRp2428
(dp2429
g65
(dp2430
sg74
g2415
sg67
(lp2431
g60
(g61
g62
NtRp2432
(dp2433
g65
(dp2434
g73
I3
ssg74
g2428
sg67
(lp2435
g989
asbasbasbag60
(g76
g62
NtRp2436
(dp2437
g65
(dp2438
sg74
g2369
sg67
(lp2439
g60
(g81
g62
NtRp2440
(dp2441
g65
(dp2442
g85
g86
ssg74
g2436
sg67
(lp2443
S'HTTP_CACHE_CONTROL'
p2444
asbag60
(g81
g62
NtRp2445
(dp2446
g65
(dp2447
g92
g93
ssg74
g2436
sg67
(lp2448
S':'
asbag60
(g81
g62
NtRp2449
(dp2450
g65
(dp2451
sg74
g2436
sg67
(lp2452
g60
(g61
g62
NtRp2453
(dp2454
g65
(dp2455
g73
I3
ssg74
g2449
sg67
(lp2456
g1011
asbasbasbag60
(g76
g62
NtRp2457
(dp2458
g65
(dp2459
sg74
g2369
sg67
(lp2460
g60
(g81
g62
NtRp2461
(dp2462
g65
(dp2463
g85
g86
ssg74
g2457
sg67
(lp2464
S'HTTP_CONNECTION'
p2465
asbag60
(g81
g62
NtRp2466
(dp2467
g65
(dp2468
g92
g93
ssg74
g2457
sg67
(lp2469
S':'
asbag60
(g81
g62
NtRp2470
(dp2471
g65
(dp2472
sg74
g2457
sg67
(lp2473
g60
(g61
g62
NtRp2474
(dp2475
g65
(dp2476
g73
I3
ssg74
g2470
sg67
(lp2477
g1033
asbasbasbag60
(g76
g62
NtRp2478
(dp2479
g65
(dp2480
sg74
g2369
sg67
(lp2481
g60
(g81
g62
NtRp2482
(dp2483
g65
(dp2484
g85
g86
ssg74
g2478
sg67
(lp2485
S'HTTP_COOKIE'
p2486
asbag60
(g81
g62
NtRp2487
(dp2488
g65
(dp2489
g92
g93
ssg74
g2478
sg67
(lp2490
S':'
asbag60
(g81
g62
NtRp2491
(dp2492
g65
(dp2493
sg74
g2478
sg67
(lp2494
g60
(g61
g62
NtRp2495
(dp2496
g65
(dp2497
g73
I3
ssg74
g2491
sg67
(lp2498
g1055
asbasbasbag60
(g76
g62
NtRp2499
(dp2500
g65
(dp2501
sg74
g2369
sg67
(lp2502
g60
(g81
g62
NtRp2503
(dp2504
g65
(dp2505
g85
g86
ssg74
g2499
sg67
(lp2506
S'HTTP_HOST'
p2507
asbag60
(g81
g62
NtRp2508
(dp2509
g65
(dp2510
g92
g93
ssg74
g2499
sg67
(lp2511
S':'
asbag60
(g81
g62
NtRp2512
(dp2513
g65
(dp2514
sg74
g2499
sg67
(lp2515
g60
(g61
g62
NtRp2516
(dp2517
g65
(dp2518
g73
I3
ssg74
g2512
sg67
(lp2519
g1077
asbasbasbag60
(g76
g62
NtRp2520
(dp2521
g65
(dp2522
sg74
g2369
sg67
(lp2523
g60
(g81
g62
NtRp2524
(dp2525
g65
(dp2526
g85
g86
ssg74
g2520
sg67
(lp2527
S'HTTP_REFERER'
p2528
asbag60
(g81
g62
NtRp2529
(dp2530
g65
(dp2531
g92
g93
ssg74
g2520
sg67
(lp2532
S':'
asbag60
(g81
g62
NtRp2533
(dp2534
g65
(dp2535
sg74
g2520
sg67
(lp2536
g60
(g61
g62
NtRp2537
(dp2538
g65
(dp2539
g73
I3
ssg74
g2533
sg67
(lp2540
g1099
asbasbasbag60
(g76
g62
NtRp2541
(dp2542
g65
(dp2543
sg74
g2369
sg67
(lp2544
g60
(g81
g62
NtRp2545
(dp2546
g65
(dp2547
g85
g86
ssg74
g2541
sg67
(lp2548
S'HTTP_USER_AGENT'
p2549
asbag60
(g81
g62
NtRp2550
(dp2551
g65
(dp2552
g92
g93
ssg74
g2541
sg67
(lp2553
S':'
asbag60
(g81
g62
NtRp2554
(dp2555
g65
(dp2556
sg74
g2541
sg67
(lp2557
g60
(g61
g62
NtRp2558
(dp2559
g65
(dp2560
g73
I3
ssg74
g2554
sg67
(lp2561
g1121
asbasbasbag60
(g76
g62
NtRp2562
(dp2563
g65
(dp2564
sg74
g2369
sg67
(lp2565
g60
(g81
g62
NtRp2566
(dp2567
g65
(dp2568
g85
g86
ssg74
g2562
sg67
(lp2569
S'PATH_INFO'
p2570
asbag60
(g81
g62
NtRp2571
(dp2572
g65
(dp2573
g92
g93
ssg74
g2562
sg67
(lp2574
S':'
asbag60
(g81
g62
NtRp2575
(dp2576
g65
(dp2577
sg74
g2562
sg67
(lp2578
g60
(g61
g62
NtRp2579
(dp2580
g65
(dp2581
g73
I3
ssg74
g2575
sg67
(lp2582
g1185
asbasbasbag60
(g76
g62
NtRp2583
(dp2584
g65
(dp2585
sg74
g2369
sg67
(lp2586
g60
(g81
g62
NtRp2587
(dp2588
g65
(dp2589
g85
g86
ssg74
g2583
sg67
(lp2590
S'QUERY_STRING'
p2591
asbag60
(g81
g62
NtRp2592
(dp2593
g65
(dp2594
g92
g93
ssg74
g2583
sg67
(lp2595
S':'
asbag60
(g81
g62
NtRp2596
(dp2597
g65
(dp2598
sg74
g2583
sg67
(lp2599
g60
(g61
g62
NtRp2600
(dp2601
g65
(dp2602
g73
I3
ssg74
g2596
sg67
(lp2603
S''
asbasbasbag60
(g76
g62
NtRp2604
(dp2605
g65
(dp2606
sg74
g2369
sg67
(lp2607
g60
(g81
g62
NtRp2608
(dp2609
g65
(dp2610
g85
g86
ssg74
g2604
sg67
(lp2611
S'REMOTE_ADDR'
p2612
asbag60
(g81
g62
NtRp2613
(dp2614
g65
(dp2615
g92
g93
ssg74
g2604
sg67
(lp2616
S':'
asbag60
(g81
g62
NtRp2617
(dp2618
g65
(dp2619
sg74
g2604
sg67
(lp2620
g60
(g61
g62
NtRp2621
(dp2622
g65
(dp2623
g73
I3
ssg74
g2617
sg67
(lp2624
g193
asbasbasbag60
(g76
g62
NtRp2625
(dp2626
g65
(dp2627
sg74
g2369
sg67
(lp2628
g60
(g81
g62
NtRp2629
(dp2630
g65
(dp2631
g85
g86
ssg74
g2625
sg67
(lp2632
S'REMOTE_PORT'
p2633
asbag60
(g81
g62
NtRp2634
(dp2635
g65
(dp2636
g92
g93
ssg74
g2625
sg67
(lp2637
S':'
asbag60
(g81
g62
NtRp2638
(dp2639
g65
(dp2640
sg74
g2625
sg67
(lp2641
g60
(g61
g62
NtRp2642
(dp2643
g65
(dp2644
g73
I3
ssg74
g2638
sg67
(lp2645
g1249
asbasbasbag60
(g76
g62
NtRp2646
(dp2647
g65
(dp2648
sg74
g2369
sg67
(lp2649
g60
(g81
g62
NtRp2650
(dp2651
g65
(dp2652
g85
g86
ssg74
g2646
sg67
(lp2653
S'REQUEST_METHOD'
p2654
asbag60
(g81
g62
NtRp2655
(dp2656
g65
(dp2657
g92
g93
ssg74
g2646
sg67
(lp2658
S':'
asbag60
(g81
g62
NtRp2659
(dp2660
g65
(dp2661
sg74
g2646
sg67
(lp2662
g60
(g61
g62
NtRp2663
(dp2664
g65
(dp2665
g73
I3
ssg74
g2659
sg67
(lp2666
g1271
asbasbasbag60
(g76
g62
NtRp2667
(dp2668
g65
(dp2669
sg74
g2369
sg67
(lp2670
g60
(g81
g62
NtRp2671
(dp2672
g65
(dp2673
g85
g86
ssg74
g2667
sg67
(lp2674
S'SCRIPT_NAME'
p2675
asbag60
(g81
g62
NtRp2676
(dp2677
g65
(dp2678
g92
g93
ssg74
g2667
sg67
(lp2679
S':'
asbag60
(g81
g62
NtRp2680
(dp2681
g65
(dp2682
sg74
g2667
sg67
(lp2683
g60
(g61
g62
NtRp2684
(dp2685
g65
(dp2686
g73
I3
ssg74
g2680
sg67
(lp2687
S''
asbasbasbag60
(g76
g62
NtRp2688
(dp2689
g65
(dp2690
sg74
g2369
sg67
(lp2691
g60
(g81
g62
NtRp2692
(dp2693
g65
(dp2694
g85
g86
ssg74
g2688
sg67
(lp2695
S'SERVER_NAME'
p2696
asbag60
(g81
g62
NtRp2697
(dp2698
g65
(dp2699
g92
g93
ssg74
g2688
sg67
(lp2700
S':'
asbag60
(g81
g62
NtRp2701
(dp2702
g65
(dp2703
sg74
g2688
sg67
(lp2704
g60
(g61
g62
NtRp2705
(dp2706
g65
(dp2707
g73
I3
ssg74
g2701
sg67
(lp2708
g1314
asbasbasbag60
(g76
g62
NtRp2709
(dp2710
g65
(dp2711
sg74
g2369
sg67
(lp2712
g60
(g81
g62
NtRp2713
(dp2714
g65
(dp2715
g85
g86
ssg74
g2709
sg67
(lp2716
S'SERVER_PORT'
p2717
asbag60
(g81
g62
NtRp2718
(dp2719
g65
(dp2720
g92
g93
ssg74
g2709
sg67
(lp2721
S':'
asbag60
(g81
g62
NtRp2722
(dp2723
g65
(dp2724
sg74
g2709
sg67
(lp2725
g60
(g61
g62
NtRp2726
(dp2727
g65
(dp2728
g73
I3
ssg74
g2722
sg67
(lp2729
g1336
asbasbasbag60
(g76
g62
NtRp2730
(dp2731
g65
(dp2732
sg74
g2369
sg67
(lp2733
g60
(g81
g62
NtRp2734
(dp2735
g65
(dp2736
g85
g86
ssg74
g2730
sg67
(lp2737
S'SERVER_PROTOCOL'
p2738
asbag60
(g81
g62
NtRp2739
(dp2740
g65
(dp2741
g92
g93
ssg74
g2730
sg67
(lp2742
S':'
asbag60
(g81
g62
NtRp2743
(dp2744
g65
(dp2745
sg74
g2730
sg67
(lp2746
g60
(g61
g62
NtRp2747
(dp2748
g65
(dp2749
g73
I3
ssg74
g2743
sg67
(lp2750
g1358
asbasbasbag60
(g76
g62
NtRp2751
(dp2752
g65
(dp2753
sg74
g2369
sg67
(lp2754
g60
(g81
g62
NtRp2755
(dp2756
g65
(dp2757
g85
g86
ssg74
g2751
sg67
(lp2758
S'SERVER_SOFTWARE'
p2759
asbag60
(g81
g62
NtRp2760
(dp2761
g65
(dp2762
g92
g93
ssg74
g2751
sg67
(lp2763
S':'
asbag60
(g81
g62
NtRp2764
(dp2765
g65
(dp2766
sg74
g2751
sg67
(lp2767
g60
(g61
g62
NtRp2768
(dp2769
g65
(dp2770
g73
I3
ssg74
g2764
sg67
(lp2771
g1380
asbasbasbag60
(g76
g62
NtRp2772
(dp2773
g65
(dp2774
sg74
g2369
sg67
(lp2775
g60
(g81
g62
NtRp2776
(dp2777
g65
(dp2778
g85
g86
ssg74
g2772
sg67
(lp2779
S'wsgi.errors'
p2780
asbag60
(g81
g62
NtRp2781
(dp2782
g65
(dp2783
g92
g93
ssg74
g2772
sg67
(lp2784
S':'
asbag60
(g81
g62
NtRp2785
(dp2786
g65
(dp2787
sg74
g2772
sg67
(lp2788
g60
(g61
g62
NtRp2789
(dp2790
g65
(dp2791
g73
I3
ssg74
g2785
sg67
(lp2792
S"<open file '<stderr>', mode 'w' at 0x01FB00B0>"
p2793
asbasbasbag60
(g76
g62
NtRp2794
(dp2795
g65
(dp2796
sg74
g2369
sg67
(lp2797
g60
(g81
g62
NtRp2798
(dp2799
g65
(dp2800
g85
g86
ssg74
g2794
sg67
(lp2801
S'wsgi.file_wrapper'
p2802
asbag60
(g81
g62
NtRp2803
(dp2804
g65
(dp2805
g92
g93
ssg74
g2794
sg67
(lp2806
S':'
asbag60
(g81
g62
NtRp2807
(dp2808
g65
(dp2809
sg74
g2794
sg67
(lp2810
g60
(g61
g62
NtRp2811
(dp2812
g65
(dp2813
g73
I3
ssg74
g2807
sg67
(lp2814
S'<class wsgiref.util.FileWrapper at 0x02F56390>'
p2815
asbasbasbag60
(g76
g62
NtRp2816
(dp2817
g65
(dp2818
sg74
g2369
sg67
(lp2819
g60
(g81
g62
NtRp2820
(dp2821
g65
(dp2822
g85
g86
ssg74
g2816
sg67
(lp2823
S'wsgi.input'
p2824
asbag60
(g81
g62
NtRp2825
(dp2826
g65
(dp2827
g92
g93
ssg74
g2816
sg67
(lp2828
S':'
asbag60
(g81
g62
NtRp2829
(dp2830
g65
(dp2831
sg74
g2816
sg67
(lp2832
g60
(g61
g62
NtRp2833
(dp2834
g65
(dp2835
g73
I3
ssg74
g2829
sg67
(lp2836
S'<cStringIO.StringO object at 0x06E885C0>'
p2837
asbasbasbag60
(g76
g62
NtRp2838
(dp2839
g65
(dp2840
sg74
g2369
sg67
(lp2841
g60
(g81
g62
NtRp2842
(dp2843
g65
(dp2844
g85
g86
ssg74
g2838
sg67
(lp2845
S'wsgi.multiprocess'
p2846
asbag60
(g81
g62
NtRp2847
(dp2848
g65
(dp2849
g92
g93
ssg74
g2838
sg67
(lp2850
S':'
asbag60
(g81
g62
NtRp2851
(dp2852
g65
(dp2853
sg74
g2838
sg67
(lp2854
g60
(g61
g62
NtRp2855
(dp2856
g65
(dp2857
g73
I3
ssg74
g2851
sg67
(lp2858
g103
asbasbasbag60
(g76
g62
NtRp2859
(dp2860
g65
(dp2861
sg74
g2369
sg67
(lp2862
g60
(g81
g62
NtRp2863
(dp2864
g65
(dp2865
g85
g86
ssg74
g2859
sg67
(lp2866
S'wsgi.multithread'
p2867
asbag60
(g81
g62
NtRp2868
(dp2869
g65
(dp2870
g92
g93
ssg74
g2859
sg67
(lp2871
S':'
asbag60
(g81
g62
NtRp2872
(dp2873
g65
(dp2874
sg74
g2859
sg67
(lp2875
g60
(g61
g62
NtRp2876
(dp2877
g65
(dp2878
g73
I3
ssg74
g2872
sg67
(lp2879
g1620
asbasbasbag60
(g76
g62
NtRp2880
(dp2881
g65
(dp2882
sg74
g2369
sg67
(lp2883
g60
(g81
g62
NtRp2884
(dp2885
g65
(dp2886
g85
g86
ssg74
g2880
sg67
(lp2887
S'wsgi.run_once'
p2888
asbag60
(g81
g62
NtRp2889
(dp2890
g65
(dp2891
g92
g93
ssg74
g2880
sg67
(lp2892
S':'
asbag60
(g81
g62
NtRp2893
(dp2894
g65
(dp2895
sg74
g2880
sg67
(lp2896
g60
(g61
g62
NtRp2897
(dp2898
g65
(dp2899
g73
I3
ssg74
g2893
sg67
(lp2900
g103
asbasbasbag60
(g76
g62
NtRp2901
(dp2902
g65
(dp2903
sg74
g2369
sg67
(lp2904
g60
(g81
g62
NtRp2905
(dp2906
g65
(dp2907
g85
g86
ssg74
g2901
sg67
(lp2908
S'wsgi.url_scheme'
p2909
asbag60
(g81
g62
NtRp2910
(dp2911
g65
(dp2912
g92
g93
ssg74
g2901
sg67
(lp2913
S':'
asbag60
(g81
g62
NtRp2914
(dp2915
g65
(dp2916
sg74
g2901
sg67
(lp2917
g60
(g61
g62
NtRp2918
(dp2919
g65
(dp2920
g73
I3
ssg74
g2914
sg67
(lp2921
g1663
asbasbasbag60
(g76
g62
NtRp2922
(dp2923
g65
(dp2924
sg74
g2369
sg67
(lp2925
g60
(g81
g62
NtRp2926
(dp2927
g65
(dp2928
g85
g86
ssg74
g2922
sg67
(lp2929
S'wsgi.version'
p2930
asbag60
(g81
g62
NtRp2931
(dp2932
g65
(dp2933
g92
g93
ssg74
g2922
sg67
(lp2934
S':'
asbag60
(g81
g62
NtRp2935
(dp2936
g65
(dp2937
sg74
g2922
sg67
(lp2938
g60
(g61
g62
NtRp2939
(dp2940
g65
(dp2941
g73
I3
ssg74
g2935
sg67
(lp2942
S'1'
asbasbasbasbasbasbasbasbasbasbasbasbasbsS'frames'
p2943
(lp2944
(dp2945
S'file'
p2946
S'D:\\Dise\xf1o Web\\Proyectos\\Parleyweb\\web2py\\gluon\\restricted.py'
p2947
sS'dump'
p2948
(dp2949
sS'lnum'
p2950
I204
sS'lines'
p2951
(dp2952
sS'call'
p2953
S'(code="\\nformulario_busqueda = SQLFORM(db.busqueda, form...rrors:\\n    redirect(URL(\'default\', \'index\')\\n   \\n\\n", environment={\'A\': <class \'gluon.html.A\'>, \'Auth\': <class \'gluon.tools.Auth\'>, \'B\': <class \'gluon.html.B\'>, \'BEAUTIFY\': <class \'gluon.html.BEAUTIFY\'>, \'BODY\': <class \'gluon.html.BODY\'>, \'BR\': <class \'gluon.html.BR\'>, \'BUTTON\': <class \'gluon.html.BUTTON\'>, \'CAT\': <class \'gluon.html.CAT\'>, \'CENTER\': <class \'gluon.html.CENTER\'>, \'CLEANUP\': <class \'gluon.validators.CLEANUP\'>, ...}, layer=\'D:\\\\Dise\\xf1o Web\\\\Proyectos\\\\Parleyweb\\\\web2py\\\\applications\\\\parleyweb\\\\models\\\\globales.py\')'
p2954
sS'func'
p2955
S'restricted'
p2956
sa(dp2957
g2946
S'D:\\Dise\xf1o Web\\Proyectos\\Parleyweb\\web2py\\gluon\\restricted.py'
p2958
sg2948
(dp2959
sg2950
I189
sg2951
(dp2960
sg2953
S'(code="\\nformulario_busqueda = SQLFORM(db.busqueda, form...rrors:\\n    redirect(URL(\'default\', \'index\')\\n   \\n\\n", layer=\'D:\\\\Dise\\xf1o Web\\\\Proyectos\\\\Parleyweb\\\\web2py\\\\applications\\\\parleyweb\\\\models\\\\globales.py\')'
p2961
sg2955
S'compile2'
p2962
sasS'pyver'
p2963
S'Python 2.5.4: D:\\Dise\xf1o Web\\Proyectos\\Parleyweb\\web2py\\web2py.exe'
p2964
sS'session'
p2965
g60
(g61
g62
NtRp2966
(dp2967
g65
(dp2968
sg67
(lp2969
g60
(g69
g62
NtRp2970
(dp2971
g65
(dp2972
g73
I5
ssg74
Nsg67
(lp2973
sbasbsS'etype'
p2974
S"<type 'exceptions.SyntaxError'>"
p2975
sS'date'
p2976
S'Sat Mar 17 01:16:04 2012'
p2977
sS'response'
p2978
g60
(g61
g62
NtRp2979
(dp2980
g65
(dp2981
sg67
(lp2982
g60
(g69
g62
NtRp2983
(dp2984
g65
(dp2985
g73
I5
ssg74
Nsg67
(lp2986
g60
(g76
g62
NtRp2987
(dp2988
g65
(dp2989
sg74
g2983
sg67
(lp2990
g60
(g81
g62
NtRp2991
(dp2992
g65
(dp2993
g85
g86
ssg74
g2987
sg67
(lp2994
g158
asbag60
(g81
g62
NtRp2995
(dp2996
g65
(dp2997
g92
g93
ssg74
g2987
sg67
(lp2998
S':'
asbag60
(g81
g62
NtRp2999
(dp3000
g65
(dp3001
sg74
g2987
sg67
(lp3002
g60
(g61
g62
NtRp3003
(dp3004
g65
(dp3005
g73
I5
ssg74
g2999
sg67
(lp3006
S'<cStringIO.StringO object at 0x06E88FC0>'
p3007
asbasbasbag60
(g76
g62
NtRp3008
(dp3009
g65
(dp3010
sg74
g2983
sg67
(lp3011
g60
(g81
g62
NtRp3012
(dp3013
g65
(dp3014
g85
g86
ssg74
g3008
sg67
(lp3015
g224
asbag60
(g81
g62
NtRp3016
(dp3017
g65
(dp3018
g92
g93
ssg74
g3008
sg67
(lp3019
S':'
asbag60
(g81
g62
NtRp3020
(dp3021
g65
(dp3022
sg74
g3008
sg67
(lp3023
g60
(g61
g62
NtRp3024
(dp3025
g65
(dp3026
g73
I5
ssg74
g3020
sg67
(lp3027
g60
(g69
g62
NtRp3028
(dp3029
g65
(dp3030
g73
I4
ssg74
Nsg67
(lp3031
g60
(g76
g62
NtRp3032
(dp3033
g65
(dp3034
sg74
g3028
sg67
(lp3035
g60
(g81
g62
NtRp3036
(dp3037
g65
(dp3038
g85
g86
ssg74
g3032
sg67
(lp3039
S'session_id_parleyweb'
p3040
asbag60
(g81
g62
NtRp3041
(dp3042
g65
(dp3043
g92
g93
ssg74
g3032
sg67
(lp3044
S':'
asbag60
(g81
g62
NtRp3045
(dp3046
g65
(dp3047
sg74
g3032
sg67
(lp3048
g60
(g61
g62
NtRp3049
(dp3050
g65
(dp3051
g73
I4
ssg74
g3045
sg67
(lp3052
g60
(g69
g62
NtRp3053
(dp3054
g65
(dp3055
g73
I3
ssg74
Nsg67
(lp3056
g60
(g76
g62
NtRp3057
(dp3058
g65
(dp3059
sg74
g3053
sg67
(lp3060
g60
(g81
g62
NtRp3061
(dp3062
g65
(dp3063
g85
g86
ssg74
g3057
sg67
(lp3064
g274
asbag60
(g81
g62
NtRp3065
(dp3066
g65
(dp3067
g92
g93
ssg74
g3057
sg67
(lp3068
S':'
asbag60
(g81
g62
NtRp3069
(dp3070
g65
(dp3071
sg74
g3057
sg67
(lp3072
g60
(g61
g62
NtRp3073
(dp3074
g65
(dp3075
g73
I3
ssg74
g3069
sg67
(lp3076
S''
asbasbasbag60
(g76
g62
NtRp3077
(dp3078
g65
(dp3079
sg74
g3053
sg67
(lp3080
g60
(g81
g62
NtRp3081
(dp3082
g65
(dp3083
g85
g86
ssg74
g3077
sg67
(lp3084
g295
asbag60
(g81
g62
NtRp3085
(dp3086
g65
(dp3087
g92
g93
ssg74
g3077
sg67
(lp3088
S':'
asbag60
(g81
g62
NtRp3089
(dp3090
g65
(dp3091
sg74
g3077
sg67
(lp3092
g60
(g61
g62
NtRp3093
(dp3094
g65
(dp3095
g73
I3
ssg74
g3089
sg67
(lp3096
S''
asbasbasbag60
(g76
g62
NtRp3097
(dp3098
g65
(dp3099
sg74
g3053
sg67
(lp3100
g60
(g81
g62
NtRp3101
(dp3102
g65
(dp3103
g85
g86
ssg74
g3097
sg67
(lp3104
g316
asbag60
(g81
g62
NtRp3105
(dp3106
g65
(dp3107
g92
g93
ssg74
g3097
sg67
(lp3108
S':'
asbag60
(g81
g62
NtRp3109
(dp3110
g65
(dp3111
sg74
g3097
sg67
(lp3112
g60
(g61
g62
NtRp3113
(dp3114
g65
(dp3115
g73
I3
ssg74
g3109
sg67
(lp3116
S''
asbasbasbag60
(g76
g62
NtRp3117
(dp3118
g65
(dp3119
sg74
g3053
sg67
(lp3120
g60
(g81
g62
NtRp3121
(dp3122
g65
(dp3123
g85
g86
ssg74
g3117
sg67
(lp3124
g337
asbag60
(g81
g62
NtRp3125
(dp3126
g65
(dp3127
g92
g93
ssg74
g3117
sg67
(lp3128
S':'
asbag60
(g81
g62
NtRp3129
(dp3130
g65
(dp3131
sg74
g3117
sg67
(lp3132
g60
(g61
g62
NtRp3133
(dp3134
g65
(dp3135
g73
I3
ssg74
g3129
sg67
(lp3136
S''
asbasbasbag60
(g76
g62
NtRp3137
(dp3138
g65
(dp3139
sg74
g3053
sg67
(lp3140
g60
(g81
g62
NtRp3141
(dp3142
g65
(dp3143
g85
g86
ssg74
g3137
sg67
(lp3144
g358
asbag60
(g81
g62
NtRp3145
(dp3146
g65
(dp3147
g92
g93
ssg74
g3137
sg67
(lp3148
S':'
asbag60
(g81
g62
NtRp3149
(dp3150
g65
(dp3151
sg74
g3137
sg67
(lp3152
g60
(g61
g62
NtRp3153
(dp3154
g65
(dp3155
g73
I3
ssg74
g3149
sg67
(lp3156
S'/'
asbasbasbag60
(g76
g62
NtRp3157
(dp3158
g65
(dp3159
sg74
g3053
sg67
(lp3160
g60
(g81
g62
NtRp3161
(dp3162
g65
(dp3163
g85
g86
ssg74
g3157
sg67
(lp3164
g379
asbag60
(g81
g62
NtRp3165
(dp3166
g65
(dp3167
g92
g93
ssg74
g3157
sg67
(lp3168
S':'
asbag60
(g81
g62
NtRp3169
(dp3170
g65
(dp3171
sg74
g3157
sg67
(lp3172
g60
(g61
g62
NtRp3173
(dp3174
g65
(dp3175
g73
I3
ssg74
g3169
sg67
(lp3176
S''
asbasbasbag60
(g76
g62
NtRp3177
(dp3178
g65
(dp3179
sg74
g3053
sg67
(lp3180
g60
(g81
g62
NtRp3181
(dp3182
g65
(dp3183
g85
g86
ssg74
g3177
sg67
(lp3184
g400
asbag60
(g81
g62
NtRp3185
(dp3186
g65
(dp3187
g92
g93
ssg74
g3177
sg67
(lp3188
S':'
asbag60
(g81
g62
NtRp3189
(dp3190
g65
(dp3191
sg74
g3177
sg67
(lp3192
g60
(g61
g62
NtRp3193
(dp3194
g65
(dp3195
g73
I3
ssg74
g3189
sg67
(lp3196
S''
asbasbasbasbasbasbasbasbasbasbasbag60
(g76
g62
NtRp3197
(dp3198
g65
(dp3199
sg74
g2983
sg67
(lp3200
g60
(g81
g62
NtRp3201
(dp3202
g65
(dp3203
g85
g86
ssg74
g3197
sg67
(lp3204
S'delimiters'
p3205
asbag60
(g81
g62
NtRp3206
(dp3207
g65
(dp3208
g92
g93
ssg74
g3197
sg67
(lp3209
S':'
asbag60
(g81
g62
NtRp3210
(dp3211
g65
(dp3212
sg74
g3197
sg67
(lp3213
g60
(g61
g62
NtRp3214
(dp3215
g65
(dp3216
g73
I5
ssg74
g3210
sg67
(lp3217
g60
(g69
g62
NtRp3218
(dp3219
g65
(dp3220
g73
I4
ssg74
Nsg67
(lp3221
g60
(g76
g62
NtRp3222
(dp3223
g65
(dp3224
sg74
g3218
sg67
(lp3225
g60
(g81
g62
NtRp3226
(dp3227
g65
(dp3228
sg74
g3222
sg67
(lp3229
g60
(g61
g62
NtRp3230
(dp3231
g65
(dp3232
g73
I4
ssg74
g3226
sg67
(lp3233
S'{{'
p3234
asbasbasbag60
(g76
g62
NtRp3235
(dp3236
g65
(dp3237
sg74
g3218
sg67
(lp3238
g60
(g81
g62
NtRp3239
(dp3240
g65
(dp3241
sg74
g3235
sg67
(lp3242
g60
(g61
g62
NtRp3243
(dp3244
g65
(dp3245
g73
I4
ssg74
g3239
sg67
(lp3246
S'}}'
p3247
asbasbasbasbasbasbasbag60
(g76
g62
NtRp3248
(dp3249
g65
(dp3250
sg74
g2983
sg67
(lp3251
g60
(g81
g62
NtRp3252
(dp3253
g65
(dp3254
g85
g86
ssg74
g3248
sg67
(lp3255
S'files'
p3256
asbag60
(g81
g62
NtRp3257
(dp3258
g65
(dp3259
g92
g93
ssg74
g3248
sg67
(lp3260
S':'
asbag60
(g81
g62
NtRp3261
(dp3262
g65
(dp3263
sg74
g3248
sg67
(lp3264
g60
(g61
g62
NtRp3265
(dp3266
g65
(dp3267
g73
I5
ssg74
g3261
sg67
(lp3268
g60
(g69
g62
NtRp3269
(dp3270
g65
(dp3271
g73
I4
ssg74
Nsg67
(lp3272
sbasbasbasbag60
(g76
g62
NtRp3273
(dp3274
g65
(dp3275
sg74
g2983
sg67
(lp3276
g60
(g81
g62
NtRp3277
(dp3278
g65
(dp3279
g85
g86
ssg74
g3273
sg67
(lp3280
S'flash'
p3281
asbag60
(g81
g62
NtRp3282
(dp3283
g65
(dp3284
g92
g93
ssg74
g3273
sg67
(lp3285
S':'
asbag60
(g81
g62
NtRp3286
(dp3287
g65
(dp3288
sg74
g3273
sg67
(lp3289
g60
(g61
g62
NtRp3290
(dp3291
g65
(dp3292
g73
I5
ssg74
g3286
sg67
(lp3293
S''
asbasbasbag60
(g76
g62
NtRp3294
(dp3295
g65
(dp3296
sg74
g2983
sg67
(lp3297
g60
(g81
g62
NtRp3298
(dp3299
g65
(dp3300
g85
g86
ssg74
g3294
sg67
(lp3301
S'generic_patterns'
p3302
asbag60
(g81
g62
NtRp3303
(dp3304
g65
(dp3305
g92
g93
ssg74
g3294
sg67
(lp3306
S':'
asbag60
(g81
g62
NtRp3307
(dp3308
g65
(dp3309
sg74
g3294
sg67
(lp3310
g60
(g61
g62
NtRp3311
(dp3312
g65
(dp3313
g73
I5
ssg74
g3307
sg67
(lp3314
g60
(g69
g62
NtRp3315
(dp3316
g65
(dp3317
g73
I4
ssg74
Nsg67
(lp3318
g60
(g76
g62
NtRp3319
(dp3320
g65
(dp3321
sg74
g3315
sg67
(lp3322
g60
(g81
g62
NtRp3323
(dp3324
g65
(dp3325
sg74
g3319
sg67
(lp3326
g60
(g61
g62
NtRp3327
(dp3328
g65
(dp3329
g73
I4
ssg74
g3323
sg67
(lp3330
S'*'
asbasbasbasbasbasbasbag60
(g76
g62
NtRp3331
(dp3332
g65
(dp3333
sg74
g2983
sg67
(lp3334
g60
(g81
g62
NtRp3335
(dp3336
g65
(dp3337
g85
g86
ssg74
g3331
sg67
(lp3338
S'headers'
p3339
asbag60
(g81
g62
NtRp3340
(dp3341
g65
(dp3342
g92
g93
ssg74
g3331
sg67
(lp3343
S':'
asbag60
(g81
g62
NtRp3344
(dp3345
g65
(dp3346
sg74
g3331
sg67
(lp3347
g60
(g61
g62
NtRp3348
(dp3349
g65
(dp3350
g73
I5
ssg74
g3344
sg67
(lp3351
g60
(g69
g62
NtRp3352
(dp3353
g65
(dp3354
g73
I4
ssg74
Nsg67
(lp3355
g60
(g76
g62
NtRp3356
(dp3357
g65
(dp3358
sg74
g3352
sg67
(lp3359
g60
(g81
g62
NtRp3360
(dp3361
g65
(dp3362
g85
g86
ssg74
g3356
sg67
(lp3363
S'Cache-Control'
p3364
asbag60
(g81
g62
NtRp3365
(dp3366
g65
(dp3367
g92
g93
ssg74
g3356
sg67
(lp3368
S':'
asbag60
(g81
g62
NtRp3369
(dp3370
g65
(dp3371
sg74
g3356
sg67
(lp3372
g60
(g61
g62
NtRp3373
(dp3374
g65
(dp3375
g73
I4
ssg74
g3369
sg67
(lp3376
S'no-store, no-cache, must-revalidate, post-check=0, pre-check=0'
p3377
asbasbasbag60
(g76
g62
NtRp3378
(dp3379
g65
(dp3380
sg74
g3352
sg67
(lp3381
g60
(g81
g62
NtRp3382
(dp3383
g65
(dp3384
g85
g86
ssg74
g3378
sg67
(lp3385
S'Content-Type'
p3386
asbag60
(g81
g62
NtRp3387
(dp3388
g65
(dp3389
g92
g93
ssg74
g3378
sg67
(lp3390
S':'
asbag60
(g81
g62
NtRp3391
(dp3392
g65
(dp3393
sg74
g3378
sg67
(lp3394
g60
(g61
g62
NtRp3395
(dp3396
g65
(dp3397
g73
I4
ssg74
g3391
sg67
(lp3398
S'text/html; charset=utf-8'
p3399
asbasbasbag60
(g76
g62
NtRp3400
(dp3401
g65
(dp3402
sg74
g3352
sg67
(lp3403
g60
(g81
g62
NtRp3404
(dp3405
g65
(dp3406
g85
g86
ssg74
g3400
sg67
(lp3407
S'Expires'
p3408
asbag60
(g81
g62
NtRp3409
(dp3410
g65
(dp3411
g92
g93
ssg74
g3400
sg67
(lp3412
S':'
asbag60
(g81
g62
NtRp3413
(dp3414
g65
(dp3415
sg74
g3400
sg67
(lp3416
g60
(g61
g62
NtRp3417
(dp3418
g65
(dp3419
g73
I4
ssg74
g3413
sg67
(lp3420
S'Sat, 17 Mar 2012 00:16:04 GMT'
p3421
asbasbasbag60
(g76
g62
NtRp3422
(dp3423
g65
(dp3424
sg74
g3352
sg67
(lp3425
g60
(g81
g62
NtRp3426
(dp3427
g65
(dp3428
g85
g86
ssg74
g3422
sg67
(lp3429
S'Pragma'
p3430
asbag60
(g81
g62
NtRp3431
(dp3432
g65
(dp3433
g92
g93
ssg74
g3422
sg67
(lp3434
S':'
asbag60
(g81
g62
NtRp3435
(dp3436
g65
(dp3437
sg74
g3422
sg67
(lp3438
g60
(g61
g62
NtRp3439
(dp3440
g65
(dp3441
g73
I4
ssg74
g3435
sg67
(lp3442
S'no-cache'
p3443
asbasbasbag60
(g76
g62
NtRp3444
(dp3445
g65
(dp3446
sg74
g3352
sg67
(lp3447
g60
(g81
g62
NtRp3448
(dp3449
g65
(dp3450
g85
g86
ssg74
g3444
sg67
(lp3451
S'X-Powered-By'
p3452
asbag60
(g81
g62
NtRp3453
(dp3454
g65
(dp3455
g92
g93
ssg74
g3444
sg67
(lp3456
S':'
asbag60
(g81
g62
NtRp3457
(dp3458
g65
(dp3459
sg74
g3444
sg67
(lp3460
g60
(g61
g62
NtRp3461
(dp3462
g65
(dp3463
g73
I4
ssg74
g3457
sg67
(lp3464
S'web2py'
p3465
asbasbasbasbasbasbasbag60
(g76
g62
NtRp3466
(dp3467
g65
(dp3468
sg74
g2983
sg67
(lp3469
g60
(g81
g62
NtRp3470
(dp3471
g65
(dp3472
g85
g86
ssg74
g3466
sg67
(lp3473
S'menu'
p3474
asbag60
(g81
g62
NtRp3475
(dp3476
g65
(dp3477
g92
g93
ssg74
g3466
sg67
(lp3478
S':'
asbag60
(g81
g62
NtRp3479
(dp3480
g65
(dp3481
sg74
g3466
sg67
(lp3482
g60
(g61
g62
NtRp3483
(dp3484
g65
(dp3485
g73
I5
ssg74
g3479
sg67
(lp3486
g60
(g69
g62
NtRp3487
(dp3488
g65
(dp3489
g73
I4
ssg74
Nsg67
(lp3490
sbasbasbasbag60
(g76
g62
NtRp3491
(dp3492
g65
(dp3493
sg74
g2983
sg67
(lp3494
g60
(g81
g62
NtRp3495
(dp3496
g65
(dp3497
g85
g86
ssg74
g3491
sg67
(lp3498
S'meta'
p3499
asbag60
(g81
g62
NtRp3500
(dp3501
g65
(dp3502
g92
g93
ssg74
g3491
sg67
(lp3503
S':'
asbag60
(g81
g62
NtRp3504
(dp3505
g65
(dp3506
sg74
g3491
sg67
(lp3507
g60
(g61
g62
NtRp3508
(dp3509
g65
(dp3510
g73
I5
ssg74
g3504
sg67
(lp3511
g60
(g69
g62
NtRp3512
(dp3513
g65
(dp3514
g73
I4
ssg74
Nsg67
(lp3515
sbasbasbasbag60
(g76
g62
NtRp3516
(dp3517
g65
(dp3518
sg74
g2983
sg67
(lp3519
g60
(g81
g62
NtRp3520
(dp3521
g65
(dp3522
g85
g86
ssg74
g3516
sg67
(lp3523
S'postprocessing'
p3524
asbag60
(g81
g62
NtRp3525
(dp3526
g65
(dp3527
g92
g93
ssg74
g3516
sg67
(lp3528
S':'
asbag60
(g81
g62
NtRp3529
(dp3530
g65
(dp3531
sg74
g3516
sg67
(lp3532
g60
(g61
g62
NtRp3533
(dp3534
g65
(dp3535
g73
I5
ssg74
g3529
sg67
(lp3536
g60
(g69
g62
NtRp3537
(dp3538
g65
(dp3539
g73
I4
ssg74
Nsg67
(lp3540
sbasbasbasbag60
(g76
g62
NtRp3541
(dp3542
g65
(dp3543
sg74
g2983
sg67
(lp3544
g60
(g81
g62
NtRp3545
(dp3546
g65
(dp3547
g85
g86
ssg74
g3541
sg67
(lp3548
S'session_file'
p3549
asbag60
(g81
g62
NtRp3550
(dp3551
g65
(dp3552
g92
g93
ssg74
g3541
sg67
(lp3553
S':'
asbag60
(g81
g62
NtRp3554
(dp3555
g65
(dp3556
sg74
g3541
sg67
(lp3557
g60
(g61
g62
NtRp3558
(dp3559
g65
(dp3560
g73
I5
ssg74
g3554
sg67
(lp3561
S"<open file 'D:\\Dise\xf1o Web\\Proyectos\\Parleyweb\\web2py\\applications\\parleyweb\\sessions\\127.0.0.1-0780c0c1-affd-425a-affb-ac061c4961c7', mode 'rb+' at 0x0755CB18>"
p3562
asbasbasbag60
(g76
g62
NtRp3563
(dp3564
g65
(dp3565
sg74
g2983
sg67
(lp3566
g60
(g81
g62
NtRp3567
(dp3568
g65
(dp3569
g85
g86
ssg74
g3563
sg67
(lp3570
S'session_filename'
p3571
asbag60
(g81
g62
NtRp3572
(dp3573
g65
(dp3574
g92
g93
ssg74
g3563
sg67
(lp3575
S':'
asbag60
(g81
g62
NtRp3576
(dp3577
g65
(dp3578
sg74
g3563
sg67
(lp3579
g60
(g61
g62
NtRp3580
(dp3581
g65
(dp3582
g73
I5
ssg74
g3576
sg67
(lp3583
S'D:\\Dise\xf1o Web\\Proyectos\\Parleyweb\\web2py\\applications\\parleyweb\\sessions\\127.0.0.1-0780c0c1-affd-425a-affb-ac061c4961c7'
p3584
asbasbasbag60
(g76
g62
NtRp3585
(dp3586
g65
(dp3587
sg74
g2983
sg67
(lp3588
g60
(g81
g62
NtRp3589
(dp3590
g65
(dp3591
g85
g86
ssg74
g3585
sg67
(lp3592
S'session_id'
p3593
asbag60
(g81
g62
NtRp3594
(dp3595
g65
(dp3596
g92
g93
ssg74
g3585
sg67
(lp3597
S':'
asbag60
(g81
g62
NtRp3598
(dp3599
g65
(dp3600
sg74
g3585
sg67
(lp3601
g60
(g61
g62
NtRp3602
(dp3603
g65
(dp3604
g73
I5
ssg74
g3598
sg67
(lp3605
S'127.0.0.1-0780c0c1-affd-425a-affb-ac061c4961c7'
p3606
asbasbasbag60
(g76
g62
NtRp3607
(dp3608
g65
(dp3609
sg74
g2983
sg67
(lp3610
g60
(g81
g62
NtRp3611
(dp3612
g65
(dp3613
g85
g86
ssg74
g3607
sg67
(lp3614
S'session_id_name'
p3615
asbag60
(g81
g62
NtRp3616
(dp3617
g65
(dp3618
g92
g93
ssg74
g3607
sg67
(lp3619
S':'
asbag60
(g81
g62
NtRp3620
(dp3621
g65
(dp3622
sg74
g3607
sg67
(lp3623
g60
(g61
g62
NtRp3624
(dp3625
g65
(dp3626
g73
I5
ssg74
g3620
sg67
(lp3627
g3040
asbasbasbag60
(g76
g62
NtRp3628
(dp3629
g65
(dp3630
sg74
g2983
sg67
(lp3631
g60
(g81
g62
NtRp3632
(dp3633
g65
(dp3634
g85
g86
ssg74
g3628
sg67
(lp3635
S'session_locked'
p3636
asbag60
(g81
g62
NtRp3637
(dp3638
g65
(dp3639
g92
g93
ssg74
g3628
sg67
(lp3640
S':'
asbag60
(g81
g62
NtRp3641
(dp3642
g65
(dp3643
sg74
g3628
sg67
(lp3644
g60
(g61
g62
NtRp3645
(dp3646
g65
(dp3647
g73
I5
ssg74
g3641
sg67
(lp3648
g1620
asbasbasbag60
(g76
g62
NtRp3649
(dp3650
g65
(dp3651
sg74
g2983
sg67
(lp3652
g60
(g81
g62
NtRp3653
(dp3654
g65
(dp3655
g85
g86
ssg74
g3649
sg67
(lp3656
S'session_new'
p3657
asbag60
(g81
g62
NtRp3658
(dp3659
g65
(dp3660
g92
g93
ssg74
g3649
sg67
(lp3661
S':'
asbag60
(g81
g62
NtRp3662
(dp3663
g65
(dp3664
sg74
g3649
sg67
(lp3665
g60
(g61
g62
NtRp3666
(dp3667
g65
(dp3668
g73
I5
ssg74
g3662
sg67
(lp3669
g103
asbasbasbag60
(g76
g62
NtRp3670
(dp3671
g65
(dp3672
sg74
g2983
sg67
(lp3673
g60
(g81
g62
NtRp3674
(dp3675
g65
(dp3676
g85
g86
ssg74
g3670
sg67
(lp3677
S'status'
p3678
asbag60
(g81
g62
NtRp3679
(dp3680
g65
(dp3681
g92
g93
ssg74
g3670
sg67
(lp3682
S':'
asbag60
(g81
g62
NtRp3683
(dp3684
g65
(dp3685
sg74
g3670
sg67
(lp3686
g60
(g61
g62
NtRp3687
(dp3688
g65
(dp3689
g73
I5
ssg74
g3683
sg67
(lp3690
S'200'
p3691
asbasbasbag60
(g76
g62
NtRp3692
(dp3693
g65
(dp3694
sg74
g2983
sg67
(lp3695
g60
(g81
g62
NtRp3696
(dp3697
g65
(dp3698
g85
g86
ssg74
g3692
sg67
(lp3699
g2284
asbag60
(g81
g62
NtRp3700
(dp3701
g65
(dp3702
g92
g93
ssg74
g3692
sg67
(lp3703
S':'
asbag60
(g81
g62
NtRp3704
(dp3705
g65
(dp3706
sg74
g3692
sg67
(lp3707
g60
(g61
g62
NtRp3708
(dp3709
g65
(dp3710
g73
I5
ssg74
g3704
sg67
(lp3711
g2297
asbasbasbag60
(g76
g62
NtRp3712
(dp3713
g65
(dp3714
sg74
g2983
sg67
(lp3715
g60
(g81
g62
NtRp3716
(dp3717
g65
(dp3718
g85
g86
ssg74
g3712
sg67
(lp3719
S'view'
p3720
asbag60
(g81
g62
NtRp3721
(dp3722
g65
(dp3723
g92
g93
ssg74
g3712
sg67
(lp3724
S':'
asbag60
(g81
g62
NtRp3725
(dp3726
g65
(dp3727
sg74
g3712
sg67
(lp3728
g60
(g61
g62
NtRp3729
(dp3730
g65
(dp3731
g73
I5
ssg74
g3725
sg67
(lp3732
S'admin/index.html'
p3733
asbasbasbasbasbsS'locals'
p3734
(dp3735
g4
S"'D:\\\\Dise\\xf1o Web\\\\Proyectos\\\\Parleyweb\\\\web2py\\\\applications\\\\parleyweb\\\\models\\\\globales.py'"
p3736
sg6
S'"\\nformulario_busqueda = SQLFORM(db.busqueda, form...rrors:\\n    redirect(URL(\'default\', \'index\')\\n   \\n\\n"'
p3737
sssS'traceback'
p3738
S'Traceback (most recent call last):\n  File "gluon/restricted.py", line 204, in restricted\n  File "gluon/restricted.py", line 189, in compile2\n  File "D:\\Dise\xf1o Web\\Proyectos\\Parleyweb\\web2py\\applications\\parleyweb\\models\\globales.py", line 6\n    redirect(URL(\'default\', \'index\')\n                                   \n^\nSyntaxError: invalid syntax\n'
p3739
s.