(dp1
S'output'
p2
S"<type 'exceptions.AttributeError'> 'str' object has no attribute 'relacionar'"
p3
sS'layer'
p4
S'D:\\Dise\xf1o Web\\Proyectos\\Parleyweb\\web2py\\applications\\parleyweb\\views\\admin/relacionar.html'
p5
sS'code'
p6
S'response.write(\'\\r\\n\', escape=False)\nresponse.write(\'<!DOCTYPE html>\\n<!-- paulirish.com/2008/conditional-stylesheets-vs-css-hacks-answer-neither/ -->\\n<!--[if lt IE 7]><html class="ie ie6 ie-lte9 ie-lte8 ie-lte7 no-js" lang="\', escape=False)\nresponse.write(T.accepted_language or \'en\')\nresponse.write(\'"> <![endif]-->\\n<!--[if IE 7]><html class="ie ie7 ie-lte9 ie-lte8 ie-lte7 no-js" lang="\', escape=False)\nresponse.write(T.accepted_language or \'en\')\nresponse.write(\'"> <![endif]-->\\n<!--[if IE 8]><html class="ie ie8 ie-lte9 ie-lte8 no-js" lang="\', escape=False)\nresponse.write(T.accepted_language or \'en\')\nresponse.write(\'"> <![endif]-->\\n<!--[if IE 9]><html class="ie9 ie-lte9 no-js" lang="\', escape=False)\nresponse.write(T.accepted_language or \'en\')\nresponse.write(\'"> <![endif]-->\\n<!--[if (gt IE 9)|!(IE)]><!--> <html class="no-js" lang="\', escape=False)\nresponse.write(T.accepted_language or \'en\')\nresponse.write(\'"> <!--<![endif]-->\\n<head>\\n  <meta charset="utf-8" />\\n  <!-- www.phpied.com/conditional-comments-block-downloads/ -->\\n  <!-- Always force latest IE rendering engine\\n\\t   (even in intranet) & Chrome Frame\\n\\t   Remove this if you use the .htaccess -->\\n  <!--[if IE]>\\n    <meta http-equiv="X-UA-Compatible" content="IE=edge\', escape=False)\nresponse.write(not request.is_local and \',chrome=1\' or \'\')\nresponse.write(\'">\\n  <![endif]-->\\n  \\n  <title>\', escape=False)\nresponse.write(response.title or request.application)\nresponse.write(\'</title>\\n  \\n  <!-- http://dev.w3.org/html5/markup/meta.name.html -->\\n  <meta name="application-name" content="\', escape=False)\nresponse.write(request.application)\nresponse.write(\'" />\\n  \\n  <!-- Speaking of Google, don\\\'t forget to set your site up:\\n\\t   http://google.com/webmasters -->\\n  <meta name="google-site-verification" content="" />\\n\\n  <!--  Mobile Viewport Fix\\n\\t  j.mp/mobileviewport & davidbcalhoun.com/2010/viewport-metatag\\n\\t  device-width: Occupy full width of the screen in its current orientation\\n\\t  initial-scale = 1.0 retains dimensions instead of zooming out if page height > device height\\n\\t  user-scalable = yes allows the user to zoom in -->\\n  <meta name="viewport" content="width=device-width, initial-scale=1.0, user-scalable=yes">\\n  \\n  <!-- Place favicon.ico and apple-touch-icon.png in the root of your domain and delete these references -->\\n  <link rel="shortcut icon" href="\', escape=False)\nresponse.write(URL(\'static\',\'favicon.ico\'))\nresponse.write(\'" type="image/x-icon">\\n  <link rel="apple-touch-icon" href="\', escape=False)\nresponse.write(URL(\'static\',\'favicon.png\'))\nresponse.write(\'">\\n\\n  <!-- All JavaScript at the bottom, except for Modernizr which enables \\n\\t   HTML5 elements & feature detects -->\\n  <script src="\', escape=False)\nresponse.write(URL(\'static\',\'js/modernizr.custom.js\'))\nresponse.write(\'"></script>  \\n\\n  <!-- include stylesheets -->\\n  \', escape=False)\nresponse.files.append(URL(\'static\',\'css/bootstrap.css\'))\nresponse.files.append(URL(\'static\',\'js/bootstrap.js\'))\nresponse.files.append(URL(\'static\',\'css/parleyweb.css\'))\nresponse.files.append(URL(\'static\',\'css/jquery-ui-1.8.18.custom.css\'))\nresponse.files.append(URL(\'static\',\'js/parleyweb.js\'))\nresponse.files.append(URL(\'static\',\'js/jquery-ui-1.8.18.custom.min.js\'))\nresponse.write(\'\\n\\n  \', escape=False)\nresponse.write(\'<script type="text/javascript"><!--\\n    // These variables are used by the web2py_ajax_init function in web2py_ajax.js (which is loaded below).\\n    var w2p_ajax_confirm_message = "\', escape=False)\nresponse.write(T(\'Are you sure you want to delete this object?\'))\nresponse.write(\'";\\n    var w2p_ajax_date_format = "\', escape=False)\nresponse.write(T(\'%Y-%m-%d\'))\nresponse.write(\'";\\n    var w2p_ajax_datetime_format = "\', escape=False)\nresponse.write(T(\'%Y-%m-%d %H:%M:%S\'))\nresponse.write(\'";\\n    //--></script>\\n\', escape=False)\nresponse.files.insert(0,URL(\'static\',\'js/jquery.js\'))\nresponse.files.insert(1,URL(\'static\',\'css/calendar.css\'))\nresponse.files.insert(2,URL(\'static\',\'js/calendar.js\'))\nresponse.files.insert(3,URL(\'static\',\'js/web2py.js\'))\nresponse.include_meta()\nresponse.include_files()\nresponse.write(\'\\n\', escape=False)\nresponse.write(\'\\n\\n  \\n\\n  \', escape=False)\n# using sidebars need to know what sidebar you want to use\nleft_sidebar_enabled = globals().get(\'left_sidebar_enabled\',False)\nright_sidebar_enabled = globals().get(\'right_sidebar_enabled\',False)\nmiddle_columns = {0:\'sixteen\',1:\'twelve\',2:\'eight\'}[\n(left_sidebar_enabled and 1 or 0)+(right_sidebar_enabled and 1 or 0)]\nresponse.write(\'\\n\\n  <!-- uncomment here to load jquery-ui\\n  <link rel="stylesheet" href="http://ajax.googleapis.com/ajax/libs/jqueryui/1.8.16/themes/base/jquery-ui.css" type="text/css" media="all" />\\n  <script src="http://ajax.googleapis.com/ajax/libs/jqueryui/1.8.16/jquery-ui.min.js" type="text/javascript"></script>\\n  uncomment to load jquery-ui //-->\\n</head>\\n <body>\\n\\n    <div class="navbar navbar-fixed-top">\\n      <div class="navbar-inner">\\n        <div class="container-fluid">\\n          <a class="btn btn-navbar" data-toggle="collapse" data-target=".nav-collapse">\\n            <span class="icon-bar"></span>\\n            <span class="icon-bar"></span>\\n            <span class="icon-bar"></span>\\n          </a>\\n          <a class="brand" href="#">Parleyweb</a>\\n          <div class="nav-collapse">\\n\\t    \', escape=False)\n#=MENU(response.menu, _class="nav active")\nresponse.write(\'\\n            <ul class="nav">\\n              <li>\', escape=False)\nresponse.write(A(T(\'Administracion\'), _href=URL(\'admin\', \'index\')))\nresponse.write(\'</li>\\n            </ul>\\n\\t    \\n            <p class="navbar-text pull-right">\', escape=False)\nresponse.write(\'auth\' in globals() and auth.navbar(separators=(\' \',\' | \',\'\')))\nresponse.write(\'</p>\\n          </div><!--/.nav-collapse -->\\n        </div>\\n      </div>\\n    </div>\\n    <div class="flash alert alert-info"></i>\', escape=False)\nresponse.write(response.flash or \'\')\nresponse.write(\'</div>\\n    <div class="container-fluid">\\n      <div class="row-fluid">\\n        <div class="span3">\\n          <div class="well sidebar-nav">\\n            <ul class="nav nav-list">\\n              <li class="nav-header">\', escape=False)\nresponse.write(T(\'Buscar\'))\nresponse.write(\'</li>\\n            </ul>\\n          </div><!--/.well -->\\n        </div><!--/span-->\\n        <div class="span9">\\n\\t  \', escape=False)\nresponse.write(\'\\n\\t    \', escape=False)\nresponse.write(\'\\r\\n<h1>Esta es la plantilla admin/relacionar.html</h1>\\r\\n\\r\\n\', escape=False)\nfor i in request.post_vars:\n    response.write(\'\\r\\n\', escape=False)\n    response.write(i.relacionar)\n    response.write(\'\\r\\n\', escape=False)\n    pass\nresponse.write(\'\\r\\n\\r\\n\', escape=False)\nresponse.write(response.toolbar())\nresponse.write(\'\\n\\t  \', escape=False)\nresponse.write("\\n          \\n        </div><!--/span-->\\n      </div><!--/row-->\\n\\n      <hr>\\n\\n      <footer>\\n        <p>\\xc2\\xa9 Company 2012</p>\\n      </footer>\\n\\n    </div><!--/.fluid-container-->\\n    \\n    <!-- Le javascript\\n    ================================================== -->\\n    <!-- Placed at the end of the document so the pages load faster \\n    <script>\\n      $(function () {\\n      $(\'.tabs a:last\').tab(\'show\')\\n      })\\n    </script>-->\\n   \\n\\n \\n\\n</body>\\n</html>\\n", escape=False)'
p7
sS'snapshot'
p8
(dp9
S'exception'
p10
(dp11
S'__hash__'
p12
S"<method-wrapper '__hash__' of exceptions.AttributeError object at 0x06A418A0>"
p13
sS'__setattr__'
p14
S"<method-wrapper '__setattr__' of exceptions.AttributeError object at 0x06A418A0>"
p15
sS'__reduce_ex__'
p16
S'<built-in method __reduce_ex__ of exceptions.AttributeError object at 0x06A418A0>'
p17
sS'__getslice__'
p18
S"<method-wrapper '__getslice__' of exceptions.AttributeError object at 0x06A418A0>"
p19
sS'__getitem__'
p20
S"<method-wrapper '__getitem__' of exceptions.AttributeError object at 0x06A418A0>"
p21
sS'__setstate__'
p22
S'<built-in method __setstate__ of exceptions.AttributeError object at 0x06A418A0>'
p23
sS'__reduce__'
p24
S'<built-in method __reduce__ of exceptions.AttributeError object at 0x06A418A0>'
p25
sS'__str__'
p26
S"<method-wrapper '__str__' of exceptions.AttributeError object at 0x06A418A0>"
p27
sS'args'
p28
S'("\'str\' object has no attribute \'relacionar\'",)'
p29
sS'__getattribute__'
p30
S"<method-wrapper '__getattribute__' of exceptions.AttributeError object at 0x06A418A0>"
p31
sS'__class__'
p32
S"<type 'exceptions.AttributeError'>"
p33
sS'__delattr__'
p34
S"<method-wrapper '__delattr__' of exceptions.AttributeError object at 0x06A418A0>"
p35
sS'__repr__'
p36
S"<method-wrapper '__repr__' of exceptions.AttributeError object at 0x06A418A0>"
p37
sS'__dict__'
p38
S'{}'
p39
sS'__doc__'
p40
S"'Attribute not found.'"
p41
sS'__init__'
p42
S"<method-wrapper '__init__' of exceptions.AttributeError object at 0x06A418A0>"
p43
sS'__new__'
p44
S'<built-in method __new__ of type object at 0x1E1CDA68>'
p45
ssS'evalue'
p46
S"'str' object has no attribute 'relacionar'"
p47
sS'request'
p48
ccopy_reg
_reconstructor
p49
(cgluon.html
BEAUTIFY
p50
c__builtin__
object
p51
NtRp52
(dp53
S'attributes'
p54
(dp55
sS'components'
p56
(lp57
g49
(cgluon.html
TABLE
p58
g51
NtRp59
(dp60
g54
(dp61
S'level'
p62
I5
ssS'parent'
p63
Nsg56
(lp64
g49
(cgluon.html
TR
p65
g51
NtRp66
(dp67
g54
(dp68
sg63
g59
sg56
(lp69
g49
(cgluon.html
TD
p70
g51
NtRp71
(dp72
g54
(dp73
S'_style'
p74
S'font-weight:bold;vertical-align:top'
p75
ssg63
g66
sg56
(lp76
S'ajax'
p77
asbag49
(g70
g51
NtRp78
(dp79
g54
(dp80
S'_valign'
p81
S'top'
p82
ssg63
g66
sg56
(lp83
S':'
asbag49
(g70
g51
NtRp84
(dp85
g54
(dp86
sg63
g66
sg56
(lp87
g49
(g50
g51
NtRp88
(dp89
g54
(dp90
g62
I5
ssg63
g84
sg56
(lp91
S'False'
p92
asbasbasbag49
(g65
g51
NtRp93
(dp94
g54
(dp95
sg63
g59
sg56
(lp96
g49
(g70
g51
NtRp97
(dp98
g54
(dp99
g74
g75
ssg63
g93
sg56
(lp100
S'application'
p101
asbag49
(g70
g51
NtRp102
(dp103
g54
(dp104
g81
g82
ssg63
g93
sg56
(lp105
S':'
asbag49
(g70
g51
NtRp106
(dp107
g54
(dp108
sg63
g93
sg56
(lp109
g49
(g50
g51
NtRp110
(dp111
g54
(dp112
g62
I5
ssg63
g106
sg56
(lp113
S'parleyweb'
p114
asbasbasbag49
(g65
g51
NtRp115
(dp116
g54
(dp117
sg63
g59
sg56
(lp118
g49
(g70
g51
NtRp119
(dp120
g54
(dp121
g74
g75
ssg63
g115
sg56
(lp122
S'body'
p123
asbag49
(g70
g51
NtRp124
(dp125
g54
(dp126
g81
g82
ssg63
g115
sg56
(lp127
S':'
asbag49
(g70
g51
NtRp128
(dp129
g54
(dp130
sg63
g115
sg56
(lp131
g49
(g50
g51
NtRp132
(dp133
g54
(dp134
g62
I5
ssg63
g128
sg56
(lp135
S"<open file '<fdopen>', mode 'w+b' at 0x06BF2CC8>"
p136
asbasbasbag49
(g65
g51
NtRp137
(dp138
g54
(dp139
sg63
g59
sg56
(lp140
g49
(g70
g51
NtRp141
(dp142
g54
(dp143
g74
g75
ssg63
g137
sg56
(lp144
S'client'
p145
asbag49
(g70
g51
NtRp146
(dp147
g54
(dp148
g81
g82
ssg63
g137
sg56
(lp149
S':'
asbag49
(g70
g51
NtRp150
(dp151
g54
(dp152
sg63
g137
sg56
(lp153
g49
(g50
g51
NtRp154
(dp155
g54
(dp156
g62
I5
ssg63
g150
sg56
(lp157
S'127.0.0.1'
p158
asbasbasbag49
(g65
g51
NtRp159
(dp160
g54
(dp161
sg63
g59
sg56
(lp162
g49
(g70
g51
NtRp163
(dp164
g54
(dp165
g74
g75
ssg63
g159
sg56
(lp166
S'controller'
p167
asbag49
(g70
g51
NtRp168
(dp169
g54
(dp170
g81
g82
ssg63
g159
sg56
(lp171
S':'
asbag49
(g70
g51
NtRp172
(dp173
g54
(dp174
sg63
g159
sg56
(lp175
g49
(g50
g51
NtRp176
(dp177
g54
(dp178
g62
I5
ssg63
g172
sg56
(lp179
S'admin'
p180
asbasbasbag49
(g65
g51
NtRp181
(dp182
g54
(dp183
sg63
g59
sg56
(lp184
g49
(g70
g51
NtRp185
(dp186
g54
(dp187
g74
g75
ssg63
g181
sg56
(lp188
S'cookies'
p189
asbag49
(g70
g51
NtRp190
(dp191
g54
(dp192
g81
g82
ssg63
g181
sg56
(lp193
S':'
asbag49
(g70
g51
NtRp194
(dp195
g54
(dp196
sg63
g181
sg56
(lp197
g49
(g50
g51
NtRp198
(dp199
g54
(dp200
g62
I5
ssg63
g194
sg56
(lp201
g49
(g58
g51
NtRp202
(dp203
g54
(dp204
g62
I4
ssg63
Nsg56
(lp205
g49
(g65
g51
NtRp206
(dp207
g54
(dp208
sg63
g202
sg56
(lp209
g49
(g70
g51
NtRp210
(dp211
g54
(dp212
g74
g75
ssg63
g206
sg56
(lp213
S'session_id_admin'
p214
asbag49
(g70
g51
NtRp215
(dp216
g54
(dp217
g81
g82
ssg63
g206
sg56
(lp218
S':'
asbag49
(g70
g51
NtRp219
(dp220
g54
(dp221
sg63
g206
sg56
(lp222
g49
(g50
g51
NtRp223
(dp224
g54
(dp225
g62
I4
ssg63
g219
sg56
(lp226
g49
(g58
g51
NtRp227
(dp228
g54
(dp229
g62
I3
ssg63
Nsg56
(lp230
g49
(g65
g51
NtRp231
(dp232
g54
(dp233
sg63
g227
sg56
(lp234
g49
(g70
g51
NtRp235
(dp236
g54
(dp237
g74
g75
ssg63
g231
sg56
(lp238
S'comment'
p239
asbag49
(g70
g51
NtRp240
(dp241
g54
(dp242
g81
g82
ssg63
g231
sg56
(lp243
S':'
asbag49
(g70
g51
NtRp244
(dp245
g54
(dp246
sg63
g231
sg56
(lp247
g49
(g50
g51
NtRp248
(dp249
g54
(dp250
g62
I3
ssg63
g244
sg56
(lp251
S''
asbasbasbag49
(g65
g51
NtRp252
(dp253
g54
(dp254
sg63
g227
sg56
(lp255
g49
(g70
g51
NtRp256
(dp257
g54
(dp258
g74
g75
ssg63
g252
sg56
(lp259
S'domain'
p260
asbag49
(g70
g51
NtRp261
(dp262
g54
(dp263
g81
g82
ssg63
g252
sg56
(lp264
S':'
asbag49
(g70
g51
NtRp265
(dp266
g54
(dp267
sg63
g252
sg56
(lp268
g49
(g50
g51
NtRp269
(dp270
g54
(dp271
g62
I3
ssg63
g265
sg56
(lp272
S''
asbasbasbag49
(g65
g51
NtRp273
(dp274
g54
(dp275
sg63
g227
sg56
(lp276
g49
(g70
g51
NtRp277
(dp278
g54
(dp279
g74
g75
ssg63
g273
sg56
(lp280
S'expires'
p281
asbag49
(g70
g51
NtRp282
(dp283
g54
(dp284
g81
g82
ssg63
g273
sg56
(lp285
S':'
asbag49
(g70
g51
NtRp286
(dp287
g54
(dp288
sg63
g273
sg56
(lp289
g49
(g50
g51
NtRp290
(dp291
g54
(dp292
g62
I3
ssg63
g286
sg56
(lp293
S''
asbasbasbag49
(g65
g51
NtRp294
(dp295
g54
(dp296
sg63
g227
sg56
(lp297
g49
(g70
g51
NtRp298
(dp299
g54
(dp300
g74
g75
ssg63
g294
sg56
(lp301
S'max-age'
p302
asbag49
(g70
g51
NtRp303
(dp304
g54
(dp305
g81
g82
ssg63
g294
sg56
(lp306
S':'
asbag49
(g70
g51
NtRp307
(dp308
g54
(dp309
sg63
g294
sg56
(lp310
g49
(g50
g51
NtRp311
(dp312
g54
(dp313
g62
I3
ssg63
g307
sg56
(lp314
S''
asbasbasbag49
(g65
g51
NtRp315
(dp316
g54
(dp317
sg63
g227
sg56
(lp318
g49
(g70
g51
NtRp319
(dp320
g54
(dp321
g74
g75
ssg63
g315
sg56
(lp322
S'path'
p323
asbag49
(g70
g51
NtRp324
(dp325
g54
(dp326
g81
g82
ssg63
g315
sg56
(lp327
S':'
asbag49
(g70
g51
NtRp328
(dp329
g54
(dp330
sg63
g315
sg56
(lp331
g49
(g50
g51
NtRp332
(dp333
g54
(dp334
g62
I3
ssg63
g328
sg56
(lp335
S''
asbasbasbag49
(g65
g51
NtRp336
(dp337
g54
(dp338
sg63
g227
sg56
(lp339
g49
(g70
g51
NtRp340
(dp341
g54
(dp342
g74
g75
ssg63
g336
sg56
(lp343
S'secure'
p344
asbag49
(g70
g51
NtRp345
(dp346
g54
(dp347
g81
g82
ssg63
g336
sg56
(lp348
S':'
asbag49
(g70
g51
NtRp349
(dp350
g54
(dp351
sg63
g336
sg56
(lp352
g49
(g50
g51
NtRp353
(dp354
g54
(dp355
g62
I3
ssg63
g349
sg56
(lp356
S''
asbasbasbag49
(g65
g51
NtRp357
(dp358
g54
(dp359
sg63
g227
sg56
(lp360
g49
(g70
g51
NtRp361
(dp362
g54
(dp363
g74
g75
ssg63
g357
sg56
(lp364
S'version'
p365
asbag49
(g70
g51
NtRp366
(dp367
g54
(dp368
g81
g82
ssg63
g357
sg56
(lp369
S':'
asbag49
(g70
g51
NtRp370
(dp371
g54
(dp372
sg63
g357
sg56
(lp373
g49
(g50
g51
NtRp374
(dp375
g54
(dp376
g62
I3
ssg63
g370
sg56
(lp377
S''
asbasbasbasbasbasbasbag49
(g65
g51
NtRp378
(dp379
g54
(dp380
sg63
g202
sg56
(lp381
g49
(g70
g51
NtRp382
(dp383
g54
(dp384
g74
g75
ssg63
g378
sg56
(lp385
S'session_id_parleyweb'
p386
asbag49
(g70
g51
NtRp387
(dp388
g54
(dp389
g81
g82
ssg63
g378
sg56
(lp390
S':'
asbag49
(g70
g51
NtRp391
(dp392
g54
(dp393
sg63
g378
sg56
(lp394
g49
(g50
g51
NtRp395
(dp396
g54
(dp397
g62
I4
ssg63
g391
sg56
(lp398
g49
(g58
g51
NtRp399
(dp400
g54
(dp401
g62
I3
ssg63
Nsg56
(lp402
g49
(g65
g51
NtRp403
(dp404
g54
(dp405
sg63
g399
sg56
(lp406
g49
(g70
g51
NtRp407
(dp408
g54
(dp409
g74
g75
ssg63
g403
sg56
(lp410
g239
asbag49
(g70
g51
NtRp411
(dp412
g54
(dp413
g81
g82
ssg63
g403
sg56
(lp414
S':'
asbag49
(g70
g51
NtRp415
(dp416
g54
(dp417
sg63
g403
sg56
(lp418
g49
(g50
g51
NtRp419
(dp420
g54
(dp421
g62
I3
ssg63
g415
sg56
(lp422
S''
asbasbasbag49
(g65
g51
NtRp423
(dp424
g54
(dp425
sg63
g399
sg56
(lp426
g49
(g70
g51
NtRp427
(dp428
g54
(dp429
g74
g75
ssg63
g423
sg56
(lp430
g260
asbag49
(g70
g51
NtRp431
(dp432
g54
(dp433
g81
g82
ssg63
g423
sg56
(lp434
S':'
asbag49
(g70
g51
NtRp435
(dp436
g54
(dp437
sg63
g423
sg56
(lp438
g49
(g50
g51
NtRp439
(dp440
g54
(dp441
g62
I3
ssg63
g435
sg56
(lp442
S''
asbasbasbag49
(g65
g51
NtRp443
(dp444
g54
(dp445
sg63
g399
sg56
(lp446
g49
(g70
g51
NtRp447
(dp448
g54
(dp449
g74
g75
ssg63
g443
sg56
(lp450
g281
asbag49
(g70
g51
NtRp451
(dp452
g54
(dp453
g81
g82
ssg63
g443
sg56
(lp454
S':'
asbag49
(g70
g51
NtRp455
(dp456
g54
(dp457
sg63
g443
sg56
(lp458
g49
(g50
g51
NtRp459
(dp460
g54
(dp461
g62
I3
ssg63
g455
sg56
(lp462
S''
asbasbasbag49
(g65
g51
NtRp463
(dp464
g54
(dp465
sg63
g399
sg56
(lp466
g49
(g70
g51
NtRp467
(dp468
g54
(dp469
g74
g75
ssg63
g463
sg56
(lp470
g302
asbag49
(g70
g51
NtRp471
(dp472
g54
(dp473
g81
g82
ssg63
g463
sg56
(lp474
S':'
asbag49
(g70
g51
NtRp475
(dp476
g54
(dp477
sg63
g463
sg56
(lp478
g49
(g50
g51
NtRp479
(dp480
g54
(dp481
g62
I3
ssg63
g475
sg56
(lp482
S''
asbasbasbag49
(g65
g51
NtRp483
(dp484
g54
(dp485
sg63
g399
sg56
(lp486
g49
(g70
g51
NtRp487
(dp488
g54
(dp489
g74
g75
ssg63
g483
sg56
(lp490
g323
asbag49
(g70
g51
NtRp491
(dp492
g54
(dp493
g81
g82
ssg63
g483
sg56
(lp494
S':'
asbag49
(g70
g51
NtRp495
(dp496
g54
(dp497
sg63
g483
sg56
(lp498
g49
(g50
g51
NtRp499
(dp500
g54
(dp501
g62
I3
ssg63
g495
sg56
(lp502
S''
asbasbasbag49
(g65
g51
NtRp503
(dp504
g54
(dp505
sg63
g399
sg56
(lp506
g49
(g70
g51
NtRp507
(dp508
g54
(dp509
g74
g75
ssg63
g503
sg56
(lp510
g344
asbag49
(g70
g51
NtRp511
(dp512
g54
(dp513
g81
g82
ssg63
g503
sg56
(lp514
S':'
asbag49
(g70
g51
NtRp515
(dp516
g54
(dp517
sg63
g503
sg56
(lp518
g49
(g50
g51
NtRp519
(dp520
g54
(dp521
g62
I3
ssg63
g515
sg56
(lp522
S''
asbasbasbag49
(g65
g51
NtRp523
(dp524
g54
(dp525
sg63
g399
sg56
(lp526
g49
(g70
g51
NtRp527
(dp528
g54
(dp529
g74
g75
ssg63
g523
sg56
(lp530
g365
asbag49
(g70
g51
NtRp531
(dp532
g54
(dp533
g81
g82
ssg63
g523
sg56
(lp534
S':'
asbag49
(g70
g51
NtRp535
(dp536
g54
(dp537
sg63
g523
sg56
(lp538
g49
(g50
g51
NtRp539
(dp540
g54
(dp541
g62
I3
ssg63
g535
sg56
(lp542
S''
asbasbasbasbasbasbasbasbasbasbasbag49
(g65
g51
NtRp543
(dp544
g54
(dp545
sg63
g59
sg56
(lp546
g49
(g70
g51
NtRp547
(dp548
g54
(dp549
g74
g75
ssg63
g543
sg56
(lp550
S'env'
p551
asbag49
(g70
g51
NtRp552
(dp553
g54
(dp554
g81
g82
ssg63
g543
sg56
(lp555
S':'
asbag49
(g70
g51
NtRp556
(dp557
g54
(dp558
sg63
g543
sg56
(lp559
g49
(g50
g51
NtRp560
(dp561
g54
(dp562
g62
I5
ssg63
g556
sg56
(lp563
g49
(g58
g51
NtRp564
(dp565
g54
(dp566
g62
I4
ssg63
Nsg56
(lp567
g49
(g65
g51
NtRp568
(dp569
g54
(dp570
sg63
g564
sg56
(lp571
g49
(g70
g51
NtRp572
(dp573
g54
(dp574
g74
g75
ssg63
g568
sg56
(lp575
S'app_folders'
p576
asbag49
(g70
g51
NtRp577
(dp578
g54
(dp579
g81
g82
ssg63
g568
sg56
(lp580
S':'
asbag49
(g70
g51
NtRp581
(dp582
g54
(dp583
sg63
g568
sg56
(lp584
g49
(g50
g51
NtRp585
(dp586
g54
(dp587
g62
I4
ssg63
g581
sg56
(lp588
S"set(['D:\\\\Dise\\xf1o Web\\\\Proyectos\\\\Parleyweb\\\\web2py\\\\applications\\\\parleyweb\\\\', 'D:\\\\Dise\\xf1o Web\\\\Proyectos\\\\Parleyweb\\\\web2py\\\\applications\\\\admin\\\\'])"
p589
asbasbasbag49
(g65
g51
NtRp590
(dp591
g54
(dp592
sg63
g564
sg56
(lp593
g49
(g70
g51
NtRp594
(dp595
g54
(dp596
g74
g75
ssg63
g590
sg56
(lp597
S'applications_parent'
p598
asbag49
(g70
g51
NtRp599
(dp600
g54
(dp601
g81
g82
ssg63
g590
sg56
(lp602
S':'
asbag49
(g70
g51
NtRp603
(dp604
g54
(dp605
sg63
g590
sg56
(lp606
g49
(g50
g51
NtRp607
(dp608
g54
(dp609
g62
I4
ssg63
g603
sg56
(lp610
S'D:\\Dise\xf1o Web\\Proyectos\\Parleyweb\\web2py'
p611
asbasbasbag49
(g65
g51
NtRp612
(dp613
g54
(dp614
sg63
g564
sg56
(lp615
g49
(g70
g51
NtRp616
(dp617
g54
(dp618
g74
g75
ssg63
g612
sg56
(lp619
S'cmd_args'
p620
asbag49
(g70
g51
NtRp621
(dp622
g54
(dp623
g81
g82
ssg63
g612
sg56
(lp624
S':'
asbag49
(g70
g51
NtRp625
(dp626
g54
(dp627
sg63
g612
sg56
(lp628
g49
(g50
g51
NtRp629
(dp630
g54
(dp631
g62
I4
ssg63
g625
sg56
(lp632
g49
(g58
g51
NtRp633
(dp634
g54
(dp635
g62
I3
ssg63
Nsg56
(lp636
sbasbasbasbag49
(g65
g51
NtRp637
(dp638
g54
(dp639
sg63
g564
sg56
(lp640
g49
(g70
g51
NtRp641
(dp642
g54
(dp643
g74
g75
ssg63
g637
sg56
(lp644
S'cmd_options'
p645
asbag49
(g70
g51
NtRp646
(dp647
g54
(dp648
g81
g82
ssg63
g637
sg56
(lp649
S':'
asbag49
(g70
g51
NtRp650
(dp651
g54
(dp652
sg63
g637
sg56
(lp653
g49
(g50
g51
NtRp654
(dp655
g54
(dp656
g62
I4
ssg63
g650
sg56
(lp657
S"<Values at 0x3185238: {'verbose': False, 'ip': '127.0.0.1', 'shutdown_timeout': 5, 'taskbar': False, 'nocron': False, 'pid_filename': 'httpserver.pid', 'maxthreads': None, 'softcron': False, 'server_name': 'craxsnet-PC', 'bpython': False, 'nogui': False, 'port': 8000, 'extcron': False, 'debuglevel': 30, 'test': None, 'folder': 'D:\\\\Dise\\xf1o Web\\\\Proyectos\\\\Parleyweb\\\\web2py', 'config': '', 'import_models': False, 'winservice': '', 'shell': None, 'run': '', 'log_filename': 'httpserver.log', 'args': [''], 'socket_timeout': 5, 'ssl_ca_certificate': None, 'scheduler': None, 'profiler_filename': None, 'ssl_private_key': '', 'password': '<ask>', 'request_queue_size': 5, 'ssl_certificate': '', 'cronjob': False, 'numthreads': None, 'quiet': False, 'interfaces': None, 'minthreads': None, 'timeout': 10, 'plain': False, 'nobanner': False}>"
p658
asbasbasbag49
(g65
g51
NtRp659
(dp660
g54
(dp661
sg63
g564
sg56
(lp662
g49
(g70
g51
NtRp663
(dp664
g54
(dp665
g74
g75
ssg63
g659
sg56
(lp666
S'content_length'
p667
asbag49
(g70
g51
NtRp668
(dp669
g54
(dp670
g81
g82
ssg63
g659
sg56
(lp671
S':'
asbag49
(g70
g51
NtRp672
(dp673
g54
(dp674
sg63
g659
sg56
(lp675
g49
(g50
g51
NtRp676
(dp677
g54
(dp678
g62
I4
ssg63
g672
sg56
(lp679
S'358'
p680
asbasbasbag49
(g65
g51
NtRp681
(dp682
g54
(dp683
sg63
g564
sg56
(lp684
g49
(g70
g51
NtRp685
(dp686
g54
(dp687
g74
g75
ssg63
g681
sg56
(lp688
S'content_type'
p689
asbag49
(g70
g51
NtRp690
(dp691
g54
(dp692
g81
g82
ssg63
g681
sg56
(lp693
S':'
asbag49
(g70
g51
NtRp694
(dp695
g54
(dp696
sg63
g681
sg56
(lp697
g49
(g50
g51
NtRp698
(dp699
g54
(dp700
g62
I4
ssg63
g694
sg56
(lp701
S'multipart/form-data; boundary=---------------------------256672629917035'
p702
asbasbasbag49
(g65
g51
NtRp703
(dp704
g54
(dp705
sg63
g564
sg56
(lp706
g49
(g70
g51
NtRp707
(dp708
g54
(dp709
g74
g75
ssg63
g703
sg56
(lp710
S'db_sessions'
p711
asbag49
(g70
g51
NtRp712
(dp713
g54
(dp714
g81
g82
ssg63
g703
sg56
(lp715
S':'
asbag49
(g70
g51
NtRp716
(dp717
g54
(dp718
sg63
g703
sg56
(lp719
g49
(g50
g51
NtRp720
(dp721
g54
(dp722
g62
I4
ssg63
g716
sg56
(lp723
S'set([])'
p724
asbasbasbag49
(g65
g51
NtRp725
(dp726
g54
(dp727
sg63
g564
sg56
(lp728
g49
(g70
g51
NtRp729
(dp730
g54
(dp731
g74
g75
ssg63
g725
sg56
(lp732
S'debugging'
p733
asbag49
(g70
g51
NtRp734
(dp735
g54
(dp736
g81
g82
ssg63
g725
sg56
(lp737
S':'
asbag49
(g70
g51
NtRp738
(dp739
g54
(dp740
sg63
g725
sg56
(lp741
g49
(g50
g51
NtRp742
(dp743
g54
(dp744
g62
I4
ssg63
g738
sg56
(lp745
g92
asbasbasbag49
(g65
g51
NtRp746
(dp747
g54
(dp748
sg63
g564
sg56
(lp749
g49
(g70
g51
NtRp750
(dp751
g54
(dp752
g74
g75
ssg63
g746
sg56
(lp753
S'gluon_parent'
p754
asbag49
(g70
g51
NtRp755
(dp756
g54
(dp757
g81
g82
ssg63
g746
sg56
(lp758
S':'
asbag49
(g70
g51
NtRp759
(dp760
g54
(dp761
sg63
g746
sg56
(lp762
g49
(g50
g51
NtRp763
(dp764
g54
(dp765
g62
I4
ssg63
g759
sg56
(lp766
S'D:\\Dise\xf1o Web\\Proyectos\\Parleyweb\\web2py'
p767
asbasbasbag49
(g65
g51
NtRp768
(dp769
g54
(dp770
sg63
g564
sg56
(lp771
g49
(g70
g51
NtRp772
(dp773
g54
(dp774
g74
g75
ssg63
g768
sg56
(lp775
S'http_accept'
p776
asbag49
(g70
g51
NtRp777
(dp778
g54
(dp779
g81
g82
ssg63
g768
sg56
(lp780
S':'
asbag49
(g70
g51
NtRp781
(dp782
g54
(dp783
sg63
g768
sg56
(lp784
g49
(g50
g51
NtRp785
(dp786
g54
(dp787
g62
I4
ssg63
g781
sg56
(lp788
S'text/html,application/xhtml+xml,application/xml;q=0.9,*/*;q=0.8'
p789
asbasbasbag49
(g65
g51
NtRp790
(dp791
g54
(dp792
sg63
g564
sg56
(lp793
g49
(g70
g51
NtRp794
(dp795
g54
(dp796
g74
g75
ssg63
g790
sg56
(lp797
S'http_accept_encoding'
p798
asbag49
(g70
g51
NtRp799
(dp800
g54
(dp801
g81
g82
ssg63
g790
sg56
(lp802
S':'
asbag49
(g70
g51
NtRp803
(dp804
g54
(dp805
sg63
g790
sg56
(lp806
g49
(g50
g51
NtRp807
(dp808
g54
(dp809
g62
I4
ssg63
g803
sg56
(lp810
S'gzip, deflate'
p811
asbasbasbag49
(g65
g51
NtRp812
(dp813
g54
(dp814
sg63
g564
sg56
(lp815
g49
(g70
g51
NtRp816
(dp817
g54
(dp818
g74
g75
ssg63
g812
sg56
(lp819
S'http_accept_language'
p820
asbag49
(g70
g51
NtRp821
(dp822
g54
(dp823
g81
g82
ssg63
g812
sg56
(lp824
S':'
asbag49
(g70
g51
NtRp825
(dp826
g54
(dp827
sg63
g812
sg56
(lp828
g49
(g50
g51
NtRp829
(dp830
g54
(dp831
g62
I4
ssg63
g825
sg56
(lp832
S'es-es,de-de;q=0.8,es;q=0.6,en-us;q=0.4,en;q=0.2'
p833
asbasbasbag49
(g65
g51
NtRp834
(dp835
g54
(dp836
sg63
g564
sg56
(lp837
g49
(g70
g51
NtRp838
(dp839
g54
(dp840
g74
g75
ssg63
g834
sg56
(lp841
S'http_cache_control'
p842
asbag49
(g70
g51
NtRp843
(dp844
g54
(dp845
g81
g82
ssg63
g834
sg56
(lp846
S':'
asbag49
(g70
g51
NtRp847
(dp848
g54
(dp849
sg63
g834
sg56
(lp850
g49
(g50
g51
NtRp851
(dp852
g54
(dp853
g62
I4
ssg63
g847
sg56
(lp854
S'max-age=0'
p855
asbasbasbag49
(g65
g51
NtRp856
(dp857
g54
(dp858
sg63
g564
sg56
(lp859
g49
(g70
g51
NtRp860
(dp861
g54
(dp862
g74
g75
ssg63
g856
sg56
(lp863
S'http_connection'
p864
asbag49
(g70
g51
NtRp865
(dp866
g54
(dp867
g81
g82
ssg63
g856
sg56
(lp868
S':'
asbag49
(g70
g51
NtRp869
(dp870
g54
(dp871
sg63
g856
sg56
(lp872
g49
(g50
g51
NtRp873
(dp874
g54
(dp875
g62
I4
ssg63
g869
sg56
(lp876
S'keep-alive'
p877
asbasbasbag49
(g65
g51
NtRp878
(dp879
g54
(dp880
sg63
g564
sg56
(lp881
g49
(g70
g51
NtRp882
(dp883
g54
(dp884
g74
g75
ssg63
g878
sg56
(lp885
S'http_content_length'
p886
asbag49
(g70
g51
NtRp887
(dp888
g54
(dp889
g81
g82
ssg63
g878
sg56
(lp890
S':'
asbag49
(g70
g51
NtRp891
(dp892
g54
(dp893
sg63
g878
sg56
(lp894
g49
(g50
g51
NtRp895
(dp896
g54
(dp897
g62
I4
ssg63
g891
sg56
(lp898
g680
asbasbasbag49
(g65
g51
NtRp899
(dp900
g54
(dp901
sg63
g564
sg56
(lp902
g49
(g70
g51
NtRp903
(dp904
g54
(dp905
g74
g75
ssg63
g899
sg56
(lp906
S'http_content_type'
p907
asbag49
(g70
g51
NtRp908
(dp909
g54
(dp910
g81
g82
ssg63
g899
sg56
(lp911
S':'
asbag49
(g70
g51
NtRp912
(dp913
g54
(dp914
sg63
g899
sg56
(lp915
g49
(g50
g51
NtRp916
(dp917
g54
(dp918
g62
I4
ssg63
g912
sg56
(lp919
g702
asbasbasbag49
(g65
g51
NtRp920
(dp921
g54
(dp922
sg63
g564
sg56
(lp923
g49
(g70
g51
NtRp924
(dp925
g54
(dp926
g74
g75
ssg63
g920
sg56
(lp927
S'http_cookie'
p928
asbag49
(g70
g51
NtRp929
(dp930
g54
(dp931
g81
g82
ssg63
g920
sg56
(lp932
S':'
asbag49
(g70
g51
NtRp933
(dp934
g54
(dp935
sg63
g920
sg56
(lp936
g49
(g50
g51
NtRp937
(dp938
g54
(dp939
g62
I4
ssg63
g933
sg56
(lp940
S'__utma=96992031.26429765.1325029743.1325029743.1326549329.2; __utmz=96992031.1325029743.1.1.utmcsr=(direct)|utmccn=(direct)|utmcmd=(none); session_id_parleyweb=127.0.0.1-8bc0d624-a7ac-4822-aaf0-ed4b06ce8341; session_id_admin=127.0.0.1-fca687a4-73c3-45ca-8b8b-3788208a9c53'
p941
asbasbasbag49
(g65
g51
NtRp942
(dp943
g54
(dp944
sg63
g564
sg56
(lp945
g49
(g70
g51
NtRp946
(dp947
g54
(dp948
g74
g75
ssg63
g942
sg56
(lp949
S'http_host'
p950
asbag49
(g70
g51
NtRp951
(dp952
g54
(dp953
g81
g82
ssg63
g942
sg56
(lp954
S':'
asbag49
(g70
g51
NtRp955
(dp956
g54
(dp957
sg63
g942
sg56
(lp958
g49
(g50
g51
NtRp959
(dp960
g54
(dp961
g62
I4
ssg63
g955
sg56
(lp962
S'127.0.0.1:8000'
p963
asbasbasbag49
(g65
g51
NtRp964
(dp965
g54
(dp966
sg63
g564
sg56
(lp967
g49
(g70
g51
NtRp968
(dp969
g54
(dp970
g74
g75
ssg63
g964
sg56
(lp971
S'http_referer'
p972
asbag49
(g70
g51
NtRp973
(dp974
g54
(dp975
g81
g82
ssg63
g964
sg56
(lp976
S':'
asbag49
(g70
g51
NtRp977
(dp978
g54
(dp979
sg63
g964
sg56
(lp980
g49
(g50
g51
NtRp981
(dp982
g54
(dp983
g62
I4
ssg63
g977
sg56
(lp984
S'http://127.0.0.1:8000/parleyweb/admin/buscar_ejemplos2/h'
p985
asbasbasbag49
(g65
g51
NtRp986
(dp987
g54
(dp988
sg63
g564
sg56
(lp989
g49
(g70
g51
NtRp990
(dp991
g54
(dp992
g74
g75
ssg63
g986
sg56
(lp993
S'http_user_agent'
p994
asbag49
(g70
g51
NtRp995
(dp996
g54
(dp997
g81
g82
ssg63
g986
sg56
(lp998
S':'
asbag49
(g70
g51
NtRp999
(dp1000
g54
(dp1001
sg63
g986
sg56
(lp1002
g49
(g50
g51
NtRp1003
(dp1004
g54
(dp1005
g62
I4
ssg63
g999
sg56
(lp1006
S'Mozilla/5.0 (Windows NT 6.1; WOW64; rv:10.0.2) Gecko/20100101 Firefox/10.0.2'
p1007
asbasbasbag49
(g65
g51
NtRp1008
(dp1009
g54
(dp1010
sg63
g564
sg56
(lp1011
g49
(g70
g51
NtRp1012
(dp1013
g54
(dp1014
g74
g75
ssg63
g1008
sg56
(lp1015
S'is_jython'
p1016
asbag49
(g70
g51
NtRp1017
(dp1018
g54
(dp1019
g81
g82
ssg63
g1008
sg56
(lp1020
S':'
asbag49
(g70
g51
NtRp1021
(dp1022
g54
(dp1023
sg63
g1008
sg56
(lp1024
g49
(g50
g51
NtRp1025
(dp1026
g54
(dp1027
g62
I4
ssg63
g1021
sg56
(lp1028
g92
asbasbasbag49
(g65
g51
NtRp1029
(dp1030
g54
(dp1031
sg63
g564
sg56
(lp1032
g49
(g70
g51
NtRp1033
(dp1034
g54
(dp1035
g74
g75
ssg63
g1029
sg56
(lp1036
S'is_pypy'
p1037
asbag49
(g70
g51
NtRp1038
(dp1039
g54
(dp1040
g81
g82
ssg63
g1029
sg56
(lp1041
S':'
asbag49
(g70
g51
NtRp1042
(dp1043
g54
(dp1044
sg63
g1029
sg56
(lp1045
g49
(g50
g51
NtRp1046
(dp1047
g54
(dp1048
g62
I4
ssg63
g1042
sg56
(lp1049
g92
asbasbasbag49
(g65
g51
NtRp1050
(dp1051
g54
(dp1052
sg63
g564
sg56
(lp1053
g49
(g70
g51
NtRp1054
(dp1055
g54
(dp1056
g74
g75
ssg63
g1050
sg56
(lp1057
S'path_info'
p1058
asbag49
(g70
g51
NtRp1059
(dp1060
g54
(dp1061
g81
g82
ssg63
g1050
sg56
(lp1062
S':'
asbag49
(g70
g51
NtRp1063
(dp1064
g54
(dp1065
sg63
g1050
sg56
(lp1066
g49
(g50
g51
NtRp1067
(dp1068
g54
(dp1069
g62
I4
ssg63
g1063
sg56
(lp1070
S'/parleyweb/admin/relacionar'
p1071
asbasbasbag49
(g65
g51
NtRp1072
(dp1073
g54
(dp1074
sg63
g564
sg56
(lp1075
g49
(g70
g51
NtRp1076
(dp1077
g54
(dp1078
g74
g75
ssg63
g1072
sg56
(lp1079
S'query_string'
p1080
asbag49
(g70
g51
NtRp1081
(dp1082
g54
(dp1083
g81
g82
ssg63
g1072
sg56
(lp1084
S':'
asbag49
(g70
g51
NtRp1085
(dp1086
g54
(dp1087
sg63
g1072
sg56
(lp1088
g49
(g50
g51
NtRp1089
(dp1090
g54
(dp1091
g62
I4
ssg63
g1085
sg56
(lp1092
S''
asbasbasbag49
(g65
g51
NtRp1093
(dp1094
g54
(dp1095
sg63
g564
sg56
(lp1096
g49
(g70
g51
NtRp1097
(dp1098
g54
(dp1099
g74
g75
ssg63
g1093
sg56
(lp1100
S'remote_addr'
p1101
asbag49
(g70
g51
NtRp1102
(dp1103
g54
(dp1104
g81
g82
ssg63
g1093
sg56
(lp1105
S':'
asbag49
(g70
g51
NtRp1106
(dp1107
g54
(dp1108
sg63
g1093
sg56
(lp1109
g49
(g50
g51
NtRp1110
(dp1111
g54
(dp1112
g62
I4
ssg63
g1106
sg56
(lp1113
g158
asbasbasbag49
(g65
g51
NtRp1114
(dp1115
g54
(dp1116
sg63
g564
sg56
(lp1117
g49
(g70
g51
NtRp1118
(dp1119
g54
(dp1120
g74
g75
ssg63
g1114
sg56
(lp1121
S'remote_port'
p1122
asbag49
(g70
g51
NtRp1123
(dp1124
g54
(dp1125
g81
g82
ssg63
g1114
sg56
(lp1126
S':'
asbag49
(g70
g51
NtRp1127
(dp1128
g54
(dp1129
sg63
g1114
sg56
(lp1130
g49
(g50
g51
NtRp1131
(dp1132
g54
(dp1133
g62
I4
ssg63
g1127
sg56
(lp1134
S'49759'
p1135
asbasbasbag49
(g65
g51
NtRp1136
(dp1137
g54
(dp1138
sg63
g564
sg56
(lp1139
g49
(g70
g51
NtRp1140
(dp1141
g54
(dp1142
g74
g75
ssg63
g1136
sg56
(lp1143
S'request_method'
p1144
asbag49
(g70
g51
NtRp1145
(dp1146
g54
(dp1147
g81
g82
ssg63
g1136
sg56
(lp1148
S':'
asbag49
(g70
g51
NtRp1149
(dp1150
g54
(dp1151
sg63
g1136
sg56
(lp1152
g49
(g50
g51
NtRp1153
(dp1154
g54
(dp1155
g62
I4
ssg63
g1149
sg56
(lp1156
S'POST'
p1157
asbasbasbag49
(g65
g51
NtRp1158
(dp1159
g54
(dp1160
sg63
g564
sg56
(lp1161
g49
(g70
g51
NtRp1162
(dp1163
g54
(dp1164
g74
g75
ssg63
g1158
sg56
(lp1165
S'request_uri'
p1166
asbag49
(g70
g51
NtRp1167
(dp1168
g54
(dp1169
g81
g82
ssg63
g1158
sg56
(lp1170
S':'
asbag49
(g70
g51
NtRp1171
(dp1172
g54
(dp1173
sg63
g1158
sg56
(lp1174
g49
(g50
g51
NtRp1175
(dp1176
g54
(dp1177
g62
I4
ssg63
g1171
sg56
(lp1178
g1071
asbasbasbag49
(g65
g51
NtRp1179
(dp1180
g54
(dp1181
sg63
g564
sg56
(lp1182
g49
(g70
g51
NtRp1183
(dp1184
g54
(dp1185
g74
g75
ssg63
g1179
sg56
(lp1186
S'script_name'
p1187
asbag49
(g70
g51
NtRp1188
(dp1189
g54
(dp1190
g81
g82
ssg63
g1179
sg56
(lp1191
S':'
asbag49
(g70
g51
NtRp1192
(dp1193
g54
(dp1194
sg63
g1179
sg56
(lp1195
g49
(g50
g51
NtRp1196
(dp1197
g54
(dp1198
g62
I4
ssg63
g1192
sg56
(lp1199
S''
asbasbasbag49
(g65
g51
NtRp1200
(dp1201
g54
(dp1202
sg63
g564
sg56
(lp1203
g49
(g70
g51
NtRp1204
(dp1205
g54
(dp1206
g74
g75
ssg63
g1200
sg56
(lp1207
S'server_name'
p1208
asbag49
(g70
g51
NtRp1209
(dp1210
g54
(dp1211
g81
g82
ssg63
g1200
sg56
(lp1212
S':'
asbag49
(g70
g51
NtRp1213
(dp1214
g54
(dp1215
sg63
g1200
sg56
(lp1216
g49
(g50
g51
NtRp1217
(dp1218
g54
(dp1219
g62
I4
ssg63
g1213
sg56
(lp1220
S'craxsnet-PC'
p1221
asbasbasbag49
(g65
g51
NtRp1222
(dp1223
g54
(dp1224
sg63
g564
sg56
(lp1225
g49
(g70
g51
NtRp1226
(dp1227
g54
(dp1228
g74
g75
ssg63
g1222
sg56
(lp1229
S'server_port'
p1230
asbag49
(g70
g51
NtRp1231
(dp1232
g54
(dp1233
g81
g82
ssg63
g1222
sg56
(lp1234
S':'
asbag49
(g70
g51
NtRp1235
(dp1236
g54
(dp1237
sg63
g1222
sg56
(lp1238
g49
(g50
g51
NtRp1239
(dp1240
g54
(dp1241
g62
I4
ssg63
g1235
sg56
(lp1242
S'8000'
p1243
asbasbasbag49
(g65
g51
NtRp1244
(dp1245
g54
(dp1246
sg63
g564
sg56
(lp1247
g49
(g70
g51
NtRp1248
(dp1249
g54
(dp1250
g74
g75
ssg63
g1244
sg56
(lp1251
S'server_protocol'
p1252
asbag49
(g70
g51
NtRp1253
(dp1254
g54
(dp1255
g81
g82
ssg63
g1244
sg56
(lp1256
S':'
asbag49
(g70
g51
NtRp1257
(dp1258
g54
(dp1259
sg63
g1244
sg56
(lp1260
g49
(g50
g51
NtRp1261
(dp1262
g54
(dp1263
g62
I4
ssg63
g1257
sg56
(lp1264
S'HTTP/1.1'
p1265
asbasbasbag49
(g65
g51
NtRp1266
(dp1267
g54
(dp1268
sg63
g564
sg56
(lp1269
g49
(g70
g51
NtRp1270
(dp1271
g54
(dp1272
g74
g75
ssg63
g1266
sg56
(lp1273
S'server_software'
p1274
asbag49
(g70
g51
NtRp1275
(dp1276
g54
(dp1277
g81
g82
ssg63
g1266
sg56
(lp1278
S':'
asbag49
(g70
g51
NtRp1279
(dp1280
g54
(dp1281
sg63
g1266
sg56
(lp1282
g49
(g50
g51
NtRp1283
(dp1284
g54
(dp1285
g62
I4
ssg63
g1279
sg56
(lp1286
S'Rocket 1.2.4'
p1287
asbasbasbag49
(g65
g51
NtRp1288
(dp1289
g54
(dp1290
sg63
g564
sg56
(lp1291
g49
(g70
g51
NtRp1292
(dp1293
g54
(dp1294
g74
g75
ssg63
g1288
sg56
(lp1295
S'web2py_crontype'
p1296
asbag49
(g70
g51
NtRp1297
(dp1298
g54
(dp1299
g81
g82
ssg63
g1288
sg56
(lp1300
S':'
asbag49
(g70
g51
NtRp1301
(dp1302
g54
(dp1303
sg63
g1288
sg56
(lp1304
g49
(g50
g51
NtRp1305
(dp1306
g54
(dp1307
g62
I4
ssg63
g1301
sg56
(lp1308
S'hard'
p1309
asbasbasbag49
(g65
g51
NtRp1310
(dp1311
g54
(dp1312
sg63
g564
sg56
(lp1313
g49
(g70
g51
NtRp1314
(dp1315
g54
(dp1316
g74
g75
ssg63
g1310
sg56
(lp1317
S'web2py_original_uri'
p1318
asbag49
(g70
g51
NtRp1319
(dp1320
g54
(dp1321
g81
g82
ssg63
g1310
sg56
(lp1322
S':'
asbag49
(g70
g51
NtRp1323
(dp1324
g54
(dp1325
sg63
g1310
sg56
(lp1326
g49
(g50
g51
NtRp1327
(dp1328
g54
(dp1329
g62
I4
ssg63
g1323
sg56
(lp1330
S'/parleyweb/admin/relacionar'
p1331
asbasbasbag49
(g65
g51
NtRp1332
(dp1333
g54
(dp1334
sg63
g564
sg56
(lp1335
g49
(g70
g51
NtRp1336
(dp1337
g54
(dp1338
g74
g75
ssg63
g1332
sg56
(lp1339
S'web2py_path'
p1340
asbag49
(g70
g51
NtRp1341
(dp1342
g54
(dp1343
g81
g82
ssg63
g1332
sg56
(lp1344
S':'
asbag49
(g70
g51
NtRp1345
(dp1346
g54
(dp1347
sg63
g1332
sg56
(lp1348
g49
(g50
g51
NtRp1349
(dp1350
g54
(dp1351
g62
I4
ssg63
g1345
sg56
(lp1352
g611
asbasbasbag49
(g65
g51
NtRp1353
(dp1354
g54
(dp1355
sg63
g564
sg56
(lp1356
g49
(g70
g51
NtRp1357
(dp1358
g54
(dp1359
g74
g75
ssg63
g1353
sg56
(lp1360
S'web2py_version'
p1361
asbag49
(g70
g51
NtRp1362
(dp1363
g54
(dp1364
g81
g82
ssg63
g1353
sg56
(lp1365
S':'
asbag49
(g70
g51
NtRp1366
(dp1367
g54
(dp1368
sg63
g1353
sg56
(lp1369
g49
(g50
g51
NtRp1370
(dp1371
g54
(dp1372
g62
I4
ssg63
g1366
sg56
(lp1373
g49
(g58
g51
NtRp1374
(dp1375
g54
(dp1376
g62
I3
ssg63
Nsg56
(lp1377
g49
(g65
g51
NtRp1378
(dp1379
g54
(dp1380
sg63
g1374
sg56
(lp1381
g49
(g70
g51
NtRp1382
(dp1383
g54
(dp1384
sg63
g1378
sg56
(lp1385
g49
(g50
g51
NtRp1386
(dp1387
g54
(dp1388
g62
I3
ssg63
g1382
sg56
(lp1389
S'1'
asbasbasbag49
(g65
g51
NtRp1390
(dp1391
g54
(dp1392
sg63
g1374
sg56
(lp1393
g49
(g70
g51
NtRp1394
(dp1395
g54
(dp1396
sg63
g1390
sg56
(lp1397
g49
(g50
g51
NtRp1398
(dp1399
g54
(dp1400
g62
I3
ssg63
g1394
sg56
(lp1401
S'99'
p1402
asbasbasbag49
(g65
g51
NtRp1403
(dp1404
g54
(dp1405
sg63
g1374
sg56
(lp1406
g49
(g70
g51
NtRp1407
(dp1408
g54
(dp1409
sg63
g1403
sg56
(lp1410
g49
(g50
g51
NtRp1411
(dp1412
g54
(dp1413
g62
I3
ssg63
g1407
sg56
(lp1414
S'7'
asbasbasbag49
(g65
g51
NtRp1415
(dp1416
g54
(dp1417
sg63
g1374
sg56
(lp1418
g49
(g70
g51
NtRp1419
(dp1420
g54
(dp1421
sg63
g1415
sg56
(lp1422
g49
(g50
g51
NtRp1423
(dp1424
g54
(dp1425
g62
I3
ssg63
g1419
sg56
(lp1426
S'datetime.datetime(2012, 3, 4, 22, 12, 8)'
p1427
asbasbasbag49
(g65
g51
NtRp1428
(dp1429
g54
(dp1430
sg63
g1374
sg56
(lp1431
g49
(g70
g51
NtRp1432
(dp1433
g54
(dp1434
sg63
g1428
sg56
(lp1435
g49
(g50
g51
NtRp1436
(dp1437
g54
(dp1438
g62
I3
ssg63
g1432
sg56
(lp1439
S'stable'
p1440
asbasbasbasbasbasbasbag49
(g65
g51
NtRp1441
(dp1442
g54
(dp1443
sg63
g564
sg56
(lp1444
g49
(g70
g51
NtRp1445
(dp1446
g54
(dp1447
g74
g75
ssg63
g1441
sg56
(lp1448
S'wsgi_errors'
p1449
asbag49
(g70
g51
NtRp1450
(dp1451
g54
(dp1452
g81
g82
ssg63
g1441
sg56
(lp1453
S':'
asbag49
(g70
g51
NtRp1454
(dp1455
g54
(dp1456
sg63
g1441
sg56
(lp1457
g49
(g50
g51
NtRp1458
(dp1459
g54
(dp1460
g62
I4
ssg63
g1454
sg56
(lp1461
S"<open file '<stderr>', mode 'w' at 0x004200B0>"
p1462
asbasbasbag49
(g65
g51
NtRp1463
(dp1464
g54
(dp1465
sg63
g564
sg56
(lp1466
g49
(g70
g51
NtRp1467
(dp1468
g54
(dp1469
g74
g75
ssg63
g1463
sg56
(lp1470
S'wsgi_file_wrapper'
p1471
asbag49
(g70
g51
NtRp1472
(dp1473
g54
(dp1474
g81
g82
ssg63
g1463
sg56
(lp1475
S':'
asbag49
(g70
g51
NtRp1476
(dp1477
g54
(dp1478
sg63
g1463
sg56
(lp1479
g49
(g50
g51
NtRp1480
(dp1481
g54
(dp1482
g62
I4
ssg63
g1476
sg56
(lp1483
S'<class wsgiref.util.FileWrapper at 0x02FC6390>'
p1484
asbasbasbag49
(g65
g51
NtRp1485
(dp1486
g54
(dp1487
sg63
g564
sg56
(lp1488
g49
(g70
g51
NtRp1489
(dp1490
g54
(dp1491
g74
g75
ssg63
g1485
sg56
(lp1492
S'wsgi_input'
p1493
asbag49
(g70
g51
NtRp1494
(dp1495
g54
(dp1496
g81
g82
ssg63
g1485
sg56
(lp1497
S':'
asbag49
(g70
g51
NtRp1498
(dp1499
g54
(dp1500
sg63
g1485
sg56
(lp1501
g49
(g50
g51
NtRp1502
(dp1503
g54
(dp1504
g62
I4
ssg63
g1498
sg56
(lp1505
S'<socket._fileobject object at 0x06AD43F0>'
p1506
asbasbasbag49
(g65
g51
NtRp1507
(dp1508
g54
(dp1509
sg63
g564
sg56
(lp1510
g49
(g70
g51
NtRp1511
(dp1512
g54
(dp1513
g74
g75
ssg63
g1507
sg56
(lp1514
S'wsgi_multiprocess'
p1515
asbag49
(g70
g51
NtRp1516
(dp1517
g54
(dp1518
g81
g82
ssg63
g1507
sg56
(lp1519
S':'
asbag49
(g70
g51
NtRp1520
(dp1521
g54
(dp1522
sg63
g1507
sg56
(lp1523
g49
(g50
g51
NtRp1524
(dp1525
g54
(dp1526
g62
I4
ssg63
g1520
sg56
(lp1527
g92
asbasbasbag49
(g65
g51
NtRp1528
(dp1529
g54
(dp1530
sg63
g564
sg56
(lp1531
g49
(g70
g51
NtRp1532
(dp1533
g54
(dp1534
g74
g75
ssg63
g1528
sg56
(lp1535
S'wsgi_multithread'
p1536
asbag49
(g70
g51
NtRp1537
(dp1538
g54
(dp1539
g81
g82
ssg63
g1528
sg56
(lp1540
S':'
asbag49
(g70
g51
NtRp1541
(dp1542
g54
(dp1543
sg63
g1528
sg56
(lp1544
g49
(g50
g51
NtRp1545
(dp1546
g54
(dp1547
g62
I4
ssg63
g1541
sg56
(lp1548
S'True'
p1549
asbasbasbag49
(g65
g51
NtRp1550
(dp1551
g54
(dp1552
sg63
g564
sg56
(lp1553
g49
(g70
g51
NtRp1554
(dp1555
g54
(dp1556
g74
g75
ssg63
g1550
sg56
(lp1557
S'wsgi_run_once'
p1558
asbag49
(g70
g51
NtRp1559
(dp1560
g54
(dp1561
g81
g82
ssg63
g1550
sg56
(lp1562
S':'
asbag49
(g70
g51
NtRp1563
(dp1564
g54
(dp1565
sg63
g1550
sg56
(lp1566
g49
(g50
g51
NtRp1567
(dp1568
g54
(dp1569
g62
I4
ssg63
g1563
sg56
(lp1570
g92
asbasbasbag49
(g65
g51
NtRp1571
(dp1572
g54
(dp1573
sg63
g564
sg56
(lp1574
g49
(g70
g51
NtRp1575
(dp1576
g54
(dp1577
g74
g75
ssg63
g1571
sg56
(lp1578
S'wsgi_url_scheme'
p1579
asbag49
(g70
g51
NtRp1580
(dp1581
g54
(dp1582
g81
g82
ssg63
g1571
sg56
(lp1583
S':'
asbag49
(g70
g51
NtRp1584
(dp1585
g54
(dp1586
sg63
g1571
sg56
(lp1587
g49
(g50
g51
NtRp1588
(dp1589
g54
(dp1590
g62
I4
ssg63
g1584
sg56
(lp1591
S'http'
p1592
asbasbasbag49
(g65
g51
NtRp1593
(dp1594
g54
(dp1595
sg63
g564
sg56
(lp1596
g49
(g70
g51
NtRp1597
(dp1598
g54
(dp1599
g74
g75
ssg63
g1593
sg56
(lp1600
S'wsgi_version'
p1601
asbag49
(g70
g51
NtRp1602
(dp1603
g54
(dp1604
g81
g82
ssg63
g1593
sg56
(lp1605
S':'
asbag49
(g70
g51
NtRp1606
(dp1607
g54
(dp1608
sg63
g1593
sg56
(lp1609
g49
(g50
g51
NtRp1610
(dp1611
g54
(dp1612
g62
I4
ssg63
g1606
sg56
(lp1613
g49
(g58
g51
NtRp1614
(dp1615
g54
(dp1616
g62
I3
ssg63
Nsg56
(lp1617
g49
(g65
g51
NtRp1618
(dp1619
g54
(dp1620
sg63
g1614
sg56
(lp1621
g49
(g70
g51
NtRp1622
(dp1623
g54
(dp1624
sg63
g1618
sg56
(lp1625
g49
(g50
g51
NtRp1626
(dp1627
g54
(dp1628
g62
I3
ssg63
g1622
sg56
(lp1629
S'1'
asbasbasbag49
(g65
g51
NtRp1630
(dp1631
g54
(dp1632
sg63
g1614
sg56
(lp1633
g49
(g70
g51
NtRp1634
(dp1635
g54
(dp1636
sg63
g1630
sg56
(lp1637
g49
(g50
g51
NtRp1638
(dp1639
g54
(dp1640
g62
I3
ssg63
g1634
sg56
(lp1641
S'0'
asbasbasbasbasbasbasbasbasbasbasbag49
(g65
g51
NtRp1642
(dp1643
g54
(dp1644
sg63
g59
sg56
(lp1645
g49
(g70
g51
NtRp1646
(dp1647
g54
(dp1648
g74
g75
ssg63
g1642
sg56
(lp1649
S'extension'
p1650
asbag49
(g70
g51
NtRp1651
(dp1652
g54
(dp1653
g81
g82
ssg63
g1642
sg56
(lp1654
S':'
asbag49
(g70
g51
NtRp1655
(dp1656
g54
(dp1657
sg63
g1642
sg56
(lp1658
g49
(g50
g51
NtRp1659
(dp1660
g54
(dp1661
g62
I5
ssg63
g1655
sg56
(lp1662
S'html'
p1663
asbasbasbag49
(g65
g51
NtRp1664
(dp1665
g54
(dp1666
sg63
g59
sg56
(lp1667
g49
(g70
g51
NtRp1668
(dp1669
g54
(dp1670
g74
g75
ssg63
g1664
sg56
(lp1671
S'folder'
p1672
asbag49
(g70
g51
NtRp1673
(dp1674
g54
(dp1675
g81
g82
ssg63
g1664
sg56
(lp1676
S':'
asbag49
(g70
g51
NtRp1677
(dp1678
g54
(dp1679
sg63
g1664
sg56
(lp1680
g49
(g50
g51
NtRp1681
(dp1682
g54
(dp1683
g62
I5
ssg63
g1677
sg56
(lp1684
S'D:\\Dise\xf1o Web\\Proyectos\\Parleyweb\\web2py\\applications\\parleyweb\\'
p1685
asbasbasbag49
(g65
g51
NtRp1686
(dp1687
g54
(dp1688
sg63
g59
sg56
(lp1689
g49
(g70
g51
NtRp1690
(dp1691
g54
(dp1692
g74
g75
ssg63
g1686
sg56
(lp1693
S'function'
p1694
asbag49
(g70
g51
NtRp1695
(dp1696
g54
(dp1697
g81
g82
ssg63
g1686
sg56
(lp1698
S':'
asbag49
(g70
g51
NtRp1699
(dp1700
g54
(dp1701
sg63
g1686
sg56
(lp1702
g49
(g50
g51
NtRp1703
(dp1704
g54
(dp1705
g62
I5
ssg63
g1699
sg56
(lp1706
S'relacionar'
p1707
asbasbasbag49
(g65
g51
NtRp1708
(dp1709
g54
(dp1710
sg63
g59
sg56
(lp1711
g49
(g70
g51
NtRp1712
(dp1713
g54
(dp1714
g74
g75
ssg63
g1708
sg56
(lp1715
S'get_vars'
p1716
asbag49
(g70
g51
NtRp1717
(dp1718
g54
(dp1719
g81
g82
ssg63
g1708
sg56
(lp1720
S':'
asbag49
(g70
g51
NtRp1721
(dp1722
g54
(dp1723
sg63
g1708
sg56
(lp1724
g49
(g50
g51
NtRp1725
(dp1726
g54
(dp1727
g62
I5
ssg63
g1721
sg56
(lp1728
g49
(g58
g51
NtRp1729
(dp1730
g54
(dp1731
g62
I4
ssg63
Nsg56
(lp1732
sbasbasbasbag49
(g65
g51
NtRp1733
(dp1734
g54
(dp1735
sg63
g59
sg56
(lp1736
g49
(g70
g51
NtRp1737
(dp1738
g54
(dp1739
g74
g75
ssg63
g1733
sg56
(lp1740
S'global_settings'
p1741
asbag49
(g70
g51
NtRp1742
(dp1743
g54
(dp1744
g81
g82
ssg63
g1733
sg56
(lp1745
S':'
asbag49
(g70
g51
NtRp1746
(dp1747
g54
(dp1748
sg63
g1733
sg56
(lp1749
g49
(g50
g51
NtRp1750
(dp1751
g54
(dp1752
g62
I5
ssg63
g1746
sg56
(lp1753
g49
(g58
g51
NtRp1754
(dp1755
g54
(dp1756
g62
I4
ssg63
Nsg56
(lp1757
g49
(g65
g51
NtRp1758
(dp1759
g54
(dp1760
sg63
g1754
sg56
(lp1761
g49
(g70
g51
NtRp1762
(dp1763
g54
(dp1764
g74
g75
ssg63
g1758
sg56
(lp1765
g576
asbag49
(g70
g51
NtRp1766
(dp1767
g54
(dp1768
g81
g82
ssg63
g1758
sg56
(lp1769
S':'
asbag49
(g70
g51
NtRp1770
(dp1771
g54
(dp1772
sg63
g1758
sg56
(lp1773
g49
(g50
g51
NtRp1774
(dp1775
g54
(dp1776
g62
I4
ssg63
g1770
sg56
(lp1777
S"set(['D:\\\\Dise\\xf1o Web\\\\Proyectos\\\\Parleyweb\\\\web2py\\\\applications\\\\parleyweb\\\\', 'D:\\\\Dise\\xf1o Web\\\\Proyectos\\\\Parleyweb\\\\web2py\\\\applications\\\\admin\\\\'])"
p1778
asbasbasbag49
(g65
g51
NtRp1779
(dp1780
g54
(dp1781
sg63
g1754
sg56
(lp1782
g49
(g70
g51
NtRp1783
(dp1784
g54
(dp1785
g74
g75
ssg63
g1779
sg56
(lp1786
g598
asbag49
(g70
g51
NtRp1787
(dp1788
g54
(dp1789
g81
g82
ssg63
g1779
sg56
(lp1790
S':'
asbag49
(g70
g51
NtRp1791
(dp1792
g54
(dp1793
sg63
g1779
sg56
(lp1794
g49
(g50
g51
NtRp1795
(dp1796
g54
(dp1797
g62
I4
ssg63
g1791
sg56
(lp1798
g611
asbasbasbag49
(g65
g51
NtRp1799
(dp1800
g54
(dp1801
sg63
g1754
sg56
(lp1802
g49
(g70
g51
NtRp1803
(dp1804
g54
(dp1805
g74
g75
ssg63
g1799
sg56
(lp1806
g620
asbag49
(g70
g51
NtRp1807
(dp1808
g54
(dp1809
g81
g82
ssg63
g1799
sg56
(lp1810
S':'
asbag49
(g70
g51
NtRp1811
(dp1812
g54
(dp1813
sg63
g1799
sg56
(lp1814
g49
(g50
g51
NtRp1815
(dp1816
g54
(dp1817
g62
I4
ssg63
g1811
sg56
(lp1818
g49
(g58
g51
NtRp1819
(dp1820
g54
(dp1821
g62
I3
ssg63
Nsg56
(lp1822
sbasbasbasbag49
(g65
g51
NtRp1823
(dp1824
g54
(dp1825
sg63
g1754
sg56
(lp1826
g49
(g70
g51
NtRp1827
(dp1828
g54
(dp1829
g74
g75
ssg63
g1823
sg56
(lp1830
g645
asbag49
(g70
g51
NtRp1831
(dp1832
g54
(dp1833
g81
g82
ssg63
g1823
sg56
(lp1834
S':'
asbag49
(g70
g51
NtRp1835
(dp1836
g54
(dp1837
sg63
g1823
sg56
(lp1838
g49
(g50
g51
NtRp1839
(dp1840
g54
(dp1841
g62
I4
ssg63
g1835
sg56
(lp1842
S"<Values at 0x3185238: {'verbose': False, 'ip': '127.0.0.1', 'shutdown_timeout': 5, 'taskbar': False, 'nocron': False, 'pid_filename': 'httpserver.pid', 'maxthreads': None, 'softcron': False, 'server_name': 'craxsnet-PC', 'bpython': False, 'nogui': False, 'port': 8000, 'extcron': False, 'debuglevel': 30, 'test': None, 'folder': 'D:\\\\Dise\\xf1o Web\\\\Proyectos\\\\Parleyweb\\\\web2py', 'config': '', 'import_models': False, 'winservice': '', 'shell': None, 'run': '', 'log_filename': 'httpserver.log', 'args': [''], 'socket_timeout': 5, 'ssl_ca_certificate': None, 'scheduler': None, 'profiler_filename': None, 'ssl_private_key': '', 'password': '<ask>', 'request_queue_size': 5, 'ssl_certificate': '', 'cronjob': False, 'numthreads': None, 'quiet': False, 'interfaces': None, 'minthreads': None, 'timeout': 10, 'plain': False, 'nobanner': False}>"
p1843
asbasbasbag49
(g65
g51
NtRp1844
(dp1845
g54
(dp1846
sg63
g1754
sg56
(lp1847
g49
(g70
g51
NtRp1848
(dp1849
g54
(dp1850
g74
g75
ssg63
g1844
sg56
(lp1851
g711
asbag49
(g70
g51
NtRp1852
(dp1853
g54
(dp1854
g81
g82
ssg63
g1844
sg56
(lp1855
S':'
asbag49
(g70
g51
NtRp1856
(dp1857
g54
(dp1858
sg63
g1844
sg56
(lp1859
g49
(g50
g51
NtRp1860
(dp1861
g54
(dp1862
g62
I4
ssg63
g1856
sg56
(lp1863
S'set([])'
p1864
asbasbasbag49
(g65
g51
NtRp1865
(dp1866
g54
(dp1867
sg63
g1754
sg56
(lp1868
g49
(g70
g51
NtRp1869
(dp1870
g54
(dp1871
g74
g75
ssg63
g1865
sg56
(lp1872
g733
asbag49
(g70
g51
NtRp1873
(dp1874
g54
(dp1875
g81
g82
ssg63
g1865
sg56
(lp1876
S':'
asbag49
(g70
g51
NtRp1877
(dp1878
g54
(dp1879
sg63
g1865
sg56
(lp1880
g49
(g50
g51
NtRp1881
(dp1882
g54
(dp1883
g62
I4
ssg63
g1877
sg56
(lp1884
g92
asbasbasbag49
(g65
g51
NtRp1885
(dp1886
g54
(dp1887
sg63
g1754
sg56
(lp1888
g49
(g70
g51
NtRp1889
(dp1890
g54
(dp1891
g74
g75
ssg63
g1885
sg56
(lp1892
g754
asbag49
(g70
g51
NtRp1893
(dp1894
g54
(dp1895
g81
g82
ssg63
g1885
sg56
(lp1896
S':'
asbag49
(g70
g51
NtRp1897
(dp1898
g54
(dp1899
sg63
g1885
sg56
(lp1900
g49
(g50
g51
NtRp1901
(dp1902
g54
(dp1903
g62
I4
ssg63
g1897
sg56
(lp1904
g767
asbasbasbag49
(g65
g51
NtRp1905
(dp1906
g54
(dp1907
sg63
g1754
sg56
(lp1908
g49
(g70
g51
NtRp1909
(dp1910
g54
(dp1911
g74
g75
ssg63
g1905
sg56
(lp1912
g1016
asbag49
(g70
g51
NtRp1913
(dp1914
g54
(dp1915
g81
g82
ssg63
g1905
sg56
(lp1916
S':'
asbag49
(g70
g51
NtRp1917
(dp1918
g54
(dp1919
sg63
g1905
sg56
(lp1920
g49
(g50
g51
NtRp1921
(dp1922
g54
(dp1923
g62
I4
ssg63
g1917
sg56
(lp1924
g92
asbasbasbag49
(g65
g51
NtRp1925
(dp1926
g54
(dp1927
sg63
g1754
sg56
(lp1928
g49
(g70
g51
NtRp1929
(dp1930
g54
(dp1931
g74
g75
ssg63
g1925
sg56
(lp1932
g1037
asbag49
(g70
g51
NtRp1933
(dp1934
g54
(dp1935
g81
g82
ssg63
g1925
sg56
(lp1936
S':'
asbag49
(g70
g51
NtRp1937
(dp1938
g54
(dp1939
sg63
g1925
sg56
(lp1940
g49
(g50
g51
NtRp1941
(dp1942
g54
(dp1943
g62
I4
ssg63
g1937
sg56
(lp1944
g92
asbasbasbag49
(g65
g51
NtRp1945
(dp1946
g54
(dp1947
sg63
g1754
sg56
(lp1948
g49
(g70
g51
NtRp1949
(dp1950
g54
(dp1951
g74
g75
ssg63
g1945
sg56
(lp1952
g1296
asbag49
(g70
g51
NtRp1953
(dp1954
g54
(dp1955
g81
g82
ssg63
g1945
sg56
(lp1956
S':'
asbag49
(g70
g51
NtRp1957
(dp1958
g54
(dp1959
sg63
g1945
sg56
(lp1960
g49
(g50
g51
NtRp1961
(dp1962
g54
(dp1963
g62
I4
ssg63
g1957
sg56
(lp1964
g1309
asbasbasbag49
(g65
g51
NtRp1965
(dp1966
g54
(dp1967
sg63
g1754
sg56
(lp1968
g49
(g70
g51
NtRp1969
(dp1970
g54
(dp1971
g74
g75
ssg63
g1965
sg56
(lp1972
g1361
asbag49
(g70
g51
NtRp1973
(dp1974
g54
(dp1975
g81
g82
ssg63
g1965
sg56
(lp1976
S':'
asbag49
(g70
g51
NtRp1977
(dp1978
g54
(dp1979
sg63
g1965
sg56
(lp1980
g49
(g50
g51
NtRp1981
(dp1982
g54
(dp1983
g62
I4
ssg63
g1977
sg56
(lp1984
g49
(g58
g51
NtRp1985
(dp1986
g54
(dp1987
g62
I3
ssg63
Nsg56
(lp1988
g49
(g65
g51
NtRp1989
(dp1990
g54
(dp1991
sg63
g1985
sg56
(lp1992
g49
(g70
g51
NtRp1993
(dp1994
g54
(dp1995
sg63
g1989
sg56
(lp1996
g49
(g50
g51
NtRp1997
(dp1998
g54
(dp1999
g62
I3
ssg63
g1993
sg56
(lp2000
S'1'
asbasbasbag49
(g65
g51
NtRp2001
(dp2002
g54
(dp2003
sg63
g1985
sg56
(lp2004
g49
(g70
g51
NtRp2005
(dp2006
g54
(dp2007
sg63
g2001
sg56
(lp2008
g49
(g50
g51
NtRp2009
(dp2010
g54
(dp2011
g62
I3
ssg63
g2005
sg56
(lp2012
S'99'
p2013
asbasbasbag49
(g65
g51
NtRp2014
(dp2015
g54
(dp2016
sg63
g1985
sg56
(lp2017
g49
(g70
g51
NtRp2018
(dp2019
g54
(dp2020
sg63
g2014
sg56
(lp2021
g49
(g50
g51
NtRp2022
(dp2023
g54
(dp2024
g62
I3
ssg63
g2018
sg56
(lp2025
S'7'
asbasbasbag49
(g65
g51
NtRp2026
(dp2027
g54
(dp2028
sg63
g1985
sg56
(lp2029
g49
(g70
g51
NtRp2030
(dp2031
g54
(dp2032
sg63
g2026
sg56
(lp2033
g49
(g50
g51
NtRp2034
(dp2035
g54
(dp2036
g62
I3
ssg63
g2030
sg56
(lp2037
S'datetime.datetime(2012, 3, 4, 22, 12, 8)'
p2038
asbasbasbag49
(g65
g51
NtRp2039
(dp2040
g54
(dp2041
sg63
g1985
sg56
(lp2042
g49
(g70
g51
NtRp2043
(dp2044
g54
(dp2045
sg63
g2039
sg56
(lp2046
g49
(g50
g51
NtRp2047
(dp2048
g54
(dp2049
g62
I3
ssg63
g2043
sg56
(lp2050
g1440
asbasbasbasbasbasbasbasbasbasbasbag49
(g65
g51
NtRp2051
(dp2052
g54
(dp2053
sg63
g59
sg56
(lp2054
g49
(g70
g51
NtRp2055
(dp2056
g54
(dp2057
g74
g75
ssg63
g2051
sg56
(lp2058
S'is_https'
p2059
asbag49
(g70
g51
NtRp2060
(dp2061
g54
(dp2062
g81
g82
ssg63
g2051
sg56
(lp2063
S':'
asbag49
(g70
g51
NtRp2064
(dp2065
g54
(dp2066
sg63
g2051
sg56
(lp2067
g49
(g50
g51
NtRp2068
(dp2069
g54
(dp2070
g62
I5
ssg63
g2064
sg56
(lp2071
g92
asbasbasbag49
(g65
g51
NtRp2072
(dp2073
g54
(dp2074
sg63
g59
sg56
(lp2075
g49
(g70
g51
NtRp2076
(dp2077
g54
(dp2078
g74
g75
ssg63
g2072
sg56
(lp2079
S'is_local'
p2080
asbag49
(g70
g51
NtRp2081
(dp2082
g54
(dp2083
g81
g82
ssg63
g2072
sg56
(lp2084
S':'
asbag49
(g70
g51
NtRp2085
(dp2086
g54
(dp2087
sg63
g2072
sg56
(lp2088
g49
(g50
g51
NtRp2089
(dp2090
g54
(dp2091
g62
I5
ssg63
g2085
sg56
(lp2092
g1549
asbasbasbag49
(g65
g51
NtRp2093
(dp2094
g54
(dp2095
sg63
g59
sg56
(lp2096
g49
(g70
g51
NtRp2097
(dp2098
g54
(dp2099
g74
g75
ssg63
g2093
sg56
(lp2100
S'is_restful'
p2101
asbag49
(g70
g51
NtRp2102
(dp2103
g54
(dp2104
g81
g82
ssg63
g2093
sg56
(lp2105
S':'
asbag49
(g70
g51
NtRp2106
(dp2107
g54
(dp2108
sg63
g2093
sg56
(lp2109
g49
(g50
g51
NtRp2110
(dp2111
g54
(dp2112
g62
I5
ssg63
g2106
sg56
(lp2113
g92
asbasbasbag49
(g65
g51
NtRp2114
(dp2115
g54
(dp2116
sg63
g59
sg56
(lp2117
g49
(g70
g51
NtRp2118
(dp2119
g54
(dp2120
g74
g75
ssg63
g2114
sg56
(lp2121
S'now'
p2122
asbag49
(g70
g51
NtRp2123
(dp2124
g54
(dp2125
g81
g82
ssg63
g2114
sg56
(lp2126
S':'
asbag49
(g70
g51
NtRp2127
(dp2128
g54
(dp2129
sg63
g2114
sg56
(lp2130
g49
(g50
g51
NtRp2131
(dp2132
g54
(dp2133
g62
I5
ssg63
g2127
sg56
(lp2134
S'datetime.datetime(2012, 3, 15, 13, 49, 27, 44000)'
p2135
asbasbasbag49
(g65
g51
NtRp2136
(dp2137
g54
(dp2138
sg63
g59
sg56
(lp2139
g49
(g70
g51
NtRp2140
(dp2141
g54
(dp2142
g74
g75
ssg63
g2136
sg56
(lp2143
S'post_vars'
p2144
asbag49
(g70
g51
NtRp2145
(dp2146
g54
(dp2147
g81
g82
ssg63
g2136
sg56
(lp2148
S':'
asbag49
(g70
g51
NtRp2149
(dp2150
g54
(dp2151
sg63
g2136
sg56
(lp2152
g49
(g50
g51
NtRp2153
(dp2154
g54
(dp2155
g62
I5
ssg63
g2149
sg56
(lp2156
g49
(g58
g51
NtRp2157
(dp2158
g54
(dp2159
g62
I4
ssg63
Nsg56
(lp2160
g49
(g65
g51
NtRp2161
(dp2162
g54
(dp2163
sg63
g2157
sg56
(lp2164
g49
(g70
g51
NtRp2165
(dp2166
g54
(dp2167
g74
g75
ssg63
g2161
sg56
(lp2168
S'id_palabra'
p2169
asbag49
(g70
g51
NtRp2170
(dp2171
g54
(dp2172
g81
g82
ssg63
g2161
sg56
(lp2173
S':'
asbag49
(g70
g51
NtRp2174
(dp2175
g54
(dp2176
sg63
g2161
sg56
(lp2177
g49
(g50
g51
NtRp2178
(dp2179
g54
(dp2180
g62
I4
ssg63
g2174
sg56
(lp2181
S'129'
p2182
asbasbasbag49
(g65
g51
NtRp2183
(dp2184
g54
(dp2185
sg63
g2157
sg56
(lp2186
g49
(g70
g51
NtRp2187
(dp2188
g54
(dp2189
g74
g75
ssg63
g2183
sg56
(lp2190
S'relacionar'
p2191
asbag49
(g70
g51
NtRp2192
(dp2193
g54
(dp2194
g81
g82
ssg63
g2183
sg56
(lp2195
S':'
asbag49
(g70
g51
NtRp2196
(dp2197
g54
(dp2198
sg63
g2183
sg56
(lp2199
g49
(g50
g51
NtRp2200
(dp2201
g54
(dp2202
g62
I4
ssg63
g2196
sg56
(lp2203
g49
(g58
g51
NtRp2204
(dp2205
g54
(dp2206
g62
I3
ssg63
Nsg56
(lp2207
g49
(g65
g51
NtRp2208
(dp2209
g54
(dp2210
sg63
g2204
sg56
(lp2211
g49
(g70
g51
NtRp2212
(dp2213
g54
(dp2214
sg63
g2208
sg56
(lp2215
g49
(g50
g51
NtRp2216
(dp2217
g54
(dp2218
g62
I3
ssg63
g2212
sg56
(lp2219
S'15'
p2220
asbasbasbag49
(g65
g51
NtRp2221
(dp2222
g54
(dp2223
sg63
g2204
sg56
(lp2224
g49
(g70
g51
NtRp2225
(dp2226
g54
(dp2227
sg63
g2221
sg56
(lp2228
g49
(g50
g51
NtRp2229
(dp2230
g54
(dp2231
g62
I3
ssg63
g2225
sg56
(lp2232
S'20'
p2233
asbasbasbasbasbasbasbasbasbasbasbag49
(g65
g51
NtRp2234
(dp2235
g54
(dp2236
sg63
g59
sg56
(lp2237
g49
(g70
g51
NtRp2238
(dp2239
g54
(dp2240
g74
g75
ssg63
g2234
sg56
(lp2241
S'url'
p2242
asbag49
(g70
g51
NtRp2243
(dp2244
g54
(dp2245
g81
g82
ssg63
g2234
sg56
(lp2246
S':'
asbag49
(g70
g51
NtRp2247
(dp2248
g54
(dp2249
sg63
g2234
sg56
(lp2250
g49
(g50
g51
NtRp2251
(dp2252
g54
(dp2253
g62
I5
ssg63
g2247
sg56
(lp2254
S'/parleyweb/admin/relacionar'
p2255
asbasbasbag49
(g65
g51
NtRp2256
(dp2257
g54
(dp2258
sg63
g59
sg56
(lp2259
g49
(g70
g51
NtRp2260
(dp2261
g54
(dp2262
g74
g75
ssg63
g2256
sg56
(lp2263
S'utcnow'
p2264
asbag49
(g70
g51
NtRp2265
(dp2266
g54
(dp2267
g81
g82
ssg63
g2256
sg56
(lp2268
S':'
asbag49
(g70
g51
NtRp2269
(dp2270
g54
(dp2271
sg63
g2256
sg56
(lp2272
g49
(g50
g51
NtRp2273
(dp2274
g54
(dp2275
g62
I5
ssg63
g2269
sg56
(lp2276
S'datetime.datetime(2012, 3, 15, 12, 49, 27, 44000)'
p2277
asbasbasbag49
(g65
g51
NtRp2278
(dp2279
g54
(dp2280
sg63
g59
sg56
(lp2281
g49
(g70
g51
NtRp2282
(dp2283
g54
(dp2284
g74
g75
ssg63
g2278
sg56
(lp2285
S'uuid'
p2286
asbag49
(g70
g51
NtRp2287
(dp2288
g54
(dp2289
g81
g82
ssg63
g2278
sg56
(lp2290
S':'
asbag49
(g70
g51
NtRp2291
(dp2292
g54
(dp2293
sg63
g2278
sg56
(lp2294
g49
(g50
g51
NtRp2295
(dp2296
g54
(dp2297
g62
I5
ssg63
g2291
sg56
(lp2298
S'parleyweb/127.0.0.1.2012-03-15.13-49-27.469f0a67-fa11-45d1-a500-b1e9d0e1b412'
p2299
asbasbasbag49
(g65
g51
NtRp2300
(dp2301
g54
(dp2302
sg63
g59
sg56
(lp2303
g49
(g70
g51
NtRp2304
(dp2305
g54
(dp2306
g74
g75
ssg63
g2300
sg56
(lp2307
S'vars'
p2308
asbag49
(g70
g51
NtRp2309
(dp2310
g54
(dp2311
g81
g82
ssg63
g2300
sg56
(lp2312
S':'
asbag49
(g70
g51
NtRp2313
(dp2314
g54
(dp2315
sg63
g2300
sg56
(lp2316
g49
(g50
g51
NtRp2317
(dp2318
g54
(dp2319
g62
I5
ssg63
g2313
sg56
(lp2320
g49
(g58
g51
NtRp2321
(dp2322
g54
(dp2323
g62
I4
ssg63
Nsg56
(lp2324
g49
(g65
g51
NtRp2325
(dp2326
g54
(dp2327
sg63
g2321
sg56
(lp2328
g49
(g70
g51
NtRp2329
(dp2330
g54
(dp2331
g74
g75
ssg63
g2325
sg56
(lp2332
g2169
asbag49
(g70
g51
NtRp2333
(dp2334
g54
(dp2335
g81
g82
ssg63
g2325
sg56
(lp2336
S':'
asbag49
(g70
g51
NtRp2337
(dp2338
g54
(dp2339
sg63
g2325
sg56
(lp2340
g49
(g50
g51
NtRp2341
(dp2342
g54
(dp2343
g62
I4
ssg63
g2337
sg56
(lp2344
g2182
asbasbasbag49
(g65
g51
NtRp2345
(dp2346
g54
(dp2347
sg63
g2321
sg56
(lp2348
g49
(g70
g51
NtRp2349
(dp2350
g54
(dp2351
g74
g75
ssg63
g2345
sg56
(lp2352
g2191
asbag49
(g70
g51
NtRp2353
(dp2354
g54
(dp2355
g81
g82
ssg63
g2345
sg56
(lp2356
S':'
asbag49
(g70
g51
NtRp2357
(dp2358
g54
(dp2359
sg63
g2345
sg56
(lp2360
g49
(g50
g51
NtRp2361
(dp2362
g54
(dp2363
g62
I4
ssg63
g2357
sg56
(lp2364
g49
(g58
g51
NtRp2365
(dp2366
g54
(dp2367
g62
I3
ssg63
Nsg56
(lp2368
g49
(g65
g51
NtRp2369
(dp2370
g54
(dp2371
sg63
g2365
sg56
(lp2372
g49
(g70
g51
NtRp2373
(dp2374
g54
(dp2375
sg63
g2369
sg56
(lp2376
g49
(g50
g51
NtRp2377
(dp2378
g54
(dp2379
g62
I3
ssg63
g2373
sg56
(lp2380
g2220
asbasbasbag49
(g65
g51
NtRp2381
(dp2382
g54
(dp2383
sg63
g2365
sg56
(lp2384
g49
(g70
g51
NtRp2385
(dp2386
g54
(dp2387
sg63
g2381
sg56
(lp2388
g49
(g50
g51
NtRp2389
(dp2390
g54
(dp2391
g62
I3
ssg63
g2385
sg56
(lp2392
g2233
asbasbasbasbasbasbasbasbasbasbasbag49
(g65
g51
NtRp2393
(dp2394
g54
(dp2395
sg63
g59
sg56
(lp2396
g49
(g70
g51
NtRp2397
(dp2398
g54
(dp2399
g74
g75
ssg63
g2393
sg56
(lp2400
S'wsgi'
p2401
asbag49
(g70
g51
NtRp2402
(dp2403
g54
(dp2404
g81
g82
ssg63
g2393
sg56
(lp2405
S':'
asbag49
(g70
g51
NtRp2406
(dp2407
g54
(dp2408
sg63
g2393
sg56
(lp2409
g49
(g50
g51
NtRp2410
(dp2411
g54
(dp2412
g62
I5
ssg63
g2406
sg56
(lp2413
g49
(g58
g51
NtRp2414
(dp2415
g54
(dp2416
g62
I4
ssg63
Nsg56
(lp2417
g49
(g65
g51
NtRp2418
(dp2419
g54
(dp2420
sg63
g2414
sg56
(lp2421
g49
(g70
g51
NtRp2422
(dp2423
g54
(dp2424
g74
g75
ssg63
g2418
sg56
(lp2425
S'environ'
p2426
asbag49
(g70
g51
NtRp2427
(dp2428
g54
(dp2429
g81
g82
ssg63
g2418
sg56
(lp2430
S':'
asbag49
(g70
g51
NtRp2431
(dp2432
g54
(dp2433
sg63
g2418
sg56
(lp2434
g49
(g50
g51
NtRp2435
(dp2436
g54
(dp2437
g62
I4
ssg63
g2431
sg56
(lp2438
g49
(g58
g51
NtRp2439
(dp2440
g54
(dp2441
g62
I3
ssg63
Nsg56
(lp2442
g49
(g65
g51
NtRp2443
(dp2444
g54
(dp2445
sg63
g2439
sg56
(lp2446
g49
(g70
g51
NtRp2447
(dp2448
g54
(dp2449
g74
g75
ssg63
g2443
sg56
(lp2450
S'CONTENT_LENGTH'
p2451
asbag49
(g70
g51
NtRp2452
(dp2453
g54
(dp2454
g81
g82
ssg63
g2443
sg56
(lp2455
S':'
asbag49
(g70
g51
NtRp2456
(dp2457
g54
(dp2458
sg63
g2443
sg56
(lp2459
g49
(g50
g51
NtRp2460
(dp2461
g54
(dp2462
g62
I3
ssg63
g2456
sg56
(lp2463
g680
asbasbasbag49
(g65
g51
NtRp2464
(dp2465
g54
(dp2466
sg63
g2439
sg56
(lp2467
g49
(g70
g51
NtRp2468
(dp2469
g54
(dp2470
g74
g75
ssg63
g2464
sg56
(lp2471
S'CONTENT_TYPE'
p2472
asbag49
(g70
g51
NtRp2473
(dp2474
g54
(dp2475
g81
g82
ssg63
g2464
sg56
(lp2476
S':'
asbag49
(g70
g51
NtRp2477
(dp2478
g54
(dp2479
sg63
g2464
sg56
(lp2480
g49
(g50
g51
NtRp2481
(dp2482
g54
(dp2483
g62
I3
ssg63
g2477
sg56
(lp2484
g702
asbasbasbag49
(g65
g51
NtRp2485
(dp2486
g54
(dp2487
sg63
g2439
sg56
(lp2488
g49
(g70
g51
NtRp2489
(dp2490
g54
(dp2491
g74
g75
ssg63
g2485
sg56
(lp2492
S'HTTP_ACCEPT'
p2493
asbag49
(g70
g51
NtRp2494
(dp2495
g54
(dp2496
g81
g82
ssg63
g2485
sg56
(lp2497
S':'
asbag49
(g70
g51
NtRp2498
(dp2499
g54
(dp2500
sg63
g2485
sg56
(lp2501
g49
(g50
g51
NtRp2502
(dp2503
g54
(dp2504
g62
I3
ssg63
g2498
sg56
(lp2505
g789
asbasbasbag49
(g65
g51
NtRp2506
(dp2507
g54
(dp2508
sg63
g2439
sg56
(lp2509
g49
(g70
g51
NtRp2510
(dp2511
g54
(dp2512
g74
g75
ssg63
g2506
sg56
(lp2513
S'HTTP_ACCEPT_ENCODING'
p2514
asbag49
(g70
g51
NtRp2515
(dp2516
g54
(dp2517
g81
g82
ssg63
g2506
sg56
(lp2518
S':'
asbag49
(g70
g51
NtRp2519
(dp2520
g54
(dp2521
sg63
g2506
sg56
(lp2522
g49
(g50
g51
NtRp2523
(dp2524
g54
(dp2525
g62
I3
ssg63
g2519
sg56
(lp2526
g811
asbasbasbag49
(g65
g51
NtRp2527
(dp2528
g54
(dp2529
sg63
g2439
sg56
(lp2530
g49
(g70
g51
NtRp2531
(dp2532
g54
(dp2533
g74
g75
ssg63
g2527
sg56
(lp2534
S'HTTP_ACCEPT_LANGUAGE'
p2535
asbag49
(g70
g51
NtRp2536
(dp2537
g54
(dp2538
g81
g82
ssg63
g2527
sg56
(lp2539
S':'
asbag49
(g70
g51
NtRp2540
(dp2541
g54
(dp2542
sg63
g2527
sg56
(lp2543
g49
(g50
g51
NtRp2544
(dp2545
g54
(dp2546
g62
I3
ssg63
g2540
sg56
(lp2547
g833
asbasbasbag49
(g65
g51
NtRp2548
(dp2549
g54
(dp2550
sg63
g2439
sg56
(lp2551
g49
(g70
g51
NtRp2552
(dp2553
g54
(dp2554
g74
g75
ssg63
g2548
sg56
(lp2555
S'HTTP_CACHE_CONTROL'
p2556
asbag49
(g70
g51
NtRp2557
(dp2558
g54
(dp2559
g81
g82
ssg63
g2548
sg56
(lp2560
S':'
asbag49
(g70
g51
NtRp2561
(dp2562
g54
(dp2563
sg63
g2548
sg56
(lp2564
g49
(g50
g51
NtRp2565
(dp2566
g54
(dp2567
g62
I3
ssg63
g2561
sg56
(lp2568
g855
asbasbasbag49
(g65
g51
NtRp2569
(dp2570
g54
(dp2571
sg63
g2439
sg56
(lp2572
g49
(g70
g51
NtRp2573
(dp2574
g54
(dp2575
g74
g75
ssg63
g2569
sg56
(lp2576
S'HTTP_CONNECTION'
p2577
asbag49
(g70
g51
NtRp2578
(dp2579
g54
(dp2580
g81
g82
ssg63
g2569
sg56
(lp2581
S':'
asbag49
(g70
g51
NtRp2582
(dp2583
g54
(dp2584
sg63
g2569
sg56
(lp2585
g49
(g50
g51
NtRp2586
(dp2587
g54
(dp2588
g62
I3
ssg63
g2582
sg56
(lp2589
g877
asbasbasbag49
(g65
g51
NtRp2590
(dp2591
g54
(dp2592
sg63
g2439
sg56
(lp2593
g49
(g70
g51
NtRp2594
(dp2595
g54
(dp2596
g74
g75
ssg63
g2590
sg56
(lp2597
S'HTTP_CONTENT_LENGTH'
p2598
asbag49
(g70
g51
NtRp2599
(dp2600
g54
(dp2601
g81
g82
ssg63
g2590
sg56
(lp2602
S':'
asbag49
(g70
g51
NtRp2603
(dp2604
g54
(dp2605
sg63
g2590
sg56
(lp2606
g49
(g50
g51
NtRp2607
(dp2608
g54
(dp2609
g62
I3
ssg63
g2603
sg56
(lp2610
g680
asbasbasbag49
(g65
g51
NtRp2611
(dp2612
g54
(dp2613
sg63
g2439
sg56
(lp2614
g49
(g70
g51
NtRp2615
(dp2616
g54
(dp2617
g74
g75
ssg63
g2611
sg56
(lp2618
S'HTTP_CONTENT_TYPE'
p2619
asbag49
(g70
g51
NtRp2620
(dp2621
g54
(dp2622
g81
g82
ssg63
g2611
sg56
(lp2623
S':'
asbag49
(g70
g51
NtRp2624
(dp2625
g54
(dp2626
sg63
g2611
sg56
(lp2627
g49
(g50
g51
NtRp2628
(dp2629
g54
(dp2630
g62
I3
ssg63
g2624
sg56
(lp2631
g702
asbasbasbag49
(g65
g51
NtRp2632
(dp2633
g54
(dp2634
sg63
g2439
sg56
(lp2635
g49
(g70
g51
NtRp2636
(dp2637
g54
(dp2638
g74
g75
ssg63
g2632
sg56
(lp2639
S'HTTP_COOKIE'
p2640
asbag49
(g70
g51
NtRp2641
(dp2642
g54
(dp2643
g81
g82
ssg63
g2632
sg56
(lp2644
S':'
asbag49
(g70
g51
NtRp2645
(dp2646
g54
(dp2647
sg63
g2632
sg56
(lp2648
g49
(g50
g51
NtRp2649
(dp2650
g54
(dp2651
g62
I3
ssg63
g2645
sg56
(lp2652
g941
asbasbasbag49
(g65
g51
NtRp2653
(dp2654
g54
(dp2655
sg63
g2439
sg56
(lp2656
g49
(g70
g51
NtRp2657
(dp2658
g54
(dp2659
g74
g75
ssg63
g2653
sg56
(lp2660
S'HTTP_HOST'
p2661
asbag49
(g70
g51
NtRp2662
(dp2663
g54
(dp2664
g81
g82
ssg63
g2653
sg56
(lp2665
S':'
asbag49
(g70
g51
NtRp2666
(dp2667
g54
(dp2668
sg63
g2653
sg56
(lp2669
g49
(g50
g51
NtRp2670
(dp2671
g54
(dp2672
g62
I3
ssg63
g2666
sg56
(lp2673
g963
asbasbasbag49
(g65
g51
NtRp2674
(dp2675
g54
(dp2676
sg63
g2439
sg56
(lp2677
g49
(g70
g51
NtRp2678
(dp2679
g54
(dp2680
g74
g75
ssg63
g2674
sg56
(lp2681
S'HTTP_REFERER'
p2682
asbag49
(g70
g51
NtRp2683
(dp2684
g54
(dp2685
g81
g82
ssg63
g2674
sg56
(lp2686
S':'
asbag49
(g70
g51
NtRp2687
(dp2688
g54
(dp2689
sg63
g2674
sg56
(lp2690
g49
(g50
g51
NtRp2691
(dp2692
g54
(dp2693
g62
I3
ssg63
g2687
sg56
(lp2694
g985
asbasbasbag49
(g65
g51
NtRp2695
(dp2696
g54
(dp2697
sg63
g2439
sg56
(lp2698
g49
(g70
g51
NtRp2699
(dp2700
g54
(dp2701
g74
g75
ssg63
g2695
sg56
(lp2702
S'HTTP_USER_AGENT'
p2703
asbag49
(g70
g51
NtRp2704
(dp2705
g54
(dp2706
g81
g82
ssg63
g2695
sg56
(lp2707
S':'
asbag49
(g70
g51
NtRp2708
(dp2709
g54
(dp2710
sg63
g2695
sg56
(lp2711
g49
(g50
g51
NtRp2712
(dp2713
g54
(dp2714
g62
I3
ssg63
g2708
sg56
(lp2715
g1007
asbasbasbag49
(g65
g51
NtRp2716
(dp2717
g54
(dp2718
sg63
g2439
sg56
(lp2719
g49
(g70
g51
NtRp2720
(dp2721
g54
(dp2722
g74
g75
ssg63
g2716
sg56
(lp2723
S'PATH_INFO'
p2724
asbag49
(g70
g51
NtRp2725
(dp2726
g54
(dp2727
g81
g82
ssg63
g2716
sg56
(lp2728
S':'
asbag49
(g70
g51
NtRp2729
(dp2730
g54
(dp2731
sg63
g2716
sg56
(lp2732
g49
(g50
g51
NtRp2733
(dp2734
g54
(dp2735
g62
I3
ssg63
g2729
sg56
(lp2736
g1071
asbasbasbag49
(g65
g51
NtRp2737
(dp2738
g54
(dp2739
sg63
g2439
sg56
(lp2740
g49
(g70
g51
NtRp2741
(dp2742
g54
(dp2743
g74
g75
ssg63
g2737
sg56
(lp2744
S'QUERY_STRING'
p2745
asbag49
(g70
g51
NtRp2746
(dp2747
g54
(dp2748
g81
g82
ssg63
g2737
sg56
(lp2749
S':'
asbag49
(g70
g51
NtRp2750
(dp2751
g54
(dp2752
sg63
g2737
sg56
(lp2753
g49
(g50
g51
NtRp2754
(dp2755
g54
(dp2756
g62
I3
ssg63
g2750
sg56
(lp2757
S''
asbasbasbag49
(g65
g51
NtRp2758
(dp2759
g54
(dp2760
sg63
g2439
sg56
(lp2761
g49
(g70
g51
NtRp2762
(dp2763
g54
(dp2764
g74
g75
ssg63
g2758
sg56
(lp2765
S'REMOTE_ADDR'
p2766
asbag49
(g70
g51
NtRp2767
(dp2768
g54
(dp2769
g81
g82
ssg63
g2758
sg56
(lp2770
S':'
asbag49
(g70
g51
NtRp2771
(dp2772
g54
(dp2773
sg63
g2758
sg56
(lp2774
g49
(g50
g51
NtRp2775
(dp2776
g54
(dp2777
g62
I3
ssg63
g2771
sg56
(lp2778
g158
asbasbasbag49
(g65
g51
NtRp2779
(dp2780
g54
(dp2781
sg63
g2439
sg56
(lp2782
g49
(g70
g51
NtRp2783
(dp2784
g54
(dp2785
g74
g75
ssg63
g2779
sg56
(lp2786
S'REMOTE_PORT'
p2787
asbag49
(g70
g51
NtRp2788
(dp2789
g54
(dp2790
g81
g82
ssg63
g2779
sg56
(lp2791
S':'
asbag49
(g70
g51
NtRp2792
(dp2793
g54
(dp2794
sg63
g2779
sg56
(lp2795
g49
(g50
g51
NtRp2796
(dp2797
g54
(dp2798
g62
I3
ssg63
g2792
sg56
(lp2799
g1135
asbasbasbag49
(g65
g51
NtRp2800
(dp2801
g54
(dp2802
sg63
g2439
sg56
(lp2803
g49
(g70
g51
NtRp2804
(dp2805
g54
(dp2806
g74
g75
ssg63
g2800
sg56
(lp2807
S'REQUEST_METHOD'
p2808
asbag49
(g70
g51
NtRp2809
(dp2810
g54
(dp2811
g81
g82
ssg63
g2800
sg56
(lp2812
S':'
asbag49
(g70
g51
NtRp2813
(dp2814
g54
(dp2815
sg63
g2800
sg56
(lp2816
g49
(g50
g51
NtRp2817
(dp2818
g54
(dp2819
g62
I3
ssg63
g2813
sg56
(lp2820
g1157
asbasbasbag49
(g65
g51
NtRp2821
(dp2822
g54
(dp2823
sg63
g2439
sg56
(lp2824
g49
(g70
g51
NtRp2825
(dp2826
g54
(dp2827
g74
g75
ssg63
g2821
sg56
(lp2828
S'REQUEST_URI'
p2829
asbag49
(g70
g51
NtRp2830
(dp2831
g54
(dp2832
g81
g82
ssg63
g2821
sg56
(lp2833
S':'
asbag49
(g70
g51
NtRp2834
(dp2835
g54
(dp2836
sg63
g2821
sg56
(lp2837
g49
(g50
g51
NtRp2838
(dp2839
g54
(dp2840
g62
I3
ssg63
g2834
sg56
(lp2841
g1071
asbasbasbag49
(g65
g51
NtRp2842
(dp2843
g54
(dp2844
sg63
g2439
sg56
(lp2845
g49
(g70
g51
NtRp2846
(dp2847
g54
(dp2848
g74
g75
ssg63
g2842
sg56
(lp2849
S'SCRIPT_NAME'
p2850
asbag49
(g70
g51
NtRp2851
(dp2852
g54
(dp2853
g81
g82
ssg63
g2842
sg56
(lp2854
S':'
asbag49
(g70
g51
NtRp2855
(dp2856
g54
(dp2857
sg63
g2842
sg56
(lp2858
g49
(g50
g51
NtRp2859
(dp2860
g54
(dp2861
g62
I3
ssg63
g2855
sg56
(lp2862
S''
asbasbasbag49
(g65
g51
NtRp2863
(dp2864
g54
(dp2865
sg63
g2439
sg56
(lp2866
g49
(g70
g51
NtRp2867
(dp2868
g54
(dp2869
g74
g75
ssg63
g2863
sg56
(lp2870
S'SERVER_NAME'
p2871
asbag49
(g70
g51
NtRp2872
(dp2873
g54
(dp2874
g81
g82
ssg63
g2863
sg56
(lp2875
S':'
asbag49
(g70
g51
NtRp2876
(dp2877
g54
(dp2878
sg63
g2863
sg56
(lp2879
g49
(g50
g51
NtRp2880
(dp2881
g54
(dp2882
g62
I3
ssg63
g2876
sg56
(lp2883
g1221
asbasbasbag49
(g65
g51
NtRp2884
(dp2885
g54
(dp2886
sg63
g2439
sg56
(lp2887
g49
(g70
g51
NtRp2888
(dp2889
g54
(dp2890
g74
g75
ssg63
g2884
sg56
(lp2891
S'SERVER_PORT'
p2892
asbag49
(g70
g51
NtRp2893
(dp2894
g54
(dp2895
g81
g82
ssg63
g2884
sg56
(lp2896
S':'
asbag49
(g70
g51
NtRp2897
(dp2898
g54
(dp2899
sg63
g2884
sg56
(lp2900
g49
(g50
g51
NtRp2901
(dp2902
g54
(dp2903
g62
I3
ssg63
g2897
sg56
(lp2904
g1243
asbasbasbag49
(g65
g51
NtRp2905
(dp2906
g54
(dp2907
sg63
g2439
sg56
(lp2908
g49
(g70
g51
NtRp2909
(dp2910
g54
(dp2911
g74
g75
ssg63
g2905
sg56
(lp2912
S'SERVER_PROTOCOL'
p2913
asbag49
(g70
g51
NtRp2914
(dp2915
g54
(dp2916
g81
g82
ssg63
g2905
sg56
(lp2917
S':'
asbag49
(g70
g51
NtRp2918
(dp2919
g54
(dp2920
sg63
g2905
sg56
(lp2921
g49
(g50
g51
NtRp2922
(dp2923
g54
(dp2924
g62
I3
ssg63
g2918
sg56
(lp2925
g1265
asbasbasbag49
(g65
g51
NtRp2926
(dp2927
g54
(dp2928
sg63
g2439
sg56
(lp2929
g49
(g70
g51
NtRp2930
(dp2931
g54
(dp2932
g74
g75
ssg63
g2926
sg56
(lp2933
S'SERVER_SOFTWARE'
p2934
asbag49
(g70
g51
NtRp2935
(dp2936
g54
(dp2937
g81
g82
ssg63
g2926
sg56
(lp2938
S':'
asbag49
(g70
g51
NtRp2939
(dp2940
g54
(dp2941
sg63
g2926
sg56
(lp2942
g49
(g50
g51
NtRp2943
(dp2944
g54
(dp2945
g62
I3
ssg63
g2939
sg56
(lp2946
g1287
asbasbasbag49
(g65
g51
NtRp2947
(dp2948
g54
(dp2949
sg63
g2439
sg56
(lp2950
g49
(g70
g51
NtRp2951
(dp2952
g54
(dp2953
g74
g75
ssg63
g2947
sg56
(lp2954
S'WEB2PY_ORIGINAL_URI'
p2955
asbag49
(g70
g51
NtRp2956
(dp2957
g54
(dp2958
g81
g82
ssg63
g2947
sg56
(lp2959
S':'
asbag49
(g70
g51
NtRp2960
(dp2961
g54
(dp2962
sg63
g2947
sg56
(lp2963
g49
(g50
g51
NtRp2964
(dp2965
g54
(dp2966
g62
I3
ssg63
g2960
sg56
(lp2967
g1331
asbasbasbag49
(g65
g51
NtRp2968
(dp2969
g54
(dp2970
sg63
g2439
sg56
(lp2971
g49
(g70
g51
NtRp2972
(dp2973
g54
(dp2974
g74
g75
ssg63
g2968
sg56
(lp2975
S'wsgi.errors'
p2976
asbag49
(g70
g51
NtRp2977
(dp2978
g54
(dp2979
g81
g82
ssg63
g2968
sg56
(lp2980
S':'
asbag49
(g70
g51
NtRp2981
(dp2982
g54
(dp2983
sg63
g2968
sg56
(lp2984
g49
(g50
g51
NtRp2985
(dp2986
g54
(dp2987
g62
I3
ssg63
g2981
sg56
(lp2988
S"<open file '<stderr>', mode 'w' at 0x004200B0>"
p2989
asbasbasbag49
(g65
g51
NtRp2990
(dp2991
g54
(dp2992
sg63
g2439
sg56
(lp2993
g49
(g70
g51
NtRp2994
(dp2995
g54
(dp2996
g74
g75
ssg63
g2990
sg56
(lp2997
S'wsgi.file_wrapper'
p2998
asbag49
(g70
g51
NtRp2999
(dp3000
g54
(dp3001
g81
g82
ssg63
g2990
sg56
(lp3002
S':'
asbag49
(g70
g51
NtRp3003
(dp3004
g54
(dp3005
sg63
g2990
sg56
(lp3006
g49
(g50
g51
NtRp3007
(dp3008
g54
(dp3009
g62
I3
ssg63
g3003
sg56
(lp3010
S'<class wsgiref.util.FileWrapper at 0x02FC6390>'
p3011
asbasbasbag49
(g65
g51
NtRp3012
(dp3013
g54
(dp3014
sg63
g2439
sg56
(lp3015
g49
(g70
g51
NtRp3016
(dp3017
g54
(dp3018
g74
g75
ssg63
g3012
sg56
(lp3019
S'wsgi.input'
p3020
asbag49
(g70
g51
NtRp3021
(dp3022
g54
(dp3023
g81
g82
ssg63
g3012
sg56
(lp3024
S':'
asbag49
(g70
g51
NtRp3025
(dp3026
g54
(dp3027
sg63
g3012
sg56
(lp3028
g49
(g50
g51
NtRp3029
(dp3030
g54
(dp3031
g62
I3
ssg63
g3025
sg56
(lp3032
S"<open file '<fdopen>', mode 'w+b' at 0x06BF2CC8>"
p3033
asbasbasbag49
(g65
g51
NtRp3034
(dp3035
g54
(dp3036
sg63
g2439
sg56
(lp3037
g49
(g70
g51
NtRp3038
(dp3039
g54
(dp3040
g74
g75
ssg63
g3034
sg56
(lp3041
S'wsgi.multiprocess'
p3042
asbag49
(g70
g51
NtRp3043
(dp3044
g54
(dp3045
g81
g82
ssg63
g3034
sg56
(lp3046
S':'
asbag49
(g70
g51
NtRp3047
(dp3048
g54
(dp3049
sg63
g3034
sg56
(lp3050
g49
(g50
g51
NtRp3051
(dp3052
g54
(dp3053
g62
I3
ssg63
g3047
sg56
(lp3054
g92
asbasbasbag49
(g65
g51
NtRp3055
(dp3056
g54
(dp3057
sg63
g2439
sg56
(lp3058
g49
(g70
g51
NtRp3059
(dp3060
g54
(dp3061
g74
g75
ssg63
g3055
sg56
(lp3062
S'wsgi.multithread'
p3063
asbag49
(g70
g51
NtRp3064
(dp3065
g54
(dp3066
g81
g82
ssg63
g3055
sg56
(lp3067
S':'
asbag49
(g70
g51
NtRp3068
(dp3069
g54
(dp3070
sg63
g3055
sg56
(lp3071
g49
(g50
g51
NtRp3072
(dp3073
g54
(dp3074
g62
I3
ssg63
g3068
sg56
(lp3075
g1549
asbasbasbag49
(g65
g51
NtRp3076
(dp3077
g54
(dp3078
sg63
g2439
sg56
(lp3079
g49
(g70
g51
NtRp3080
(dp3081
g54
(dp3082
g74
g75
ssg63
g3076
sg56
(lp3083
S'wsgi.run_once'
p3084
asbag49
(g70
g51
NtRp3085
(dp3086
g54
(dp3087
g81
g82
ssg63
g3076
sg56
(lp3088
S':'
asbag49
(g70
g51
NtRp3089
(dp3090
g54
(dp3091
sg63
g3076
sg56
(lp3092
g49
(g50
g51
NtRp3093
(dp3094
g54
(dp3095
g62
I3
ssg63
g3089
sg56
(lp3096
g92
asbasbasbag49
(g65
g51
NtRp3097
(dp3098
g54
(dp3099
sg63
g2439
sg56
(lp3100
g49
(g70
g51
NtRp3101
(dp3102
g54
(dp3103
g74
g75
ssg63
g3097
sg56
(lp3104
S'wsgi.url_scheme'
p3105
asbag49
(g70
g51
NtRp3106
(dp3107
g54
(dp3108
g81
g82
ssg63
g3097
sg56
(lp3109
S':'
asbag49
(g70
g51
NtRp3110
(dp3111
g54
(dp3112
sg63
g3097
sg56
(lp3113
g49
(g50
g51
NtRp3114
(dp3115
g54
(dp3116
g62
I3
ssg63
g3110
sg56
(lp3117
g1592
asbasbasbag49
(g65
g51
NtRp3118
(dp3119
g54
(dp3120
sg63
g2439
sg56
(lp3121
g49
(g70
g51
NtRp3122
(dp3123
g54
(dp3124
g74
g75
ssg63
g3118
sg56
(lp3125
S'wsgi.version'
p3126
asbag49
(g70
g51
NtRp3127
(dp3128
g54
(dp3129
g81
g82
ssg63
g3118
sg56
(lp3130
S':'
asbag49
(g70
g51
NtRp3131
(dp3132
g54
(dp3133
sg63
g3118
sg56
(lp3134
g49
(g50
g51
NtRp3135
(dp3136
g54
(dp3137
g62
I3
ssg63
g3131
sg56
(lp3138
S'1'
asbasbasbasbasbasbasbasbasbasbasbasbasbsS'frames'
p3139
(lp3140
(dp3141
S'file'
p3142
S'D:\\Dise\xf1o Web\\Proyectos\\Parleyweb\\web2py\\gluon\\restricted.py'
p3143
sS'dump'
p3144
(dp3145
sS'lnum'
p3146
I205
sS'lines'
p3147
(dp3148
sS'call'
p3149
S'(code=\'response.write(\\\'\\\\r\\\\n\\\', escape=False)\\nresponse.wr...>\\\\n   \\\\n\\\\n \\\\n\\\\n</body>\\\\n</html>\\\\n", escape=False)\', environment={\'A\': <class \'gluon.html.A\'>, \'Auth\': <class \'gluon.tools.Auth\'>, \'B\': <class \'gluon.html.B\'>, \'BEAUTIFY\': <class \'gluon.html.BEAUTIFY\'>, \'BODY\': <class \'gluon.html.BODY\'>, \'BR\': <class \'gluon.html.BR\'>, \'BUTTON\': <class \'gluon.html.BUTTON\'>, \'CAT\': <class \'gluon.html.CAT\'>, \'CENTER\': <class \'gluon.html.CENTER\'>, \'CLEANUP\': <class \'gluon.validators.CLEANUP\'>, ...}, layer=\'D:\\\\Dise\\xf1o Web\\\\Proyectos\\\\Parleyweb\\\\web2py\\\\applications\\\\parleyweb\\\\views\\\\admin/relacionar.html\')'
p3150
sS'func'
p3151
S'restricted'
p3152
sa(dp3153
g3142
S'D:\\Dise\xf1o Web\\Proyectos\\Parleyweb\\web2py\\applications\\parleyweb\\views\\admin\\relacionar.html'
p3154
sg3144
(dp3155
sg3146
I67
sg3147
(dp3156
I64
S"response.write('\\r\\n<h1>Esta es la plantilla admin/relacionar.html</h1>\\r\\n\\r\\n', escape=False)"
p3157
sI65
S'for i in request.post_vars:'
p3158
sI66
S"    response.write('\\r\\n', escape=False)"
p3159
sI67
S'    response.write(i.relacionar)'
p3160
sI68
S"    response.write('\\r\\n', escape=False)"
p3161
sI69
S'    pass'
p3162
sI70
S"response.write('\\r\\n\\r\\n', escape=False)"
p3163
sI71
S'response.write(response.toolbar())'
p3164
sI72
S"response.write('\\n\\t  ', escape=False)"
p3165
sI73
S'response.write("\\n          \\n        </div><!--/span-->\\n      </div><!--/row-->\\n\\n      <hr>\\n\\n      <footer>\\n        <p>\\xc2\\xa9 Company 2012</p>\\n      </footer>\\n\\n    </div><!--/.fluid-container-->\\n    \\n    <!-- Le javascript\\n    ================================================== -->\\n    <!-- Placed at the end of the document so the pages load faster \\n    <script>\\n      $(function () {\\n      $(\'.tabs a:last\').tab(\'show\')\\n      })\\n    </script>-->\\n   \\n\\n \\n\\n</body>\\n</html>\\n", escape=False)'
p3166
sI58
S'response.write(\'</p>\\n          </div><!--/.nav-collapse -->\\n        </div>\\n      </div>\\n    </div>\\n    <div class="flash alert alert-info"></i>\', escape=False)'
p3167
sI59
S"response.write(response.flash or '')"
p3168
sI60
S'response.write(\'</div>\\n    <div class="container-fluid">\\n      <div class="row-fluid">\\n        <div class="span3">\\n          <div class="well sidebar-nav">\\n            <ul class="nav nav-list">\\n              <li class="nav-header">\', escape=False)'
p3169
sI61
S"response.write(T('Buscar'))"
p3170
sI62
S'response.write(\'</li>\\n            </ul>\\n          </div><!--/.well -->\\n        </div><!--/span-->\\n        <div class="span9">\\n\\t  \', escape=False)'
p3171
sI63
S"response.write('\\n\\t    ', escape=False)"
p3172
ssg3149
S'()'
p3173
sg3151
S'<module>'
p3174
sasS'pyver'
p3175
S'Python 2.5.4: D:\\Dise\xf1o Web\\Proyectos\\Parleyweb\\web2py\\web2py.exe'
p3176
sS'session'
p3177
g49
(g50
g51
NtRp3178
(dp3179
g54
(dp3180
sg56
(lp3181
g49
(g58
g51
NtRp3182
(dp3183
g54
(dp3184
g62
I5
ssg63
Nsg56
(lp3185
sbasbsS'etype'
p3186
S"<type 'exceptions.AttributeError'>"
p3187
sS'date'
p3188
S'Thu Mar 15 13:49:27 2012'
p3189
sS'response'
p3190
g49
(g50
g51
NtRp3191
(dp3192
g54
(dp3193
sg56
(lp3194
g49
(g58
g51
NtRp3195
(dp3196
g54
(dp3197
g62
I5
ssg63
Nsg56
(lp3198
g49
(g65
g51
NtRp3199
(dp3200
g54
(dp3201
sg63
g3195
sg56
(lp3202
g49
(g70
g51
NtRp3203
(dp3204
g54
(dp3205
g74
g75
ssg63
g3199
sg56
(lp3206
g123
asbag49
(g70
g51
NtRp3207
(dp3208
g54
(dp3209
g81
g82
ssg63
g3199
sg56
(lp3210
S':'
asbag49
(g70
g51
NtRp3211
(dp3212
g54
(dp3213
sg63
g3199
sg56
(lp3214
g49
(g50
g51
NtRp3215
(dp3216
g54
(dp3217
g62
I5
ssg63
g3211
sg56
(lp3218
S'<cStringIO.StringO object at 0x0742DAC0>'
p3219
asbasbasbag49
(g65
g51
NtRp3220
(dp3221
g54
(dp3222
sg63
g3195
sg56
(lp3223
g49
(g70
g51
NtRp3224
(dp3225
g54
(dp3226
g74
g75
ssg63
g3220
sg56
(lp3227
g189
asbag49
(g70
g51
NtRp3228
(dp3229
g54
(dp3230
g81
g82
ssg63
g3220
sg56
(lp3231
S':'
asbag49
(g70
g51
NtRp3232
(dp3233
g54
(dp3234
sg63
g3220
sg56
(lp3235
g49
(g50
g51
NtRp3236
(dp3237
g54
(dp3238
g62
I5
ssg63
g3232
sg56
(lp3239
g49
(g58
g51
NtRp3240
(dp3241
g54
(dp3242
g62
I4
ssg63
Nsg56
(lp3243
g49
(g65
g51
NtRp3244
(dp3245
g54
(dp3246
sg63
g3240
sg56
(lp3247
g49
(g70
g51
NtRp3248
(dp3249
g54
(dp3250
g74
g75
ssg63
g3244
sg56
(lp3251
S'session_id_parleyweb'
p3252
asbag49
(g70
g51
NtRp3253
(dp3254
g54
(dp3255
g81
g82
ssg63
g3244
sg56
(lp3256
S':'
asbag49
(g70
g51
NtRp3257
(dp3258
g54
(dp3259
sg63
g3244
sg56
(lp3260
g49
(g50
g51
NtRp3261
(dp3262
g54
(dp3263
g62
I4
ssg63
g3257
sg56
(lp3264
g49
(g58
g51
NtRp3265
(dp3266
g54
(dp3267
g62
I3
ssg63
Nsg56
(lp3268
g49
(g65
g51
NtRp3269
(dp3270
g54
(dp3271
sg63
g3265
sg56
(lp3272
g49
(g70
g51
NtRp3273
(dp3274
g54
(dp3275
g74
g75
ssg63
g3269
sg56
(lp3276
g239
asbag49
(g70
g51
NtRp3277
(dp3278
g54
(dp3279
g81
g82
ssg63
g3269
sg56
(lp3280
S':'
asbag49
(g70
g51
NtRp3281
(dp3282
g54
(dp3283
sg63
g3269
sg56
(lp3284
g49
(g50
g51
NtRp3285
(dp3286
g54
(dp3287
g62
I3
ssg63
g3281
sg56
(lp3288
S''
asbasbasbag49
(g65
g51
NtRp3289
(dp3290
g54
(dp3291
sg63
g3265
sg56
(lp3292
g49
(g70
g51
NtRp3293
(dp3294
g54
(dp3295
g74
g75
ssg63
g3289
sg56
(lp3296
g260
asbag49
(g70
g51
NtRp3297
(dp3298
g54
(dp3299
g81
g82
ssg63
g3289
sg56
(lp3300
S':'
asbag49
(g70
g51
NtRp3301
(dp3302
g54
(dp3303
sg63
g3289
sg56
(lp3304
g49
(g50
g51
NtRp3305
(dp3306
g54
(dp3307
g62
I3
ssg63
g3301
sg56
(lp3308
S''
asbasbasbag49
(g65
g51
NtRp3309
(dp3310
g54
(dp3311
sg63
g3265
sg56
(lp3312
g49
(g70
g51
NtRp3313
(dp3314
g54
(dp3315
g74
g75
ssg63
g3309
sg56
(lp3316
g281
asbag49
(g70
g51
NtRp3317
(dp3318
g54
(dp3319
g81
g82
ssg63
g3309
sg56
(lp3320
S':'
asbag49
(g70
g51
NtRp3321
(dp3322
g54
(dp3323
sg63
g3309
sg56
(lp3324
g49
(g50
g51
NtRp3325
(dp3326
g54
(dp3327
g62
I3
ssg63
g3321
sg56
(lp3328
S''
asbasbasbag49
(g65
g51
NtRp3329
(dp3330
g54
(dp3331
sg63
g3265
sg56
(lp3332
g49
(g70
g51
NtRp3333
(dp3334
g54
(dp3335
g74
g75
ssg63
g3329
sg56
(lp3336
g302
asbag49
(g70
g51
NtRp3337
(dp3338
g54
(dp3339
g81
g82
ssg63
g3329
sg56
(lp3340
S':'
asbag49
(g70
g51
NtRp3341
(dp3342
g54
(dp3343
sg63
g3329
sg56
(lp3344
g49
(g50
g51
NtRp3345
(dp3346
g54
(dp3347
g62
I3
ssg63
g3341
sg56
(lp3348
S''
asbasbasbag49
(g65
g51
NtRp3349
(dp3350
g54
(dp3351
sg63
g3265
sg56
(lp3352
g49
(g70
g51
NtRp3353
(dp3354
g54
(dp3355
g74
g75
ssg63
g3349
sg56
(lp3356
g323
asbag49
(g70
g51
NtRp3357
(dp3358
g54
(dp3359
g81
g82
ssg63
g3349
sg56
(lp3360
S':'
asbag49
(g70
g51
NtRp3361
(dp3362
g54
(dp3363
sg63
g3349
sg56
(lp3364
g49
(g50
g51
NtRp3365
(dp3366
g54
(dp3367
g62
I3
ssg63
g3361
sg56
(lp3368
S'/'
asbasbasbag49
(g65
g51
NtRp3369
(dp3370
g54
(dp3371
sg63
g3265
sg56
(lp3372
g49
(g70
g51
NtRp3373
(dp3374
g54
(dp3375
g74
g75
ssg63
g3369
sg56
(lp3376
g344
asbag49
(g70
g51
NtRp3377
(dp3378
g54
(dp3379
g81
g82
ssg63
g3369
sg56
(lp3380
S':'
asbag49
(g70
g51
NtRp3381
(dp3382
g54
(dp3383
sg63
g3369
sg56
(lp3384
g49
(g50
g51
NtRp3385
(dp3386
g54
(dp3387
g62
I3
ssg63
g3381
sg56
(lp3388
S''
asbasbasbag49
(g65
g51
NtRp3389
(dp3390
g54
(dp3391
sg63
g3265
sg56
(lp3392
g49
(g70
g51
NtRp3393
(dp3394
g54
(dp3395
g74
g75
ssg63
g3389
sg56
(lp3396
g365
asbag49
(g70
g51
NtRp3397
(dp3398
g54
(dp3399
g81
g82
ssg63
g3389
sg56
(lp3400
S':'
asbag49
(g70
g51
NtRp3401
(dp3402
g54
(dp3403
sg63
g3389
sg56
(lp3404
g49
(g50
g51
NtRp3405
(dp3406
g54
(dp3407
g62
I3
ssg63
g3401
sg56
(lp3408
S''
asbasbasbasbasbasbasbasbasbasbasbag49
(g65
g51
NtRp3409
(dp3410
g54
(dp3411
sg63
g3195
sg56
(lp3412
g49
(g70
g51
NtRp3413
(dp3414
g54
(dp3415
g74
g75
ssg63
g3409
sg56
(lp3416
S'delimiters'
p3417
asbag49
(g70
g51
NtRp3418
(dp3419
g54
(dp3420
g81
g82
ssg63
g3409
sg56
(lp3421
S':'
asbag49
(g70
g51
NtRp3422
(dp3423
g54
(dp3424
sg63
g3409
sg56
(lp3425
g49
(g50
g51
NtRp3426
(dp3427
g54
(dp3428
g62
I5
ssg63
g3422
sg56
(lp3429
g49
(g58
g51
NtRp3430
(dp3431
g54
(dp3432
g62
I4
ssg63
Nsg56
(lp3433
g49
(g65
g51
NtRp3434
(dp3435
g54
(dp3436
sg63
g3430
sg56
(lp3437
g49
(g70
g51
NtRp3438
(dp3439
g54
(dp3440
sg63
g3434
sg56
(lp3441
g49
(g50
g51
NtRp3442
(dp3443
g54
(dp3444
g62
I4
ssg63
g3438
sg56
(lp3445
S'{{'
p3446
asbasbasbag49
(g65
g51
NtRp3447
(dp3448
g54
(dp3449
sg63
g3430
sg56
(lp3450
g49
(g70
g51
NtRp3451
(dp3452
g54
(dp3453
sg63
g3447
sg56
(lp3454
g49
(g50
g51
NtRp3455
(dp3456
g54
(dp3457
g62
I4
ssg63
g3451
sg56
(lp3458
S'}}'
p3459
asbasbasbasbasbasbasbag49
(g65
g51
NtRp3460
(dp3461
g54
(dp3462
sg63
g3195
sg56
(lp3463
g49
(g70
g51
NtRp3464
(dp3465
g54
(dp3466
g74
g75
ssg63
g3460
sg56
(lp3467
S'files'
p3468
asbag49
(g70
g51
NtRp3469
(dp3470
g54
(dp3471
g81
g82
ssg63
g3460
sg56
(lp3472
S':'
asbag49
(g70
g51
NtRp3473
(dp3474
g54
(dp3475
sg63
g3460
sg56
(lp3476
g49
(g50
g51
NtRp3477
(dp3478
g54
(dp3479
g62
I5
ssg63
g3473
sg56
(lp3480
g49
(g58
g51
NtRp3481
(dp3482
g54
(dp3483
g62
I4
ssg63
Nsg56
(lp3484
g49
(g65
g51
NtRp3485
(dp3486
g54
(dp3487
sg63
g3481
sg56
(lp3488
g49
(g70
g51
NtRp3489
(dp3490
g54
(dp3491
sg63
g3485
sg56
(lp3492
g49
(g50
g51
NtRp3493
(dp3494
g54
(dp3495
g62
I4
ssg63
g3489
sg56
(lp3496
S'/parleyweb/static/js/jquery.js'
p3497
asbasbasbag49
(g65
g51
NtRp3498
(dp3499
g54
(dp3500
sg63
g3481
sg56
(lp3501
g49
(g70
g51
NtRp3502
(dp3503
g54
(dp3504
sg63
g3498
sg56
(lp3505
g49
(g50
g51
NtRp3506
(dp3507
g54
(dp3508
g62
I4
ssg63
g3502
sg56
(lp3509
S'/parleyweb/static/css/calendar.css'
p3510
asbasbasbag49
(g65
g51
NtRp3511
(dp3512
g54
(dp3513
sg63
g3481
sg56
(lp3514
g49
(g70
g51
NtRp3515
(dp3516
g54
(dp3517
sg63
g3511
sg56
(lp3518
g49
(g50
g51
NtRp3519
(dp3520
g54
(dp3521
g62
I4
ssg63
g3515
sg56
(lp3522
S'/parleyweb/static/js/calendar.js'
p3523
asbasbasbag49
(g65
g51
NtRp3524
(dp3525
g54
(dp3526
sg63
g3481
sg56
(lp3527
g49
(g70
g51
NtRp3528
(dp3529
g54
(dp3530
sg63
g3524
sg56
(lp3531
g49
(g50
g51
NtRp3532
(dp3533
g54
(dp3534
g62
I4
ssg63
g3528
sg56
(lp3535
S'/parleyweb/static/js/web2py.js'
p3536
asbasbasbag49
(g65
g51
NtRp3537
(dp3538
g54
(dp3539
sg63
g3481
sg56
(lp3540
g49
(g70
g51
NtRp3541
(dp3542
g54
(dp3543
sg63
g3537
sg56
(lp3544
g49
(g50
g51
NtRp3545
(dp3546
g54
(dp3547
g62
I4
ssg63
g3541
sg56
(lp3548
S'/parleyweb/static/css/bootstrap.css'
p3549
asbasbasbag49
(g65
g51
NtRp3550
(dp3551
g54
(dp3552
sg63
g3481
sg56
(lp3553
g49
(g70
g51
NtRp3554
(dp3555
g54
(dp3556
sg63
g3550
sg56
(lp3557
g49
(g50
g51
NtRp3558
(dp3559
g54
(dp3560
g62
I4
ssg63
g3554
sg56
(lp3561
S'/parleyweb/static/js/bootstrap.js'
p3562
asbasbasbag49
(g65
g51
NtRp3563
(dp3564
g54
(dp3565
sg63
g3481
sg56
(lp3566
g49
(g70
g51
NtRp3567
(dp3568
g54
(dp3569
sg63
g3563
sg56
(lp3570
g49
(g50
g51
NtRp3571
(dp3572
g54
(dp3573
g62
I4
ssg63
g3567
sg56
(lp3574
S'/parleyweb/static/css/parleyweb.css'
p3575
asbasbasbag49
(g65
g51
NtRp3576
(dp3577
g54
(dp3578
sg63
g3481
sg56
(lp3579
g49
(g70
g51
NtRp3580
(dp3581
g54
(dp3582
sg63
g3576
sg56
(lp3583
g49
(g50
g51
NtRp3584
(dp3585
g54
(dp3586
g62
I4
ssg63
g3580
sg56
(lp3587
S'/parleyweb/static/css/jquery-ui-1.8.18.custom.css'
p3588
asbasbasbag49
(g65
g51
NtRp3589
(dp3590
g54
(dp3591
sg63
g3481
sg56
(lp3592
g49
(g70
g51
NtRp3593
(dp3594
g54
(dp3595
sg63
g3589
sg56
(lp3596
g49
(g50
g51
NtRp3597
(dp3598
g54
(dp3599
g62
I4
ssg63
g3593
sg56
(lp3600
S'/parleyweb/static/js/parleyweb.js'
p3601
asbasbasbag49
(g65
g51
NtRp3602
(dp3603
g54
(dp3604
sg63
g3481
sg56
(lp3605
g49
(g70
g51
NtRp3606
(dp3607
g54
(dp3608
sg63
g3602
sg56
(lp3609
g49
(g50
g51
NtRp3610
(dp3611
g54
(dp3612
g62
I4
ssg63
g3606
sg56
(lp3613
S'/parleyweb/static/js/jquery-ui-1.8.18.custom.min.js'
p3614
asbasbasbasbasbasbasbag49
(g65
g51
NtRp3615
(dp3616
g54
(dp3617
sg63
g3195
sg56
(lp3618
g49
(g70
g51
NtRp3619
(dp3620
g54
(dp3621
g74
g75
ssg63
g3615
sg56
(lp3622
S'flash'
p3623
asbag49
(g70
g51
NtRp3624
(dp3625
g54
(dp3626
g81
g82
ssg63
g3615
sg56
(lp3627
S':'
asbag49
(g70
g51
NtRp3628
(dp3629
g54
(dp3630
sg63
g3615
sg56
(lp3631
g49
(g50
g51
NtRp3632
(dp3633
g54
(dp3634
g62
I5
ssg63
g3628
sg56
(lp3635
S''
asbasbasbag49
(g65
g51
NtRp3636
(dp3637
g54
(dp3638
sg63
g3195
sg56
(lp3639
g49
(g70
g51
NtRp3640
(dp3641
g54
(dp3642
g74
g75
ssg63
g3636
sg56
(lp3643
S'generic_patterns'
p3644
asbag49
(g70
g51
NtRp3645
(dp3646
g54
(dp3647
g81
g82
ssg63
g3636
sg56
(lp3648
S':'
asbag49
(g70
g51
NtRp3649
(dp3650
g54
(dp3651
sg63
g3636
sg56
(lp3652
g49
(g50
g51
NtRp3653
(dp3654
g54
(dp3655
g62
I5
ssg63
g3649
sg56
(lp3656
g49
(g58
g51
NtRp3657
(dp3658
g54
(dp3659
g62
I4
ssg63
Nsg56
(lp3660
g49
(g65
g51
NtRp3661
(dp3662
g54
(dp3663
sg63
g3657
sg56
(lp3664
g49
(g70
g51
NtRp3665
(dp3666
g54
(dp3667
sg63
g3661
sg56
(lp3668
g49
(g50
g51
NtRp3669
(dp3670
g54
(dp3671
g62
I4
ssg63
g3665
sg56
(lp3672
S'*'
asbasbasbasbasbasbasbag49
(g65
g51
NtRp3673
(dp3674
g54
(dp3675
sg63
g3195
sg56
(lp3676
g49
(g70
g51
NtRp3677
(dp3678
g54
(dp3679
g74
g75
ssg63
g3673
sg56
(lp3680
S'headers'
p3681
asbag49
(g70
g51
NtRp3682
(dp3683
g54
(dp3684
g81
g82
ssg63
g3673
sg56
(lp3685
S':'
asbag49
(g70
g51
NtRp3686
(dp3687
g54
(dp3688
sg63
g3673
sg56
(lp3689
g49
(g50
g51
NtRp3690
(dp3691
g54
(dp3692
g62
I5
ssg63
g3686
sg56
(lp3693
g49
(g58
g51
NtRp3694
(dp3695
g54
(dp3696
g62
I4
ssg63
Nsg56
(lp3697
g49
(g65
g51
NtRp3698
(dp3699
g54
(dp3700
sg63
g3694
sg56
(lp3701
g49
(g70
g51
NtRp3702
(dp3703
g54
(dp3704
g74
g75
ssg63
g3698
sg56
(lp3705
S'Cache-Control'
p3706
asbag49
(g70
g51
NtRp3707
(dp3708
g54
(dp3709
g81
g82
ssg63
g3698
sg56
(lp3710
S':'
asbag49
(g70
g51
NtRp3711
(dp3712
g54
(dp3713
sg63
g3698
sg56
(lp3714
g49
(g50
g51
NtRp3715
(dp3716
g54
(dp3717
g62
I4
ssg63
g3711
sg56
(lp3718
S'no-store, no-cache, must-revalidate, post-check=0, pre-check=0'
p3719
asbasbasbag49
(g65
g51
NtRp3720
(dp3721
g54
(dp3722
sg63
g3694
sg56
(lp3723
g49
(g70
g51
NtRp3724
(dp3725
g54
(dp3726
g74
g75
ssg63
g3720
sg56
(lp3727
S'Content-Type'
p3728
asbag49
(g70
g51
NtRp3729
(dp3730
g54
(dp3731
g81
g82
ssg63
g3720
sg56
(lp3732
S':'
asbag49
(g70
g51
NtRp3733
(dp3734
g54
(dp3735
sg63
g3720
sg56
(lp3736
g49
(g50
g51
NtRp3737
(dp3738
g54
(dp3739
g62
I4
ssg63
g3733
sg56
(lp3740
S'text/html; charset=utf-8'
p3741
asbasbasbag49
(g65
g51
NtRp3742
(dp3743
g54
(dp3744
sg63
g3694
sg56
(lp3745
g49
(g70
g51
NtRp3746
(dp3747
g54
(dp3748
g74
g75
ssg63
g3742
sg56
(lp3749
S'Expires'
p3750
asbag49
(g70
g51
NtRp3751
(dp3752
g54
(dp3753
g81
g82
ssg63
g3742
sg56
(lp3754
S':'
asbag49
(g70
g51
NtRp3755
(dp3756
g54
(dp3757
sg63
g3742
sg56
(lp3758
g49
(g50
g51
NtRp3759
(dp3760
g54
(dp3761
g62
I4
ssg63
g3755
sg56
(lp3762
S'Thu, 15 Mar 2012 12:49:27 GMT'
p3763
asbasbasbag49
(g65
g51
NtRp3764
(dp3765
g54
(dp3766
sg63
g3694
sg56
(lp3767
g49
(g70
g51
NtRp3768
(dp3769
g54
(dp3770
g74
g75
ssg63
g3764
sg56
(lp3771
S'Pragma'
p3772
asbag49
(g70
g51
NtRp3773
(dp3774
g54
(dp3775
g81
g82
ssg63
g3764
sg56
(lp3776
S':'
asbag49
(g70
g51
NtRp3777
(dp3778
g54
(dp3779
sg63
g3764
sg56
(lp3780
g49
(g50
g51
NtRp3781
(dp3782
g54
(dp3783
g62
I4
ssg63
g3777
sg56
(lp3784
S'no-cache'
p3785
asbasbasbag49
(g65
g51
NtRp3786
(dp3787
g54
(dp3788
sg63
g3694
sg56
(lp3789
g49
(g70
g51
NtRp3790
(dp3791
g54
(dp3792
g74
g75
ssg63
g3786
sg56
(lp3793
S'X-Powered-By'
p3794
asbag49
(g70
g51
NtRp3795
(dp3796
g54
(dp3797
g81
g82
ssg63
g3786
sg56
(lp3798
S':'
asbag49
(g70
g51
NtRp3799
(dp3800
g54
(dp3801
sg63
g3786
sg56
(lp3802
g49
(g50
g51
NtRp3803
(dp3804
g54
(dp3805
g62
I4
ssg63
g3799
sg56
(lp3806
S'web2py'
p3807
asbasbasbasbasbasbasbag49
(g65
g51
NtRp3808
(dp3809
g54
(dp3810
sg63
g3195
sg56
(lp3811
g49
(g70
g51
NtRp3812
(dp3813
g54
(dp3814
g74
g75
ssg63
g3808
sg56
(lp3815
S'menu'
p3816
asbag49
(g70
g51
NtRp3817
(dp3818
g54
(dp3819
g81
g82
ssg63
g3808
sg56
(lp3820
S':'
asbag49
(g70
g51
NtRp3821
(dp3822
g54
(dp3823
sg63
g3808
sg56
(lp3824
g49
(g50
g51
NtRp3825
(dp3826
g54
(dp3827
g62
I5
ssg63
g3821
sg56
(lp3828
g49
(g58
g51
NtRp3829
(dp3830
g54
(dp3831
g62
I4
ssg63
Nsg56
(lp3832
g49
(g65
g51
NtRp3833
(dp3834
g54
(dp3835
sg63
g3829
sg56
(lp3836
g49
(g70
g51
NtRp3837
(dp3838
g54
(dp3839
sg63
g3833
sg56
(lp3840
g49
(g50
g51
NtRp3841
(dp3842
g54
(dp3843
g62
I4
ssg63
g3837
sg56
(lp3844
g49
(g58
g51
NtRp3845
(dp3846
g54
(dp3847
g62
I3
ssg63
Nsg56
(lp3848
g49
(g65
g51
NtRp3849
(dp3850
g54
(dp3851
sg63
g3845
sg56
(lp3852
g49
(g70
g51
NtRp3853
(dp3854
g54
(dp3855
sg63
g3849
sg56
(lp3856
g49
(g50
g51
NtRp3857
(dp3858
g54
(dp3859
g62
I3
ssg63
g3853
sg56
(lp3860
cgluon.languages
lazyT_unpickle
p3861
(S't\x04\x00\x00\x00Home'
tRp3862
asbasbasbag49
(g65
g51
NtRp3863
(dp3864
g54
(dp3865
sg63
g3845
sg56
(lp3866
g49
(g70
g51
NtRp3867
(dp3868
g54
(dp3869
sg63
g3863
sg56
(lp3870
g49
(g50
g51
NtRp3871
(dp3872
g54
(dp3873
g62
I3
ssg63
g3867
sg56
(lp3874
g92
asbasbasbag49
(g65
g51
NtRp3875
(dp3876
g54
(dp3877
sg63
g3845
sg56
(lp3878
g49
(g70
g51
NtRp3879
(dp3880
g54
(dp3881
sg63
g3875
sg56
(lp3882
g49
(g50
g51
NtRp3883
(dp3884
g54
(dp3885
g62
I3
ssg63
g3879
sg56
(lp3886
S'/parleyweb/default/index'
p3887
asbasbasbag49
(g65
g51
NtRp3888
(dp3889
g54
(dp3890
sg63
g3845
sg56
(lp3891
g49
(g70
g51
NtRp3892
(dp3893
g54
(dp3894
sg63
g3888
sg56
(lp3895
g49
(g50
g51
NtRp3896
(dp3897
g54
(dp3898
g62
I3
ssg63
g3892
sg56
(lp3899
g49
(g58
g51
NtRp3900
(dp3901
g54
(dp3902
g62
I2
ssg63
Nsg56
(lp3903
sbasbasbasbasbasbasbasbasbasbasbasbag49
(g65
g51
NtRp3904
(dp3905
g54
(dp3906
sg63
g3195
sg56
(lp3907
g49
(g70
g51
NtRp3908
(dp3909
g54
(dp3910
g74
g75
ssg63
g3904
sg56
(lp3911
S'meta'
p3912
asbag49
(g70
g51
NtRp3913
(dp3914
g54
(dp3915
g81
g82
ssg63
g3904
sg56
(lp3916
S':'
asbag49
(g70
g51
NtRp3917
(dp3918
g54
(dp3919
sg63
g3904
sg56
(lp3920
g49
(g50
g51
NtRp3921
(dp3922
g54
(dp3923
g62
I5
ssg63
g3917
sg56
(lp3924
g49
(g58
g51
NtRp3925
(dp3926
g54
(dp3927
g62
I4
ssg63
Nsg56
(lp3928
g49
(g65
g51
NtRp3929
(dp3930
g54
(dp3931
sg63
g3925
sg56
(lp3932
g49
(g70
g51
NtRp3933
(dp3934
g54
(dp3935
g74
g75
ssg63
g3929
sg56
(lp3936
S'author'
p3937
asbag49
(g70
g51
NtRp3938
(dp3939
g54
(dp3940
g81
g82
ssg63
g3929
sg56
(lp3941
S':'
asbag49
(g70
g51
NtRp3942
(dp3943
g54
(dp3944
sg63
g3929
sg56
(lp3945
g49
(g50
g51
NtRp3946
(dp3947
g54
(dp3948
g62
I4
ssg63
g3942
sg56
(lp3949
S'Your Name <you@example.com>'
p3950
asbasbasbag49
(g65
g51
NtRp3951
(dp3952
g54
(dp3953
sg63
g3925
sg56
(lp3954
g49
(g70
g51
NtRp3955
(dp3956
g54
(dp3957
g74
g75
ssg63
g3951
sg56
(lp3958
S'copyright'
p3959
asbag49
(g70
g51
NtRp3960
(dp3961
g54
(dp3962
g81
g82
ssg63
g3951
sg56
(lp3963
S':'
asbag49
(g70
g51
NtRp3964
(dp3965
g54
(dp3966
sg63
g3951
sg56
(lp3967
g49
(g50
g51
NtRp3968
(dp3969
g54
(dp3970
g62
I4
ssg63
g3964
sg56
(lp3971
S'Copyright 2011'
p3972
asbasbasbag49
(g65
g51
NtRp3973
(dp3974
g54
(dp3975
sg63
g3925
sg56
(lp3976
g49
(g70
g51
NtRp3977
(dp3978
g54
(dp3979
g74
g75
ssg63
g3973
sg56
(lp3980
S'description'
p3981
asbag49
(g70
g51
NtRp3982
(dp3983
g54
(dp3984
g81
g82
ssg63
g3973
sg56
(lp3985
S':'
asbag49
(g70
g51
NtRp3986
(dp3987
g54
(dp3988
sg63
g3973
sg56
(lp3989
g49
(g50
g51
NtRp3990
(dp3991
g54
(dp3992
g62
I4
ssg63
g3986
sg56
(lp3993
S'a cool new app'
p3994
asbasbasbag49
(g65
g51
NtRp3995
(dp3996
g54
(dp3997
sg63
g3925
sg56
(lp3998
g49
(g70
g51
NtRp3999
(dp4000
g54
(dp4001
g74
g75
ssg63
g3995
sg56
(lp4002
S'generator'
p4003
asbag49
(g70
g51
NtRp4004
(dp4005
g54
(dp4006
g81
g82
ssg63
g3995
sg56
(lp4007
S':'
asbag49
(g70
g51
NtRp4008
(dp4009
g54
(dp4010
sg63
g3995
sg56
(lp4011
g49
(g50
g51
NtRp4012
(dp4013
g54
(dp4014
g62
I4
ssg63
g4008
sg56
(lp4015
S'Web2py Web Framework'
p4016
asbasbasbag49
(g65
g51
NtRp4017
(dp4018
g54
(dp4019
sg63
g3925
sg56
(lp4020
g49
(g70
g51
NtRp4021
(dp4022
g54
(dp4023
g74
g75
ssg63
g4017
sg56
(lp4024
S'keywords'
p4025
asbag49
(g70
g51
NtRp4026
(dp4027
g54
(dp4028
g81
g82
ssg63
g4017
sg56
(lp4029
S':'
asbag49
(g70
g51
NtRp4030
(dp4031
g54
(dp4032
sg63
g4017
sg56
(lp4033
g49
(g50
g51
NtRp4034
(dp4035
g54
(dp4036
g62
I4
ssg63
g4030
sg56
(lp4037
S'web2py, python, framework'
p4038
asbasbasbasbasbasbasbag49
(g65
g51
NtRp4039
(dp4040
g54
(dp4041
sg63
g3195
sg56
(lp4042
g49
(g70
g51
NtRp4043
(dp4044
g54
(dp4045
g74
g75
ssg63
g4039
sg56
(lp4046
S'postprocessing'
p4047
asbag49
(g70
g51
NtRp4048
(dp4049
g54
(dp4050
g81
g82
ssg63
g4039
sg56
(lp4051
S':'
asbag49
(g70
g51
NtRp4052
(dp4053
g54
(dp4054
sg63
g4039
sg56
(lp4055
g49
(g50
g51
NtRp4056
(dp4057
g54
(dp4058
g62
I5
ssg63
g4052
sg56
(lp4059
g49
(g58
g51
NtRp4060
(dp4061
g54
(dp4062
g62
I4
ssg63
Nsg56
(lp4063
sbasbasbasbag49
(g65
g51
NtRp4064
(dp4065
g54
(dp4066
sg63
g3195
sg56
(lp4067
g49
(g70
g51
NtRp4068
(dp4069
g54
(dp4070
g74
g75
ssg63
g4064
sg56
(lp4071
S'session_file'
p4072
asbag49
(g70
g51
NtRp4073
(dp4074
g54
(dp4075
g81
g82
ssg63
g4064
sg56
(lp4076
S':'
asbag49
(g70
g51
NtRp4077
(dp4078
g54
(dp4079
sg63
g4064
sg56
(lp4080
g49
(g50
g51
NtRp4081
(dp4082
g54
(dp4083
g62
I5
ssg63
g4077
sg56
(lp4084
S"<open file 'D:\\Dise\xf1o Web\\Proyectos\\Parleyweb\\web2py\\applications\\parleyweb\\sessions\\127.0.0.1-8bc0d624-a7ac-4822-aaf0-ed4b06ce8341', mode 'rb+' at 0x06ADD530>"
p4085
asbasbasbag49
(g65
g51
NtRp4086
(dp4087
g54
(dp4088
sg63
g3195
sg56
(lp4089
g49
(g70
g51
NtRp4090
(dp4091
g54
(dp4092
g74
g75
ssg63
g4086
sg56
(lp4093
S'session_filename'
p4094
asbag49
(g70
g51
NtRp4095
(dp4096
g54
(dp4097
g81
g82
ssg63
g4086
sg56
(lp4098
S':'
asbag49
(g70
g51
NtRp4099
(dp4100
g54
(dp4101
sg63
g4086
sg56
(lp4102
g49
(g50
g51
NtRp4103
(dp4104
g54
(dp4105
g62
I5
ssg63
g4099
sg56
(lp4106
S'D:\\Dise\xf1o Web\\Proyectos\\Parleyweb\\web2py\\applications\\parleyweb\\sessions\\127.0.0.1-8bc0d624-a7ac-4822-aaf0-ed4b06ce8341'
p4107
asbasbasbag49
(g65
g51
NtRp4108
(dp4109
g54
(dp4110
sg63
g3195
sg56
(lp4111
g49
(g70
g51
NtRp4112
(dp4113
g54
(dp4114
g74
g75
ssg63
g4108
sg56
(lp4115
S'session_id'
p4116
asbag49
(g70
g51
NtRp4117
(dp4118
g54
(dp4119
g81
g82
ssg63
g4108
sg56
(lp4120
S':'
asbag49
(g70
g51
NtRp4121
(dp4122
g54
(dp4123
sg63
g4108
sg56
(lp4124
g49
(g50
g51
NtRp4125
(dp4126
g54
(dp4127
g62
I5
ssg63
g4121
sg56
(lp4128
S'127.0.0.1-8bc0d624-a7ac-4822-aaf0-ed4b06ce8341'
p4129
asbasbasbag49
(g65
g51
NtRp4130
(dp4131
g54
(dp4132
sg63
g3195
sg56
(lp4133
g49
(g70
g51
NtRp4134
(dp4135
g54
(dp4136
g74
g75
ssg63
g4130
sg56
(lp4137
S'session_id_name'
p4138
asbag49
(g70
g51
NtRp4139
(dp4140
g54
(dp4141
g81
g82
ssg63
g4130
sg56
(lp4142
S':'
asbag49
(g70
g51
NtRp4143
(dp4144
g54
(dp4145
sg63
g4130
sg56
(lp4146
g49
(g50
g51
NtRp4147
(dp4148
g54
(dp4149
g62
I5
ssg63
g4143
sg56
(lp4150
g3252
asbasbasbag49
(g65
g51
NtRp4151
(dp4152
g54
(dp4153
sg63
g3195
sg56
(lp4154
g49
(g70
g51
NtRp4155
(dp4156
g54
(dp4157
g74
g75
ssg63
g4151
sg56
(lp4158
S'session_locked'
p4159
asbag49
(g70
g51
NtRp4160
(dp4161
g54
(dp4162
g81
g82
ssg63
g4151
sg56
(lp4163
S':'
asbag49
(g70
g51
NtRp4164
(dp4165
g54
(dp4166
sg63
g4151
sg56
(lp4167
g49
(g50
g51
NtRp4168
(dp4169
g54
(dp4170
g62
I5
ssg63
g4164
sg56
(lp4171
g1549
asbasbasbag49
(g65
g51
NtRp4172
(dp4173
g54
(dp4174
sg63
g3195
sg56
(lp4175
g49
(g70
g51
NtRp4176
(dp4177
g54
(dp4178
g74
g75
ssg63
g4172
sg56
(lp4179
S'session_new'
p4180
asbag49
(g70
g51
NtRp4181
(dp4182
g54
(dp4183
g81
g82
ssg63
g4172
sg56
(lp4184
S':'
asbag49
(g70
g51
NtRp4185
(dp4186
g54
(dp4187
sg63
g4172
sg56
(lp4188
g49
(g50
g51
NtRp4189
(dp4190
g54
(dp4191
g62
I5
ssg63
g4185
sg56
(lp4192
g92
asbasbasbag49
(g65
g51
NtRp4193
(dp4194
g54
(dp4195
sg63
g3195
sg56
(lp4196
g49
(g70
g51
NtRp4197
(dp4198
g54
(dp4199
g74
g75
ssg63
g4193
sg56
(lp4200
S'status'
p4201
asbag49
(g70
g51
NtRp4202
(dp4203
g54
(dp4204
g81
g82
ssg63
g4193
sg56
(lp4205
S':'
asbag49
(g70
g51
NtRp4206
(dp4207
g54
(dp4208
sg63
g4193
sg56
(lp4209
g49
(g50
g51
NtRp4210
(dp4211
g54
(dp4212
g62
I5
ssg63
g4206
sg56
(lp4213
S'200'
p4214
asbasbasbag49
(g65
g51
NtRp4215
(dp4216
g54
(dp4217
sg63
g3195
sg56
(lp4218
g49
(g70
g51
NtRp4219
(dp4220
g54
(dp4221
g74
g75
ssg63
g4215
sg56
(lp4222
S'subtitle'
p4223
asbag49
(g70
g51
NtRp4224
(dp4225
g54
(dp4226
g81
g82
ssg63
g4215
sg56
(lp4227
S':'
asbag49
(g70
g51
NtRp4228
(dp4229
g54
(dp4230
sg63
g4215
sg56
(lp4231
g49
(g50
g51
NtRp4232
(dp4233
g54
(dp4234
g62
I5
ssg63
g4228
sg56
(lp4235
g3861
(S's\t\x00\x00\x00Adaptame!'
tRp4236
asbasbasbag49
(g65
g51
NtRp4237
(dp4238
g54
(dp4239
sg63
g3195
sg56
(lp4240
g49
(g70
g51
NtRp4241
(dp4242
g54
(dp4243
g74
g75
ssg63
g4237
sg56
(lp4244
S'title'
p4245
asbag49
(g70
g51
NtRp4246
(dp4247
g54
(dp4248
g81
g82
ssg63
g4237
sg56
(lp4249
S':'
asbag49
(g70
g51
NtRp4250
(dp4251
g54
(dp4252
sg63
g4237
sg56
(lp4253
g49
(g50
g51
NtRp4254
(dp4255
g54
(dp4256
g62
I5
ssg63
g4250
sg56
(lp4257
S'Parleyweb'
p4258
asbasbasbag49
(g65
g51
NtRp4259
(dp4260
g54
(dp4261
sg63
g3195
sg56
(lp4262
g49
(g70
g51
NtRp4263
(dp4264
g54
(dp4265
g74
g75
ssg63
g4259
sg56
(lp4266
g2286
asbag49
(g70
g51
NtRp4267
(dp4268
g54
(dp4269
g81
g82
ssg63
g4259
sg56
(lp4270
S':'
asbag49
(g70
g51
NtRp4271
(dp4272
g54
(dp4273
sg63
g4259
sg56
(lp4274
g49
(g50
g51
NtRp4275
(dp4276
g54
(dp4277
g62
I5
ssg63
g4271
sg56
(lp4278
g2299
asbasbasbag49
(g65
g51
NtRp4279
(dp4280
g54
(dp4281
sg63
g3195
sg56
(lp4282
g49
(g70
g51
NtRp4283
(dp4284
g54
(dp4285
g74
g75
ssg63
g4279
sg56
(lp4286
S'view'
p4287
asbag49
(g70
g51
NtRp4288
(dp4289
g54
(dp4290
g81
g82
ssg63
g4279
sg56
(lp4291
S':'
asbag49
(g70
g51
NtRp4292
(dp4293
g54
(dp4294
sg63
g4279
sg56
(lp4295
g49
(g50
g51
NtRp4296
(dp4297
g54
(dp4298
g62
I5
ssg63
g4292
sg56
(lp4299
S'admin/relacionar.html'
p4300
asbasbasbasbasbsS'locals'
p4301
(dp4302
S'Service'
p4303
S"<class 'gluon.tools.Service'>"
p4304
sS'OBJECT'
p4305
S"<class 'gluon.html.OBJECT'>"
p4306
sS'SQLDB'
p4307
S"<class 'gluon.dal.DAL'>"
p4308
sg3177
S"<Storage {'_formkey[busqueda/create]': 'daf3d732...x10C.\\x14D\\xd8\\xc1\\xf2\\x02\\x8cmJ\\xfd\\x90\\t\\x88'}>"
p4309
sS'LINK'
p4310
S"<class 'gluon.html.LINK'>"
p4311
sS'BR'
p4312
S"<class 'gluon.html.BR'>"
p4313
sS'local_import'
p4314
S'<function <lambda> at 0x06638730>'
p4315
sS'OPTGROUP'
p4316
S"<class 'gluon.html.OPTGROUP'>"
p4317
sS'PRE'
p4318
S"<class 'gluon.html.PRE'>"
p4319
sS'IS_INT_IN_RANGE'
p4320
S"<class 'gluon.validators.IS_INT_IN_RANGE'>"
p4321
sS'left_sidebar_enabled'
p4322
g92
sS'IS_LOWER'
p4323
S"<class 'gluon.validators.IS_LOWER'>"
p4324
sS'IS_STRONG'
p4325
S"<class 'gluon.validators.IS_STRONG'>"
p4326
sS'cache'
p4327
S'<gluon.cache.Cache object at 0x06A3BEB0>'
p4328
sS'IS_IN_DB'
p4329
S"<class 'gluon.validators.IS_IN_DB'>"
p4330
sS'TAG'
p4331
S'<gluon.html.__TAG__ object at 0x02861D50>'
p4332
sS'SQLField'
p4333
S"<class 'gluon.dal.Field'>"
p4334
sS'mail'
p4335
S'<gluon.tools.Mail object at 0x06B04B50>'
p4336
sS'BODY'
p4337
S"<class 'gluon.html.BODY'>"
p4338
sS'IS_DATE_IN_RANGE'
p4339
S"<class 'gluon.validators.IS_DATE_IN_RANGE'>"
p4340
sS'TH'
p4341
S"<class 'gluon.html.TH'>"
p4342
sS'URL'
p4343
S'<function URL at 0x028C7EB0>'
p4344
sS'__file__'
p4345
S"'D:\\\\Dise\\xf1o Web\\\\Proyectos\\\\Parleyweb\\\\web2py\\\\applications\\\\parleyweb\\\\views\\\\admin/relacionar.html'"
p4346
sS'db'
p4347
S"<DAL {'auth_event': <Table {'origin': <gluon.dal..._key': <gluon.dal.Field object at 0x06B04090>}>}>"
p4348
sS'auth'
p4349
S'<gluon.tools.Auth object at 0x06B04D10>'
p4350
sS'P'
S"<class 'gluon.html.P'>"
p4351
sS'TFOOT'
p4352
S"<class 'gluon.html.TFOOT'>"
p4353
sS'XHTML'
p4354
S"<class 'gluon.html.XHTML'>"
p4355
sS'ON'
p4356
g1549
sS'OL'
p4357
S"<class 'gluon.html.OL'>"
p4358
sS'TEXTAREA'
p4359
S"<class 'gluon.html.TEXTAREA'>"
p4360
sS'MENU'
p4361
S"<class 'gluon.html.MENU'>"
p4362
sS'LOAD'
p4363
S'<function LOAD at 0x02BB17B0>'
p4364
sS'CODE'
p4365
S"<class 'gluon.html.CODE'>"
p4366
sS'HTTP'
p4367
S"<class 'gluon.http.HTTP'>"
p4368
sS'HR'
p4369
S"<class 'gluon.html.HR'>"
p4370
sS'IS_DATETIME'
p4371
S"<class 'gluon.validators.IS_DATETIME'>"
p4372
sS'HEAD'
p4373
S"<class 'gluon.html.HEAD'>"
p4374
sS'LABEL'
p4375
S"<class 'gluon.html.LABEL'>"
p4376
sS'CLEANUP'
p4377
S"<class 'gluon.validators.CLEANUP'>"
p4378
sS'plugins'
p4379
S'<gluon.tools.PluginManager object at 0x0336DFD0>'
p4380
sS'SELECT'
p4381
S"<class 'gluon.html.SELECT'>"
p4382
sS'use_janrain'
p4383
S'<function use_janrain at 0x0336C8F0>'
p4384
sS'CENTER'
p4385
S"<class 'gluon.html.CENTER'>"
p4386
sS'prettydate'
p4387
S'<function prettydate at 0x03369EF0>'
p4388
sS'Crud'
p4389
S"<class 'gluon.tools.Crud'>"
p4390
sS'Auth'
p4391
S"<class 'gluon.tools.Auth'>"
p4392
sS'__builtins__'
p4393
S"{'ArithmeticError': <type 'exceptions.ArithmeticError'>, 'AssertionError': <type 'exceptions.AssertionError'>, 'AttributeError': <type 'exceptions.AttributeError'>, 'BaseException': <type 'exceptions.BaseException'>, 'DeprecationWarning': <type 'exceptions.DeprecationWarning'>, 'EOFError': <type 'exceptions.EOFError'>, 'Ellipsis': Ellipsis, 'EnvironmentError': <type 'exceptions.EnvironmentError'>, 'Exception': <type 'exceptions.Exception'>, 'False': False, ...}"
p4394
sS'HTML'
p4395
S"<class 'gluon.html.HTML'>"
p4396
sS'SQLFORM'
p4397
S"<class 'gluon.sqlhtml.SQLFORM'>"
p4398
sS'EM'
p4399
S"<class 'gluon.html.EM'>"
p4400
sS'redirect'
p4401
S'<function redirect at 0x0246BB70>'
p4402
sS'FIELDSET'
p4403
S"<class 'gluon.html.FIELDSET'>"
p4404
sS'IS_EQUAL_TO'
p4405
S"<class 'gluon.validators.IS_EQUAL_TO'>"
p4406
sS'embed64'
p4407
S'<function embed64 at 0x028D69F0>'
p4408
sS'IS_LIST_OF'
p4409
S"<class 'gluon.validators.IS_LIST_OF'>"
p4410
sS'__name__'
p4411
S"'__restricted__'"
p4412
sS'EMBED'
p4413
S"<class 'gluon.html.EMBED'>"
p4414
sS'_'
S'<function _ at 0x067D3170>'
p4415
sS'FORM'
p4416
S"<class 'gluon.html.FORM'>"
p4417
sS'H2'
p4418
S"<class 'gluon.html.H2'>"
p4419
sS'H3'
p4420
S"<class 'gluon.html.H3'>"
p4421
sS'BUTTON'
p4422
S"<class 'gluon.html.BUTTON'>"
p4423
sS'H1'
p4424
S"<class 'gluon.html.H1'>"
p4425
sS'H6'
p4426
S"<class 'gluon.html.H6'>"
p4427
sS'H4'
p4428
S"<class 'gluon.html.H4'>"
p4429
sS'H5'
p4430
S"<class 'gluon.html.H5'>"
p4431
sS'UL'
p4432
S"<class 'gluon.html.UL'>"
p4433
sS'IS_UPPER'
p4434
S"<class 'gluon.validators.IS_UPPER'>"
p4435
sS'xmlescape'
p4436
S'<function xmlescape at 0x028C7E30>'
p4437
sS'IS_TIME'
p4438
S"<class 'gluon.validators.IS_TIME'>"
p4439
sS'OPTION'
p4440
S"<class 'gluon.html.OPTION'>"
p4441
sS'TITLE'
p4442
S"<class 'gluon.html.TITLE'>"
p4443
sS'CRYPT'
p4444
S"<class 'gluon.validators.CRYPT'>"
p4445
sS'IS_EMPTY_OR'
p4446
S"<class 'gluon.validators.IS_EMPTY_OR'>"
p4447
sS'MARKMIN'
p4448
S"<class 'gluon.html.MARKMIN'>"
p4449
sS'INPUT'
p4450
S"<class 'gluon.html.INPUT'>"
p4451
sS'COL'
p4452
S"<class 'gluon.html.COL'>"
p4453
sS'service'
p4454
S'<gluon.tools.Service object at 0x06B049B0>'
p4455
sS'SCRIPT'
p4456
S"<class 'gluon.html.SCRIPT'>"
p4457
sS'TABLE'
p4458
S"<class 'gluon.html.TABLE'>"
p4459
sS'IS_IPV4'
p4460
S"<class 'gluon.validators.IS_IPV4'>"
p4461
sS'IS_LENGTH'
p4462
S"<class 'gluon.validators.IS_LENGTH'>"
p4463
sS'XML'
p4464
S"<class 'gluon.html.XML'>"
p4465
sS'B'
S"<class 'gluon.html.B'>"
p4466
sS'IMG'
p4467
S"<class 'gluon.html.IMG'>"
p4468
sS'SQLTABLE'
p4469
S"<class 'gluon.sqlhtml.SQLTABLE'>"
p4470
sS'IS_MATCH'
p4471
S"<class 'gluon.validators.IS_MATCH'>"
p4472
sS'IS_ALPHANUMERIC'
p4473
S"<class 'gluon.validators.IS_ALPHANUMERIC'>"
p4474
sS'SPAN'
p4475
S"<class 'gluon.html.SPAN'>"
p4476
sS'IS_SLUG'
p4477
S"<class 'gluon.validators.IS_SLUG'>"
p4478
sS'BEAUTIFY'
p4479
S"<class 'gluon.html.BEAUTIFY'>"
p4480
sS'META'
p4481
S"<class 'gluon.html.META'>"
p4482
sS'IS_DATE'
p4483
S"<class 'gluon.validators.IS_DATE'>"
p4484
sS'IS_EMAIL'
p4485
S"<class 'gluon.validators.IS_EMAIL'>"
p4486
sS'IS_NOT_EMPTY'
p4487
S"<class 'gluon.validators.IS_NOT_EMPTY'>"
p4488
sg48
S"<Storage {'body': <open file '<fdopen>', mode 'w...elacionar': ['15', '20'], 'id_palabra': '129'}>}>"
p4489
sS'TBODY'
p4490
S"<class 'gluon.html.TBODY'>"
p4491
sS'CAT'
p4492
S"<class 'gluon.html.CAT'>"
p4493
sS'Field'
p4494
S"<class 'gluon.dal.Field'>"
p4495
sS'middle_columns'
p4496
S"'sixteen'"
p4497
sS'DIV'
p4498
S"<class 'gluon.html.DIV'>"
p4499
sS'LEGEND'
p4500
S"<class 'gluon.html.LEGEND'>"
p4501
sS'COLGROUP'
p4502
S"<class 'gluon.html.COLGROUP'>"
p4503
sS'DAL'
p4504
S"<class 'gluon.dal.DAL'>"
p4505
sS'TT'
p4506
S"<class 'gluon.html.TT'>"
p4507
sS'TR'
p4508
S"<class 'gluon.html.TR'>"
p4509
sS'LI'
p4510
S"<class 'gluon.html.LI'>"
p4511
sS'right_sidebar_enabled'
p4512
g92
sS'IFRAME'
p4513
S"<class 'gluon.html.IFRAME'>"
p4514
sS'TD'
p4515
S"<class 'gluon.html.TD'>"
p4516
sS'PluginManager'
p4517
S"<class 'gluon.tools.PluginManager'>"
p4518
sS'IS_URL'
p4519
S"<class 'gluon.validators.IS_URL'>"
p4520
sS'A'
S"<class 'gluon.html.A'>"
p4521
sS'STYLE'
p4522
S"<class 'gluon.html.STYLE'>"
p4523
sS'IS_DATETIME_IN_RANGE'
p4524
S"<class 'gluon.validators.IS_DATETIME_IN_RANGE'>"
p4525
sS'IS_IMAGE'
p4526
S"<class 'gluon.validators.IS_IMAGE'>"
p4527
sS'I'
S"<class 'gluon.html.I'>"
p4528
sS'crud'
p4529
S'<gluon.tools.Crud object at 0x06B04870>'
p4530
sS'IS_NOT_IN_DB'
p4531
S"<class 'gluon.validators.IS_NOT_IN_DB'>"
p4532
sg3190
S"<Storage {'body': <cStringIO.StringO object at 0...at 0x067D9630>, 'view': 'admin/relacionar.html'}>"
p4533
sS'THEAD'
p4534
S"<class 'gluon.html.THEAD'>"
p4535
sS'IS_NULL_OR'
p4536
S"<class 'gluon.validators.IS_EMPTY_OR'>"
p4537
sS'i'
S"'relacionar'"
p4538
sS'IS_FLOAT_IN_RANGE'
p4539
S"<class 'gluon.validators.IS_FLOAT_IN_RANGE'>"
p4540
sS'IS_EXPR'
p4541
S"<class 'gluon.validators.IS_EXPR'>"
p4542
sS'T'
S'<gluon.languages.translator object at 0x06A3B090>'
p4543
sS'IS_IN_SET'
p4544
S"<class 'gluon.validators.IS_IN_SET'>"
p4545
sS'IS_UPLOAD_FILENAME'
p4546
S"<class 'gluon.validators.IS_UPLOAD_FILENAME'>"
p4547
sS'IS_DECIMAL_IN_RANGE'
p4548
S"<class 'gluon.validators.IS_DECIMAL_IN_RANGE'>"
p4549
sssS'traceback'
p4550
S'Traceback (most recent call last):\n  File "gluon/restricted.py", line 205, in restricted\n  File "D:\\Dise\xf1o Web\\Proyectos\\Parleyweb\\web2py\\applications\\parleyweb\\views\\admin/relacionar.html", line 67, in <module>\nAttributeError: \'str\' object has no attribute \'relacionar\'\n'
p4551
s.