(dp1
S'output'
p2
S"<type 'exceptions.SyntaxError'> invalid syntax (admin/agregar_palabra.html, line 132)"
p3
sS'layer'
p4
S'D:\\Dise\xf1o Web\\Proyectos\\Parleyweb\\web2py\\applications\\parleyweb\\views\\admin/agregar_palabra.html'
p5
sS'code'
p6
S'response.write(\'<!DOCTYPE html>\\n<!-- paulirish.com/2008/conditional-stylesheets-vs-css-hacks-answer-neither/ -->\\n<!--[if lt IE 7]><html class="ie ie6 ie-lte9 ie-lte8 ie-lte7 no-js" lang="\', escape=False)\nresponse.write(T.accepted_language or \'en\')\nresponse.write(\'"> <![endif]-->\\n<!--[if IE 7]><html class="ie ie7 ie-lte9 ie-lte8 ie-lte7 no-js" lang="\', escape=False)\nresponse.write(T.accepted_language or \'en\')\nresponse.write(\'"> <![endif]-->\\n<!--[if IE 8]><html class="ie ie8 ie-lte9 ie-lte8 no-js" lang="\', escape=False)\nresponse.write(T.accepted_language or \'en\')\nresponse.write(\'"> <![endif]-->\\n<!--[if IE 9]><html class="ie9 ie-lte9 no-js" lang="\', escape=False)\nresponse.write(T.accepted_language or \'en\')\nresponse.write(\'"> <![endif]-->\\n<!--[if (gt IE 9)|!(IE)]><!--> <html class="no-js" lang="\', escape=False)\nresponse.write(T.accepted_language or \'en\')\nresponse.write(\'"> <!--<![endif]-->\\n<head>\\n  <meta charset="utf-8" />\\n  <!-- www.phpied.com/conditional-comments-block-downloads/ -->\\n  <!-- Always force latest IE rendering engine\\n\\t   (even in intranet) & Chrome Frame\\n\\t   Remove this if you use the .htaccess -->\\n  <!--[if IE]>\\n    <meta http-equiv="X-UA-Compatible" content="IE=edge\', escape=False)\nresponse.write(not request.is_local and \',chrome=1\' or \'\')\nresponse.write(\'">\\n  <![endif]-->\\n  \\n  <title>\', escape=False)\nresponse.write(response.title or request.application)\nresponse.write(\'</title>\\n  \\n  <!-- http://dev.w3.org/html5/markup/meta.name.html -->\\n  <meta name="application-name" content="\', escape=False)\nresponse.write(request.application)\nresponse.write(\'" />\\n  \\n  <!-- Speaking of Google, don\\\'t forget to set your site up:\\n\\t   http://google.com/webmasters -->\\n  <meta name="google-site-verification" content="" />\\n\\n  <!--  Mobile Viewport Fix\\n\\t  j.mp/mobileviewport & davidbcalhoun.com/2010/viewport-metatag\\n\\t  device-width: Occupy full width of the screen in its current orientation\\n\\t  initial-scale = 1.0 retains dimensions instead of zooming out if page height > device height\\n\\t  user-scalable = yes allows the user to zoom in -->\\n  <meta name="viewport" content="width=device-width, initial-scale=1.0, user-scalable=yes">\\n  \\n  <!-- Place favicon.ico and apple-touch-icon.png in the root of your domain and delete these references -->\\n  <link rel="shortcut icon" href="\', escape=False)\nresponse.write(URL(\'static\',\'favicon.ico\'))\nresponse.write(\'" type="image/x-icon">\\n  <link rel="apple-touch-icon" href="\', escape=False)\nresponse.write(URL(\'static\',\'favicon.png\'))\nresponse.write(\'">\\n\\n  <!-- All JavaScript at the bottom, except for Modernizr which enables \\n\\t   HTML5 elements & feature detects -->\\n  <script src="\', escape=False)\nresponse.write(URL(\'static\',\'js/modernizr.custom.js\'))\nresponse.write(\'"></script>  \\n\\n  <!-- include stylesheets -->\\n  \', escape=False)\nresponse.files.append(URL(\'static\',\'css/bootstrap.css\'))\nresponse.files.append(URL(\'static\',\'js/bootstrap.js\'))\nresponse.files.append(URL(\'static\',\'js/jquery.tokeninput.js\'))\nresponse.files.append(URL(\'static\',\'css/parleyweb.css\'))\nresponse.files.append(URL(\'static\',\'css/jqtransform.css\'))\nresponse.files.append(URL(\'static\',\'js/parleyweb.js\'))\nresponse.files.append(URL(\'static\',\'js/jquery.jqtransform.js\'))\nresponse.write(\'\\n\\n  \', escape=False)\nresponse.write(\'<script type="text/javascript"><!--\\n    // These variables are used by the web2py_ajax_init function in web2py_ajax.js (which is loaded below).\\n    var w2p_ajax_confirm_message = "\', escape=False)\nresponse.write(T(\'Are you sure you want to delete this object?\'))\nresponse.write(\'";\\n    var w2p_ajax_date_format = "\', escape=False)\nresponse.write(T(\'%Y-%m-%d\'))\nresponse.write(\'";\\n    var w2p_ajax_datetime_format = "\', escape=False)\nresponse.write(T(\'%Y-%m-%d %H:%M:%S\'))\nresponse.write(\'";\\n    //--></script>\\n\', escape=False)\nresponse.files.insert(0,URL(\'static\',\'js/jquery.js\'))\nresponse.files.insert(1,URL(\'static\',\'css/calendar.css\'))\nresponse.files.insert(2,URL(\'static\',\'js/calendar.js\'))\nresponse.files.insert(3,URL(\'static\',\'js/web2py.js\'))\nresponse.include_meta()\nresponse.include_files()\nresponse.write(\'\\n\', escape=False)\nresponse.write(\'\\n\\n  \\n\\n  \', escape=False)\n# using sidebars need to know what sidebar you want to use\nleft_sidebar_enabled = globals().get(\'left_sidebar_enabled\',False)\nright_sidebar_enabled = globals().get(\'right_sidebar_enabled\',False)\nmiddle_columns = {0:\'sixteen\',1:\'twelve\',2:\'eight\'}[\n(left_sidebar_enabled and 1 or 0)+(right_sidebar_enabled and 1 or 0)]\nresponse.write(\'\\n\\n  <!-- uncomment here to load jquery-ui\\n  <link rel="stylesheet" href="http://ajax.googleapis.com/ajax/libs/jqueryui/1.8.16/themes/base/jquery-ui.css" type="text/css" media="all" />\\n  <script src="http://ajax.googleapis.com/ajax/libs/jqueryui/1.8.16/jquery-ui.min.js" type="text/javascript"></script>\\n  uncomment to load jquery-ui //-->\\n</head>\\n <body>\\n\\n    <div class="navbar navbar-fixed-top">\\n      <div class="navbar-inner">\\n        <div class="container-fluid">\\n          <a class="btn btn-navbar" data-toggle="collapse" data-target=".nav-collapse">\\n            <span class="icon-bar"></span>\\n            <span class="icon-bar"></span>\\n            <span class="icon-bar"></span>\\n          </a>\\n          <a class="brand" href=\', escape=False)\nresponse.write(URL(\'index\'))\nresponse.write(\'>Administracion</a>\\n          <div class="nav-collapse">\\n\\t    \', escape=False)\n#=MENU(response.menu, _class="nav active")\nresponse.write(\'\\n            <ul class="nav">\\n\\t      <li>\', escape=False)\nresponse.write(A(T(\'Parleyweb\'), _href=URL(\'default\',\'index\')))\nresponse.write(\'</li>\\n\\t      <!--<li class="dropdown" id="menu2">\\n\\t\\t<a class="dropdown-toggle" data-toggle="dropdown" href="web2py-utilidades"}}>\\n\\t\\t\', escape=False)\nresponse.write(T(\'Web2py utilidades\'))\nresponse.write(\'\\n\\t\\t<b class="caret"></b>\\n\\t\\t</a>\\n\\t\\t<ul class="dropdown-menu">\\n\\t\\t<li>\', escape=False)\nresponse.write(A(T(\'Sqlgrid palabra\'), _href=URL(\'admin\',\'agregar_palabra_grid\')))\nresponse.write(\'</li>\\n\\t\\t</ul>\\n\\t      </li> -->\\n            </ul> \\n\\t    \\n            <p class="navbar-text pull-right">\', escape=False)\nresponse.write(\'auth\' in globals() and auth.navbar(separators=(\' \',\' | \',\'\')))\nresponse.write(\'</p>\\n          </div><!--/.nav-collapse -->\\n        </div>\\n      </div>\\n    </div>\\n    <div class="flash alert alert-info"></i>\', escape=False)\nresponse.write(response.flash or \'\')\nresponse.write(\'</div>\\n    <div class="container-fluid">\\n      <div class="row-fluid">\\n\\t\\n        <div class="span3">\\n\\t  \\n          <div class="well sidebar-nav">\\n            <ul class="nav nav-list">\\n              <li class="nav-header">Agregar</li>\\n              <li>\', escape=False)\nresponse.write(A(T(\'Palabra\'), _href=URL(\'admin\',\'agregar_palabra\')))\nresponse.write(\'</li>\\n\\t      <li>\', escape=False)\nresponse.write(A(T(\'Ejemplo\'), _href=URL(\'admin\',\'agregar_ejemplo\')))\nresponse.write(\'</li>\\n\\t      <li>\', escape=False)\nresponse.write(A(T(\'Fuente\'), _href=URL(\'admin\',\'agregar_fuente\')))\nresponse.write(\'</li>\\n\\t      <li>\', escape=False)\nresponse.write(A(T(\'Glosario\'), _href=URL(\'admin\',\'agregar_glosario\')))\nresponse.write(\'</li>\\n\\t      \', escape=False)\nresponse.write(\'\\n\\t      \', escape=False)\nresponse.write(\'\\n              <li class="nav-header">Estadisticas</li>\\n\\t      \', escape=False)\nresponse.write(\'<!--INICIO bloque estadistica del menu -->             \\n        <table class="table table-striped table-bordered" id="estadisticas">\\n            <tbody>\\n                <tr>\\n                    <td><h4>Total ejemplos</h4></td>\\n                    <td class="text_center"><span class="label label-success estadisticas" >\', escape=False)\nresponse.write(contador)\nresponse.write(\'</span></td>\\n                </tr>\\n            </tbody>\\n          </table>\\n    \', escape=False)\nresponse.write(\'\\n    \\n            </ul>\\n          </div><!--/.well -->\\n\\t \\n        </div><!--/span-->\\n\\t\\n\\t \\n\\t\\n        <div class="span9">\\n\\t  \', escape=False)\nresponse.write(\'\\n\\t  \\n           \\n\\t   \', escape=False)\nresponse.write(\'\\n\\n    \', escape=False)\nresponse.write(\' <!-- FIN bloque estadistica del menu --> \\n                                        \\n    <div class="opciones"> \\n        <h3><i></i>Agregar Palabra</h3>\\n        <div class="wellparley"> <!--INICIO bloque formulario -->\\n            \', escape=False)\nresponse.write(agregar.custom.begin)\nresponse.write(\'\\n            <div class="formularios_admin">\\n                <div class="primer_hijo"><h4>Palabra:</h4>\', escape=False)\nresponse.write(agregar.custom.widget.palabra)\nresponse.write(\'</div>\\n                <div class="primer_hijo">\\n                    <div><h4>Sustantivo</h4>\', escape=False)\nresponse.write(agregar.custom.widget.sustantivo)\nresponse.write(\'</div>\\n                    <div><h4>Glosario</h4>\', escape=False)\nresponse.write(agregar.custom.widget.anadir_glosario)\nresponse.write(\'</div>\\n                    <div><h4>Verbo</h4>\', escape=False)\nresponse.write(agregar.custom.widget.verbo)\nresponse.write(\'</div>\\n                    <div><h4>Adverbio</h4>\', escape=False)\nresponse.write(agregar.custom.widget.adverbio)\nresponse.write(\'</div>\\n                    <div><h4>Adjetivo</h4>\', escape=False)\nresponse.write(agregar.custom.widget.adjetivo)\nresponse.write(\'</div>\\n                </div>\\n            </div>\\n            <div class="formularios_admin oculto segundo_hijo">\\n                <div><h4>Art\\xc3\\xadculo:</h4>\', escape=False)\nresponse.write(agregar.custom.widget.articulo)\nresponse.write(\'</div>\\n                <div><h4>Plural</h4>\', escape=False)\nresponse.write(agregar.custom.widget.plural)\nresponse.write(\'</div>\\n                <div><h4>Imagen</h4>\', escape=False)\nresponse.write(agregar.custom.widget.imagen)\nresponse.write(\'</div>\\n            </div>\\n            <div class="formularios_admin oculto2 segundo_hijo">\\n                <div class="bloque bloque1"> <!-- bloque para las propiedades del verbo -->\\n                    <div><h4>Participio II</h4>\', escape=False)\nresponse.write(agregar.custom.widget.participio2)\nresponse.write(\'</div>\\n                    <div><h4>Irregular</h4>\', escape=False)\nresponse.write(agregar.custom.widget.verbo_irregular)\nresponse.write(\'</div>\\n                    <div><h4>Reflexivo</h4>\', escape=False)\nresponse.write(agregar.custom.widget.reflexivo)\nresponse.write(\'</div>\\n                </div>\\n                <div class="bloque bloque2"> <!-- bloque para la conjugacion del verbo -->\\n                    <div><h4>Ich</h4>\', escape=False)\nresponse.write(agregar.custom.widget.presente_1)\nresponse.write(\'</div>\\n                    <div><h4>Du</h4>\', escape=False)\nresponse.write(agregar.custom.widget.presente_2)\nresponse.write(\'</div>\\n                    <div><h4>Er, sie, es</h4>\', escape=False)\nresponse.write(agregar.custom.widget.presente_3)\nresponse.write(\'</div>\\n                    <div><h4>Wir</h4>\', escape=False)\nresponse.write(agregar.custom.widget.presente_1_p)\nresponse.write(\'</div>\\n                    <div><h4>Ihr</h4>\', escape=False)\nresponse.write(agregar.custom.widget.presente_2_p)\nresponse.write(\'</div>\\n                    <div><h4>Sie</h4>\', escape=False)\nresponse.write(agregar.custom.widget.presente_3_p)\nresponse.write(\'</div>\\n                </div>\\n            </div>\\n             <div class="formularios_admin oculto3 segundo_hijo">\\n                <div><h4>Glosario:</h4>\', escape=False)\nresponse.write(agregar.custom.widget.glosario)\nresponse.write(\'</div>\\n            </div>\\n            <div class="formularios_admin">\\n                <div id="enviar_agregar">\', escape=False)\nresponse.write(agregar.custom.submit)\nresponse.write(\'</div>\\n            </div>\\n            \', escape=False)\nresponse.write(agregar.custom.end)\nresponse.write(\'\\n        </div>  <!--FIN bloque formulario -->\\n        \\n        <h3>Ultimas palabras</h3> <!--INICIO tabla ultimas palabras -->\\n        <div class="wellparley">  <!-- wellparley2 Inicio -->           \\n            <table class="table table-striped table-bordered" id="pa">\\n                <thead>\\n                    <tr>\\n                        <th>ID</th>\\n                        <th>Palabra</th>\\n                        <th>Opciones</th>\\n                        <th>Info</th>\\n                    </tr>\\n                </thead>\\n                <tbody>\\n                    \', escape=False)\nfor i in consulta:\n    response.write(\'\\n                    <tr>\\n                        <td><span class="label label-info">\', escape=False)\n    response.write(i.id)\n    response.write(\'</span></td>\\n                        <td><p>\', escape=False)\n    response.write(A(i.palabra), args=))\n    response.write(\'<p></td>\\n                        <td><a data-toggle="modal" href=\', escape=False)\n    response.write(URL(\'editar_palabra\', args=i.id))\n    response.write(\'><i class="icon-pencil"></i>Editar</a>\\n                        <a data-toggle="modal"  href=\', escape=False)\n    response.write(URL(\'borrar_palabra\', args=i.id))\n    response.write(\'><i class="icon-trash"></i>Borrar</a>\\n                        <a data-toggle="modal"  href=\', escape=False)\n    response.write(URL(\'relacionar_ejemplo\', args=i.id))\n    response.write(\'><i class="icon-plus-sign"></i>Relacionar ejemplo</a>\\n                        </td>\\n                        <td>\\n                        \', escape=False)\n    conta=0\n    response.write(\'    \\n                        \', escape=False)\n    for cont in contador_ejemplo:\n        response.write(\'\\n                            \', escape=False)\n        if cont.palabra==i.id:\n            response.write(\'\\n                                \', escape=False)\n            conta= conta +1\n            response.write(\'\\n                            \', escape=False)\n            pass\n        response.write(\' \\n                        \', escape=False)\n        pass\n    response.write(\'\\n                        <span class="label label-info"><b class="margen-derecho">\', escape=False)\n    response.write(conta)\n    response.write(\'</b>Ejemplos</span>\\n                        </td>\\n                    </tr>\\n                    \', escape=False)\n    pass\nresponse.write(\'\\n                </tbody>\\n            </table>\\n            \\n\', escape=False)\n#=response.toolbar()\nresponse.write("\\n        </div>  <!-- wellparley2 fin --> <!--FIN tabla ultimas palabras -->\\n    </div>      \\n \\n<!--Bloque de script JQUERY -->   \\n<script>\\njQuery(document).ready(function(){\\n   jQuery(\'.oculto\').hide();\\n        jQuery(\'#palabras_sustantivo\').change(function(){\\n             if(jQuery(\'#palabras_sustantivo\').attr(\'checked\'))\\n                 jQuery(\'.oculto\').show();\\n             else jQuery(\'.oculto\').hide();\\n          });\\n});\\n</script>\\n\\n<script>\\njQuery(document).ready(function(){\\n   jQuery(\'.oculto3\').hide();\\n        jQuery(\'#palabras_anadir_glosario\').change(function(){\\n             if(jQuery(\'#palabras_anadir_glosario\').attr(\'checked\'))\\n                 jQuery(\'.oculto3\').show();\\n             else jQuery(\'.oculto3\').hide();\\n          });\\n});\\n</script>\\n\\n<script>\\n\\njQuery(document).ready(function(){\\n   jQuery(\'.oculto2\').hide();\\n        jQuery(\'#palabras_verbo\').change(function(){\\n             if(jQuery(\'#palabras_verbo\').attr(\'checked\'))\\n                 jQuery(\'.oculto2\').show();\\n             else jQuery(\'.oculto2\').hide();\\n          });\\n});\\n</script>\\n\\n    \\n", escape=False)\nresponse.write(\'\\n\\t  \\n\\t  \\n\\t  \', escape=False)\nresponse.write(\'\\n        </div>\\n          \\n          \\n        </div><!--/span-->\\n      </div><!--/row-->\\n\\n      <hr>\\n\\n      <footer>\\n        <p>\\xc2\\xa9 Company 2012</p>\\n      </footer>\\n\\n    </div><!--/.fluid-container-->\\n    \\n    <!-- Le javascript\\n    ================================================== -->\\n    <!-- Placed at the end of the document so the pages load faster \\n    <script>\\n      $(function () {\\n      $(\\\'.tabs a:last\\\').tab(\\\'show\\\')\\n      })\\n    </script>-->\\n    <script>\\n      $(\\\'#borrar_palabra\\\').modal(\\\'show\\\')\\n    </script>\\n    <script>\\n      $(\\\'#editar_palabra\\\').modal(\\\'show\\\')\\n    </script>\\n    <script>\\n      $(\\\'#borrar_ejemplo\\\').modal(\\\'show\\\')\\n    </script>\\n    <script>\\n      $(\\\'#editar-ejemplo\\\').modal(\\\'show\\\')\\n    </script>\\n    <script>\\n      $(\\\'#borrar_fuente\\\').modal(\\\'show\\\')\\n    </script>\\n    <script>\\n      $(\\\'#editar-fuente\\\').modal(\\\'show\\\')\\n    </script>\\n    <script type="text/javascript">\\n      $(function() {\\n\\t  //find all form with class jqtransform and apply the plugin\\n\\t  $("form.jqtransform").jqTransform();\\n      });\\n</script>\\n    \\n\\n \\n\\n</body>\\n</html>\\n\', escape=False)'
p7
sS'snapshot'
p8
(dp9
S'exception'
p10
(dp11
S'__getslice__'
p12
S"<method-wrapper '__getslice__' of exceptions.SyntaxError object at 0x070923F0>"
p13
sS'text'
p14
S"'    response.write(A(i.palabra), args=))\\n'"
p15
sS'__str__'
p16
S"<method-wrapper '__str__' of exceptions.SyntaxError object at 0x070923F0>"
p17
sS'__reduce__'
p18
S'<built-in method __reduce__ of exceptions.SyntaxError object at 0x070923F0>'
p19
sS'__dict__'
p20
S'{}'
p21
sS'__init__'
p22
S"<method-wrapper '__init__' of exceptions.SyntaxError object at 0x070923F0>"
p23
sS'__setattr__'
p24
S"<method-wrapper '__setattr__' of exceptions.SyntaxError object at 0x070923F0>"
p25
sS'__reduce_ex__'
p26
S'<built-in method __reduce_ex__ of exceptions.SyntaxError object at 0x070923F0>'
p27
sS'__new__'
p28
S'<built-in method __new__ of type object at 0x1E1CDBD0>'
p29
sS'__class__'
p30
S"<type 'exceptions.SyntaxError'>"
p31
sS'filename'
p32
S"'D:\\\\Dise\\xf1o Web\\\\Proyectos\\\\Parleyweb\\\\web2py\\\\applications\\\\parleyweb\\\\views\\\\admin/agregar_palabra.html'"
p33
sS'lineno'
p34
S'132'
p35
sS'msg'
p36
S"'invalid syntax'"
p37
sS'__doc__'
p38
S"'Invalid syntax.'"
p39
sS'__getitem__'
p40
S"<method-wrapper '__getitem__' of exceptions.SyntaxError object at 0x070923F0>"
p41
sS'__setstate__'
p42
S'<built-in method __setstate__ of exceptions.SyntaxError object at 0x070923F0>'
p43
sS'__getattribute__'
p44
S"<method-wrapper '__getattribute__' of exceptions.SyntaxError object at 0x070923F0>"
p45
sS'print_file_and_line'
p46
S'None'
p47
sS'args'
p48
S"('invalid syntax', ('D:\\\\Dise\\xf1o Web\\\\Proyectos\\\\Parleyweb\\\\web2py\\\\applications\\\\parleyweb\\\\views\\\\admin/agregar_palabra.html', 132, 39, '    response.write(A(i.palabra), args=))\\n'))"
p49
sS'offset'
p50
S'39'
p51
sS'__delattr__'
p52
S"<method-wrapper '__delattr__' of exceptions.SyntaxError object at 0x070923F0>"
p53
sS'__repr__'
p54
S"<method-wrapper '__repr__' of exceptions.SyntaxError object at 0x070923F0>"
p55
sS'__hash__'
p56
S"<method-wrapper '__hash__' of exceptions.SyntaxError object at 0x070923F0>"
p57
ssS'evalue'
p58
S'invalid syntax (admin/agregar_palabra.html, line 132)'
p59
sS'request'
p60
ccopy_reg
_reconstructor
p61
(cgluon.html
BEAUTIFY
p62
c__builtin__
object
p63
NtRp64
(dp65
S'attributes'
p66
(dp67
sS'components'
p68
(lp69
g61
(cgluon.html
TABLE
p70
g63
NtRp71
(dp72
g66
(dp73
S'level'
p74
I5
ssS'parent'
p75
Nsg68
(lp76
g61
(cgluon.html
TR
p77
g63
NtRp78
(dp79
g66
(dp80
sg75
g71
sg68
(lp81
g61
(cgluon.html
TD
p82
g63
NtRp83
(dp84
g66
(dp85
S'_style'
p86
S'font-weight:bold;vertical-align:top'
p87
ssg75
g78
sg68
(lp88
S'ajax'
p89
asbag61
(g82
g63
NtRp90
(dp91
g66
(dp92
S'_valign'
p93
S'top'
p94
ssg75
g78
sg68
(lp95
S':'
asbag61
(g82
g63
NtRp96
(dp97
g66
(dp98
sg75
g78
sg68
(lp99
g61
(g62
g63
NtRp100
(dp101
g66
(dp102
g74
I5
ssg75
g96
sg68
(lp103
S'False'
p104
asbasbasbag61
(g77
g63
NtRp105
(dp106
g66
(dp107
sg75
g71
sg68
(lp108
g61
(g82
g63
NtRp109
(dp110
g66
(dp111
g86
g87
ssg75
g105
sg68
(lp112
S'application'
p113
asbag61
(g82
g63
NtRp114
(dp115
g66
(dp116
g93
g94
ssg75
g105
sg68
(lp117
S':'
asbag61
(g82
g63
NtRp118
(dp119
g66
(dp120
sg75
g105
sg68
(lp121
g61
(g62
g63
NtRp122
(dp123
g66
(dp124
g74
I5
ssg75
g118
sg68
(lp125
S'parleyweb'
p126
asbasbasbag61
(g77
g63
NtRp127
(dp128
g66
(dp129
sg75
g71
sg68
(lp130
g61
(g82
g63
NtRp131
(dp132
g66
(dp133
g86
g87
ssg75
g127
sg68
(lp134
g48
asbag61
(g82
g63
NtRp135
(dp136
g66
(dp137
g93
g94
ssg75
g127
sg68
(lp138
S':'
asbag61
(g82
g63
NtRp139
(dp140
g66
(dp141
sg75
g127
sg68
(lp142
g61
(g62
g63
NtRp143
(dp144
g66
(dp145
g74
I5
ssg75
g139
sg68
(lp146
g61
(g70
g63
NtRp147
(dp148
g66
(dp149
g74
I4
ssg75
Nsg68
(lp150
sbasbasbasbag61
(g77
g63
NtRp151
(dp152
g66
(dp153
sg75
g71
sg68
(lp154
g61
(g82
g63
NtRp155
(dp156
g66
(dp157
g86
g87
ssg75
g151
sg68
(lp158
S'body'
p159
asbag61
(g82
g63
NtRp160
(dp161
g66
(dp162
g93
g94
ssg75
g151
sg68
(lp163
S':'
asbag61
(g82
g63
NtRp164
(dp165
g66
(dp166
sg75
g151
sg68
(lp167
g61
(g62
g63
NtRp168
(dp169
g66
(dp170
g74
I5
ssg75
g164
sg68
(lp171
S'<cStringIO.StringO object at 0x070CAB00>'
p172
asbasbasbag61
(g77
g63
NtRp173
(dp174
g66
(dp175
sg75
g71
sg68
(lp176
g61
(g82
g63
NtRp177
(dp178
g66
(dp179
g86
g87
ssg75
g173
sg68
(lp180
S'client'
p181
asbag61
(g82
g63
NtRp182
(dp183
g66
(dp184
g93
g94
ssg75
g173
sg68
(lp185
S':'
asbag61
(g82
g63
NtRp186
(dp187
g66
(dp188
sg75
g173
sg68
(lp189
g61
(g62
g63
NtRp190
(dp191
g66
(dp192
g74
I5
ssg75
g186
sg68
(lp193
S'127.0.0.1'
p194
asbasbasbag61
(g77
g63
NtRp195
(dp196
g66
(dp197
sg75
g71
sg68
(lp198
g61
(g82
g63
NtRp199
(dp200
g66
(dp201
g86
g87
ssg75
g195
sg68
(lp202
S'controller'
p203
asbag61
(g82
g63
NtRp204
(dp205
g66
(dp206
g93
g94
ssg75
g195
sg68
(lp207
S':'
asbag61
(g82
g63
NtRp208
(dp209
g66
(dp210
sg75
g195
sg68
(lp211
g61
(g62
g63
NtRp212
(dp213
g66
(dp214
g74
I5
ssg75
g208
sg68
(lp215
S'admin'
p216
asbasbasbag61
(g77
g63
NtRp217
(dp218
g66
(dp219
sg75
g71
sg68
(lp220
g61
(g82
g63
NtRp221
(dp222
g66
(dp223
g86
g87
ssg75
g217
sg68
(lp224
S'cookies'
p225
asbag61
(g82
g63
NtRp226
(dp227
g66
(dp228
g93
g94
ssg75
g217
sg68
(lp229
S':'
asbag61
(g82
g63
NtRp230
(dp231
g66
(dp232
sg75
g217
sg68
(lp233
g61
(g62
g63
NtRp234
(dp235
g66
(dp236
g74
I5
ssg75
g230
sg68
(lp237
g61
(g70
g63
NtRp238
(dp239
g66
(dp240
g74
I4
ssg75
Nsg68
(lp241
g61
(g77
g63
NtRp242
(dp243
g66
(dp244
sg75
g238
sg68
(lp245
g61
(g82
g63
NtRp246
(dp247
g66
(dp248
g86
g87
ssg75
g242
sg68
(lp249
S'session_id_klaas'
p250
asbag61
(g82
g63
NtRp251
(dp252
g66
(dp253
g93
g94
ssg75
g242
sg68
(lp254
S':'
asbag61
(g82
g63
NtRp255
(dp256
g66
(dp257
sg75
g242
sg68
(lp258
g61
(g62
g63
NtRp259
(dp260
g66
(dp261
g74
I4
ssg75
g255
sg68
(lp262
g61
(g70
g63
NtRp263
(dp264
g66
(dp265
g74
I3
ssg75
Nsg68
(lp266
g61
(g77
g63
NtRp267
(dp268
g66
(dp269
sg75
g263
sg68
(lp270
g61
(g82
g63
NtRp271
(dp272
g66
(dp273
g86
g87
ssg75
g267
sg68
(lp274
S'comment'
p275
asbag61
(g82
g63
NtRp276
(dp277
g66
(dp278
g93
g94
ssg75
g267
sg68
(lp279
S':'
asbag61
(g82
g63
NtRp280
(dp281
g66
(dp282
sg75
g267
sg68
(lp283
g61
(g62
g63
NtRp284
(dp285
g66
(dp286
g74
I3
ssg75
g280
sg68
(lp287
S''
asbasbasbag61
(g77
g63
NtRp288
(dp289
g66
(dp290
sg75
g263
sg68
(lp291
g61
(g82
g63
NtRp292
(dp293
g66
(dp294
g86
g87
ssg75
g288
sg68
(lp295
S'domain'
p296
asbag61
(g82
g63
NtRp297
(dp298
g66
(dp299
g93
g94
ssg75
g288
sg68
(lp300
S':'
asbag61
(g82
g63
NtRp301
(dp302
g66
(dp303
sg75
g288
sg68
(lp304
g61
(g62
g63
NtRp305
(dp306
g66
(dp307
g74
I3
ssg75
g301
sg68
(lp308
S''
asbasbasbag61
(g77
g63
NtRp309
(dp310
g66
(dp311
sg75
g263
sg68
(lp312
g61
(g82
g63
NtRp313
(dp314
g66
(dp315
g86
g87
ssg75
g309
sg68
(lp316
S'expires'
p317
asbag61
(g82
g63
NtRp318
(dp319
g66
(dp320
g93
g94
ssg75
g309
sg68
(lp321
S':'
asbag61
(g82
g63
NtRp322
(dp323
g66
(dp324
sg75
g309
sg68
(lp325
g61
(g62
g63
NtRp326
(dp327
g66
(dp328
g74
I3
ssg75
g322
sg68
(lp329
S''
asbasbasbag61
(g77
g63
NtRp330
(dp331
g66
(dp332
sg75
g263
sg68
(lp333
g61
(g82
g63
NtRp334
(dp335
g66
(dp336
g86
g87
ssg75
g330
sg68
(lp337
S'max-age'
p338
asbag61
(g82
g63
NtRp339
(dp340
g66
(dp341
g93
g94
ssg75
g330
sg68
(lp342
S':'
asbag61
(g82
g63
NtRp343
(dp344
g66
(dp345
sg75
g330
sg68
(lp346
g61
(g62
g63
NtRp347
(dp348
g66
(dp349
g74
I3
ssg75
g343
sg68
(lp350
S''
asbasbasbag61
(g77
g63
NtRp351
(dp352
g66
(dp353
sg75
g263
sg68
(lp354
g61
(g82
g63
NtRp355
(dp356
g66
(dp357
g86
g87
ssg75
g351
sg68
(lp358
S'path'
p359
asbag61
(g82
g63
NtRp360
(dp361
g66
(dp362
g93
g94
ssg75
g351
sg68
(lp363
S':'
asbag61
(g82
g63
NtRp364
(dp365
g66
(dp366
sg75
g351
sg68
(lp367
g61
(g62
g63
NtRp368
(dp369
g66
(dp370
g74
I3
ssg75
g364
sg68
(lp371
S''
asbasbasbag61
(g77
g63
NtRp372
(dp373
g66
(dp374
sg75
g263
sg68
(lp375
g61
(g82
g63
NtRp376
(dp377
g66
(dp378
g86
g87
ssg75
g372
sg68
(lp379
S'secure'
p380
asbag61
(g82
g63
NtRp381
(dp382
g66
(dp383
g93
g94
ssg75
g372
sg68
(lp384
S':'
asbag61
(g82
g63
NtRp385
(dp386
g66
(dp387
sg75
g372
sg68
(lp388
g61
(g62
g63
NtRp389
(dp390
g66
(dp391
g74
I3
ssg75
g385
sg68
(lp392
S''
asbasbasbag61
(g77
g63
NtRp393
(dp394
g66
(dp395
sg75
g263
sg68
(lp396
g61
(g82
g63
NtRp397
(dp398
g66
(dp399
g86
g87
ssg75
g393
sg68
(lp400
S'version'
p401
asbag61
(g82
g63
NtRp402
(dp403
g66
(dp404
g93
g94
ssg75
g393
sg68
(lp405
S':'
asbag61
(g82
g63
NtRp406
(dp407
g66
(dp408
sg75
g393
sg68
(lp409
g61
(g62
g63
NtRp410
(dp411
g66
(dp412
g74
I3
ssg75
g406
sg68
(lp413
S''
asbasbasbasbasbasbasbag61
(g77
g63
NtRp414
(dp415
g66
(dp416
sg75
g238
sg68
(lp417
g61
(g82
g63
NtRp418
(dp419
g66
(dp420
g86
g87
ssg75
g414
sg68
(lp421
S'session_id_parleyweb'
p422
asbag61
(g82
g63
NtRp423
(dp424
g66
(dp425
g93
g94
ssg75
g414
sg68
(lp426
S':'
asbag61
(g82
g63
NtRp427
(dp428
g66
(dp429
sg75
g414
sg68
(lp430
g61
(g62
g63
NtRp431
(dp432
g66
(dp433
g74
I4
ssg75
g427
sg68
(lp434
g61
(g70
g63
NtRp435
(dp436
g66
(dp437
g74
I3
ssg75
Nsg68
(lp438
g61
(g77
g63
NtRp439
(dp440
g66
(dp441
sg75
g435
sg68
(lp442
g61
(g82
g63
NtRp443
(dp444
g66
(dp445
g86
g87
ssg75
g439
sg68
(lp446
g275
asbag61
(g82
g63
NtRp447
(dp448
g66
(dp449
g93
g94
ssg75
g439
sg68
(lp450
S':'
asbag61
(g82
g63
NtRp451
(dp452
g66
(dp453
sg75
g439
sg68
(lp454
g61
(g62
g63
NtRp455
(dp456
g66
(dp457
g74
I3
ssg75
g451
sg68
(lp458
S''
asbasbasbag61
(g77
g63
NtRp459
(dp460
g66
(dp461
sg75
g435
sg68
(lp462
g61
(g82
g63
NtRp463
(dp464
g66
(dp465
g86
g87
ssg75
g459
sg68
(lp466
g296
asbag61
(g82
g63
NtRp467
(dp468
g66
(dp469
g93
g94
ssg75
g459
sg68
(lp470
S':'
asbag61
(g82
g63
NtRp471
(dp472
g66
(dp473
sg75
g459
sg68
(lp474
g61
(g62
g63
NtRp475
(dp476
g66
(dp477
g74
I3
ssg75
g471
sg68
(lp478
S''
asbasbasbag61
(g77
g63
NtRp479
(dp480
g66
(dp481
sg75
g435
sg68
(lp482
g61
(g82
g63
NtRp483
(dp484
g66
(dp485
g86
g87
ssg75
g479
sg68
(lp486
g317
asbag61
(g82
g63
NtRp487
(dp488
g66
(dp489
g93
g94
ssg75
g479
sg68
(lp490
S':'
asbag61
(g82
g63
NtRp491
(dp492
g66
(dp493
sg75
g479
sg68
(lp494
g61
(g62
g63
NtRp495
(dp496
g66
(dp497
g74
I3
ssg75
g491
sg68
(lp498
S''
asbasbasbag61
(g77
g63
NtRp499
(dp500
g66
(dp501
sg75
g435
sg68
(lp502
g61
(g82
g63
NtRp503
(dp504
g66
(dp505
g86
g87
ssg75
g499
sg68
(lp506
g338
asbag61
(g82
g63
NtRp507
(dp508
g66
(dp509
g93
g94
ssg75
g499
sg68
(lp510
S':'
asbag61
(g82
g63
NtRp511
(dp512
g66
(dp513
sg75
g499
sg68
(lp514
g61
(g62
g63
NtRp515
(dp516
g66
(dp517
g74
I3
ssg75
g511
sg68
(lp518
S''
asbasbasbag61
(g77
g63
NtRp519
(dp520
g66
(dp521
sg75
g435
sg68
(lp522
g61
(g82
g63
NtRp523
(dp524
g66
(dp525
g86
g87
ssg75
g519
sg68
(lp526
g359
asbag61
(g82
g63
NtRp527
(dp528
g66
(dp529
g93
g94
ssg75
g519
sg68
(lp530
S':'
asbag61
(g82
g63
NtRp531
(dp532
g66
(dp533
sg75
g519
sg68
(lp534
g61
(g62
g63
NtRp535
(dp536
g66
(dp537
g74
I3
ssg75
g531
sg68
(lp538
S''
asbasbasbag61
(g77
g63
NtRp539
(dp540
g66
(dp541
sg75
g435
sg68
(lp542
g61
(g82
g63
NtRp543
(dp544
g66
(dp545
g86
g87
ssg75
g539
sg68
(lp546
g380
asbag61
(g82
g63
NtRp547
(dp548
g66
(dp549
g93
g94
ssg75
g539
sg68
(lp550
S':'
asbag61
(g82
g63
NtRp551
(dp552
g66
(dp553
sg75
g539
sg68
(lp554
g61
(g62
g63
NtRp555
(dp556
g66
(dp557
g74
I3
ssg75
g551
sg68
(lp558
S''
asbasbasbag61
(g77
g63
NtRp559
(dp560
g66
(dp561
sg75
g435
sg68
(lp562
g61
(g82
g63
NtRp563
(dp564
g66
(dp565
g86
g87
ssg75
g559
sg68
(lp566
g401
asbag61
(g82
g63
NtRp567
(dp568
g66
(dp569
g93
g94
ssg75
g559
sg68
(lp570
S':'
asbag61
(g82
g63
NtRp571
(dp572
g66
(dp573
sg75
g559
sg68
(lp574
g61
(g62
g63
NtRp575
(dp576
g66
(dp577
g74
I3
ssg75
g571
sg68
(lp578
S''
asbasbasbasbasbasbasbasbasbasbasbag61
(g77
g63
NtRp579
(dp580
g66
(dp581
sg75
g71
sg68
(lp582
g61
(g82
g63
NtRp583
(dp584
g66
(dp585
g86
g87
ssg75
g579
sg68
(lp586
S'env'
p587
asbag61
(g82
g63
NtRp588
(dp589
g66
(dp590
g93
g94
ssg75
g579
sg68
(lp591
S':'
asbag61
(g82
g63
NtRp592
(dp593
g66
(dp594
sg75
g579
sg68
(lp595
g61
(g62
g63
NtRp596
(dp597
g66
(dp598
g74
I5
ssg75
g592
sg68
(lp599
g61
(g70
g63
NtRp600
(dp601
g66
(dp602
g74
I4
ssg75
Nsg68
(lp603
g61
(g77
g63
NtRp604
(dp605
g66
(dp606
sg75
g600
sg68
(lp607
g61
(g82
g63
NtRp608
(dp609
g66
(dp610
g86
g87
ssg75
g604
sg68
(lp611
S'app_folders'
p612
asbag61
(g82
g63
NtRp613
(dp614
g66
(dp615
g93
g94
ssg75
g604
sg68
(lp616
S':'
asbag61
(g82
g63
NtRp617
(dp618
g66
(dp619
sg75
g604
sg68
(lp620
g61
(g62
g63
NtRp621
(dp622
g66
(dp623
g74
I4
ssg75
g617
sg68
(lp624
S"set(['D:\\\\Dise\\xf1o Web\\\\Proyectos\\\\Parleyweb\\\\web2py\\\\applications\\\\admin\\\\', 'D:\\\\Dise\\xf1o Web\\\\Proyectos\\\\Parleyweb\\\\web2py\\\\applications\\\\welcome\\\\', 'D:\\\\Dise\\xf1o Web\\\\Proyectos\\\\Parleyweb\\\\web2py\\\\applications\\\\parleyweb\\\\'])"
p625
asbasbasbag61
(g77
g63
NtRp626
(dp627
g66
(dp628
sg75
g600
sg68
(lp629
g61
(g82
g63
NtRp630
(dp631
g66
(dp632
g86
g87
ssg75
g626
sg68
(lp633
S'applications_parent'
p634
asbag61
(g82
g63
NtRp635
(dp636
g66
(dp637
g93
g94
ssg75
g626
sg68
(lp638
S':'
asbag61
(g82
g63
NtRp639
(dp640
g66
(dp641
sg75
g626
sg68
(lp642
g61
(g62
g63
NtRp643
(dp644
g66
(dp645
g74
I4
ssg75
g639
sg68
(lp646
S'D:\\Dise\xf1o Web\\Proyectos\\Parleyweb\\web2py'
p647
asbasbasbag61
(g77
g63
NtRp648
(dp649
g66
(dp650
sg75
g600
sg68
(lp651
g61
(g82
g63
NtRp652
(dp653
g66
(dp654
g86
g87
ssg75
g648
sg68
(lp655
S'cmd_args'
p656
asbag61
(g82
g63
NtRp657
(dp658
g66
(dp659
g93
g94
ssg75
g648
sg68
(lp660
S':'
asbag61
(g82
g63
NtRp661
(dp662
g66
(dp663
sg75
g648
sg68
(lp664
g61
(g62
g63
NtRp665
(dp666
g66
(dp667
g74
I4
ssg75
g661
sg68
(lp668
g61
(g70
g63
NtRp669
(dp670
g66
(dp671
g74
I3
ssg75
Nsg68
(lp672
sbasbasbasbag61
(g77
g63
NtRp673
(dp674
g66
(dp675
sg75
g600
sg68
(lp676
g61
(g82
g63
NtRp677
(dp678
g66
(dp679
g86
g87
ssg75
g673
sg68
(lp680
S'cmd_options'
p681
asbag61
(g82
g63
NtRp682
(dp683
g66
(dp684
g93
g94
ssg75
g673
sg68
(lp685
S':'
asbag61
(g82
g63
NtRp686
(dp687
g66
(dp688
sg75
g673
sg68
(lp689
g61
(g62
g63
NtRp690
(dp691
g66
(dp692
g74
I4
ssg75
g686
sg68
(lp693
S"<Values at 0x311ff30: {'verbose': False, 'ip': '127.0.0.1', 'shutdown_timeout': 5, 'taskbar': False, 'nocron': False, 'pid_filename': 'httpserver.pid', 'maxthreads': None, 'softcron': False, 'server_name': 'craxsnet-PC', 'bpython': False, 'nogui': False, 'port': 8000, 'extcron': False, 'debuglevel': 30, 'test': None, 'folder': 'D:\\\\Dise\\xf1o Web\\\\Proyectos\\\\Parleyweb\\\\web2py', 'config': '', 'import_models': False, 'winservice': '', 'shell': None, 'run': '', 'log_filename': 'httpserver.log', 'args': [''], 'socket_timeout': 5, 'ssl_ca_certificate': None, 'scheduler': None, 'profiler_filename': None, 'ssl_private_key': '', 'password': '<ask>', 'request_queue_size': 5, 'ssl_certificate': '', 'cronjob': False, 'numthreads': None, 'quiet': False, 'interfaces': None, 'minthreads': None, 'timeout': 10, 'plain': False, 'nobanner': False}>"
p694
asbasbasbag61
(g77
g63
NtRp695
(dp696
g66
(dp697
sg75
g600
sg68
(lp698
g61
(g82
g63
NtRp699
(dp700
g66
(dp701
g86
g87
ssg75
g695
sg68
(lp702
S'db_sessions'
p703
asbag61
(g82
g63
NtRp704
(dp705
g66
(dp706
g93
g94
ssg75
g695
sg68
(lp707
S':'
asbag61
(g82
g63
NtRp708
(dp709
g66
(dp710
sg75
g695
sg68
(lp711
g61
(g62
g63
NtRp712
(dp713
g66
(dp714
g74
I4
ssg75
g708
sg68
(lp715
S'set([])'
p716
asbasbasbag61
(g77
g63
NtRp717
(dp718
g66
(dp719
sg75
g600
sg68
(lp720
g61
(g82
g63
NtRp721
(dp722
g66
(dp723
g86
g87
ssg75
g717
sg68
(lp724
S'debugging'
p725
asbag61
(g82
g63
NtRp726
(dp727
g66
(dp728
g93
g94
ssg75
g717
sg68
(lp729
S':'
asbag61
(g82
g63
NtRp730
(dp731
g66
(dp732
sg75
g717
sg68
(lp733
g61
(g62
g63
NtRp734
(dp735
g66
(dp736
g74
I4
ssg75
g730
sg68
(lp737
g104
asbasbasbag61
(g77
g63
NtRp738
(dp739
g66
(dp740
sg75
g600
sg68
(lp741
g61
(g82
g63
NtRp742
(dp743
g66
(dp744
g86
g87
ssg75
g738
sg68
(lp745
S'gluon_parent'
p746
asbag61
(g82
g63
NtRp747
(dp748
g66
(dp749
g93
g94
ssg75
g738
sg68
(lp750
S':'
asbag61
(g82
g63
NtRp751
(dp752
g66
(dp753
sg75
g738
sg68
(lp754
g61
(g62
g63
NtRp755
(dp756
g66
(dp757
g74
I4
ssg75
g751
sg68
(lp758
S'D:\\Dise\xf1o Web\\Proyectos\\Parleyweb\\web2py'
p759
asbasbasbag61
(g77
g63
NtRp760
(dp761
g66
(dp762
sg75
g600
sg68
(lp763
g61
(g82
g63
NtRp764
(dp765
g66
(dp766
g86
g87
ssg75
g760
sg68
(lp767
S'http_accept'
p768
asbag61
(g82
g63
NtRp769
(dp770
g66
(dp771
g93
g94
ssg75
g760
sg68
(lp772
S':'
asbag61
(g82
g63
NtRp773
(dp774
g66
(dp775
sg75
g760
sg68
(lp776
g61
(g62
g63
NtRp777
(dp778
g66
(dp779
g74
I4
ssg75
g773
sg68
(lp780
S'text/html,application/xhtml+xml,application/xml;q=0.9,*/*;q=0.8'
p781
asbasbasbag61
(g77
g63
NtRp782
(dp783
g66
(dp784
sg75
g600
sg68
(lp785
g61
(g82
g63
NtRp786
(dp787
g66
(dp788
g86
g87
ssg75
g782
sg68
(lp789
S'http_accept_encoding'
p790
asbag61
(g82
g63
NtRp791
(dp792
g66
(dp793
g93
g94
ssg75
g782
sg68
(lp794
S':'
asbag61
(g82
g63
NtRp795
(dp796
g66
(dp797
sg75
g782
sg68
(lp798
g61
(g62
g63
NtRp799
(dp800
g66
(dp801
g74
I4
ssg75
g795
sg68
(lp802
S'gzip, deflate'
p803
asbasbasbag61
(g77
g63
NtRp804
(dp805
g66
(dp806
sg75
g600
sg68
(lp807
g61
(g82
g63
NtRp808
(dp809
g66
(dp810
g86
g87
ssg75
g804
sg68
(lp811
S'http_accept_language'
p812
asbag61
(g82
g63
NtRp813
(dp814
g66
(dp815
g93
g94
ssg75
g804
sg68
(lp816
S':'
asbag61
(g82
g63
NtRp817
(dp818
g66
(dp819
sg75
g804
sg68
(lp820
g61
(g62
g63
NtRp821
(dp822
g66
(dp823
g74
I4
ssg75
g817
sg68
(lp824
S'es-es,de-de;q=0.8,es;q=0.6,en-us;q=0.4,en;q=0.2'
p825
asbasbasbag61
(g77
g63
NtRp826
(dp827
g66
(dp828
sg75
g600
sg68
(lp829
g61
(g82
g63
NtRp830
(dp831
g66
(dp832
g86
g87
ssg75
g826
sg68
(lp833
S'http_cache_control'
p834
asbag61
(g82
g63
NtRp835
(dp836
g66
(dp837
g93
g94
ssg75
g826
sg68
(lp838
S':'
asbag61
(g82
g63
NtRp839
(dp840
g66
(dp841
sg75
g826
sg68
(lp842
g61
(g62
g63
NtRp843
(dp844
g66
(dp845
g74
I4
ssg75
g839
sg68
(lp846
S'max-age=0'
p847
asbasbasbag61
(g77
g63
NtRp848
(dp849
g66
(dp850
sg75
g600
sg68
(lp851
g61
(g82
g63
NtRp852
(dp853
g66
(dp854
g86
g87
ssg75
g848
sg68
(lp855
S'http_connection'
p856
asbag61
(g82
g63
NtRp857
(dp858
g66
(dp859
g93
g94
ssg75
g848
sg68
(lp860
S':'
asbag61
(g82
g63
NtRp861
(dp862
g66
(dp863
sg75
g848
sg68
(lp864
g61
(g62
g63
NtRp865
(dp866
g66
(dp867
g74
I4
ssg75
g861
sg68
(lp868
S'keep-alive'
p869
asbasbasbag61
(g77
g63
NtRp870
(dp871
g66
(dp872
sg75
g600
sg68
(lp873
g61
(g82
g63
NtRp874
(dp875
g66
(dp876
g86
g87
ssg75
g870
sg68
(lp877
S'http_cookie'
p878
asbag61
(g82
g63
NtRp879
(dp880
g66
(dp881
g93
g94
ssg75
g870
sg68
(lp882
S':'
asbag61
(g82
g63
NtRp883
(dp884
g66
(dp885
sg75
g870
sg68
(lp886
g61
(g62
g63
NtRp887
(dp888
g66
(dp889
g74
I4
ssg75
g883
sg68
(lp890
S'__utma=96992031.26429765.1325029743.1325029743.1326549329.2; __utmz=96992031.1325029743.1.1.utmcsr=(direct)|utmccn=(direct)|utmcmd=(none); session_id_klaas=127.0.0.1-22979940-8cc3-49bc-9f44-0623615d817e; session_id_parleyweb=127.0.0.1-4ad37d94-4a84-49cf-9f5c-a27f320cc3b3'
p891
asbasbasbag61
(g77
g63
NtRp892
(dp893
g66
(dp894
sg75
g600
sg68
(lp895
g61
(g82
g63
NtRp896
(dp897
g66
(dp898
g86
g87
ssg75
g892
sg68
(lp899
S'http_host'
p900
asbag61
(g82
g63
NtRp901
(dp902
g66
(dp903
g93
g94
ssg75
g892
sg68
(lp904
S':'
asbag61
(g82
g63
NtRp905
(dp906
g66
(dp907
sg75
g892
sg68
(lp908
g61
(g62
g63
NtRp909
(dp910
g66
(dp911
g74
I4
ssg75
g905
sg68
(lp912
S'127.0.0.1:8000'
p913
asbasbasbag61
(g77
g63
NtRp914
(dp915
g66
(dp916
sg75
g600
sg68
(lp917
g61
(g82
g63
NtRp918
(dp919
g66
(dp920
g86
g87
ssg75
g914
sg68
(lp921
S'http_referer'
p922
asbag61
(g82
g63
NtRp923
(dp924
g66
(dp925
g93
g94
ssg75
g914
sg68
(lp926
S':'
asbag61
(g82
g63
NtRp927
(dp928
g66
(dp929
sg75
g914
sg68
(lp930
g61
(g62
g63
NtRp931
(dp932
g66
(dp933
g74
I4
ssg75
g927
sg68
(lp934
S'http://127.0.0.1:8000/parleyweb/admin/editar_palabra/82'
p935
asbasbasbag61
(g77
g63
NtRp936
(dp937
g66
(dp938
sg75
g600
sg68
(lp939
g61
(g82
g63
NtRp940
(dp941
g66
(dp942
g86
g87
ssg75
g936
sg68
(lp943
S'http_user_agent'
p944
asbag61
(g82
g63
NtRp945
(dp946
g66
(dp947
g93
g94
ssg75
g936
sg68
(lp948
S':'
asbag61
(g82
g63
NtRp949
(dp950
g66
(dp951
sg75
g936
sg68
(lp952
g61
(g62
g63
NtRp953
(dp954
g66
(dp955
g74
I4
ssg75
g949
sg68
(lp956
S'Mozilla/5.0 (Windows NT 6.1; WOW64; rv:10.0.2) Gecko/20100101 Firefox/10.0.2'
p957
asbasbasbag61
(g77
g63
NtRp958
(dp959
g66
(dp960
sg75
g600
sg68
(lp961
g61
(g82
g63
NtRp962
(dp963
g66
(dp964
g86
g87
ssg75
g958
sg68
(lp965
S'is_jython'
p966
asbag61
(g82
g63
NtRp967
(dp968
g66
(dp969
g93
g94
ssg75
g958
sg68
(lp970
S':'
asbag61
(g82
g63
NtRp971
(dp972
g66
(dp973
sg75
g958
sg68
(lp974
g61
(g62
g63
NtRp975
(dp976
g66
(dp977
g74
I4
ssg75
g971
sg68
(lp978
g104
asbasbasbag61
(g77
g63
NtRp979
(dp980
g66
(dp981
sg75
g600
sg68
(lp982
g61
(g82
g63
NtRp983
(dp984
g66
(dp985
g86
g87
ssg75
g979
sg68
(lp986
S'is_pypy'
p987
asbag61
(g82
g63
NtRp988
(dp989
g66
(dp990
g93
g94
ssg75
g979
sg68
(lp991
S':'
asbag61
(g82
g63
NtRp992
(dp993
g66
(dp994
sg75
g979
sg68
(lp995
g61
(g62
g63
NtRp996
(dp997
g66
(dp998
g74
I4
ssg75
g992
sg68
(lp999
g104
asbasbasbag61
(g77
g63
NtRp1000
(dp1001
g66
(dp1002
sg75
g600
sg68
(lp1003
g61
(g82
g63
NtRp1004
(dp1005
g66
(dp1006
g86
g87
ssg75
g1000
sg68
(lp1007
S'path_info'
p1008
asbag61
(g82
g63
NtRp1009
(dp1010
g66
(dp1011
g93
g94
ssg75
g1000
sg68
(lp1012
S':'
asbag61
(g82
g63
NtRp1013
(dp1014
g66
(dp1015
sg75
g1000
sg68
(lp1016
g61
(g62
g63
NtRp1017
(dp1018
g66
(dp1019
g74
I4
ssg75
g1013
sg68
(lp1020
S'/parleyweb/admin/agregar_palabra'
p1021
asbasbasbag61
(g77
g63
NtRp1022
(dp1023
g66
(dp1024
sg75
g600
sg68
(lp1025
g61
(g82
g63
NtRp1026
(dp1027
g66
(dp1028
g86
g87
ssg75
g1022
sg68
(lp1029
S'query_string'
p1030
asbag61
(g82
g63
NtRp1031
(dp1032
g66
(dp1033
g93
g94
ssg75
g1022
sg68
(lp1034
S':'
asbag61
(g82
g63
NtRp1035
(dp1036
g66
(dp1037
sg75
g1022
sg68
(lp1038
g61
(g62
g63
NtRp1039
(dp1040
g66
(dp1041
g74
I4
ssg75
g1035
sg68
(lp1042
S''
asbasbasbag61
(g77
g63
NtRp1043
(dp1044
g66
(dp1045
sg75
g600
sg68
(lp1046
g61
(g82
g63
NtRp1047
(dp1048
g66
(dp1049
g86
g87
ssg75
g1043
sg68
(lp1050
S'remote_addr'
p1051
asbag61
(g82
g63
NtRp1052
(dp1053
g66
(dp1054
g93
g94
ssg75
g1043
sg68
(lp1055
S':'
asbag61
(g82
g63
NtRp1056
(dp1057
g66
(dp1058
sg75
g1043
sg68
(lp1059
g61
(g62
g63
NtRp1060
(dp1061
g66
(dp1062
g74
I4
ssg75
g1056
sg68
(lp1063
g194
asbasbasbag61
(g77
g63
NtRp1064
(dp1065
g66
(dp1066
sg75
g600
sg68
(lp1067
g61
(g82
g63
NtRp1068
(dp1069
g66
(dp1070
g86
g87
ssg75
g1064
sg68
(lp1071
S'remote_port'
p1072
asbag61
(g82
g63
NtRp1073
(dp1074
g66
(dp1075
g93
g94
ssg75
g1064
sg68
(lp1076
S':'
asbag61
(g82
g63
NtRp1077
(dp1078
g66
(dp1079
sg75
g1064
sg68
(lp1080
g61
(g62
g63
NtRp1081
(dp1082
g66
(dp1083
g74
I4
ssg75
g1077
sg68
(lp1084
S'51737'
p1085
asbasbasbag61
(g77
g63
NtRp1086
(dp1087
g66
(dp1088
sg75
g600
sg68
(lp1089
g61
(g82
g63
NtRp1090
(dp1091
g66
(dp1092
g86
g87
ssg75
g1086
sg68
(lp1093
S'request_method'
p1094
asbag61
(g82
g63
NtRp1095
(dp1096
g66
(dp1097
g93
g94
ssg75
g1086
sg68
(lp1098
S':'
asbag61
(g82
g63
NtRp1099
(dp1100
g66
(dp1101
sg75
g1086
sg68
(lp1102
g61
(g62
g63
NtRp1103
(dp1104
g66
(dp1105
g74
I4
ssg75
g1099
sg68
(lp1106
S'GET'
p1107
asbasbasbag61
(g77
g63
NtRp1108
(dp1109
g66
(dp1110
sg75
g600
sg68
(lp1111
g61
(g82
g63
NtRp1112
(dp1113
g66
(dp1114
g86
g87
ssg75
g1108
sg68
(lp1115
S'script_name'
p1116
asbag61
(g82
g63
NtRp1117
(dp1118
g66
(dp1119
g93
g94
ssg75
g1108
sg68
(lp1120
S':'
asbag61
(g82
g63
NtRp1121
(dp1122
g66
(dp1123
sg75
g1108
sg68
(lp1124
g61
(g62
g63
NtRp1125
(dp1126
g66
(dp1127
g74
I4
ssg75
g1121
sg68
(lp1128
S''
asbasbasbag61
(g77
g63
NtRp1129
(dp1130
g66
(dp1131
sg75
g600
sg68
(lp1132
g61
(g82
g63
NtRp1133
(dp1134
g66
(dp1135
g86
g87
ssg75
g1129
sg68
(lp1136
S'server_name'
p1137
asbag61
(g82
g63
NtRp1138
(dp1139
g66
(dp1140
g93
g94
ssg75
g1129
sg68
(lp1141
S':'
asbag61
(g82
g63
NtRp1142
(dp1143
g66
(dp1144
sg75
g1129
sg68
(lp1145
g61
(g62
g63
NtRp1146
(dp1147
g66
(dp1148
g74
I4
ssg75
g1142
sg68
(lp1149
S'craxsnet-PC'
p1150
asbasbasbag61
(g77
g63
NtRp1151
(dp1152
g66
(dp1153
sg75
g600
sg68
(lp1154
g61
(g82
g63
NtRp1155
(dp1156
g66
(dp1157
g86
g87
ssg75
g1151
sg68
(lp1158
S'server_port'
p1159
asbag61
(g82
g63
NtRp1160
(dp1161
g66
(dp1162
g93
g94
ssg75
g1151
sg68
(lp1163
S':'
asbag61
(g82
g63
NtRp1164
(dp1165
g66
(dp1166
sg75
g1151
sg68
(lp1167
g61
(g62
g63
NtRp1168
(dp1169
g66
(dp1170
g74
I4
ssg75
g1164
sg68
(lp1171
S'8000'
p1172
asbasbasbag61
(g77
g63
NtRp1173
(dp1174
g66
(dp1175
sg75
g600
sg68
(lp1176
g61
(g82
g63
NtRp1177
(dp1178
g66
(dp1179
g86
g87
ssg75
g1173
sg68
(lp1180
S'server_protocol'
p1181
asbag61
(g82
g63
NtRp1182
(dp1183
g66
(dp1184
g93
g94
ssg75
g1173
sg68
(lp1185
S':'
asbag61
(g82
g63
NtRp1186
(dp1187
g66
(dp1188
sg75
g1173
sg68
(lp1189
g61
(g62
g63
NtRp1190
(dp1191
g66
(dp1192
g74
I4
ssg75
g1186
sg68
(lp1193
S'HTTP/1.1'
p1194
asbasbasbag61
(g77
g63
NtRp1195
(dp1196
g66
(dp1197
sg75
g600
sg68
(lp1198
g61
(g82
g63
NtRp1199
(dp1200
g66
(dp1201
g86
g87
ssg75
g1195
sg68
(lp1202
S'server_software'
p1203
asbag61
(g82
g63
NtRp1204
(dp1205
g66
(dp1206
g93
g94
ssg75
g1195
sg68
(lp1207
S':'
asbag61
(g82
g63
NtRp1208
(dp1209
g66
(dp1210
sg75
g1195
sg68
(lp1211
g61
(g62
g63
NtRp1212
(dp1213
g66
(dp1214
g74
I4
ssg75
g1208
sg68
(lp1215
S'Rocket 1.2.4'
p1216
asbasbasbag61
(g77
g63
NtRp1217
(dp1218
g66
(dp1219
sg75
g600
sg68
(lp1220
g61
(g82
g63
NtRp1221
(dp1222
g66
(dp1223
g86
g87
ssg75
g1217
sg68
(lp1224
S'web2py_crontype'
p1225
asbag61
(g82
g63
NtRp1226
(dp1227
g66
(dp1228
g93
g94
ssg75
g1217
sg68
(lp1229
S':'
asbag61
(g82
g63
NtRp1230
(dp1231
g66
(dp1232
sg75
g1217
sg68
(lp1233
g61
(g62
g63
NtRp1234
(dp1235
g66
(dp1236
g74
I4
ssg75
g1230
sg68
(lp1237
S'hard'
p1238
asbasbasbag61
(g77
g63
NtRp1239
(dp1240
g66
(dp1241
sg75
g600
sg68
(lp1242
g61
(g82
g63
NtRp1243
(dp1244
g66
(dp1245
g86
g87
ssg75
g1239
sg68
(lp1246
S'web2py_path'
p1247
asbag61
(g82
g63
NtRp1248
(dp1249
g66
(dp1250
g93
g94
ssg75
g1239
sg68
(lp1251
S':'
asbag61
(g82
g63
NtRp1252
(dp1253
g66
(dp1254
sg75
g1239
sg68
(lp1255
g61
(g62
g63
NtRp1256
(dp1257
g66
(dp1258
g74
I4
ssg75
g1252
sg68
(lp1259
g647
asbasbasbag61
(g77
g63
NtRp1260
(dp1261
g66
(dp1262
sg75
g600
sg68
(lp1263
g61
(g82
g63
NtRp1264
(dp1265
g66
(dp1266
g86
g87
ssg75
g1260
sg68
(lp1267
S'web2py_version'
p1268
asbag61
(g82
g63
NtRp1269
(dp1270
g66
(dp1271
g93
g94
ssg75
g1260
sg68
(lp1272
S':'
asbag61
(g82
g63
NtRp1273
(dp1274
g66
(dp1275
sg75
g1260
sg68
(lp1276
g61
(g62
g63
NtRp1277
(dp1278
g66
(dp1279
g74
I4
ssg75
g1273
sg68
(lp1280
g61
(g70
g63
NtRp1281
(dp1282
g66
(dp1283
g74
I3
ssg75
Nsg68
(lp1284
g61
(g77
g63
NtRp1285
(dp1286
g66
(dp1287
sg75
g1281
sg68
(lp1288
g61
(g82
g63
NtRp1289
(dp1290
g66
(dp1291
sg75
g1285
sg68
(lp1292
g61
(g62
g63
NtRp1293
(dp1294
g66
(dp1295
g74
I3
ssg75
g1289
sg68
(lp1296
S'1'
asbasbasbag61
(g77
g63
NtRp1297
(dp1298
g66
(dp1299
sg75
g1281
sg68
(lp1300
g61
(g82
g63
NtRp1301
(dp1302
g66
(dp1303
sg75
g1297
sg68
(lp1304
g61
(g62
g63
NtRp1305
(dp1306
g66
(dp1307
g74
I3
ssg75
g1301
sg68
(lp1308
S'99'
p1309
asbasbasbag61
(g77
g63
NtRp1310
(dp1311
g66
(dp1312
sg75
g1281
sg68
(lp1313
g61
(g82
g63
NtRp1314
(dp1315
g66
(dp1316
sg75
g1310
sg68
(lp1317
g61
(g62
g63
NtRp1318
(dp1319
g66
(dp1320
g74
I3
ssg75
g1314
sg68
(lp1321
S'7'
asbasbasbag61
(g77
g63
NtRp1322
(dp1323
g66
(dp1324
sg75
g1281
sg68
(lp1325
g61
(g82
g63
NtRp1326
(dp1327
g66
(dp1328
sg75
g1322
sg68
(lp1329
g61
(g62
g63
NtRp1330
(dp1331
g66
(dp1332
g74
I3
ssg75
g1326
sg68
(lp1333
S'datetime.datetime(2012, 3, 4, 22, 12, 8)'
p1334
asbasbasbag61
(g77
g63
NtRp1335
(dp1336
g66
(dp1337
sg75
g1281
sg68
(lp1338
g61
(g82
g63
NtRp1339
(dp1340
g66
(dp1341
sg75
g1335
sg68
(lp1342
g61
(g62
g63
NtRp1343
(dp1344
g66
(dp1345
g74
I3
ssg75
g1339
sg68
(lp1346
S'stable'
p1347
asbasbasbasbasbasbasbag61
(g77
g63
NtRp1348
(dp1349
g66
(dp1350
sg75
g600
sg68
(lp1351
g61
(g82
g63
NtRp1352
(dp1353
g66
(dp1354
g86
g87
ssg75
g1348
sg68
(lp1355
S'wsgi_errors'
p1356
asbag61
(g82
g63
NtRp1357
(dp1358
g66
(dp1359
g93
g94
ssg75
g1348
sg68
(lp1360
S':'
asbag61
(g82
g63
NtRp1361
(dp1362
g66
(dp1363
sg75
g1348
sg68
(lp1364
g61
(g62
g63
NtRp1365
(dp1366
g66
(dp1367
g74
I4
ssg75
g1361
sg68
(lp1368
S"<open file '<stderr>', mode 'w' at 0x01FB00B0>"
p1369
asbasbasbag61
(g77
g63
NtRp1370
(dp1371
g66
(dp1372
sg75
g600
sg68
(lp1373
g61
(g82
g63
NtRp1374
(dp1375
g66
(dp1376
g86
g87
ssg75
g1370
sg68
(lp1377
S'wsgi_file_wrapper'
p1378
asbag61
(g82
g63
NtRp1379
(dp1380
g66
(dp1381
g93
g94
ssg75
g1370
sg68
(lp1382
S':'
asbag61
(g82
g63
NtRp1383
(dp1384
g66
(dp1385
sg75
g1370
sg68
(lp1386
g61
(g62
g63
NtRp1387
(dp1388
g66
(dp1389
g74
I4
ssg75
g1383
sg68
(lp1390
S'<class wsgiref.util.FileWrapper at 0x02F15390>'
p1391
asbasbasbag61
(g77
g63
NtRp1392
(dp1393
g66
(dp1394
sg75
g600
sg68
(lp1395
g61
(g82
g63
NtRp1396
(dp1397
g66
(dp1398
g86
g87
ssg75
g1392
sg68
(lp1399
S'wsgi_input'
p1400
asbag61
(g82
g63
NtRp1401
(dp1402
g66
(dp1403
g93
g94
ssg75
g1392
sg68
(lp1404
S':'
asbag61
(g82
g63
NtRp1405
(dp1406
g66
(dp1407
sg75
g1392
sg68
(lp1408
g61
(g62
g63
NtRp1409
(dp1410
g66
(dp1411
g74
I4
ssg75
g1405
sg68
(lp1412
S'<socket._fileobject object at 0x0748ECF0>'
p1413
asbasbasbag61
(g77
g63
NtRp1414
(dp1415
g66
(dp1416
sg75
g600
sg68
(lp1417
g61
(g82
g63
NtRp1418
(dp1419
g66
(dp1420
g86
g87
ssg75
g1414
sg68
(lp1421
S'wsgi_multiprocess'
p1422
asbag61
(g82
g63
NtRp1423
(dp1424
g66
(dp1425
g93
g94
ssg75
g1414
sg68
(lp1426
S':'
asbag61
(g82
g63
NtRp1427
(dp1428
g66
(dp1429
sg75
g1414
sg68
(lp1430
g61
(g62
g63
NtRp1431
(dp1432
g66
(dp1433
g74
I4
ssg75
g1427
sg68
(lp1434
g104
asbasbasbag61
(g77
g63
NtRp1435
(dp1436
g66
(dp1437
sg75
g600
sg68
(lp1438
g61
(g82
g63
NtRp1439
(dp1440
g66
(dp1441
g86
g87
ssg75
g1435
sg68
(lp1442
S'wsgi_multithread'
p1443
asbag61
(g82
g63
NtRp1444
(dp1445
g66
(dp1446
g93
g94
ssg75
g1435
sg68
(lp1447
S':'
asbag61
(g82
g63
NtRp1448
(dp1449
g66
(dp1450
sg75
g1435
sg68
(lp1451
g61
(g62
g63
NtRp1452
(dp1453
g66
(dp1454
g74
I4
ssg75
g1448
sg68
(lp1455
S'True'
p1456
asbasbasbag61
(g77
g63
NtRp1457
(dp1458
g66
(dp1459
sg75
g600
sg68
(lp1460
g61
(g82
g63
NtRp1461
(dp1462
g66
(dp1463
g86
g87
ssg75
g1457
sg68
(lp1464
S'wsgi_run_once'
p1465
asbag61
(g82
g63
NtRp1466
(dp1467
g66
(dp1468
g93
g94
ssg75
g1457
sg68
(lp1469
S':'
asbag61
(g82
g63
NtRp1470
(dp1471
g66
(dp1472
sg75
g1457
sg68
(lp1473
g61
(g62
g63
NtRp1474
(dp1475
g66
(dp1476
g74
I4
ssg75
g1470
sg68
(lp1477
g104
asbasbasbag61
(g77
g63
NtRp1478
(dp1479
g66
(dp1480
sg75
g600
sg68
(lp1481
g61
(g82
g63
NtRp1482
(dp1483
g66
(dp1484
g86
g87
ssg75
g1478
sg68
(lp1485
S'wsgi_url_scheme'
p1486
asbag61
(g82
g63
NtRp1487
(dp1488
g66
(dp1489
g93
g94
ssg75
g1478
sg68
(lp1490
S':'
asbag61
(g82
g63
NtRp1491
(dp1492
g66
(dp1493
sg75
g1478
sg68
(lp1494
g61
(g62
g63
NtRp1495
(dp1496
g66
(dp1497
g74
I4
ssg75
g1491
sg68
(lp1498
S'http'
p1499
asbasbasbag61
(g77
g63
NtRp1500
(dp1501
g66
(dp1502
sg75
g600
sg68
(lp1503
g61
(g82
g63
NtRp1504
(dp1505
g66
(dp1506
g86
g87
ssg75
g1500
sg68
(lp1507
S'wsgi_version'
p1508
asbag61
(g82
g63
NtRp1509
(dp1510
g66
(dp1511
g93
g94
ssg75
g1500
sg68
(lp1512
S':'
asbag61
(g82
g63
NtRp1513
(dp1514
g66
(dp1515
sg75
g1500
sg68
(lp1516
g61
(g62
g63
NtRp1517
(dp1518
g66
(dp1519
g74
I4
ssg75
g1513
sg68
(lp1520
g61
(g70
g63
NtRp1521
(dp1522
g66
(dp1523
g74
I3
ssg75
Nsg68
(lp1524
g61
(g77
g63
NtRp1525
(dp1526
g66
(dp1527
sg75
g1521
sg68
(lp1528
g61
(g82
g63
NtRp1529
(dp1530
g66
(dp1531
sg75
g1525
sg68
(lp1532
g61
(g62
g63
NtRp1533
(dp1534
g66
(dp1535
g74
I3
ssg75
g1529
sg68
(lp1536
S'1'
asbasbasbag61
(g77
g63
NtRp1537
(dp1538
g66
(dp1539
sg75
g1521
sg68
(lp1540
g61
(g82
g63
NtRp1541
(dp1542
g66
(dp1543
sg75
g1537
sg68
(lp1544
g61
(g62
g63
NtRp1545
(dp1546
g66
(dp1547
g74
I3
ssg75
g1541
sg68
(lp1548
S'0'
asbasbasbasbasbasbasbasbasbasbasbag61
(g77
g63
NtRp1549
(dp1550
g66
(dp1551
sg75
g71
sg68
(lp1552
g61
(g82
g63
NtRp1553
(dp1554
g66
(dp1555
g86
g87
ssg75
g1549
sg68
(lp1556
S'extension'
p1557
asbag61
(g82
g63
NtRp1558
(dp1559
g66
(dp1560
g93
g94
ssg75
g1549
sg68
(lp1561
S':'
asbag61
(g82
g63
NtRp1562
(dp1563
g66
(dp1564
sg75
g1549
sg68
(lp1565
g61
(g62
g63
NtRp1566
(dp1567
g66
(dp1568
g74
I5
ssg75
g1562
sg68
(lp1569
S'html'
p1570
asbasbasbag61
(g77
g63
NtRp1571
(dp1572
g66
(dp1573
sg75
g71
sg68
(lp1574
g61
(g82
g63
NtRp1575
(dp1576
g66
(dp1577
g86
g87
ssg75
g1571
sg68
(lp1578
S'folder'
p1579
asbag61
(g82
g63
NtRp1580
(dp1581
g66
(dp1582
g93
g94
ssg75
g1571
sg68
(lp1583
S':'
asbag61
(g82
g63
NtRp1584
(dp1585
g66
(dp1586
sg75
g1571
sg68
(lp1587
g61
(g62
g63
NtRp1588
(dp1589
g66
(dp1590
g74
I5
ssg75
g1584
sg68
(lp1591
S'D:\\Dise\xf1o Web\\Proyectos\\Parleyweb\\web2py\\applications\\parleyweb\\'
p1592
asbasbasbag61
(g77
g63
NtRp1593
(dp1594
g66
(dp1595
sg75
g71
sg68
(lp1596
g61
(g82
g63
NtRp1597
(dp1598
g66
(dp1599
g86
g87
ssg75
g1593
sg68
(lp1600
S'function'
p1601
asbag61
(g82
g63
NtRp1602
(dp1603
g66
(dp1604
g93
g94
ssg75
g1593
sg68
(lp1605
S':'
asbag61
(g82
g63
NtRp1606
(dp1607
g66
(dp1608
sg75
g1593
sg68
(lp1609
g61
(g62
g63
NtRp1610
(dp1611
g66
(dp1612
g74
I5
ssg75
g1606
sg68
(lp1613
S'agregar_palabra'
p1614
asbasbasbag61
(g77
g63
NtRp1615
(dp1616
g66
(dp1617
sg75
g71
sg68
(lp1618
g61
(g82
g63
NtRp1619
(dp1620
g66
(dp1621
g86
g87
ssg75
g1615
sg68
(lp1622
S'get_vars'
p1623
asbag61
(g82
g63
NtRp1624
(dp1625
g66
(dp1626
g93
g94
ssg75
g1615
sg68
(lp1627
S':'
asbag61
(g82
g63
NtRp1628
(dp1629
g66
(dp1630
sg75
g1615
sg68
(lp1631
g61
(g62
g63
NtRp1632
(dp1633
g66
(dp1634
g74
I5
ssg75
g1628
sg68
(lp1635
g61
(g70
g63
NtRp1636
(dp1637
g66
(dp1638
g74
I4
ssg75
Nsg68
(lp1639
sbasbasbasbag61
(g77
g63
NtRp1640
(dp1641
g66
(dp1642
sg75
g71
sg68
(lp1643
g61
(g82
g63
NtRp1644
(dp1645
g66
(dp1646
g86
g87
ssg75
g1640
sg68
(lp1647
S'global_settings'
p1648
asbag61
(g82
g63
NtRp1649
(dp1650
g66
(dp1651
g93
g94
ssg75
g1640
sg68
(lp1652
S':'
asbag61
(g82
g63
NtRp1653
(dp1654
g66
(dp1655
sg75
g1640
sg68
(lp1656
g61
(g62
g63
NtRp1657
(dp1658
g66
(dp1659
g74
I5
ssg75
g1653
sg68
(lp1660
g61
(g70
g63
NtRp1661
(dp1662
g66
(dp1663
g74
I4
ssg75
Nsg68
(lp1664
g61
(g77
g63
NtRp1665
(dp1666
g66
(dp1667
sg75
g1661
sg68
(lp1668
g61
(g82
g63
NtRp1669
(dp1670
g66
(dp1671
g86
g87
ssg75
g1665
sg68
(lp1672
g612
asbag61
(g82
g63
NtRp1673
(dp1674
g66
(dp1675
g93
g94
ssg75
g1665
sg68
(lp1676
S':'
asbag61
(g82
g63
NtRp1677
(dp1678
g66
(dp1679
sg75
g1665
sg68
(lp1680
g61
(g62
g63
NtRp1681
(dp1682
g66
(dp1683
g74
I4
ssg75
g1677
sg68
(lp1684
S"set(['D:\\\\Dise\\xf1o Web\\\\Proyectos\\\\Parleyweb\\\\web2py\\\\applications\\\\admin\\\\', 'D:\\\\Dise\\xf1o Web\\\\Proyectos\\\\Parleyweb\\\\web2py\\\\applications\\\\welcome\\\\', 'D:\\\\Dise\\xf1o Web\\\\Proyectos\\\\Parleyweb\\\\web2py\\\\applications\\\\parleyweb\\\\'])"
p1685
asbasbasbag61
(g77
g63
NtRp1686
(dp1687
g66
(dp1688
sg75
g1661
sg68
(lp1689
g61
(g82
g63
NtRp1690
(dp1691
g66
(dp1692
g86
g87
ssg75
g1686
sg68
(lp1693
g634
asbag61
(g82
g63
NtRp1694
(dp1695
g66
(dp1696
g93
g94
ssg75
g1686
sg68
(lp1697
S':'
asbag61
(g82
g63
NtRp1698
(dp1699
g66
(dp1700
sg75
g1686
sg68
(lp1701
g61
(g62
g63
NtRp1702
(dp1703
g66
(dp1704
g74
I4
ssg75
g1698
sg68
(lp1705
g647
asbasbasbag61
(g77
g63
NtRp1706
(dp1707
g66
(dp1708
sg75
g1661
sg68
(lp1709
g61
(g82
g63
NtRp1710
(dp1711
g66
(dp1712
g86
g87
ssg75
g1706
sg68
(lp1713
g656
asbag61
(g82
g63
NtRp1714
(dp1715
g66
(dp1716
g93
g94
ssg75
g1706
sg68
(lp1717
S':'
asbag61
(g82
g63
NtRp1718
(dp1719
g66
(dp1720
sg75
g1706
sg68
(lp1721
g61
(g62
g63
NtRp1722
(dp1723
g66
(dp1724
g74
I4
ssg75
g1718
sg68
(lp1725
g61
(g70
g63
NtRp1726
(dp1727
g66
(dp1728
g74
I3
ssg75
Nsg68
(lp1729
sbasbasbasbag61
(g77
g63
NtRp1730
(dp1731
g66
(dp1732
sg75
g1661
sg68
(lp1733
g61
(g82
g63
NtRp1734
(dp1735
g66
(dp1736
g86
g87
ssg75
g1730
sg68
(lp1737
g681
asbag61
(g82
g63
NtRp1738
(dp1739
g66
(dp1740
g93
g94
ssg75
g1730
sg68
(lp1741
S':'
asbag61
(g82
g63
NtRp1742
(dp1743
g66
(dp1744
sg75
g1730
sg68
(lp1745
g61
(g62
g63
NtRp1746
(dp1747
g66
(dp1748
g74
I4
ssg75
g1742
sg68
(lp1749
S"<Values at 0x311ff30: {'verbose': False, 'ip': '127.0.0.1', 'shutdown_timeout': 5, 'taskbar': False, 'nocron': False, 'pid_filename': 'httpserver.pid', 'maxthreads': None, 'softcron': False, 'server_name': 'craxsnet-PC', 'bpython': False, 'nogui': False, 'port': 8000, 'extcron': False, 'debuglevel': 30, 'test': None, 'folder': 'D:\\\\Dise\\xf1o Web\\\\Proyectos\\\\Parleyweb\\\\web2py', 'config': '', 'import_models': False, 'winservice': '', 'shell': None, 'run': '', 'log_filename': 'httpserver.log', 'args': [''], 'socket_timeout': 5, 'ssl_ca_certificate': None, 'scheduler': None, 'profiler_filename': None, 'ssl_private_key': '', 'password': '<ask>', 'request_queue_size': 5, 'ssl_certificate': '', 'cronjob': False, 'numthreads': None, 'quiet': False, 'interfaces': None, 'minthreads': None, 'timeout': 10, 'plain': False, 'nobanner': False}>"
p1750
asbasbasbag61
(g77
g63
NtRp1751
(dp1752
g66
(dp1753
sg75
g1661
sg68
(lp1754
g61
(g82
g63
NtRp1755
(dp1756
g66
(dp1757
g86
g87
ssg75
g1751
sg68
(lp1758
g703
asbag61
(g82
g63
NtRp1759
(dp1760
g66
(dp1761
g93
g94
ssg75
g1751
sg68
(lp1762
S':'
asbag61
(g82
g63
NtRp1763
(dp1764
g66
(dp1765
sg75
g1751
sg68
(lp1766
g61
(g62
g63
NtRp1767
(dp1768
g66
(dp1769
g74
I4
ssg75
g1763
sg68
(lp1770
S'set([])'
p1771
asbasbasbag61
(g77
g63
NtRp1772
(dp1773
g66
(dp1774
sg75
g1661
sg68
(lp1775
g61
(g82
g63
NtRp1776
(dp1777
g66
(dp1778
g86
g87
ssg75
g1772
sg68
(lp1779
g725
asbag61
(g82
g63
NtRp1780
(dp1781
g66
(dp1782
g93
g94
ssg75
g1772
sg68
(lp1783
S':'
asbag61
(g82
g63
NtRp1784
(dp1785
g66
(dp1786
sg75
g1772
sg68
(lp1787
g61
(g62
g63
NtRp1788
(dp1789
g66
(dp1790
g74
I4
ssg75
g1784
sg68
(lp1791
g104
asbasbasbag61
(g77
g63
NtRp1792
(dp1793
g66
(dp1794
sg75
g1661
sg68
(lp1795
g61
(g82
g63
NtRp1796
(dp1797
g66
(dp1798
g86
g87
ssg75
g1792
sg68
(lp1799
g746
asbag61
(g82
g63
NtRp1800
(dp1801
g66
(dp1802
g93
g94
ssg75
g1792
sg68
(lp1803
S':'
asbag61
(g82
g63
NtRp1804
(dp1805
g66
(dp1806
sg75
g1792
sg68
(lp1807
g61
(g62
g63
NtRp1808
(dp1809
g66
(dp1810
g74
I4
ssg75
g1804
sg68
(lp1811
g759
asbasbasbag61
(g77
g63
NtRp1812
(dp1813
g66
(dp1814
sg75
g1661
sg68
(lp1815
g61
(g82
g63
NtRp1816
(dp1817
g66
(dp1818
g86
g87
ssg75
g1812
sg68
(lp1819
g966
asbag61
(g82
g63
NtRp1820
(dp1821
g66
(dp1822
g93
g94
ssg75
g1812
sg68
(lp1823
S':'
asbag61
(g82
g63
NtRp1824
(dp1825
g66
(dp1826
sg75
g1812
sg68
(lp1827
g61
(g62
g63
NtRp1828
(dp1829
g66
(dp1830
g74
I4
ssg75
g1824
sg68
(lp1831
g104
asbasbasbag61
(g77
g63
NtRp1832
(dp1833
g66
(dp1834
sg75
g1661
sg68
(lp1835
g61
(g82
g63
NtRp1836
(dp1837
g66
(dp1838
g86
g87
ssg75
g1832
sg68
(lp1839
g987
asbag61
(g82
g63
NtRp1840
(dp1841
g66
(dp1842
g93
g94
ssg75
g1832
sg68
(lp1843
S':'
asbag61
(g82
g63
NtRp1844
(dp1845
g66
(dp1846
sg75
g1832
sg68
(lp1847
g61
(g62
g63
NtRp1848
(dp1849
g66
(dp1850
g74
I4
ssg75
g1844
sg68
(lp1851
g104
asbasbasbag61
(g77
g63
NtRp1852
(dp1853
g66
(dp1854
sg75
g1661
sg68
(lp1855
g61
(g82
g63
NtRp1856
(dp1857
g66
(dp1858
g86
g87
ssg75
g1852
sg68
(lp1859
g1225
asbag61
(g82
g63
NtRp1860
(dp1861
g66
(dp1862
g93
g94
ssg75
g1852
sg68
(lp1863
S':'
asbag61
(g82
g63
NtRp1864
(dp1865
g66
(dp1866
sg75
g1852
sg68
(lp1867
g61
(g62
g63
NtRp1868
(dp1869
g66
(dp1870
g74
I4
ssg75
g1864
sg68
(lp1871
g1238
asbasbasbag61
(g77
g63
NtRp1872
(dp1873
g66
(dp1874
sg75
g1661
sg68
(lp1875
g61
(g82
g63
NtRp1876
(dp1877
g66
(dp1878
g86
g87
ssg75
g1872
sg68
(lp1879
g1268
asbag61
(g82
g63
NtRp1880
(dp1881
g66
(dp1882
g93
g94
ssg75
g1872
sg68
(lp1883
S':'
asbag61
(g82
g63
NtRp1884
(dp1885
g66
(dp1886
sg75
g1872
sg68
(lp1887
g61
(g62
g63
NtRp1888
(dp1889
g66
(dp1890
g74
I4
ssg75
g1884
sg68
(lp1891
g61
(g70
g63
NtRp1892
(dp1893
g66
(dp1894
g74
I3
ssg75
Nsg68
(lp1895
g61
(g77
g63
NtRp1896
(dp1897
g66
(dp1898
sg75
g1892
sg68
(lp1899
g61
(g82
g63
NtRp1900
(dp1901
g66
(dp1902
sg75
g1896
sg68
(lp1903
g61
(g62
g63
NtRp1904
(dp1905
g66
(dp1906
g74
I3
ssg75
g1900
sg68
(lp1907
S'1'
asbasbasbag61
(g77
g63
NtRp1908
(dp1909
g66
(dp1910
sg75
g1892
sg68
(lp1911
g61
(g82
g63
NtRp1912
(dp1913
g66
(dp1914
sg75
g1908
sg68
(lp1915
g61
(g62
g63
NtRp1916
(dp1917
g66
(dp1918
g74
I3
ssg75
g1912
sg68
(lp1919
S'99'
p1920
asbasbasbag61
(g77
g63
NtRp1921
(dp1922
g66
(dp1923
sg75
g1892
sg68
(lp1924
g61
(g82
g63
NtRp1925
(dp1926
g66
(dp1927
sg75
g1921
sg68
(lp1928
g61
(g62
g63
NtRp1929
(dp1930
g66
(dp1931
g74
I3
ssg75
g1925
sg68
(lp1932
S'7'
asbasbasbag61
(g77
g63
NtRp1933
(dp1934
g66
(dp1935
sg75
g1892
sg68
(lp1936
g61
(g82
g63
NtRp1937
(dp1938
g66
(dp1939
sg75
g1933
sg68
(lp1940
g61
(g62
g63
NtRp1941
(dp1942
g66
(dp1943
g74
I3
ssg75
g1937
sg68
(lp1944
S'datetime.datetime(2012, 3, 4, 22, 12, 8)'
p1945
asbasbasbag61
(g77
g63
NtRp1946
(dp1947
g66
(dp1948
sg75
g1892
sg68
(lp1949
g61
(g82
g63
NtRp1950
(dp1951
g66
(dp1952
sg75
g1946
sg68
(lp1953
g61
(g62
g63
NtRp1954
(dp1955
g66
(dp1956
g74
I3
ssg75
g1950
sg68
(lp1957
g1347
asbasbasbasbasbasbasbasbasbasbasbag61
(g77
g63
NtRp1958
(dp1959
g66
(dp1960
sg75
g71
sg68
(lp1961
g61
(g82
g63
NtRp1962
(dp1963
g66
(dp1964
g86
g87
ssg75
g1958
sg68
(lp1965
S'is_https'
p1966
asbag61
(g82
g63
NtRp1967
(dp1968
g66
(dp1969
g93
g94
ssg75
g1958
sg68
(lp1970
S':'
asbag61
(g82
g63
NtRp1971
(dp1972
g66
(dp1973
sg75
g1958
sg68
(lp1974
g61
(g62
g63
NtRp1975
(dp1976
g66
(dp1977
g74
I5
ssg75
g1971
sg68
(lp1978
g104
asbasbasbag61
(g77
g63
NtRp1979
(dp1980
g66
(dp1981
sg75
g71
sg68
(lp1982
g61
(g82
g63
NtRp1983
(dp1984
g66
(dp1985
g86
g87
ssg75
g1979
sg68
(lp1986
S'is_local'
p1987
asbag61
(g82
g63
NtRp1988
(dp1989
g66
(dp1990
g93
g94
ssg75
g1979
sg68
(lp1991
S':'
asbag61
(g82
g63
NtRp1992
(dp1993
g66
(dp1994
sg75
g1979
sg68
(lp1995
g61
(g62
g63
NtRp1996
(dp1997
g66
(dp1998
g74
I5
ssg75
g1992
sg68
(lp1999
g1456
asbasbasbag61
(g77
g63
NtRp2000
(dp2001
g66
(dp2002
sg75
g71
sg68
(lp2003
g61
(g82
g63
NtRp2004
(dp2005
g66
(dp2006
g86
g87
ssg75
g2000
sg68
(lp2007
S'is_restful'
p2008
asbag61
(g82
g63
NtRp2009
(dp2010
g66
(dp2011
g93
g94
ssg75
g2000
sg68
(lp2012
S':'
asbag61
(g82
g63
NtRp2013
(dp2014
g66
(dp2015
sg75
g2000
sg68
(lp2016
g61
(g62
g63
NtRp2017
(dp2018
g66
(dp2019
g74
I5
ssg75
g2013
sg68
(lp2020
g104
asbasbasbag61
(g77
g63
NtRp2021
(dp2022
g66
(dp2023
sg75
g71
sg68
(lp2024
g61
(g82
g63
NtRp2025
(dp2026
g66
(dp2027
g86
g87
ssg75
g2021
sg68
(lp2028
S'now'
p2029
asbag61
(g82
g63
NtRp2030
(dp2031
g66
(dp2032
g93
g94
ssg75
g2021
sg68
(lp2033
S':'
asbag61
(g82
g63
NtRp2034
(dp2035
g66
(dp2036
sg75
g2021
sg68
(lp2037
g61
(g62
g63
NtRp2038
(dp2039
g66
(dp2040
g74
I5
ssg75
g2034
sg68
(lp2041
S'datetime.datetime(2012, 3, 6, 15, 0, 15, 631000)'
p2042
asbasbasbag61
(g77
g63
NtRp2043
(dp2044
g66
(dp2045
sg75
g71
sg68
(lp2046
g61
(g82
g63
NtRp2047
(dp2048
g66
(dp2049
g86
g87
ssg75
g2043
sg68
(lp2050
S'post_vars'
p2051
asbag61
(g82
g63
NtRp2052
(dp2053
g66
(dp2054
g93
g94
ssg75
g2043
sg68
(lp2055
S':'
asbag61
(g82
g63
NtRp2056
(dp2057
g66
(dp2058
sg75
g2043
sg68
(lp2059
g61
(g62
g63
NtRp2060
(dp2061
g66
(dp2062
g74
I5
ssg75
g2056
sg68
(lp2063
g61
(g70
g63
NtRp2064
(dp2065
g66
(dp2066
g74
I4
ssg75
Nsg68
(lp2067
sbasbasbasbag61
(g77
g63
NtRp2068
(dp2069
g66
(dp2070
sg75
g71
sg68
(lp2071
g61
(g82
g63
NtRp2072
(dp2073
g66
(dp2074
g86
g87
ssg75
g2068
sg68
(lp2075
S'url'
p2076
asbag61
(g82
g63
NtRp2077
(dp2078
g66
(dp2079
g93
g94
ssg75
g2068
sg68
(lp2080
S':'
asbag61
(g82
g63
NtRp2081
(dp2082
g66
(dp2083
sg75
g2068
sg68
(lp2084
g61
(g62
g63
NtRp2085
(dp2086
g66
(dp2087
g74
I5
ssg75
g2081
sg68
(lp2088
S'/parleyweb/admin/agregar_palabra'
p2089
asbasbasbag61
(g77
g63
NtRp2090
(dp2091
g66
(dp2092
sg75
g71
sg68
(lp2093
g61
(g82
g63
NtRp2094
(dp2095
g66
(dp2096
g86
g87
ssg75
g2090
sg68
(lp2097
S'utcnow'
p2098
asbag61
(g82
g63
NtRp2099
(dp2100
g66
(dp2101
g93
g94
ssg75
g2090
sg68
(lp2102
S':'
asbag61
(g82
g63
NtRp2103
(dp2104
g66
(dp2105
sg75
g2090
sg68
(lp2106
g61
(g62
g63
NtRp2107
(dp2108
g66
(dp2109
g74
I5
ssg75
g2103
sg68
(lp2110
S'datetime.datetime(2012, 3, 6, 14, 0, 15, 631000)'
p2111
asbasbasbag61
(g77
g63
NtRp2112
(dp2113
g66
(dp2114
sg75
g71
sg68
(lp2115
g61
(g82
g63
NtRp2116
(dp2117
g66
(dp2118
g86
g87
ssg75
g2112
sg68
(lp2119
S'uuid'
p2120
asbag61
(g82
g63
NtRp2121
(dp2122
g66
(dp2123
g93
g94
ssg75
g2112
sg68
(lp2124
S':'
asbag61
(g82
g63
NtRp2125
(dp2126
g66
(dp2127
sg75
g2112
sg68
(lp2128
g61
(g62
g63
NtRp2129
(dp2130
g66
(dp2131
g74
I5
ssg75
g2125
sg68
(lp2132
S'parleyweb/127.0.0.1.2012-03-06.15-00-15.abd4d07a-38ca-4e91-b178-ea6f96757854'
p2133
asbasbasbag61
(g77
g63
NtRp2134
(dp2135
g66
(dp2136
sg75
g71
sg68
(lp2137
g61
(g82
g63
NtRp2138
(dp2139
g66
(dp2140
g86
g87
ssg75
g2134
sg68
(lp2141
S'vars'
p2142
asbag61
(g82
g63
NtRp2143
(dp2144
g66
(dp2145
g93
g94
ssg75
g2134
sg68
(lp2146
S':'
asbag61
(g82
g63
NtRp2147
(dp2148
g66
(dp2149
sg75
g2134
sg68
(lp2150
g61
(g62
g63
NtRp2151
(dp2152
g66
(dp2153
g74
I5
ssg75
g2147
sg68
(lp2154
g61
(g70
g63
NtRp2155
(dp2156
g66
(dp2157
g74
I4
ssg75
Nsg68
(lp2158
sbasbasbasbag61
(g77
g63
NtRp2159
(dp2160
g66
(dp2161
sg75
g71
sg68
(lp2162
g61
(g82
g63
NtRp2163
(dp2164
g66
(dp2165
g86
g87
ssg75
g2159
sg68
(lp2166
S'wsgi'
p2167
asbag61
(g82
g63
NtRp2168
(dp2169
g66
(dp2170
g93
g94
ssg75
g2159
sg68
(lp2171
S':'
asbag61
(g82
g63
NtRp2172
(dp2173
g66
(dp2174
sg75
g2159
sg68
(lp2175
g61
(g62
g63
NtRp2176
(dp2177
g66
(dp2178
g74
I5
ssg75
g2172
sg68
(lp2179
g61
(g70
g63
NtRp2180
(dp2181
g66
(dp2182
g74
I4
ssg75
Nsg68
(lp2183
g61
(g77
g63
NtRp2184
(dp2185
g66
(dp2186
sg75
g2180
sg68
(lp2187
g61
(g82
g63
NtRp2188
(dp2189
g66
(dp2190
g86
g87
ssg75
g2184
sg68
(lp2191
S'environ'
p2192
asbag61
(g82
g63
NtRp2193
(dp2194
g66
(dp2195
g93
g94
ssg75
g2184
sg68
(lp2196
S':'
asbag61
(g82
g63
NtRp2197
(dp2198
g66
(dp2199
sg75
g2184
sg68
(lp2200
g61
(g62
g63
NtRp2201
(dp2202
g66
(dp2203
g74
I4
ssg75
g2197
sg68
(lp2204
g61
(g70
g63
NtRp2205
(dp2206
g66
(dp2207
g74
I3
ssg75
Nsg68
(lp2208
g61
(g77
g63
NtRp2209
(dp2210
g66
(dp2211
sg75
g2205
sg68
(lp2212
g61
(g82
g63
NtRp2213
(dp2214
g66
(dp2215
g86
g87
ssg75
g2209
sg68
(lp2216
S'HTTP_ACCEPT'
p2217
asbag61
(g82
g63
NtRp2218
(dp2219
g66
(dp2220
g93
g94
ssg75
g2209
sg68
(lp2221
S':'
asbag61
(g82
g63
NtRp2222
(dp2223
g66
(dp2224
sg75
g2209
sg68
(lp2225
g61
(g62
g63
NtRp2226
(dp2227
g66
(dp2228
g74
I3
ssg75
g2222
sg68
(lp2229
g781
asbasbasbag61
(g77
g63
NtRp2230
(dp2231
g66
(dp2232
sg75
g2205
sg68
(lp2233
g61
(g82
g63
NtRp2234
(dp2235
g66
(dp2236
g86
g87
ssg75
g2230
sg68
(lp2237
S'HTTP_ACCEPT_ENCODING'
p2238
asbag61
(g82
g63
NtRp2239
(dp2240
g66
(dp2241
g93
g94
ssg75
g2230
sg68
(lp2242
S':'
asbag61
(g82
g63
NtRp2243
(dp2244
g66
(dp2245
sg75
g2230
sg68
(lp2246
g61
(g62
g63
NtRp2247
(dp2248
g66
(dp2249
g74
I3
ssg75
g2243
sg68
(lp2250
g803
asbasbasbag61
(g77
g63
NtRp2251
(dp2252
g66
(dp2253
sg75
g2205
sg68
(lp2254
g61
(g82
g63
NtRp2255
(dp2256
g66
(dp2257
g86
g87
ssg75
g2251
sg68
(lp2258
S'HTTP_ACCEPT_LANGUAGE'
p2259
asbag61
(g82
g63
NtRp2260
(dp2261
g66
(dp2262
g93
g94
ssg75
g2251
sg68
(lp2263
S':'
asbag61
(g82
g63
NtRp2264
(dp2265
g66
(dp2266
sg75
g2251
sg68
(lp2267
g61
(g62
g63
NtRp2268
(dp2269
g66
(dp2270
g74
I3
ssg75
g2264
sg68
(lp2271
g825
asbasbasbag61
(g77
g63
NtRp2272
(dp2273
g66
(dp2274
sg75
g2205
sg68
(lp2275
g61
(g82
g63
NtRp2276
(dp2277
g66
(dp2278
g86
g87
ssg75
g2272
sg68
(lp2279
S'HTTP_CACHE_CONTROL'
p2280
asbag61
(g82
g63
NtRp2281
(dp2282
g66
(dp2283
g93
g94
ssg75
g2272
sg68
(lp2284
S':'
asbag61
(g82
g63
NtRp2285
(dp2286
g66
(dp2287
sg75
g2272
sg68
(lp2288
g61
(g62
g63
NtRp2289
(dp2290
g66
(dp2291
g74
I3
ssg75
g2285
sg68
(lp2292
g847
asbasbasbag61
(g77
g63
NtRp2293
(dp2294
g66
(dp2295
sg75
g2205
sg68
(lp2296
g61
(g82
g63
NtRp2297
(dp2298
g66
(dp2299
g86
g87
ssg75
g2293
sg68
(lp2300
S'HTTP_CONNECTION'
p2301
asbag61
(g82
g63
NtRp2302
(dp2303
g66
(dp2304
g93
g94
ssg75
g2293
sg68
(lp2305
S':'
asbag61
(g82
g63
NtRp2306
(dp2307
g66
(dp2308
sg75
g2293
sg68
(lp2309
g61
(g62
g63
NtRp2310
(dp2311
g66
(dp2312
g74
I3
ssg75
g2306
sg68
(lp2313
g869
asbasbasbag61
(g77
g63
NtRp2314
(dp2315
g66
(dp2316
sg75
g2205
sg68
(lp2317
g61
(g82
g63
NtRp2318
(dp2319
g66
(dp2320
g86
g87
ssg75
g2314
sg68
(lp2321
S'HTTP_COOKIE'
p2322
asbag61
(g82
g63
NtRp2323
(dp2324
g66
(dp2325
g93
g94
ssg75
g2314
sg68
(lp2326
S':'
asbag61
(g82
g63
NtRp2327
(dp2328
g66
(dp2329
sg75
g2314
sg68
(lp2330
g61
(g62
g63
NtRp2331
(dp2332
g66
(dp2333
g74
I3
ssg75
g2327
sg68
(lp2334
g891
asbasbasbag61
(g77
g63
NtRp2335
(dp2336
g66
(dp2337
sg75
g2205
sg68
(lp2338
g61
(g82
g63
NtRp2339
(dp2340
g66
(dp2341
g86
g87
ssg75
g2335
sg68
(lp2342
S'HTTP_HOST'
p2343
asbag61
(g82
g63
NtRp2344
(dp2345
g66
(dp2346
g93
g94
ssg75
g2335
sg68
(lp2347
S':'
asbag61
(g82
g63
NtRp2348
(dp2349
g66
(dp2350
sg75
g2335
sg68
(lp2351
g61
(g62
g63
NtRp2352
(dp2353
g66
(dp2354
g74
I3
ssg75
g2348
sg68
(lp2355
g913
asbasbasbag61
(g77
g63
NtRp2356
(dp2357
g66
(dp2358
sg75
g2205
sg68
(lp2359
g61
(g82
g63
NtRp2360
(dp2361
g66
(dp2362
g86
g87
ssg75
g2356
sg68
(lp2363
S'HTTP_REFERER'
p2364
asbag61
(g82
g63
NtRp2365
(dp2366
g66
(dp2367
g93
g94
ssg75
g2356
sg68
(lp2368
S':'
asbag61
(g82
g63
NtRp2369
(dp2370
g66
(dp2371
sg75
g2356
sg68
(lp2372
g61
(g62
g63
NtRp2373
(dp2374
g66
(dp2375
g74
I3
ssg75
g2369
sg68
(lp2376
g935
asbasbasbag61
(g77
g63
NtRp2377
(dp2378
g66
(dp2379
sg75
g2205
sg68
(lp2380
g61
(g82
g63
NtRp2381
(dp2382
g66
(dp2383
g86
g87
ssg75
g2377
sg68
(lp2384
S'HTTP_USER_AGENT'
p2385
asbag61
(g82
g63
NtRp2386
(dp2387
g66
(dp2388
g93
g94
ssg75
g2377
sg68
(lp2389
S':'
asbag61
(g82
g63
NtRp2390
(dp2391
g66
(dp2392
sg75
g2377
sg68
(lp2393
g61
(g62
g63
NtRp2394
(dp2395
g66
(dp2396
g74
I3
ssg75
g2390
sg68
(lp2397
g957
asbasbasbag61
(g77
g63
NtRp2398
(dp2399
g66
(dp2400
sg75
g2205
sg68
(lp2401
g61
(g82
g63
NtRp2402
(dp2403
g66
(dp2404
g86
g87
ssg75
g2398
sg68
(lp2405
S'PATH_INFO'
p2406
asbag61
(g82
g63
NtRp2407
(dp2408
g66
(dp2409
g93
g94
ssg75
g2398
sg68
(lp2410
S':'
asbag61
(g82
g63
NtRp2411
(dp2412
g66
(dp2413
sg75
g2398
sg68
(lp2414
g61
(g62
g63
NtRp2415
(dp2416
g66
(dp2417
g74
I3
ssg75
g2411
sg68
(lp2418
g1021
asbasbasbag61
(g77
g63
NtRp2419
(dp2420
g66
(dp2421
sg75
g2205
sg68
(lp2422
g61
(g82
g63
NtRp2423
(dp2424
g66
(dp2425
g86
g87
ssg75
g2419
sg68
(lp2426
S'QUERY_STRING'
p2427
asbag61
(g82
g63
NtRp2428
(dp2429
g66
(dp2430
g93
g94
ssg75
g2419
sg68
(lp2431
S':'
asbag61
(g82
g63
NtRp2432
(dp2433
g66
(dp2434
sg75
g2419
sg68
(lp2435
g61
(g62
g63
NtRp2436
(dp2437
g66
(dp2438
g74
I3
ssg75
g2432
sg68
(lp2439
S''
asbasbasbag61
(g77
g63
NtRp2440
(dp2441
g66
(dp2442
sg75
g2205
sg68
(lp2443
g61
(g82
g63
NtRp2444
(dp2445
g66
(dp2446
g86
g87
ssg75
g2440
sg68
(lp2447
S'REMOTE_ADDR'
p2448
asbag61
(g82
g63
NtRp2449
(dp2450
g66
(dp2451
g93
g94
ssg75
g2440
sg68
(lp2452
S':'
asbag61
(g82
g63
NtRp2453
(dp2454
g66
(dp2455
sg75
g2440
sg68
(lp2456
g61
(g62
g63
NtRp2457
(dp2458
g66
(dp2459
g74
I3
ssg75
g2453
sg68
(lp2460
g194
asbasbasbag61
(g77
g63
NtRp2461
(dp2462
g66
(dp2463
sg75
g2205
sg68
(lp2464
g61
(g82
g63
NtRp2465
(dp2466
g66
(dp2467
g86
g87
ssg75
g2461
sg68
(lp2468
S'REMOTE_PORT'
p2469
asbag61
(g82
g63
NtRp2470
(dp2471
g66
(dp2472
g93
g94
ssg75
g2461
sg68
(lp2473
S':'
asbag61
(g82
g63
NtRp2474
(dp2475
g66
(dp2476
sg75
g2461
sg68
(lp2477
g61
(g62
g63
NtRp2478
(dp2479
g66
(dp2480
g74
I3
ssg75
g2474
sg68
(lp2481
g1085
asbasbasbag61
(g77
g63
NtRp2482
(dp2483
g66
(dp2484
sg75
g2205
sg68
(lp2485
g61
(g82
g63
NtRp2486
(dp2487
g66
(dp2488
g86
g87
ssg75
g2482
sg68
(lp2489
S'REQUEST_METHOD'
p2490
asbag61
(g82
g63
NtRp2491
(dp2492
g66
(dp2493
g93
g94
ssg75
g2482
sg68
(lp2494
S':'
asbag61
(g82
g63
NtRp2495
(dp2496
g66
(dp2497
sg75
g2482
sg68
(lp2498
g61
(g62
g63
NtRp2499
(dp2500
g66
(dp2501
g74
I3
ssg75
g2495
sg68
(lp2502
g1107
asbasbasbag61
(g77
g63
NtRp2503
(dp2504
g66
(dp2505
sg75
g2205
sg68
(lp2506
g61
(g82
g63
NtRp2507
(dp2508
g66
(dp2509
g86
g87
ssg75
g2503
sg68
(lp2510
S'SCRIPT_NAME'
p2511
asbag61
(g82
g63
NtRp2512
(dp2513
g66
(dp2514
g93
g94
ssg75
g2503
sg68
(lp2515
S':'
asbag61
(g82
g63
NtRp2516
(dp2517
g66
(dp2518
sg75
g2503
sg68
(lp2519
g61
(g62
g63
NtRp2520
(dp2521
g66
(dp2522
g74
I3
ssg75
g2516
sg68
(lp2523
S''
asbasbasbag61
(g77
g63
NtRp2524
(dp2525
g66
(dp2526
sg75
g2205
sg68
(lp2527
g61
(g82
g63
NtRp2528
(dp2529
g66
(dp2530
g86
g87
ssg75
g2524
sg68
(lp2531
S'SERVER_NAME'
p2532
asbag61
(g82
g63
NtRp2533
(dp2534
g66
(dp2535
g93
g94
ssg75
g2524
sg68
(lp2536
S':'
asbag61
(g82
g63
NtRp2537
(dp2538
g66
(dp2539
sg75
g2524
sg68
(lp2540
g61
(g62
g63
NtRp2541
(dp2542
g66
(dp2543
g74
I3
ssg75
g2537
sg68
(lp2544
g1150
asbasbasbag61
(g77
g63
NtRp2545
(dp2546
g66
(dp2547
sg75
g2205
sg68
(lp2548
g61
(g82
g63
NtRp2549
(dp2550
g66
(dp2551
g86
g87
ssg75
g2545
sg68
(lp2552
S'SERVER_PORT'
p2553
asbag61
(g82
g63
NtRp2554
(dp2555
g66
(dp2556
g93
g94
ssg75
g2545
sg68
(lp2557
S':'
asbag61
(g82
g63
NtRp2558
(dp2559
g66
(dp2560
sg75
g2545
sg68
(lp2561
g61
(g62
g63
NtRp2562
(dp2563
g66
(dp2564
g74
I3
ssg75
g2558
sg68
(lp2565
g1172
asbasbasbag61
(g77
g63
NtRp2566
(dp2567
g66
(dp2568
sg75
g2205
sg68
(lp2569
g61
(g82
g63
NtRp2570
(dp2571
g66
(dp2572
g86
g87
ssg75
g2566
sg68
(lp2573
S'SERVER_PROTOCOL'
p2574
asbag61
(g82
g63
NtRp2575
(dp2576
g66
(dp2577
g93
g94
ssg75
g2566
sg68
(lp2578
S':'
asbag61
(g82
g63
NtRp2579
(dp2580
g66
(dp2581
sg75
g2566
sg68
(lp2582
g61
(g62
g63
NtRp2583
(dp2584
g66
(dp2585
g74
I3
ssg75
g2579
sg68
(lp2586
g1194
asbasbasbag61
(g77
g63
NtRp2587
(dp2588
g66
(dp2589
sg75
g2205
sg68
(lp2590
g61
(g82
g63
NtRp2591
(dp2592
g66
(dp2593
g86
g87
ssg75
g2587
sg68
(lp2594
S'SERVER_SOFTWARE'
p2595
asbag61
(g82
g63
NtRp2596
(dp2597
g66
(dp2598
g93
g94
ssg75
g2587
sg68
(lp2599
S':'
asbag61
(g82
g63
NtRp2600
(dp2601
g66
(dp2602
sg75
g2587
sg68
(lp2603
g61
(g62
g63
NtRp2604
(dp2605
g66
(dp2606
g74
I3
ssg75
g2600
sg68
(lp2607
g1216
asbasbasbag61
(g77
g63
NtRp2608
(dp2609
g66
(dp2610
sg75
g2205
sg68
(lp2611
g61
(g82
g63
NtRp2612
(dp2613
g66
(dp2614
g86
g87
ssg75
g2608
sg68
(lp2615
S'wsgi.errors'
p2616
asbag61
(g82
g63
NtRp2617
(dp2618
g66
(dp2619
g93
g94
ssg75
g2608
sg68
(lp2620
S':'
asbag61
(g82
g63
NtRp2621
(dp2622
g66
(dp2623
sg75
g2608
sg68
(lp2624
g61
(g62
g63
NtRp2625
(dp2626
g66
(dp2627
g74
I3
ssg75
g2621
sg68
(lp2628
S"<open file '<stderr>', mode 'w' at 0x01FB00B0>"
p2629
asbasbasbag61
(g77
g63
NtRp2630
(dp2631
g66
(dp2632
sg75
g2205
sg68
(lp2633
g61
(g82
g63
NtRp2634
(dp2635
g66
(dp2636
g86
g87
ssg75
g2630
sg68
(lp2637
S'wsgi.file_wrapper'
p2638
asbag61
(g82
g63
NtRp2639
(dp2640
g66
(dp2641
g93
g94
ssg75
g2630
sg68
(lp2642
S':'
asbag61
(g82
g63
NtRp2643
(dp2644
g66
(dp2645
sg75
g2630
sg68
(lp2646
g61
(g62
g63
NtRp2647
(dp2648
g66
(dp2649
g74
I3
ssg75
g2643
sg68
(lp2650
S'<class wsgiref.util.FileWrapper at 0x02F15390>'
p2651
asbasbasbag61
(g77
g63
NtRp2652
(dp2653
g66
(dp2654
sg75
g2205
sg68
(lp2655
g61
(g82
g63
NtRp2656
(dp2657
g66
(dp2658
g86
g87
ssg75
g2652
sg68
(lp2659
S'wsgi.input'
p2660
asbag61
(g82
g63
NtRp2661
(dp2662
g66
(dp2663
g93
g94
ssg75
g2652
sg68
(lp2664
S':'
asbag61
(g82
g63
NtRp2665
(dp2666
g66
(dp2667
sg75
g2652
sg68
(lp2668
g61
(g62
g63
NtRp2669
(dp2670
g66
(dp2671
g74
I3
ssg75
g2665
sg68
(lp2672
S'<cStringIO.StringO object at 0x070CAB00>'
p2673
asbasbasbag61
(g77
g63
NtRp2674
(dp2675
g66
(dp2676
sg75
g2205
sg68
(lp2677
g61
(g82
g63
NtRp2678
(dp2679
g66
(dp2680
g86
g87
ssg75
g2674
sg68
(lp2681
S'wsgi.multiprocess'
p2682
asbag61
(g82
g63
NtRp2683
(dp2684
g66
(dp2685
g93
g94
ssg75
g2674
sg68
(lp2686
S':'
asbag61
(g82
g63
NtRp2687
(dp2688
g66
(dp2689
sg75
g2674
sg68
(lp2690
g61
(g62
g63
NtRp2691
(dp2692
g66
(dp2693
g74
I3
ssg75
g2687
sg68
(lp2694
g104
asbasbasbag61
(g77
g63
NtRp2695
(dp2696
g66
(dp2697
sg75
g2205
sg68
(lp2698
g61
(g82
g63
NtRp2699
(dp2700
g66
(dp2701
g86
g87
ssg75
g2695
sg68
(lp2702
S'wsgi.multithread'
p2703
asbag61
(g82
g63
NtRp2704
(dp2705
g66
(dp2706
g93
g94
ssg75
g2695
sg68
(lp2707
S':'
asbag61
(g82
g63
NtRp2708
(dp2709
g66
(dp2710
sg75
g2695
sg68
(lp2711
g61
(g62
g63
NtRp2712
(dp2713
g66
(dp2714
g74
I3
ssg75
g2708
sg68
(lp2715
g1456
asbasbasbag61
(g77
g63
NtRp2716
(dp2717
g66
(dp2718
sg75
g2205
sg68
(lp2719
g61
(g82
g63
NtRp2720
(dp2721
g66
(dp2722
g86
g87
ssg75
g2716
sg68
(lp2723
S'wsgi.run_once'
p2724
asbag61
(g82
g63
NtRp2725
(dp2726
g66
(dp2727
g93
g94
ssg75
g2716
sg68
(lp2728
S':'
asbag61
(g82
g63
NtRp2729
(dp2730
g66
(dp2731
sg75
g2716
sg68
(lp2732
g61
(g62
g63
NtRp2733
(dp2734
g66
(dp2735
g74
I3
ssg75
g2729
sg68
(lp2736
g104
asbasbasbag61
(g77
g63
NtRp2737
(dp2738
g66
(dp2739
sg75
g2205
sg68
(lp2740
g61
(g82
g63
NtRp2741
(dp2742
g66
(dp2743
g86
g87
ssg75
g2737
sg68
(lp2744
S'wsgi.url_scheme'
p2745
asbag61
(g82
g63
NtRp2746
(dp2747
g66
(dp2748
g93
g94
ssg75
g2737
sg68
(lp2749
S':'
asbag61
(g82
g63
NtRp2750
(dp2751
g66
(dp2752
sg75
g2737
sg68
(lp2753
g61
(g62
g63
NtRp2754
(dp2755
g66
(dp2756
g74
I3
ssg75
g2750
sg68
(lp2757
g1499
asbasbasbag61
(g77
g63
NtRp2758
(dp2759
g66
(dp2760
sg75
g2205
sg68
(lp2761
g61
(g82
g63
NtRp2762
(dp2763
g66
(dp2764
g86
g87
ssg75
g2758
sg68
(lp2765
S'wsgi.version'
p2766
asbag61
(g82
g63
NtRp2767
(dp2768
g66
(dp2769
g93
g94
ssg75
g2758
sg68
(lp2770
S':'
asbag61
(g82
g63
NtRp2771
(dp2772
g66
(dp2773
sg75
g2758
sg68
(lp2774
g61
(g62
g63
NtRp2775
(dp2776
g66
(dp2777
g74
I3
ssg75
g2771
sg68
(lp2778
S'1'
asbasbasbasbasbasbasbasbasbasbasbasbasbsS'frames'
p2779
(lp2780
(dp2781
S'file'
p2782
S'D:\\Dise\xf1o Web\\Proyectos\\Parleyweb\\web2py\\gluon\\restricted.py'
p2783
sS'dump'
p2784
(dp2785
sS'lnum'
p2786
I204
sS'lines'
p2787
(dp2788
sS'call'
p2789
S'(code=r"response.write(\'<!DOCTYPE html>\\n<!-- paulirish....\\n    \\n\\n \\n\\n</body>\\n</html>\\n\', escape=False)", environment={\'A\': <class \'gluon.html.A\'>, \'Auth\': <class \'gluon.tools.Auth\'>, \'B\': <class \'gluon.html.B\'>, \'BEAUTIFY\': <class \'gluon.html.BEAUTIFY\'>, \'BODY\': <class \'gluon.html.BODY\'>, \'BR\': <class \'gluon.html.BR\'>, \'BUTTON\': <class \'gluon.html.BUTTON\'>, \'CAT\': <class \'gluon.html.CAT\'>, \'CENTER\': <class \'gluon.html.CENTER\'>, \'CLEANUP\': <class \'gluon.validators.CLEANUP\'>, ...}, layer=\'D:\\\\Dise\\xf1o Web\\\\Proyectos\\\\Parleyweb\\\\web2py\\\\applications\\\\parleyweb\\\\views\\\\admin/agregar_palabra.html\')'
p2790
sS'func'
p2791
S'restricted'
p2792
sa(dp2793
g2782
S'D:\\Dise\xf1o Web\\Proyectos\\Parleyweb\\web2py\\gluon\\restricted.py'
p2794
sg2784
(dp2795
sg2786
I189
sg2787
(dp2796
sg2789
S'(code=r"response.write(\'<!DOCTYPE html>\\n<!-- paulirish....\\n    \\n\\n \\n\\n</body>\\n</html>\\n\', escape=False)", layer=\'D:\\\\Dise\\xf1o Web\\\\Proyectos\\\\Parleyweb\\\\web2py\\\\applications\\\\parleyweb\\\\views\\\\admin/agregar_palabra.html\')'
p2797
sg2791
S'compile2'
p2798
sasS'pyver'
p2799
S'Python 2.5.4: D:\\Dise\xf1o Web\\Proyectos\\Parleyweb\\web2py\\web2py.exe'
p2800
sS'session'
p2801
g61
(g62
g63
NtRp2802
(dp2803
g66
(dp2804
sg68
(lp2805
g61
(g70
g63
NtRp2806
(dp2807
g66
(dp2808
g74
I5
ssg75
Nsg68
(lp2809
sbasbsS'etype'
p2810
S"<type 'exceptions.SyntaxError'>"
p2811
sS'date'
p2812
S'Tue Mar 06 15:00:15 2012'
p2813
sS'response'
p2814
g61
(g62
g63
NtRp2815
(dp2816
g66
(dp2817
sg68
(lp2818
g61
(g70
g63
NtRp2819
(dp2820
g66
(dp2821
g74
I5
ssg75
Nsg68
(lp2822
g61
(g77
g63
NtRp2823
(dp2824
g66
(dp2825
sg75
g2819
sg68
(lp2826
g61
(g82
g63
NtRp2827
(dp2828
g66
(dp2829
g86
g87
ssg75
g2823
sg68
(lp2830
g159
asbag61
(g82
g63
NtRp2831
(dp2832
g66
(dp2833
g93
g94
ssg75
g2823
sg68
(lp2834
S':'
asbag61
(g82
g63
NtRp2835
(dp2836
g66
(dp2837
sg75
g2823
sg68
(lp2838
g61
(g62
g63
NtRp2839
(dp2840
g66
(dp2841
g74
I5
ssg75
g2835
sg68
(lp2842
S'<cStringIO.StringO object at 0x070CAEE0>'
p2843
asbasbasbag61
(g77
g63
NtRp2844
(dp2845
g66
(dp2846
sg75
g2819
sg68
(lp2847
g61
(g82
g63
NtRp2848
(dp2849
g66
(dp2850
g86
g87
ssg75
g2844
sg68
(lp2851
g225
asbag61
(g82
g63
NtRp2852
(dp2853
g66
(dp2854
g93
g94
ssg75
g2844
sg68
(lp2855
S':'
asbag61
(g82
g63
NtRp2856
(dp2857
g66
(dp2858
sg75
g2844
sg68
(lp2859
g61
(g62
g63
NtRp2860
(dp2861
g66
(dp2862
g74
I5
ssg75
g2856
sg68
(lp2863
g61
(g70
g63
NtRp2864
(dp2865
g66
(dp2866
g74
I4
ssg75
Nsg68
(lp2867
g61
(g77
g63
NtRp2868
(dp2869
g66
(dp2870
sg75
g2864
sg68
(lp2871
g61
(g82
g63
NtRp2872
(dp2873
g66
(dp2874
g86
g87
ssg75
g2868
sg68
(lp2875
S'session_id_parleyweb'
p2876
asbag61
(g82
g63
NtRp2877
(dp2878
g66
(dp2879
g93
g94
ssg75
g2868
sg68
(lp2880
S':'
asbag61
(g82
g63
NtRp2881
(dp2882
g66
(dp2883
sg75
g2868
sg68
(lp2884
g61
(g62
g63
NtRp2885
(dp2886
g66
(dp2887
g74
I4
ssg75
g2881
sg68
(lp2888
g61
(g70
g63
NtRp2889
(dp2890
g66
(dp2891
g74
I3
ssg75
Nsg68
(lp2892
g61
(g77
g63
NtRp2893
(dp2894
g66
(dp2895
sg75
g2889
sg68
(lp2896
g61
(g82
g63
NtRp2897
(dp2898
g66
(dp2899
g86
g87
ssg75
g2893
sg68
(lp2900
g275
asbag61
(g82
g63
NtRp2901
(dp2902
g66
(dp2903
g93
g94
ssg75
g2893
sg68
(lp2904
S':'
asbag61
(g82
g63
NtRp2905
(dp2906
g66
(dp2907
sg75
g2893
sg68
(lp2908
g61
(g62
g63
NtRp2909
(dp2910
g66
(dp2911
g74
I3
ssg75
g2905
sg68
(lp2912
S''
asbasbasbag61
(g77
g63
NtRp2913
(dp2914
g66
(dp2915
sg75
g2889
sg68
(lp2916
g61
(g82
g63
NtRp2917
(dp2918
g66
(dp2919
g86
g87
ssg75
g2913
sg68
(lp2920
g296
asbag61
(g82
g63
NtRp2921
(dp2922
g66
(dp2923
g93
g94
ssg75
g2913
sg68
(lp2924
S':'
asbag61
(g82
g63
NtRp2925
(dp2926
g66
(dp2927
sg75
g2913
sg68
(lp2928
g61
(g62
g63
NtRp2929
(dp2930
g66
(dp2931
g74
I3
ssg75
g2925
sg68
(lp2932
S''
asbasbasbag61
(g77
g63
NtRp2933
(dp2934
g66
(dp2935
sg75
g2889
sg68
(lp2936
g61
(g82
g63
NtRp2937
(dp2938
g66
(dp2939
g86
g87
ssg75
g2933
sg68
(lp2940
g317
asbag61
(g82
g63
NtRp2941
(dp2942
g66
(dp2943
g93
g94
ssg75
g2933
sg68
(lp2944
S':'
asbag61
(g82
g63
NtRp2945
(dp2946
g66
(dp2947
sg75
g2933
sg68
(lp2948
g61
(g62
g63
NtRp2949
(dp2950
g66
(dp2951
g74
I3
ssg75
g2945
sg68
(lp2952
S''
asbasbasbag61
(g77
g63
NtRp2953
(dp2954
g66
(dp2955
sg75
g2889
sg68
(lp2956
g61
(g82
g63
NtRp2957
(dp2958
g66
(dp2959
g86
g87
ssg75
g2953
sg68
(lp2960
g338
asbag61
(g82
g63
NtRp2961
(dp2962
g66
(dp2963
g93
g94
ssg75
g2953
sg68
(lp2964
S':'
asbag61
(g82
g63
NtRp2965
(dp2966
g66
(dp2967
sg75
g2953
sg68
(lp2968
g61
(g62
g63
NtRp2969
(dp2970
g66
(dp2971
g74
I3
ssg75
g2965
sg68
(lp2972
S''
asbasbasbag61
(g77
g63
NtRp2973
(dp2974
g66
(dp2975
sg75
g2889
sg68
(lp2976
g61
(g82
g63
NtRp2977
(dp2978
g66
(dp2979
g86
g87
ssg75
g2973
sg68
(lp2980
g359
asbag61
(g82
g63
NtRp2981
(dp2982
g66
(dp2983
g93
g94
ssg75
g2973
sg68
(lp2984
S':'
asbag61
(g82
g63
NtRp2985
(dp2986
g66
(dp2987
sg75
g2973
sg68
(lp2988
g61
(g62
g63
NtRp2989
(dp2990
g66
(dp2991
g74
I3
ssg75
g2985
sg68
(lp2992
S'/'
asbasbasbag61
(g77
g63
NtRp2993
(dp2994
g66
(dp2995
sg75
g2889
sg68
(lp2996
g61
(g82
g63
NtRp2997
(dp2998
g66
(dp2999
g86
g87
ssg75
g2993
sg68
(lp3000
g380
asbag61
(g82
g63
NtRp3001
(dp3002
g66
(dp3003
g93
g94
ssg75
g2993
sg68
(lp3004
S':'
asbag61
(g82
g63
NtRp3005
(dp3006
g66
(dp3007
sg75
g2993
sg68
(lp3008
g61
(g62
g63
NtRp3009
(dp3010
g66
(dp3011
g74
I3
ssg75
g3005
sg68
(lp3012
S''
asbasbasbag61
(g77
g63
NtRp3013
(dp3014
g66
(dp3015
sg75
g2889
sg68
(lp3016
g61
(g82
g63
NtRp3017
(dp3018
g66
(dp3019
g86
g87
ssg75
g3013
sg68
(lp3020
g401
asbag61
(g82
g63
NtRp3021
(dp3022
g66
(dp3023
g93
g94
ssg75
g3013
sg68
(lp3024
S':'
asbag61
(g82
g63
NtRp3025
(dp3026
g66
(dp3027
sg75
g3013
sg68
(lp3028
g61
(g62
g63
NtRp3029
(dp3030
g66
(dp3031
g74
I3
ssg75
g3025
sg68
(lp3032
S''
asbasbasbasbasbasbasbasbasbasbasbag61
(g77
g63
NtRp3033
(dp3034
g66
(dp3035
sg75
g2819
sg68
(lp3036
g61
(g82
g63
NtRp3037
(dp3038
g66
(dp3039
g86
g87
ssg75
g3033
sg68
(lp3040
S'delimiters'
p3041
asbag61
(g82
g63
NtRp3042
(dp3043
g66
(dp3044
g93
g94
ssg75
g3033
sg68
(lp3045
S':'
asbag61
(g82
g63
NtRp3046
(dp3047
g66
(dp3048
sg75
g3033
sg68
(lp3049
g61
(g62
g63
NtRp3050
(dp3051
g66
(dp3052
g74
I5
ssg75
g3046
sg68
(lp3053
g61
(g70
g63
NtRp3054
(dp3055
g66
(dp3056
g74
I4
ssg75
Nsg68
(lp3057
g61
(g77
g63
NtRp3058
(dp3059
g66
(dp3060
sg75
g3054
sg68
(lp3061
g61
(g82
g63
NtRp3062
(dp3063
g66
(dp3064
sg75
g3058
sg68
(lp3065
g61
(g62
g63
NtRp3066
(dp3067
g66
(dp3068
g74
I4
ssg75
g3062
sg68
(lp3069
S'{{'
p3070
asbasbasbag61
(g77
g63
NtRp3071
(dp3072
g66
(dp3073
sg75
g3054
sg68
(lp3074
g61
(g82
g63
NtRp3075
(dp3076
g66
(dp3077
sg75
g3071
sg68
(lp3078
g61
(g62
g63
NtRp3079
(dp3080
g66
(dp3081
g74
I4
ssg75
g3075
sg68
(lp3082
S'}}'
p3083
asbasbasbasbasbasbasbag61
(g77
g63
NtRp3084
(dp3085
g66
(dp3086
sg75
g2819
sg68
(lp3087
g61
(g82
g63
NtRp3088
(dp3089
g66
(dp3090
g86
g87
ssg75
g3084
sg68
(lp3091
S'files'
p3092
asbag61
(g82
g63
NtRp3093
(dp3094
g66
(dp3095
g93
g94
ssg75
g3084
sg68
(lp3096
S':'
asbag61
(g82
g63
NtRp3097
(dp3098
g66
(dp3099
sg75
g3084
sg68
(lp3100
g61
(g62
g63
NtRp3101
(dp3102
g66
(dp3103
g74
I5
ssg75
g3097
sg68
(lp3104
g61
(g70
g63
NtRp3105
(dp3106
g66
(dp3107
g74
I4
ssg75
Nsg68
(lp3108
sbasbasbasbag61
(g77
g63
NtRp3109
(dp3110
g66
(dp3111
sg75
g2819
sg68
(lp3112
g61
(g82
g63
NtRp3113
(dp3114
g66
(dp3115
g86
g87
ssg75
g3109
sg68
(lp3116
S'flash'
p3117
asbag61
(g82
g63
NtRp3118
(dp3119
g66
(dp3120
g93
g94
ssg75
g3109
sg68
(lp3121
S':'
asbag61
(g82
g63
NtRp3122
(dp3123
g66
(dp3124
sg75
g3109
sg68
(lp3125
g61
(g62
g63
NtRp3126
(dp3127
g66
(dp3128
g74
I5
ssg75
g3122
sg68
(lp3129
S''
asbasbasbag61
(g77
g63
NtRp3130
(dp3131
g66
(dp3132
sg75
g2819
sg68
(lp3133
g61
(g82
g63
NtRp3134
(dp3135
g66
(dp3136
g86
g87
ssg75
g3130
sg68
(lp3137
S'generic_patterns'
p3138
asbag61
(g82
g63
NtRp3139
(dp3140
g66
(dp3141
g93
g94
ssg75
g3130
sg68
(lp3142
S':'
asbag61
(g82
g63
NtRp3143
(dp3144
g66
(dp3145
sg75
g3130
sg68
(lp3146
g61
(g62
g63
NtRp3147
(dp3148
g66
(dp3149
g74
I5
ssg75
g3143
sg68
(lp3150
g61
(g70
g63
NtRp3151
(dp3152
g66
(dp3153
g74
I4
ssg75
Nsg68
(lp3154
g61
(g77
g63
NtRp3155
(dp3156
g66
(dp3157
sg75
g3151
sg68
(lp3158
g61
(g82
g63
NtRp3159
(dp3160
g66
(dp3161
sg75
g3155
sg68
(lp3162
g61
(g62
g63
NtRp3163
(dp3164
g66
(dp3165
g74
I4
ssg75
g3159
sg68
(lp3166
S'*'
asbasbasbasbasbasbasbag61
(g77
g63
NtRp3167
(dp3168
g66
(dp3169
sg75
g2819
sg68
(lp3170
g61
(g82
g63
NtRp3171
(dp3172
g66
(dp3173
g86
g87
ssg75
g3167
sg68
(lp3174
S'headers'
p3175
asbag61
(g82
g63
NtRp3176
(dp3177
g66
(dp3178
g93
g94
ssg75
g3167
sg68
(lp3179
S':'
asbag61
(g82
g63
NtRp3180
(dp3181
g66
(dp3182
sg75
g3167
sg68
(lp3183
g61
(g62
g63
NtRp3184
(dp3185
g66
(dp3186
g74
I5
ssg75
g3180
sg68
(lp3187
g61
(g70
g63
NtRp3188
(dp3189
g66
(dp3190
g74
I4
ssg75
Nsg68
(lp3191
g61
(g77
g63
NtRp3192
(dp3193
g66
(dp3194
sg75
g3188
sg68
(lp3195
g61
(g82
g63
NtRp3196
(dp3197
g66
(dp3198
g86
g87
ssg75
g3192
sg68
(lp3199
S'Cache-Control'
p3200
asbag61
(g82
g63
NtRp3201
(dp3202
g66
(dp3203
g93
g94
ssg75
g3192
sg68
(lp3204
S':'
asbag61
(g82
g63
NtRp3205
(dp3206
g66
(dp3207
sg75
g3192
sg68
(lp3208
g61
(g62
g63
NtRp3209
(dp3210
g66
(dp3211
g74
I4
ssg75
g3205
sg68
(lp3212
S'no-store, no-cache, must-revalidate, post-check=0, pre-check=0'
p3213
asbasbasbag61
(g77
g63
NtRp3214
(dp3215
g66
(dp3216
sg75
g3188
sg68
(lp3217
g61
(g82
g63
NtRp3218
(dp3219
g66
(dp3220
g86
g87
ssg75
g3214
sg68
(lp3221
S'Content-Type'
p3222
asbag61
(g82
g63
NtRp3223
(dp3224
g66
(dp3225
g93
g94
ssg75
g3214
sg68
(lp3226
S':'
asbag61
(g82
g63
NtRp3227
(dp3228
g66
(dp3229
sg75
g3214
sg68
(lp3230
g61
(g62
g63
NtRp3231
(dp3232
g66
(dp3233
g74
I4
ssg75
g3227
sg68
(lp3234
S'text/html; charset=utf-8'
p3235
asbasbasbag61
(g77
g63
NtRp3236
(dp3237
g66
(dp3238
sg75
g3188
sg68
(lp3239
g61
(g82
g63
NtRp3240
(dp3241
g66
(dp3242
g86
g87
ssg75
g3236
sg68
(lp3243
S'Expires'
p3244
asbag61
(g82
g63
NtRp3245
(dp3246
g66
(dp3247
g93
g94
ssg75
g3236
sg68
(lp3248
S':'
asbag61
(g82
g63
NtRp3249
(dp3250
g66
(dp3251
sg75
g3236
sg68
(lp3252
g61
(g62
g63
NtRp3253
(dp3254
g66
(dp3255
g74
I4
ssg75
g3249
sg68
(lp3256
S'Tue, 06 Mar 2012 14:00:15 GMT'
p3257
asbasbasbag61
(g77
g63
NtRp3258
(dp3259
g66
(dp3260
sg75
g3188
sg68
(lp3261
g61
(g82
g63
NtRp3262
(dp3263
g66
(dp3264
g86
g87
ssg75
g3258
sg68
(lp3265
S'Pragma'
p3266
asbag61
(g82
g63
NtRp3267
(dp3268
g66
(dp3269
g93
g94
ssg75
g3258
sg68
(lp3270
S':'
asbag61
(g82
g63
NtRp3271
(dp3272
g66
(dp3273
sg75
g3258
sg68
(lp3274
g61
(g62
g63
NtRp3275
(dp3276
g66
(dp3277
g74
I4
ssg75
g3271
sg68
(lp3278
S'no-cache'
p3279
asbasbasbag61
(g77
g63
NtRp3280
(dp3281
g66
(dp3282
sg75
g3188
sg68
(lp3283
g61
(g82
g63
NtRp3284
(dp3285
g66
(dp3286
g86
g87
ssg75
g3280
sg68
(lp3287
S'X-Powered-By'
p3288
asbag61
(g82
g63
NtRp3289
(dp3290
g66
(dp3291
g93
g94
ssg75
g3280
sg68
(lp3292
S':'
asbag61
(g82
g63
NtRp3293
(dp3294
g66
(dp3295
sg75
g3280
sg68
(lp3296
g61
(g62
g63
NtRp3297
(dp3298
g66
(dp3299
g74
I4
ssg75
g3293
sg68
(lp3300
S'web2py'
p3301
asbasbasbasbasbasbasbag61
(g77
g63
NtRp3302
(dp3303
g66
(dp3304
sg75
g2819
sg68
(lp3305
g61
(g82
g63
NtRp3306
(dp3307
g66
(dp3308
g86
g87
ssg75
g3302
sg68
(lp3309
S'menu'
p3310
asbag61
(g82
g63
NtRp3311
(dp3312
g66
(dp3313
g93
g94
ssg75
g3302
sg68
(lp3314
S':'
asbag61
(g82
g63
NtRp3315
(dp3316
g66
(dp3317
sg75
g3302
sg68
(lp3318
g61
(g62
g63
NtRp3319
(dp3320
g66
(dp3321
g74
I5
ssg75
g3315
sg68
(lp3322
g61
(g70
g63
NtRp3323
(dp3324
g66
(dp3325
g74
I4
ssg75
Nsg68
(lp3326
g61
(g77
g63
NtRp3327
(dp3328
g66
(dp3329
sg75
g3323
sg68
(lp3330
g61
(g82
g63
NtRp3331
(dp3332
g66
(dp3333
sg75
g3327
sg68
(lp3334
g61
(g62
g63
NtRp3335
(dp3336
g66
(dp3337
g74
I4
ssg75
g3331
sg68
(lp3338
g61
(g70
g63
NtRp3339
(dp3340
g66
(dp3341
g74
I3
ssg75
Nsg68
(lp3342
g61
(g77
g63
NtRp3343
(dp3344
g66
(dp3345
sg75
g3339
sg68
(lp3346
g61
(g82
g63
NtRp3347
(dp3348
g66
(dp3349
sg75
g3343
sg68
(lp3350
g61
(g62
g63
NtRp3351
(dp3352
g66
(dp3353
g74
I3
ssg75
g3347
sg68
(lp3354
cgluon.languages
lazyT_unpickle
p3355
(S't\x04\x00\x00\x00Home'
tRp3356
asbasbasbag61
(g77
g63
NtRp3357
(dp3358
g66
(dp3359
sg75
g3339
sg68
(lp3360
g61
(g82
g63
NtRp3361
(dp3362
g66
(dp3363
sg75
g3357
sg68
(lp3364
g61
(g62
g63
NtRp3365
(dp3366
g66
(dp3367
g74
I3
ssg75
g3361
sg68
(lp3368
g104
asbasbasbag61
(g77
g63
NtRp3369
(dp3370
g66
(dp3371
sg75
g3339
sg68
(lp3372
g61
(g82
g63
NtRp3373
(dp3374
g66
(dp3375
sg75
g3369
sg68
(lp3376
g61
(g62
g63
NtRp3377
(dp3378
g66
(dp3379
g74
I3
ssg75
g3373
sg68
(lp3380
S'/parleyweb/default/index'
p3381
asbasbasbag61
(g77
g63
NtRp3382
(dp3383
g66
(dp3384
sg75
g3339
sg68
(lp3385
g61
(g82
g63
NtRp3386
(dp3387
g66
(dp3388
sg75
g3382
sg68
(lp3389
g61
(g62
g63
NtRp3390
(dp3391
g66
(dp3392
g74
I3
ssg75
g3386
sg68
(lp3393
g61
(g70
g63
NtRp3394
(dp3395
g66
(dp3396
g74
I2
ssg75
Nsg68
(lp3397
sbasbasbasbasbasbasbasbasbasbasbasbag61
(g77
g63
NtRp3398
(dp3399
g66
(dp3400
sg75
g2819
sg68
(lp3401
g61
(g82
g63
NtRp3402
(dp3403
g66
(dp3404
g86
g87
ssg75
g3398
sg68
(lp3405
S'meta'
p3406
asbag61
(g82
g63
NtRp3407
(dp3408
g66
(dp3409
g93
g94
ssg75
g3398
sg68
(lp3410
S':'
asbag61
(g82
g63
NtRp3411
(dp3412
g66
(dp3413
sg75
g3398
sg68
(lp3414
g61
(g62
g63
NtRp3415
(dp3416
g66
(dp3417
g74
I5
ssg75
g3411
sg68
(lp3418
g61
(g70
g63
NtRp3419
(dp3420
g66
(dp3421
g74
I4
ssg75
Nsg68
(lp3422
g61
(g77
g63
NtRp3423
(dp3424
g66
(dp3425
sg75
g3419
sg68
(lp3426
g61
(g82
g63
NtRp3427
(dp3428
g66
(dp3429
g86
g87
ssg75
g3423
sg68
(lp3430
S'author'
p3431
asbag61
(g82
g63
NtRp3432
(dp3433
g66
(dp3434
g93
g94
ssg75
g3423
sg68
(lp3435
S':'
asbag61
(g82
g63
NtRp3436
(dp3437
g66
(dp3438
sg75
g3423
sg68
(lp3439
g61
(g62
g63
NtRp3440
(dp3441
g66
(dp3442
g74
I4
ssg75
g3436
sg68
(lp3443
S'Your Name <you@example.com>'
p3444
asbasbasbag61
(g77
g63
NtRp3445
(dp3446
g66
(dp3447
sg75
g3419
sg68
(lp3448
g61
(g82
g63
NtRp3449
(dp3450
g66
(dp3451
g86
g87
ssg75
g3445
sg68
(lp3452
S'copyright'
p3453
asbag61
(g82
g63
NtRp3454
(dp3455
g66
(dp3456
g93
g94
ssg75
g3445
sg68
(lp3457
S':'
asbag61
(g82
g63
NtRp3458
(dp3459
g66
(dp3460
sg75
g3445
sg68
(lp3461
g61
(g62
g63
NtRp3462
(dp3463
g66
(dp3464
g74
I4
ssg75
g3458
sg68
(lp3465
S'Copyright 2011'
p3466
asbasbasbag61
(g77
g63
NtRp3467
(dp3468
g66
(dp3469
sg75
g3419
sg68
(lp3470
g61
(g82
g63
NtRp3471
(dp3472
g66
(dp3473
g86
g87
ssg75
g3467
sg68
(lp3474
S'description'
p3475
asbag61
(g82
g63
NtRp3476
(dp3477
g66
(dp3478
g93
g94
ssg75
g3467
sg68
(lp3479
S':'
asbag61
(g82
g63
NtRp3480
(dp3481
g66
(dp3482
sg75
g3467
sg68
(lp3483
g61
(g62
g63
NtRp3484
(dp3485
g66
(dp3486
g74
I4
ssg75
g3480
sg68
(lp3487
S'a cool new app'
p3488
asbasbasbag61
(g77
g63
NtRp3489
(dp3490
g66
(dp3491
sg75
g3419
sg68
(lp3492
g61
(g82
g63
NtRp3493
(dp3494
g66
(dp3495
g86
g87
ssg75
g3489
sg68
(lp3496
S'generator'
p3497
asbag61
(g82
g63
NtRp3498
(dp3499
g66
(dp3500
g93
g94
ssg75
g3489
sg68
(lp3501
S':'
asbag61
(g82
g63
NtRp3502
(dp3503
g66
(dp3504
sg75
g3489
sg68
(lp3505
g61
(g62
g63
NtRp3506
(dp3507
g66
(dp3508
g74
I4
ssg75
g3502
sg68
(lp3509
S'Web2py Web Framework'
p3510
asbasbasbag61
(g77
g63
NtRp3511
(dp3512
g66
(dp3513
sg75
g3419
sg68
(lp3514
g61
(g82
g63
NtRp3515
(dp3516
g66
(dp3517
g86
g87
ssg75
g3511
sg68
(lp3518
S'keywords'
p3519
asbag61
(g82
g63
NtRp3520
(dp3521
g66
(dp3522
g93
g94
ssg75
g3511
sg68
(lp3523
S':'
asbag61
(g82
g63
NtRp3524
(dp3525
g66
(dp3526
sg75
g3511
sg68
(lp3527
g61
(g62
g63
NtRp3528
(dp3529
g66
(dp3530
g74
I4
ssg75
g3524
sg68
(lp3531
S'web2py, python, framework'
p3532
asbasbasbasbasbasbasbag61
(g77
g63
NtRp3533
(dp3534
g66
(dp3535
sg75
g2819
sg68
(lp3536
g61
(g82
g63
NtRp3537
(dp3538
g66
(dp3539
g86
g87
ssg75
g3533
sg68
(lp3540
S'postprocessing'
p3541
asbag61
(g82
g63
NtRp3542
(dp3543
g66
(dp3544
g93
g94
ssg75
g3533
sg68
(lp3545
S':'
asbag61
(g82
g63
NtRp3546
(dp3547
g66
(dp3548
sg75
g3533
sg68
(lp3549
g61
(g62
g63
NtRp3550
(dp3551
g66
(dp3552
g74
I5
ssg75
g3546
sg68
(lp3553
g61
(g70
g63
NtRp3554
(dp3555
g66
(dp3556
g74
I4
ssg75
Nsg68
(lp3557
sbasbasbasbag61
(g77
g63
NtRp3558
(dp3559
g66
(dp3560
sg75
g2819
sg68
(lp3561
g61
(g82
g63
NtRp3562
(dp3563
g66
(dp3564
g86
g87
ssg75
g3558
sg68
(lp3565
S'session_file'
p3566
asbag61
(g82
g63
NtRp3567
(dp3568
g66
(dp3569
g93
g94
ssg75
g3558
sg68
(lp3570
S':'
asbag61
(g82
g63
NtRp3571
(dp3572
g66
(dp3573
sg75
g3558
sg68
(lp3574
g61
(g62
g63
NtRp3575
(dp3576
g66
(dp3577
g74
I5
ssg75
g3571
sg68
(lp3578
S"<open file 'D:\\Dise\xf1o Web\\Proyectos\\Parleyweb\\web2py\\applications\\parleyweb\\sessions\\127.0.0.1-4ad37d94-4a84-49cf-9f5c-a27f320cc3b3', mode 'rb+' at 0x032C1F50>"
p3579
asbasbasbag61
(g77
g63
NtRp3580
(dp3581
g66
(dp3582
sg75
g2819
sg68
(lp3583
g61
(g82
g63
NtRp3584
(dp3585
g66
(dp3586
g86
g87
ssg75
g3580
sg68
(lp3587
S'session_filename'
p3588
asbag61
(g82
g63
NtRp3589
(dp3590
g66
(dp3591
g93
g94
ssg75
g3580
sg68
(lp3592
S':'
asbag61
(g82
g63
NtRp3593
(dp3594
g66
(dp3595
sg75
g3580
sg68
(lp3596
g61
(g62
g63
NtRp3597
(dp3598
g66
(dp3599
g74
I5
ssg75
g3593
sg68
(lp3600
S'D:\\Dise\xf1o Web\\Proyectos\\Parleyweb\\web2py\\applications\\parleyweb\\sessions\\127.0.0.1-4ad37d94-4a84-49cf-9f5c-a27f320cc3b3'
p3601
asbasbasbag61
(g77
g63
NtRp3602
(dp3603
g66
(dp3604
sg75
g2819
sg68
(lp3605
g61
(g82
g63
NtRp3606
(dp3607
g66
(dp3608
g86
g87
ssg75
g3602
sg68
(lp3609
S'session_id'
p3610
asbag61
(g82
g63
NtRp3611
(dp3612
g66
(dp3613
g93
g94
ssg75
g3602
sg68
(lp3614
S':'
asbag61
(g82
g63
NtRp3615
(dp3616
g66
(dp3617
sg75
g3602
sg68
(lp3618
g61
(g62
g63
NtRp3619
(dp3620
g66
(dp3621
g74
I5
ssg75
g3615
sg68
(lp3622
S'127.0.0.1-4ad37d94-4a84-49cf-9f5c-a27f320cc3b3'
p3623
asbasbasbag61
(g77
g63
NtRp3624
(dp3625
g66
(dp3626
sg75
g2819
sg68
(lp3627
g61
(g82
g63
NtRp3628
(dp3629
g66
(dp3630
g86
g87
ssg75
g3624
sg68
(lp3631
S'session_id_name'
p3632
asbag61
(g82
g63
NtRp3633
(dp3634
g66
(dp3635
g93
g94
ssg75
g3624
sg68
(lp3636
S':'
asbag61
(g82
g63
NtRp3637
(dp3638
g66
(dp3639
sg75
g3624
sg68
(lp3640
g61
(g62
g63
NtRp3641
(dp3642
g66
(dp3643
g74
I5
ssg75
g3637
sg68
(lp3644
g2876
asbasbasbag61
(g77
g63
NtRp3645
(dp3646
g66
(dp3647
sg75
g2819
sg68
(lp3648
g61
(g82
g63
NtRp3649
(dp3650
g66
(dp3651
g86
g87
ssg75
g3645
sg68
(lp3652
S'session_locked'
p3653
asbag61
(g82
g63
NtRp3654
(dp3655
g66
(dp3656
g93
g94
ssg75
g3645
sg68
(lp3657
S':'
asbag61
(g82
g63
NtRp3658
(dp3659
g66
(dp3660
sg75
g3645
sg68
(lp3661
g61
(g62
g63
NtRp3662
(dp3663
g66
(dp3664
g74
I5
ssg75
g3658
sg68
(lp3665
g1456
asbasbasbag61
(g77
g63
NtRp3666
(dp3667
g66
(dp3668
sg75
g2819
sg68
(lp3669
g61
(g82
g63
NtRp3670
(dp3671
g66
(dp3672
g86
g87
ssg75
g3666
sg68
(lp3673
S'session_new'
p3674
asbag61
(g82
g63
NtRp3675
(dp3676
g66
(dp3677
g93
g94
ssg75
g3666
sg68
(lp3678
S':'
asbag61
(g82
g63
NtRp3679
(dp3680
g66
(dp3681
sg75
g3666
sg68
(lp3682
g61
(g62
g63
NtRp3683
(dp3684
g66
(dp3685
g74
I5
ssg75
g3679
sg68
(lp3686
g104
asbasbasbag61
(g77
g63
NtRp3687
(dp3688
g66
(dp3689
sg75
g2819
sg68
(lp3690
g61
(g82
g63
NtRp3691
(dp3692
g66
(dp3693
g86
g87
ssg75
g3687
sg68
(lp3694
S'status'
p3695
asbag61
(g82
g63
NtRp3696
(dp3697
g66
(dp3698
g93
g94
ssg75
g3687
sg68
(lp3699
S':'
asbag61
(g82
g63
NtRp3700
(dp3701
g66
(dp3702
sg75
g3687
sg68
(lp3703
g61
(g62
g63
NtRp3704
(dp3705
g66
(dp3706
g74
I5
ssg75
g3700
sg68
(lp3707
S'200'
p3708
asbasbasbag61
(g77
g63
NtRp3709
(dp3710
g66
(dp3711
sg75
g2819
sg68
(lp3712
g61
(g82
g63
NtRp3713
(dp3714
g66
(dp3715
g86
g87
ssg75
g3709
sg68
(lp3716
S'subtitle'
p3717
asbag61
(g82
g63
NtRp3718
(dp3719
g66
(dp3720
g93
g94
ssg75
g3709
sg68
(lp3721
S':'
asbag61
(g82
g63
NtRp3722
(dp3723
g66
(dp3724
sg75
g3709
sg68
(lp3725
g61
(g62
g63
NtRp3726
(dp3727
g66
(dp3728
g74
I5
ssg75
g3722
sg68
(lp3729
g3355
(S's\t\x00\x00\x00Adaptame!'
tRp3730
asbasbasbag61
(g77
g63
NtRp3731
(dp3732
g66
(dp3733
sg75
g2819
sg68
(lp3734
g61
(g82
g63
NtRp3735
(dp3736
g66
(dp3737
g86
g87
ssg75
g3731
sg68
(lp3738
S'title'
p3739
asbag61
(g82
g63
NtRp3740
(dp3741
g66
(dp3742
g93
g94
ssg75
g3731
sg68
(lp3743
S':'
asbag61
(g82
g63
NtRp3744
(dp3745
g66
(dp3746
sg75
g3731
sg68
(lp3747
g61
(g62
g63
NtRp3748
(dp3749
g66
(dp3750
g74
I5
ssg75
g3744
sg68
(lp3751
S'Parleyweb'
p3752
asbasbasbag61
(g77
g63
NtRp3753
(dp3754
g66
(dp3755
sg75
g2819
sg68
(lp3756
g61
(g82
g63
NtRp3757
(dp3758
g66
(dp3759
g86
g87
ssg75
g3753
sg68
(lp3760
g2120
asbag61
(g82
g63
NtRp3761
(dp3762
g66
(dp3763
g93
g94
ssg75
g3753
sg68
(lp3764
S':'
asbag61
(g82
g63
NtRp3765
(dp3766
g66
(dp3767
sg75
g3753
sg68
(lp3768
g61
(g62
g63
NtRp3769
(dp3770
g66
(dp3771
g74
I5
ssg75
g3765
sg68
(lp3772
g2133
asbasbasbag61
(g77
g63
NtRp3773
(dp3774
g66
(dp3775
sg75
g2819
sg68
(lp3776
g61
(g82
g63
NtRp3777
(dp3778
g66
(dp3779
g86
g87
ssg75
g3773
sg68
(lp3780
S'view'
p3781
asbag61
(g82
g63
NtRp3782
(dp3783
g66
(dp3784
g93
g94
ssg75
g3773
sg68
(lp3785
S':'
asbag61
(g82
g63
NtRp3786
(dp3787
g66
(dp3788
sg75
g3773
sg68
(lp3789
g61
(g62
g63
NtRp3790
(dp3791
g66
(dp3792
g74
I5
ssg75
g3786
sg68
(lp3793
S'admin/agregar_palabra.html'
p3794
asbasbasbasbasbsS'locals'
p3795
(dp3796
g4
S"'D:\\\\Dise\\xf1o Web\\\\Proyectos\\\\Parleyweb\\\\web2py\\\\applications\\\\parleyweb\\\\views\\\\admin/agregar_palabra.html'"
p3797
sg6
S'r"response.write(\'<!DOCTYPE html>\\n<!-- paulirish....\\n    \\n\\n \\n\\n</body>\\n</html>\\n\', escape=False)"'
p3798
sssS'traceback'
p3799
S'Traceback (most recent call last):\n  File "gluon/restricted.py", line 204, in restricted\n  File "gluon/restricted.py", line 189, in compile2\n  File "D:\\Dise\xf1o Web\\Proyectos\\Parleyweb\\web2py\\applications\\parleyweb\\views\\admin/agregar_palabra.html", line 132\n    response.write(A(i.palabra), args=))\n                                      ^\nSyntaxError: invalid syntax\n'
p3800
s.