(dp1
S'output'
p2
S"<type 'exceptions.KeyError'> 'ejemplo_de'"
p3
sS'layer'
p4
S'D:\\Dise\xf1o Web\\Proyectos\\Parleyweb\\web2py\\applications\\parleyweb\\views\\default/mostrar.html'
p5
sS'code'
p6
S'response.write(\'<!DOCTYPE html>\\n<!-- paulirish.com/2008/conditional-stylesheets-vs-css-hacks-answer-neither/ -->\\n<!--[if lt IE 7]><html class="ie ie6 ie-lte9 ie-lte8 ie-lte7 no-js" lang="\', escape=False)\nresponse.write(T.accepted_language or \'en\')\nresponse.write(\'"> <![endif]-->\\n<!--[if IE 7]><html class="ie ie7 ie-lte9 ie-lte8 ie-lte7 no-js" lang="\', escape=False)\nresponse.write(T.accepted_language or \'en\')\nresponse.write(\'"> <![endif]-->\\n<!--[if IE 8]><html class="ie ie8 ie-lte9 ie-lte8 no-js" lang="\', escape=False)\nresponse.write(T.accepted_language or \'en\')\nresponse.write(\'"> <![endif]-->\\n<!--[if IE 9]><html class="ie9 ie-lte9 no-js" lang="\', escape=False)\nresponse.write(T.accepted_language or \'en\')\nresponse.write(\'"> <![endif]-->\\n<!--[if (gt IE 9)|!(IE)]><!--> <html class="no-js" lang="\', escape=False)\nresponse.write(T.accepted_language or \'en\')\nresponse.write(\'"> <!--<![endif]-->\\n<head>\\n  <meta charset="utf-8" />\\n  <!-- www.phpied.com/conditional-comments-block-downloads/ -->\\n  <!-- Always force latest IE rendering engine\\n\\t   (even in intranet) & Chrome Frame\\n\\t   Remove this if you use the .htaccess -->\\n  <!--[if IE]>\\n    <meta http-equiv="X-UA-Compatible" content="IE=edge\', escape=False)\nresponse.write(not request.is_local and \',chrome=1\' or \'\')\nresponse.write(\'">\\n  <![endif]-->\\n  \\n  <title>\', escape=False)\nresponse.write(response.title or request.application)\nresponse.write(\'</title>\\n  \\n  <!-- http://dev.w3.org/html5/markup/meta.name.html -->\\n  <meta name="application-name" content="\', escape=False)\nresponse.write(request.application)\nresponse.write(\'" />\\n  \\n  <!-- Speaking of Google, don\\\'t forget to set your site up:\\n\\t   http://google.com/webmasters -->\\n  <meta name="google-site-verification" content="" />\\n\\n  <!--  Mobile Viewport Fix\\n\\t  j.mp/mobileviewport & davidbcalhoun.com/2010/viewport-metatag\\n\\t  device-width: Occupy full width of the screen in its current orientation\\n\\t  initial-scale = 1.0 retains dimensions instead of zooming out if page height > device height\\n\\t  user-scalable = yes allows the user to zoom in -->\\n  <meta name="viewport" content="width=device-width, initial-scale=1.0, user-scalable=yes">\\n  \\n  <!-- Place favicon.ico and apple-touch-icon.png in the root of your domain and delete these references -->\\n  <link rel="shortcut icon" href="\', escape=False)\nresponse.write(URL(\'static\',\'favicon.ico\'))\nresponse.write(\'" type="image/x-icon">\\n  <link rel="apple-touch-icon" href="\', escape=False)\nresponse.write(URL(\'static\',\'favicon.png\'))\nresponse.write(\'">\\n\\n  <!-- All JavaScript at the bottom, except for Modernizr which enables \\n\\t   HTML5 elements & feature detects -->\\n  <script src="\', escape=False)\nresponse.write(URL(\'static\',\'js/modernizr.custom.js\'))\nresponse.write(\'"></script>  \\n\\n  <!-- include stylesheets -->\\n  \', escape=False)\nresponse.files.append(URL(\'static\',\'css/bootstrap.css\'))\nresponse.files.append(URL(\'static\',\'js/bootstrap.js\'))\nresponse.files.append(URL(\'static\',\'css/parleyweb.css\'))\nresponse.files.append(URL(\'static\',\'css/jquery-ui-1.8.18.custom.css\'))\nresponse.files.append(URL(\'static\',\'js/parleyweb.js\'))\nresponse.files.append(URL(\'static\',\'js/jquery-ui-1.8.18.custom.min.js\'))\nresponse.write(\'\\n\\n  \', escape=False)\nresponse.write(\'<script type="text/javascript"><!--\\n    // These variables are used by the web2py_ajax_init function in web2py_ajax.js (which is loaded below).\\n    var w2p_ajax_confirm_message = "\', escape=False)\nresponse.write(T(\'Are you sure you want to delete this object?\'))\nresponse.write(\'";\\n    var w2p_ajax_date_format = "\', escape=False)\nresponse.write(T(\'%Y-%m-%d\'))\nresponse.write(\'";\\n    var w2p_ajax_datetime_format = "\', escape=False)\nresponse.write(T(\'%Y-%m-%d %H:%M:%S\'))\nresponse.write(\'";\\n    //--></script>\\n\', escape=False)\nresponse.files.insert(0,URL(\'static\',\'js/jquery.js\'))\nresponse.files.insert(1,URL(\'static\',\'css/calendar.css\'))\nresponse.files.insert(2,URL(\'static\',\'js/calendar.js\'))\nresponse.files.insert(3,URL(\'static\',\'js/web2py.js\'))\nresponse.include_meta()\nresponse.include_files()\nresponse.write(\'\\n\', escape=False)\nresponse.write(\'\\n\\n  \\n\\n  \', escape=False)\n# using sidebars need to know what sidebar you want to use\nleft_sidebar_enabled = globals().get(\'left_sidebar_enabled\',False)\nright_sidebar_enabled = globals().get(\'right_sidebar_enabled\',False)\nmiddle_columns = {0:\'sixteen\',1:\'twelve\',2:\'eight\'}[\n(left_sidebar_enabled and 1 or 0)+(right_sidebar_enabled and 1 or 0)]\nresponse.write(\'\\n\\n  <!-- uncomment here to load jquery-ui\\n  <link rel="stylesheet" href="http://ajax.googleapis.com/ajax/libs/jqueryui/1.8.16/themes/base/jquery-ui.css" type="text/css" media="all" />\\n  <script src="http://ajax.googleapis.com/ajax/libs/jqueryui/1.8.16/jquery-ui.min.js" type="text/javascript"></script>\\n  uncomment to load jquery-ui //-->\\n</head>\\n <body>\\n\\n    <div class="navbar navbar-fixed-top">\\n      <div class="navbar-inner">\\n        <div class="container-fluid">\\n          <a class="btn btn-navbar" data-toggle="collapse" data-target=".nav-collapse">\\n            <span class="icon-bar"></span>\\n            <span class="icon-bar"></span>\\n            <span class="icon-bar"></span>\\n          </a>\\n          <a class="brand" href="#">Parleyweb</a>\\n          <div class="nav-collapse">\\n\\t    \', escape=False)\n#=MENU(response.menu, _class="nav active")\nresponse.write(\'\\n            <ul class="nav">\\n              <li>\', escape=False)\nresponse.write(A(T(\'Administracion\'), _href=URL(\'admin\', \'index\')))\nresponse.write(\'</li>\\n            </ul>\\n\\t    \\n            <p class="navbar-text pull-right">\', escape=False)\nresponse.write(\'auth\' in globals() and auth.navbar(separators=(\' \',\' | \',\'\')))\nresponse.write(\'</p>\\n          </div><!--/.nav-collapse -->\\n        </div>\\n      </div>\\n    </div>\\n    <div class="flash alert alert-info"></i>\', escape=False)\nresponse.write(response.flash or \'\')\nresponse.write(\'</div>\\n    <div class="container-fluid">\\n      <div class="row-fluid">\\n        <div class="span3">\\n          <div class="well sidebar-nav">\\n            <ul class="nav nav-list">\\n              <li class="nav-header">\', escape=False)\nresponse.write(T(\'Buscar\'))\nresponse.write(\'</li>\\n            </ul>\\n          </div><!--/.well -->\\n        </div><!--/span-->\\n        <div class="span9">\\n\\t  \', escape=False)\nresponse.write(\'\\n\\t    \', escape=False)\nresponse.write(\'\\n\\n   \', escape=False)\nif palabras:\n    response.write(\'                                                             <!-- INICIO IF PALABRAS -->\\n   \\n        \\n        \\n       <h3 class="h3_redondo">\', escape=False)\n    response.write(palabras.palabra.capitalize())\n    response.write(\'</h3>\\n       \\n                                                                                <!-- SI LA PALABRA ES UN VERBO Y SUSTANTIVO A LA VEZ -->\\n       \\n        \', escape=False)\n    if palabras.sustantivo==True and palabras.verbo==True:\n        response.write(\'  <!-- 1 -->\\n        <div class="btn-group botones_mostrar" data-toggle="buttons-checkbox">\\n           <!-- <button class="btn btn-info " onclick=\\\'$("#toggle1-mostrar").slideToggle(200);\\\'>Mostrar como sustantivo</button> -->\\n            <button class="btn btn-info toggle-mostrar-verbo">\\n                <span class="mostrar-verbo"><i class="icon-plus-sign icon-white"></i> Mostrar verbo</span>\\n                <span class="ocultar-verbo hide"><i class="icon-minus-sign icon-white"></i> Ocultar</span>\\n            </button>\\n            <!--<button class="btn btn-info">Ambos</button> -->\\n            <button class="btn btn-info toggle-mostrar-sustantivo">\\n                <span class="mostrar-sustantivo"><i class="icon-plus-sign icon-white"></i> Mostrar sustantivo</span>\\n                <span class="ocultar-sustantivo hide"><i class="icon-minus-sign icon-white"></i> Ocultar</span>\\n            </button>\\n        </div>\\n        <div id="toggle-mostrar-verbo" class="hide">                            <!-- INICIO DIV OCULTO PARA MOSTRAR EL VERBO -->\\n            <div class="toggle-mostrar"><h4>Verbo</h4></div>\\n            <div class="wellparley2">\\n                <h4 class="h4-mostrar">Ejemplos</h4>\\n                <table class="table table-striped table-bordered">\\n                    <thead>\\n                        <tr>\\n                            <th>\', escape=False)\n        response.write(IMG(_src=URL(\'static\', \'images/germany.gif\')))\n        response.write(\'</th>\\n                            <th>\', escape=False)\n        response.write(IMG(_src=URL(\'static\', \'images/spain.gif\')))\n        response.write(\'</th>\\n                            <th>Fuente</th>\\n                        </tr>\\n                    </thead>\\n                    <tbody>\\n                       \\n                        \', escape=False)\n        for registro in ejemplos(db.ejemplos.tipo==\'verbo\').select(db.ejemplos.ALL):\n            response.write(\'\\n                           \\n                        <tr>\\n                            <td>\\n                                \', escape=False)\n            response.write(registro.ejemplo_de)\n            response.write(\'\\n                            </td>\\n                            <td>\\n                                \', escape=False)\n            response.write(registro.ejemplo_es)\n            response.write(\'\\n                               \\n                            </td>\\n                               \\n                            <td>\\n                                 \', escape=False)\n            if registro.fuente:\n                response.write(\'\\n                                    \', escape=False)\n                response.write(registro.fuente.nombre)\n                response.write(\'\\n                                \', escape=False)\n                pass\n            response.write(\'\\n                            </td>\\n                        </tr>\\n                        \', escape=False)\n            pass\n        response.write(\'\\n                    </tbody>\\n                </table>\\n                \\n            </div>\\n        </div>                                                                  <!-- FIN DIV OCULTO PARA MOSTRAR EL VERBO -->\\n        \\n        \\n        <div id="toggle-mostrar-sustantivo" class="hide">                       <!-- INICIO DIV OCULTO PARA MOSTRAR EL SUSTANTIVO -->\\n            <div class="toggle-mostrar">\\n                <h4>Sustantivo</h4>\\n                <a href="#" class="tip" rel="tooltip" \', escape=False)\n        if palabras.articulo==\'Die\':\n            response.write(\'\\n                                                            title="Femenino"\\n                                                        \', escape=False)\n        elif palabras.articulo==\'Der\':\n            response.write(\'\\n                                                            title="Masculino"\\n                                                        \', escape=False)\n        elif palabras.articulo==\'Das\':\n            response.write(\'\\n                                                            title="Neutro"\\n                                                        \', escape=False)\n        else:\n            response.write(\'\\n                                                            title="No hay"\\n                                                        \', escape=False)\n            pass\n        response.write(\'>\\n                    \', escape=False)\n        response.write(palabras.articulo.capitalize())\n        response.write(\'\\n                </a>\\n                <span>\', escape=False)\n        response.write(palabras.palabra.capitalize())\n        response.write(\'</span>\\n                <span>-</span>\\n                <a href="#" class="tip" rel="tooltip" title="Plural">(\', escape=False)\n        response.write(palabras.plural)\n        response.write(\')</a>\\n                <a href="#" class="float_right tip img ocultar-tip"  rel="tooltip" title="Mostrar"><i class="icon-camera icon-white"></i></a>\\n                <a href="#" class="float_right tip img mostrar-tip" id="ocultar-tip" rel="tooltip" title="Ocultar"><i class="icon-camera icon-white"></i></a>\\n            </div>\\n            <div class="wellparley2">\\n                <div id="imagen-sustantivo" class="hide"> \\n                    \', escape=False)\n        if not palabras.imagen:\n            response.write(\'\\n                        <p>No hay imagen</p>\\n                    \', escape=False)\n        else:\n            response.write(\'\\n                        <img class="img-sustantivo" src="\', escape=False)\n            response.write(URL(\'download\', args=palabras.imagen))\n            response.write(\'" />\\n                    \', escape=False)\n            pass\n        response.write(\'\\n                </div>\\n                <h4 class="h4-mostrar">Ejemplos</h4>\\n                <table class="table table-striped table-bordered">\\n                    <thead>\\n                        <tr>\\n                            <th>\', escape=False)\n        response.write(IMG(_src=URL(\'static\', \'images/germany.gif\')))\n        response.write(\'</th>\\n                            <th>\', escape=False)\n        response.write(IMG(_src=URL(\'static\', \'images/spain.gif\')))\n        response.write(\'</th>\\n                            <th>Fuente</th>\\n                        </tr>\\n                    </thead>\\n                    <tbody>\\n                        \', escape=False)\n        for registro in ejemplos(db.ejemplos.tipo==\'sustantivo\').select(db.ejemplos.ALL):\n            response.write(\'\\n                        <tr>\\n                            <td>\\n                                \', escape=False)\n            response.write(registro.ejemplo_de)\n            response.write(\'\\n                            </td>\\n                            <td>\\n                                \', escape=False)\n            response.write(registro.ejemplo_es)\n            response.write(\'\\n                            </td>\\n                               \\n                            <td>\\n                                 \', escape=False)\n            if registro.fuente:\n                response.write(\'\\n                                    \', escape=False)\n                response.write(registro.fuente.nombre)\n                response.write(\'\\n                                \', escape=False)\n                pass\n            response.write(\'\\n                            </td>\\n                        </tr>\\n                        \', escape=False)\n            pass\n        response.write(\'\\n                    </tbody>\\n                </table>\\n            </div>\\n        </div>                                                                  <!-- FIN DIV OCULTO PARA MOSTRAR EL SUSTANTIVO -->\\n        \\n                                                                                <!-- FIN SI LA PALABRA ES UN SUSTANTIVO Y VERBO A LA VEZ -->\\n                        \\n                                                                                 <!-- SIN  LA PALABRA ES SOLO UN SUSTANTIVO -->\\n        \\n        \', escape=False)\n    elif palabras.sustantivo==True:\n        response.write(\' <!-- 2 -->\\n            <div class="toggle-mostrar">\\n                <h4>Sustantivo</h4>\\n                <a href="#" class="tip" rel="tooltip" \', escape=False)\n        if palabras.articulo==\'Die\':\n            response.write(\'\\n                                                            title="Femenino"\\n                                                        \', escape=False)\n        elif palabras.articulo==\'Der\':\n            response.write(\'\\n                                                            title="Masculino"\\n                                                        \', escape=False)\n        elif palabras.articulo==\'Das\':\n            response.write(\'\\n                                                            title="Neutro"\\n                                                        \', escape=False)\n        else:\n            response.write(\'\\n                                                            title="No hay"\\n                                                        \', escape=False)\n            pass\n        response.write(\'>\\n                    \', escape=False)\n        response.write(palabras.articulo.capitalize())\n        response.write(\'\\n                </a>\\n                <span>\', escape=False)\n        response.write(palabras.palabra.capitalize())\n        response.write(\'</span>\\n                <span>-</span>\\n                <a href="#" class="tip" rel="tooltip" title="Plural">(\', escape=False)\n        response.write(palabras.plural)\n        response.write(\')</a>\\n                <a href="#" class="float_right tip img ocultar-tip"  rel="tooltip" title="Mostrar"><i class="icon-camera icon-white"></i></a>\\n                <a href="#" class="float_right tip img mostrar-tip" id="ocultar-tip" rel="tooltip" title="Ocultar"><i class="icon-camera icon-white"></i></a>\\n            </div>\\n            <div class="wellparley2">\\n                <div id="imagen-sustantivo" class="hide"> \\n                    \', escape=False)\n        if not palabras.imagen:\n            response.write(\'\\n                        <p>No hay imagen</p>\\n                    \', escape=False)\n        else:\n            response.write(\'\\n                        <img class="img-sustantivo" src="\', escape=False)\n            response.write(URL(\'download\', args=palabras.imagen))\n            response.write(\'" />\\n                    \', escape=False)\n            pass\n        response.write(\'\\n                </div>\\n                <h4 class="h4-mostrar">Ejemplos</h4>\\n                <table class="table table-striped table-bordered">\\n                    <tbody>\\n                        <thead>\\n                        <tr>\\n                            <th>\', escape=False)\n        response.write(IMG(_src=URL(\'static\', \'images/germany.gif\')))\n        response.write(\'</th>\\n                            <th>\', escape=False)\n        response.write(IMG(_src=URL(\'static\', \'images/spain.gif\')))\n        response.write(\'</th>\\n                            <th>Fuente</th>\\n                        </tr>\\n                    </thead>\\n                          \', escape=False)\n        for registro in ejemplos(db.ejemplos.tipo==\'sustantivo\').select(db.ejemplos.ALL):\n            response.write(\'\\n                        <tr>\\n                            <td>\\n                                \', escape=False)\n            response.write(registro.ejemplo_de)\n            response.write(\'\\n                            </td>\\n                            <td>\\n                                \', escape=False)\n            response.write(registro.ejemplo_es)\n            response.write(\'\\n                            </td>\\n                               \\n                            <td>\\n                                 \', escape=False)\n            if registro.fuente:\n                response.write(\'\\n                                    \', escape=False)\n                response.write(registro.fuente.nombre)\n                response.write(\'\\n                                \', escape=False)\n                pass\n            response.write(\'\\n                            </td>\\n                        </tr>\\n                        \', escape=False)\n            pass\n        response.write(\'\\n                    </tbody>\\n                </table>\\n            </div>\\n            \\n        \', escape=False)\n    elif palabras.adjetivo==True and palabras.adverbio==True:\n        response.write(\'           <!-- SI LA PALABRAS ES UN ADJETIVO Y UN ADVERBIO -->\\n            <div class="btn-group botones_mostrar" data-toggle="buttons-checkbox">\\n           <!-- <button class="btn btn-info " onclick=\\\'$("#toggle1-mostrar").slideToggle(200);\\\'>Mostrar como sustantivo</button> -->\\n            <button class="btn btn-info toggle-mostrar-verbo">\\n                <span class="mostrar-verbo"><i class="icon-plus-sign icon-white"></i> Mostrar Adverbio</span>\\n                <span class="ocultar-verbo hide"><i class="icon-minus-sign icon-white"></i> Ocultar</span>\\n            </button>\\n            <!--<button class="btn btn-info">Ambos</button> -->\\n            <button class="btn btn-info toggle-mostrar-sustantivo">\\n                <span class="mostrar-sustantivo"><i class="icon-plus-sign icon-white"></i> Mostrar Adjetivo</span>\\n                <span class="ocultar-sustantivo hide"><i class="icon-minus-sign icon-white"></i> Ocultar</span>\\n            </button>\\n        </div>\\n        <div id="toggle-mostrar-verbo" class="hide">                            <!-- INICIO DIV OCULTO PARA MOSTRAR EL ADVERBIO -->\\n            <div class="toggle-mostrar"><h4>Adverbio</h4></div>\\n            <div class="wellparley2">\\n                <h4 class="h4-mostrar">Ejemplos</h4>\\n                <table class="table table-striped table-bordered">\\n                    <thead>\\n                        <tr>\\n                            <th>\', escape=False)\n        response.write(IMG(_src=URL(\'static\', \'images/germany.gif\')))\n        response.write(\'</th>\\n                            <th>\', escape=False)\n        response.write(IMG(_src=URL(\'static\', \'images/spain.gif\')))\n        response.write(\'</th>\\n                            <th>Fuente</th>\\n                        </tr>\\n                    </thead>\\n                    <tbody>\\n                        \', escape=False)\n        for registro in ejemplos(db.ejemplos.tipo==\'adverbio\').select(db.ejemplos.ALL):\n            response.write(\'\\n                        <tr>\\n                            <td>\\n                                \', escape=False)\n            response.write(registro.ejemplo_de)\n            response.write(\'\\n                            </td>\\n                            <td>\\n                                \', escape=False)\n            response.write(registro.ejemplo_es)\n            response.write(\'\\n                            </td>\\n                               \\n                            <td>\\n                                 \', escape=False)\n            if registro.fuente:\n                response.write(\'\\n                                    \', escape=False)\n                response.write(registro.fuente.nombre)\n                response.write(\'\\n                                \', escape=False)\n                pass\n            response.write(\'\\n                            </td>\\n                        </tr>\\n                        \', escape=False)\n            pass\n        response.write(\'\\n                    </tbody>\\n                </table>\\n                \\n            </div>\\n        </div>                                                                  <!-- FIN DIV OCULTO PARA MOSTRAR EL ADVERBIO -->\\n        \\n        \\n        <div id="toggle-mostrar-sustantivo" class="hide">                       <!-- INICIO DIV OCULTO PARA MOSTRAR EL ADJETIVO -->\\n            <div class="toggle-mostrar">\\n                <h4>Adjetivo</h4>\\n            </div>\\n            <div class="wellparley2">\\n                <h4 class="h4-mostrar">Ejemplos</h4>\\n                <table class="table table-striped table-bordered">\\n                    <thead>\\n                        <tr>\\n                            <th>\', escape=False)\n        response.write(IMG(_src=URL(\'static\', \'images/germany.gif\')))\n        response.write(\'</th>\\n                            <th>\', escape=False)\n        response.write(IMG(_src=URL(\'static\', \'images/spain.gif\')))\n        response.write(\'</th>\\n                            <th>Fuente</th>\\n                        </tr>\\n                    </thead>\\n                    <tbody>\\n                        \', escape=False)\n        for registro in ejemplos(db.ejemplos.tipo==\'adjetivo\').select(db.ejemplos.ALL):\n            response.write(\'\\n                        <tr>\\n                            <td>\\n                                \', escape=False)\n            response.write(registro.ejemplo_de)\n            response.write(\'\\n                            </td>\\n                            <td>\\n                                \', escape=False)\n            response.write(registro.ejemplo_es)\n            response.write(\'\\n                            </td>\\n                               \\n                            <td>\\n                                 \', escape=False)\n            if registro.fuente:\n                response.write(\'\\n                                    \', escape=False)\n                response.write(registro.fuente.nombre)\n                response.write(\'\\n                                \', escape=False)\n                pass\n            response.write(\'\\n                            </td>\\n                        </tr>\\n                        \', escape=False)\n            pass\n        response.write(\'\\n                    </tbody>\\n                </table>\\n            </div>\\n        </div>                                                                  <!-- FIN DIV OCULTO PARA MOSTRAR EL ADJETIVO -->\\n        \\n                                                                                <!-- FIN SI LA PALABRA ES UN ADVERVIO Y ADJETIVO -->\\n            \\n        \', escape=False)\n    elif palabras.adjetivo==True:\n        response.write(\'                                       <!-- SI LA PALABRAS ES UN ADJETIVO  -->\\n            <div class="toggle-mostrar">\\n                <h4>Adjetivo</h4>\\n            </div>\\n            <div class="wellparley2">\\n                <h4 class="h4-mostrar">Ejemplos</h4>\\n                <table class="table table-striped table-bordered">\\n                    <tbody>\\n                        <thead>\\n                        <tr>\\n                            <th>\', escape=False)\n        response.write(IMG(_src=URL(\'static\', \'images/germany.gif\')))\n        response.write(\'</th>\\n                            <th>\', escape=False)\n        response.write(IMG(_src=URL(\'static\', \'images/spain.gif\')))\n        response.write(\'</th>\\n                            <th>Fuente</th>\\n                        </tr>\\n                    </thead>\\n                          \', escape=False)\n        for registro in ejemplos(db.ejemplos.tipo==\'adjetivo\').select():\n            response.write(\'\\n                        <tr>\\n                            <td>\\n                                \', escape=False)\n            response.write(registro.ejemplo_de)\n            response.write(\'\\n                            </td>\\n                            <td>\\n                                \', escape=False)\n            response.write(registro.ejemplo_es)\n            response.write(\'\\n                            </td>\\n                               \\n                            <td>\\n                                \', escape=False)\n            if registro.fuente:\n                response.write(\'\\n                                    \', escape=False)\n                response.write(registro.fuente.nombre)\n                response.write(\'\\n                                \', escape=False)\n                pass\n            response.write(\'\\n                            </td>\\n                        </tr>\\n                        \', escape=False)\n            pass\n        response.write(\'\\n                    </tbody>\\n                </table>\\n            </div>\\n            \\n        \', escape=False)\n    elif palabras.adverbio==True:\n        response.write(\'           <!-- SI LA PALABRAS ES UN ADVERVIO  -->\\n            <div class="toggle-mostrar">\\n                <h4>Adverbio</h4>\\n            </div>\\n            <div class="wellparley2">\\n                <h4 class="h4-mostrar">Ejemplos</h4>\\n                <table class="table table-striped table-bordered">\\n                    <tbody>\\n                        <thead>\\n                        <tr>\\n                            <th>\', escape=False)\n        response.write(IMG(_src=URL(\'static\', \'images/germany.gif\')))\n        response.write(\'</th>\\n                            <th>\', escape=False)\n        response.write(IMG(_src=URL(\'static\', \'images/spain.gif\')))\n        response.write(\'</th>\\n                            <th>Fuente</th>\\n                        </tr>\\n                    </thead>\\n                          \', escape=False)\n        for registro in ejemplos(db.ejemplos.tipo==\'adverbio\').select():\n            response.write(\'\\n                        <tr>\\n                            <td>\\n                                \', escape=False)\n            response.write(registro.ejemplo_de)\n            response.write(\'\\n                            </td>\\n                            <td>\\n                                \', escape=False)\n            response.write(registro.ejemplo_es)\n            response.write(\'\\n                            </td>\\n                               \\n                            <td>\\n                                \', escape=False)\n            if registro.fuente:\n                response.write(\'\\n                                    \', escape=False)\n                response.write(registro.fuente.nombre)\n                response.write(\'\\n                                \', escape=False)\n                pass\n            response.write(\'\\n                            </td>\\n                        </tr>\\n                        \', escape=False)\n            pass\n        response.write(\'\\n                    </tbody>\\n                </table>\\n            </div>\\n            \\n            \\n        \', escape=False)\n        pass\n    response.write(\'                                                                <!-- FIN SEGUNDO IF CASOS QUE SE PUEDEN DAR CON LAS PALABRAS -->\\n        \\n    \', escape=False)\n    pass\nresponse.write(\'                                                                    <!-- FIN IF PALABRAS -->\\n \\n\', escape=False)\nresponse.write(\'\\n\\t  \', escape=False)\nresponse.write("\\n          \\n        </div><!--/span-->\\n      </div><!--/row-->\\n\\n      <hr>\\n\\n      <footer>\\n        <p>\\xc2\\xa9 Company 2012</p>\\n      </footer>\\n\\n    </div><!--/.fluid-container-->\\n    \\n    <!-- Le javascript\\n    ================================================== -->\\n    <!-- Placed at the end of the document so the pages load faster \\n    <script>\\n      $(function () {\\n      $(\'.tabs a:last\').tab(\'show\')\\n      })\\n    </script>-->\\n   \\n\\n \\n\\n</body>\\n</html>\\n", escape=False)'
p7
sS'snapshot'
p8
(dp9
S'exception'
p10
(dp11
S'__hash__'
p12
S"<method-wrapper '__hash__' of exceptions.KeyError object at 0x03333C88>"
p13
sS'__setattr__'
p14
S"<method-wrapper '__setattr__' of exceptions.KeyError object at 0x03333C88>"
p15
sS'__reduce_ex__'
p16
S'<built-in method __reduce_ex__ of exceptions.KeyError object at 0x03333C88>'
p17
sS'__getslice__'
p18
S"<method-wrapper '__getslice__' of exceptions.KeyError object at 0x03333C88>"
p19
sS'__getitem__'
p20
S"<method-wrapper '__getitem__' of exceptions.KeyError object at 0x03333C88>"
p21
sS'__setstate__'
p22
S'<built-in method __setstate__ of exceptions.KeyError object at 0x03333C88>'
p23
sS'__reduce__'
p24
S'<built-in method __reduce__ of exceptions.KeyError object at 0x03333C88>'
p25
sS'__str__'
p26
S"<method-wrapper '__str__' of exceptions.KeyError object at 0x03333C88>"
p27
sS'args'
p28
S"('ejemplo_de',)"
p29
sS'__getattribute__'
p30
S"<method-wrapper '__getattribute__' of exceptions.KeyError object at 0x03333C88>"
p31
sS'__class__'
p32
S"<type 'exceptions.KeyError'>"
p33
sS'__delattr__'
p34
S"<method-wrapper '__delattr__' of exceptions.KeyError object at 0x03333C88>"
p35
sS'__repr__'
p36
S"<method-wrapper '__repr__' of exceptions.KeyError object at 0x03333C88>"
p37
sS'__dict__'
p38
S'{}'
p39
sS'__doc__'
p40
S"'Mapping key not found.'"
p41
sS'__init__'
p42
S"<method-wrapper '__init__' of exceptions.KeyError object at 0x03333C88>"
p43
sS'__new__'
p44
S'<built-in method __new__ of type object at 0x1E1CDFB8>'
p45
ssS'evalue'
p46
S"'ejemplo_de'"
p47
sS'request'
p48
ccopy_reg
_reconstructor
p49
(cgluon.html
BEAUTIFY
p50
c__builtin__
object
p51
NtRp52
(dp53
S'attributes'
p54
(dp55
sS'components'
p56
(lp57
g49
(cgluon.html
TABLE
p58
g51
NtRp59
(dp60
g54
(dp61
S'level'
p62
I5
ssS'parent'
p63
Nsg56
(lp64
g49
(cgluon.html
TR
p65
g51
NtRp66
(dp67
g54
(dp68
sg63
g59
sg56
(lp69
g49
(cgluon.html
TD
p70
g51
NtRp71
(dp72
g54
(dp73
S'_style'
p74
S'font-weight:bold;vertical-align:top'
p75
ssg63
g66
sg56
(lp76
S'ajax'
p77
asbag49
(g70
g51
NtRp78
(dp79
g54
(dp80
S'_valign'
p81
S'top'
p82
ssg63
g66
sg56
(lp83
S':'
asbag49
(g70
g51
NtRp84
(dp85
g54
(dp86
sg63
g66
sg56
(lp87
g49
(g50
g51
NtRp88
(dp89
g54
(dp90
g62
I5
ssg63
g84
sg56
(lp91
S'False'
p92
asbasbasbag49
(g65
g51
NtRp93
(dp94
g54
(dp95
sg63
g59
sg56
(lp96
g49
(g70
g51
NtRp97
(dp98
g54
(dp99
g74
g75
ssg63
g93
sg56
(lp100
S'application'
p101
asbag49
(g70
g51
NtRp102
(dp103
g54
(dp104
g81
g82
ssg63
g93
sg56
(lp105
S':'
asbag49
(g70
g51
NtRp106
(dp107
g54
(dp108
sg63
g93
sg56
(lp109
g49
(g50
g51
NtRp110
(dp111
g54
(dp112
g62
I5
ssg63
g106
sg56
(lp113
S'parleyweb'
p114
asbasbasbag49
(g65
g51
NtRp115
(dp116
g54
(dp117
sg63
g59
sg56
(lp118
g49
(g70
g51
NtRp119
(dp120
g54
(dp121
g74
g75
ssg63
g115
sg56
(lp122
g28
asbag49
(g70
g51
NtRp123
(dp124
g54
(dp125
g81
g82
ssg63
g115
sg56
(lp126
S':'
asbag49
(g70
g51
NtRp127
(dp128
g54
(dp129
sg63
g115
sg56
(lp130
g49
(g50
g51
NtRp131
(dp132
g54
(dp133
g62
I5
ssg63
g127
sg56
(lp134
g49
(g58
g51
NtRp135
(dp136
g54
(dp137
g62
I4
ssg63
Nsg56
(lp138
g49
(g65
g51
NtRp139
(dp140
g54
(dp141
sg63
g135
sg56
(lp142
g49
(g70
g51
NtRp143
(dp144
g54
(dp145
sg63
g139
sg56
(lp146
g49
(g50
g51
NtRp147
(dp148
g54
(dp149
g62
I4
ssg63
g143
sg56
(lp150
S'74'
p151
asbasbasbasbasbasbasbag49
(g65
g51
NtRp152
(dp153
g54
(dp154
sg63
g59
sg56
(lp155
g49
(g70
g51
NtRp156
(dp157
g54
(dp158
g74
g75
ssg63
g152
sg56
(lp159
S'body'
p160
asbag49
(g70
g51
NtRp161
(dp162
g54
(dp163
g81
g82
ssg63
g152
sg56
(lp164
S':'
asbag49
(g70
g51
NtRp165
(dp166
g54
(dp167
sg63
g152
sg56
(lp168
g49
(g50
g51
NtRp169
(dp170
g54
(dp171
g62
I5
ssg63
g165
sg56
(lp172
S'<cStringIO.StringO object at 0x076996A0>'
p173
asbasbasbag49
(g65
g51
NtRp174
(dp175
g54
(dp176
sg63
g59
sg56
(lp177
g49
(g70
g51
NtRp178
(dp179
g54
(dp180
g74
g75
ssg63
g174
sg56
(lp181
S'client'
p182
asbag49
(g70
g51
NtRp183
(dp184
g54
(dp185
g81
g82
ssg63
g174
sg56
(lp186
S':'
asbag49
(g70
g51
NtRp187
(dp188
g54
(dp189
sg63
g174
sg56
(lp190
g49
(g50
g51
NtRp191
(dp192
g54
(dp193
g62
I5
ssg63
g187
sg56
(lp194
S'127.0.0.1'
p195
asbasbasbag49
(g65
g51
NtRp196
(dp197
g54
(dp198
sg63
g59
sg56
(lp199
g49
(g70
g51
NtRp200
(dp201
g54
(dp202
g74
g75
ssg63
g196
sg56
(lp203
S'controller'
p204
asbag49
(g70
g51
NtRp205
(dp206
g54
(dp207
g81
g82
ssg63
g196
sg56
(lp208
S':'
asbag49
(g70
g51
NtRp209
(dp210
g54
(dp211
sg63
g196
sg56
(lp212
g49
(g50
g51
NtRp213
(dp214
g54
(dp215
g62
I5
ssg63
g209
sg56
(lp216
S'default'
p217
asbasbasbag49
(g65
g51
NtRp218
(dp219
g54
(dp220
sg63
g59
sg56
(lp221
g49
(g70
g51
NtRp222
(dp223
g54
(dp224
g74
g75
ssg63
g218
sg56
(lp225
S'cookies'
p226
asbag49
(g70
g51
NtRp227
(dp228
g54
(dp229
g81
g82
ssg63
g218
sg56
(lp230
S':'
asbag49
(g70
g51
NtRp231
(dp232
g54
(dp233
sg63
g218
sg56
(lp234
g49
(g50
g51
NtRp235
(dp236
g54
(dp237
g62
I5
ssg63
g231
sg56
(lp238
g49
(g58
g51
NtRp239
(dp240
g54
(dp241
g62
I4
ssg63
Nsg56
(lp242
g49
(g65
g51
NtRp243
(dp244
g54
(dp245
sg63
g239
sg56
(lp246
g49
(g70
g51
NtRp247
(dp248
g54
(dp249
g74
g75
ssg63
g243
sg56
(lp250
S'session_id_admin'
p251
asbag49
(g70
g51
NtRp252
(dp253
g54
(dp254
g81
g82
ssg63
g243
sg56
(lp255
S':'
asbag49
(g70
g51
NtRp256
(dp257
g54
(dp258
sg63
g243
sg56
(lp259
g49
(g50
g51
NtRp260
(dp261
g54
(dp262
g62
I4
ssg63
g256
sg56
(lp263
g49
(g58
g51
NtRp264
(dp265
g54
(dp266
g62
I3
ssg63
Nsg56
(lp267
g49
(g65
g51
NtRp268
(dp269
g54
(dp270
sg63
g264
sg56
(lp271
g49
(g70
g51
NtRp272
(dp273
g54
(dp274
g74
g75
ssg63
g268
sg56
(lp275
S'comment'
p276
asbag49
(g70
g51
NtRp277
(dp278
g54
(dp279
g81
g82
ssg63
g268
sg56
(lp280
S':'
asbag49
(g70
g51
NtRp281
(dp282
g54
(dp283
sg63
g268
sg56
(lp284
g49
(g50
g51
NtRp285
(dp286
g54
(dp287
g62
I3
ssg63
g281
sg56
(lp288
S''
asbasbasbag49
(g65
g51
NtRp289
(dp290
g54
(dp291
sg63
g264
sg56
(lp292
g49
(g70
g51
NtRp293
(dp294
g54
(dp295
g74
g75
ssg63
g289
sg56
(lp296
S'domain'
p297
asbag49
(g70
g51
NtRp298
(dp299
g54
(dp300
g81
g82
ssg63
g289
sg56
(lp301
S':'
asbag49
(g70
g51
NtRp302
(dp303
g54
(dp304
sg63
g289
sg56
(lp305
g49
(g50
g51
NtRp306
(dp307
g54
(dp308
g62
I3
ssg63
g302
sg56
(lp309
S''
asbasbasbag49
(g65
g51
NtRp310
(dp311
g54
(dp312
sg63
g264
sg56
(lp313
g49
(g70
g51
NtRp314
(dp315
g54
(dp316
g74
g75
ssg63
g310
sg56
(lp317
S'expires'
p318
asbag49
(g70
g51
NtRp319
(dp320
g54
(dp321
g81
g82
ssg63
g310
sg56
(lp322
S':'
asbag49
(g70
g51
NtRp323
(dp324
g54
(dp325
sg63
g310
sg56
(lp326
g49
(g50
g51
NtRp327
(dp328
g54
(dp329
g62
I3
ssg63
g323
sg56
(lp330
S''
asbasbasbag49
(g65
g51
NtRp331
(dp332
g54
(dp333
sg63
g264
sg56
(lp334
g49
(g70
g51
NtRp335
(dp336
g54
(dp337
g74
g75
ssg63
g331
sg56
(lp338
S'max-age'
p339
asbag49
(g70
g51
NtRp340
(dp341
g54
(dp342
g81
g82
ssg63
g331
sg56
(lp343
S':'
asbag49
(g70
g51
NtRp344
(dp345
g54
(dp346
sg63
g331
sg56
(lp347
g49
(g50
g51
NtRp348
(dp349
g54
(dp350
g62
I3
ssg63
g344
sg56
(lp351
S''
asbasbasbag49
(g65
g51
NtRp352
(dp353
g54
(dp354
sg63
g264
sg56
(lp355
g49
(g70
g51
NtRp356
(dp357
g54
(dp358
g74
g75
ssg63
g352
sg56
(lp359
S'path'
p360
asbag49
(g70
g51
NtRp361
(dp362
g54
(dp363
g81
g82
ssg63
g352
sg56
(lp364
S':'
asbag49
(g70
g51
NtRp365
(dp366
g54
(dp367
sg63
g352
sg56
(lp368
g49
(g50
g51
NtRp369
(dp370
g54
(dp371
g62
I3
ssg63
g365
sg56
(lp372
S''
asbasbasbag49
(g65
g51
NtRp373
(dp374
g54
(dp375
sg63
g264
sg56
(lp376
g49
(g70
g51
NtRp377
(dp378
g54
(dp379
g74
g75
ssg63
g373
sg56
(lp380
S'secure'
p381
asbag49
(g70
g51
NtRp382
(dp383
g54
(dp384
g81
g82
ssg63
g373
sg56
(lp385
S':'
asbag49
(g70
g51
NtRp386
(dp387
g54
(dp388
sg63
g373
sg56
(lp389
g49
(g50
g51
NtRp390
(dp391
g54
(dp392
g62
I3
ssg63
g386
sg56
(lp393
S''
asbasbasbag49
(g65
g51
NtRp394
(dp395
g54
(dp396
sg63
g264
sg56
(lp397
g49
(g70
g51
NtRp398
(dp399
g54
(dp400
g74
g75
ssg63
g394
sg56
(lp401
S'version'
p402
asbag49
(g70
g51
NtRp403
(dp404
g54
(dp405
g81
g82
ssg63
g394
sg56
(lp406
S':'
asbag49
(g70
g51
NtRp407
(dp408
g54
(dp409
sg63
g394
sg56
(lp410
g49
(g50
g51
NtRp411
(dp412
g54
(dp413
g62
I3
ssg63
g407
sg56
(lp414
S''
asbasbasbasbasbasbasbag49
(g65
g51
NtRp415
(dp416
g54
(dp417
sg63
g239
sg56
(lp418
g49
(g70
g51
NtRp419
(dp420
g54
(dp421
g74
g75
ssg63
g415
sg56
(lp422
S'session_id_klaas'
p423
asbag49
(g70
g51
NtRp424
(dp425
g54
(dp426
g81
g82
ssg63
g415
sg56
(lp427
S':'
asbag49
(g70
g51
NtRp428
(dp429
g54
(dp430
sg63
g415
sg56
(lp431
g49
(g50
g51
NtRp432
(dp433
g54
(dp434
g62
I4
ssg63
g428
sg56
(lp435
g49
(g58
g51
NtRp436
(dp437
g54
(dp438
g62
I3
ssg63
Nsg56
(lp439
g49
(g65
g51
NtRp440
(dp441
g54
(dp442
sg63
g436
sg56
(lp443
g49
(g70
g51
NtRp444
(dp445
g54
(dp446
g74
g75
ssg63
g440
sg56
(lp447
g276
asbag49
(g70
g51
NtRp448
(dp449
g54
(dp450
g81
g82
ssg63
g440
sg56
(lp451
S':'
asbag49
(g70
g51
NtRp452
(dp453
g54
(dp454
sg63
g440
sg56
(lp455
g49
(g50
g51
NtRp456
(dp457
g54
(dp458
g62
I3
ssg63
g452
sg56
(lp459
S''
asbasbasbag49
(g65
g51
NtRp460
(dp461
g54
(dp462
sg63
g436
sg56
(lp463
g49
(g70
g51
NtRp464
(dp465
g54
(dp466
g74
g75
ssg63
g460
sg56
(lp467
g297
asbag49
(g70
g51
NtRp468
(dp469
g54
(dp470
g81
g82
ssg63
g460
sg56
(lp471
S':'
asbag49
(g70
g51
NtRp472
(dp473
g54
(dp474
sg63
g460
sg56
(lp475
g49
(g50
g51
NtRp476
(dp477
g54
(dp478
g62
I3
ssg63
g472
sg56
(lp479
S''
asbasbasbag49
(g65
g51
NtRp480
(dp481
g54
(dp482
sg63
g436
sg56
(lp483
g49
(g70
g51
NtRp484
(dp485
g54
(dp486
g74
g75
ssg63
g480
sg56
(lp487
g318
asbag49
(g70
g51
NtRp488
(dp489
g54
(dp490
g81
g82
ssg63
g480
sg56
(lp491
S':'
asbag49
(g70
g51
NtRp492
(dp493
g54
(dp494
sg63
g480
sg56
(lp495
g49
(g50
g51
NtRp496
(dp497
g54
(dp498
g62
I3
ssg63
g492
sg56
(lp499
S''
asbasbasbag49
(g65
g51
NtRp500
(dp501
g54
(dp502
sg63
g436
sg56
(lp503
g49
(g70
g51
NtRp504
(dp505
g54
(dp506
g74
g75
ssg63
g500
sg56
(lp507
g339
asbag49
(g70
g51
NtRp508
(dp509
g54
(dp510
g81
g82
ssg63
g500
sg56
(lp511
S':'
asbag49
(g70
g51
NtRp512
(dp513
g54
(dp514
sg63
g500
sg56
(lp515
g49
(g50
g51
NtRp516
(dp517
g54
(dp518
g62
I3
ssg63
g512
sg56
(lp519
S''
asbasbasbag49
(g65
g51
NtRp520
(dp521
g54
(dp522
sg63
g436
sg56
(lp523
g49
(g70
g51
NtRp524
(dp525
g54
(dp526
g74
g75
ssg63
g520
sg56
(lp527
g360
asbag49
(g70
g51
NtRp528
(dp529
g54
(dp530
g81
g82
ssg63
g520
sg56
(lp531
S':'
asbag49
(g70
g51
NtRp532
(dp533
g54
(dp534
sg63
g520
sg56
(lp535
g49
(g50
g51
NtRp536
(dp537
g54
(dp538
g62
I3
ssg63
g532
sg56
(lp539
S''
asbasbasbag49
(g65
g51
NtRp540
(dp541
g54
(dp542
sg63
g436
sg56
(lp543
g49
(g70
g51
NtRp544
(dp545
g54
(dp546
g74
g75
ssg63
g540
sg56
(lp547
g381
asbag49
(g70
g51
NtRp548
(dp549
g54
(dp550
g81
g82
ssg63
g540
sg56
(lp551
S':'
asbag49
(g70
g51
NtRp552
(dp553
g54
(dp554
sg63
g540
sg56
(lp555
g49
(g50
g51
NtRp556
(dp557
g54
(dp558
g62
I3
ssg63
g552
sg56
(lp559
S''
asbasbasbag49
(g65
g51
NtRp560
(dp561
g54
(dp562
sg63
g436
sg56
(lp563
g49
(g70
g51
NtRp564
(dp565
g54
(dp566
g74
g75
ssg63
g560
sg56
(lp567
g402
asbag49
(g70
g51
NtRp568
(dp569
g54
(dp570
g81
g82
ssg63
g560
sg56
(lp571
S':'
asbag49
(g70
g51
NtRp572
(dp573
g54
(dp574
sg63
g560
sg56
(lp575
g49
(g50
g51
NtRp576
(dp577
g54
(dp578
g62
I3
ssg63
g572
sg56
(lp579
S''
asbasbasbasbasbasbasbag49
(g65
g51
NtRp580
(dp581
g54
(dp582
sg63
g239
sg56
(lp583
g49
(g70
g51
NtRp584
(dp585
g54
(dp586
g74
g75
ssg63
g580
sg56
(lp587
S'session_id_parleyweb'
p588
asbag49
(g70
g51
NtRp589
(dp590
g54
(dp591
g81
g82
ssg63
g580
sg56
(lp592
S':'
asbag49
(g70
g51
NtRp593
(dp594
g54
(dp595
sg63
g580
sg56
(lp596
g49
(g50
g51
NtRp597
(dp598
g54
(dp599
g62
I4
ssg63
g593
sg56
(lp600
g49
(g58
g51
NtRp601
(dp602
g54
(dp603
g62
I3
ssg63
Nsg56
(lp604
g49
(g65
g51
NtRp605
(dp606
g54
(dp607
sg63
g601
sg56
(lp608
g49
(g70
g51
NtRp609
(dp610
g54
(dp611
g74
g75
ssg63
g605
sg56
(lp612
g276
asbag49
(g70
g51
NtRp613
(dp614
g54
(dp615
g81
g82
ssg63
g605
sg56
(lp616
S':'
asbag49
(g70
g51
NtRp617
(dp618
g54
(dp619
sg63
g605
sg56
(lp620
g49
(g50
g51
NtRp621
(dp622
g54
(dp623
g62
I3
ssg63
g617
sg56
(lp624
S''
asbasbasbag49
(g65
g51
NtRp625
(dp626
g54
(dp627
sg63
g601
sg56
(lp628
g49
(g70
g51
NtRp629
(dp630
g54
(dp631
g74
g75
ssg63
g625
sg56
(lp632
g297
asbag49
(g70
g51
NtRp633
(dp634
g54
(dp635
g81
g82
ssg63
g625
sg56
(lp636
S':'
asbag49
(g70
g51
NtRp637
(dp638
g54
(dp639
sg63
g625
sg56
(lp640
g49
(g50
g51
NtRp641
(dp642
g54
(dp643
g62
I3
ssg63
g637
sg56
(lp644
S''
asbasbasbag49
(g65
g51
NtRp645
(dp646
g54
(dp647
sg63
g601
sg56
(lp648
g49
(g70
g51
NtRp649
(dp650
g54
(dp651
g74
g75
ssg63
g645
sg56
(lp652
g318
asbag49
(g70
g51
NtRp653
(dp654
g54
(dp655
g81
g82
ssg63
g645
sg56
(lp656
S':'
asbag49
(g70
g51
NtRp657
(dp658
g54
(dp659
sg63
g645
sg56
(lp660
g49
(g50
g51
NtRp661
(dp662
g54
(dp663
g62
I3
ssg63
g657
sg56
(lp664
S''
asbasbasbag49
(g65
g51
NtRp665
(dp666
g54
(dp667
sg63
g601
sg56
(lp668
g49
(g70
g51
NtRp669
(dp670
g54
(dp671
g74
g75
ssg63
g665
sg56
(lp672
g339
asbag49
(g70
g51
NtRp673
(dp674
g54
(dp675
g81
g82
ssg63
g665
sg56
(lp676
S':'
asbag49
(g70
g51
NtRp677
(dp678
g54
(dp679
sg63
g665
sg56
(lp680
g49
(g50
g51
NtRp681
(dp682
g54
(dp683
g62
I3
ssg63
g677
sg56
(lp684
S''
asbasbasbag49
(g65
g51
NtRp685
(dp686
g54
(dp687
sg63
g601
sg56
(lp688
g49
(g70
g51
NtRp689
(dp690
g54
(dp691
g74
g75
ssg63
g685
sg56
(lp692
g360
asbag49
(g70
g51
NtRp693
(dp694
g54
(dp695
g81
g82
ssg63
g685
sg56
(lp696
S':'
asbag49
(g70
g51
NtRp697
(dp698
g54
(dp699
sg63
g685
sg56
(lp700
g49
(g50
g51
NtRp701
(dp702
g54
(dp703
g62
I3
ssg63
g697
sg56
(lp704
S''
asbasbasbag49
(g65
g51
NtRp705
(dp706
g54
(dp707
sg63
g601
sg56
(lp708
g49
(g70
g51
NtRp709
(dp710
g54
(dp711
g74
g75
ssg63
g705
sg56
(lp712
g381
asbag49
(g70
g51
NtRp713
(dp714
g54
(dp715
g81
g82
ssg63
g705
sg56
(lp716
S':'
asbag49
(g70
g51
NtRp717
(dp718
g54
(dp719
sg63
g705
sg56
(lp720
g49
(g50
g51
NtRp721
(dp722
g54
(dp723
g62
I3
ssg63
g717
sg56
(lp724
S''
asbasbasbag49
(g65
g51
NtRp725
(dp726
g54
(dp727
sg63
g601
sg56
(lp728
g49
(g70
g51
NtRp729
(dp730
g54
(dp731
g74
g75
ssg63
g725
sg56
(lp732
g402
asbag49
(g70
g51
NtRp733
(dp734
g54
(dp735
g81
g82
ssg63
g725
sg56
(lp736
S':'
asbag49
(g70
g51
NtRp737
(dp738
g54
(dp739
sg63
g725
sg56
(lp740
g49
(g50
g51
NtRp741
(dp742
g54
(dp743
g62
I3
ssg63
g737
sg56
(lp744
S''
asbasbasbasbasbasbasbag49
(g65
g51
NtRp745
(dp746
g54
(dp747
sg63
g239
sg56
(lp748
g49
(g70
g51
NtRp749
(dp750
g54
(dp751
g74
g75
ssg63
g745
sg56
(lp752
S'session_id_welcome'
p753
asbag49
(g70
g51
NtRp754
(dp755
g54
(dp756
g81
g82
ssg63
g745
sg56
(lp757
S':'
asbag49
(g70
g51
NtRp758
(dp759
g54
(dp760
sg63
g745
sg56
(lp761
g49
(g50
g51
NtRp762
(dp763
g54
(dp764
g62
I4
ssg63
g758
sg56
(lp765
g49
(g58
g51
NtRp766
(dp767
g54
(dp768
g62
I3
ssg63
Nsg56
(lp769
g49
(g65
g51
NtRp770
(dp771
g54
(dp772
sg63
g766
sg56
(lp773
g49
(g70
g51
NtRp774
(dp775
g54
(dp776
g74
g75
ssg63
g770
sg56
(lp777
g276
asbag49
(g70
g51
NtRp778
(dp779
g54
(dp780
g81
g82
ssg63
g770
sg56
(lp781
S':'
asbag49
(g70
g51
NtRp782
(dp783
g54
(dp784
sg63
g770
sg56
(lp785
g49
(g50
g51
NtRp786
(dp787
g54
(dp788
g62
I3
ssg63
g782
sg56
(lp789
S''
asbasbasbag49
(g65
g51
NtRp790
(dp791
g54
(dp792
sg63
g766
sg56
(lp793
g49
(g70
g51
NtRp794
(dp795
g54
(dp796
g74
g75
ssg63
g790
sg56
(lp797
g297
asbag49
(g70
g51
NtRp798
(dp799
g54
(dp800
g81
g82
ssg63
g790
sg56
(lp801
S':'
asbag49
(g70
g51
NtRp802
(dp803
g54
(dp804
sg63
g790
sg56
(lp805
g49
(g50
g51
NtRp806
(dp807
g54
(dp808
g62
I3
ssg63
g802
sg56
(lp809
S''
asbasbasbag49
(g65
g51
NtRp810
(dp811
g54
(dp812
sg63
g766
sg56
(lp813
g49
(g70
g51
NtRp814
(dp815
g54
(dp816
g74
g75
ssg63
g810
sg56
(lp817
g318
asbag49
(g70
g51
NtRp818
(dp819
g54
(dp820
g81
g82
ssg63
g810
sg56
(lp821
S':'
asbag49
(g70
g51
NtRp822
(dp823
g54
(dp824
sg63
g810
sg56
(lp825
g49
(g50
g51
NtRp826
(dp827
g54
(dp828
g62
I3
ssg63
g822
sg56
(lp829
S''
asbasbasbag49
(g65
g51
NtRp830
(dp831
g54
(dp832
sg63
g766
sg56
(lp833
g49
(g70
g51
NtRp834
(dp835
g54
(dp836
g74
g75
ssg63
g830
sg56
(lp837
g339
asbag49
(g70
g51
NtRp838
(dp839
g54
(dp840
g81
g82
ssg63
g830
sg56
(lp841
S':'
asbag49
(g70
g51
NtRp842
(dp843
g54
(dp844
sg63
g830
sg56
(lp845
g49
(g50
g51
NtRp846
(dp847
g54
(dp848
g62
I3
ssg63
g842
sg56
(lp849
S''
asbasbasbag49
(g65
g51
NtRp850
(dp851
g54
(dp852
sg63
g766
sg56
(lp853
g49
(g70
g51
NtRp854
(dp855
g54
(dp856
g74
g75
ssg63
g850
sg56
(lp857
g360
asbag49
(g70
g51
NtRp858
(dp859
g54
(dp860
g81
g82
ssg63
g850
sg56
(lp861
S':'
asbag49
(g70
g51
NtRp862
(dp863
g54
(dp864
sg63
g850
sg56
(lp865
g49
(g50
g51
NtRp866
(dp867
g54
(dp868
g62
I3
ssg63
g862
sg56
(lp869
S''
asbasbasbag49
(g65
g51
NtRp870
(dp871
g54
(dp872
sg63
g766
sg56
(lp873
g49
(g70
g51
NtRp874
(dp875
g54
(dp876
g74
g75
ssg63
g870
sg56
(lp877
g381
asbag49
(g70
g51
NtRp878
(dp879
g54
(dp880
g81
g82
ssg63
g870
sg56
(lp881
S':'
asbag49
(g70
g51
NtRp882
(dp883
g54
(dp884
sg63
g870
sg56
(lp885
g49
(g50
g51
NtRp886
(dp887
g54
(dp888
g62
I3
ssg63
g882
sg56
(lp889
S''
asbasbasbag49
(g65
g51
NtRp890
(dp891
g54
(dp892
sg63
g766
sg56
(lp893
g49
(g70
g51
NtRp894
(dp895
g54
(dp896
g74
g75
ssg63
g890
sg56
(lp897
g402
asbag49
(g70
g51
NtRp898
(dp899
g54
(dp900
g81
g82
ssg63
g890
sg56
(lp901
S':'
asbag49
(g70
g51
NtRp902
(dp903
g54
(dp904
sg63
g890
sg56
(lp905
g49
(g50
g51
NtRp906
(dp907
g54
(dp908
g62
I3
ssg63
g902
sg56
(lp909
S''
asbasbasbasbasbasbasbasbasbasbasbag49
(g65
g51
NtRp910
(dp911
g54
(dp912
sg63
g59
sg56
(lp913
g49
(g70
g51
NtRp914
(dp915
g54
(dp916
g74
g75
ssg63
g910
sg56
(lp917
S'env'
p918
asbag49
(g70
g51
NtRp919
(dp920
g54
(dp921
g81
g82
ssg63
g910
sg56
(lp922
S':'
asbag49
(g70
g51
NtRp923
(dp924
g54
(dp925
sg63
g910
sg56
(lp926
g49
(g50
g51
NtRp927
(dp928
g54
(dp929
g62
I5
ssg63
g923
sg56
(lp930
g49
(g58
g51
NtRp931
(dp932
g54
(dp933
g62
I4
ssg63
Nsg56
(lp934
g49
(g65
g51
NtRp935
(dp936
g54
(dp937
sg63
g931
sg56
(lp938
g49
(g70
g51
NtRp939
(dp940
g54
(dp941
g74
g75
ssg63
g935
sg56
(lp942
S'app_folders'
p943
asbag49
(g70
g51
NtRp944
(dp945
g54
(dp946
g81
g82
ssg63
g935
sg56
(lp947
S':'
asbag49
(g70
g51
NtRp948
(dp949
g54
(dp950
sg63
g935
sg56
(lp951
g49
(g50
g51
NtRp952
(dp953
g54
(dp954
g62
I4
ssg63
g948
sg56
(lp955
S"set(['D:\\\\Dise\\xf1o Web\\\\Proyectos\\\\Parleyweb\\\\web2py\\\\applications\\\\parleyweb\\\\', 'D:\\\\Dise\\xf1o Web\\\\Proyectos\\\\Parleyweb\\\\web2py\\\\applications\\\\welcome\\\\', 'D:\\\\Dise\\xf1o Web\\\\Proyectos\\\\Parleyweb\\\\web2py\\\\applications\\\\admin\\\\'])"
p956
asbasbasbag49
(g65
g51
NtRp957
(dp958
g54
(dp959
sg63
g931
sg56
(lp960
g49
(g70
g51
NtRp961
(dp962
g54
(dp963
g74
g75
ssg63
g957
sg56
(lp964
S'applications_parent'
p965
asbag49
(g70
g51
NtRp966
(dp967
g54
(dp968
g81
g82
ssg63
g957
sg56
(lp969
S':'
asbag49
(g70
g51
NtRp970
(dp971
g54
(dp972
sg63
g957
sg56
(lp973
g49
(g50
g51
NtRp974
(dp975
g54
(dp976
g62
I4
ssg63
g970
sg56
(lp977
S'D:\\Dise\xf1o Web\\Proyectos\\Parleyweb\\web2py'
p978
asbasbasbag49
(g65
g51
NtRp979
(dp980
g54
(dp981
sg63
g931
sg56
(lp982
g49
(g70
g51
NtRp983
(dp984
g54
(dp985
g74
g75
ssg63
g979
sg56
(lp986
S'cmd_args'
p987
asbag49
(g70
g51
NtRp988
(dp989
g54
(dp990
g81
g82
ssg63
g979
sg56
(lp991
S':'
asbag49
(g70
g51
NtRp992
(dp993
g54
(dp994
sg63
g979
sg56
(lp995
g49
(g50
g51
NtRp996
(dp997
g54
(dp998
g62
I4
ssg63
g992
sg56
(lp999
g49
(g58
g51
NtRp1000
(dp1001
g54
(dp1002
g62
I3
ssg63
Nsg56
(lp1003
sbasbasbasbag49
(g65
g51
NtRp1004
(dp1005
g54
(dp1006
sg63
g931
sg56
(lp1007
g49
(g70
g51
NtRp1008
(dp1009
g54
(dp1010
g74
g75
ssg63
g1004
sg56
(lp1011
S'cmd_options'
p1012
asbag49
(g70
g51
NtRp1013
(dp1014
g54
(dp1015
g81
g82
ssg63
g1004
sg56
(lp1016
S':'
asbag49
(g70
g51
NtRp1017
(dp1018
g54
(dp1019
sg63
g1004
sg56
(lp1020
g49
(g50
g51
NtRp1021
(dp1022
g54
(dp1023
g62
I4
ssg63
g1017
sg56
(lp1024
S"<Values at 0x331ff30: {'verbose': False, 'ip': '127.0.0.1', 'shutdown_timeout': 5, 'taskbar': False, 'nocron': False, 'pid_filename': 'httpserver.pid', 'maxthreads': None, 'softcron': False, 'server_name': 'craxsnet-PC', 'bpython': False, 'nogui': False, 'port': 8000, 'extcron': False, 'debuglevel': 30, 'test': None, 'folder': 'D:\\\\Dise\\xf1o Web\\\\Proyectos\\\\Parleyweb\\\\web2py', 'config': '', 'import_models': False, 'winservice': '', 'shell': None, 'run': '', 'log_filename': 'httpserver.log', 'args': [''], 'socket_timeout': 5, 'ssl_ca_certificate': None, 'scheduler': None, 'profiler_filename': None, 'ssl_private_key': '', 'password': '<ask>', 'request_queue_size': 5, 'ssl_certificate': '', 'cronjob': False, 'numthreads': None, 'quiet': False, 'interfaces': None, 'minthreads': None, 'timeout': 10, 'plain': False, 'nobanner': False}>"
p1025
asbasbasbag49
(g65
g51
NtRp1026
(dp1027
g54
(dp1028
sg63
g931
sg56
(lp1029
g49
(g70
g51
NtRp1030
(dp1031
g54
(dp1032
g74
g75
ssg63
g1026
sg56
(lp1033
S'db_sessions'
p1034
asbag49
(g70
g51
NtRp1035
(dp1036
g54
(dp1037
g81
g82
ssg63
g1026
sg56
(lp1038
S':'
asbag49
(g70
g51
NtRp1039
(dp1040
g54
(dp1041
sg63
g1026
sg56
(lp1042
g49
(g50
g51
NtRp1043
(dp1044
g54
(dp1045
g62
I4
ssg63
g1039
sg56
(lp1046
S'set([])'
p1047
asbasbasbag49
(g65
g51
NtRp1048
(dp1049
g54
(dp1050
sg63
g931
sg56
(lp1051
g49
(g70
g51
NtRp1052
(dp1053
g54
(dp1054
g74
g75
ssg63
g1048
sg56
(lp1055
S'debugging'
p1056
asbag49
(g70
g51
NtRp1057
(dp1058
g54
(dp1059
g81
g82
ssg63
g1048
sg56
(lp1060
S':'
asbag49
(g70
g51
NtRp1061
(dp1062
g54
(dp1063
sg63
g1048
sg56
(lp1064
g49
(g50
g51
NtRp1065
(dp1066
g54
(dp1067
g62
I4
ssg63
g1061
sg56
(lp1068
g92
asbasbasbag49
(g65
g51
NtRp1069
(dp1070
g54
(dp1071
sg63
g931
sg56
(lp1072
g49
(g70
g51
NtRp1073
(dp1074
g54
(dp1075
g74
g75
ssg63
g1069
sg56
(lp1076
S'gluon_parent'
p1077
asbag49
(g70
g51
NtRp1078
(dp1079
g54
(dp1080
g81
g82
ssg63
g1069
sg56
(lp1081
S':'
asbag49
(g70
g51
NtRp1082
(dp1083
g54
(dp1084
sg63
g1069
sg56
(lp1085
g49
(g50
g51
NtRp1086
(dp1087
g54
(dp1088
g62
I4
ssg63
g1082
sg56
(lp1089
S'D:\\Dise\xf1o Web\\Proyectos\\Parleyweb\\web2py'
p1090
asbasbasbag49
(g65
g51
NtRp1091
(dp1092
g54
(dp1093
sg63
g931
sg56
(lp1094
g49
(g70
g51
NtRp1095
(dp1096
g54
(dp1097
g74
g75
ssg63
g1091
sg56
(lp1098
S'http_accept'
p1099
asbag49
(g70
g51
NtRp1100
(dp1101
g54
(dp1102
g81
g82
ssg63
g1091
sg56
(lp1103
S':'
asbag49
(g70
g51
NtRp1104
(dp1105
g54
(dp1106
sg63
g1091
sg56
(lp1107
g49
(g50
g51
NtRp1108
(dp1109
g54
(dp1110
g62
I4
ssg63
g1104
sg56
(lp1111
S'text/html,application/xhtml+xml,application/xml;q=0.9,*/*;q=0.8'
p1112
asbasbasbag49
(g65
g51
NtRp1113
(dp1114
g54
(dp1115
sg63
g931
sg56
(lp1116
g49
(g70
g51
NtRp1117
(dp1118
g54
(dp1119
g74
g75
ssg63
g1113
sg56
(lp1120
S'http_accept_encoding'
p1121
asbag49
(g70
g51
NtRp1122
(dp1123
g54
(dp1124
g81
g82
ssg63
g1113
sg56
(lp1125
S':'
asbag49
(g70
g51
NtRp1126
(dp1127
g54
(dp1128
sg63
g1113
sg56
(lp1129
g49
(g50
g51
NtRp1130
(dp1131
g54
(dp1132
g62
I4
ssg63
g1126
sg56
(lp1133
S'gzip, deflate'
p1134
asbasbasbag49
(g65
g51
NtRp1135
(dp1136
g54
(dp1137
sg63
g931
sg56
(lp1138
g49
(g70
g51
NtRp1139
(dp1140
g54
(dp1141
g74
g75
ssg63
g1135
sg56
(lp1142
S'http_accept_language'
p1143
asbag49
(g70
g51
NtRp1144
(dp1145
g54
(dp1146
g81
g82
ssg63
g1135
sg56
(lp1147
S':'
asbag49
(g70
g51
NtRp1148
(dp1149
g54
(dp1150
sg63
g1135
sg56
(lp1151
g49
(g50
g51
NtRp1152
(dp1153
g54
(dp1154
g62
I4
ssg63
g1148
sg56
(lp1155
S'es-es,de-de;q=0.8,es;q=0.6,en-us;q=0.4,en;q=0.2'
p1156
asbasbasbag49
(g65
g51
NtRp1157
(dp1158
g54
(dp1159
sg63
g931
sg56
(lp1160
g49
(g70
g51
NtRp1161
(dp1162
g54
(dp1163
g74
g75
ssg63
g1157
sg56
(lp1164
S'http_connection'
p1165
asbag49
(g70
g51
NtRp1166
(dp1167
g54
(dp1168
g81
g82
ssg63
g1157
sg56
(lp1169
S':'
asbag49
(g70
g51
NtRp1170
(dp1171
g54
(dp1172
sg63
g1157
sg56
(lp1173
g49
(g50
g51
NtRp1174
(dp1175
g54
(dp1176
g62
I4
ssg63
g1170
sg56
(lp1177
S'keep-alive'
p1178
asbasbasbag49
(g65
g51
NtRp1179
(dp1180
g54
(dp1181
sg63
g931
sg56
(lp1182
g49
(g70
g51
NtRp1183
(dp1184
g54
(dp1185
g74
g75
ssg63
g1179
sg56
(lp1186
S'http_cookie'
p1187
asbag49
(g70
g51
NtRp1188
(dp1189
g54
(dp1190
g81
g82
ssg63
g1179
sg56
(lp1191
S':'
asbag49
(g70
g51
NtRp1192
(dp1193
g54
(dp1194
sg63
g1179
sg56
(lp1195
g49
(g50
g51
NtRp1196
(dp1197
g54
(dp1198
g62
I4
ssg63
g1192
sg56
(lp1199
S'__utma=96992031.26429765.1325029743.1325029743.1326549329.2; __utmz=96992031.1325029743.1.1.utmcsr=(direct)|utmccn=(direct)|utmcmd=(none); session_id_klaas=127.0.0.1-22979940-8cc3-49bc-9f44-0623615d817e; session_id_welcome=127.0.0.1-8cf99883-574c-4d14-bcc4-fd47a1240754; session_id_parleyweb=127.0.0.1-2049810e-c086-402c-857f-06991c56216c; session_id_admin=127.0.0.1-6e3f8ed3-268b-4a90-be40-5289f7e1d539'
p1200
asbasbasbag49
(g65
g51
NtRp1201
(dp1202
g54
(dp1203
sg63
g931
sg56
(lp1204
g49
(g70
g51
NtRp1205
(dp1206
g54
(dp1207
g74
g75
ssg63
g1201
sg56
(lp1208
S'http_host'
p1209
asbag49
(g70
g51
NtRp1210
(dp1211
g54
(dp1212
g81
g82
ssg63
g1201
sg56
(lp1213
S':'
asbag49
(g70
g51
NtRp1214
(dp1215
g54
(dp1216
sg63
g1201
sg56
(lp1217
g49
(g50
g51
NtRp1218
(dp1219
g54
(dp1220
g62
I4
ssg63
g1214
sg56
(lp1221
S'127.0.0.1:8000'
p1222
asbasbasbag49
(g65
g51
NtRp1223
(dp1224
g54
(dp1225
sg63
g931
sg56
(lp1226
g49
(g70
g51
NtRp1227
(dp1228
g54
(dp1229
g74
g75
ssg63
g1223
sg56
(lp1230
S'http_referer'
p1231
asbag49
(g70
g51
NtRp1232
(dp1233
g54
(dp1234
g81
g82
ssg63
g1223
sg56
(lp1235
S':'
asbag49
(g70
g51
NtRp1236
(dp1237
g54
(dp1238
sg63
g1223
sg56
(lp1239
g49
(g50
g51
NtRp1240
(dp1241
g54
(dp1242
g62
I4
ssg63
g1236
sg56
(lp1243
S'http://127.0.0.1:8000/parleyweb/admin/agregar_palabra'
p1244
asbasbasbag49
(g65
g51
NtRp1245
(dp1246
g54
(dp1247
sg63
g931
sg56
(lp1248
g49
(g70
g51
NtRp1249
(dp1250
g54
(dp1251
g74
g75
ssg63
g1245
sg56
(lp1252
S'http_user_agent'
p1253
asbag49
(g70
g51
NtRp1254
(dp1255
g54
(dp1256
g81
g82
ssg63
g1245
sg56
(lp1257
S':'
asbag49
(g70
g51
NtRp1258
(dp1259
g54
(dp1260
sg63
g1245
sg56
(lp1261
g49
(g50
g51
NtRp1262
(dp1263
g54
(dp1264
g62
I4
ssg63
g1258
sg56
(lp1265
S'Mozilla/5.0 (Windows NT 6.1; WOW64; rv:10.0.2) Gecko/20100101 Firefox/10.0.2'
p1266
asbasbasbag49
(g65
g51
NtRp1267
(dp1268
g54
(dp1269
sg63
g931
sg56
(lp1270
g49
(g70
g51
NtRp1271
(dp1272
g54
(dp1273
g74
g75
ssg63
g1267
sg56
(lp1274
S'is_jython'
p1275
asbag49
(g70
g51
NtRp1276
(dp1277
g54
(dp1278
g81
g82
ssg63
g1267
sg56
(lp1279
S':'
asbag49
(g70
g51
NtRp1280
(dp1281
g54
(dp1282
sg63
g1267
sg56
(lp1283
g49
(g50
g51
NtRp1284
(dp1285
g54
(dp1286
g62
I4
ssg63
g1280
sg56
(lp1287
g92
asbasbasbag49
(g65
g51
NtRp1288
(dp1289
g54
(dp1290
sg63
g931
sg56
(lp1291
g49
(g70
g51
NtRp1292
(dp1293
g54
(dp1294
g74
g75
ssg63
g1288
sg56
(lp1295
S'is_pypy'
p1296
asbag49
(g70
g51
NtRp1297
(dp1298
g54
(dp1299
g81
g82
ssg63
g1288
sg56
(lp1300
S':'
asbag49
(g70
g51
NtRp1301
(dp1302
g54
(dp1303
sg63
g1288
sg56
(lp1304
g49
(g50
g51
NtRp1305
(dp1306
g54
(dp1307
g62
I4
ssg63
g1301
sg56
(lp1308
g92
asbasbasbag49
(g65
g51
NtRp1309
(dp1310
g54
(dp1311
sg63
g931
sg56
(lp1312
g49
(g70
g51
NtRp1313
(dp1314
g54
(dp1315
g74
g75
ssg63
g1309
sg56
(lp1316
S'path_info'
p1317
asbag49
(g70
g51
NtRp1318
(dp1319
g54
(dp1320
g81
g82
ssg63
g1309
sg56
(lp1321
S':'
asbag49
(g70
g51
NtRp1322
(dp1323
g54
(dp1324
sg63
g1309
sg56
(lp1325
g49
(g50
g51
NtRp1326
(dp1327
g54
(dp1328
g62
I4
ssg63
g1322
sg56
(lp1329
S'/parleyweb/default/mostrar/74'
p1330
asbasbasbag49
(g65
g51
NtRp1331
(dp1332
g54
(dp1333
sg63
g931
sg56
(lp1334
g49
(g70
g51
NtRp1335
(dp1336
g54
(dp1337
g74
g75
ssg63
g1331
sg56
(lp1338
S'query_string'
p1339
asbag49
(g70
g51
NtRp1340
(dp1341
g54
(dp1342
g81
g82
ssg63
g1331
sg56
(lp1343
S':'
asbag49
(g70
g51
NtRp1344
(dp1345
g54
(dp1346
sg63
g1331
sg56
(lp1347
g49
(g50
g51
NtRp1348
(dp1349
g54
(dp1350
g62
I4
ssg63
g1344
sg56
(lp1351
S''
asbasbasbag49
(g65
g51
NtRp1352
(dp1353
g54
(dp1354
sg63
g931
sg56
(lp1355
g49
(g70
g51
NtRp1356
(dp1357
g54
(dp1358
g74
g75
ssg63
g1352
sg56
(lp1359
S'remote_addr'
p1360
asbag49
(g70
g51
NtRp1361
(dp1362
g54
(dp1363
g81
g82
ssg63
g1352
sg56
(lp1364
S':'
asbag49
(g70
g51
NtRp1365
(dp1366
g54
(dp1367
sg63
g1352
sg56
(lp1368
g49
(g50
g51
NtRp1369
(dp1370
g54
(dp1371
g62
I4
ssg63
g1365
sg56
(lp1372
g195
asbasbasbag49
(g65
g51
NtRp1373
(dp1374
g54
(dp1375
sg63
g931
sg56
(lp1376
g49
(g70
g51
NtRp1377
(dp1378
g54
(dp1379
g74
g75
ssg63
g1373
sg56
(lp1380
S'remote_port'
p1381
asbag49
(g70
g51
NtRp1382
(dp1383
g54
(dp1384
g81
g82
ssg63
g1373
sg56
(lp1385
S':'
asbag49
(g70
g51
NtRp1386
(dp1387
g54
(dp1388
sg63
g1373
sg56
(lp1389
g49
(g50
g51
NtRp1390
(dp1391
g54
(dp1392
g62
I4
ssg63
g1386
sg56
(lp1393
S'51470'
p1394
asbasbasbag49
(g65
g51
NtRp1395
(dp1396
g54
(dp1397
sg63
g931
sg56
(lp1398
g49
(g70
g51
NtRp1399
(dp1400
g54
(dp1401
g74
g75
ssg63
g1395
sg56
(lp1402
S'request_method'
p1403
asbag49
(g70
g51
NtRp1404
(dp1405
g54
(dp1406
g81
g82
ssg63
g1395
sg56
(lp1407
S':'
asbag49
(g70
g51
NtRp1408
(dp1409
g54
(dp1410
sg63
g1395
sg56
(lp1411
g49
(g50
g51
NtRp1412
(dp1413
g54
(dp1414
g62
I4
ssg63
g1408
sg56
(lp1415
S'GET'
p1416
asbasbasbag49
(g65
g51
NtRp1417
(dp1418
g54
(dp1419
sg63
g931
sg56
(lp1420
g49
(g70
g51
NtRp1421
(dp1422
g54
(dp1423
g74
g75
ssg63
g1417
sg56
(lp1424
S'script_name'
p1425
asbag49
(g70
g51
NtRp1426
(dp1427
g54
(dp1428
g81
g82
ssg63
g1417
sg56
(lp1429
S':'
asbag49
(g70
g51
NtRp1430
(dp1431
g54
(dp1432
sg63
g1417
sg56
(lp1433
g49
(g50
g51
NtRp1434
(dp1435
g54
(dp1436
g62
I4
ssg63
g1430
sg56
(lp1437
S''
asbasbasbag49
(g65
g51
NtRp1438
(dp1439
g54
(dp1440
sg63
g931
sg56
(lp1441
g49
(g70
g51
NtRp1442
(dp1443
g54
(dp1444
g74
g75
ssg63
g1438
sg56
(lp1445
S'server_name'
p1446
asbag49
(g70
g51
NtRp1447
(dp1448
g54
(dp1449
g81
g82
ssg63
g1438
sg56
(lp1450
S':'
asbag49
(g70
g51
NtRp1451
(dp1452
g54
(dp1453
sg63
g1438
sg56
(lp1454
g49
(g50
g51
NtRp1455
(dp1456
g54
(dp1457
g62
I4
ssg63
g1451
sg56
(lp1458
S'craxsnet-PC'
p1459
asbasbasbag49
(g65
g51
NtRp1460
(dp1461
g54
(dp1462
sg63
g931
sg56
(lp1463
g49
(g70
g51
NtRp1464
(dp1465
g54
(dp1466
g74
g75
ssg63
g1460
sg56
(lp1467
S'server_port'
p1468
asbag49
(g70
g51
NtRp1469
(dp1470
g54
(dp1471
g81
g82
ssg63
g1460
sg56
(lp1472
S':'
asbag49
(g70
g51
NtRp1473
(dp1474
g54
(dp1475
sg63
g1460
sg56
(lp1476
g49
(g50
g51
NtRp1477
(dp1478
g54
(dp1479
g62
I4
ssg63
g1473
sg56
(lp1480
S'8000'
p1481
asbasbasbag49
(g65
g51
NtRp1482
(dp1483
g54
(dp1484
sg63
g931
sg56
(lp1485
g49
(g70
g51
NtRp1486
(dp1487
g54
(dp1488
g74
g75
ssg63
g1482
sg56
(lp1489
S'server_protocol'
p1490
asbag49
(g70
g51
NtRp1491
(dp1492
g54
(dp1493
g81
g82
ssg63
g1482
sg56
(lp1494
S':'
asbag49
(g70
g51
NtRp1495
(dp1496
g54
(dp1497
sg63
g1482
sg56
(lp1498
g49
(g50
g51
NtRp1499
(dp1500
g54
(dp1501
g62
I4
ssg63
g1495
sg56
(lp1502
S'HTTP/1.1'
p1503
asbasbasbag49
(g65
g51
NtRp1504
(dp1505
g54
(dp1506
sg63
g931
sg56
(lp1507
g49
(g70
g51
NtRp1508
(dp1509
g54
(dp1510
g74
g75
ssg63
g1504
sg56
(lp1511
S'server_software'
p1512
asbag49
(g70
g51
NtRp1513
(dp1514
g54
(dp1515
g81
g82
ssg63
g1504
sg56
(lp1516
S':'
asbag49
(g70
g51
NtRp1517
(dp1518
g54
(dp1519
sg63
g1504
sg56
(lp1520
g49
(g50
g51
NtRp1521
(dp1522
g54
(dp1523
g62
I4
ssg63
g1517
sg56
(lp1524
S'Rocket 1.2.4'
p1525
asbasbasbag49
(g65
g51
NtRp1526
(dp1527
g54
(dp1528
sg63
g931
sg56
(lp1529
g49
(g70
g51
NtRp1530
(dp1531
g54
(dp1532
g74
g75
ssg63
g1526
sg56
(lp1533
S'web2py_crontype'
p1534
asbag49
(g70
g51
NtRp1535
(dp1536
g54
(dp1537
g81
g82
ssg63
g1526
sg56
(lp1538
S':'
asbag49
(g70
g51
NtRp1539
(dp1540
g54
(dp1541
sg63
g1526
sg56
(lp1542
g49
(g50
g51
NtRp1543
(dp1544
g54
(dp1545
g62
I4
ssg63
g1539
sg56
(lp1546
S'hard'
p1547
asbasbasbag49
(g65
g51
NtRp1548
(dp1549
g54
(dp1550
sg63
g931
sg56
(lp1551
g49
(g70
g51
NtRp1552
(dp1553
g54
(dp1554
g74
g75
ssg63
g1548
sg56
(lp1555
S'web2py_path'
p1556
asbag49
(g70
g51
NtRp1557
(dp1558
g54
(dp1559
g81
g82
ssg63
g1548
sg56
(lp1560
S':'
asbag49
(g70
g51
NtRp1561
(dp1562
g54
(dp1563
sg63
g1548
sg56
(lp1564
g49
(g50
g51
NtRp1565
(dp1566
g54
(dp1567
g62
I4
ssg63
g1561
sg56
(lp1568
g978
asbasbasbag49
(g65
g51
NtRp1569
(dp1570
g54
(dp1571
sg63
g931
sg56
(lp1572
g49
(g70
g51
NtRp1573
(dp1574
g54
(dp1575
g74
g75
ssg63
g1569
sg56
(lp1576
S'web2py_version'
p1577
asbag49
(g70
g51
NtRp1578
(dp1579
g54
(dp1580
g81
g82
ssg63
g1569
sg56
(lp1581
S':'
asbag49
(g70
g51
NtRp1582
(dp1583
g54
(dp1584
sg63
g1569
sg56
(lp1585
g49
(g50
g51
NtRp1586
(dp1587
g54
(dp1588
g62
I4
ssg63
g1582
sg56
(lp1589
g49
(g58
g51
NtRp1590
(dp1591
g54
(dp1592
g62
I3
ssg63
Nsg56
(lp1593
g49
(g65
g51
NtRp1594
(dp1595
g54
(dp1596
sg63
g1590
sg56
(lp1597
g49
(g70
g51
NtRp1598
(dp1599
g54
(dp1600
sg63
g1594
sg56
(lp1601
g49
(g50
g51
NtRp1602
(dp1603
g54
(dp1604
g62
I3
ssg63
g1598
sg56
(lp1605
S'1'
asbasbasbag49
(g65
g51
NtRp1606
(dp1607
g54
(dp1608
sg63
g1590
sg56
(lp1609
g49
(g70
g51
NtRp1610
(dp1611
g54
(dp1612
sg63
g1606
sg56
(lp1613
g49
(g50
g51
NtRp1614
(dp1615
g54
(dp1616
g62
I3
ssg63
g1610
sg56
(lp1617
S'99'
p1618
asbasbasbag49
(g65
g51
NtRp1619
(dp1620
g54
(dp1621
sg63
g1590
sg56
(lp1622
g49
(g70
g51
NtRp1623
(dp1624
g54
(dp1625
sg63
g1619
sg56
(lp1626
g49
(g50
g51
NtRp1627
(dp1628
g54
(dp1629
g62
I3
ssg63
g1623
sg56
(lp1630
S'7'
asbasbasbag49
(g65
g51
NtRp1631
(dp1632
g54
(dp1633
sg63
g1590
sg56
(lp1634
g49
(g70
g51
NtRp1635
(dp1636
g54
(dp1637
sg63
g1631
sg56
(lp1638
g49
(g50
g51
NtRp1639
(dp1640
g54
(dp1641
g62
I3
ssg63
g1635
sg56
(lp1642
S'datetime.datetime(2012, 3, 4, 22, 12, 8)'
p1643
asbasbasbag49
(g65
g51
NtRp1644
(dp1645
g54
(dp1646
sg63
g1590
sg56
(lp1647
g49
(g70
g51
NtRp1648
(dp1649
g54
(dp1650
sg63
g1644
sg56
(lp1651
g49
(g50
g51
NtRp1652
(dp1653
g54
(dp1654
g62
I3
ssg63
g1648
sg56
(lp1655
S'stable'
p1656
asbasbasbasbasbasbasbag49
(g65
g51
NtRp1657
(dp1658
g54
(dp1659
sg63
g931
sg56
(lp1660
g49
(g70
g51
NtRp1661
(dp1662
g54
(dp1663
g74
g75
ssg63
g1657
sg56
(lp1664
S'wsgi_errors'
p1665
asbag49
(g70
g51
NtRp1666
(dp1667
g54
(dp1668
g81
g82
ssg63
g1657
sg56
(lp1669
S':'
asbag49
(g70
g51
NtRp1670
(dp1671
g54
(dp1672
sg63
g1657
sg56
(lp1673
g49
(g50
g51
NtRp1674
(dp1675
g54
(dp1676
g62
I4
ssg63
g1670
sg56
(lp1677
S"<open file '<stderr>', mode 'w' at 0x004200B0>"
p1678
asbasbasbag49
(g65
g51
NtRp1679
(dp1680
g54
(dp1681
sg63
g931
sg56
(lp1682
g49
(g70
g51
NtRp1683
(dp1684
g54
(dp1685
g74
g75
ssg63
g1679
sg56
(lp1686
S'wsgi_file_wrapper'
p1687
asbag49
(g70
g51
NtRp1688
(dp1689
g54
(dp1690
g81
g82
ssg63
g1679
sg56
(lp1691
S':'
asbag49
(g70
g51
NtRp1692
(dp1693
g54
(dp1694
sg63
g1679
sg56
(lp1695
g49
(g50
g51
NtRp1696
(dp1697
g54
(dp1698
g62
I4
ssg63
g1692
sg56
(lp1699
S'<class wsgiref.util.FileWrapper at 0x03115390>'
p1700
asbasbasbag49
(g65
g51
NtRp1701
(dp1702
g54
(dp1703
sg63
g931
sg56
(lp1704
g49
(g70
g51
NtRp1705
(dp1706
g54
(dp1707
g74
g75
ssg63
g1701
sg56
(lp1708
S'wsgi_input'
p1709
asbag49
(g70
g51
NtRp1710
(dp1711
g54
(dp1712
g81
g82
ssg63
g1701
sg56
(lp1713
S':'
asbag49
(g70
g51
NtRp1714
(dp1715
g54
(dp1716
sg63
g1701
sg56
(lp1717
g49
(g50
g51
NtRp1718
(dp1719
g54
(dp1720
g62
I4
ssg63
g1714
sg56
(lp1721
S'<socket._fileobject object at 0x07FCAD30>'
p1722
asbasbasbag49
(g65
g51
NtRp1723
(dp1724
g54
(dp1725
sg63
g931
sg56
(lp1726
g49
(g70
g51
NtRp1727
(dp1728
g54
(dp1729
g74
g75
ssg63
g1723
sg56
(lp1730
S'wsgi_multiprocess'
p1731
asbag49
(g70
g51
NtRp1732
(dp1733
g54
(dp1734
g81
g82
ssg63
g1723
sg56
(lp1735
S':'
asbag49
(g70
g51
NtRp1736
(dp1737
g54
(dp1738
sg63
g1723
sg56
(lp1739
g49
(g50
g51
NtRp1740
(dp1741
g54
(dp1742
g62
I4
ssg63
g1736
sg56
(lp1743
g92
asbasbasbag49
(g65
g51
NtRp1744
(dp1745
g54
(dp1746
sg63
g931
sg56
(lp1747
g49
(g70
g51
NtRp1748
(dp1749
g54
(dp1750
g74
g75
ssg63
g1744
sg56
(lp1751
S'wsgi_multithread'
p1752
asbag49
(g70
g51
NtRp1753
(dp1754
g54
(dp1755
g81
g82
ssg63
g1744
sg56
(lp1756
S':'
asbag49
(g70
g51
NtRp1757
(dp1758
g54
(dp1759
sg63
g1744
sg56
(lp1760
g49
(g50
g51
NtRp1761
(dp1762
g54
(dp1763
g62
I4
ssg63
g1757
sg56
(lp1764
S'True'
p1765
asbasbasbag49
(g65
g51
NtRp1766
(dp1767
g54
(dp1768
sg63
g931
sg56
(lp1769
g49
(g70
g51
NtRp1770
(dp1771
g54
(dp1772
g74
g75
ssg63
g1766
sg56
(lp1773
S'wsgi_run_once'
p1774
asbag49
(g70
g51
NtRp1775
(dp1776
g54
(dp1777
g81
g82
ssg63
g1766
sg56
(lp1778
S':'
asbag49
(g70
g51
NtRp1779
(dp1780
g54
(dp1781
sg63
g1766
sg56
(lp1782
g49
(g50
g51
NtRp1783
(dp1784
g54
(dp1785
g62
I4
ssg63
g1779
sg56
(lp1786
g92
asbasbasbag49
(g65
g51
NtRp1787
(dp1788
g54
(dp1789
sg63
g931
sg56
(lp1790
g49
(g70
g51
NtRp1791
(dp1792
g54
(dp1793
g74
g75
ssg63
g1787
sg56
(lp1794
S'wsgi_url_scheme'
p1795
asbag49
(g70
g51
NtRp1796
(dp1797
g54
(dp1798
g81
g82
ssg63
g1787
sg56
(lp1799
S':'
asbag49
(g70
g51
NtRp1800
(dp1801
g54
(dp1802
sg63
g1787
sg56
(lp1803
g49
(g50
g51
NtRp1804
(dp1805
g54
(dp1806
g62
I4
ssg63
g1800
sg56
(lp1807
S'http'
p1808
asbasbasbag49
(g65
g51
NtRp1809
(dp1810
g54
(dp1811
sg63
g931
sg56
(lp1812
g49
(g70
g51
NtRp1813
(dp1814
g54
(dp1815
g74
g75
ssg63
g1809
sg56
(lp1816
S'wsgi_version'
p1817
asbag49
(g70
g51
NtRp1818
(dp1819
g54
(dp1820
g81
g82
ssg63
g1809
sg56
(lp1821
S':'
asbag49
(g70
g51
NtRp1822
(dp1823
g54
(dp1824
sg63
g1809
sg56
(lp1825
g49
(g50
g51
NtRp1826
(dp1827
g54
(dp1828
g62
I4
ssg63
g1822
sg56
(lp1829
g49
(g58
g51
NtRp1830
(dp1831
g54
(dp1832
g62
I3
ssg63
Nsg56
(lp1833
g49
(g65
g51
NtRp1834
(dp1835
g54
(dp1836
sg63
g1830
sg56
(lp1837
g49
(g70
g51
NtRp1838
(dp1839
g54
(dp1840
sg63
g1834
sg56
(lp1841
g49
(g50
g51
NtRp1842
(dp1843
g54
(dp1844
g62
I3
ssg63
g1838
sg56
(lp1845
S'1'
asbasbasbag49
(g65
g51
NtRp1846
(dp1847
g54
(dp1848
sg63
g1830
sg56
(lp1849
g49
(g70
g51
NtRp1850
(dp1851
g54
(dp1852
sg63
g1846
sg56
(lp1853
g49
(g50
g51
NtRp1854
(dp1855
g54
(dp1856
g62
I3
ssg63
g1850
sg56
(lp1857
S'0'
asbasbasbasbasbasbasbasbasbasbasbag49
(g65
g51
NtRp1858
(dp1859
g54
(dp1860
sg63
g59
sg56
(lp1861
g49
(g70
g51
NtRp1862
(dp1863
g54
(dp1864
g74
g75
ssg63
g1858
sg56
(lp1865
S'extension'
p1866
asbag49
(g70
g51
NtRp1867
(dp1868
g54
(dp1869
g81
g82
ssg63
g1858
sg56
(lp1870
S':'
asbag49
(g70
g51
NtRp1871
(dp1872
g54
(dp1873
sg63
g1858
sg56
(lp1874
g49
(g50
g51
NtRp1875
(dp1876
g54
(dp1877
g62
I5
ssg63
g1871
sg56
(lp1878
S'html'
p1879
asbasbasbag49
(g65
g51
NtRp1880
(dp1881
g54
(dp1882
sg63
g59
sg56
(lp1883
g49
(g70
g51
NtRp1884
(dp1885
g54
(dp1886
g74
g75
ssg63
g1880
sg56
(lp1887
S'folder'
p1888
asbag49
(g70
g51
NtRp1889
(dp1890
g54
(dp1891
g81
g82
ssg63
g1880
sg56
(lp1892
S':'
asbag49
(g70
g51
NtRp1893
(dp1894
g54
(dp1895
sg63
g1880
sg56
(lp1896
g49
(g50
g51
NtRp1897
(dp1898
g54
(dp1899
g62
I5
ssg63
g1893
sg56
(lp1900
S'D:\\Dise\xf1o Web\\Proyectos\\Parleyweb\\web2py\\applications\\parleyweb\\'
p1901
asbasbasbag49
(g65
g51
NtRp1902
(dp1903
g54
(dp1904
sg63
g59
sg56
(lp1905
g49
(g70
g51
NtRp1906
(dp1907
g54
(dp1908
g74
g75
ssg63
g1902
sg56
(lp1909
S'function'
p1910
asbag49
(g70
g51
NtRp1911
(dp1912
g54
(dp1913
g81
g82
ssg63
g1902
sg56
(lp1914
S':'
asbag49
(g70
g51
NtRp1915
(dp1916
g54
(dp1917
sg63
g1902
sg56
(lp1918
g49
(g50
g51
NtRp1919
(dp1920
g54
(dp1921
g62
I5
ssg63
g1915
sg56
(lp1922
S'mostrar'
p1923
asbasbasbag49
(g65
g51
NtRp1924
(dp1925
g54
(dp1926
sg63
g59
sg56
(lp1927
g49
(g70
g51
NtRp1928
(dp1929
g54
(dp1930
g74
g75
ssg63
g1924
sg56
(lp1931
S'get_vars'
p1932
asbag49
(g70
g51
NtRp1933
(dp1934
g54
(dp1935
g81
g82
ssg63
g1924
sg56
(lp1936
S':'
asbag49
(g70
g51
NtRp1937
(dp1938
g54
(dp1939
sg63
g1924
sg56
(lp1940
g49
(g50
g51
NtRp1941
(dp1942
g54
(dp1943
g62
I5
ssg63
g1937
sg56
(lp1944
g49
(g58
g51
NtRp1945
(dp1946
g54
(dp1947
g62
I4
ssg63
Nsg56
(lp1948
sbasbasbasbag49
(g65
g51
NtRp1949
(dp1950
g54
(dp1951
sg63
g59
sg56
(lp1952
g49
(g70
g51
NtRp1953
(dp1954
g54
(dp1955
g74
g75
ssg63
g1949
sg56
(lp1956
S'global_settings'
p1957
asbag49
(g70
g51
NtRp1958
(dp1959
g54
(dp1960
g81
g82
ssg63
g1949
sg56
(lp1961
S':'
asbag49
(g70
g51
NtRp1962
(dp1963
g54
(dp1964
sg63
g1949
sg56
(lp1965
g49
(g50
g51
NtRp1966
(dp1967
g54
(dp1968
g62
I5
ssg63
g1962
sg56
(lp1969
g49
(g58
g51
NtRp1970
(dp1971
g54
(dp1972
g62
I4
ssg63
Nsg56
(lp1973
g49
(g65
g51
NtRp1974
(dp1975
g54
(dp1976
sg63
g1970
sg56
(lp1977
g49
(g70
g51
NtRp1978
(dp1979
g54
(dp1980
g74
g75
ssg63
g1974
sg56
(lp1981
g943
asbag49
(g70
g51
NtRp1982
(dp1983
g54
(dp1984
g81
g82
ssg63
g1974
sg56
(lp1985
S':'
asbag49
(g70
g51
NtRp1986
(dp1987
g54
(dp1988
sg63
g1974
sg56
(lp1989
g49
(g50
g51
NtRp1990
(dp1991
g54
(dp1992
g62
I4
ssg63
g1986
sg56
(lp1993
S"set(['D:\\\\Dise\\xf1o Web\\\\Proyectos\\\\Parleyweb\\\\web2py\\\\applications\\\\parleyweb\\\\', 'D:\\\\Dise\\xf1o Web\\\\Proyectos\\\\Parleyweb\\\\web2py\\\\applications\\\\welcome\\\\', 'D:\\\\Dise\\xf1o Web\\\\Proyectos\\\\Parleyweb\\\\web2py\\\\applications\\\\admin\\\\'])"
p1994
asbasbasbag49
(g65
g51
NtRp1995
(dp1996
g54
(dp1997
sg63
g1970
sg56
(lp1998
g49
(g70
g51
NtRp1999
(dp2000
g54
(dp2001
g74
g75
ssg63
g1995
sg56
(lp2002
g965
asbag49
(g70
g51
NtRp2003
(dp2004
g54
(dp2005
g81
g82
ssg63
g1995
sg56
(lp2006
S':'
asbag49
(g70
g51
NtRp2007
(dp2008
g54
(dp2009
sg63
g1995
sg56
(lp2010
g49
(g50
g51
NtRp2011
(dp2012
g54
(dp2013
g62
I4
ssg63
g2007
sg56
(lp2014
g978
asbasbasbag49
(g65
g51
NtRp2015
(dp2016
g54
(dp2017
sg63
g1970
sg56
(lp2018
g49
(g70
g51
NtRp2019
(dp2020
g54
(dp2021
g74
g75
ssg63
g2015
sg56
(lp2022
g987
asbag49
(g70
g51
NtRp2023
(dp2024
g54
(dp2025
g81
g82
ssg63
g2015
sg56
(lp2026
S':'
asbag49
(g70
g51
NtRp2027
(dp2028
g54
(dp2029
sg63
g2015
sg56
(lp2030
g49
(g50
g51
NtRp2031
(dp2032
g54
(dp2033
g62
I4
ssg63
g2027
sg56
(lp2034
g49
(g58
g51
NtRp2035
(dp2036
g54
(dp2037
g62
I3
ssg63
Nsg56
(lp2038
sbasbasbasbag49
(g65
g51
NtRp2039
(dp2040
g54
(dp2041
sg63
g1970
sg56
(lp2042
g49
(g70
g51
NtRp2043
(dp2044
g54
(dp2045
g74
g75
ssg63
g2039
sg56
(lp2046
g1012
asbag49
(g70
g51
NtRp2047
(dp2048
g54
(dp2049
g81
g82
ssg63
g2039
sg56
(lp2050
S':'
asbag49
(g70
g51
NtRp2051
(dp2052
g54
(dp2053
sg63
g2039
sg56
(lp2054
g49
(g50
g51
NtRp2055
(dp2056
g54
(dp2057
g62
I4
ssg63
g2051
sg56
(lp2058
S"<Values at 0x331ff30: {'verbose': False, 'ip': '127.0.0.1', 'shutdown_timeout': 5, 'taskbar': False, 'nocron': False, 'pid_filename': 'httpserver.pid', 'maxthreads': None, 'softcron': False, 'server_name': 'craxsnet-PC', 'bpython': False, 'nogui': False, 'port': 8000, 'extcron': False, 'debuglevel': 30, 'test': None, 'folder': 'D:\\\\Dise\\xf1o Web\\\\Proyectos\\\\Parleyweb\\\\web2py', 'config': '', 'import_models': False, 'winservice': '', 'shell': None, 'run': '', 'log_filename': 'httpserver.log', 'args': [''], 'socket_timeout': 5, 'ssl_ca_certificate': None, 'scheduler': None, 'profiler_filename': None, 'ssl_private_key': '', 'password': '<ask>', 'request_queue_size': 5, 'ssl_certificate': '', 'cronjob': False, 'numthreads': None, 'quiet': False, 'interfaces': None, 'minthreads': None, 'timeout': 10, 'plain': False, 'nobanner': False}>"
p2059
asbasbasbag49
(g65
g51
NtRp2060
(dp2061
g54
(dp2062
sg63
g1970
sg56
(lp2063
g49
(g70
g51
NtRp2064
(dp2065
g54
(dp2066
g74
g75
ssg63
g2060
sg56
(lp2067
g1034
asbag49
(g70
g51
NtRp2068
(dp2069
g54
(dp2070
g81
g82
ssg63
g2060
sg56
(lp2071
S':'
asbag49
(g70
g51
NtRp2072
(dp2073
g54
(dp2074
sg63
g2060
sg56
(lp2075
g49
(g50
g51
NtRp2076
(dp2077
g54
(dp2078
g62
I4
ssg63
g2072
sg56
(lp2079
S'set([])'
p2080
asbasbasbag49
(g65
g51
NtRp2081
(dp2082
g54
(dp2083
sg63
g1970
sg56
(lp2084
g49
(g70
g51
NtRp2085
(dp2086
g54
(dp2087
g74
g75
ssg63
g2081
sg56
(lp2088
g1056
asbag49
(g70
g51
NtRp2089
(dp2090
g54
(dp2091
g81
g82
ssg63
g2081
sg56
(lp2092
S':'
asbag49
(g70
g51
NtRp2093
(dp2094
g54
(dp2095
sg63
g2081
sg56
(lp2096
g49
(g50
g51
NtRp2097
(dp2098
g54
(dp2099
g62
I4
ssg63
g2093
sg56
(lp2100
g92
asbasbasbag49
(g65
g51
NtRp2101
(dp2102
g54
(dp2103
sg63
g1970
sg56
(lp2104
g49
(g70
g51
NtRp2105
(dp2106
g54
(dp2107
g74
g75
ssg63
g2101
sg56
(lp2108
g1077
asbag49
(g70
g51
NtRp2109
(dp2110
g54
(dp2111
g81
g82
ssg63
g2101
sg56
(lp2112
S':'
asbag49
(g70
g51
NtRp2113
(dp2114
g54
(dp2115
sg63
g2101
sg56
(lp2116
g49
(g50
g51
NtRp2117
(dp2118
g54
(dp2119
g62
I4
ssg63
g2113
sg56
(lp2120
g1090
asbasbasbag49
(g65
g51
NtRp2121
(dp2122
g54
(dp2123
sg63
g1970
sg56
(lp2124
g49
(g70
g51
NtRp2125
(dp2126
g54
(dp2127
g74
g75
ssg63
g2121
sg56
(lp2128
g1275
asbag49
(g70
g51
NtRp2129
(dp2130
g54
(dp2131
g81
g82
ssg63
g2121
sg56
(lp2132
S':'
asbag49
(g70
g51
NtRp2133
(dp2134
g54
(dp2135
sg63
g2121
sg56
(lp2136
g49
(g50
g51
NtRp2137
(dp2138
g54
(dp2139
g62
I4
ssg63
g2133
sg56
(lp2140
g92
asbasbasbag49
(g65
g51
NtRp2141
(dp2142
g54
(dp2143
sg63
g1970
sg56
(lp2144
g49
(g70
g51
NtRp2145
(dp2146
g54
(dp2147
g74
g75
ssg63
g2141
sg56
(lp2148
g1296
asbag49
(g70
g51
NtRp2149
(dp2150
g54
(dp2151
g81
g82
ssg63
g2141
sg56
(lp2152
S':'
asbag49
(g70
g51
NtRp2153
(dp2154
g54
(dp2155
sg63
g2141
sg56
(lp2156
g49
(g50
g51
NtRp2157
(dp2158
g54
(dp2159
g62
I4
ssg63
g2153
sg56
(lp2160
g92
asbasbasbag49
(g65
g51
NtRp2161
(dp2162
g54
(dp2163
sg63
g1970
sg56
(lp2164
g49
(g70
g51
NtRp2165
(dp2166
g54
(dp2167
g74
g75
ssg63
g2161
sg56
(lp2168
g1534
asbag49
(g70
g51
NtRp2169
(dp2170
g54
(dp2171
g81
g82
ssg63
g2161
sg56
(lp2172
S':'
asbag49
(g70
g51
NtRp2173
(dp2174
g54
(dp2175
sg63
g2161
sg56
(lp2176
g49
(g50
g51
NtRp2177
(dp2178
g54
(dp2179
g62
I4
ssg63
g2173
sg56
(lp2180
g1547
asbasbasbag49
(g65
g51
NtRp2181
(dp2182
g54
(dp2183
sg63
g1970
sg56
(lp2184
g49
(g70
g51
NtRp2185
(dp2186
g54
(dp2187
g74
g75
ssg63
g2181
sg56
(lp2188
g1577
asbag49
(g70
g51
NtRp2189
(dp2190
g54
(dp2191
g81
g82
ssg63
g2181
sg56
(lp2192
S':'
asbag49
(g70
g51
NtRp2193
(dp2194
g54
(dp2195
sg63
g2181
sg56
(lp2196
g49
(g50
g51
NtRp2197
(dp2198
g54
(dp2199
g62
I4
ssg63
g2193
sg56
(lp2200
g49
(g58
g51
NtRp2201
(dp2202
g54
(dp2203
g62
I3
ssg63
Nsg56
(lp2204
g49
(g65
g51
NtRp2205
(dp2206
g54
(dp2207
sg63
g2201
sg56
(lp2208
g49
(g70
g51
NtRp2209
(dp2210
g54
(dp2211
sg63
g2205
sg56
(lp2212
g49
(g50
g51
NtRp2213
(dp2214
g54
(dp2215
g62
I3
ssg63
g2209
sg56
(lp2216
S'1'
asbasbasbag49
(g65
g51
NtRp2217
(dp2218
g54
(dp2219
sg63
g2201
sg56
(lp2220
g49
(g70
g51
NtRp2221
(dp2222
g54
(dp2223
sg63
g2217
sg56
(lp2224
g49
(g50
g51
NtRp2225
(dp2226
g54
(dp2227
g62
I3
ssg63
g2221
sg56
(lp2228
S'99'
p2229
asbasbasbag49
(g65
g51
NtRp2230
(dp2231
g54
(dp2232
sg63
g2201
sg56
(lp2233
g49
(g70
g51
NtRp2234
(dp2235
g54
(dp2236
sg63
g2230
sg56
(lp2237
g49
(g50
g51
NtRp2238
(dp2239
g54
(dp2240
g62
I3
ssg63
g2234
sg56
(lp2241
S'7'
asbasbasbag49
(g65
g51
NtRp2242
(dp2243
g54
(dp2244
sg63
g2201
sg56
(lp2245
g49
(g70
g51
NtRp2246
(dp2247
g54
(dp2248
sg63
g2242
sg56
(lp2249
g49
(g50
g51
NtRp2250
(dp2251
g54
(dp2252
g62
I3
ssg63
g2246
sg56
(lp2253
S'datetime.datetime(2012, 3, 4, 22, 12, 8)'
p2254
asbasbasbag49
(g65
g51
NtRp2255
(dp2256
g54
(dp2257
sg63
g2201
sg56
(lp2258
g49
(g70
g51
NtRp2259
(dp2260
g54
(dp2261
sg63
g2255
sg56
(lp2262
g49
(g50
g51
NtRp2263
(dp2264
g54
(dp2265
g62
I3
ssg63
g2259
sg56
(lp2266
g1656
asbasbasbasbasbasbasbasbasbasbasbag49
(g65
g51
NtRp2267
(dp2268
g54
(dp2269
sg63
g59
sg56
(lp2270
g49
(g70
g51
NtRp2271
(dp2272
g54
(dp2273
g74
g75
ssg63
g2267
sg56
(lp2274
S'is_https'
p2275
asbag49
(g70
g51
NtRp2276
(dp2277
g54
(dp2278
g81
g82
ssg63
g2267
sg56
(lp2279
S':'
asbag49
(g70
g51
NtRp2280
(dp2281
g54
(dp2282
sg63
g2267
sg56
(lp2283
g49
(g50
g51
NtRp2284
(dp2285
g54
(dp2286
g62
I5
ssg63
g2280
sg56
(lp2287
g92
asbasbasbag49
(g65
g51
NtRp2288
(dp2289
g54
(dp2290
sg63
g59
sg56
(lp2291
g49
(g70
g51
NtRp2292
(dp2293
g54
(dp2294
g74
g75
ssg63
g2288
sg56
(lp2295
S'is_local'
p2296
asbag49
(g70
g51
NtRp2297
(dp2298
g54
(dp2299
g81
g82
ssg63
g2288
sg56
(lp2300
S':'
asbag49
(g70
g51
NtRp2301
(dp2302
g54
(dp2303
sg63
g2288
sg56
(lp2304
g49
(g50
g51
NtRp2305
(dp2306
g54
(dp2307
g62
I5
ssg63
g2301
sg56
(lp2308
g1765
asbasbasbag49
(g65
g51
NtRp2309
(dp2310
g54
(dp2311
sg63
g59
sg56
(lp2312
g49
(g70
g51
NtRp2313
(dp2314
g54
(dp2315
g74
g75
ssg63
g2309
sg56
(lp2316
S'is_restful'
p2317
asbag49
(g70
g51
NtRp2318
(dp2319
g54
(dp2320
g81
g82
ssg63
g2309
sg56
(lp2321
S':'
asbag49
(g70
g51
NtRp2322
(dp2323
g54
(dp2324
sg63
g2309
sg56
(lp2325
g49
(g50
g51
NtRp2326
(dp2327
g54
(dp2328
g62
I5
ssg63
g2322
sg56
(lp2329
g92
asbasbasbag49
(g65
g51
NtRp2330
(dp2331
g54
(dp2332
sg63
g59
sg56
(lp2333
g49
(g70
g51
NtRp2334
(dp2335
g54
(dp2336
g74
g75
ssg63
g2330
sg56
(lp2337
S'now'
p2338
asbag49
(g70
g51
NtRp2339
(dp2340
g54
(dp2341
g81
g82
ssg63
g2330
sg56
(lp2342
S':'
asbag49
(g70
g51
NtRp2343
(dp2344
g54
(dp2345
sg63
g2330
sg56
(lp2346
g49
(g50
g51
NtRp2347
(dp2348
g54
(dp2349
g62
I5
ssg63
g2343
sg56
(lp2350
S'datetime.datetime(2012, 3, 12, 18, 39, 43, 23000)'
p2351
asbasbasbag49
(g65
g51
NtRp2352
(dp2353
g54
(dp2354
sg63
g59
sg56
(lp2355
g49
(g70
g51
NtRp2356
(dp2357
g54
(dp2358
g74
g75
ssg63
g2352
sg56
(lp2359
S'post_vars'
p2360
asbag49
(g70
g51
NtRp2361
(dp2362
g54
(dp2363
g81
g82
ssg63
g2352
sg56
(lp2364
S':'
asbag49
(g70
g51
NtRp2365
(dp2366
g54
(dp2367
sg63
g2352
sg56
(lp2368
g49
(g50
g51
NtRp2369
(dp2370
g54
(dp2371
g62
I5
ssg63
g2365
sg56
(lp2372
g49
(g58
g51
NtRp2373
(dp2374
g54
(dp2375
g62
I4
ssg63
Nsg56
(lp2376
sbasbasbasbag49
(g65
g51
NtRp2377
(dp2378
g54
(dp2379
sg63
g59
sg56
(lp2380
g49
(g70
g51
NtRp2381
(dp2382
g54
(dp2383
g74
g75
ssg63
g2377
sg56
(lp2384
S'raw_args'
p2385
asbag49
(g70
g51
NtRp2386
(dp2387
g54
(dp2388
g81
g82
ssg63
g2377
sg56
(lp2389
S':'
asbag49
(g70
g51
NtRp2390
(dp2391
g54
(dp2392
sg63
g2377
sg56
(lp2393
g49
(g50
g51
NtRp2394
(dp2395
g54
(dp2396
g62
I5
ssg63
g2390
sg56
(lp2397
S'74'
p2398
asbasbasbag49
(g65
g51
NtRp2399
(dp2400
g54
(dp2401
sg63
g59
sg56
(lp2402
g49
(g70
g51
NtRp2403
(dp2404
g54
(dp2405
g74
g75
ssg63
g2399
sg56
(lp2406
S'url'
p2407
asbag49
(g70
g51
NtRp2408
(dp2409
g54
(dp2410
g81
g82
ssg63
g2399
sg56
(lp2411
S':'
asbag49
(g70
g51
NtRp2412
(dp2413
g54
(dp2414
sg63
g2399
sg56
(lp2415
g49
(g50
g51
NtRp2416
(dp2417
g54
(dp2418
g62
I5
ssg63
g2412
sg56
(lp2419
S'/parleyweb/default/mostrar/74'
p2420
asbasbasbag49
(g65
g51
NtRp2421
(dp2422
g54
(dp2423
sg63
g59
sg56
(lp2424
g49
(g70
g51
NtRp2425
(dp2426
g54
(dp2427
g74
g75
ssg63
g2421
sg56
(lp2428
S'utcnow'
p2429
asbag49
(g70
g51
NtRp2430
(dp2431
g54
(dp2432
g81
g82
ssg63
g2421
sg56
(lp2433
S':'
asbag49
(g70
g51
NtRp2434
(dp2435
g54
(dp2436
sg63
g2421
sg56
(lp2437
g49
(g50
g51
NtRp2438
(dp2439
g54
(dp2440
g62
I5
ssg63
g2434
sg56
(lp2441
S'datetime.datetime(2012, 3, 12, 17, 39, 43, 23000)'
p2442
asbasbasbag49
(g65
g51
NtRp2443
(dp2444
g54
(dp2445
sg63
g59
sg56
(lp2446
g49
(g70
g51
NtRp2447
(dp2448
g54
(dp2449
g74
g75
ssg63
g2443
sg56
(lp2450
S'uuid'
p2451
asbag49
(g70
g51
NtRp2452
(dp2453
g54
(dp2454
g81
g82
ssg63
g2443
sg56
(lp2455
S':'
asbag49
(g70
g51
NtRp2456
(dp2457
g54
(dp2458
sg63
g2443
sg56
(lp2459
g49
(g50
g51
NtRp2460
(dp2461
g54
(dp2462
g62
I5
ssg63
g2456
sg56
(lp2463
S'parleyweb/127.0.0.1.2012-03-12.18-39-43.686a5fb3-6f3b-4f9f-bc95-ef89876183cc'
p2464
asbasbasbag49
(g65
g51
NtRp2465
(dp2466
g54
(dp2467
sg63
g59
sg56
(lp2468
g49
(g70
g51
NtRp2469
(dp2470
g54
(dp2471
g74
g75
ssg63
g2465
sg56
(lp2472
S'vars'
p2473
asbag49
(g70
g51
NtRp2474
(dp2475
g54
(dp2476
g81
g82
ssg63
g2465
sg56
(lp2477
S':'
asbag49
(g70
g51
NtRp2478
(dp2479
g54
(dp2480
sg63
g2465
sg56
(lp2481
g49
(g50
g51
NtRp2482
(dp2483
g54
(dp2484
g62
I5
ssg63
g2478
sg56
(lp2485
g49
(g58
g51
NtRp2486
(dp2487
g54
(dp2488
g62
I4
ssg63
Nsg56
(lp2489
sbasbasbasbag49
(g65
g51
NtRp2490
(dp2491
g54
(dp2492
sg63
g59
sg56
(lp2493
g49
(g70
g51
NtRp2494
(dp2495
g54
(dp2496
g74
g75
ssg63
g2490
sg56
(lp2497
S'wsgi'
p2498
asbag49
(g70
g51
NtRp2499
(dp2500
g54
(dp2501
g81
g82
ssg63
g2490
sg56
(lp2502
S':'
asbag49
(g70
g51
NtRp2503
(dp2504
g54
(dp2505
sg63
g2490
sg56
(lp2506
g49
(g50
g51
NtRp2507
(dp2508
g54
(dp2509
g62
I5
ssg63
g2503
sg56
(lp2510
g49
(g58
g51
NtRp2511
(dp2512
g54
(dp2513
g62
I4
ssg63
Nsg56
(lp2514
g49
(g65
g51
NtRp2515
(dp2516
g54
(dp2517
sg63
g2511
sg56
(lp2518
g49
(g70
g51
NtRp2519
(dp2520
g54
(dp2521
g74
g75
ssg63
g2515
sg56
(lp2522
S'environ'
p2523
asbag49
(g70
g51
NtRp2524
(dp2525
g54
(dp2526
g81
g82
ssg63
g2515
sg56
(lp2527
S':'
asbag49
(g70
g51
NtRp2528
(dp2529
g54
(dp2530
sg63
g2515
sg56
(lp2531
g49
(g50
g51
NtRp2532
(dp2533
g54
(dp2534
g62
I4
ssg63
g2528
sg56
(lp2535
g49
(g58
g51
NtRp2536
(dp2537
g54
(dp2538
g62
I3
ssg63
Nsg56
(lp2539
g49
(g65
g51
NtRp2540
(dp2541
g54
(dp2542
sg63
g2536
sg56
(lp2543
g49
(g70
g51
NtRp2544
(dp2545
g54
(dp2546
g74
g75
ssg63
g2540
sg56
(lp2547
S'HTTP_ACCEPT'
p2548
asbag49
(g70
g51
NtRp2549
(dp2550
g54
(dp2551
g81
g82
ssg63
g2540
sg56
(lp2552
S':'
asbag49
(g70
g51
NtRp2553
(dp2554
g54
(dp2555
sg63
g2540
sg56
(lp2556
g49
(g50
g51
NtRp2557
(dp2558
g54
(dp2559
g62
I3
ssg63
g2553
sg56
(lp2560
g1112
asbasbasbag49
(g65
g51
NtRp2561
(dp2562
g54
(dp2563
sg63
g2536
sg56
(lp2564
g49
(g70
g51
NtRp2565
(dp2566
g54
(dp2567
g74
g75
ssg63
g2561
sg56
(lp2568
S'HTTP_ACCEPT_ENCODING'
p2569
asbag49
(g70
g51
NtRp2570
(dp2571
g54
(dp2572
g81
g82
ssg63
g2561
sg56
(lp2573
S':'
asbag49
(g70
g51
NtRp2574
(dp2575
g54
(dp2576
sg63
g2561
sg56
(lp2577
g49
(g50
g51
NtRp2578
(dp2579
g54
(dp2580
g62
I3
ssg63
g2574
sg56
(lp2581
g1134
asbasbasbag49
(g65
g51
NtRp2582
(dp2583
g54
(dp2584
sg63
g2536
sg56
(lp2585
g49
(g70
g51
NtRp2586
(dp2587
g54
(dp2588
g74
g75
ssg63
g2582
sg56
(lp2589
S'HTTP_ACCEPT_LANGUAGE'
p2590
asbag49
(g70
g51
NtRp2591
(dp2592
g54
(dp2593
g81
g82
ssg63
g2582
sg56
(lp2594
S':'
asbag49
(g70
g51
NtRp2595
(dp2596
g54
(dp2597
sg63
g2582
sg56
(lp2598
g49
(g50
g51
NtRp2599
(dp2600
g54
(dp2601
g62
I3
ssg63
g2595
sg56
(lp2602
g1156
asbasbasbag49
(g65
g51
NtRp2603
(dp2604
g54
(dp2605
sg63
g2536
sg56
(lp2606
g49
(g70
g51
NtRp2607
(dp2608
g54
(dp2609
g74
g75
ssg63
g2603
sg56
(lp2610
S'HTTP_CONNECTION'
p2611
asbag49
(g70
g51
NtRp2612
(dp2613
g54
(dp2614
g81
g82
ssg63
g2603
sg56
(lp2615
S':'
asbag49
(g70
g51
NtRp2616
(dp2617
g54
(dp2618
sg63
g2603
sg56
(lp2619
g49
(g50
g51
NtRp2620
(dp2621
g54
(dp2622
g62
I3
ssg63
g2616
sg56
(lp2623
g1178
asbasbasbag49
(g65
g51
NtRp2624
(dp2625
g54
(dp2626
sg63
g2536
sg56
(lp2627
g49
(g70
g51
NtRp2628
(dp2629
g54
(dp2630
g74
g75
ssg63
g2624
sg56
(lp2631
S'HTTP_COOKIE'
p2632
asbag49
(g70
g51
NtRp2633
(dp2634
g54
(dp2635
g81
g82
ssg63
g2624
sg56
(lp2636
S':'
asbag49
(g70
g51
NtRp2637
(dp2638
g54
(dp2639
sg63
g2624
sg56
(lp2640
g49
(g50
g51
NtRp2641
(dp2642
g54
(dp2643
g62
I3
ssg63
g2637
sg56
(lp2644
g1200
asbasbasbag49
(g65
g51
NtRp2645
(dp2646
g54
(dp2647
sg63
g2536
sg56
(lp2648
g49
(g70
g51
NtRp2649
(dp2650
g54
(dp2651
g74
g75
ssg63
g2645
sg56
(lp2652
S'HTTP_HOST'
p2653
asbag49
(g70
g51
NtRp2654
(dp2655
g54
(dp2656
g81
g82
ssg63
g2645
sg56
(lp2657
S':'
asbag49
(g70
g51
NtRp2658
(dp2659
g54
(dp2660
sg63
g2645
sg56
(lp2661
g49
(g50
g51
NtRp2662
(dp2663
g54
(dp2664
g62
I3
ssg63
g2658
sg56
(lp2665
g1222
asbasbasbag49
(g65
g51
NtRp2666
(dp2667
g54
(dp2668
sg63
g2536
sg56
(lp2669
g49
(g70
g51
NtRp2670
(dp2671
g54
(dp2672
g74
g75
ssg63
g2666
sg56
(lp2673
S'HTTP_REFERER'
p2674
asbag49
(g70
g51
NtRp2675
(dp2676
g54
(dp2677
g81
g82
ssg63
g2666
sg56
(lp2678
S':'
asbag49
(g70
g51
NtRp2679
(dp2680
g54
(dp2681
sg63
g2666
sg56
(lp2682
g49
(g50
g51
NtRp2683
(dp2684
g54
(dp2685
g62
I3
ssg63
g2679
sg56
(lp2686
g1244
asbasbasbag49
(g65
g51
NtRp2687
(dp2688
g54
(dp2689
sg63
g2536
sg56
(lp2690
g49
(g70
g51
NtRp2691
(dp2692
g54
(dp2693
g74
g75
ssg63
g2687
sg56
(lp2694
S'HTTP_USER_AGENT'
p2695
asbag49
(g70
g51
NtRp2696
(dp2697
g54
(dp2698
g81
g82
ssg63
g2687
sg56
(lp2699
S':'
asbag49
(g70
g51
NtRp2700
(dp2701
g54
(dp2702
sg63
g2687
sg56
(lp2703
g49
(g50
g51
NtRp2704
(dp2705
g54
(dp2706
g62
I3
ssg63
g2700
sg56
(lp2707
g1266
asbasbasbag49
(g65
g51
NtRp2708
(dp2709
g54
(dp2710
sg63
g2536
sg56
(lp2711
g49
(g70
g51
NtRp2712
(dp2713
g54
(dp2714
g74
g75
ssg63
g2708
sg56
(lp2715
S'PATH_INFO'
p2716
asbag49
(g70
g51
NtRp2717
(dp2718
g54
(dp2719
g81
g82
ssg63
g2708
sg56
(lp2720
S':'
asbag49
(g70
g51
NtRp2721
(dp2722
g54
(dp2723
sg63
g2708
sg56
(lp2724
g49
(g50
g51
NtRp2725
(dp2726
g54
(dp2727
g62
I3
ssg63
g2721
sg56
(lp2728
g1330
asbasbasbag49
(g65
g51
NtRp2729
(dp2730
g54
(dp2731
sg63
g2536
sg56
(lp2732
g49
(g70
g51
NtRp2733
(dp2734
g54
(dp2735
g74
g75
ssg63
g2729
sg56
(lp2736
S'QUERY_STRING'
p2737
asbag49
(g70
g51
NtRp2738
(dp2739
g54
(dp2740
g81
g82
ssg63
g2729
sg56
(lp2741
S':'
asbag49
(g70
g51
NtRp2742
(dp2743
g54
(dp2744
sg63
g2729
sg56
(lp2745
g49
(g50
g51
NtRp2746
(dp2747
g54
(dp2748
g62
I3
ssg63
g2742
sg56
(lp2749
S''
asbasbasbag49
(g65
g51
NtRp2750
(dp2751
g54
(dp2752
sg63
g2536
sg56
(lp2753
g49
(g70
g51
NtRp2754
(dp2755
g54
(dp2756
g74
g75
ssg63
g2750
sg56
(lp2757
S'REMOTE_ADDR'
p2758
asbag49
(g70
g51
NtRp2759
(dp2760
g54
(dp2761
g81
g82
ssg63
g2750
sg56
(lp2762
S':'
asbag49
(g70
g51
NtRp2763
(dp2764
g54
(dp2765
sg63
g2750
sg56
(lp2766
g49
(g50
g51
NtRp2767
(dp2768
g54
(dp2769
g62
I3
ssg63
g2763
sg56
(lp2770
g195
asbasbasbag49
(g65
g51
NtRp2771
(dp2772
g54
(dp2773
sg63
g2536
sg56
(lp2774
g49
(g70
g51
NtRp2775
(dp2776
g54
(dp2777
g74
g75
ssg63
g2771
sg56
(lp2778
S'REMOTE_PORT'
p2779
asbag49
(g70
g51
NtRp2780
(dp2781
g54
(dp2782
g81
g82
ssg63
g2771
sg56
(lp2783
S':'
asbag49
(g70
g51
NtRp2784
(dp2785
g54
(dp2786
sg63
g2771
sg56
(lp2787
g49
(g50
g51
NtRp2788
(dp2789
g54
(dp2790
g62
I3
ssg63
g2784
sg56
(lp2791
g1394
asbasbasbag49
(g65
g51
NtRp2792
(dp2793
g54
(dp2794
sg63
g2536
sg56
(lp2795
g49
(g70
g51
NtRp2796
(dp2797
g54
(dp2798
g74
g75
ssg63
g2792
sg56
(lp2799
S'REQUEST_METHOD'
p2800
asbag49
(g70
g51
NtRp2801
(dp2802
g54
(dp2803
g81
g82
ssg63
g2792
sg56
(lp2804
S':'
asbag49
(g70
g51
NtRp2805
(dp2806
g54
(dp2807
sg63
g2792
sg56
(lp2808
g49
(g50
g51
NtRp2809
(dp2810
g54
(dp2811
g62
I3
ssg63
g2805
sg56
(lp2812
g1416
asbasbasbag49
(g65
g51
NtRp2813
(dp2814
g54
(dp2815
sg63
g2536
sg56
(lp2816
g49
(g70
g51
NtRp2817
(dp2818
g54
(dp2819
g74
g75
ssg63
g2813
sg56
(lp2820
S'SCRIPT_NAME'
p2821
asbag49
(g70
g51
NtRp2822
(dp2823
g54
(dp2824
g81
g82
ssg63
g2813
sg56
(lp2825
S':'
asbag49
(g70
g51
NtRp2826
(dp2827
g54
(dp2828
sg63
g2813
sg56
(lp2829
g49
(g50
g51
NtRp2830
(dp2831
g54
(dp2832
g62
I3
ssg63
g2826
sg56
(lp2833
S''
asbasbasbag49
(g65
g51
NtRp2834
(dp2835
g54
(dp2836
sg63
g2536
sg56
(lp2837
g49
(g70
g51
NtRp2838
(dp2839
g54
(dp2840
g74
g75
ssg63
g2834
sg56
(lp2841
S'SERVER_NAME'
p2842
asbag49
(g70
g51
NtRp2843
(dp2844
g54
(dp2845
g81
g82
ssg63
g2834
sg56
(lp2846
S':'
asbag49
(g70
g51
NtRp2847
(dp2848
g54
(dp2849
sg63
g2834
sg56
(lp2850
g49
(g50
g51
NtRp2851
(dp2852
g54
(dp2853
g62
I3
ssg63
g2847
sg56
(lp2854
g1459
asbasbasbag49
(g65
g51
NtRp2855
(dp2856
g54
(dp2857
sg63
g2536
sg56
(lp2858
g49
(g70
g51
NtRp2859
(dp2860
g54
(dp2861
g74
g75
ssg63
g2855
sg56
(lp2862
S'SERVER_PORT'
p2863
asbag49
(g70
g51
NtRp2864
(dp2865
g54
(dp2866
g81
g82
ssg63
g2855
sg56
(lp2867
S':'
asbag49
(g70
g51
NtRp2868
(dp2869
g54
(dp2870
sg63
g2855
sg56
(lp2871
g49
(g50
g51
NtRp2872
(dp2873
g54
(dp2874
g62
I3
ssg63
g2868
sg56
(lp2875
g1481
asbasbasbag49
(g65
g51
NtRp2876
(dp2877
g54
(dp2878
sg63
g2536
sg56
(lp2879
g49
(g70
g51
NtRp2880
(dp2881
g54
(dp2882
g74
g75
ssg63
g2876
sg56
(lp2883
S'SERVER_PROTOCOL'
p2884
asbag49
(g70
g51
NtRp2885
(dp2886
g54
(dp2887
g81
g82
ssg63
g2876
sg56
(lp2888
S':'
asbag49
(g70
g51
NtRp2889
(dp2890
g54
(dp2891
sg63
g2876
sg56
(lp2892
g49
(g50
g51
NtRp2893
(dp2894
g54
(dp2895
g62
I3
ssg63
g2889
sg56
(lp2896
g1503
asbasbasbag49
(g65
g51
NtRp2897
(dp2898
g54
(dp2899
sg63
g2536
sg56
(lp2900
g49
(g70
g51
NtRp2901
(dp2902
g54
(dp2903
g74
g75
ssg63
g2897
sg56
(lp2904
S'SERVER_SOFTWARE'
p2905
asbag49
(g70
g51
NtRp2906
(dp2907
g54
(dp2908
g81
g82
ssg63
g2897
sg56
(lp2909
S':'
asbag49
(g70
g51
NtRp2910
(dp2911
g54
(dp2912
sg63
g2897
sg56
(lp2913
g49
(g50
g51
NtRp2914
(dp2915
g54
(dp2916
g62
I3
ssg63
g2910
sg56
(lp2917
g1525
asbasbasbag49
(g65
g51
NtRp2918
(dp2919
g54
(dp2920
sg63
g2536
sg56
(lp2921
g49
(g70
g51
NtRp2922
(dp2923
g54
(dp2924
g74
g75
ssg63
g2918
sg56
(lp2925
S'wsgi.errors'
p2926
asbag49
(g70
g51
NtRp2927
(dp2928
g54
(dp2929
g81
g82
ssg63
g2918
sg56
(lp2930
S':'
asbag49
(g70
g51
NtRp2931
(dp2932
g54
(dp2933
sg63
g2918
sg56
(lp2934
g49
(g50
g51
NtRp2935
(dp2936
g54
(dp2937
g62
I3
ssg63
g2931
sg56
(lp2938
S"<open file '<stderr>', mode 'w' at 0x004200B0>"
p2939
asbasbasbag49
(g65
g51
NtRp2940
(dp2941
g54
(dp2942
sg63
g2536
sg56
(lp2943
g49
(g70
g51
NtRp2944
(dp2945
g54
(dp2946
g74
g75
ssg63
g2940
sg56
(lp2947
S'wsgi.file_wrapper'
p2948
asbag49
(g70
g51
NtRp2949
(dp2950
g54
(dp2951
g81
g82
ssg63
g2940
sg56
(lp2952
S':'
asbag49
(g70
g51
NtRp2953
(dp2954
g54
(dp2955
sg63
g2940
sg56
(lp2956
g49
(g50
g51
NtRp2957
(dp2958
g54
(dp2959
g62
I3
ssg63
g2953
sg56
(lp2960
S'<class wsgiref.util.FileWrapper at 0x03115390>'
p2961
asbasbasbag49
(g65
g51
NtRp2962
(dp2963
g54
(dp2964
sg63
g2536
sg56
(lp2965
g49
(g70
g51
NtRp2966
(dp2967
g54
(dp2968
g74
g75
ssg63
g2962
sg56
(lp2969
S'wsgi.input'
p2970
asbag49
(g70
g51
NtRp2971
(dp2972
g54
(dp2973
g81
g82
ssg63
g2962
sg56
(lp2974
S':'
asbag49
(g70
g51
NtRp2975
(dp2976
g54
(dp2977
sg63
g2962
sg56
(lp2978
g49
(g50
g51
NtRp2979
(dp2980
g54
(dp2981
g62
I3
ssg63
g2975
sg56
(lp2982
S'<cStringIO.StringO object at 0x076996A0>'
p2983
asbasbasbag49
(g65
g51
NtRp2984
(dp2985
g54
(dp2986
sg63
g2536
sg56
(lp2987
g49
(g70
g51
NtRp2988
(dp2989
g54
(dp2990
g74
g75
ssg63
g2984
sg56
(lp2991
S'wsgi.multiprocess'
p2992
asbag49
(g70
g51
NtRp2993
(dp2994
g54
(dp2995
g81
g82
ssg63
g2984
sg56
(lp2996
S':'
asbag49
(g70
g51
NtRp2997
(dp2998
g54
(dp2999
sg63
g2984
sg56
(lp3000
g49
(g50
g51
NtRp3001
(dp3002
g54
(dp3003
g62
I3
ssg63
g2997
sg56
(lp3004
g92
asbasbasbag49
(g65
g51
NtRp3005
(dp3006
g54
(dp3007
sg63
g2536
sg56
(lp3008
g49
(g70
g51
NtRp3009
(dp3010
g54
(dp3011
g74
g75
ssg63
g3005
sg56
(lp3012
S'wsgi.multithread'
p3013
asbag49
(g70
g51
NtRp3014
(dp3015
g54
(dp3016
g81
g82
ssg63
g3005
sg56
(lp3017
S':'
asbag49
(g70
g51
NtRp3018
(dp3019
g54
(dp3020
sg63
g3005
sg56
(lp3021
g49
(g50
g51
NtRp3022
(dp3023
g54
(dp3024
g62
I3
ssg63
g3018
sg56
(lp3025
g1765
asbasbasbag49
(g65
g51
NtRp3026
(dp3027
g54
(dp3028
sg63
g2536
sg56
(lp3029
g49
(g70
g51
NtRp3030
(dp3031
g54
(dp3032
g74
g75
ssg63
g3026
sg56
(lp3033
S'wsgi.run_once'
p3034
asbag49
(g70
g51
NtRp3035
(dp3036
g54
(dp3037
g81
g82
ssg63
g3026
sg56
(lp3038
S':'
asbag49
(g70
g51
NtRp3039
(dp3040
g54
(dp3041
sg63
g3026
sg56
(lp3042
g49
(g50
g51
NtRp3043
(dp3044
g54
(dp3045
g62
I3
ssg63
g3039
sg56
(lp3046
g92
asbasbasbag49
(g65
g51
NtRp3047
(dp3048
g54
(dp3049
sg63
g2536
sg56
(lp3050
g49
(g70
g51
NtRp3051
(dp3052
g54
(dp3053
g74
g75
ssg63
g3047
sg56
(lp3054
S'wsgi.url_scheme'
p3055
asbag49
(g70
g51
NtRp3056
(dp3057
g54
(dp3058
g81
g82
ssg63
g3047
sg56
(lp3059
S':'
asbag49
(g70
g51
NtRp3060
(dp3061
g54
(dp3062
sg63
g3047
sg56
(lp3063
g49
(g50
g51
NtRp3064
(dp3065
g54
(dp3066
g62
I3
ssg63
g3060
sg56
(lp3067
g1808
asbasbasbag49
(g65
g51
NtRp3068
(dp3069
g54
(dp3070
sg63
g2536
sg56
(lp3071
g49
(g70
g51
NtRp3072
(dp3073
g54
(dp3074
g74
g75
ssg63
g3068
sg56
(lp3075
S'wsgi.version'
p3076
asbag49
(g70
g51
NtRp3077
(dp3078
g54
(dp3079
g81
g82
ssg63
g3068
sg56
(lp3080
S':'
asbag49
(g70
g51
NtRp3081
(dp3082
g54
(dp3083
sg63
g3068
sg56
(lp3084
g49
(g50
g51
NtRp3085
(dp3086
g54
(dp3087
g62
I3
ssg63
g3081
sg56
(lp3088
S'1'
asbasbasbasbasbasbasbasbasbasbasbasbasbsS'frames'
p3089
(lp3090
(dp3091
S'file'
p3092
S'D:\\Dise\xf1o Web\\Proyectos\\Parleyweb\\web2py\\gluon\\restricted.py'
p3093
sS'dump'
p3094
(dp3095
sS'lnum'
p3096
I205
sS'lines'
p3097
(dp3098
sS'call'
p3099
S'(code=\'response.write(\\\'<!DOCTYPE html>\\\\n<!-- paulirish....>\\\\n   \\\\n\\\\n \\\\n\\\\n</body>\\\\n</html>\\\\n", escape=False)\', environment={\'A\': <class \'gluon.html.A\'>, \'Auth\': <class \'gluon.tools.Auth\'>, \'B\': <class \'gluon.html.B\'>, \'BEAUTIFY\': <class \'gluon.html.BEAUTIFY\'>, \'BODY\': <class \'gluon.html.BODY\'>, \'BR\': <class \'gluon.html.BR\'>, \'BUTTON\': <class \'gluon.html.BUTTON\'>, \'CAT\': <class \'gluon.html.CAT\'>, \'CENTER\': <class \'gluon.html.CENTER\'>, \'CLEANUP\': <class \'gluon.validators.CLEANUP\'>, ...}, layer=\'D:\\\\Dise\\xf1o Web\\\\Proyectos\\\\Parleyweb\\\\web2py\\\\applications\\\\parleyweb\\\\views\\\\default/mostrar.html\')'
p3100
sS'func'
p3101
S'restricted'
p3102
sa(dp3103
g3092
S'D:\\Dise\xf1o Web\\Proyectos\\Parleyweb\\web2py\\applications\\parleyweb\\views\\default\\mostrar.html'
p3104
sg3094
(dp3105
sg3096
I220
sg3097
(dp3106
I224
S'            if registro.fuente:'
p3107
sI225
S"                response.write('\\n                                    ', escape=False)"
p3108
sI226
S'                response.write(registro.fuente.nombre)'
p3109
sI227
S"                response.write('\\n                                ', escape=False)"
p3110
sI228
S'                pass'
p3111
sI229
S"            response.write('\\n                            </td>\\n                        </tr>\\n                        ', escape=False)"
p3112
sI230
S'            pass'
p3113
sI211
S"        response.write('\\n                    </tbody>\\n                </table>\\n            </div>\\n        </div>                                                                  <!-- FIN DIV OCULTO PARA MOSTRAR EL ADJETIVO -->\\n        \\n                                                                                <!-- FIN SI LA PALABRA ES UN ADVERVIO Y ADJETIVO -->\\n            \\n        ', escape=False)"
p3114
sI212
S'    elif palabras.adjetivo==True:'
p3115
sI213
S'        response.write(\'                                       <!-- SI LA PALABRAS ES UN ADJETIVO  -->\\n            <div class="toggle-mostrar">\\n                <h4>Adjetivo</h4>\\n            </div>\\n            <div class="wellparley2">\\n                <h4 class="h4-mostrar">Ejemplos</h4>\\n                <table class="table table-striped table-bordered">\\n                    <tbody>\\n                        <thead>\\n                        <tr>\\n                            <th>\', escape=False)'
p3116
sI214
S"        response.write(IMG(_src=URL('static', 'images/germany.gif')))"
p3117
sI215
S"        response.write('</th>\\n                            <th>', escape=False)"
p3118
sI216
S"        response.write(IMG(_src=URL('static', 'images/spain.gif')))"
p3119
sI217
S"        response.write('</th>\\n                            <th>Fuente</th>\\n                        </tr>\\n                    </thead>\\n                          ', escape=False)"
p3120
sI218
S"        for registro in ejemplos(db.ejemplos.tipo=='adjetivo').select():"
p3121
sI219
S"            response.write('\\n                        <tr>\\n                            <td>\\n                                ', escape=False)"
p3122
sI220
S'            response.write(registro.ejemplo_de)'
p3123
sI221
S"            response.write('\\n                            </td>\\n                            <td>\\n                                ', escape=False)"
p3124
sI222
S'            response.write(registro.ejemplo_es)'
p3125
sI223
S"            response.write('\\n                            </td>\\n                               \\n                            <td>\\n                                ', escape=False)"
p3126
ssg3099
S'()'
p3127
sg3101
S'<module>'
p3128
sa(dp3129
g3092
S'D:\\Dise\xf1o Web\\Proyectos\\Parleyweb\\web2py\\gluon\\dal.py'
p3130
sg3094
(dp3131
sg3096
I5657
sg3097
(dp3132
sg3099
S"(self=<Row {'palabras': <Row {'presente_1': None, 'ima...te_record': <function <lambda> at 0x069916B0>}>}>, key='ejemplo_de')"
p3133
sg3101
S'__getattr__'
p3134
sa(dp3135
g3092
S'D:\\Dise\xf1o Web\\Proyectos\\Parleyweb\\web2py\\gluon\\dal.py'
p3136
sg3094
(dp3137
sg3096
I5648
sg3097
(dp3138
sg3099
S"(self=<Row {'palabras': <Row {'presente_1': None, 'ima...te_record': <function <lambda> at 0x069916B0>}>}>, key='ejemplo_de')"
p3139
sg3101
g20
sasS'pyver'
p3140
S'Python 2.5.4: D:\\Dise\xf1o Web\\Proyectos\\Parleyweb\\web2py\\web2py.exe'
p3141
sS'session'
p3142
g49
(g50
g51
NtRp3143
(dp3144
g54
(dp3145
sg56
(lp3146
g49
(g58
g51
NtRp3147
(dp3148
g54
(dp3149
g62
I5
ssg63
Nsg56
(lp3150
g49
(g65
g51
NtRp3151
(dp3152
g54
(dp3153
sg63
g3147
sg56
(lp3154
g49
(g70
g51
NtRp3155
(dp3156
g54
(dp3157
g74
g75
ssg63
g3151
sg56
(lp3158
S'last_query'
p3159
asbag49
(g70
g51
NtRp3160
(dp3161
g54
(dp3162
g81
g82
ssg63
g3151
sg56
(lp3163
S':'
asbag49
(g70
g51
NtRp3164
(dp3165
g54
(dp3166
sg63
g3151
sg56
(lp3167
g49
(g50
g51
NtRp3168
(dp3169
g54
(dp3170
g62
I5
ssg63
g3164
sg56
(lp3171
S'db.palabra_ejemplo.id>0'
p3172
asbasbasbasbasbsS'etype'
p3173
S"<type 'exceptions.KeyError'>"
p3174
sS'date'
p3175
S'Mon Mar 12 18:39:43 2012'
p3176
sS'response'
p3177
g49
(g50
g51
NtRp3178
(dp3179
g54
(dp3180
sg56
(lp3181
g49
(g58
g51
NtRp3182
(dp3183
g54
(dp3184
g62
I5
ssg63
Nsg56
(lp3185
g49
(g65
g51
NtRp3186
(dp3187
g54
(dp3188
sg63
g3182
sg56
(lp3189
g49
(g70
g51
NtRp3190
(dp3191
g54
(dp3192
g74
g75
ssg63
g3186
sg56
(lp3193
g160
asbag49
(g70
g51
NtRp3194
(dp3195
g54
(dp3196
g81
g82
ssg63
g3186
sg56
(lp3197
S':'
asbag49
(g70
g51
NtRp3198
(dp3199
g54
(dp3200
sg63
g3186
sg56
(lp3201
g49
(g50
g51
NtRp3202
(dp3203
g54
(dp3204
g62
I5
ssg63
g3198
sg56
(lp3205
S'<cStringIO.StringO object at 0x08080780>'
p3206
asbasbasbag49
(g65
g51
NtRp3207
(dp3208
g54
(dp3209
sg63
g3182
sg56
(lp3210
g49
(g70
g51
NtRp3211
(dp3212
g54
(dp3213
g74
g75
ssg63
g3207
sg56
(lp3214
g226
asbag49
(g70
g51
NtRp3215
(dp3216
g54
(dp3217
g81
g82
ssg63
g3207
sg56
(lp3218
S':'
asbag49
(g70
g51
NtRp3219
(dp3220
g54
(dp3221
sg63
g3207
sg56
(lp3222
g49
(g50
g51
NtRp3223
(dp3224
g54
(dp3225
g62
I5
ssg63
g3219
sg56
(lp3226
g49
(g58
g51
NtRp3227
(dp3228
g54
(dp3229
g62
I4
ssg63
Nsg56
(lp3230
g49
(g65
g51
NtRp3231
(dp3232
g54
(dp3233
sg63
g3227
sg56
(lp3234
g49
(g70
g51
NtRp3235
(dp3236
g54
(dp3237
g74
g75
ssg63
g3231
sg56
(lp3238
S'session_id_parleyweb'
p3239
asbag49
(g70
g51
NtRp3240
(dp3241
g54
(dp3242
g81
g82
ssg63
g3231
sg56
(lp3243
S':'
asbag49
(g70
g51
NtRp3244
(dp3245
g54
(dp3246
sg63
g3231
sg56
(lp3247
g49
(g50
g51
NtRp3248
(dp3249
g54
(dp3250
g62
I4
ssg63
g3244
sg56
(lp3251
g49
(g58
g51
NtRp3252
(dp3253
g54
(dp3254
g62
I3
ssg63
Nsg56
(lp3255
g49
(g65
g51
NtRp3256
(dp3257
g54
(dp3258
sg63
g3252
sg56
(lp3259
g49
(g70
g51
NtRp3260
(dp3261
g54
(dp3262
g74
g75
ssg63
g3256
sg56
(lp3263
g276
asbag49
(g70
g51
NtRp3264
(dp3265
g54
(dp3266
g81
g82
ssg63
g3256
sg56
(lp3267
S':'
asbag49
(g70
g51
NtRp3268
(dp3269
g54
(dp3270
sg63
g3256
sg56
(lp3271
g49
(g50
g51
NtRp3272
(dp3273
g54
(dp3274
g62
I3
ssg63
g3268
sg56
(lp3275
S''
asbasbasbag49
(g65
g51
NtRp3276
(dp3277
g54
(dp3278
sg63
g3252
sg56
(lp3279
g49
(g70
g51
NtRp3280
(dp3281
g54
(dp3282
g74
g75
ssg63
g3276
sg56
(lp3283
g297
asbag49
(g70
g51
NtRp3284
(dp3285
g54
(dp3286
g81
g82
ssg63
g3276
sg56
(lp3287
S':'
asbag49
(g70
g51
NtRp3288
(dp3289
g54
(dp3290
sg63
g3276
sg56
(lp3291
g49
(g50
g51
NtRp3292
(dp3293
g54
(dp3294
g62
I3
ssg63
g3288
sg56
(lp3295
S''
asbasbasbag49
(g65
g51
NtRp3296
(dp3297
g54
(dp3298
sg63
g3252
sg56
(lp3299
g49
(g70
g51
NtRp3300
(dp3301
g54
(dp3302
g74
g75
ssg63
g3296
sg56
(lp3303
g318
asbag49
(g70
g51
NtRp3304
(dp3305
g54
(dp3306
g81
g82
ssg63
g3296
sg56
(lp3307
S':'
asbag49
(g70
g51
NtRp3308
(dp3309
g54
(dp3310
sg63
g3296
sg56
(lp3311
g49
(g50
g51
NtRp3312
(dp3313
g54
(dp3314
g62
I3
ssg63
g3308
sg56
(lp3315
S''
asbasbasbag49
(g65
g51
NtRp3316
(dp3317
g54
(dp3318
sg63
g3252
sg56
(lp3319
g49
(g70
g51
NtRp3320
(dp3321
g54
(dp3322
g74
g75
ssg63
g3316
sg56
(lp3323
g339
asbag49
(g70
g51
NtRp3324
(dp3325
g54
(dp3326
g81
g82
ssg63
g3316
sg56
(lp3327
S':'
asbag49
(g70
g51
NtRp3328
(dp3329
g54
(dp3330
sg63
g3316
sg56
(lp3331
g49
(g50
g51
NtRp3332
(dp3333
g54
(dp3334
g62
I3
ssg63
g3328
sg56
(lp3335
S''
asbasbasbag49
(g65
g51
NtRp3336
(dp3337
g54
(dp3338
sg63
g3252
sg56
(lp3339
g49
(g70
g51
NtRp3340
(dp3341
g54
(dp3342
g74
g75
ssg63
g3336
sg56
(lp3343
g360
asbag49
(g70
g51
NtRp3344
(dp3345
g54
(dp3346
g81
g82
ssg63
g3336
sg56
(lp3347
S':'
asbag49
(g70
g51
NtRp3348
(dp3349
g54
(dp3350
sg63
g3336
sg56
(lp3351
g49
(g50
g51
NtRp3352
(dp3353
g54
(dp3354
g62
I3
ssg63
g3348
sg56
(lp3355
S'/'
asbasbasbag49
(g65
g51
NtRp3356
(dp3357
g54
(dp3358
sg63
g3252
sg56
(lp3359
g49
(g70
g51
NtRp3360
(dp3361
g54
(dp3362
g74
g75
ssg63
g3356
sg56
(lp3363
g381
asbag49
(g70
g51
NtRp3364
(dp3365
g54
(dp3366
g81
g82
ssg63
g3356
sg56
(lp3367
S':'
asbag49
(g70
g51
NtRp3368
(dp3369
g54
(dp3370
sg63
g3356
sg56
(lp3371
g49
(g50
g51
NtRp3372
(dp3373
g54
(dp3374
g62
I3
ssg63
g3368
sg56
(lp3375
S''
asbasbasbag49
(g65
g51
NtRp3376
(dp3377
g54
(dp3378
sg63
g3252
sg56
(lp3379
g49
(g70
g51
NtRp3380
(dp3381
g54
(dp3382
g74
g75
ssg63
g3376
sg56
(lp3383
g402
asbag49
(g70
g51
NtRp3384
(dp3385
g54
(dp3386
g81
g82
ssg63
g3376
sg56
(lp3387
S':'
asbag49
(g70
g51
NtRp3388
(dp3389
g54
(dp3390
sg63
g3376
sg56
(lp3391
g49
(g50
g51
NtRp3392
(dp3393
g54
(dp3394
g62
I3
ssg63
g3388
sg56
(lp3395
S''
asbasbasbasbasbasbasbasbasbasbasbag49
(g65
g51
NtRp3396
(dp3397
g54
(dp3398
sg63
g3182
sg56
(lp3399
g49
(g70
g51
NtRp3400
(dp3401
g54
(dp3402
g74
g75
ssg63
g3396
sg56
(lp3403
S'delimiters'
p3404
asbag49
(g70
g51
NtRp3405
(dp3406
g54
(dp3407
g81
g82
ssg63
g3396
sg56
(lp3408
S':'
asbag49
(g70
g51
NtRp3409
(dp3410
g54
(dp3411
sg63
g3396
sg56
(lp3412
g49
(g50
g51
NtRp3413
(dp3414
g54
(dp3415
g62
I5
ssg63
g3409
sg56
(lp3416
g49
(g58
g51
NtRp3417
(dp3418
g54
(dp3419
g62
I4
ssg63
Nsg56
(lp3420
g49
(g65
g51
NtRp3421
(dp3422
g54
(dp3423
sg63
g3417
sg56
(lp3424
g49
(g70
g51
NtRp3425
(dp3426
g54
(dp3427
sg63
g3421
sg56
(lp3428
g49
(g50
g51
NtRp3429
(dp3430
g54
(dp3431
g62
I4
ssg63
g3425
sg56
(lp3432
S'{{'
p3433
asbasbasbag49
(g65
g51
NtRp3434
(dp3435
g54
(dp3436
sg63
g3417
sg56
(lp3437
g49
(g70
g51
NtRp3438
(dp3439
g54
(dp3440
sg63
g3434
sg56
(lp3441
g49
(g50
g51
NtRp3442
(dp3443
g54
(dp3444
g62
I4
ssg63
g3438
sg56
(lp3445
S'}}'
p3446
asbasbasbasbasbasbasbag49
(g65
g51
NtRp3447
(dp3448
g54
(dp3449
sg63
g3182
sg56
(lp3450
g49
(g70
g51
NtRp3451
(dp3452
g54
(dp3453
g74
g75
ssg63
g3447
sg56
(lp3454
S'files'
p3455
asbag49
(g70
g51
NtRp3456
(dp3457
g54
(dp3458
g81
g82
ssg63
g3447
sg56
(lp3459
S':'
asbag49
(g70
g51
NtRp3460
(dp3461
g54
(dp3462
sg63
g3447
sg56
(lp3463
g49
(g50
g51
NtRp3464
(dp3465
g54
(dp3466
g62
I5
ssg63
g3460
sg56
(lp3467
g49
(g58
g51
NtRp3468
(dp3469
g54
(dp3470
g62
I4
ssg63
Nsg56
(lp3471
g49
(g65
g51
NtRp3472
(dp3473
g54
(dp3474
sg63
g3468
sg56
(lp3475
g49
(g70
g51
NtRp3476
(dp3477
g54
(dp3478
sg63
g3472
sg56
(lp3479
g49
(g50
g51
NtRp3480
(dp3481
g54
(dp3482
g62
I4
ssg63
g3476
sg56
(lp3483
S'/parleyweb/static/js/jquery.js'
p3484
asbasbasbag49
(g65
g51
NtRp3485
(dp3486
g54
(dp3487
sg63
g3468
sg56
(lp3488
g49
(g70
g51
NtRp3489
(dp3490
g54
(dp3491
sg63
g3485
sg56
(lp3492
g49
(g50
g51
NtRp3493
(dp3494
g54
(dp3495
g62
I4
ssg63
g3489
sg56
(lp3496
S'/parleyweb/static/css/calendar.css'
p3497
asbasbasbag49
(g65
g51
NtRp3498
(dp3499
g54
(dp3500
sg63
g3468
sg56
(lp3501
g49
(g70
g51
NtRp3502
(dp3503
g54
(dp3504
sg63
g3498
sg56
(lp3505
g49
(g50
g51
NtRp3506
(dp3507
g54
(dp3508
g62
I4
ssg63
g3502
sg56
(lp3509
S'/parleyweb/static/js/calendar.js'
p3510
asbasbasbag49
(g65
g51
NtRp3511
(dp3512
g54
(dp3513
sg63
g3468
sg56
(lp3514
g49
(g70
g51
NtRp3515
(dp3516
g54
(dp3517
sg63
g3511
sg56
(lp3518
g49
(g50
g51
NtRp3519
(dp3520
g54
(dp3521
g62
I4
ssg63
g3515
sg56
(lp3522
S'/parleyweb/static/js/web2py.js'
p3523
asbasbasbag49
(g65
g51
NtRp3524
(dp3525
g54
(dp3526
sg63
g3468
sg56
(lp3527
g49
(g70
g51
NtRp3528
(dp3529
g54
(dp3530
sg63
g3524
sg56
(lp3531
g49
(g50
g51
NtRp3532
(dp3533
g54
(dp3534
g62
I4
ssg63
g3528
sg56
(lp3535
S'/parleyweb/static/css/bootstrap.css'
p3536
asbasbasbag49
(g65
g51
NtRp3537
(dp3538
g54
(dp3539
sg63
g3468
sg56
(lp3540
g49
(g70
g51
NtRp3541
(dp3542
g54
(dp3543
sg63
g3537
sg56
(lp3544
g49
(g50
g51
NtRp3545
(dp3546
g54
(dp3547
g62
I4
ssg63
g3541
sg56
(lp3548
S'/parleyweb/static/js/bootstrap.js'
p3549
asbasbasbag49
(g65
g51
NtRp3550
(dp3551
g54
(dp3552
sg63
g3468
sg56
(lp3553
g49
(g70
g51
NtRp3554
(dp3555
g54
(dp3556
sg63
g3550
sg56
(lp3557
g49
(g50
g51
NtRp3558
(dp3559
g54
(dp3560
g62
I4
ssg63
g3554
sg56
(lp3561
S'/parleyweb/static/css/parleyweb.css'
p3562
asbasbasbag49
(g65
g51
NtRp3563
(dp3564
g54
(dp3565
sg63
g3468
sg56
(lp3566
g49
(g70
g51
NtRp3567
(dp3568
g54
(dp3569
sg63
g3563
sg56
(lp3570
g49
(g50
g51
NtRp3571
(dp3572
g54
(dp3573
g62
I4
ssg63
g3567
sg56
(lp3574
S'/parleyweb/static/css/jquery-ui-1.8.18.custom.css'
p3575
asbasbasbag49
(g65
g51
NtRp3576
(dp3577
g54
(dp3578
sg63
g3468
sg56
(lp3579
g49
(g70
g51
NtRp3580
(dp3581
g54
(dp3582
sg63
g3576
sg56
(lp3583
g49
(g50
g51
NtRp3584
(dp3585
g54
(dp3586
g62
I4
ssg63
g3580
sg56
(lp3587
S'/parleyweb/static/js/parleyweb.js'
p3588
asbasbasbag49
(g65
g51
NtRp3589
(dp3590
g54
(dp3591
sg63
g3468
sg56
(lp3592
g49
(g70
g51
NtRp3593
(dp3594
g54
(dp3595
sg63
g3589
sg56
(lp3596
g49
(g50
g51
NtRp3597
(dp3598
g54
(dp3599
g62
I4
ssg63
g3593
sg56
(lp3600
S'/parleyweb/static/js/jquery-ui-1.8.18.custom.min.js'
p3601
asbasbasbasbasbasbasbag49
(g65
g51
NtRp3602
(dp3603
g54
(dp3604
sg63
g3182
sg56
(lp3605
g49
(g70
g51
NtRp3606
(dp3607
g54
(dp3608
g74
g75
ssg63
g3602
sg56
(lp3609
S'flash'
p3610
asbag49
(g70
g51
NtRp3611
(dp3612
g54
(dp3613
g81
g82
ssg63
g3602
sg56
(lp3614
S':'
asbag49
(g70
g51
NtRp3615
(dp3616
g54
(dp3617
sg63
g3602
sg56
(lp3618
g49
(g50
g51
NtRp3619
(dp3620
g54
(dp3621
g62
I5
ssg63
g3615
sg56
(lp3622
S''
asbasbasbag49
(g65
g51
NtRp3623
(dp3624
g54
(dp3625
sg63
g3182
sg56
(lp3626
g49
(g70
g51
NtRp3627
(dp3628
g54
(dp3629
g74
g75
ssg63
g3623
sg56
(lp3630
S'generic_patterns'
p3631
asbag49
(g70
g51
NtRp3632
(dp3633
g54
(dp3634
g81
g82
ssg63
g3623
sg56
(lp3635
S':'
asbag49
(g70
g51
NtRp3636
(dp3637
g54
(dp3638
sg63
g3623
sg56
(lp3639
g49
(g50
g51
NtRp3640
(dp3641
g54
(dp3642
g62
I5
ssg63
g3636
sg56
(lp3643
g49
(g58
g51
NtRp3644
(dp3645
g54
(dp3646
g62
I4
ssg63
Nsg56
(lp3647
g49
(g65
g51
NtRp3648
(dp3649
g54
(dp3650
sg63
g3644
sg56
(lp3651
g49
(g70
g51
NtRp3652
(dp3653
g54
(dp3654
sg63
g3648
sg56
(lp3655
g49
(g50
g51
NtRp3656
(dp3657
g54
(dp3658
g62
I4
ssg63
g3652
sg56
(lp3659
S'*'
asbasbasbasbasbasbasbag49
(g65
g51
NtRp3660
(dp3661
g54
(dp3662
sg63
g3182
sg56
(lp3663
g49
(g70
g51
NtRp3664
(dp3665
g54
(dp3666
g74
g75
ssg63
g3660
sg56
(lp3667
S'headers'
p3668
asbag49
(g70
g51
NtRp3669
(dp3670
g54
(dp3671
g81
g82
ssg63
g3660
sg56
(lp3672
S':'
asbag49
(g70
g51
NtRp3673
(dp3674
g54
(dp3675
sg63
g3660
sg56
(lp3676
g49
(g50
g51
NtRp3677
(dp3678
g54
(dp3679
g62
I5
ssg63
g3673
sg56
(lp3680
g49
(g58
g51
NtRp3681
(dp3682
g54
(dp3683
g62
I4
ssg63
Nsg56
(lp3684
g49
(g65
g51
NtRp3685
(dp3686
g54
(dp3687
sg63
g3681
sg56
(lp3688
g49
(g70
g51
NtRp3689
(dp3690
g54
(dp3691
g74
g75
ssg63
g3685
sg56
(lp3692
S'Cache-Control'
p3693
asbag49
(g70
g51
NtRp3694
(dp3695
g54
(dp3696
g81
g82
ssg63
g3685
sg56
(lp3697
S':'
asbag49
(g70
g51
NtRp3698
(dp3699
g54
(dp3700
sg63
g3685
sg56
(lp3701
g49
(g50
g51
NtRp3702
(dp3703
g54
(dp3704
g62
I4
ssg63
g3698
sg56
(lp3705
S'no-store, no-cache, must-revalidate, post-check=0, pre-check=0'
p3706
asbasbasbag49
(g65
g51
NtRp3707
(dp3708
g54
(dp3709
sg63
g3681
sg56
(lp3710
g49
(g70
g51
NtRp3711
(dp3712
g54
(dp3713
g74
g75
ssg63
g3707
sg56
(lp3714
S'Content-Type'
p3715
asbag49
(g70
g51
NtRp3716
(dp3717
g54
(dp3718
g81
g82
ssg63
g3707
sg56
(lp3719
S':'
asbag49
(g70
g51
NtRp3720
(dp3721
g54
(dp3722
sg63
g3707
sg56
(lp3723
g49
(g50
g51
NtRp3724
(dp3725
g54
(dp3726
g62
I4
ssg63
g3720
sg56
(lp3727
S'text/html; charset=utf-8'
p3728
asbasbasbag49
(g65
g51
NtRp3729
(dp3730
g54
(dp3731
sg63
g3681
sg56
(lp3732
g49
(g70
g51
NtRp3733
(dp3734
g54
(dp3735
g74
g75
ssg63
g3729
sg56
(lp3736
S'Expires'
p3737
asbag49
(g70
g51
NtRp3738
(dp3739
g54
(dp3740
g81
g82
ssg63
g3729
sg56
(lp3741
S':'
asbag49
(g70
g51
NtRp3742
(dp3743
g54
(dp3744
sg63
g3729
sg56
(lp3745
g49
(g50
g51
NtRp3746
(dp3747
g54
(dp3748
g62
I4
ssg63
g3742
sg56
(lp3749
S'Mon, 12 Mar 2012 17:39:43 GMT'
p3750
asbasbasbag49
(g65
g51
NtRp3751
(dp3752
g54
(dp3753
sg63
g3681
sg56
(lp3754
g49
(g70
g51
NtRp3755
(dp3756
g54
(dp3757
g74
g75
ssg63
g3751
sg56
(lp3758
S'Pragma'
p3759
asbag49
(g70
g51
NtRp3760
(dp3761
g54
(dp3762
g81
g82
ssg63
g3751
sg56
(lp3763
S':'
asbag49
(g70
g51
NtRp3764
(dp3765
g54
(dp3766
sg63
g3751
sg56
(lp3767
g49
(g50
g51
NtRp3768
(dp3769
g54
(dp3770
g62
I4
ssg63
g3764
sg56
(lp3771
S'no-cache'
p3772
asbasbasbag49
(g65
g51
NtRp3773
(dp3774
g54
(dp3775
sg63
g3681
sg56
(lp3776
g49
(g70
g51
NtRp3777
(dp3778
g54
(dp3779
g74
g75
ssg63
g3773
sg56
(lp3780
S'X-Powered-By'
p3781
asbag49
(g70
g51
NtRp3782
(dp3783
g54
(dp3784
g81
g82
ssg63
g3773
sg56
(lp3785
S':'
asbag49
(g70
g51
NtRp3786
(dp3787
g54
(dp3788
sg63
g3773
sg56
(lp3789
g49
(g50
g51
NtRp3790
(dp3791
g54
(dp3792
g62
I4
ssg63
g3786
sg56
(lp3793
S'web2py'
p3794
asbasbasbasbasbasbasbag49
(g65
g51
NtRp3795
(dp3796
g54
(dp3797
sg63
g3182
sg56
(lp3798
g49
(g70
g51
NtRp3799
(dp3800
g54
(dp3801
g74
g75
ssg63
g3795
sg56
(lp3802
S'menu'
p3803
asbag49
(g70
g51
NtRp3804
(dp3805
g54
(dp3806
g81
g82
ssg63
g3795
sg56
(lp3807
S':'
asbag49
(g70
g51
NtRp3808
(dp3809
g54
(dp3810
sg63
g3795
sg56
(lp3811
g49
(g50
g51
NtRp3812
(dp3813
g54
(dp3814
g62
I5
ssg63
g3808
sg56
(lp3815
g49
(g58
g51
NtRp3816
(dp3817
g54
(dp3818
g62
I4
ssg63
Nsg56
(lp3819
g49
(g65
g51
NtRp3820
(dp3821
g54
(dp3822
sg63
g3816
sg56
(lp3823
g49
(g70
g51
NtRp3824
(dp3825
g54
(dp3826
sg63
g3820
sg56
(lp3827
g49
(g50
g51
NtRp3828
(dp3829
g54
(dp3830
g62
I4
ssg63
g3824
sg56
(lp3831
g49
(g58
g51
NtRp3832
(dp3833
g54
(dp3834
g62
I3
ssg63
Nsg56
(lp3835
g49
(g65
g51
NtRp3836
(dp3837
g54
(dp3838
sg63
g3832
sg56
(lp3839
g49
(g70
g51
NtRp3840
(dp3841
g54
(dp3842
sg63
g3836
sg56
(lp3843
g49
(g50
g51
NtRp3844
(dp3845
g54
(dp3846
g62
I3
ssg63
g3840
sg56
(lp3847
cgluon.languages
lazyT_unpickle
p3848
(S't\x04\x00\x00\x00Home'
tRp3849
asbasbasbag49
(g65
g51
NtRp3850
(dp3851
g54
(dp3852
sg63
g3832
sg56
(lp3853
g49
(g70
g51
NtRp3854
(dp3855
g54
(dp3856
sg63
g3850
sg56
(lp3857
g49
(g50
g51
NtRp3858
(dp3859
g54
(dp3860
g62
I3
ssg63
g3854
sg56
(lp3861
g92
asbasbasbag49
(g65
g51
NtRp3862
(dp3863
g54
(dp3864
sg63
g3832
sg56
(lp3865
g49
(g70
g51
NtRp3866
(dp3867
g54
(dp3868
sg63
g3862
sg56
(lp3869
g49
(g50
g51
NtRp3870
(dp3871
g54
(dp3872
g62
I3
ssg63
g3866
sg56
(lp3873
S'/parleyweb/default/index'
p3874
asbasbasbag49
(g65
g51
NtRp3875
(dp3876
g54
(dp3877
sg63
g3832
sg56
(lp3878
g49
(g70
g51
NtRp3879
(dp3880
g54
(dp3881
sg63
g3875
sg56
(lp3882
g49
(g50
g51
NtRp3883
(dp3884
g54
(dp3885
g62
I3
ssg63
g3879
sg56
(lp3886
g49
(g58
g51
NtRp3887
(dp3888
g54
(dp3889
g62
I2
ssg63
Nsg56
(lp3890
sbasbasbasbasbasbasbasbasbasbasbasbag49
(g65
g51
NtRp3891
(dp3892
g54
(dp3893
sg63
g3182
sg56
(lp3894
g49
(g70
g51
NtRp3895
(dp3896
g54
(dp3897
g74
g75
ssg63
g3891
sg56
(lp3898
S'meta'
p3899
asbag49
(g70
g51
NtRp3900
(dp3901
g54
(dp3902
g81
g82
ssg63
g3891
sg56
(lp3903
S':'
asbag49
(g70
g51
NtRp3904
(dp3905
g54
(dp3906
sg63
g3891
sg56
(lp3907
g49
(g50
g51
NtRp3908
(dp3909
g54
(dp3910
g62
I5
ssg63
g3904
sg56
(lp3911
g49
(g58
g51
NtRp3912
(dp3913
g54
(dp3914
g62
I4
ssg63
Nsg56
(lp3915
g49
(g65
g51
NtRp3916
(dp3917
g54
(dp3918
sg63
g3912
sg56
(lp3919
g49
(g70
g51
NtRp3920
(dp3921
g54
(dp3922
g74
g75
ssg63
g3916
sg56
(lp3923
S'author'
p3924
asbag49
(g70
g51
NtRp3925
(dp3926
g54
(dp3927
g81
g82
ssg63
g3916
sg56
(lp3928
S':'
asbag49
(g70
g51
NtRp3929
(dp3930
g54
(dp3931
sg63
g3916
sg56
(lp3932
g49
(g50
g51
NtRp3933
(dp3934
g54
(dp3935
g62
I4
ssg63
g3929
sg56
(lp3936
S'Your Name <you@example.com>'
p3937
asbasbasbag49
(g65
g51
NtRp3938
(dp3939
g54
(dp3940
sg63
g3912
sg56
(lp3941
g49
(g70
g51
NtRp3942
(dp3943
g54
(dp3944
g74
g75
ssg63
g3938
sg56
(lp3945
S'copyright'
p3946
asbag49
(g70
g51
NtRp3947
(dp3948
g54
(dp3949
g81
g82
ssg63
g3938
sg56
(lp3950
S':'
asbag49
(g70
g51
NtRp3951
(dp3952
g54
(dp3953
sg63
g3938
sg56
(lp3954
g49
(g50
g51
NtRp3955
(dp3956
g54
(dp3957
g62
I4
ssg63
g3951
sg56
(lp3958
S'Copyright 2011'
p3959
asbasbasbag49
(g65
g51
NtRp3960
(dp3961
g54
(dp3962
sg63
g3912
sg56
(lp3963
g49
(g70
g51
NtRp3964
(dp3965
g54
(dp3966
g74
g75
ssg63
g3960
sg56
(lp3967
S'description'
p3968
asbag49
(g70
g51
NtRp3969
(dp3970
g54
(dp3971
g81
g82
ssg63
g3960
sg56
(lp3972
S':'
asbag49
(g70
g51
NtRp3973
(dp3974
g54
(dp3975
sg63
g3960
sg56
(lp3976
g49
(g50
g51
NtRp3977
(dp3978
g54
(dp3979
g62
I4
ssg63
g3973
sg56
(lp3980
S'a cool new app'
p3981
asbasbasbag49
(g65
g51
NtRp3982
(dp3983
g54
(dp3984
sg63
g3912
sg56
(lp3985
g49
(g70
g51
NtRp3986
(dp3987
g54
(dp3988
g74
g75
ssg63
g3982
sg56
(lp3989
S'generator'
p3990
asbag49
(g70
g51
NtRp3991
(dp3992
g54
(dp3993
g81
g82
ssg63
g3982
sg56
(lp3994
S':'
asbag49
(g70
g51
NtRp3995
(dp3996
g54
(dp3997
sg63
g3982
sg56
(lp3998
g49
(g50
g51
NtRp3999
(dp4000
g54
(dp4001
g62
I4
ssg63
g3995
sg56
(lp4002
S'Web2py Web Framework'
p4003
asbasbasbag49
(g65
g51
NtRp4004
(dp4005
g54
(dp4006
sg63
g3912
sg56
(lp4007
g49
(g70
g51
NtRp4008
(dp4009
g54
(dp4010
g74
g75
ssg63
g4004
sg56
(lp4011
S'keywords'
p4012
asbag49
(g70
g51
NtRp4013
(dp4014
g54
(dp4015
g81
g82
ssg63
g4004
sg56
(lp4016
S':'
asbag49
(g70
g51
NtRp4017
(dp4018
g54
(dp4019
sg63
g4004
sg56
(lp4020
g49
(g50
g51
NtRp4021
(dp4022
g54
(dp4023
g62
I4
ssg63
g4017
sg56
(lp4024
S'web2py, python, framework'
p4025
asbasbasbasbasbasbasbag49
(g65
g51
NtRp4026
(dp4027
g54
(dp4028
sg63
g3182
sg56
(lp4029
g49
(g70
g51
NtRp4030
(dp4031
g54
(dp4032
g74
g75
ssg63
g4026
sg56
(lp4033
S'postprocessing'
p4034
asbag49
(g70
g51
NtRp4035
(dp4036
g54
(dp4037
g81
g82
ssg63
g4026
sg56
(lp4038
S':'
asbag49
(g70
g51
NtRp4039
(dp4040
g54
(dp4041
sg63
g4026
sg56
(lp4042
g49
(g50
g51
NtRp4043
(dp4044
g54
(dp4045
g62
I5
ssg63
g4039
sg56
(lp4046
g49
(g58
g51
NtRp4047
(dp4048
g54
(dp4049
g62
I4
ssg63
Nsg56
(lp4050
sbasbasbasbag49
(g65
g51
NtRp4051
(dp4052
g54
(dp4053
sg63
g3182
sg56
(lp4054
g49
(g70
g51
NtRp4055
(dp4056
g54
(dp4057
g74
g75
ssg63
g4051
sg56
(lp4058
S'session_file'
p4059
asbag49
(g70
g51
NtRp4060
(dp4061
g54
(dp4062
g81
g82
ssg63
g4051
sg56
(lp4063
S':'
asbag49
(g70
g51
NtRp4064
(dp4065
g54
(dp4066
sg63
g4051
sg56
(lp4067
g49
(g50
g51
NtRp4068
(dp4069
g54
(dp4070
g62
I5
ssg63
g4064
sg56
(lp4071
S"<open file 'D:\\Dise\xf1o Web\\Proyectos\\Parleyweb\\web2py\\applications\\parleyweb\\sessions\\127.0.0.1-2049810e-c086-402c-857f-06991c56216c', mode 'rb+' at 0x06C04F08>"
p4072
asbasbasbag49
(g65
g51
NtRp4073
(dp4074
g54
(dp4075
sg63
g3182
sg56
(lp4076
g49
(g70
g51
NtRp4077
(dp4078
g54
(dp4079
g74
g75
ssg63
g4073
sg56
(lp4080
S'session_filename'
p4081
asbag49
(g70
g51
NtRp4082
(dp4083
g54
(dp4084
g81
g82
ssg63
g4073
sg56
(lp4085
S':'
asbag49
(g70
g51
NtRp4086
(dp4087
g54
(dp4088
sg63
g4073
sg56
(lp4089
g49
(g50
g51
NtRp4090
(dp4091
g54
(dp4092
g62
I5
ssg63
g4086
sg56
(lp4093
S'D:\\Dise\xf1o Web\\Proyectos\\Parleyweb\\web2py\\applications\\parleyweb\\sessions\\127.0.0.1-2049810e-c086-402c-857f-06991c56216c'
p4094
asbasbasbag49
(g65
g51
NtRp4095
(dp4096
g54
(dp4097
sg63
g3182
sg56
(lp4098
g49
(g70
g51
NtRp4099
(dp4100
g54
(dp4101
g74
g75
ssg63
g4095
sg56
(lp4102
S'session_id'
p4103
asbag49
(g70
g51
NtRp4104
(dp4105
g54
(dp4106
g81
g82
ssg63
g4095
sg56
(lp4107
S':'
asbag49
(g70
g51
NtRp4108
(dp4109
g54
(dp4110
sg63
g4095
sg56
(lp4111
g49
(g50
g51
NtRp4112
(dp4113
g54
(dp4114
g62
I5
ssg63
g4108
sg56
(lp4115
S'127.0.0.1-2049810e-c086-402c-857f-06991c56216c'
p4116
asbasbasbag49
(g65
g51
NtRp4117
(dp4118
g54
(dp4119
sg63
g3182
sg56
(lp4120
g49
(g70
g51
NtRp4121
(dp4122
g54
(dp4123
g74
g75
ssg63
g4117
sg56
(lp4124
S'session_id_name'
p4125
asbag49
(g70
g51
NtRp4126
(dp4127
g54
(dp4128
g81
g82
ssg63
g4117
sg56
(lp4129
S':'
asbag49
(g70
g51
NtRp4130
(dp4131
g54
(dp4132
sg63
g4117
sg56
(lp4133
g49
(g50
g51
NtRp4134
(dp4135
g54
(dp4136
g62
I5
ssg63
g4130
sg56
(lp4137
g3239
asbasbasbag49
(g65
g51
NtRp4138
(dp4139
g54
(dp4140
sg63
g3182
sg56
(lp4141
g49
(g70
g51
NtRp4142
(dp4143
g54
(dp4144
g74
g75
ssg63
g4138
sg56
(lp4145
S'session_locked'
p4146
asbag49
(g70
g51
NtRp4147
(dp4148
g54
(dp4149
g81
g82
ssg63
g4138
sg56
(lp4150
S':'
asbag49
(g70
g51
NtRp4151
(dp4152
g54
(dp4153
sg63
g4138
sg56
(lp4154
g49
(g50
g51
NtRp4155
(dp4156
g54
(dp4157
g62
I5
ssg63
g4151
sg56
(lp4158
g1765
asbasbasbag49
(g65
g51
NtRp4159
(dp4160
g54
(dp4161
sg63
g3182
sg56
(lp4162
g49
(g70
g51
NtRp4163
(dp4164
g54
(dp4165
g74
g75
ssg63
g4159
sg56
(lp4166
S'session_new'
p4167
asbag49
(g70
g51
NtRp4168
(dp4169
g54
(dp4170
g81
g82
ssg63
g4159
sg56
(lp4171
S':'
asbag49
(g70
g51
NtRp4172
(dp4173
g54
(dp4174
sg63
g4159
sg56
(lp4175
g49
(g50
g51
NtRp4176
(dp4177
g54
(dp4178
g62
I5
ssg63
g4172
sg56
(lp4179
g92
asbasbasbag49
(g65
g51
NtRp4180
(dp4181
g54
(dp4182
sg63
g3182
sg56
(lp4183
g49
(g70
g51
NtRp4184
(dp4185
g54
(dp4186
g74
g75
ssg63
g4180
sg56
(lp4187
S'status'
p4188
asbag49
(g70
g51
NtRp4189
(dp4190
g54
(dp4191
g81
g82
ssg63
g4180
sg56
(lp4192
S':'
asbag49
(g70
g51
NtRp4193
(dp4194
g54
(dp4195
sg63
g4180
sg56
(lp4196
g49
(g50
g51
NtRp4197
(dp4198
g54
(dp4199
g62
I5
ssg63
g4193
sg56
(lp4200
S'200'
p4201
asbasbasbag49
(g65
g51
NtRp4202
(dp4203
g54
(dp4204
sg63
g3182
sg56
(lp4205
g49
(g70
g51
NtRp4206
(dp4207
g54
(dp4208
g74
g75
ssg63
g4202
sg56
(lp4209
S'subtitle'
p4210
asbag49
(g70
g51
NtRp4211
(dp4212
g54
(dp4213
g81
g82
ssg63
g4202
sg56
(lp4214
S':'
asbag49
(g70
g51
NtRp4215
(dp4216
g54
(dp4217
sg63
g4202
sg56
(lp4218
g49
(g50
g51
NtRp4219
(dp4220
g54
(dp4221
g62
I5
ssg63
g4215
sg56
(lp4222
g3848
(S's\t\x00\x00\x00Adaptame!'
tRp4223
asbasbasbag49
(g65
g51
NtRp4224
(dp4225
g54
(dp4226
sg63
g3182
sg56
(lp4227
g49
(g70
g51
NtRp4228
(dp4229
g54
(dp4230
g74
g75
ssg63
g4224
sg56
(lp4231
S'title'
p4232
asbag49
(g70
g51
NtRp4233
(dp4234
g54
(dp4235
g81
g82
ssg63
g4224
sg56
(lp4236
S':'
asbag49
(g70
g51
NtRp4237
(dp4238
g54
(dp4239
sg63
g4224
sg56
(lp4240
g49
(g50
g51
NtRp4241
(dp4242
g54
(dp4243
g62
I5
ssg63
g4237
sg56
(lp4244
S'Parleyweb'
p4245
asbasbasbag49
(g65
g51
NtRp4246
(dp4247
g54
(dp4248
sg63
g3182
sg56
(lp4249
g49
(g70
g51
NtRp4250
(dp4251
g54
(dp4252
g74
g75
ssg63
g4246
sg56
(lp4253
g2451
asbag49
(g70
g51
NtRp4254
(dp4255
g54
(dp4256
g81
g82
ssg63
g4246
sg56
(lp4257
S':'
asbag49
(g70
g51
NtRp4258
(dp4259
g54
(dp4260
sg63
g4246
sg56
(lp4261
g49
(g50
g51
NtRp4262
(dp4263
g54
(dp4264
g62
I5
ssg63
g4258
sg56
(lp4265
g2464
asbasbasbag49
(g65
g51
NtRp4266
(dp4267
g54
(dp4268
sg63
g3182
sg56
(lp4269
g49
(g70
g51
NtRp4270
(dp4271
g54
(dp4272
g74
g75
ssg63
g4266
sg56
(lp4273
S'view'
p4274
asbag49
(g70
g51
NtRp4275
(dp4276
g54
(dp4277
g81
g82
ssg63
g4266
sg56
(lp4278
S':'
asbag49
(g70
g51
NtRp4279
(dp4280
g54
(dp4281
sg63
g4266
sg56
(lp4282
g49
(g50
g51
NtRp4283
(dp4284
g54
(dp4285
g62
I5
ssg63
g4279
sg56
(lp4286
S'default/mostrar.html'
p4287
asbasbasbasbasbsS'locals'
p4288
(dp4289
S'self'
p4290
S"<Row {'palabras': <Row {'presente_1': None, 'ima...te_record': <function <lambda> at 0x069916B0>}>}>"
p4291
sS'm'
S'None'
p4292
sS'key'
p4293
S"'ejemplo_de'"
p4294
sssS'traceback'
p4295
S'Traceback (most recent call last):\n  File "gluon/restricted.py", line 205, in restricted\n  File "D:\\Dise\xf1o Web\\Proyectos\\Parleyweb\\web2py\\applications\\parleyweb\\views\\default/mostrar.html", line 220, in <module>\n  File "gluon/dal.py", line 5657, in __getattr__\n  File "gluon/dal.py", line 5648, in __getitem__\nKeyError: \'ejemplo_de\'\n'
p4296
s.