(dp1
S'output'
p2
S"<type 'exceptions.TypeError'> URL() got an unexpected keyword argument 'raw_args'"
p3
sS'layer'
p4
S'D:\\Dise\xf1o Web\\Proyectos\\Parleyweb\\web2py\\applications\\parleyweb\\views\\default/mostrar.html'
p5
sS'code'
p6
S'response.write(\'<!DOCTYPE html>\\n<!-- paulirish.com/2008/conditional-stylesheets-vs-css-hacks-answer-neither/ -->\\n<!--[if lt IE 7]><html class="ie ie6 ie-lte9 ie-lte8 ie-lte7 no-js" lang="\', escape=False)\nresponse.write(T.accepted_language or \'en\')\nresponse.write(\'"> <![endif]-->\\n<!--[if IE 7]><html class="ie ie7 ie-lte9 ie-lte8 ie-lte7 no-js" lang="\', escape=False)\nresponse.write(T.accepted_language or \'en\')\nresponse.write(\'"> <![endif]-->\\n<!--[if IE 8]><html class="ie ie8 ie-lte9 ie-lte8 no-js" lang="\', escape=False)\nresponse.write(T.accepted_language or \'en\')\nresponse.write(\'"> <![endif]-->\\n<!--[if IE 9]><html class="ie9 ie-lte9 no-js" lang="\', escape=False)\nresponse.write(T.accepted_language or \'en\')\nresponse.write(\'"> <![endif]-->\\n<!--[if (gt IE 9)|!(IE)]><!--> <html class="no-js" lang="\', escape=False)\nresponse.write(T.accepted_language or \'en\')\nresponse.write(\'"> <!--<![endif]-->\\n<head>\\n  <meta charset="utf-8" />\\n  <!-- www.phpied.com/conditional-comments-block-downloads/ -->\\n  <!-- Always force latest IE rendering engine\\n\\t   (even in intranet) & Chrome Frame\\n\\t   Remove this if you use the .htaccess -->\\n  <!--[if IE]>\\n    <meta http-equiv="X-UA-Compatible" content="IE=edge\', escape=False)\nresponse.write(not request.is_local and \',chrome=1\' or \'\')\nresponse.write(\'">\\n  <![endif]-->\\n  \\n  <title>\', escape=False)\nresponse.write(response.title or request.application)\nresponse.write(\'</title>\\n  \\n  <!-- http://dev.w3.org/html5/markup/meta.name.html -->\\n  <meta name="application-name" content="\', escape=False)\nresponse.write(request.application)\nresponse.write(\'" />\\n  \\n  <!-- Speaking of Google, don\\\'t forget to set your site up:\\n\\t   http://google.com/webmasters -->\\n  <meta name="google-site-verification" content="" />\\n\\n  <!--  Mobile Viewport Fix\\n\\t  j.mp/mobileviewport & davidbcalhoun.com/2010/viewport-metatag\\n\\t  device-width: Occupy full width of the screen in its current orientation\\n\\t  initial-scale = 1.0 retains dimensions instead of zooming out if page height > device height\\n\\t  user-scalable = yes allows the user to zoom in -->\\n  <meta name="viewport" content="width=device-width, initial-scale=1.0, user-scalable=yes">\\n  \\n  <!-- Place favicon.ico and apple-touch-icon.png in the root of your domain and delete these references -->\\n  <link rel="shortcut icon" href="\', escape=False)\nresponse.write(URL(\'static\',\'favicon.ico\'))\nresponse.write(\'" type="image/x-icon">\\n  <link rel="apple-touch-icon" href="\', escape=False)\nresponse.write(URL(\'static\',\'favicon.png\'))\nresponse.write(\'">\\n\\n  <!-- All JavaScript at the bottom, except for Modernizr which enables \\n\\t   HTML5 elements & feature detects -->\\n  <script src="\', escape=False)\nresponse.write(URL(\'static\',\'js/modernizr.custom.js\'))\nresponse.write(\'"></script>  \\n\\n  <!-- include stylesheets -->\\n  \', escape=False)\nresponse.files.append(URL(\'static\',\'css/bootstrap.css\'))\nresponse.files.append(URL(\'static\',\'js/bootstrap.js\'))\nresponse.files.append(URL(\'static\',\'css/parleyweb.css\'))\nresponse.files.append(URL(\'static\',\'css/jquery-ui-1.8.18.custom.css\'))\nresponse.files.append(URL(\'static\',\'js/parleyweb.js\'))\nresponse.files.append(URL(\'static\',\'js/jquery-ui-1.8.18.custom.min.js\'))\nresponse.write(\'\\n\\n  \', escape=False)\nresponse.write(\'<script type="text/javascript"><!--\\n    // These variables are used by the web2py_ajax_init function in web2py_ajax.js (which is loaded below).\\n    var w2p_ajax_confirm_message = "\', escape=False)\nresponse.write(T(\'Are you sure you want to delete this object?\'))\nresponse.write(\'";\\n    var w2p_ajax_date_format = "\', escape=False)\nresponse.write(T(\'%Y-%m-%d\'))\nresponse.write(\'";\\n    var w2p_ajax_datetime_format = "\', escape=False)\nresponse.write(T(\'%Y-%m-%d %H:%M:%S\'))\nresponse.write(\'";\\n    //--></script>\\n\', escape=False)\nresponse.files.insert(0,URL(\'static\',\'js/jquery.js\'))\nresponse.files.insert(1,URL(\'static\',\'css/calendar.css\'))\nresponse.files.insert(2,URL(\'static\',\'js/calendar.js\'))\nresponse.files.insert(3,URL(\'static\',\'js/web2py.js\'))\nresponse.include_meta()\nresponse.include_files()\nresponse.write(\'\\n\', escape=False)\nresponse.write(\'\\n\\n  \\n\\n  \', escape=False)\n# using sidebars need to know what sidebar you want to use\nleft_sidebar_enabled = globals().get(\'left_sidebar_enabled\',False)\nright_sidebar_enabled = globals().get(\'right_sidebar_enabled\',False)\nmiddle_columns = {0:\'sixteen\',1:\'twelve\',2:\'eight\'}[\n(left_sidebar_enabled and 1 or 0)+(right_sidebar_enabled and 1 or 0)]\nresponse.write(\'\\n\\n  <!-- uncomment here to load jquery-ui\\n  <link rel="stylesheet" href="http://ajax.googleapis.com/ajax/libs/jqueryui/1.8.16/themes/base/jquery-ui.css" type="text/css" media="all" />\\n  <script src="http://ajax.googleapis.com/ajax/libs/jqueryui/1.8.16/jquery-ui.min.js" type="text/javascript"></script>\\n  uncomment to load jquery-ui //-->\\n</head>\\n <body>\\n\\n    <div class="navbar navbar-fixed-top">\\n      <div class="navbar-inner">\\n        <div class="container-fluid">\\n          <a class="btn btn-navbar" data-toggle="collapse" data-target=".nav-collapse">\\n            <span class="icon-bar"></span>\\n            <span class="icon-bar"></span>\\n            <span class="icon-bar"></span>\\n          </a>\\n          <a class="brand" href="#">Parleyweb</a>\\n          <div class="nav-collapse">\\n\\t    \', escape=False)\n#=MENU(response.menu, _class="nav active")\nresponse.write(\'\\n            <ul class="nav">\\n              <li>\', escape=False)\nresponse.write(A(T(\'Administracion\'), _href=URL(\'admin\', \'index\')))\nresponse.write(\'</li>\\n            </ul>\\n\\t    \\n            <p class="navbar-text pull-right">\', escape=False)\nresponse.write(\'auth\' in globals() and auth.navbar(separators=(\' \',\' | \',\'\')))\nresponse.write(\'</p>\\n          </div><!--/.nav-collapse -->\\n        </div>\\n      </div>\\n    </div>\\n    <div class="flash alert alert-info"></i>\', escape=False)\nresponse.write(response.flash or \'\')\nresponse.write(\'</div>\\n    <div class="container-fluid">\\n      <div class="row-fluid">\\n        <div class="span3">\\n          <div class="well sidebar-nav">\\n            <ul class="nav nav-list">\\n              <li class="nav-header">\', escape=False)\nresponse.write(T(\'Buscar\'))\nresponse.write(\'</li>\\n            </ul>\\n          </div><!--/.well -->\\n        </div><!--/span-->\\n        <div class="span9">\\n\\t  \', escape=False)\nresponse.write(\'\\n\\t    \', escape=False)\nresponse.write(\'\\n\\n   \', escape=False)\nif palabras:\n    response.write(\'                                                             <!-- INICIO IF PALABRAS -->\\n   \\n        \\n        \\n       <h3 class="h3_redondo">\', escape=False)\n    response.write(palabras.palabra.capitalize())\n    response.write(\'</h3>\\n       \\n                                                                                <!-- SI LA PALABRA ES UN VERBO Y SUSTANTIVO A LA VEZ -->\\n       \\n        \', escape=False)\n    if palabras.sustantivo==True and palabras.verbo==True:\n        response.write(\'  <!-- 1 -->\\n        <div class="btn-group botones_mostrar" data-toggle="buttons-checkbox">\\n           <!-- <button class="btn btn-info " onclick=\\\'$("#toggle1-mostrar").slideToggle(200);\\\'>Mostrar como sustantivo</button> -->\\n            <button class="btn btn-info toggle-mostrar-verbo">\\n                <span class="mostrar-verbo"><i class="icon-plus-sign icon-white"></i> Mostrar verbo</span>\\n                <span class="ocultar-verbo hide"><i class="icon-minus-sign icon-white"></i> Ocultar</span>\\n            </button>\\n            <!--<button class="btn btn-info">Ambos</button> -->\\n            <button class="btn btn-info toggle-mostrar-sustantivo">\\n                <span class="mostrar-sustantivo"><i class="icon-plus-sign icon-white"></i> Mostrar sustantivo</span>\\n                <span class="ocultar-sustantivo hide"><i class="icon-minus-sign icon-white"></i> Ocultar</span>\\n            </button>\\n        </div>\\n        <div id="toggle-mostrar-verbo" class="hide">                            <!-- INICIO DIV OCULTO PARA MOSTRAR EL VERBO -->\\n            <div class="toggle-mostrar"><h4>Verbo</h4></div>\\n            <div class="wellparley2">\\n                <h4 class="h4-mostrar">Ejemplos</h4>\\n                <table class="table table-striped table-bordered">\\n                    <thead>\\n                        <tr>\\n                            <th>\', escape=False)\n        response.write(IMG(_src=URL(\'static\', \'images/germany.gif\')))\n        response.write(\'</th>\\n                            <th>\', escape=False)\n        response.write(IMG(_src=URL(\'static\', \'images/spain.gif\')))\n        response.write(\'</th>\\n                            <th>Fuente</th>\\n                        </tr>\\n                    </thead>\\n                    <tbody>\\n                       \\n                        \', escape=False)\n        for registro in ejemplos(db.ejemplos.verbo==True).select(db.ejemplos.ALL):\n            response.write(\'\\n                           \\n                        <tr>\\n                            <td>\\n                                \', escape=False)\n            response.write(registro.ejemplo_de)\n            response.write(\'\\n                            </td>\\n                            <td>\\n                                \', escape=False)\n            response.write(registro.ejemplo_es)\n            response.write(\'\\n                               \\n                            </td>\\n                               \\n                            <td>\\n                                 \', escape=False)\n            if registro.fuente:\n                response.write(\'\\n                                    \', escape=False)\n                response.write(registro.fuente.nombre)\n                response.write(\'\\n                                \', escape=False)\n                pass\n            response.write(\'\\n                            </td>\\n                        </tr>\\n                        \', escape=False)\n            pass\n        response.write(\'\\n                    </tbody>\\n                </table>\\n                \\n            </div>\\n        </div>                                                                  <!-- FIN DIV OCULTO PARA MOSTRAR EL VERBO -->\\n        \\n        \\n        <div id="toggle-mostrar-sustantivo" class="hide">                       <!-- INICIO DIV OCULTO PARA MOSTRAR EL SUSTANTIVO -->\\n            <div class="toggle-mostrar">\\n                <h4>Sustantivo</h4>\\n                <a href="#" class="tip" rel="tooltip" \', escape=False)\n        if palabras.articulo==\'Die\':\n            response.write(\'\\n                                                            title="Femenino"\\n                                                        \', escape=False)\n        elif palabras.articulo==\'Der\':\n            response.write(\'\\n                                                            title="Masculino"\\n                                                        \', escape=False)\n        elif palabras.articulo==\'Das\':\n            response.write(\'\\n                                                            title="Neutro"\\n                                                        \', escape=False)\n        else:\n            response.write(\'\\n                                                            title="No hay"\\n                                                        \', escape=False)\n            pass\n        response.write(\'>\\n                    \', escape=False)\n        response.write(palabras.articulo.capitalize())\n        response.write(\'\\n                </a>\\n                <span>\', escape=False)\n        response.write(palabras.palabra.capitalize())\n        response.write(\'</span>\\n                <span>-</span>\\n                <a href="#" class="tip" rel="tooltip" title="Plural">(\', escape=False)\n        response.write(palabras.plural)\n        response.write(\')</a>\\n                <a href="#" class="float_right tip img ocultar-tip"  rel="tooltip" title="Mostrar"><i class="icon-camera icon-white"></i></a>\\n                <a href="#" class="float_right tip img mostrar-tip" id="ocultar-tip" rel="tooltip" title="Ocultar"><i class="icon-camera icon-white"></i></a>\\n            </div>\\n            <div class="wellparley2">\\n                <div id="imagen-sustantivo" class="hide"> \\n                    \', escape=False)\n        if not palabras.imagen:\n            response.write(\'\\n                        <p>No hay imagen</p>\\n                    \', escape=False)\n        else:\n            response.write(\'\\n                        <img class="img-sustantivo" src="\', escape=False)\n            response.write(URL(\'download\', raw_args=palabras.imagen))\n            response.write(\'" />\\n                    \', escape=False)\n            pass\n        response.write(\'\\n                </div>\\n                <h4 class="h4-mostrar">Ejemplos</h4>\\n                <table class="table table-striped table-bordered">\\n                    <thead>\\n                        <tr>\\n                            <th>\', escape=False)\n        response.write(IMG(_src=URL(\'static\', \'images/germany.gif\')))\n        response.write(\'</th>\\n                            <th>\', escape=False)\n        response.write(IMG(_src=URL(\'static\', \'images/spain.gif\')))\n        response.write(\'</th>\\n                            <th>Fuente</th>\\n                        </tr>\\n                    </thead>\\n                    <tbody>\\n                        \', escape=False)\n        for registro in ejemplos(db.ejemplos.sustantivo==True).select(db.ejemplos.ALL):\n            response.write(\'\\n                        <tr>\\n                            <td>\\n                                \', escape=False)\n            response.write(registro.ejemplo_de)\n            response.write(\'\\n                            </td>\\n                            <td>\\n                                \', escape=False)\n            response.write(registro.ejemplo_es)\n            response.write(\'\\n                            </td>\\n                               \\n                            <td>\\n                                 \', escape=False)\n            if registro.fuente:\n                response.write(\'\\n                                    \', escape=False)\n                response.write(registro.fuente.nombre)\n                response.write(\'\\n                                \', escape=False)\n                pass\n            response.write(\'\\n                            </td>\\n                        </tr>\\n                        \', escape=False)\n            pass\n        response.write(\'\\n                    </tbody>\\n                </table>\\n            </div>\\n        </div>                                                                  <!-- FIN DIV OCULTO PARA MOSTRAR EL SUSTANTIVO -->\\n        \\n                                                                                <!-- FIN SI LA PALABRA ES UN SUSTANTIVO Y VERBO A LA VEZ -->\\n                        \\n                                                                                 <!-- SIN  LA PALABRA ES SOLO UN SUSTANTIVO -->\\n        \\n        \', escape=False)\n    elif palabras.sustantivo==True:\n        response.write(\' <!-- 2 -->\\n            <div class="toggle-mostrar">\\n                <h4>Sustantivo</h4>\\n                <a href="#" class="tip" rel="tooltip" \', escape=False)\n        if palabras.articulo==\'Die\':\n            response.write(\'\\n                                                            title="Femenino"\\n                                                        \', escape=False)\n        elif palabras.articulo==\'Der\':\n            response.write(\'\\n                                                            title="Masculino"\\n                                                        \', escape=False)\n        elif palabras.articulo==\'Das\':\n            response.write(\'\\n                                                            title="Neutro"\\n                                                        \', escape=False)\n        else:\n            response.write(\'\\n                                                            title="No hay"\\n                                                        \', escape=False)\n            pass\n        response.write(\'>\\n                    \', escape=False)\n        response.write(palabras.articulo.capitalize())\n        response.write(\'\\n                </a>\\n                <span>\', escape=False)\n        response.write(palabras.palabra.capitalize())\n        response.write(\'</span>\\n                <span>-</span>\\n                <a href="#" class="tip" rel="tooltip" title="Plural">(\', escape=False)\n        response.write(palabras.plural)\n        response.write(\')</a>\\n                <a href="#" class="float_right tip img ocultar-tip"  rel="tooltip" title="Mostrar"><i class="icon-camera icon-white"></i></a>\\n                <a href="#" class="float_right tip img mostrar-tip" id="ocultar-tip" rel="tooltip" title="Ocultar"><i class="icon-camera icon-white"></i></a>\\n            </div>\\n            <div class="wellparley2">\\n                <div id="imagen-sustantivo" class="hide"> \\n                    \', escape=False)\n        if not palabras.imagen:\n            response.write(\'\\n                        <p>No hay imagen</p>\\n                    \', escape=False)\n        else:\n            response.write(\'\\n                        <img class="img-sustantivo" src="\', escape=False)\n            response.write(URL(\'download\', args=palabras.imagen))\n            response.write(\'" />\\n                    \', escape=False)\n            pass\n        response.write(\'\\n                </div>\\n                <h4 class="h4-mostrar">Ejemplos</h4>\\n                <table class="table table-striped table-bordered">\\n                    <tbody>\\n                        <thead>\\n                        <tr>\\n                            <th>\', escape=False)\n        response.write(IMG(_src=URL(\'static\', \'images/germany.gif\')))\n        response.write(\'</th>\\n                            <th>\', escape=False)\n        response.write(IMG(_src=URL(\'static\', \'images/spain.gif\')))\n        response.write(\'</th>\\n                            <th>Fuente</th>\\n                        </tr>\\n                    </thead>\\n                          \', escape=False)\n        for registro in ejemplos(db.ejemplos.sustantivo==True).select(db.ejemplos.ALL):\n            response.write(\'\\n                        <tr>\\n                            <td>\\n                                \', escape=False)\n            response.write(registro.ejemplo_de)\n            response.write(\'\\n                            </td>\\n                            <td>\\n                                \', escape=False)\n            response.write(registro.ejemplo_es)\n            response.write(\'\\n                            </td>\\n                               \\n                            <td>\\n                                 \', escape=False)\n            if registro.fuente:\n                response.write(\'\\n                                    \', escape=False)\n                response.write(registro.fuente.nombre)\n                response.write(\'\\n                                \', escape=False)\n                pass\n            response.write(\'\\n                            </td>\\n                        </tr>\\n                        \', escape=False)\n            pass\n        response.write(\'\\n                    </tbody>\\n                </table>\\n            </div>\\n            \\n        \', escape=False)\n    elif palabras.adjetivo==True and palabras.adverbio==True:\n        response.write(\'           <!-- SI LA PALABRAS ES UN ADJETIVO Y UN ADVERBIO -->\\n            <div class="btn-group botones_mostrar" data-toggle="buttons-checkbox">\\n           <!-- <button class="btn btn-info " onclick=\\\'$("#toggle1-mostrar").slideToggle(200);\\\'>Mostrar como sustantivo</button> -->\\n            <button class="btn btn-info toggle-mostrar-verbo">\\n                <span class="mostrar-verbo"><i class="icon-plus-sign icon-white"></i> Mostrar Adverbio</span>\\n                <span class="ocultar-verbo hide"><i class="icon-minus-sign icon-white"></i> Ocultar</span>\\n            </button>\\n            <!--<button class="btn btn-info">Ambos</button> -->\\n            <button class="btn btn-info toggle-mostrar-sustantivo">\\n                <span class="mostrar-sustantivo"><i class="icon-plus-sign icon-white"></i> Mostrar Adjetivo</span>\\n                <span class="ocultar-sustantivo hide"><i class="icon-minus-sign icon-white"></i> Ocultar</span>\\n            </button>\\n        </div>\\n        <div id="toggle-mostrar-verbo" class="hide">                            <!-- INICIO DIV OCULTO PARA MOSTRAR EL ADVERBIO -->\\n            <div class="toggle-mostrar"><h4>Adverbio</h4></div>\\n            <div class="wellparley2">\\n                <h4 class="h4-mostrar">Ejemplos</h4>\\n                <table class="table table-striped table-bordered">\\n                    <thead>\\n                        <tr>\\n                            <th>\', escape=False)\n        response.write(IMG(_src=URL(\'static\', \'images/germany.gif\')))\n        response.write(\'</th>\\n                            <th>\', escape=False)\n        response.write(IMG(_src=URL(\'static\', \'images/spain.gif\')))\n        response.write(\'</th>\\n                            <th>Fuente</th>\\n                        </tr>\\n                    </thead>\\n                    <tbody>\\n                        \', escape=False)\n        for registro in ejemplos(db.ejemplos.adverbio==True).select(db.ejemplos.ALL):\n            response.write(\'\\n                        <tr>\\n                            <td>\\n                                \', escape=False)\n            response.write(registro.ejemplo_de)\n            response.write(\'\\n                            </td>\\n                            <td>\\n                                \', escape=False)\n            response.write(registro.ejemplo_es)\n            response.write(\'\\n                            </td>\\n                               \\n                            <td>\\n                                 \', escape=False)\n            if registro.fuente:\n                response.write(\'\\n                                    \', escape=False)\n                response.write(registro.fuente.nombre)\n                response.write(\'\\n                                \', escape=False)\n                pass\n            response.write(\'\\n                            </td>\\n                        </tr>\\n                        \', escape=False)\n            pass\n        response.write(\'\\n                    </tbody>\\n                </table>\\n                \\n            </div>\\n        </div>                                                                  <!-- FIN DIV OCULTO PARA MOSTRAR EL ADVERBIO -->\\n        \\n        \\n        <div id="toggle-mostrar-sustantivo" class="hide">                       <!-- INICIO DIV OCULTO PARA MOSTRAR EL ADJETIVO -->\\n            <div class="toggle-mostrar">\\n                <h4>Adjetivo</h4>\\n            </div>\\n            <div class="wellparley2">\\n                <h4 class="h4-mostrar">Ejemplos</h4>\\n                <table class="table table-striped table-bordered">\\n                    <thead>\\n                        <tr>\\n                            <th>\', escape=False)\n        response.write(IMG(_src=URL(\'static\', \'images/germany.gif\')))\n        response.write(\'</th>\\n                            <th>\', escape=False)\n        response.write(IMG(_src=URL(\'static\', \'images/spain.gif\')))\n        response.write(\'</th>\\n                            <th>Fuente</th>\\n                        </tr>\\n                    </thead>\\n                    <tbody>\\n                        \', escape=False)\n        for registro in ejemplos(db.ejemplos.adjetivo==True).select(db.ejemplos.ALL):\n            response.write(\'\\n                        <tr>\\n                            <td>\\n                                \', escape=False)\n            response.write(registro.ejemplo_de)\n            response.write(\'\\n                            </td>\\n                            <td>\\n                                \', escape=False)\n            response.write(registro.ejemplo_es)\n            response.write(\'\\n                            </td>\\n                               \\n                            <td>\\n                                 \', escape=False)\n            if registro.fuente:\n                response.write(\'\\n                                    \', escape=False)\n                response.write(registro.fuente.nombre)\n                response.write(\'\\n                                \', escape=False)\n                pass\n            response.write(\'\\n                            </td>\\n                        </tr>\\n                        \', escape=False)\n            pass\n        response.write(\'\\n                    </tbody>\\n                </table>\\n            </div>\\n        </div>                                                                  <!-- FIN DIV OCULTO PARA MOSTRAR EL ADJETIVO -->\\n        \\n                                                                                <!-- FIN SI LA PALABRA ES UN ADVERVIO Y ADJETIVO -->\\n            \\n        \', escape=False)\n    elif palabras.adjetivo==True:\n        response.write(\'                                       <!-- SI LA PALABRAS ES UN ADJETIVO  -->\\n            <div class="toggle-mostrar">\\n                <h4>Adjetivo</h4>\\n            </div>\\n            <div class="wellparley2">\\n                <h4 class="h4-mostrar">Ejemplos</h4>\\n                <table class="table table-striped table-bordered">\\n                    <tbody>\\n                        <thead>\\n                        <tr>\\n                            <th>\', escape=False)\n        response.write(IMG(_src=URL(\'static\', \'images/germany.gif\')))\n        response.write(\'</th>\\n                            <th>\', escape=False)\n        response.write(IMG(_src=URL(\'static\', \'images/spain.gif\')))\n        response.write(\'</th>\\n                            <th>Fuente</th>\\n                        </tr>\\n                    </thead>\\n                          \', escape=False)\n        for registro in ejemplos(db.ejemplos.adjetivo==True).select():\n            response.write(\'\\n                        <tr>\\n                            <td>\\n                                \', escape=False)\n            response.write(registro.ejemplo_de)\n            response.write(\'\\n                            </td>\\n                            <td>\\n                                \', escape=False)\n            response.write(registro.ejemplo_es)\n            response.write(\'\\n                            </td>\\n                               \\n                            <td>\\n                                \', escape=False)\n            if registro.fuente:\n                response.write(\'\\n                                    \', escape=False)\n                response.write(registro.fuente.nombre)\n                response.write(\'\\n                                \', escape=False)\n                pass\n            response.write(\'\\n                            </td>\\n                        </tr>\\n                        \', escape=False)\n            pass\n        response.write(\'\\n                    </tbody>\\n                </table>\\n            </div>\\n            \\n        \', escape=False)\n    elif palabras.adverbio==True:\n        response.write(\'           <!-- SI LA PALABRAS ES UN ADVERVIO  -->\\n            <div class="toggle-mostrar">\\n                <h4>Adverbio</h4>\\n            </div>\\n            <div class="wellparley2">\\n                <h4 class="h4-mostrar">Ejemplos</h4>\\n                <table class="table table-striped table-bordered">\\n                    <tbody>\\n                        <thead>\\n                        <tr>\\n                            <th>\', escape=False)\n        response.write(IMG(_src=URL(\'static\', \'images/germany.gif\')))\n        response.write(\'</th>\\n                            <th>\', escape=False)\n        response.write(IMG(_src=URL(\'static\', \'images/spain.gif\')))\n        response.write(\'</th>\\n                            <th>Fuente</th>\\n                        </tr>\\n                    </thead>\\n                          \', escape=False)\n        for registro in ejemplos(db.ejemplos.adverbio==True).select():\n            response.write(\'\\n                        <tr>\\n                            <td>\\n                                \', escape=False)\n            response.write(registro.ejemplo_de)\n            response.write(\'\\n                            </td>\\n                            <td>\\n                                \', escape=False)\n            response.write(registro.ejemplo_es)\n            response.write(\'\\n                            </td>\\n                               \\n                            <td>\\n                                \', escape=False)\n            if registro.fuente:\n                response.write(\'\\n                                    \', escape=False)\n                response.write(registro.fuente.nombre)\n                response.write(\'\\n                                \', escape=False)\n                pass\n            response.write(\'\\n                            </td>\\n                        </tr>\\n                        \', escape=False)\n            pass\n        response.write(\'\\n                    </tbody>\\n                </table>\\n            </div>\\n            \\n            \\n        \', escape=False)\n        pass\n    response.write(\'                                                                <!-- FIN SEGUNDO IF CASOS QUE SE PUEDEN DAR CON LAS PALABRAS -->\\n        \\n    \', escape=False)\n    pass\nresponse.write(\'                                                                    <!-- FIN IF PALABRAS -->\\n \\n\', escape=False)\nresponse.write(\'\\n\\t  \', escape=False)\nresponse.write("\\n          \\n        </div><!--/span-->\\n      </div><!--/row-->\\n\\n      <hr>\\n\\n      <footer>\\n        <p>\\xc2\\xa9 Company 2012</p>\\n      </footer>\\n\\n    </div><!--/.fluid-container-->\\n    \\n    <!-- Le javascript\\n    ================================================== -->\\n    <!-- Placed at the end of the document so the pages load faster \\n    <script>\\n      $(function () {\\n      $(\'.tabs a:last\').tab(\'show\')\\n      })\\n    </script>-->\\n   \\n\\n \\n\\n</body>\\n</html>\\n", escape=False)'
p7
sS'snapshot'
p8
(dp9
S'exception'
p10
(dp11
S'__hash__'
p12
S"<method-wrapper '__hash__' of exceptions.TypeError object at 0x07AA8CB0>"
p13
sS'__setattr__'
p14
S"<method-wrapper '__setattr__' of exceptions.TypeError object at 0x07AA8CB0>"
p15
sS'__reduce_ex__'
p16
S'<built-in method __reduce_ex__ of exceptions.TypeError object at 0x07AA8CB0>'
p17
sS'__getslice__'
p18
S"<method-wrapper '__getslice__' of exceptions.TypeError object at 0x07AA8CB0>"
p19
sS'__getitem__'
p20
S"<method-wrapper '__getitem__' of exceptions.TypeError object at 0x07AA8CB0>"
p21
sS'__setstate__'
p22
S'<built-in method __setstate__ of exceptions.TypeError object at 0x07AA8CB0>'
p23
sS'__reduce__'
p24
S'<built-in method __reduce__ of exceptions.TypeError object at 0x07AA8CB0>'
p25
sS'__str__'
p26
S"<method-wrapper '__str__' of exceptions.TypeError object at 0x07AA8CB0>"
p27
sS'args'
p28
S'("URL() got an unexpected keyword argument \'raw_args\'",)'
p29
sS'__getattribute__'
p30
S"<method-wrapper '__getattribute__' of exceptions.TypeError object at 0x07AA8CB0>"
p31
sS'__class__'
p32
S"<type 'exceptions.TypeError'>"
p33
sS'__delattr__'
p34
S"<method-wrapper '__delattr__' of exceptions.TypeError object at 0x07AA8CB0>"
p35
sS'__repr__'
p36
S"<method-wrapper '__repr__' of exceptions.TypeError object at 0x07AA8CB0>"
p37
sS'__dict__'
p38
S'{}'
p39
sS'__doc__'
p40
S"'Inappropriate argument type.'"
p41
sS'__init__'
p42
S"<method-wrapper '__init__' of exceptions.TypeError object at 0x07AA8CB0>"
p43
sS'__new__'
p44
S'<built-in method __new__ of type object at 0x1E1CCD78>'
p45
ssS'evalue'
p46
S"URL() got an unexpected keyword argument 'raw_args'"
p47
sS'request'
p48
ccopy_reg
_reconstructor
p49
(cgluon.html
BEAUTIFY
p50
c__builtin__
object
p51
NtRp52
(dp53
S'attributes'
p54
(dp55
sS'components'
p56
(lp57
g49
(cgluon.html
TABLE
p58
g51
NtRp59
(dp60
g54
(dp61
S'level'
p62
I5
ssS'parent'
p63
Nsg56
(lp64
g49
(cgluon.html
TR
p65
g51
NtRp66
(dp67
g54
(dp68
sg63
g59
sg56
(lp69
g49
(cgluon.html
TD
p70
g51
NtRp71
(dp72
g54
(dp73
S'_style'
p74
S'font-weight:bold;vertical-align:top'
p75
ssg63
g66
sg56
(lp76
S'ajax'
p77
asbag49
(g70
g51
NtRp78
(dp79
g54
(dp80
S'_valign'
p81
S'top'
p82
ssg63
g66
sg56
(lp83
S':'
asbag49
(g70
g51
NtRp84
(dp85
g54
(dp86
sg63
g66
sg56
(lp87
g49
(g50
g51
NtRp88
(dp89
g54
(dp90
g62
I5
ssg63
g84
sg56
(lp91
S'False'
p92
asbasbasbag49
(g65
g51
NtRp93
(dp94
g54
(dp95
sg63
g59
sg56
(lp96
g49
(g70
g51
NtRp97
(dp98
g54
(dp99
g74
g75
ssg63
g93
sg56
(lp100
S'application'
p101
asbag49
(g70
g51
NtRp102
(dp103
g54
(dp104
g81
g82
ssg63
g93
sg56
(lp105
S':'
asbag49
(g70
g51
NtRp106
(dp107
g54
(dp108
sg63
g93
sg56
(lp109
g49
(g50
g51
NtRp110
(dp111
g54
(dp112
g62
I5
ssg63
g106
sg56
(lp113
S'parleyweb'
p114
asbasbasbag49
(g65
g51
NtRp115
(dp116
g54
(dp117
sg63
g59
sg56
(lp118
g49
(g70
g51
NtRp119
(dp120
g54
(dp121
g74
g75
ssg63
g115
sg56
(lp122
S'body'
p123
asbag49
(g70
g51
NtRp124
(dp125
g54
(dp126
g81
g82
ssg63
g115
sg56
(lp127
S':'
asbag49
(g70
g51
NtRp128
(dp129
g54
(dp130
sg63
g115
sg56
(lp131
g49
(g50
g51
NtRp132
(dp133
g54
(dp134
g62
I5
ssg63
g128
sg56
(lp135
S'<cStringIO.StringO object at 0x070E08C0>'
p136
asbasbasbag49
(g65
g51
NtRp137
(dp138
g54
(dp139
sg63
g59
sg56
(lp140
g49
(g70
g51
NtRp141
(dp142
g54
(dp143
g74
g75
ssg63
g137
sg56
(lp144
S'client'
p145
asbag49
(g70
g51
NtRp146
(dp147
g54
(dp148
g81
g82
ssg63
g137
sg56
(lp149
S':'
asbag49
(g70
g51
NtRp150
(dp151
g54
(dp152
sg63
g137
sg56
(lp153
g49
(g50
g51
NtRp154
(dp155
g54
(dp156
g62
I5
ssg63
g150
sg56
(lp157
S'127.0.0.1'
p158
asbasbasbag49
(g65
g51
NtRp159
(dp160
g54
(dp161
sg63
g59
sg56
(lp162
g49
(g70
g51
NtRp163
(dp164
g54
(dp165
g74
g75
ssg63
g159
sg56
(lp166
S'controller'
p167
asbag49
(g70
g51
NtRp168
(dp169
g54
(dp170
g81
g82
ssg63
g159
sg56
(lp171
S':'
asbag49
(g70
g51
NtRp172
(dp173
g54
(dp174
sg63
g159
sg56
(lp175
g49
(g50
g51
NtRp176
(dp177
g54
(dp178
g62
I5
ssg63
g172
sg56
(lp179
S'default'
p180
asbasbasbag49
(g65
g51
NtRp181
(dp182
g54
(dp183
sg63
g59
sg56
(lp184
g49
(g70
g51
NtRp185
(dp186
g54
(dp187
g74
g75
ssg63
g181
sg56
(lp188
S'cookies'
p189
asbag49
(g70
g51
NtRp190
(dp191
g54
(dp192
g81
g82
ssg63
g181
sg56
(lp193
S':'
asbag49
(g70
g51
NtRp194
(dp195
g54
(dp196
sg63
g181
sg56
(lp197
g49
(g50
g51
NtRp198
(dp199
g54
(dp200
g62
I5
ssg63
g194
sg56
(lp201
g49
(g58
g51
NtRp202
(dp203
g54
(dp204
g62
I4
ssg63
Nsg56
(lp205
g49
(g65
g51
NtRp206
(dp207
g54
(dp208
sg63
g202
sg56
(lp209
g49
(g70
g51
NtRp210
(dp211
g54
(dp212
g74
g75
ssg63
g206
sg56
(lp213
S'session_id_admin'
p214
asbag49
(g70
g51
NtRp215
(dp216
g54
(dp217
g81
g82
ssg63
g206
sg56
(lp218
S':'
asbag49
(g70
g51
NtRp219
(dp220
g54
(dp221
sg63
g206
sg56
(lp222
g49
(g50
g51
NtRp223
(dp224
g54
(dp225
g62
I4
ssg63
g219
sg56
(lp226
g49
(g58
g51
NtRp227
(dp228
g54
(dp229
g62
I3
ssg63
Nsg56
(lp230
g49
(g65
g51
NtRp231
(dp232
g54
(dp233
sg63
g227
sg56
(lp234
g49
(g70
g51
NtRp235
(dp236
g54
(dp237
g74
g75
ssg63
g231
sg56
(lp238
S'comment'
p239
asbag49
(g70
g51
NtRp240
(dp241
g54
(dp242
g81
g82
ssg63
g231
sg56
(lp243
S':'
asbag49
(g70
g51
NtRp244
(dp245
g54
(dp246
sg63
g231
sg56
(lp247
g49
(g50
g51
NtRp248
(dp249
g54
(dp250
g62
I3
ssg63
g244
sg56
(lp251
S''
asbasbasbag49
(g65
g51
NtRp252
(dp253
g54
(dp254
sg63
g227
sg56
(lp255
g49
(g70
g51
NtRp256
(dp257
g54
(dp258
g74
g75
ssg63
g252
sg56
(lp259
S'domain'
p260
asbag49
(g70
g51
NtRp261
(dp262
g54
(dp263
g81
g82
ssg63
g252
sg56
(lp264
S':'
asbag49
(g70
g51
NtRp265
(dp266
g54
(dp267
sg63
g252
sg56
(lp268
g49
(g50
g51
NtRp269
(dp270
g54
(dp271
g62
I3
ssg63
g265
sg56
(lp272
S''
asbasbasbag49
(g65
g51
NtRp273
(dp274
g54
(dp275
sg63
g227
sg56
(lp276
g49
(g70
g51
NtRp277
(dp278
g54
(dp279
g74
g75
ssg63
g273
sg56
(lp280
S'expires'
p281
asbag49
(g70
g51
NtRp282
(dp283
g54
(dp284
g81
g82
ssg63
g273
sg56
(lp285
S':'
asbag49
(g70
g51
NtRp286
(dp287
g54
(dp288
sg63
g273
sg56
(lp289
g49
(g50
g51
NtRp290
(dp291
g54
(dp292
g62
I3
ssg63
g286
sg56
(lp293
S''
asbasbasbag49
(g65
g51
NtRp294
(dp295
g54
(dp296
sg63
g227
sg56
(lp297
g49
(g70
g51
NtRp298
(dp299
g54
(dp300
g74
g75
ssg63
g294
sg56
(lp301
S'max-age'
p302
asbag49
(g70
g51
NtRp303
(dp304
g54
(dp305
g81
g82
ssg63
g294
sg56
(lp306
S':'
asbag49
(g70
g51
NtRp307
(dp308
g54
(dp309
sg63
g294
sg56
(lp310
g49
(g50
g51
NtRp311
(dp312
g54
(dp313
g62
I3
ssg63
g307
sg56
(lp314
S''
asbasbasbag49
(g65
g51
NtRp315
(dp316
g54
(dp317
sg63
g227
sg56
(lp318
g49
(g70
g51
NtRp319
(dp320
g54
(dp321
g74
g75
ssg63
g315
sg56
(lp322
S'path'
p323
asbag49
(g70
g51
NtRp324
(dp325
g54
(dp326
g81
g82
ssg63
g315
sg56
(lp327
S':'
asbag49
(g70
g51
NtRp328
(dp329
g54
(dp330
sg63
g315
sg56
(lp331
g49
(g50
g51
NtRp332
(dp333
g54
(dp334
g62
I3
ssg63
g328
sg56
(lp335
S''
asbasbasbag49
(g65
g51
NtRp336
(dp337
g54
(dp338
sg63
g227
sg56
(lp339
g49
(g70
g51
NtRp340
(dp341
g54
(dp342
g74
g75
ssg63
g336
sg56
(lp343
S'secure'
p344
asbag49
(g70
g51
NtRp345
(dp346
g54
(dp347
g81
g82
ssg63
g336
sg56
(lp348
S':'
asbag49
(g70
g51
NtRp349
(dp350
g54
(dp351
sg63
g336
sg56
(lp352
g49
(g50
g51
NtRp353
(dp354
g54
(dp355
g62
I3
ssg63
g349
sg56
(lp356
S''
asbasbasbag49
(g65
g51
NtRp357
(dp358
g54
(dp359
sg63
g227
sg56
(lp360
g49
(g70
g51
NtRp361
(dp362
g54
(dp363
g74
g75
ssg63
g357
sg56
(lp364
S'version'
p365
asbag49
(g70
g51
NtRp366
(dp367
g54
(dp368
g81
g82
ssg63
g357
sg56
(lp369
S':'
asbag49
(g70
g51
NtRp370
(dp371
g54
(dp372
sg63
g357
sg56
(lp373
g49
(g50
g51
NtRp374
(dp375
g54
(dp376
g62
I3
ssg63
g370
sg56
(lp377
S''
asbasbasbasbasbasbasbag49
(g65
g51
NtRp378
(dp379
g54
(dp380
sg63
g202
sg56
(lp381
g49
(g70
g51
NtRp382
(dp383
g54
(dp384
g74
g75
ssg63
g378
sg56
(lp385
S'session_id_parleyweb'
p386
asbag49
(g70
g51
NtRp387
(dp388
g54
(dp389
g81
g82
ssg63
g378
sg56
(lp390
S':'
asbag49
(g70
g51
NtRp391
(dp392
g54
(dp393
sg63
g378
sg56
(lp394
g49
(g50
g51
NtRp395
(dp396
g54
(dp397
g62
I4
ssg63
g391
sg56
(lp398
g49
(g58
g51
NtRp399
(dp400
g54
(dp401
g62
I3
ssg63
Nsg56
(lp402
g49
(g65
g51
NtRp403
(dp404
g54
(dp405
sg63
g399
sg56
(lp406
g49
(g70
g51
NtRp407
(dp408
g54
(dp409
g74
g75
ssg63
g403
sg56
(lp410
g239
asbag49
(g70
g51
NtRp411
(dp412
g54
(dp413
g81
g82
ssg63
g403
sg56
(lp414
S':'
asbag49
(g70
g51
NtRp415
(dp416
g54
(dp417
sg63
g403
sg56
(lp418
g49
(g50
g51
NtRp419
(dp420
g54
(dp421
g62
I3
ssg63
g415
sg56
(lp422
S''
asbasbasbag49
(g65
g51
NtRp423
(dp424
g54
(dp425
sg63
g399
sg56
(lp426
g49
(g70
g51
NtRp427
(dp428
g54
(dp429
g74
g75
ssg63
g423
sg56
(lp430
g260
asbag49
(g70
g51
NtRp431
(dp432
g54
(dp433
g81
g82
ssg63
g423
sg56
(lp434
S':'
asbag49
(g70
g51
NtRp435
(dp436
g54
(dp437
sg63
g423
sg56
(lp438
g49
(g50
g51
NtRp439
(dp440
g54
(dp441
g62
I3
ssg63
g435
sg56
(lp442
S''
asbasbasbag49
(g65
g51
NtRp443
(dp444
g54
(dp445
sg63
g399
sg56
(lp446
g49
(g70
g51
NtRp447
(dp448
g54
(dp449
g74
g75
ssg63
g443
sg56
(lp450
g281
asbag49
(g70
g51
NtRp451
(dp452
g54
(dp453
g81
g82
ssg63
g443
sg56
(lp454
S':'
asbag49
(g70
g51
NtRp455
(dp456
g54
(dp457
sg63
g443
sg56
(lp458
g49
(g50
g51
NtRp459
(dp460
g54
(dp461
g62
I3
ssg63
g455
sg56
(lp462
S''
asbasbasbag49
(g65
g51
NtRp463
(dp464
g54
(dp465
sg63
g399
sg56
(lp466
g49
(g70
g51
NtRp467
(dp468
g54
(dp469
g74
g75
ssg63
g463
sg56
(lp470
g302
asbag49
(g70
g51
NtRp471
(dp472
g54
(dp473
g81
g82
ssg63
g463
sg56
(lp474
S':'
asbag49
(g70
g51
NtRp475
(dp476
g54
(dp477
sg63
g463
sg56
(lp478
g49
(g50
g51
NtRp479
(dp480
g54
(dp481
g62
I3
ssg63
g475
sg56
(lp482
S''
asbasbasbag49
(g65
g51
NtRp483
(dp484
g54
(dp485
sg63
g399
sg56
(lp486
g49
(g70
g51
NtRp487
(dp488
g54
(dp489
g74
g75
ssg63
g483
sg56
(lp490
g323
asbag49
(g70
g51
NtRp491
(dp492
g54
(dp493
g81
g82
ssg63
g483
sg56
(lp494
S':'
asbag49
(g70
g51
NtRp495
(dp496
g54
(dp497
sg63
g483
sg56
(lp498
g49
(g50
g51
NtRp499
(dp500
g54
(dp501
g62
I3
ssg63
g495
sg56
(lp502
S''
asbasbasbag49
(g65
g51
NtRp503
(dp504
g54
(dp505
sg63
g399
sg56
(lp506
g49
(g70
g51
NtRp507
(dp508
g54
(dp509
g74
g75
ssg63
g503
sg56
(lp510
g344
asbag49
(g70
g51
NtRp511
(dp512
g54
(dp513
g81
g82
ssg63
g503
sg56
(lp514
S':'
asbag49
(g70
g51
NtRp515
(dp516
g54
(dp517
sg63
g503
sg56
(lp518
g49
(g50
g51
NtRp519
(dp520
g54
(dp521
g62
I3
ssg63
g515
sg56
(lp522
S''
asbasbasbag49
(g65
g51
NtRp523
(dp524
g54
(dp525
sg63
g399
sg56
(lp526
g49
(g70
g51
NtRp527
(dp528
g54
(dp529
g74
g75
ssg63
g523
sg56
(lp530
g365
asbag49
(g70
g51
NtRp531
(dp532
g54
(dp533
g81
g82
ssg63
g523
sg56
(lp534
S':'
asbag49
(g70
g51
NtRp535
(dp536
g54
(dp537
sg63
g523
sg56
(lp538
g49
(g50
g51
NtRp539
(dp540
g54
(dp541
g62
I3
ssg63
g535
sg56
(lp542
S''
asbasbasbasbasbasbasbasbasbasbasbag49
(g65
g51
NtRp543
(dp544
g54
(dp545
sg63
g59
sg56
(lp546
g49
(g70
g51
NtRp547
(dp548
g54
(dp549
g74
g75
ssg63
g543
sg56
(lp550
S'env'
p551
asbag49
(g70
g51
NtRp552
(dp553
g54
(dp554
g81
g82
ssg63
g543
sg56
(lp555
S':'
asbag49
(g70
g51
NtRp556
(dp557
g54
(dp558
sg63
g543
sg56
(lp559
g49
(g50
g51
NtRp560
(dp561
g54
(dp562
g62
I5
ssg63
g556
sg56
(lp563
g49
(g58
g51
NtRp564
(dp565
g54
(dp566
g62
I4
ssg63
Nsg56
(lp567
g49
(g65
g51
NtRp568
(dp569
g54
(dp570
sg63
g564
sg56
(lp571
g49
(g70
g51
NtRp572
(dp573
g54
(dp574
g74
g75
ssg63
g568
sg56
(lp575
S'app_folders'
p576
asbag49
(g70
g51
NtRp577
(dp578
g54
(dp579
g81
g82
ssg63
g568
sg56
(lp580
S':'
asbag49
(g70
g51
NtRp581
(dp582
g54
(dp583
sg63
g568
sg56
(lp584
g49
(g50
g51
NtRp585
(dp586
g54
(dp587
g62
I4
ssg63
g581
sg56
(lp588
S"set(['D:\\\\Dise\\xf1o Web\\\\Proyectos\\\\Parleyweb\\\\web2py\\\\applications\\\\parleyweb\\\\', 'D:\\\\Dise\\xf1o Web\\\\Proyectos\\\\Parleyweb\\\\web2py\\\\applications\\\\admin\\\\'])"
p589
asbasbasbag49
(g65
g51
NtRp590
(dp591
g54
(dp592
sg63
g564
sg56
(lp593
g49
(g70
g51
NtRp594
(dp595
g54
(dp596
g74
g75
ssg63
g590
sg56
(lp597
S'applications_parent'
p598
asbag49
(g70
g51
NtRp599
(dp600
g54
(dp601
g81
g82
ssg63
g590
sg56
(lp602
S':'
asbag49
(g70
g51
NtRp603
(dp604
g54
(dp605
sg63
g590
sg56
(lp606
g49
(g50
g51
NtRp607
(dp608
g54
(dp609
g62
I4
ssg63
g603
sg56
(lp610
S'D:\\Dise\xf1o Web\\Proyectos\\Parleyweb\\web2py'
p611
asbasbasbag49
(g65
g51
NtRp612
(dp613
g54
(dp614
sg63
g564
sg56
(lp615
g49
(g70
g51
NtRp616
(dp617
g54
(dp618
g74
g75
ssg63
g612
sg56
(lp619
S'cmd_args'
p620
asbag49
(g70
g51
NtRp621
(dp622
g54
(dp623
g81
g82
ssg63
g612
sg56
(lp624
S':'
asbag49
(g70
g51
NtRp625
(dp626
g54
(dp627
sg63
g612
sg56
(lp628
g49
(g50
g51
NtRp629
(dp630
g54
(dp631
g62
I4
ssg63
g625
sg56
(lp632
g49
(g58
g51
NtRp633
(dp634
g54
(dp635
g62
I3
ssg63
Nsg56
(lp636
sbasbasbasbag49
(g65
g51
NtRp637
(dp638
g54
(dp639
sg63
g564
sg56
(lp640
g49
(g70
g51
NtRp641
(dp642
g54
(dp643
g74
g75
ssg63
g637
sg56
(lp644
S'cmd_options'
p645
asbag49
(g70
g51
NtRp646
(dp647
g54
(dp648
g81
g82
ssg63
g637
sg56
(lp649
S':'
asbag49
(g70
g51
NtRp650
(dp651
g54
(dp652
sg63
g637
sg56
(lp653
g49
(g50
g51
NtRp654
(dp655
g54
(dp656
g62
I4
ssg63
g650
sg56
(lp657
S"<Values at 0x3185238: {'verbose': False, 'ip': '127.0.0.1', 'shutdown_timeout': 5, 'taskbar': False, 'nocron': False, 'pid_filename': 'httpserver.pid', 'maxthreads': None, 'softcron': False, 'server_name': 'craxsnet-PC', 'bpython': False, 'nogui': False, 'port': 8000, 'extcron': False, 'debuglevel': 30, 'test': None, 'folder': 'D:\\\\Dise\\xf1o Web\\\\Proyectos\\\\Parleyweb\\\\web2py', 'config': '', 'import_models': False, 'winservice': '', 'shell': None, 'run': '', 'log_filename': 'httpserver.log', 'args': [''], 'socket_timeout': 5, 'ssl_ca_certificate': None, 'scheduler': None, 'profiler_filename': None, 'ssl_private_key': '', 'password': '<ask>', 'request_queue_size': 5, 'ssl_certificate': '', 'cronjob': False, 'numthreads': None, 'quiet': False, 'interfaces': None, 'minthreads': None, 'timeout': 10, 'plain': False, 'nobanner': False}>"
p658
asbasbasbag49
(g65
g51
NtRp659
(dp660
g54
(dp661
sg63
g564
sg56
(lp662
g49
(g70
g51
NtRp663
(dp664
g54
(dp665
g74
g75
ssg63
g659
sg56
(lp666
S'db_sessions'
p667
asbag49
(g70
g51
NtRp668
(dp669
g54
(dp670
g81
g82
ssg63
g659
sg56
(lp671
S':'
asbag49
(g70
g51
NtRp672
(dp673
g54
(dp674
sg63
g659
sg56
(lp675
g49
(g50
g51
NtRp676
(dp677
g54
(dp678
g62
I4
ssg63
g672
sg56
(lp679
S'set([])'
p680
asbasbasbag49
(g65
g51
NtRp681
(dp682
g54
(dp683
sg63
g564
sg56
(lp684
g49
(g70
g51
NtRp685
(dp686
g54
(dp687
g74
g75
ssg63
g681
sg56
(lp688
S'debugging'
p689
asbag49
(g70
g51
NtRp690
(dp691
g54
(dp692
g81
g82
ssg63
g681
sg56
(lp693
S':'
asbag49
(g70
g51
NtRp694
(dp695
g54
(dp696
sg63
g681
sg56
(lp697
g49
(g50
g51
NtRp698
(dp699
g54
(dp700
g62
I4
ssg63
g694
sg56
(lp701
g92
asbasbasbag49
(g65
g51
NtRp702
(dp703
g54
(dp704
sg63
g564
sg56
(lp705
g49
(g70
g51
NtRp706
(dp707
g54
(dp708
g74
g75
ssg63
g702
sg56
(lp709
S'gluon_parent'
p710
asbag49
(g70
g51
NtRp711
(dp712
g54
(dp713
g81
g82
ssg63
g702
sg56
(lp714
S':'
asbag49
(g70
g51
NtRp715
(dp716
g54
(dp717
sg63
g702
sg56
(lp718
g49
(g50
g51
NtRp719
(dp720
g54
(dp721
g62
I4
ssg63
g715
sg56
(lp722
S'D:\\Dise\xf1o Web\\Proyectos\\Parleyweb\\web2py'
p723
asbasbasbag49
(g65
g51
NtRp724
(dp725
g54
(dp726
sg63
g564
sg56
(lp727
g49
(g70
g51
NtRp728
(dp729
g54
(dp730
g74
g75
ssg63
g724
sg56
(lp731
S'http_accept'
p732
asbag49
(g70
g51
NtRp733
(dp734
g54
(dp735
g81
g82
ssg63
g724
sg56
(lp736
S':'
asbag49
(g70
g51
NtRp737
(dp738
g54
(dp739
sg63
g724
sg56
(lp740
g49
(g50
g51
NtRp741
(dp742
g54
(dp743
g62
I4
ssg63
g737
sg56
(lp744
S'text/html,application/xhtml+xml,application/xml;q=0.9,*/*;q=0.8'
p745
asbasbasbag49
(g65
g51
NtRp746
(dp747
g54
(dp748
sg63
g564
sg56
(lp749
g49
(g70
g51
NtRp750
(dp751
g54
(dp752
g74
g75
ssg63
g746
sg56
(lp753
S'http_accept_encoding'
p754
asbag49
(g70
g51
NtRp755
(dp756
g54
(dp757
g81
g82
ssg63
g746
sg56
(lp758
S':'
asbag49
(g70
g51
NtRp759
(dp760
g54
(dp761
sg63
g746
sg56
(lp762
g49
(g50
g51
NtRp763
(dp764
g54
(dp765
g62
I4
ssg63
g759
sg56
(lp766
S'gzip, deflate'
p767
asbasbasbag49
(g65
g51
NtRp768
(dp769
g54
(dp770
sg63
g564
sg56
(lp771
g49
(g70
g51
NtRp772
(dp773
g54
(dp774
g74
g75
ssg63
g768
sg56
(lp775
S'http_accept_language'
p776
asbag49
(g70
g51
NtRp777
(dp778
g54
(dp779
g81
g82
ssg63
g768
sg56
(lp780
S':'
asbag49
(g70
g51
NtRp781
(dp782
g54
(dp783
sg63
g768
sg56
(lp784
g49
(g50
g51
NtRp785
(dp786
g54
(dp787
g62
I4
ssg63
g781
sg56
(lp788
S'es-es,de-de;q=0.8,es;q=0.6,en-us;q=0.4,en;q=0.2'
p789
asbasbasbag49
(g65
g51
NtRp790
(dp791
g54
(dp792
sg63
g564
sg56
(lp793
g49
(g70
g51
NtRp794
(dp795
g54
(dp796
g74
g75
ssg63
g790
sg56
(lp797
S'http_cache_control'
p798
asbag49
(g70
g51
NtRp799
(dp800
g54
(dp801
g81
g82
ssg63
g790
sg56
(lp802
S':'
asbag49
(g70
g51
NtRp803
(dp804
g54
(dp805
sg63
g790
sg56
(lp806
g49
(g50
g51
NtRp807
(dp808
g54
(dp809
g62
I4
ssg63
g803
sg56
(lp810
S'max-age=0'
p811
asbasbasbag49
(g65
g51
NtRp812
(dp813
g54
(dp814
sg63
g564
sg56
(lp815
g49
(g70
g51
NtRp816
(dp817
g54
(dp818
g74
g75
ssg63
g812
sg56
(lp819
S'http_connection'
p820
asbag49
(g70
g51
NtRp821
(dp822
g54
(dp823
g81
g82
ssg63
g812
sg56
(lp824
S':'
asbag49
(g70
g51
NtRp825
(dp826
g54
(dp827
sg63
g812
sg56
(lp828
g49
(g50
g51
NtRp829
(dp830
g54
(dp831
g62
I4
ssg63
g825
sg56
(lp832
S'keep-alive'
p833
asbasbasbag49
(g65
g51
NtRp834
(dp835
g54
(dp836
sg63
g564
sg56
(lp837
g49
(g70
g51
NtRp838
(dp839
g54
(dp840
g74
g75
ssg63
g834
sg56
(lp841
S'http_cookie'
p842
asbag49
(g70
g51
NtRp843
(dp844
g54
(dp845
g81
g82
ssg63
g834
sg56
(lp846
S':'
asbag49
(g70
g51
NtRp847
(dp848
g54
(dp849
sg63
g834
sg56
(lp850
g49
(g50
g51
NtRp851
(dp852
g54
(dp853
g62
I4
ssg63
g847
sg56
(lp854
S'__utma=96992031.26429765.1325029743.1325029743.1326549329.2; __utmz=96992031.1325029743.1.1.utmcsr=(direct)|utmccn=(direct)|utmcmd=(none); session_id_parleyweb=127.0.0.1-8bc0d624-a7ac-4822-aaf0-ed4b06ce8341; session_id_admin=127.0.0.1-eddd88b7-6525-4662-ad3e-796276cded35'
p855
asbasbasbag49
(g65
g51
NtRp856
(dp857
g54
(dp858
sg63
g564
sg56
(lp859
g49
(g70
g51
NtRp860
(dp861
g54
(dp862
g74
g75
ssg63
g856
sg56
(lp863
S'http_host'
p864
asbag49
(g70
g51
NtRp865
(dp866
g54
(dp867
g81
g82
ssg63
g856
sg56
(lp868
S':'
asbag49
(g70
g51
NtRp869
(dp870
g54
(dp871
sg63
g856
sg56
(lp872
g49
(g50
g51
NtRp873
(dp874
g54
(dp875
g62
I4
ssg63
g869
sg56
(lp876
S'127.0.0.1:8000'
p877
asbasbasbag49
(g65
g51
NtRp878
(dp879
g54
(dp880
sg63
g564
sg56
(lp881
g49
(g70
g51
NtRp882
(dp883
g54
(dp884
g74
g75
ssg63
g878
sg56
(lp885
S'http_user_agent'
p886
asbag49
(g70
g51
NtRp887
(dp888
g54
(dp889
g81
g82
ssg63
g878
sg56
(lp890
S':'
asbag49
(g70
g51
NtRp891
(dp892
g54
(dp893
sg63
g878
sg56
(lp894
g49
(g50
g51
NtRp895
(dp896
g54
(dp897
g62
I4
ssg63
g891
sg56
(lp898
S'Mozilla/5.0 (Windows NT 6.1; WOW64; rv:10.0.2) Gecko/20100101 Firefox/10.0.2'
p899
asbasbasbag49
(g65
g51
NtRp900
(dp901
g54
(dp902
sg63
g564
sg56
(lp903
g49
(g70
g51
NtRp904
(dp905
g54
(dp906
g74
g75
ssg63
g900
sg56
(lp907
S'is_jython'
p908
asbag49
(g70
g51
NtRp909
(dp910
g54
(dp911
g81
g82
ssg63
g900
sg56
(lp912
S':'
asbag49
(g70
g51
NtRp913
(dp914
g54
(dp915
sg63
g900
sg56
(lp916
g49
(g50
g51
NtRp917
(dp918
g54
(dp919
g62
I4
ssg63
g913
sg56
(lp920
g92
asbasbasbag49
(g65
g51
NtRp921
(dp922
g54
(dp923
sg63
g564
sg56
(lp924
g49
(g70
g51
NtRp925
(dp926
g54
(dp927
g74
g75
ssg63
g921
sg56
(lp928
S'is_pypy'
p929
asbag49
(g70
g51
NtRp930
(dp931
g54
(dp932
g81
g82
ssg63
g921
sg56
(lp933
S':'
asbag49
(g70
g51
NtRp934
(dp935
g54
(dp936
sg63
g921
sg56
(lp937
g49
(g50
g51
NtRp938
(dp939
g54
(dp940
g62
I4
ssg63
g934
sg56
(lp941
g92
asbasbasbag49
(g65
g51
NtRp942
(dp943
g54
(dp944
sg63
g564
sg56
(lp945
g49
(g70
g51
NtRp946
(dp947
g54
(dp948
g74
g75
ssg63
g942
sg56
(lp949
S'path_info'
p950
asbag49
(g70
g51
NtRp951
(dp952
g54
(dp953
g81
g82
ssg63
g942
sg56
(lp954
S':'
asbag49
(g70
g51
NtRp955
(dp956
g54
(dp957
sg63
g942
sg56
(lp958
g49
(g50
g51
NtRp959
(dp960
g54
(dp961
g62
I4
ssg63
g955
sg56
(lp962
S'/parleyweb/default/mostrar/82'
p963
asbasbasbag49
(g65
g51
NtRp964
(dp965
g54
(dp966
sg63
g564
sg56
(lp967
g49
(g70
g51
NtRp968
(dp969
g54
(dp970
g74
g75
ssg63
g964
sg56
(lp971
S'query_string'
p972
asbag49
(g70
g51
NtRp973
(dp974
g54
(dp975
g81
g82
ssg63
g964
sg56
(lp976
S':'
asbag49
(g70
g51
NtRp977
(dp978
g54
(dp979
sg63
g964
sg56
(lp980
g49
(g50
g51
NtRp981
(dp982
g54
(dp983
g62
I4
ssg63
g977
sg56
(lp984
S''
asbasbasbag49
(g65
g51
NtRp985
(dp986
g54
(dp987
sg63
g564
sg56
(lp988
g49
(g70
g51
NtRp989
(dp990
g54
(dp991
g74
g75
ssg63
g985
sg56
(lp992
S'remote_addr'
p993
asbag49
(g70
g51
NtRp994
(dp995
g54
(dp996
g81
g82
ssg63
g985
sg56
(lp997
S':'
asbag49
(g70
g51
NtRp998
(dp999
g54
(dp1000
sg63
g985
sg56
(lp1001
g49
(g50
g51
NtRp1002
(dp1003
g54
(dp1004
g62
I4
ssg63
g998
sg56
(lp1005
g158
asbasbasbag49
(g65
g51
NtRp1006
(dp1007
g54
(dp1008
sg63
g564
sg56
(lp1009
g49
(g70
g51
NtRp1010
(dp1011
g54
(dp1012
g74
g75
ssg63
g1006
sg56
(lp1013
S'remote_port'
p1014
asbag49
(g70
g51
NtRp1015
(dp1016
g54
(dp1017
g81
g82
ssg63
g1006
sg56
(lp1018
S':'
asbag49
(g70
g51
NtRp1019
(dp1020
g54
(dp1021
sg63
g1006
sg56
(lp1022
g49
(g50
g51
NtRp1023
(dp1024
g54
(dp1025
g62
I4
ssg63
g1019
sg56
(lp1026
S'53358'
p1027
asbasbasbag49
(g65
g51
NtRp1028
(dp1029
g54
(dp1030
sg63
g564
sg56
(lp1031
g49
(g70
g51
NtRp1032
(dp1033
g54
(dp1034
g74
g75
ssg63
g1028
sg56
(lp1035
S'request_method'
p1036
asbag49
(g70
g51
NtRp1037
(dp1038
g54
(dp1039
g81
g82
ssg63
g1028
sg56
(lp1040
S':'
asbag49
(g70
g51
NtRp1041
(dp1042
g54
(dp1043
sg63
g1028
sg56
(lp1044
g49
(g50
g51
NtRp1045
(dp1046
g54
(dp1047
g62
I4
ssg63
g1041
sg56
(lp1048
S'GET'
p1049
asbasbasbag49
(g65
g51
NtRp1050
(dp1051
g54
(dp1052
sg63
g564
sg56
(lp1053
g49
(g70
g51
NtRp1054
(dp1055
g54
(dp1056
g74
g75
ssg63
g1050
sg56
(lp1057
S'request_uri'
p1058
asbag49
(g70
g51
NtRp1059
(dp1060
g54
(dp1061
g81
g82
ssg63
g1050
sg56
(lp1062
S':'
asbag49
(g70
g51
NtRp1063
(dp1064
g54
(dp1065
sg63
g1050
sg56
(lp1066
g49
(g50
g51
NtRp1067
(dp1068
g54
(dp1069
g62
I4
ssg63
g1063
sg56
(lp1070
g963
asbasbasbag49
(g65
g51
NtRp1071
(dp1072
g54
(dp1073
sg63
g564
sg56
(lp1074
g49
(g70
g51
NtRp1075
(dp1076
g54
(dp1077
g74
g75
ssg63
g1071
sg56
(lp1078
S'script_name'
p1079
asbag49
(g70
g51
NtRp1080
(dp1081
g54
(dp1082
g81
g82
ssg63
g1071
sg56
(lp1083
S':'
asbag49
(g70
g51
NtRp1084
(dp1085
g54
(dp1086
sg63
g1071
sg56
(lp1087
g49
(g50
g51
NtRp1088
(dp1089
g54
(dp1090
g62
I4
ssg63
g1084
sg56
(lp1091
S''
asbasbasbag49
(g65
g51
NtRp1092
(dp1093
g54
(dp1094
sg63
g564
sg56
(lp1095
g49
(g70
g51
NtRp1096
(dp1097
g54
(dp1098
g74
g75
ssg63
g1092
sg56
(lp1099
S'server_name'
p1100
asbag49
(g70
g51
NtRp1101
(dp1102
g54
(dp1103
g81
g82
ssg63
g1092
sg56
(lp1104
S':'
asbag49
(g70
g51
NtRp1105
(dp1106
g54
(dp1107
sg63
g1092
sg56
(lp1108
g49
(g50
g51
NtRp1109
(dp1110
g54
(dp1111
g62
I4
ssg63
g1105
sg56
(lp1112
S'craxsnet-PC'
p1113
asbasbasbag49
(g65
g51
NtRp1114
(dp1115
g54
(dp1116
sg63
g564
sg56
(lp1117
g49
(g70
g51
NtRp1118
(dp1119
g54
(dp1120
g74
g75
ssg63
g1114
sg56
(lp1121
S'server_port'
p1122
asbag49
(g70
g51
NtRp1123
(dp1124
g54
(dp1125
g81
g82
ssg63
g1114
sg56
(lp1126
S':'
asbag49
(g70
g51
NtRp1127
(dp1128
g54
(dp1129
sg63
g1114
sg56
(lp1130
g49
(g50
g51
NtRp1131
(dp1132
g54
(dp1133
g62
I4
ssg63
g1127
sg56
(lp1134
S'8000'
p1135
asbasbasbag49
(g65
g51
NtRp1136
(dp1137
g54
(dp1138
sg63
g564
sg56
(lp1139
g49
(g70
g51
NtRp1140
(dp1141
g54
(dp1142
g74
g75
ssg63
g1136
sg56
(lp1143
S'server_protocol'
p1144
asbag49
(g70
g51
NtRp1145
(dp1146
g54
(dp1147
g81
g82
ssg63
g1136
sg56
(lp1148
S':'
asbag49
(g70
g51
NtRp1149
(dp1150
g54
(dp1151
sg63
g1136
sg56
(lp1152
g49
(g50
g51
NtRp1153
(dp1154
g54
(dp1155
g62
I4
ssg63
g1149
sg56
(lp1156
S'HTTP/1.1'
p1157
asbasbasbag49
(g65
g51
NtRp1158
(dp1159
g54
(dp1160
sg63
g564
sg56
(lp1161
g49
(g70
g51
NtRp1162
(dp1163
g54
(dp1164
g74
g75
ssg63
g1158
sg56
(lp1165
S'server_software'
p1166
asbag49
(g70
g51
NtRp1167
(dp1168
g54
(dp1169
g81
g82
ssg63
g1158
sg56
(lp1170
S':'
asbag49
(g70
g51
NtRp1171
(dp1172
g54
(dp1173
sg63
g1158
sg56
(lp1174
g49
(g50
g51
NtRp1175
(dp1176
g54
(dp1177
g62
I4
ssg63
g1171
sg56
(lp1178
S'Rocket 1.2.4'
p1179
asbasbasbag49
(g65
g51
NtRp1180
(dp1181
g54
(dp1182
sg63
g564
sg56
(lp1183
g49
(g70
g51
NtRp1184
(dp1185
g54
(dp1186
g74
g75
ssg63
g1180
sg56
(lp1187
S'web2py_crontype'
p1188
asbag49
(g70
g51
NtRp1189
(dp1190
g54
(dp1191
g81
g82
ssg63
g1180
sg56
(lp1192
S':'
asbag49
(g70
g51
NtRp1193
(dp1194
g54
(dp1195
sg63
g1180
sg56
(lp1196
g49
(g50
g51
NtRp1197
(dp1198
g54
(dp1199
g62
I4
ssg63
g1193
sg56
(lp1200
S'hard'
p1201
asbasbasbag49
(g65
g51
NtRp1202
(dp1203
g54
(dp1204
sg63
g564
sg56
(lp1205
g49
(g70
g51
NtRp1206
(dp1207
g54
(dp1208
g74
g75
ssg63
g1202
sg56
(lp1209
S'web2py_original_uri'
p1210
asbag49
(g70
g51
NtRp1211
(dp1212
g54
(dp1213
g81
g82
ssg63
g1202
sg56
(lp1214
S':'
asbag49
(g70
g51
NtRp1215
(dp1216
g54
(dp1217
sg63
g1202
sg56
(lp1218
g49
(g50
g51
NtRp1219
(dp1220
g54
(dp1221
g62
I4
ssg63
g1215
sg56
(lp1222
S'/parleyweb/default/mostrar/82'
p1223
asbasbasbag49
(g65
g51
NtRp1224
(dp1225
g54
(dp1226
sg63
g564
sg56
(lp1227
g49
(g70
g51
NtRp1228
(dp1229
g54
(dp1230
g74
g75
ssg63
g1224
sg56
(lp1231
S'web2py_path'
p1232
asbag49
(g70
g51
NtRp1233
(dp1234
g54
(dp1235
g81
g82
ssg63
g1224
sg56
(lp1236
S':'
asbag49
(g70
g51
NtRp1237
(dp1238
g54
(dp1239
sg63
g1224
sg56
(lp1240
g49
(g50
g51
NtRp1241
(dp1242
g54
(dp1243
g62
I4
ssg63
g1237
sg56
(lp1244
g611
asbasbasbag49
(g65
g51
NtRp1245
(dp1246
g54
(dp1247
sg63
g564
sg56
(lp1248
g49
(g70
g51
NtRp1249
(dp1250
g54
(dp1251
g74
g75
ssg63
g1245
sg56
(lp1252
S'web2py_version'
p1253
asbag49
(g70
g51
NtRp1254
(dp1255
g54
(dp1256
g81
g82
ssg63
g1245
sg56
(lp1257
S':'
asbag49
(g70
g51
NtRp1258
(dp1259
g54
(dp1260
sg63
g1245
sg56
(lp1261
g49
(g50
g51
NtRp1262
(dp1263
g54
(dp1264
g62
I4
ssg63
g1258
sg56
(lp1265
g49
(g58
g51
NtRp1266
(dp1267
g54
(dp1268
g62
I3
ssg63
Nsg56
(lp1269
g49
(g65
g51
NtRp1270
(dp1271
g54
(dp1272
sg63
g1266
sg56
(lp1273
g49
(g70
g51
NtRp1274
(dp1275
g54
(dp1276
sg63
g1270
sg56
(lp1277
g49
(g50
g51
NtRp1278
(dp1279
g54
(dp1280
g62
I3
ssg63
g1274
sg56
(lp1281
S'1'
asbasbasbag49
(g65
g51
NtRp1282
(dp1283
g54
(dp1284
sg63
g1266
sg56
(lp1285
g49
(g70
g51
NtRp1286
(dp1287
g54
(dp1288
sg63
g1282
sg56
(lp1289
g49
(g50
g51
NtRp1290
(dp1291
g54
(dp1292
g62
I3
ssg63
g1286
sg56
(lp1293
S'99'
p1294
asbasbasbag49
(g65
g51
NtRp1295
(dp1296
g54
(dp1297
sg63
g1266
sg56
(lp1298
g49
(g70
g51
NtRp1299
(dp1300
g54
(dp1301
sg63
g1295
sg56
(lp1302
g49
(g50
g51
NtRp1303
(dp1304
g54
(dp1305
g62
I3
ssg63
g1299
sg56
(lp1306
S'7'
asbasbasbag49
(g65
g51
NtRp1307
(dp1308
g54
(dp1309
sg63
g1266
sg56
(lp1310
g49
(g70
g51
NtRp1311
(dp1312
g54
(dp1313
sg63
g1307
sg56
(lp1314
g49
(g50
g51
NtRp1315
(dp1316
g54
(dp1317
g62
I3
ssg63
g1311
sg56
(lp1318
S'datetime.datetime(2012, 3, 4, 22, 12, 8)'
p1319
asbasbasbag49
(g65
g51
NtRp1320
(dp1321
g54
(dp1322
sg63
g1266
sg56
(lp1323
g49
(g70
g51
NtRp1324
(dp1325
g54
(dp1326
sg63
g1320
sg56
(lp1327
g49
(g50
g51
NtRp1328
(dp1329
g54
(dp1330
g62
I3
ssg63
g1324
sg56
(lp1331
S'stable'
p1332
asbasbasbasbasbasbasbag49
(g65
g51
NtRp1333
(dp1334
g54
(dp1335
sg63
g564
sg56
(lp1336
g49
(g70
g51
NtRp1337
(dp1338
g54
(dp1339
g74
g75
ssg63
g1333
sg56
(lp1340
S'wsgi_errors'
p1341
asbag49
(g70
g51
NtRp1342
(dp1343
g54
(dp1344
g81
g82
ssg63
g1333
sg56
(lp1345
S':'
asbag49
(g70
g51
NtRp1346
(dp1347
g54
(dp1348
sg63
g1333
sg56
(lp1349
g49
(g50
g51
NtRp1350
(dp1351
g54
(dp1352
g62
I4
ssg63
g1346
sg56
(lp1353
S"<open file '<stderr>', mode 'w' at 0x004200B0>"
p1354
asbasbasbag49
(g65
g51
NtRp1355
(dp1356
g54
(dp1357
sg63
g564
sg56
(lp1358
g49
(g70
g51
NtRp1359
(dp1360
g54
(dp1361
g74
g75
ssg63
g1355
sg56
(lp1362
S'wsgi_file_wrapper'
p1363
asbag49
(g70
g51
NtRp1364
(dp1365
g54
(dp1366
g81
g82
ssg63
g1355
sg56
(lp1367
S':'
asbag49
(g70
g51
NtRp1368
(dp1369
g54
(dp1370
sg63
g1355
sg56
(lp1371
g49
(g50
g51
NtRp1372
(dp1373
g54
(dp1374
g62
I4
ssg63
g1368
sg56
(lp1375
S'<class wsgiref.util.FileWrapper at 0x02FC6390>'
p1376
asbasbasbag49
(g65
g51
NtRp1377
(dp1378
g54
(dp1379
sg63
g564
sg56
(lp1380
g49
(g70
g51
NtRp1381
(dp1382
g54
(dp1383
g74
g75
ssg63
g1377
sg56
(lp1384
S'wsgi_input'
p1385
asbag49
(g70
g51
NtRp1386
(dp1387
g54
(dp1388
g81
g82
ssg63
g1377
sg56
(lp1389
S':'
asbag49
(g70
g51
NtRp1390
(dp1391
g54
(dp1392
sg63
g1377
sg56
(lp1393
g49
(g50
g51
NtRp1394
(dp1395
g54
(dp1396
g62
I4
ssg63
g1390
sg56
(lp1397
S'<socket._fileobject object at 0x066483B0>'
p1398
asbasbasbag49
(g65
g51
NtRp1399
(dp1400
g54
(dp1401
sg63
g564
sg56
(lp1402
g49
(g70
g51
NtRp1403
(dp1404
g54
(dp1405
g74
g75
ssg63
g1399
sg56
(lp1406
S'wsgi_multiprocess'
p1407
asbag49
(g70
g51
NtRp1408
(dp1409
g54
(dp1410
g81
g82
ssg63
g1399
sg56
(lp1411
S':'
asbag49
(g70
g51
NtRp1412
(dp1413
g54
(dp1414
sg63
g1399
sg56
(lp1415
g49
(g50
g51
NtRp1416
(dp1417
g54
(dp1418
g62
I4
ssg63
g1412
sg56
(lp1419
g92
asbasbasbag49
(g65
g51
NtRp1420
(dp1421
g54
(dp1422
sg63
g564
sg56
(lp1423
g49
(g70
g51
NtRp1424
(dp1425
g54
(dp1426
g74
g75
ssg63
g1420
sg56
(lp1427
S'wsgi_multithread'
p1428
asbag49
(g70
g51
NtRp1429
(dp1430
g54
(dp1431
g81
g82
ssg63
g1420
sg56
(lp1432
S':'
asbag49
(g70
g51
NtRp1433
(dp1434
g54
(dp1435
sg63
g1420
sg56
(lp1436
g49
(g50
g51
NtRp1437
(dp1438
g54
(dp1439
g62
I4
ssg63
g1433
sg56
(lp1440
S'True'
p1441
asbasbasbag49
(g65
g51
NtRp1442
(dp1443
g54
(dp1444
sg63
g564
sg56
(lp1445
g49
(g70
g51
NtRp1446
(dp1447
g54
(dp1448
g74
g75
ssg63
g1442
sg56
(lp1449
S'wsgi_run_once'
p1450
asbag49
(g70
g51
NtRp1451
(dp1452
g54
(dp1453
g81
g82
ssg63
g1442
sg56
(lp1454
S':'
asbag49
(g70
g51
NtRp1455
(dp1456
g54
(dp1457
sg63
g1442
sg56
(lp1458
g49
(g50
g51
NtRp1459
(dp1460
g54
(dp1461
g62
I4
ssg63
g1455
sg56
(lp1462
g92
asbasbasbag49
(g65
g51
NtRp1463
(dp1464
g54
(dp1465
sg63
g564
sg56
(lp1466
g49
(g70
g51
NtRp1467
(dp1468
g54
(dp1469
g74
g75
ssg63
g1463
sg56
(lp1470
S'wsgi_url_scheme'
p1471
asbag49
(g70
g51
NtRp1472
(dp1473
g54
(dp1474
g81
g82
ssg63
g1463
sg56
(lp1475
S':'
asbag49
(g70
g51
NtRp1476
(dp1477
g54
(dp1478
sg63
g1463
sg56
(lp1479
g49
(g50
g51
NtRp1480
(dp1481
g54
(dp1482
g62
I4
ssg63
g1476
sg56
(lp1483
S'http'
p1484
asbasbasbag49
(g65
g51
NtRp1485
(dp1486
g54
(dp1487
sg63
g564
sg56
(lp1488
g49
(g70
g51
NtRp1489
(dp1490
g54
(dp1491
g74
g75
ssg63
g1485
sg56
(lp1492
S'wsgi_version'
p1493
asbag49
(g70
g51
NtRp1494
(dp1495
g54
(dp1496
g81
g82
ssg63
g1485
sg56
(lp1497
S':'
asbag49
(g70
g51
NtRp1498
(dp1499
g54
(dp1500
sg63
g1485
sg56
(lp1501
g49
(g50
g51
NtRp1502
(dp1503
g54
(dp1504
g62
I4
ssg63
g1498
sg56
(lp1505
g49
(g58
g51
NtRp1506
(dp1507
g54
(dp1508
g62
I3
ssg63
Nsg56
(lp1509
g49
(g65
g51
NtRp1510
(dp1511
g54
(dp1512
sg63
g1506
sg56
(lp1513
g49
(g70
g51
NtRp1514
(dp1515
g54
(dp1516
sg63
g1510
sg56
(lp1517
g49
(g50
g51
NtRp1518
(dp1519
g54
(dp1520
g62
I3
ssg63
g1514
sg56
(lp1521
S'1'
asbasbasbag49
(g65
g51
NtRp1522
(dp1523
g54
(dp1524
sg63
g1506
sg56
(lp1525
g49
(g70
g51
NtRp1526
(dp1527
g54
(dp1528
sg63
g1522
sg56
(lp1529
g49
(g50
g51
NtRp1530
(dp1531
g54
(dp1532
g62
I3
ssg63
g1526
sg56
(lp1533
S'0'
asbasbasbasbasbasbasbasbasbasbasbag49
(g65
g51
NtRp1534
(dp1535
g54
(dp1536
sg63
g59
sg56
(lp1537
g49
(g70
g51
NtRp1538
(dp1539
g54
(dp1540
g74
g75
ssg63
g1534
sg56
(lp1541
S'extension'
p1542
asbag49
(g70
g51
NtRp1543
(dp1544
g54
(dp1545
g81
g82
ssg63
g1534
sg56
(lp1546
S':'
asbag49
(g70
g51
NtRp1547
(dp1548
g54
(dp1549
sg63
g1534
sg56
(lp1550
g49
(g50
g51
NtRp1551
(dp1552
g54
(dp1553
g62
I5
ssg63
g1547
sg56
(lp1554
S'html'
p1555
asbasbasbag49
(g65
g51
NtRp1556
(dp1557
g54
(dp1558
sg63
g59
sg56
(lp1559
g49
(g70
g51
NtRp1560
(dp1561
g54
(dp1562
g74
g75
ssg63
g1556
sg56
(lp1563
S'folder'
p1564
asbag49
(g70
g51
NtRp1565
(dp1566
g54
(dp1567
g81
g82
ssg63
g1556
sg56
(lp1568
S':'
asbag49
(g70
g51
NtRp1569
(dp1570
g54
(dp1571
sg63
g1556
sg56
(lp1572
g49
(g50
g51
NtRp1573
(dp1574
g54
(dp1575
g62
I5
ssg63
g1569
sg56
(lp1576
S'D:\\Dise\xf1o Web\\Proyectos\\Parleyweb\\web2py\\applications\\parleyweb\\'
p1577
asbasbasbag49
(g65
g51
NtRp1578
(dp1579
g54
(dp1580
sg63
g59
sg56
(lp1581
g49
(g70
g51
NtRp1582
(dp1583
g54
(dp1584
g74
g75
ssg63
g1578
sg56
(lp1585
S'function'
p1586
asbag49
(g70
g51
NtRp1587
(dp1588
g54
(dp1589
g81
g82
ssg63
g1578
sg56
(lp1590
S':'
asbag49
(g70
g51
NtRp1591
(dp1592
g54
(dp1593
sg63
g1578
sg56
(lp1594
g49
(g50
g51
NtRp1595
(dp1596
g54
(dp1597
g62
I5
ssg63
g1591
sg56
(lp1598
S'mostrar'
p1599
asbasbasbag49
(g65
g51
NtRp1600
(dp1601
g54
(dp1602
sg63
g59
sg56
(lp1603
g49
(g70
g51
NtRp1604
(dp1605
g54
(dp1606
g74
g75
ssg63
g1600
sg56
(lp1607
S'get_vars'
p1608
asbag49
(g70
g51
NtRp1609
(dp1610
g54
(dp1611
g81
g82
ssg63
g1600
sg56
(lp1612
S':'
asbag49
(g70
g51
NtRp1613
(dp1614
g54
(dp1615
sg63
g1600
sg56
(lp1616
g49
(g50
g51
NtRp1617
(dp1618
g54
(dp1619
g62
I5
ssg63
g1613
sg56
(lp1620
g49
(g58
g51
NtRp1621
(dp1622
g54
(dp1623
g62
I4
ssg63
Nsg56
(lp1624
sbasbasbasbag49
(g65
g51
NtRp1625
(dp1626
g54
(dp1627
sg63
g59
sg56
(lp1628
g49
(g70
g51
NtRp1629
(dp1630
g54
(dp1631
g74
g75
ssg63
g1625
sg56
(lp1632
S'global_settings'
p1633
asbag49
(g70
g51
NtRp1634
(dp1635
g54
(dp1636
g81
g82
ssg63
g1625
sg56
(lp1637
S':'
asbag49
(g70
g51
NtRp1638
(dp1639
g54
(dp1640
sg63
g1625
sg56
(lp1641
g49
(g50
g51
NtRp1642
(dp1643
g54
(dp1644
g62
I5
ssg63
g1638
sg56
(lp1645
g49
(g58
g51
NtRp1646
(dp1647
g54
(dp1648
g62
I4
ssg63
Nsg56
(lp1649
g49
(g65
g51
NtRp1650
(dp1651
g54
(dp1652
sg63
g1646
sg56
(lp1653
g49
(g70
g51
NtRp1654
(dp1655
g54
(dp1656
g74
g75
ssg63
g1650
sg56
(lp1657
g576
asbag49
(g70
g51
NtRp1658
(dp1659
g54
(dp1660
g81
g82
ssg63
g1650
sg56
(lp1661
S':'
asbag49
(g70
g51
NtRp1662
(dp1663
g54
(dp1664
sg63
g1650
sg56
(lp1665
g49
(g50
g51
NtRp1666
(dp1667
g54
(dp1668
g62
I4
ssg63
g1662
sg56
(lp1669
S"set(['D:\\\\Dise\\xf1o Web\\\\Proyectos\\\\Parleyweb\\\\web2py\\\\applications\\\\parleyweb\\\\', 'D:\\\\Dise\\xf1o Web\\\\Proyectos\\\\Parleyweb\\\\web2py\\\\applications\\\\admin\\\\'])"
p1670
asbasbasbag49
(g65
g51
NtRp1671
(dp1672
g54
(dp1673
sg63
g1646
sg56
(lp1674
g49
(g70
g51
NtRp1675
(dp1676
g54
(dp1677
g74
g75
ssg63
g1671
sg56
(lp1678
g598
asbag49
(g70
g51
NtRp1679
(dp1680
g54
(dp1681
g81
g82
ssg63
g1671
sg56
(lp1682
S':'
asbag49
(g70
g51
NtRp1683
(dp1684
g54
(dp1685
sg63
g1671
sg56
(lp1686
g49
(g50
g51
NtRp1687
(dp1688
g54
(dp1689
g62
I4
ssg63
g1683
sg56
(lp1690
g611
asbasbasbag49
(g65
g51
NtRp1691
(dp1692
g54
(dp1693
sg63
g1646
sg56
(lp1694
g49
(g70
g51
NtRp1695
(dp1696
g54
(dp1697
g74
g75
ssg63
g1691
sg56
(lp1698
g620
asbag49
(g70
g51
NtRp1699
(dp1700
g54
(dp1701
g81
g82
ssg63
g1691
sg56
(lp1702
S':'
asbag49
(g70
g51
NtRp1703
(dp1704
g54
(dp1705
sg63
g1691
sg56
(lp1706
g49
(g50
g51
NtRp1707
(dp1708
g54
(dp1709
g62
I4
ssg63
g1703
sg56
(lp1710
g49
(g58
g51
NtRp1711
(dp1712
g54
(dp1713
g62
I3
ssg63
Nsg56
(lp1714
sbasbasbasbag49
(g65
g51
NtRp1715
(dp1716
g54
(dp1717
sg63
g1646
sg56
(lp1718
g49
(g70
g51
NtRp1719
(dp1720
g54
(dp1721
g74
g75
ssg63
g1715
sg56
(lp1722
g645
asbag49
(g70
g51
NtRp1723
(dp1724
g54
(dp1725
g81
g82
ssg63
g1715
sg56
(lp1726
S':'
asbag49
(g70
g51
NtRp1727
(dp1728
g54
(dp1729
sg63
g1715
sg56
(lp1730
g49
(g50
g51
NtRp1731
(dp1732
g54
(dp1733
g62
I4
ssg63
g1727
sg56
(lp1734
S"<Values at 0x3185238: {'verbose': False, 'ip': '127.0.0.1', 'shutdown_timeout': 5, 'taskbar': False, 'nocron': False, 'pid_filename': 'httpserver.pid', 'maxthreads': None, 'softcron': False, 'server_name': 'craxsnet-PC', 'bpython': False, 'nogui': False, 'port': 8000, 'extcron': False, 'debuglevel': 30, 'test': None, 'folder': 'D:\\\\Dise\\xf1o Web\\\\Proyectos\\\\Parleyweb\\\\web2py', 'config': '', 'import_models': False, 'winservice': '', 'shell': None, 'run': '', 'log_filename': 'httpserver.log', 'args': [''], 'socket_timeout': 5, 'ssl_ca_certificate': None, 'scheduler': None, 'profiler_filename': None, 'ssl_private_key': '', 'password': '<ask>', 'request_queue_size': 5, 'ssl_certificate': '', 'cronjob': False, 'numthreads': None, 'quiet': False, 'interfaces': None, 'minthreads': None, 'timeout': 10, 'plain': False, 'nobanner': False}>"
p1735
asbasbasbag49
(g65
g51
NtRp1736
(dp1737
g54
(dp1738
sg63
g1646
sg56
(lp1739
g49
(g70
g51
NtRp1740
(dp1741
g54
(dp1742
g74
g75
ssg63
g1736
sg56
(lp1743
g667
asbag49
(g70
g51
NtRp1744
(dp1745
g54
(dp1746
g81
g82
ssg63
g1736
sg56
(lp1747
S':'
asbag49
(g70
g51
NtRp1748
(dp1749
g54
(dp1750
sg63
g1736
sg56
(lp1751
g49
(g50
g51
NtRp1752
(dp1753
g54
(dp1754
g62
I4
ssg63
g1748
sg56
(lp1755
S'set([])'
p1756
asbasbasbag49
(g65
g51
NtRp1757
(dp1758
g54
(dp1759
sg63
g1646
sg56
(lp1760
g49
(g70
g51
NtRp1761
(dp1762
g54
(dp1763
g74
g75
ssg63
g1757
sg56
(lp1764
g689
asbag49
(g70
g51
NtRp1765
(dp1766
g54
(dp1767
g81
g82
ssg63
g1757
sg56
(lp1768
S':'
asbag49
(g70
g51
NtRp1769
(dp1770
g54
(dp1771
sg63
g1757
sg56
(lp1772
g49
(g50
g51
NtRp1773
(dp1774
g54
(dp1775
g62
I4
ssg63
g1769
sg56
(lp1776
g92
asbasbasbag49
(g65
g51
NtRp1777
(dp1778
g54
(dp1779
sg63
g1646
sg56
(lp1780
g49
(g70
g51
NtRp1781
(dp1782
g54
(dp1783
g74
g75
ssg63
g1777
sg56
(lp1784
g710
asbag49
(g70
g51
NtRp1785
(dp1786
g54
(dp1787
g81
g82
ssg63
g1777
sg56
(lp1788
S':'
asbag49
(g70
g51
NtRp1789
(dp1790
g54
(dp1791
sg63
g1777
sg56
(lp1792
g49
(g50
g51
NtRp1793
(dp1794
g54
(dp1795
g62
I4
ssg63
g1789
sg56
(lp1796
g723
asbasbasbag49
(g65
g51
NtRp1797
(dp1798
g54
(dp1799
sg63
g1646
sg56
(lp1800
g49
(g70
g51
NtRp1801
(dp1802
g54
(dp1803
g74
g75
ssg63
g1797
sg56
(lp1804
g908
asbag49
(g70
g51
NtRp1805
(dp1806
g54
(dp1807
g81
g82
ssg63
g1797
sg56
(lp1808
S':'
asbag49
(g70
g51
NtRp1809
(dp1810
g54
(dp1811
sg63
g1797
sg56
(lp1812
g49
(g50
g51
NtRp1813
(dp1814
g54
(dp1815
g62
I4
ssg63
g1809
sg56
(lp1816
g92
asbasbasbag49
(g65
g51
NtRp1817
(dp1818
g54
(dp1819
sg63
g1646
sg56
(lp1820
g49
(g70
g51
NtRp1821
(dp1822
g54
(dp1823
g74
g75
ssg63
g1817
sg56
(lp1824
g929
asbag49
(g70
g51
NtRp1825
(dp1826
g54
(dp1827
g81
g82
ssg63
g1817
sg56
(lp1828
S':'
asbag49
(g70
g51
NtRp1829
(dp1830
g54
(dp1831
sg63
g1817
sg56
(lp1832
g49
(g50
g51
NtRp1833
(dp1834
g54
(dp1835
g62
I4
ssg63
g1829
sg56
(lp1836
g92
asbasbasbag49
(g65
g51
NtRp1837
(dp1838
g54
(dp1839
sg63
g1646
sg56
(lp1840
g49
(g70
g51
NtRp1841
(dp1842
g54
(dp1843
g74
g75
ssg63
g1837
sg56
(lp1844
g1188
asbag49
(g70
g51
NtRp1845
(dp1846
g54
(dp1847
g81
g82
ssg63
g1837
sg56
(lp1848
S':'
asbag49
(g70
g51
NtRp1849
(dp1850
g54
(dp1851
sg63
g1837
sg56
(lp1852
g49
(g50
g51
NtRp1853
(dp1854
g54
(dp1855
g62
I4
ssg63
g1849
sg56
(lp1856
g1201
asbasbasbag49
(g65
g51
NtRp1857
(dp1858
g54
(dp1859
sg63
g1646
sg56
(lp1860
g49
(g70
g51
NtRp1861
(dp1862
g54
(dp1863
g74
g75
ssg63
g1857
sg56
(lp1864
g1253
asbag49
(g70
g51
NtRp1865
(dp1866
g54
(dp1867
g81
g82
ssg63
g1857
sg56
(lp1868
S':'
asbag49
(g70
g51
NtRp1869
(dp1870
g54
(dp1871
sg63
g1857
sg56
(lp1872
g49
(g50
g51
NtRp1873
(dp1874
g54
(dp1875
g62
I4
ssg63
g1869
sg56
(lp1876
g49
(g58
g51
NtRp1877
(dp1878
g54
(dp1879
g62
I3
ssg63
Nsg56
(lp1880
g49
(g65
g51
NtRp1881
(dp1882
g54
(dp1883
sg63
g1877
sg56
(lp1884
g49
(g70
g51
NtRp1885
(dp1886
g54
(dp1887
sg63
g1881
sg56
(lp1888
g49
(g50
g51
NtRp1889
(dp1890
g54
(dp1891
g62
I3
ssg63
g1885
sg56
(lp1892
S'1'
asbasbasbag49
(g65
g51
NtRp1893
(dp1894
g54
(dp1895
sg63
g1877
sg56
(lp1896
g49
(g70
g51
NtRp1897
(dp1898
g54
(dp1899
sg63
g1893
sg56
(lp1900
g49
(g50
g51
NtRp1901
(dp1902
g54
(dp1903
g62
I3
ssg63
g1897
sg56
(lp1904
S'99'
p1905
asbasbasbag49
(g65
g51
NtRp1906
(dp1907
g54
(dp1908
sg63
g1877
sg56
(lp1909
g49
(g70
g51
NtRp1910
(dp1911
g54
(dp1912
sg63
g1906
sg56
(lp1913
g49
(g50
g51
NtRp1914
(dp1915
g54
(dp1916
g62
I3
ssg63
g1910
sg56
(lp1917
S'7'
asbasbasbag49
(g65
g51
NtRp1918
(dp1919
g54
(dp1920
sg63
g1877
sg56
(lp1921
g49
(g70
g51
NtRp1922
(dp1923
g54
(dp1924
sg63
g1918
sg56
(lp1925
g49
(g50
g51
NtRp1926
(dp1927
g54
(dp1928
g62
I3
ssg63
g1922
sg56
(lp1929
S'datetime.datetime(2012, 3, 4, 22, 12, 8)'
p1930
asbasbasbag49
(g65
g51
NtRp1931
(dp1932
g54
(dp1933
sg63
g1877
sg56
(lp1934
g49
(g70
g51
NtRp1935
(dp1936
g54
(dp1937
sg63
g1931
sg56
(lp1938
g49
(g50
g51
NtRp1939
(dp1940
g54
(dp1941
g62
I3
ssg63
g1935
sg56
(lp1942
g1332
asbasbasbasbasbasbasbasbasbasbasbag49
(g65
g51
NtRp1943
(dp1944
g54
(dp1945
sg63
g59
sg56
(lp1946
g49
(g70
g51
NtRp1947
(dp1948
g54
(dp1949
g74
g75
ssg63
g1943
sg56
(lp1950
S'is_https'
p1951
asbag49
(g70
g51
NtRp1952
(dp1953
g54
(dp1954
g81
g82
ssg63
g1943
sg56
(lp1955
S':'
asbag49
(g70
g51
NtRp1956
(dp1957
g54
(dp1958
sg63
g1943
sg56
(lp1959
g49
(g50
g51
NtRp1960
(dp1961
g54
(dp1962
g62
I5
ssg63
g1956
sg56
(lp1963
g92
asbasbasbag49
(g65
g51
NtRp1964
(dp1965
g54
(dp1966
sg63
g59
sg56
(lp1967
g49
(g70
g51
NtRp1968
(dp1969
g54
(dp1970
g74
g75
ssg63
g1964
sg56
(lp1971
S'is_local'
p1972
asbag49
(g70
g51
NtRp1973
(dp1974
g54
(dp1975
g81
g82
ssg63
g1964
sg56
(lp1976
S':'
asbag49
(g70
g51
NtRp1977
(dp1978
g54
(dp1979
sg63
g1964
sg56
(lp1980
g49
(g50
g51
NtRp1981
(dp1982
g54
(dp1983
g62
I5
ssg63
g1977
sg56
(lp1984
g1441
asbasbasbag49
(g65
g51
NtRp1985
(dp1986
g54
(dp1987
sg63
g59
sg56
(lp1988
g49
(g70
g51
NtRp1989
(dp1990
g54
(dp1991
g74
g75
ssg63
g1985
sg56
(lp1992
S'is_restful'
p1993
asbag49
(g70
g51
NtRp1994
(dp1995
g54
(dp1996
g81
g82
ssg63
g1985
sg56
(lp1997
S':'
asbag49
(g70
g51
NtRp1998
(dp1999
g54
(dp2000
sg63
g1985
sg56
(lp2001
g49
(g50
g51
NtRp2002
(dp2003
g54
(dp2004
g62
I5
ssg63
g1998
sg56
(lp2005
g92
asbasbasbag49
(g65
g51
NtRp2006
(dp2007
g54
(dp2008
sg63
g59
sg56
(lp2009
g49
(g70
g51
NtRp2010
(dp2011
g54
(dp2012
g74
g75
ssg63
g2006
sg56
(lp2013
S'now'
p2014
asbag49
(g70
g51
NtRp2015
(dp2016
g54
(dp2017
g81
g82
ssg63
g2006
sg56
(lp2018
S':'
asbag49
(g70
g51
NtRp2019
(dp2020
g54
(dp2021
sg63
g2006
sg56
(lp2022
g49
(g50
g51
NtRp2023
(dp2024
g54
(dp2025
g62
I5
ssg63
g2019
sg56
(lp2026
S'datetime.datetime(2012, 3, 16, 14, 19, 5, 728000)'
p2027
asbasbasbag49
(g65
g51
NtRp2028
(dp2029
g54
(dp2030
sg63
g59
sg56
(lp2031
g49
(g70
g51
NtRp2032
(dp2033
g54
(dp2034
g74
g75
ssg63
g2028
sg56
(lp2035
S'post_vars'
p2036
asbag49
(g70
g51
NtRp2037
(dp2038
g54
(dp2039
g81
g82
ssg63
g2028
sg56
(lp2040
S':'
asbag49
(g70
g51
NtRp2041
(dp2042
g54
(dp2043
sg63
g2028
sg56
(lp2044
g49
(g50
g51
NtRp2045
(dp2046
g54
(dp2047
g62
I5
ssg63
g2041
sg56
(lp2048
g49
(g58
g51
NtRp2049
(dp2050
g54
(dp2051
g62
I4
ssg63
Nsg56
(lp2052
sbasbasbasbag49
(g65
g51
NtRp2053
(dp2054
g54
(dp2055
sg63
g59
sg56
(lp2056
g49
(g70
g51
NtRp2057
(dp2058
g54
(dp2059
g74
g75
ssg63
g2053
sg56
(lp2060
S'raw_args'
p2061
asbag49
(g70
g51
NtRp2062
(dp2063
g54
(dp2064
g81
g82
ssg63
g2053
sg56
(lp2065
S':'
asbag49
(g70
g51
NtRp2066
(dp2067
g54
(dp2068
sg63
g2053
sg56
(lp2069
g49
(g50
g51
NtRp2070
(dp2071
g54
(dp2072
g62
I5
ssg63
g2066
sg56
(lp2073
S'82'
p2074
asbasbasbag49
(g65
g51
NtRp2075
(dp2076
g54
(dp2077
sg63
g59
sg56
(lp2078
g49
(g70
g51
NtRp2079
(dp2080
g54
(dp2081
g74
g75
ssg63
g2075
sg56
(lp2082
S'url'
p2083
asbag49
(g70
g51
NtRp2084
(dp2085
g54
(dp2086
g81
g82
ssg63
g2075
sg56
(lp2087
S':'
asbag49
(g70
g51
NtRp2088
(dp2089
g54
(dp2090
sg63
g2075
sg56
(lp2091
g49
(g50
g51
NtRp2092
(dp2093
g54
(dp2094
g62
I5
ssg63
g2088
sg56
(lp2095
S'/parleyweb/default/mostrar'
p2096
asbasbasbag49
(g65
g51
NtRp2097
(dp2098
g54
(dp2099
sg63
g59
sg56
(lp2100
g49
(g70
g51
NtRp2101
(dp2102
g54
(dp2103
g74
g75
ssg63
g2097
sg56
(lp2104
S'utcnow'
p2105
asbag49
(g70
g51
NtRp2106
(dp2107
g54
(dp2108
g81
g82
ssg63
g2097
sg56
(lp2109
S':'
asbag49
(g70
g51
NtRp2110
(dp2111
g54
(dp2112
sg63
g2097
sg56
(lp2113
g49
(g50
g51
NtRp2114
(dp2115
g54
(dp2116
g62
I5
ssg63
g2110
sg56
(lp2117
S'datetime.datetime(2012, 3, 16, 13, 19, 5, 728000)'
p2118
asbasbasbag49
(g65
g51
NtRp2119
(dp2120
g54
(dp2121
sg63
g59
sg56
(lp2122
g49
(g70
g51
NtRp2123
(dp2124
g54
(dp2125
g74
g75
ssg63
g2119
sg56
(lp2126
S'uuid'
p2127
asbag49
(g70
g51
NtRp2128
(dp2129
g54
(dp2130
g81
g82
ssg63
g2119
sg56
(lp2131
S':'
asbag49
(g70
g51
NtRp2132
(dp2133
g54
(dp2134
sg63
g2119
sg56
(lp2135
g49
(g50
g51
NtRp2136
(dp2137
g54
(dp2138
g62
I5
ssg63
g2132
sg56
(lp2139
S'parleyweb/127.0.0.1.2012-03-16.14-19-05.21e99728-ead1-46cd-9a78-907cab44015a'
p2140
asbasbasbag49
(g65
g51
NtRp2141
(dp2142
g54
(dp2143
sg63
g59
sg56
(lp2144
g49
(g70
g51
NtRp2145
(dp2146
g54
(dp2147
g74
g75
ssg63
g2141
sg56
(lp2148
S'vars'
p2149
asbag49
(g70
g51
NtRp2150
(dp2151
g54
(dp2152
g81
g82
ssg63
g2141
sg56
(lp2153
S':'
asbag49
(g70
g51
NtRp2154
(dp2155
g54
(dp2156
sg63
g2141
sg56
(lp2157
g49
(g50
g51
NtRp2158
(dp2159
g54
(dp2160
g62
I5
ssg63
g2154
sg56
(lp2161
g49
(g58
g51
NtRp2162
(dp2163
g54
(dp2164
g62
I4
ssg63
Nsg56
(lp2165
sbasbasbasbag49
(g65
g51
NtRp2166
(dp2167
g54
(dp2168
sg63
g59
sg56
(lp2169
g49
(g70
g51
NtRp2170
(dp2171
g54
(dp2172
g74
g75
ssg63
g2166
sg56
(lp2173
S'wsgi'
p2174
asbag49
(g70
g51
NtRp2175
(dp2176
g54
(dp2177
g81
g82
ssg63
g2166
sg56
(lp2178
S':'
asbag49
(g70
g51
NtRp2179
(dp2180
g54
(dp2181
sg63
g2166
sg56
(lp2182
g49
(g50
g51
NtRp2183
(dp2184
g54
(dp2185
g62
I5
ssg63
g2179
sg56
(lp2186
g49
(g58
g51
NtRp2187
(dp2188
g54
(dp2189
g62
I4
ssg63
Nsg56
(lp2190
g49
(g65
g51
NtRp2191
(dp2192
g54
(dp2193
sg63
g2187
sg56
(lp2194
g49
(g70
g51
NtRp2195
(dp2196
g54
(dp2197
g74
g75
ssg63
g2191
sg56
(lp2198
S'environ'
p2199
asbag49
(g70
g51
NtRp2200
(dp2201
g54
(dp2202
g81
g82
ssg63
g2191
sg56
(lp2203
S':'
asbag49
(g70
g51
NtRp2204
(dp2205
g54
(dp2206
sg63
g2191
sg56
(lp2207
g49
(g50
g51
NtRp2208
(dp2209
g54
(dp2210
g62
I4
ssg63
g2204
sg56
(lp2211
g49
(g58
g51
NtRp2212
(dp2213
g54
(dp2214
g62
I3
ssg63
Nsg56
(lp2215
g49
(g65
g51
NtRp2216
(dp2217
g54
(dp2218
sg63
g2212
sg56
(lp2219
g49
(g70
g51
NtRp2220
(dp2221
g54
(dp2222
g74
g75
ssg63
g2216
sg56
(lp2223
S'HTTP_ACCEPT'
p2224
asbag49
(g70
g51
NtRp2225
(dp2226
g54
(dp2227
g81
g82
ssg63
g2216
sg56
(lp2228
S':'
asbag49
(g70
g51
NtRp2229
(dp2230
g54
(dp2231
sg63
g2216
sg56
(lp2232
g49
(g50
g51
NtRp2233
(dp2234
g54
(dp2235
g62
I3
ssg63
g2229
sg56
(lp2236
g745
asbasbasbag49
(g65
g51
NtRp2237
(dp2238
g54
(dp2239
sg63
g2212
sg56
(lp2240
g49
(g70
g51
NtRp2241
(dp2242
g54
(dp2243
g74
g75
ssg63
g2237
sg56
(lp2244
S'HTTP_ACCEPT_ENCODING'
p2245
asbag49
(g70
g51
NtRp2246
(dp2247
g54
(dp2248
g81
g82
ssg63
g2237
sg56
(lp2249
S':'
asbag49
(g70
g51
NtRp2250
(dp2251
g54
(dp2252
sg63
g2237
sg56
(lp2253
g49
(g50
g51
NtRp2254
(dp2255
g54
(dp2256
g62
I3
ssg63
g2250
sg56
(lp2257
g767
asbasbasbag49
(g65
g51
NtRp2258
(dp2259
g54
(dp2260
sg63
g2212
sg56
(lp2261
g49
(g70
g51
NtRp2262
(dp2263
g54
(dp2264
g74
g75
ssg63
g2258
sg56
(lp2265
S'HTTP_ACCEPT_LANGUAGE'
p2266
asbag49
(g70
g51
NtRp2267
(dp2268
g54
(dp2269
g81
g82
ssg63
g2258
sg56
(lp2270
S':'
asbag49
(g70
g51
NtRp2271
(dp2272
g54
(dp2273
sg63
g2258
sg56
(lp2274
g49
(g50
g51
NtRp2275
(dp2276
g54
(dp2277
g62
I3
ssg63
g2271
sg56
(lp2278
g789
asbasbasbag49
(g65
g51
NtRp2279
(dp2280
g54
(dp2281
sg63
g2212
sg56
(lp2282
g49
(g70
g51
NtRp2283
(dp2284
g54
(dp2285
g74
g75
ssg63
g2279
sg56
(lp2286
S'HTTP_CACHE_CONTROL'
p2287
asbag49
(g70
g51
NtRp2288
(dp2289
g54
(dp2290
g81
g82
ssg63
g2279
sg56
(lp2291
S':'
asbag49
(g70
g51
NtRp2292
(dp2293
g54
(dp2294
sg63
g2279
sg56
(lp2295
g49
(g50
g51
NtRp2296
(dp2297
g54
(dp2298
g62
I3
ssg63
g2292
sg56
(lp2299
g811
asbasbasbag49
(g65
g51
NtRp2300
(dp2301
g54
(dp2302
sg63
g2212
sg56
(lp2303
g49
(g70
g51
NtRp2304
(dp2305
g54
(dp2306
g74
g75
ssg63
g2300
sg56
(lp2307
S'HTTP_CONNECTION'
p2308
asbag49
(g70
g51
NtRp2309
(dp2310
g54
(dp2311
g81
g82
ssg63
g2300
sg56
(lp2312
S':'
asbag49
(g70
g51
NtRp2313
(dp2314
g54
(dp2315
sg63
g2300
sg56
(lp2316
g49
(g50
g51
NtRp2317
(dp2318
g54
(dp2319
g62
I3
ssg63
g2313
sg56
(lp2320
g833
asbasbasbag49
(g65
g51
NtRp2321
(dp2322
g54
(dp2323
sg63
g2212
sg56
(lp2324
g49
(g70
g51
NtRp2325
(dp2326
g54
(dp2327
g74
g75
ssg63
g2321
sg56
(lp2328
S'HTTP_COOKIE'
p2329
asbag49
(g70
g51
NtRp2330
(dp2331
g54
(dp2332
g81
g82
ssg63
g2321
sg56
(lp2333
S':'
asbag49
(g70
g51
NtRp2334
(dp2335
g54
(dp2336
sg63
g2321
sg56
(lp2337
g49
(g50
g51
NtRp2338
(dp2339
g54
(dp2340
g62
I3
ssg63
g2334
sg56
(lp2341
g855
asbasbasbag49
(g65
g51
NtRp2342
(dp2343
g54
(dp2344
sg63
g2212
sg56
(lp2345
g49
(g70
g51
NtRp2346
(dp2347
g54
(dp2348
g74
g75
ssg63
g2342
sg56
(lp2349
S'HTTP_HOST'
p2350
asbag49
(g70
g51
NtRp2351
(dp2352
g54
(dp2353
g81
g82
ssg63
g2342
sg56
(lp2354
S':'
asbag49
(g70
g51
NtRp2355
(dp2356
g54
(dp2357
sg63
g2342
sg56
(lp2358
g49
(g50
g51
NtRp2359
(dp2360
g54
(dp2361
g62
I3
ssg63
g2355
sg56
(lp2362
g877
asbasbasbag49
(g65
g51
NtRp2363
(dp2364
g54
(dp2365
sg63
g2212
sg56
(lp2366
g49
(g70
g51
NtRp2367
(dp2368
g54
(dp2369
g74
g75
ssg63
g2363
sg56
(lp2370
S'HTTP_USER_AGENT'
p2371
asbag49
(g70
g51
NtRp2372
(dp2373
g54
(dp2374
g81
g82
ssg63
g2363
sg56
(lp2375
S':'
asbag49
(g70
g51
NtRp2376
(dp2377
g54
(dp2378
sg63
g2363
sg56
(lp2379
g49
(g50
g51
NtRp2380
(dp2381
g54
(dp2382
g62
I3
ssg63
g2376
sg56
(lp2383
g899
asbasbasbag49
(g65
g51
NtRp2384
(dp2385
g54
(dp2386
sg63
g2212
sg56
(lp2387
g49
(g70
g51
NtRp2388
(dp2389
g54
(dp2390
g74
g75
ssg63
g2384
sg56
(lp2391
S'PATH_INFO'
p2392
asbag49
(g70
g51
NtRp2393
(dp2394
g54
(dp2395
g81
g82
ssg63
g2384
sg56
(lp2396
S':'
asbag49
(g70
g51
NtRp2397
(dp2398
g54
(dp2399
sg63
g2384
sg56
(lp2400
g49
(g50
g51
NtRp2401
(dp2402
g54
(dp2403
g62
I3
ssg63
g2397
sg56
(lp2404
g963
asbasbasbag49
(g65
g51
NtRp2405
(dp2406
g54
(dp2407
sg63
g2212
sg56
(lp2408
g49
(g70
g51
NtRp2409
(dp2410
g54
(dp2411
g74
g75
ssg63
g2405
sg56
(lp2412
S'QUERY_STRING'
p2413
asbag49
(g70
g51
NtRp2414
(dp2415
g54
(dp2416
g81
g82
ssg63
g2405
sg56
(lp2417
S':'
asbag49
(g70
g51
NtRp2418
(dp2419
g54
(dp2420
sg63
g2405
sg56
(lp2421
g49
(g50
g51
NtRp2422
(dp2423
g54
(dp2424
g62
I3
ssg63
g2418
sg56
(lp2425
S''
asbasbasbag49
(g65
g51
NtRp2426
(dp2427
g54
(dp2428
sg63
g2212
sg56
(lp2429
g49
(g70
g51
NtRp2430
(dp2431
g54
(dp2432
g74
g75
ssg63
g2426
sg56
(lp2433
S'REMOTE_ADDR'
p2434
asbag49
(g70
g51
NtRp2435
(dp2436
g54
(dp2437
g81
g82
ssg63
g2426
sg56
(lp2438
S':'
asbag49
(g70
g51
NtRp2439
(dp2440
g54
(dp2441
sg63
g2426
sg56
(lp2442
g49
(g50
g51
NtRp2443
(dp2444
g54
(dp2445
g62
I3
ssg63
g2439
sg56
(lp2446
g158
asbasbasbag49
(g65
g51
NtRp2447
(dp2448
g54
(dp2449
sg63
g2212
sg56
(lp2450
g49
(g70
g51
NtRp2451
(dp2452
g54
(dp2453
g74
g75
ssg63
g2447
sg56
(lp2454
S'REMOTE_PORT'
p2455
asbag49
(g70
g51
NtRp2456
(dp2457
g54
(dp2458
g81
g82
ssg63
g2447
sg56
(lp2459
S':'
asbag49
(g70
g51
NtRp2460
(dp2461
g54
(dp2462
sg63
g2447
sg56
(lp2463
g49
(g50
g51
NtRp2464
(dp2465
g54
(dp2466
g62
I3
ssg63
g2460
sg56
(lp2467
g1027
asbasbasbag49
(g65
g51
NtRp2468
(dp2469
g54
(dp2470
sg63
g2212
sg56
(lp2471
g49
(g70
g51
NtRp2472
(dp2473
g54
(dp2474
g74
g75
ssg63
g2468
sg56
(lp2475
S'REQUEST_METHOD'
p2476
asbag49
(g70
g51
NtRp2477
(dp2478
g54
(dp2479
g81
g82
ssg63
g2468
sg56
(lp2480
S':'
asbag49
(g70
g51
NtRp2481
(dp2482
g54
(dp2483
sg63
g2468
sg56
(lp2484
g49
(g50
g51
NtRp2485
(dp2486
g54
(dp2487
g62
I3
ssg63
g2481
sg56
(lp2488
g1049
asbasbasbag49
(g65
g51
NtRp2489
(dp2490
g54
(dp2491
sg63
g2212
sg56
(lp2492
g49
(g70
g51
NtRp2493
(dp2494
g54
(dp2495
g74
g75
ssg63
g2489
sg56
(lp2496
S'REQUEST_URI'
p2497
asbag49
(g70
g51
NtRp2498
(dp2499
g54
(dp2500
g81
g82
ssg63
g2489
sg56
(lp2501
S':'
asbag49
(g70
g51
NtRp2502
(dp2503
g54
(dp2504
sg63
g2489
sg56
(lp2505
g49
(g50
g51
NtRp2506
(dp2507
g54
(dp2508
g62
I3
ssg63
g2502
sg56
(lp2509
g963
asbasbasbag49
(g65
g51
NtRp2510
(dp2511
g54
(dp2512
sg63
g2212
sg56
(lp2513
g49
(g70
g51
NtRp2514
(dp2515
g54
(dp2516
g74
g75
ssg63
g2510
sg56
(lp2517
S'SCRIPT_NAME'
p2518
asbag49
(g70
g51
NtRp2519
(dp2520
g54
(dp2521
g81
g82
ssg63
g2510
sg56
(lp2522
S':'
asbag49
(g70
g51
NtRp2523
(dp2524
g54
(dp2525
sg63
g2510
sg56
(lp2526
g49
(g50
g51
NtRp2527
(dp2528
g54
(dp2529
g62
I3
ssg63
g2523
sg56
(lp2530
S''
asbasbasbag49
(g65
g51
NtRp2531
(dp2532
g54
(dp2533
sg63
g2212
sg56
(lp2534
g49
(g70
g51
NtRp2535
(dp2536
g54
(dp2537
g74
g75
ssg63
g2531
sg56
(lp2538
S'SERVER_NAME'
p2539
asbag49
(g70
g51
NtRp2540
(dp2541
g54
(dp2542
g81
g82
ssg63
g2531
sg56
(lp2543
S':'
asbag49
(g70
g51
NtRp2544
(dp2545
g54
(dp2546
sg63
g2531
sg56
(lp2547
g49
(g50
g51
NtRp2548
(dp2549
g54
(dp2550
g62
I3
ssg63
g2544
sg56
(lp2551
g1113
asbasbasbag49
(g65
g51
NtRp2552
(dp2553
g54
(dp2554
sg63
g2212
sg56
(lp2555
g49
(g70
g51
NtRp2556
(dp2557
g54
(dp2558
g74
g75
ssg63
g2552
sg56
(lp2559
S'SERVER_PORT'
p2560
asbag49
(g70
g51
NtRp2561
(dp2562
g54
(dp2563
g81
g82
ssg63
g2552
sg56
(lp2564
S':'
asbag49
(g70
g51
NtRp2565
(dp2566
g54
(dp2567
sg63
g2552
sg56
(lp2568
g49
(g50
g51
NtRp2569
(dp2570
g54
(dp2571
g62
I3
ssg63
g2565
sg56
(lp2572
g1135
asbasbasbag49
(g65
g51
NtRp2573
(dp2574
g54
(dp2575
sg63
g2212
sg56
(lp2576
g49
(g70
g51
NtRp2577
(dp2578
g54
(dp2579
g74
g75
ssg63
g2573
sg56
(lp2580
S'SERVER_PROTOCOL'
p2581
asbag49
(g70
g51
NtRp2582
(dp2583
g54
(dp2584
g81
g82
ssg63
g2573
sg56
(lp2585
S':'
asbag49
(g70
g51
NtRp2586
(dp2587
g54
(dp2588
sg63
g2573
sg56
(lp2589
g49
(g50
g51
NtRp2590
(dp2591
g54
(dp2592
g62
I3
ssg63
g2586
sg56
(lp2593
g1157
asbasbasbag49
(g65
g51
NtRp2594
(dp2595
g54
(dp2596
sg63
g2212
sg56
(lp2597
g49
(g70
g51
NtRp2598
(dp2599
g54
(dp2600
g74
g75
ssg63
g2594
sg56
(lp2601
S'SERVER_SOFTWARE'
p2602
asbag49
(g70
g51
NtRp2603
(dp2604
g54
(dp2605
g81
g82
ssg63
g2594
sg56
(lp2606
S':'
asbag49
(g70
g51
NtRp2607
(dp2608
g54
(dp2609
sg63
g2594
sg56
(lp2610
g49
(g50
g51
NtRp2611
(dp2612
g54
(dp2613
g62
I3
ssg63
g2607
sg56
(lp2614
g1179
asbasbasbag49
(g65
g51
NtRp2615
(dp2616
g54
(dp2617
sg63
g2212
sg56
(lp2618
g49
(g70
g51
NtRp2619
(dp2620
g54
(dp2621
g74
g75
ssg63
g2615
sg56
(lp2622
S'WEB2PY_ORIGINAL_URI'
p2623
asbag49
(g70
g51
NtRp2624
(dp2625
g54
(dp2626
g81
g82
ssg63
g2615
sg56
(lp2627
S':'
asbag49
(g70
g51
NtRp2628
(dp2629
g54
(dp2630
sg63
g2615
sg56
(lp2631
g49
(g50
g51
NtRp2632
(dp2633
g54
(dp2634
g62
I3
ssg63
g2628
sg56
(lp2635
g1223
asbasbasbag49
(g65
g51
NtRp2636
(dp2637
g54
(dp2638
sg63
g2212
sg56
(lp2639
g49
(g70
g51
NtRp2640
(dp2641
g54
(dp2642
g74
g75
ssg63
g2636
sg56
(lp2643
S'wsgi.errors'
p2644
asbag49
(g70
g51
NtRp2645
(dp2646
g54
(dp2647
g81
g82
ssg63
g2636
sg56
(lp2648
S':'
asbag49
(g70
g51
NtRp2649
(dp2650
g54
(dp2651
sg63
g2636
sg56
(lp2652
g49
(g50
g51
NtRp2653
(dp2654
g54
(dp2655
g62
I3
ssg63
g2649
sg56
(lp2656
S"<open file '<stderr>', mode 'w' at 0x004200B0>"
p2657
asbasbasbag49
(g65
g51
NtRp2658
(dp2659
g54
(dp2660
sg63
g2212
sg56
(lp2661
g49
(g70
g51
NtRp2662
(dp2663
g54
(dp2664
g74
g75
ssg63
g2658
sg56
(lp2665
S'wsgi.file_wrapper'
p2666
asbag49
(g70
g51
NtRp2667
(dp2668
g54
(dp2669
g81
g82
ssg63
g2658
sg56
(lp2670
S':'
asbag49
(g70
g51
NtRp2671
(dp2672
g54
(dp2673
sg63
g2658
sg56
(lp2674
g49
(g50
g51
NtRp2675
(dp2676
g54
(dp2677
g62
I3
ssg63
g2671
sg56
(lp2678
S'<class wsgiref.util.FileWrapper at 0x02FC6390>'
p2679
asbasbasbag49
(g65
g51
NtRp2680
(dp2681
g54
(dp2682
sg63
g2212
sg56
(lp2683
g49
(g70
g51
NtRp2684
(dp2685
g54
(dp2686
g74
g75
ssg63
g2680
sg56
(lp2687
S'wsgi.input'
p2688
asbag49
(g70
g51
NtRp2689
(dp2690
g54
(dp2691
g81
g82
ssg63
g2680
sg56
(lp2692
S':'
asbag49
(g70
g51
NtRp2693
(dp2694
g54
(dp2695
sg63
g2680
sg56
(lp2696
g49
(g50
g51
NtRp2697
(dp2698
g54
(dp2699
g62
I3
ssg63
g2693
sg56
(lp2700
S'<cStringIO.StringO object at 0x070E08C0>'
p2701
asbasbasbag49
(g65
g51
NtRp2702
(dp2703
g54
(dp2704
sg63
g2212
sg56
(lp2705
g49
(g70
g51
NtRp2706
(dp2707
g54
(dp2708
g74
g75
ssg63
g2702
sg56
(lp2709
S'wsgi.multiprocess'
p2710
asbag49
(g70
g51
NtRp2711
(dp2712
g54
(dp2713
g81
g82
ssg63
g2702
sg56
(lp2714
S':'
asbag49
(g70
g51
NtRp2715
(dp2716
g54
(dp2717
sg63
g2702
sg56
(lp2718
g49
(g50
g51
NtRp2719
(dp2720
g54
(dp2721
g62
I3
ssg63
g2715
sg56
(lp2722
g92
asbasbasbag49
(g65
g51
NtRp2723
(dp2724
g54
(dp2725
sg63
g2212
sg56
(lp2726
g49
(g70
g51
NtRp2727
(dp2728
g54
(dp2729
g74
g75
ssg63
g2723
sg56
(lp2730
S'wsgi.multithread'
p2731
asbag49
(g70
g51
NtRp2732
(dp2733
g54
(dp2734
g81
g82
ssg63
g2723
sg56
(lp2735
S':'
asbag49
(g70
g51
NtRp2736
(dp2737
g54
(dp2738
sg63
g2723
sg56
(lp2739
g49
(g50
g51
NtRp2740
(dp2741
g54
(dp2742
g62
I3
ssg63
g2736
sg56
(lp2743
g1441
asbasbasbag49
(g65
g51
NtRp2744
(dp2745
g54
(dp2746
sg63
g2212
sg56
(lp2747
g49
(g70
g51
NtRp2748
(dp2749
g54
(dp2750
g74
g75
ssg63
g2744
sg56
(lp2751
S'wsgi.run_once'
p2752
asbag49
(g70
g51
NtRp2753
(dp2754
g54
(dp2755
g81
g82
ssg63
g2744
sg56
(lp2756
S':'
asbag49
(g70
g51
NtRp2757
(dp2758
g54
(dp2759
sg63
g2744
sg56
(lp2760
g49
(g50
g51
NtRp2761
(dp2762
g54
(dp2763
g62
I3
ssg63
g2757
sg56
(lp2764
g92
asbasbasbag49
(g65
g51
NtRp2765
(dp2766
g54
(dp2767
sg63
g2212
sg56
(lp2768
g49
(g70
g51
NtRp2769
(dp2770
g54
(dp2771
g74
g75
ssg63
g2765
sg56
(lp2772
S'wsgi.url_scheme'
p2773
asbag49
(g70
g51
NtRp2774
(dp2775
g54
(dp2776
g81
g82
ssg63
g2765
sg56
(lp2777
S':'
asbag49
(g70
g51
NtRp2778
(dp2779
g54
(dp2780
sg63
g2765
sg56
(lp2781
g49
(g50
g51
NtRp2782
(dp2783
g54
(dp2784
g62
I3
ssg63
g2778
sg56
(lp2785
g1484
asbasbasbag49
(g65
g51
NtRp2786
(dp2787
g54
(dp2788
sg63
g2212
sg56
(lp2789
g49
(g70
g51
NtRp2790
(dp2791
g54
(dp2792
g74
g75
ssg63
g2786
sg56
(lp2793
S'wsgi.version'
p2794
asbag49
(g70
g51
NtRp2795
(dp2796
g54
(dp2797
g81
g82
ssg63
g2786
sg56
(lp2798
S':'
asbag49
(g70
g51
NtRp2799
(dp2800
g54
(dp2801
sg63
g2786
sg56
(lp2802
g49
(g50
g51
NtRp2803
(dp2804
g54
(dp2805
g62
I3
ssg63
g2799
sg56
(lp2806
S'1'
asbasbasbasbasbasbasbasbasbasbasbasbasbsS'frames'
p2807
(lp2808
(dp2809
S'file'
p2810
S'D:\\Dise\xf1o Web\\Proyectos\\Parleyweb\\web2py\\gluon\\restricted.py'
p2811
sS'dump'
p2812
(dp2813
sS'lnum'
p2814
I205
sS'lines'
p2815
(dp2816
sS'call'
p2817
S'(code=\'response.write(\\\'<!DOCTYPE html>\\\\n<!-- paulirish....>\\\\n   \\\\n\\\\n \\\\n\\\\n</body>\\\\n</html>\\\\n", escape=False)\', environment={\'A\': <class \'gluon.html.A\'>, \'Auth\': <class \'gluon.tools.Auth\'>, \'B\': <class \'gluon.html.B\'>, \'BEAUTIFY\': <class \'gluon.html.BEAUTIFY\'>, \'BODY\': <class \'gluon.html.BODY\'>, \'BR\': <class \'gluon.html.BR\'>, \'BUTTON\': <class \'gluon.html.BUTTON\'>, \'CAT\': <class \'gluon.html.CAT\'>, \'CENTER\': <class \'gluon.html.CENTER\'>, \'CLEANUP\': <class \'gluon.validators.CLEANUP\'>, ...}, layer=\'D:\\\\Dise\\xf1o Web\\\\Proyectos\\\\Parleyweb\\\\web2py\\\\applications\\\\parleyweb\\\\views\\\\default/mostrar.html\')'
p2818
sS'func'
p2819
S'restricted'
p2820
sa(dp2821
g2810
S'D:\\Dise\xf1o Web\\Proyectos\\Parleyweb\\web2py\\applications\\parleyweb\\views\\default\\mostrar.html'
p2822
sg2812
(dp2823
sg2814
I108
sg2815
(dp2824
I99
S"        response.write('\\n                </a>\\n                <span>', escape=False)"
p2825
sI100
S'        response.write(palabras.palabra.capitalize())'
p2826
sI101
S'        response.write(\'</span>\\n                <span>-</span>\\n                <a href="#" class="tip" rel="tooltip" title="Plural">(\', escape=False)'
p2827
sI102
S'        response.write(palabras.plural)'
p2828
sI103
S'        response.write(\')</a>\\n                <a href="#" class="float_right tip img ocultar-tip"  rel="tooltip" title="Mostrar"><i class="icon-camera icon-white"></i></a>\\n                <a href="#" class="float_right tip img mostrar-tip" id="ocultar-tip" rel="tooltip" title="Ocultar"><i class="icon-camera icon-white"></i></a>\\n            </div>\\n            <div class="wellparley2">\\n                <div id="imagen-sustantivo" class="hide"> \\n                    \', escape=False)'
p2829
sI104
S'        if not palabras.imagen:'
p2830
sI105
S"            response.write('\\n                        <p>No hay imagen</p>\\n                    ', escape=False)"
p2831
sI106
S'        else:'
p2832
sI107
S'            response.write(\'\\n                        <img class="img-sustantivo" src="\', escape=False)'
p2833
sI108
S"            response.write(URL('download', raw_args=palabras.imagen))"
p2834
sI109
S'            response.write(\'" />\\n                    \', escape=False)'
p2835
sI110
S'            pass'
p2836
sI111
S'        response.write(\'\\n                </div>\\n                <h4 class="h4-mostrar">Ejemplos</h4>\\n                <table class="table table-striped table-bordered">\\n                    <thead>\\n                        <tr>\\n                            <th>\', escape=False)'
p2837
sI112
S"        response.write(IMG(_src=URL('static', 'images/germany.gif')))"
p2838
sI113
S"        response.write('</th>\\n                            <th>', escape=False)"
p2839
sI114
S"        response.write(IMG(_src=URL('static', 'images/spain.gif')))"
p2840
sI115
S"        response.write('</th>\\n                            <th>Fuente</th>\\n                        </tr>\\n                    </thead>\\n                    <tbody>\\n                        ', escape=False)"
p2841
sI116
S'        for registro in ejemplos(db.ejemplos.sustantivo==True).select(db.ejemplos.ALL):'
p2842
sI117
S"            response.write('\\n                        <tr>\\n                            <td>\\n                                ', escape=False)"
p2843
sI118
S'            response.write(registro.ejemplo_de)'
p2844
ssg2817
S'()'
p2845
sg2819
S'<module>'
p2846
sasS'pyver'
p2847
S'Python 2.5.4: D:\\Dise\xf1o Web\\Proyectos\\Parleyweb\\web2py\\web2py.exe'
p2848
sS'session'
p2849
g49
(g50
g51
NtRp2850
(dp2851
g54
(dp2852
sg56
(lp2853
g49
(g58
g51
NtRp2854
(dp2855
g54
(dp2856
g62
I5
ssg63
Nsg56
(lp2857
sbasbsS'etype'
p2858
S"<type 'exceptions.TypeError'>"
p2859
sS'date'
p2860
S'Fri Mar 16 14:19:05 2012'
p2861
sS'response'
p2862
g49
(g50
g51
NtRp2863
(dp2864
g54
(dp2865
sg56
(lp2866
g49
(g58
g51
NtRp2867
(dp2868
g54
(dp2869
g62
I5
ssg63
Nsg56
(lp2870
g49
(g65
g51
NtRp2871
(dp2872
g54
(dp2873
sg63
g2867
sg56
(lp2874
g49
(g70
g51
NtRp2875
(dp2876
g54
(dp2877
g74
g75
ssg63
g2871
sg56
(lp2878
g123
asbag49
(g70
g51
NtRp2879
(dp2880
g54
(dp2881
g81
g82
ssg63
g2871
sg56
(lp2882
S':'
asbag49
(g70
g51
NtRp2883
(dp2884
g54
(dp2885
sg63
g2871
sg56
(lp2886
g49
(g50
g51
NtRp2887
(dp2888
g54
(dp2889
g62
I5
ssg63
g2883
sg56
(lp2890
S'<cStringIO.StringO object at 0x06DC94E0>'
p2891
asbasbasbag49
(g65
g51
NtRp2892
(dp2893
g54
(dp2894
sg63
g2867
sg56
(lp2895
g49
(g70
g51
NtRp2896
(dp2897
g54
(dp2898
g74
g75
ssg63
g2892
sg56
(lp2899
g189
asbag49
(g70
g51
NtRp2900
(dp2901
g54
(dp2902
g81
g82
ssg63
g2892
sg56
(lp2903
S':'
asbag49
(g70
g51
NtRp2904
(dp2905
g54
(dp2906
sg63
g2892
sg56
(lp2907
g49
(g50
g51
NtRp2908
(dp2909
g54
(dp2910
g62
I5
ssg63
g2904
sg56
(lp2911
g49
(g58
g51
NtRp2912
(dp2913
g54
(dp2914
g62
I4
ssg63
Nsg56
(lp2915
g49
(g65
g51
NtRp2916
(dp2917
g54
(dp2918
sg63
g2912
sg56
(lp2919
g49
(g70
g51
NtRp2920
(dp2921
g54
(dp2922
g74
g75
ssg63
g2916
sg56
(lp2923
S'session_id_parleyweb'
p2924
asbag49
(g70
g51
NtRp2925
(dp2926
g54
(dp2927
g81
g82
ssg63
g2916
sg56
(lp2928
S':'
asbag49
(g70
g51
NtRp2929
(dp2930
g54
(dp2931
sg63
g2916
sg56
(lp2932
g49
(g50
g51
NtRp2933
(dp2934
g54
(dp2935
g62
I4
ssg63
g2929
sg56
(lp2936
g49
(g58
g51
NtRp2937
(dp2938
g54
(dp2939
g62
I3
ssg63
Nsg56
(lp2940
g49
(g65
g51
NtRp2941
(dp2942
g54
(dp2943
sg63
g2937
sg56
(lp2944
g49
(g70
g51
NtRp2945
(dp2946
g54
(dp2947
g74
g75
ssg63
g2941
sg56
(lp2948
g239
asbag49
(g70
g51
NtRp2949
(dp2950
g54
(dp2951
g81
g82
ssg63
g2941
sg56
(lp2952
S':'
asbag49
(g70
g51
NtRp2953
(dp2954
g54
(dp2955
sg63
g2941
sg56
(lp2956
g49
(g50
g51
NtRp2957
(dp2958
g54
(dp2959
g62
I3
ssg63
g2953
sg56
(lp2960
S''
asbasbasbag49
(g65
g51
NtRp2961
(dp2962
g54
(dp2963
sg63
g2937
sg56
(lp2964
g49
(g70
g51
NtRp2965
(dp2966
g54
(dp2967
g74
g75
ssg63
g2961
sg56
(lp2968
g260
asbag49
(g70
g51
NtRp2969
(dp2970
g54
(dp2971
g81
g82
ssg63
g2961
sg56
(lp2972
S':'
asbag49
(g70
g51
NtRp2973
(dp2974
g54
(dp2975
sg63
g2961
sg56
(lp2976
g49
(g50
g51
NtRp2977
(dp2978
g54
(dp2979
g62
I3
ssg63
g2973
sg56
(lp2980
S''
asbasbasbag49
(g65
g51
NtRp2981
(dp2982
g54
(dp2983
sg63
g2937
sg56
(lp2984
g49
(g70
g51
NtRp2985
(dp2986
g54
(dp2987
g74
g75
ssg63
g2981
sg56
(lp2988
g281
asbag49
(g70
g51
NtRp2989
(dp2990
g54
(dp2991
g81
g82
ssg63
g2981
sg56
(lp2992
S':'
asbag49
(g70
g51
NtRp2993
(dp2994
g54
(dp2995
sg63
g2981
sg56
(lp2996
g49
(g50
g51
NtRp2997
(dp2998
g54
(dp2999
g62
I3
ssg63
g2993
sg56
(lp3000
S''
asbasbasbag49
(g65
g51
NtRp3001
(dp3002
g54
(dp3003
sg63
g2937
sg56
(lp3004
g49
(g70
g51
NtRp3005
(dp3006
g54
(dp3007
g74
g75
ssg63
g3001
sg56
(lp3008
g302
asbag49
(g70
g51
NtRp3009
(dp3010
g54
(dp3011
g81
g82
ssg63
g3001
sg56
(lp3012
S':'
asbag49
(g70
g51
NtRp3013
(dp3014
g54
(dp3015
sg63
g3001
sg56
(lp3016
g49
(g50
g51
NtRp3017
(dp3018
g54
(dp3019
g62
I3
ssg63
g3013
sg56
(lp3020
S''
asbasbasbag49
(g65
g51
NtRp3021
(dp3022
g54
(dp3023
sg63
g2937
sg56
(lp3024
g49
(g70
g51
NtRp3025
(dp3026
g54
(dp3027
g74
g75
ssg63
g3021
sg56
(lp3028
g323
asbag49
(g70
g51
NtRp3029
(dp3030
g54
(dp3031
g81
g82
ssg63
g3021
sg56
(lp3032
S':'
asbag49
(g70
g51
NtRp3033
(dp3034
g54
(dp3035
sg63
g3021
sg56
(lp3036
g49
(g50
g51
NtRp3037
(dp3038
g54
(dp3039
g62
I3
ssg63
g3033
sg56
(lp3040
S'/'
asbasbasbag49
(g65
g51
NtRp3041
(dp3042
g54
(dp3043
sg63
g2937
sg56
(lp3044
g49
(g70
g51
NtRp3045
(dp3046
g54
(dp3047
g74
g75
ssg63
g3041
sg56
(lp3048
g344
asbag49
(g70
g51
NtRp3049
(dp3050
g54
(dp3051
g81
g82
ssg63
g3041
sg56
(lp3052
S':'
asbag49
(g70
g51
NtRp3053
(dp3054
g54
(dp3055
sg63
g3041
sg56
(lp3056
g49
(g50
g51
NtRp3057
(dp3058
g54
(dp3059
g62
I3
ssg63
g3053
sg56
(lp3060
S''
asbasbasbag49
(g65
g51
NtRp3061
(dp3062
g54
(dp3063
sg63
g2937
sg56
(lp3064
g49
(g70
g51
NtRp3065
(dp3066
g54
(dp3067
g74
g75
ssg63
g3061
sg56
(lp3068
g365
asbag49
(g70
g51
NtRp3069
(dp3070
g54
(dp3071
g81
g82
ssg63
g3061
sg56
(lp3072
S':'
asbag49
(g70
g51
NtRp3073
(dp3074
g54
(dp3075
sg63
g3061
sg56
(lp3076
g49
(g50
g51
NtRp3077
(dp3078
g54
(dp3079
g62
I3
ssg63
g3073
sg56
(lp3080
S''
asbasbasbasbasbasbasbasbasbasbasbag49
(g65
g51
NtRp3081
(dp3082
g54
(dp3083
sg63
g2867
sg56
(lp3084
g49
(g70
g51
NtRp3085
(dp3086
g54
(dp3087
g74
g75
ssg63
g3081
sg56
(lp3088
S'delimiters'
p3089
asbag49
(g70
g51
NtRp3090
(dp3091
g54
(dp3092
g81
g82
ssg63
g3081
sg56
(lp3093
S':'
asbag49
(g70
g51
NtRp3094
(dp3095
g54
(dp3096
sg63
g3081
sg56
(lp3097
g49
(g50
g51
NtRp3098
(dp3099
g54
(dp3100
g62
I5
ssg63
g3094
sg56
(lp3101
g49
(g58
g51
NtRp3102
(dp3103
g54
(dp3104
g62
I4
ssg63
Nsg56
(lp3105
g49
(g65
g51
NtRp3106
(dp3107
g54
(dp3108
sg63
g3102
sg56
(lp3109
g49
(g70
g51
NtRp3110
(dp3111
g54
(dp3112
sg63
g3106
sg56
(lp3113
g49
(g50
g51
NtRp3114
(dp3115
g54
(dp3116
g62
I4
ssg63
g3110
sg56
(lp3117
S'{{'
p3118
asbasbasbag49
(g65
g51
NtRp3119
(dp3120
g54
(dp3121
sg63
g3102
sg56
(lp3122
g49
(g70
g51
NtRp3123
(dp3124
g54
(dp3125
sg63
g3119
sg56
(lp3126
g49
(g50
g51
NtRp3127
(dp3128
g54
(dp3129
g62
I4
ssg63
g3123
sg56
(lp3130
S'}}'
p3131
asbasbasbasbasbasbasbag49
(g65
g51
NtRp3132
(dp3133
g54
(dp3134
sg63
g2867
sg56
(lp3135
g49
(g70
g51
NtRp3136
(dp3137
g54
(dp3138
g74
g75
ssg63
g3132
sg56
(lp3139
S'files'
p3140
asbag49
(g70
g51
NtRp3141
(dp3142
g54
(dp3143
g81
g82
ssg63
g3132
sg56
(lp3144
S':'
asbag49
(g70
g51
NtRp3145
(dp3146
g54
(dp3147
sg63
g3132
sg56
(lp3148
g49
(g50
g51
NtRp3149
(dp3150
g54
(dp3151
g62
I5
ssg63
g3145
sg56
(lp3152
g49
(g58
g51
NtRp3153
(dp3154
g54
(dp3155
g62
I4
ssg63
Nsg56
(lp3156
g49
(g65
g51
NtRp3157
(dp3158
g54
(dp3159
sg63
g3153
sg56
(lp3160
g49
(g70
g51
NtRp3161
(dp3162
g54
(dp3163
sg63
g3157
sg56
(lp3164
g49
(g50
g51
NtRp3165
(dp3166
g54
(dp3167
g62
I4
ssg63
g3161
sg56
(lp3168
S'/parleyweb/static/js/jquery.js'
p3169
asbasbasbag49
(g65
g51
NtRp3170
(dp3171
g54
(dp3172
sg63
g3153
sg56
(lp3173
g49
(g70
g51
NtRp3174
(dp3175
g54
(dp3176
sg63
g3170
sg56
(lp3177
g49
(g50
g51
NtRp3178
(dp3179
g54
(dp3180
g62
I4
ssg63
g3174
sg56
(lp3181
S'/parleyweb/static/css/calendar.css'
p3182
asbasbasbag49
(g65
g51
NtRp3183
(dp3184
g54
(dp3185
sg63
g3153
sg56
(lp3186
g49
(g70
g51
NtRp3187
(dp3188
g54
(dp3189
sg63
g3183
sg56
(lp3190
g49
(g50
g51
NtRp3191
(dp3192
g54
(dp3193
g62
I4
ssg63
g3187
sg56
(lp3194
S'/parleyweb/static/js/calendar.js'
p3195
asbasbasbag49
(g65
g51
NtRp3196
(dp3197
g54
(dp3198
sg63
g3153
sg56
(lp3199
g49
(g70
g51
NtRp3200
(dp3201
g54
(dp3202
sg63
g3196
sg56
(lp3203
g49
(g50
g51
NtRp3204
(dp3205
g54
(dp3206
g62
I4
ssg63
g3200
sg56
(lp3207
S'/parleyweb/static/js/web2py.js'
p3208
asbasbasbag49
(g65
g51
NtRp3209
(dp3210
g54
(dp3211
sg63
g3153
sg56
(lp3212
g49
(g70
g51
NtRp3213
(dp3214
g54
(dp3215
sg63
g3209
sg56
(lp3216
g49
(g50
g51
NtRp3217
(dp3218
g54
(dp3219
g62
I4
ssg63
g3213
sg56
(lp3220
S'/parleyweb/static/css/bootstrap.css'
p3221
asbasbasbag49
(g65
g51
NtRp3222
(dp3223
g54
(dp3224
sg63
g3153
sg56
(lp3225
g49
(g70
g51
NtRp3226
(dp3227
g54
(dp3228
sg63
g3222
sg56
(lp3229
g49
(g50
g51
NtRp3230
(dp3231
g54
(dp3232
g62
I4
ssg63
g3226
sg56
(lp3233
S'/parleyweb/static/js/bootstrap.js'
p3234
asbasbasbag49
(g65
g51
NtRp3235
(dp3236
g54
(dp3237
sg63
g3153
sg56
(lp3238
g49
(g70
g51
NtRp3239
(dp3240
g54
(dp3241
sg63
g3235
sg56
(lp3242
g49
(g50
g51
NtRp3243
(dp3244
g54
(dp3245
g62
I4
ssg63
g3239
sg56
(lp3246
S'/parleyweb/static/css/parleyweb.css'
p3247
asbasbasbag49
(g65
g51
NtRp3248
(dp3249
g54
(dp3250
sg63
g3153
sg56
(lp3251
g49
(g70
g51
NtRp3252
(dp3253
g54
(dp3254
sg63
g3248
sg56
(lp3255
g49
(g50
g51
NtRp3256
(dp3257
g54
(dp3258
g62
I4
ssg63
g3252
sg56
(lp3259
S'/parleyweb/static/css/jquery-ui-1.8.18.custom.css'
p3260
asbasbasbag49
(g65
g51
NtRp3261
(dp3262
g54
(dp3263
sg63
g3153
sg56
(lp3264
g49
(g70
g51
NtRp3265
(dp3266
g54
(dp3267
sg63
g3261
sg56
(lp3268
g49
(g50
g51
NtRp3269
(dp3270
g54
(dp3271
g62
I4
ssg63
g3265
sg56
(lp3272
S'/parleyweb/static/js/parleyweb.js'
p3273
asbasbasbag49
(g65
g51
NtRp3274
(dp3275
g54
(dp3276
sg63
g3153
sg56
(lp3277
g49
(g70
g51
NtRp3278
(dp3279
g54
(dp3280
sg63
g3274
sg56
(lp3281
g49
(g50
g51
NtRp3282
(dp3283
g54
(dp3284
g62
I4
ssg63
g3278
sg56
(lp3285
S'/parleyweb/static/js/jquery-ui-1.8.18.custom.min.js'
p3286
asbasbasbasbasbasbasbag49
(g65
g51
NtRp3287
(dp3288
g54
(dp3289
sg63
g2867
sg56
(lp3290
g49
(g70
g51
NtRp3291
(dp3292
g54
(dp3293
g74
g75
ssg63
g3287
sg56
(lp3294
S'flash'
p3295
asbag49
(g70
g51
NtRp3296
(dp3297
g54
(dp3298
g81
g82
ssg63
g3287
sg56
(lp3299
S':'
asbag49
(g70
g51
NtRp3300
(dp3301
g54
(dp3302
sg63
g3287
sg56
(lp3303
g49
(g50
g51
NtRp3304
(dp3305
g54
(dp3306
g62
I5
ssg63
g3300
sg56
(lp3307
S''
asbasbasbag49
(g65
g51
NtRp3308
(dp3309
g54
(dp3310
sg63
g2867
sg56
(lp3311
g49
(g70
g51
NtRp3312
(dp3313
g54
(dp3314
g74
g75
ssg63
g3308
sg56
(lp3315
S'generic_patterns'
p3316
asbag49
(g70
g51
NtRp3317
(dp3318
g54
(dp3319
g81
g82
ssg63
g3308
sg56
(lp3320
S':'
asbag49
(g70
g51
NtRp3321
(dp3322
g54
(dp3323
sg63
g3308
sg56
(lp3324
g49
(g50
g51
NtRp3325
(dp3326
g54
(dp3327
g62
I5
ssg63
g3321
sg56
(lp3328
g49
(g58
g51
NtRp3329
(dp3330
g54
(dp3331
g62
I4
ssg63
Nsg56
(lp3332
g49
(g65
g51
NtRp3333
(dp3334
g54
(dp3335
sg63
g3329
sg56
(lp3336
g49
(g70
g51
NtRp3337
(dp3338
g54
(dp3339
sg63
g3333
sg56
(lp3340
g49
(g50
g51
NtRp3341
(dp3342
g54
(dp3343
g62
I4
ssg63
g3337
sg56
(lp3344
S'*'
asbasbasbasbasbasbasbag49
(g65
g51
NtRp3345
(dp3346
g54
(dp3347
sg63
g2867
sg56
(lp3348
g49
(g70
g51
NtRp3349
(dp3350
g54
(dp3351
g74
g75
ssg63
g3345
sg56
(lp3352
S'headers'
p3353
asbag49
(g70
g51
NtRp3354
(dp3355
g54
(dp3356
g81
g82
ssg63
g3345
sg56
(lp3357
S':'
asbag49
(g70
g51
NtRp3358
(dp3359
g54
(dp3360
sg63
g3345
sg56
(lp3361
g49
(g50
g51
NtRp3362
(dp3363
g54
(dp3364
g62
I5
ssg63
g3358
sg56
(lp3365
g49
(g58
g51
NtRp3366
(dp3367
g54
(dp3368
g62
I4
ssg63
Nsg56
(lp3369
g49
(g65
g51
NtRp3370
(dp3371
g54
(dp3372
sg63
g3366
sg56
(lp3373
g49
(g70
g51
NtRp3374
(dp3375
g54
(dp3376
g74
g75
ssg63
g3370
sg56
(lp3377
S'Cache-Control'
p3378
asbag49
(g70
g51
NtRp3379
(dp3380
g54
(dp3381
g81
g82
ssg63
g3370
sg56
(lp3382
S':'
asbag49
(g70
g51
NtRp3383
(dp3384
g54
(dp3385
sg63
g3370
sg56
(lp3386
g49
(g50
g51
NtRp3387
(dp3388
g54
(dp3389
g62
I4
ssg63
g3383
sg56
(lp3390
S'no-store, no-cache, must-revalidate, post-check=0, pre-check=0'
p3391
asbasbasbag49
(g65
g51
NtRp3392
(dp3393
g54
(dp3394
sg63
g3366
sg56
(lp3395
g49
(g70
g51
NtRp3396
(dp3397
g54
(dp3398
g74
g75
ssg63
g3392
sg56
(lp3399
S'Content-Type'
p3400
asbag49
(g70
g51
NtRp3401
(dp3402
g54
(dp3403
g81
g82
ssg63
g3392
sg56
(lp3404
S':'
asbag49
(g70
g51
NtRp3405
(dp3406
g54
(dp3407
sg63
g3392
sg56
(lp3408
g49
(g50
g51
NtRp3409
(dp3410
g54
(dp3411
g62
I4
ssg63
g3405
sg56
(lp3412
S'text/html; charset=utf-8'
p3413
asbasbasbag49
(g65
g51
NtRp3414
(dp3415
g54
(dp3416
sg63
g3366
sg56
(lp3417
g49
(g70
g51
NtRp3418
(dp3419
g54
(dp3420
g74
g75
ssg63
g3414
sg56
(lp3421
S'Expires'
p3422
asbag49
(g70
g51
NtRp3423
(dp3424
g54
(dp3425
g81
g82
ssg63
g3414
sg56
(lp3426
S':'
asbag49
(g70
g51
NtRp3427
(dp3428
g54
(dp3429
sg63
g3414
sg56
(lp3430
g49
(g50
g51
NtRp3431
(dp3432
g54
(dp3433
g62
I4
ssg63
g3427
sg56
(lp3434
S'Fri, 16 Mar 2012 13:19:05 GMT'
p3435
asbasbasbag49
(g65
g51
NtRp3436
(dp3437
g54
(dp3438
sg63
g3366
sg56
(lp3439
g49
(g70
g51
NtRp3440
(dp3441
g54
(dp3442
g74
g75
ssg63
g3436
sg56
(lp3443
S'Pragma'
p3444
asbag49
(g70
g51
NtRp3445
(dp3446
g54
(dp3447
g81
g82
ssg63
g3436
sg56
(lp3448
S':'
asbag49
(g70
g51
NtRp3449
(dp3450
g54
(dp3451
sg63
g3436
sg56
(lp3452
g49
(g50
g51
NtRp3453
(dp3454
g54
(dp3455
g62
I4
ssg63
g3449
sg56
(lp3456
S'no-cache'
p3457
asbasbasbag49
(g65
g51
NtRp3458
(dp3459
g54
(dp3460
sg63
g3366
sg56
(lp3461
g49
(g70
g51
NtRp3462
(dp3463
g54
(dp3464
g74
g75
ssg63
g3458
sg56
(lp3465
S'X-Powered-By'
p3466
asbag49
(g70
g51
NtRp3467
(dp3468
g54
(dp3469
g81
g82
ssg63
g3458
sg56
(lp3470
S':'
asbag49
(g70
g51
NtRp3471
(dp3472
g54
(dp3473
sg63
g3458
sg56
(lp3474
g49
(g50
g51
NtRp3475
(dp3476
g54
(dp3477
g62
I4
ssg63
g3471
sg56
(lp3478
S'web2py'
p3479
asbasbasbasbasbasbasbag49
(g65
g51
NtRp3480
(dp3481
g54
(dp3482
sg63
g2867
sg56
(lp3483
g49
(g70
g51
NtRp3484
(dp3485
g54
(dp3486
g74
g75
ssg63
g3480
sg56
(lp3487
S'menu'
p3488
asbag49
(g70
g51
NtRp3489
(dp3490
g54
(dp3491
g81
g82
ssg63
g3480
sg56
(lp3492
S':'
asbag49
(g70
g51
NtRp3493
(dp3494
g54
(dp3495
sg63
g3480
sg56
(lp3496
g49
(g50
g51
NtRp3497
(dp3498
g54
(dp3499
g62
I5
ssg63
g3493
sg56
(lp3500
g49
(g58
g51
NtRp3501
(dp3502
g54
(dp3503
g62
I4
ssg63
Nsg56
(lp3504
g49
(g65
g51
NtRp3505
(dp3506
g54
(dp3507
sg63
g3501
sg56
(lp3508
g49
(g70
g51
NtRp3509
(dp3510
g54
(dp3511
sg63
g3505
sg56
(lp3512
g49
(g50
g51
NtRp3513
(dp3514
g54
(dp3515
g62
I4
ssg63
g3509
sg56
(lp3516
g49
(g58
g51
NtRp3517
(dp3518
g54
(dp3519
g62
I3
ssg63
Nsg56
(lp3520
g49
(g65
g51
NtRp3521
(dp3522
g54
(dp3523
sg63
g3517
sg56
(lp3524
g49
(g70
g51
NtRp3525
(dp3526
g54
(dp3527
sg63
g3521
sg56
(lp3528
g49
(g50
g51
NtRp3529
(dp3530
g54
(dp3531
g62
I3
ssg63
g3525
sg56
(lp3532
cgluon.languages
lazyT_unpickle
p3533
(S't\x04\x00\x00\x00Home'
tRp3534
asbasbasbag49
(g65
g51
NtRp3535
(dp3536
g54
(dp3537
sg63
g3517
sg56
(lp3538
g49
(g70
g51
NtRp3539
(dp3540
g54
(dp3541
sg63
g3535
sg56
(lp3542
g49
(g50
g51
NtRp3543
(dp3544
g54
(dp3545
g62
I3
ssg63
g3539
sg56
(lp3546
g92
asbasbasbag49
(g65
g51
NtRp3547
(dp3548
g54
(dp3549
sg63
g3517
sg56
(lp3550
g49
(g70
g51
NtRp3551
(dp3552
g54
(dp3553
sg63
g3547
sg56
(lp3554
g49
(g50
g51
NtRp3555
(dp3556
g54
(dp3557
g62
I3
ssg63
g3551
sg56
(lp3558
S'/parleyweb/default/index'
p3559
asbasbasbag49
(g65
g51
NtRp3560
(dp3561
g54
(dp3562
sg63
g3517
sg56
(lp3563
g49
(g70
g51
NtRp3564
(dp3565
g54
(dp3566
sg63
g3560
sg56
(lp3567
g49
(g50
g51
NtRp3568
(dp3569
g54
(dp3570
g62
I3
ssg63
g3564
sg56
(lp3571
g49
(g58
g51
NtRp3572
(dp3573
g54
(dp3574
g62
I2
ssg63
Nsg56
(lp3575
sbasbasbasbasbasbasbasbasbasbasbasbag49
(g65
g51
NtRp3576
(dp3577
g54
(dp3578
sg63
g2867
sg56
(lp3579
g49
(g70
g51
NtRp3580
(dp3581
g54
(dp3582
g74
g75
ssg63
g3576
sg56
(lp3583
S'meta'
p3584
asbag49
(g70
g51
NtRp3585
(dp3586
g54
(dp3587
g81
g82
ssg63
g3576
sg56
(lp3588
S':'
asbag49
(g70
g51
NtRp3589
(dp3590
g54
(dp3591
sg63
g3576
sg56
(lp3592
g49
(g50
g51
NtRp3593
(dp3594
g54
(dp3595
g62
I5
ssg63
g3589
sg56
(lp3596
g49
(g58
g51
NtRp3597
(dp3598
g54
(dp3599
g62
I4
ssg63
Nsg56
(lp3600
g49
(g65
g51
NtRp3601
(dp3602
g54
(dp3603
sg63
g3597
sg56
(lp3604
g49
(g70
g51
NtRp3605
(dp3606
g54
(dp3607
g74
g75
ssg63
g3601
sg56
(lp3608
S'author'
p3609
asbag49
(g70
g51
NtRp3610
(dp3611
g54
(dp3612
g81
g82
ssg63
g3601
sg56
(lp3613
S':'
asbag49
(g70
g51
NtRp3614
(dp3615
g54
(dp3616
sg63
g3601
sg56
(lp3617
g49
(g50
g51
NtRp3618
(dp3619
g54
(dp3620
g62
I4
ssg63
g3614
sg56
(lp3621
S'Your Name <you@example.com>'
p3622
asbasbasbag49
(g65
g51
NtRp3623
(dp3624
g54
(dp3625
sg63
g3597
sg56
(lp3626
g49
(g70
g51
NtRp3627
(dp3628
g54
(dp3629
g74
g75
ssg63
g3623
sg56
(lp3630
S'copyright'
p3631
asbag49
(g70
g51
NtRp3632
(dp3633
g54
(dp3634
g81
g82
ssg63
g3623
sg56
(lp3635
S':'
asbag49
(g70
g51
NtRp3636
(dp3637
g54
(dp3638
sg63
g3623
sg56
(lp3639
g49
(g50
g51
NtRp3640
(dp3641
g54
(dp3642
g62
I4
ssg63
g3636
sg56
(lp3643
S'Copyright 2011'
p3644
asbasbasbag49
(g65
g51
NtRp3645
(dp3646
g54
(dp3647
sg63
g3597
sg56
(lp3648
g49
(g70
g51
NtRp3649
(dp3650
g54
(dp3651
g74
g75
ssg63
g3645
sg56
(lp3652
S'description'
p3653
asbag49
(g70
g51
NtRp3654
(dp3655
g54
(dp3656
g81
g82
ssg63
g3645
sg56
(lp3657
S':'
asbag49
(g70
g51
NtRp3658
(dp3659
g54
(dp3660
sg63
g3645
sg56
(lp3661
g49
(g50
g51
NtRp3662
(dp3663
g54
(dp3664
g62
I4
ssg63
g3658
sg56
(lp3665
S'a cool new app'
p3666
asbasbasbag49
(g65
g51
NtRp3667
(dp3668
g54
(dp3669
sg63
g3597
sg56
(lp3670
g49
(g70
g51
NtRp3671
(dp3672
g54
(dp3673
g74
g75
ssg63
g3667
sg56
(lp3674
S'generator'
p3675
asbag49
(g70
g51
NtRp3676
(dp3677
g54
(dp3678
g81
g82
ssg63
g3667
sg56
(lp3679
S':'
asbag49
(g70
g51
NtRp3680
(dp3681
g54
(dp3682
sg63
g3667
sg56
(lp3683
g49
(g50
g51
NtRp3684
(dp3685
g54
(dp3686
g62
I4
ssg63
g3680
sg56
(lp3687
S'Web2py Web Framework'
p3688
asbasbasbag49
(g65
g51
NtRp3689
(dp3690
g54
(dp3691
sg63
g3597
sg56
(lp3692
g49
(g70
g51
NtRp3693
(dp3694
g54
(dp3695
g74
g75
ssg63
g3689
sg56
(lp3696
S'keywords'
p3697
asbag49
(g70
g51
NtRp3698
(dp3699
g54
(dp3700
g81
g82
ssg63
g3689
sg56
(lp3701
S':'
asbag49
(g70
g51
NtRp3702
(dp3703
g54
(dp3704
sg63
g3689
sg56
(lp3705
g49
(g50
g51
NtRp3706
(dp3707
g54
(dp3708
g62
I4
ssg63
g3702
sg56
(lp3709
S'web2py, python, framework'
p3710
asbasbasbasbasbasbasbag49
(g65
g51
NtRp3711
(dp3712
g54
(dp3713
sg63
g2867
sg56
(lp3714
g49
(g70
g51
NtRp3715
(dp3716
g54
(dp3717
g74
g75
ssg63
g3711
sg56
(lp3718
S'postprocessing'
p3719
asbag49
(g70
g51
NtRp3720
(dp3721
g54
(dp3722
g81
g82
ssg63
g3711
sg56
(lp3723
S':'
asbag49
(g70
g51
NtRp3724
(dp3725
g54
(dp3726
sg63
g3711
sg56
(lp3727
g49
(g50
g51
NtRp3728
(dp3729
g54
(dp3730
g62
I5
ssg63
g3724
sg56
(lp3731
g49
(g58
g51
NtRp3732
(dp3733
g54
(dp3734
g62
I4
ssg63
Nsg56
(lp3735
sbasbasbasbag49
(g65
g51
NtRp3736
(dp3737
g54
(dp3738
sg63
g2867
sg56
(lp3739
g49
(g70
g51
NtRp3740
(dp3741
g54
(dp3742
g74
g75
ssg63
g3736
sg56
(lp3743
S'session_file'
p3744
asbag49
(g70
g51
NtRp3745
(dp3746
g54
(dp3747
g81
g82
ssg63
g3736
sg56
(lp3748
S':'
asbag49
(g70
g51
NtRp3749
(dp3750
g54
(dp3751
sg63
g3736
sg56
(lp3752
g49
(g50
g51
NtRp3753
(dp3754
g54
(dp3755
g62
I5
ssg63
g3749
sg56
(lp3756
S"<open file 'D:\\Dise\xf1o Web\\Proyectos\\Parleyweb\\web2py\\applications\\parleyweb\\sessions\\127.0.0.1-8bc0d624-a7ac-4822-aaf0-ed4b06ce8341', mode 'rb+' at 0x066422A8>"
p3757
asbasbasbag49
(g65
g51
NtRp3758
(dp3759
g54
(dp3760
sg63
g2867
sg56
(lp3761
g49
(g70
g51
NtRp3762
(dp3763
g54
(dp3764
g74
g75
ssg63
g3758
sg56
(lp3765
S'session_filename'
p3766
asbag49
(g70
g51
NtRp3767
(dp3768
g54
(dp3769
g81
g82
ssg63
g3758
sg56
(lp3770
S':'
asbag49
(g70
g51
NtRp3771
(dp3772
g54
(dp3773
sg63
g3758
sg56
(lp3774
g49
(g50
g51
NtRp3775
(dp3776
g54
(dp3777
g62
I5
ssg63
g3771
sg56
(lp3778
S'D:\\Dise\xf1o Web\\Proyectos\\Parleyweb\\web2py\\applications\\parleyweb\\sessions\\127.0.0.1-8bc0d624-a7ac-4822-aaf0-ed4b06ce8341'
p3779
asbasbasbag49
(g65
g51
NtRp3780
(dp3781
g54
(dp3782
sg63
g2867
sg56
(lp3783
g49
(g70
g51
NtRp3784
(dp3785
g54
(dp3786
g74
g75
ssg63
g3780
sg56
(lp3787
S'session_id'
p3788
asbag49
(g70
g51
NtRp3789
(dp3790
g54
(dp3791
g81
g82
ssg63
g3780
sg56
(lp3792
S':'
asbag49
(g70
g51
NtRp3793
(dp3794
g54
(dp3795
sg63
g3780
sg56
(lp3796
g49
(g50
g51
NtRp3797
(dp3798
g54
(dp3799
g62
I5
ssg63
g3793
sg56
(lp3800
S'127.0.0.1-8bc0d624-a7ac-4822-aaf0-ed4b06ce8341'
p3801
asbasbasbag49
(g65
g51
NtRp3802
(dp3803
g54
(dp3804
sg63
g2867
sg56
(lp3805
g49
(g70
g51
NtRp3806
(dp3807
g54
(dp3808
g74
g75
ssg63
g3802
sg56
(lp3809
S'session_id_name'
p3810
asbag49
(g70
g51
NtRp3811
(dp3812
g54
(dp3813
g81
g82
ssg63
g3802
sg56
(lp3814
S':'
asbag49
(g70
g51
NtRp3815
(dp3816
g54
(dp3817
sg63
g3802
sg56
(lp3818
g49
(g50
g51
NtRp3819
(dp3820
g54
(dp3821
g62
I5
ssg63
g3815
sg56
(lp3822
g2924
asbasbasbag49
(g65
g51
NtRp3823
(dp3824
g54
(dp3825
sg63
g2867
sg56
(lp3826
g49
(g70
g51
NtRp3827
(dp3828
g54
(dp3829
g74
g75
ssg63
g3823
sg56
(lp3830
S'session_locked'
p3831
asbag49
(g70
g51
NtRp3832
(dp3833
g54
(dp3834
g81
g82
ssg63
g3823
sg56
(lp3835
S':'
asbag49
(g70
g51
NtRp3836
(dp3837
g54
(dp3838
sg63
g3823
sg56
(lp3839
g49
(g50
g51
NtRp3840
(dp3841
g54
(dp3842
g62
I5
ssg63
g3836
sg56
(lp3843
g1441
asbasbasbag49
(g65
g51
NtRp3844
(dp3845
g54
(dp3846
sg63
g2867
sg56
(lp3847
g49
(g70
g51
NtRp3848
(dp3849
g54
(dp3850
g74
g75
ssg63
g3844
sg56
(lp3851
S'session_new'
p3852
asbag49
(g70
g51
NtRp3853
(dp3854
g54
(dp3855
g81
g82
ssg63
g3844
sg56
(lp3856
S':'
asbag49
(g70
g51
NtRp3857
(dp3858
g54
(dp3859
sg63
g3844
sg56
(lp3860
g49
(g50
g51
NtRp3861
(dp3862
g54
(dp3863
g62
I5
ssg63
g3857
sg56
(lp3864
g92
asbasbasbag49
(g65
g51
NtRp3865
(dp3866
g54
(dp3867
sg63
g2867
sg56
(lp3868
g49
(g70
g51
NtRp3869
(dp3870
g54
(dp3871
g74
g75
ssg63
g3865
sg56
(lp3872
S'status'
p3873
asbag49
(g70
g51
NtRp3874
(dp3875
g54
(dp3876
g81
g82
ssg63
g3865
sg56
(lp3877
S':'
asbag49
(g70
g51
NtRp3878
(dp3879
g54
(dp3880
sg63
g3865
sg56
(lp3881
g49
(g50
g51
NtRp3882
(dp3883
g54
(dp3884
g62
I5
ssg63
g3878
sg56
(lp3885
S'200'
p3886
asbasbasbag49
(g65
g51
NtRp3887
(dp3888
g54
(dp3889
sg63
g2867
sg56
(lp3890
g49
(g70
g51
NtRp3891
(dp3892
g54
(dp3893
g74
g75
ssg63
g3887
sg56
(lp3894
S'subtitle'
p3895
asbag49
(g70
g51
NtRp3896
(dp3897
g54
(dp3898
g81
g82
ssg63
g3887
sg56
(lp3899
S':'
asbag49
(g70
g51
NtRp3900
(dp3901
g54
(dp3902
sg63
g3887
sg56
(lp3903
g49
(g50
g51
NtRp3904
(dp3905
g54
(dp3906
g62
I5
ssg63
g3900
sg56
(lp3907
g3533
(S's\t\x00\x00\x00Adaptame!'
tRp3908
asbasbasbag49
(g65
g51
NtRp3909
(dp3910
g54
(dp3911
sg63
g2867
sg56
(lp3912
g49
(g70
g51
NtRp3913
(dp3914
g54
(dp3915
g74
g75
ssg63
g3909
sg56
(lp3916
S'title'
p3917
asbag49
(g70
g51
NtRp3918
(dp3919
g54
(dp3920
g81
g82
ssg63
g3909
sg56
(lp3921
S':'
asbag49
(g70
g51
NtRp3922
(dp3923
g54
(dp3924
sg63
g3909
sg56
(lp3925
g49
(g50
g51
NtRp3926
(dp3927
g54
(dp3928
g62
I5
ssg63
g3922
sg56
(lp3929
S'Parleyweb'
p3930
asbasbasbag49
(g65
g51
NtRp3931
(dp3932
g54
(dp3933
sg63
g2867
sg56
(lp3934
g49
(g70
g51
NtRp3935
(dp3936
g54
(dp3937
g74
g75
ssg63
g3931
sg56
(lp3938
g2127
asbag49
(g70
g51
NtRp3939
(dp3940
g54
(dp3941
g81
g82
ssg63
g3931
sg56
(lp3942
S':'
asbag49
(g70
g51
NtRp3943
(dp3944
g54
(dp3945
sg63
g3931
sg56
(lp3946
g49
(g50
g51
NtRp3947
(dp3948
g54
(dp3949
g62
I5
ssg63
g3943
sg56
(lp3950
g2140
asbasbasbag49
(g65
g51
NtRp3951
(dp3952
g54
(dp3953
sg63
g2867
sg56
(lp3954
g49
(g70
g51
NtRp3955
(dp3956
g54
(dp3957
g74
g75
ssg63
g3951
sg56
(lp3958
S'view'
p3959
asbag49
(g70
g51
NtRp3960
(dp3961
g54
(dp3962
g81
g82
ssg63
g3951
sg56
(lp3963
S':'
asbag49
(g70
g51
NtRp3964
(dp3965
g54
(dp3966
sg63
g3951
sg56
(lp3967
g49
(g50
g51
NtRp3968
(dp3969
g54
(dp3970
g62
I5
ssg63
g3964
sg56
(lp3971
S'default/mostrar.html'
p3972
asbasbasbasbasbsS'locals'
p3973
(dp3974
S'Service'
p3975
S"<class 'gluon.tools.Service'>"
p3976
sS'OBJECT'
p3977
S"<class 'gluon.html.OBJECT'>"
p3978
sS'SQLDB'
p3979
S"<class 'gluon.dal.DAL'>"
p3980
sg2849
S"<Storage {'_formkey[palabras/create]': '4fd34910...s/170]': '9a83bb11-f7fc-45af-a791-cea247aba2f4'}>"
p3981
sS'LINK'
p3982
S"<class 'gluon.html.LINK'>"
p3983
sS'BR'
p3984
S"<class 'gluon.html.BR'>"
p3985
sS'local_import'
p3986
S'<function <lambda> at 0x06648130>'
p3987
sS'OPTGROUP'
p3988
S"<class 'gluon.html.OPTGROUP'>"
p3989
sS'PRE'
p3990
S"<class 'gluon.html.PRE'>"
p3991
sS'IS_INT_IN_RANGE'
p3992
S"<class 'gluon.validators.IS_INT_IN_RANGE'>"
p3993
sS'left_sidebar_enabled'
p3994
g92
sS'IS_LOWER'
p3995
S"<class 'gluon.validators.IS_LOWER'>"
p3996
sS'IS_STRONG'
p3997
S"<class 'gluon.validators.IS_STRONG'>"
p3998
sS'cache'
p3999
S'<gluon.cache.Cache object at 0x070E0EF0>'
p4000
sS'IS_IN_DB'
p4001
S"<class 'gluon.validators.IS_IN_DB'>"
p4002
sS'TAG'
p4003
S'<gluon.html.__TAG__ object at 0x02861D50>'
p4004
sS'SQLField'
p4005
S"<class 'gluon.dal.Field'>"
p4006
sS'mail'
p4007
S'<gluon.tools.Mail object at 0x070E0090>'
p4008
sS'BODY'
p4009
S"<class 'gluon.html.BODY'>"
p4010
sS'IS_DATE_IN_RANGE'
p4011
S"<class 'gluon.validators.IS_DATE_IN_RANGE'>"
p4012
sS'TH'
p4013
S"<class 'gluon.html.TH'>"
p4014
sS'URL'
p4015
S'<function URL at 0x028C7EB0>'
p4016
sS'__file__'
p4017
S"'D:\\\\Dise\\xf1o Web\\\\Proyectos\\\\Parleyweb\\\\web2py\\\\applications\\\\parleyweb\\\\views\\\\default/mostrar.html'"
p4018
sS'db'
p4019
S"<DAL {'auth_event': <Table {'origin': <gluon.dal..._key': <gluon.dal.Field object at 0x070E0B70>}>}>"
p4020
sS'auth'
p4021
S'<gluon.tools.Auth object at 0x070E0ED0>'
p4022
sS'P'
S"<class 'gluon.html.P'>"
p4023
sS'TFOOT'
p4024
S"<class 'gluon.html.TFOOT'>"
p4025
sS'XHTML'
p4026
S"<class 'gluon.html.XHTML'>"
p4027
sS'ON'
p4028
g1441
sS'OL'
p4029
S"<class 'gluon.html.OL'>"
p4030
sS'ejemplos'
p4031
S'<gluon.dal.Set object at 0x07676A30>'
p4032
sS'TEXTAREA'
p4033
S"<class 'gluon.html.TEXTAREA'>"
p4034
sS'MENU'
p4035
S"<class 'gluon.html.MENU'>"
p4036
sS'LOAD'
p4037
S'<function LOAD at 0x02BB17B0>'
p4038
sS'CODE'
p4039
S"<class 'gluon.html.CODE'>"
p4040
sS'HTTP'
p4041
S"<class 'gluon.http.HTTP'>"
p4042
sS'HR'
p4043
S"<class 'gluon.html.HR'>"
p4044
sS'IS_DATETIME'
p4045
S"<class 'gluon.validators.IS_DATETIME'>"
p4046
sS'HEAD'
p4047
S"<class 'gluon.html.HEAD'>"
p4048
sS'LABEL'
p4049
S"<class 'gluon.html.LABEL'>"
p4050
sS'CLEANUP'
p4051
S"<class 'gluon.validators.CLEANUP'>"
p4052
sS'plugins'
p4053
S'<gluon.tools.PluginManager object at 0x067E5BB0>'
p4054
sS'SELECT'
p4055
S"<class 'gluon.html.SELECT'>"
p4056
sS'use_janrain'
p4057
S'<function use_janrain at 0x0336C8F0>'
p4058
sS'CENTER'
p4059
S"<class 'gluon.html.CENTER'>"
p4060
sS'prettydate'
p4061
S'<function prettydate at 0x03369EF0>'
p4062
sS'Crud'
p4063
S"<class 'gluon.tools.Crud'>"
p4064
sS'Auth'
p4065
S"<class 'gluon.tools.Auth'>"
p4066
sS'__builtins__'
p4067
S"{'ArithmeticError': <type 'exceptions.ArithmeticError'>, 'AssertionError': <type 'exceptions.AssertionError'>, 'AttributeError': <type 'exceptions.AttributeError'>, 'BaseException': <type 'exceptions.BaseException'>, 'DeprecationWarning': <type 'exceptions.DeprecationWarning'>, 'EOFError': <type 'exceptions.EOFError'>, 'Ellipsis': Ellipsis, 'EnvironmentError': <type 'exceptions.EnvironmentError'>, 'Exception': <type 'exceptions.Exception'>, 'False': False, ...}"
p4068
sS'HTML'
p4069
S"<class 'gluon.html.HTML'>"
p4070
sS'SQLFORM'
p4071
S"<class 'gluon.sqlhtml.SQLFORM'>"
p4072
sS'EM'
p4073
S"<class 'gluon.html.EM'>"
p4074
sS'redirect'
p4075
S'<function redirect at 0x0246BB70>'
p4076
sS'FIELDSET'
p4077
S"<class 'gluon.html.FIELDSET'>"
p4078
sS'IS_EQUAL_TO'
p4079
S"<class 'gluon.validators.IS_EQUAL_TO'>"
p4080
sS'embed64'
p4081
S'<function embed64 at 0x028D69F0>'
p4082
sS'IS_LIST_OF'
p4083
S"<class 'gluon.validators.IS_LIST_OF'>"
p4084
sS'__name__'
p4085
S"'__restricted__'"
p4086
sS'EMBED'
p4087
S"<class 'gluon.html.EMBED'>"
p4088
sS'_'
S'<function _ at 0x06A13330>'
p4089
sS'FORM'
p4090
S"<class 'gluon.html.FORM'>"
p4091
sS'H2'
p4092
S"<class 'gluon.html.H2'>"
p4093
sS'H3'
p4094
S"<class 'gluon.html.H3'>"
p4095
sS'BUTTON'
p4096
S"<class 'gluon.html.BUTTON'>"
p4097
sS'H1'
p4098
S"<class 'gluon.html.H1'>"
p4099
sS'H6'
p4100
S"<class 'gluon.html.H6'>"
p4101
sS'H4'
p4102
S"<class 'gluon.html.H4'>"
p4103
sS'H5'
p4104
S"<class 'gluon.html.H5'>"
p4105
sS'UL'
p4106
S"<class 'gluon.html.UL'>"
p4107
sS'IS_UPPER'
p4108
S"<class 'gluon.validators.IS_UPPER'>"
p4109
sS'xmlescape'
p4110
S'<function xmlescape at 0x028C7E30>'
p4111
sS'IS_TIME'
p4112
S"<class 'gluon.validators.IS_TIME'>"
p4113
sS'OPTION'
p4114
S"<class 'gluon.html.OPTION'>"
p4115
sS'TITLE'
p4116
S"<class 'gluon.html.TITLE'>"
p4117
sS'palabras'
p4118
S"<Row {'presente_1': 'grabe', 'imagen': 'palabras...nadir_glosario': False, 'verbo_irregular': True}>"
p4119
sS'CRYPT'
p4120
S"<class 'gluon.validators.CRYPT'>"
p4121
sS'IS_EMPTY_OR'
p4122
S"<class 'gluon.validators.IS_EMPTY_OR'>"
p4123
sS'MARKMIN'
p4124
S"<class 'gluon.html.MARKMIN'>"
p4125
sS'INPUT'
p4126
S"<class 'gluon.html.INPUT'>"
p4127
sS'COL'
p4128
S"<class 'gluon.html.COL'>"
p4129
sS'service'
p4130
S'<gluon.tools.Service object at 0x070E0870>'
p4131
sS'SCRIPT'
p4132
S"<class 'gluon.html.SCRIPT'>"
p4133
sS'TABLE'
p4134
S"<class 'gluon.html.TABLE'>"
p4135
sS'IS_IPV4'
p4136
S"<class 'gluon.validators.IS_IPV4'>"
p4137
sS'IS_LENGTH'
p4138
S"<class 'gluon.validators.IS_LENGTH'>"
p4139
sS'XML'
p4140
S"<class 'gluon.html.XML'>"
p4141
sS'B'
S"<class 'gluon.html.B'>"
p4142
sS'IMG'
p4143
S"<class 'gluon.html.IMG'>"
p4144
sS'SQLTABLE'
p4145
S"<class 'gluon.sqlhtml.SQLTABLE'>"
p4146
sS'IS_MATCH'
p4147
S"<class 'gluon.validators.IS_MATCH'>"
p4148
sS'IS_ALPHANUMERIC'
p4149
S"<class 'gluon.validators.IS_ALPHANUMERIC'>"
p4150
sS'SPAN'
p4151
S"<class 'gluon.html.SPAN'>"
p4152
sS'IS_SLUG'
p4153
S"<class 'gluon.validators.IS_SLUG'>"
p4154
sS'BEAUTIFY'
p4155
S"<class 'gluon.html.BEAUTIFY'>"
p4156
sS'META'
p4157
S"<class 'gluon.html.META'>"
p4158
sS'IS_DATE'
p4159
S"<class 'gluon.validators.IS_DATE'>"
p4160
sS'IS_EMAIL'
p4161
S"<class 'gluon.validators.IS_EMAIL'>"
p4162
sS'IS_NOT_EMPTY'
p4163
S"<class 'gluon.validators.IS_NOT_EMPTY'>"
p4164
sS'IS_FLOAT_IN_RANGE'
p4165
S"<class 'gluon.validators.IS_FLOAT_IN_RANGE'>"
p4166
sS'TBODY'
p4167
S"<class 'gluon.html.TBODY'>"
p4168
sS'CAT'
p4169
S"<class 'gluon.html.CAT'>"
p4170
sS'Field'
p4171
S"<class 'gluon.dal.Field'>"
p4172
sS'middle_columns'
p4173
S"'sixteen'"
p4174
sS'DIV'
p4175
S"<class 'gluon.html.DIV'>"
p4176
sS'LEGEND'
p4177
S"<class 'gluon.html.LEGEND'>"
p4178
sS'COLGROUP'
p4179
S"<class 'gluon.html.COLGROUP'>"
p4180
sS'DAL'
p4181
S"<class 'gluon.dal.DAL'>"
p4182
sS'TT'
p4183
S"<class 'gluon.html.TT'>"
p4184
sS'TR'
p4185
S"<class 'gluon.html.TR'>"
p4186
sS'LI'
p4187
S"<class 'gluon.html.LI'>"
p4188
sS'right_sidebar_enabled'
p4189
g92
sS'IFRAME'
p4190
S"<class 'gluon.html.IFRAME'>"
p4191
sS'TD'
p4192
S"<class 'gluon.html.TD'>"
p4193
sS'PluginManager'
p4194
S"<class 'gluon.tools.PluginManager'>"
p4195
sS'IS_URL'
p4196
S"<class 'gluon.validators.IS_URL'>"
p4197
sS'A'
S"<class 'gluon.html.A'>"
p4198
sS'STYLE'
p4199
S"<class 'gluon.html.STYLE'>"
p4200
sS'registro'
p4201
S"<Row {'adjetivo': False, 'sustantivo': False, 'u...lete_record': <function <lambda> at 0x06A13970>}>"
p4202
sS'IS_DATETIME_IN_RANGE'
p4203
S"<class 'gluon.validators.IS_DATETIME_IN_RANGE'>"
p4204
sS'IS_IMAGE'
p4205
S"<class 'gluon.validators.IS_IMAGE'>"
p4206
sS'I'
S"<class 'gluon.html.I'>"
p4207
sS'crud'
p4208
S'<gluon.tools.Crud object at 0x070E0130>'
p4209
sS'IS_NOT_IN_DB'
p4210
S"<class 'gluon.validators.IS_NOT_IN_DB'>"
p4211
sg2862
S"<Storage {'body': <cStringIO.StringO object at 0... at 0x06648D70>, 'view': 'default/mostrar.html'}>"
p4212
sS'THEAD'
p4213
S"<class 'gluon.html.THEAD'>"
p4214
sS'IS_NULL_OR'
p4215
S"<class 'gluon.validators.IS_EMPTY_OR'>"
p4216
sg48
S"<Storage {'body': <cStringIO.StringO object at 0..._vars': <Storage {}>, 'post_vars': <Storage {}>}>"
p4217
sS'IS_EXPR'
p4218
S"<class 'gluon.validators.IS_EXPR'>"
p4219
sS'T'
S'<gluon.languages.translator object at 0x070E0C30>'
p4220
sS'IS_IN_SET'
p4221
S"<class 'gluon.validators.IS_IN_SET'>"
p4222
sS'IS_UPLOAD_FILENAME'
p4223
S"<class 'gluon.validators.IS_UPLOAD_FILENAME'>"
p4224
sS'IS_DECIMAL_IN_RANGE'
p4225
S"<class 'gluon.validators.IS_DECIMAL_IN_RANGE'>"
p4226
sssS'traceback'
p4227
S'Traceback (most recent call last):\n  File "gluon/restricted.py", line 205, in restricted\n  File "D:\\Dise\xf1o Web\\Proyectos\\Parleyweb\\web2py\\applications\\parleyweb\\views\\default/mostrar.html", line 108, in <module>\nTypeError: URL() got an unexpected keyword argument \'raw_args\'\n'
p4228
s.