(dp1
S'output'
p2
S"<class 'sqlite3.OperationalError'> no such column: ejemplos"
p3
sS'layer'
p4
S'D:\\Dise\xf1o Web\\Proyectos\\Parleyweb\\web2py\\applications\\parleyweb\\controllers/default.py'
p5
sS'code'
p6
S'# -*- coding: utf-8 -*-\n# this file is released under public domain and you can use without limitations\n\n#########################################################################\n## This is a samples controller\n## - index is the default action of any application\n## - user is required for authentication and authorization\n## - download is for downloading files uploaded in the db (does streaming)\n## - call exposes all registered services (none by default)\n#########################################################################\n\ndef index():\n    """\n    example action using the internationalization operator T and flash\n    rendered by views/default/index.html or views/generic.html\n    """\n    return dict()\n\n\n    \n    \n\ndef user():\n    """\n    exposes:\n    http://..../[app]/default/user/login\n    http://..../[app]/default/user/logout\n    http://..../[app]/default/user/register\n    http://..../[app]/default/user/profile\n    http://..../[app]/default/user/retrieve_password\n    http://..../[app]/default/user/change_password\n    use @auth.requires_login()\n        @auth.requires_membership(\'group name\')\n        @auth.requires_permission(\'read\',\'table name\',record_id)\n    to decorate functions that need access control\n    """\n    return dict(form=auth())\n\n\ndef download():\n    """\n    allows downloading of uploaded files\n    http://..../[app]/default/download/[filename]\n    """\n    return response.download(request,db)\n\n\ndef call():\n    """\n    exposes services. for example:\n    http://..../[app]/default/call/jsonrpc\n    decorate with @services.jsonrpc the functions to expose\n    supports xml, json, xmlrpc, jsonrpc, amfrpc, rss, csv\n    """\n    return service()\n\n\n@auth.requires_signature()\ndef data():\n    """\n    http://..../[app]/default/data/tables\n    http://..../[app]/default/data/create/[table]\n    http://..../[app]/default/data/read/[table]/[id]\n    http://..../[app]/default/data/update/[table]/[id]\n    http://..../[app]/default/data/delete/[table]/[id]\n    http://..../[app]/default/data/select/[table]\n    http://..../[app]/default/data/search/[table]\n    but URLs must be signed, i.e. linked with\n      A(\'table\',_href=URL(\'data/tables\',user_signature=True))\n    or with the signed load operator\n      LOAD(\'default\',\'data.load\',args=\'tables\',ajax=True,user_signature=True)\n    """\n    return dict(form=crud())\n\ndef mostrar():\n    palabras = db((db.palabras.id==request.args(0))).select().first()\n    igualar = db((db.palabras.id==db.palabra_ejemplo.palabra)&(db.ejemplos.id==db.palabra_ejemplo.ejemplo))\n    ejemplos = igualar(db.palabras.id==request.args(0)).select(db.ejemplos)\n    \n    return dict(palabras=palabras, ejemplos=ejemplos)\n\n\n\n\n\n\n\n\n\n\n\n\n\n\n\n\n\n\n\n\n\n\n\n\n\n\n\n\n\n\n\n\nresponse._vars=response._caller(mostrar)\n'
p7
sS'snapshot'
p8
(dp9
S'exception'
p10
(dp11
S'__hash__'
p12
S"<method-wrapper '__hash__' of OperationalError object at 0x069B84B8>"
p13
sS'__module__'
p14
S"'sqlite3'"
p15
sS'__reduce_ex__'
p16
S'<built-in method __reduce_ex__ of OperationalError object at 0x069B84B8>'
p17
sS'__getslice__'
p18
S"<method-wrapper '__getslice__' of OperationalError object at 0x069B84B8>"
p19
sS'__getitem__'
p20
S"<method-wrapper '__getitem__' of OperationalError object at 0x069B84B8>"
p21
sS'__setstate__'
p22
S'<built-in method __setstate__ of OperationalError object at 0x069B84B8>'
p23
sS'__reduce__'
p24
S'<built-in method __reduce__ of OperationalError object at 0x069B84B8>'
p25
sS'__str__'
p26
S"<method-wrapper '__str__' of OperationalError object at 0x069B84B8>"
p27
sS'args'
p28
S"('no such column: ejemplos',)"
p29
sS'__getattribute__'
p30
S"<method-wrapper '__getattribute__' of OperationalError object at 0x069B84B8>"
p31
sS'__class__'
p32
S"<class 'sqlite3.OperationalError'>"
p33
sS'__delattr__'
p34
S"<method-wrapper '__delattr__' of OperationalError object at 0x069B84B8>"
p35
sS'__repr__'
p36
S"<method-wrapper '__repr__' of OperationalError object at 0x069B84B8>"
p37
sS'__setattr__'
p38
S"<method-wrapper '__setattr__' of OperationalError object at 0x069B84B8>"
p39
sS'__dict__'
p40
S'{}'
p41
sS'__weakref__'
p42
S'None'
p43
sS'__doc__'
p44
S'None'
p45
sS'__init__'
p46
S"<method-wrapper '__init__' of OperationalError object at 0x069B84B8>"
p47
sS'__new__'
p48
S'<built-in method __new__ of type object at 0x1E1CCCB0>'
p49
ssS'evalue'
p50
S'no such column: ejemplos'
p51
sS'request'
p52
ccopy_reg
_reconstructor
p53
(cgluon.html
BEAUTIFY
p54
c__builtin__
object
p55
NtRp56
(dp57
S'attributes'
p58
(dp59
sS'components'
p60
(lp61
g53
(cgluon.html
TABLE
p62
g55
NtRp63
(dp64
g58
(dp65
S'level'
p66
I5
ssS'parent'
p67
Nsg60
(lp68
g53
(cgluon.html
TR
p69
g55
NtRp70
(dp71
g58
(dp72
sg67
g63
sg60
(lp73
g53
(cgluon.html
TD
p74
g55
NtRp75
(dp76
g58
(dp77
S'_style'
p78
S'font-weight:bold;vertical-align:top'
p79
ssg67
g70
sg60
(lp80
S'ajax'
p81
asbag53
(g74
g55
NtRp82
(dp83
g58
(dp84
S'_valign'
p85
S'top'
p86
ssg67
g70
sg60
(lp87
S':'
asbag53
(g74
g55
NtRp88
(dp89
g58
(dp90
sg67
g70
sg60
(lp91
g53
(g54
g55
NtRp92
(dp93
g58
(dp94
g66
I5
ssg67
g88
sg60
(lp95
S'False'
p96
asbasbasbag53
(g69
g55
NtRp97
(dp98
g58
(dp99
sg67
g63
sg60
(lp100
g53
(g74
g55
NtRp101
(dp102
g58
(dp103
g78
g79
ssg67
g97
sg60
(lp104
S'application'
p105
asbag53
(g74
g55
NtRp106
(dp107
g58
(dp108
g85
g86
ssg67
g97
sg60
(lp109
S':'
asbag53
(g74
g55
NtRp110
(dp111
g58
(dp112
sg67
g97
sg60
(lp113
g53
(g54
g55
NtRp114
(dp115
g58
(dp116
g66
I5
ssg67
g110
sg60
(lp117
S'parleyweb'
p118
asbasbasbag53
(g69
g55
NtRp119
(dp120
g58
(dp121
sg67
g63
sg60
(lp122
g53
(g74
g55
NtRp123
(dp124
g58
(dp125
g78
g79
ssg67
g119
sg60
(lp126
g28
asbag53
(g74
g55
NtRp127
(dp128
g58
(dp129
g85
g86
ssg67
g119
sg60
(lp130
S':'
asbag53
(g74
g55
NtRp131
(dp132
g58
(dp133
sg67
g119
sg60
(lp134
g53
(g54
g55
NtRp135
(dp136
g58
(dp137
g66
I5
ssg67
g131
sg60
(lp138
g53
(g62
g55
NtRp139
(dp140
g58
(dp141
g66
I4
ssg67
Nsg60
(lp142
g53
(g69
g55
NtRp143
(dp144
g58
(dp145
sg67
g139
sg60
(lp146
g53
(g74
g55
NtRp147
(dp148
g58
(dp149
sg67
g143
sg60
(lp150
g53
(g54
g55
NtRp151
(dp152
g58
(dp153
g66
I4
ssg67
g147
sg60
(lp154
S'82'
p155
asbasbasbasbasbasbasbag53
(g69
g55
NtRp156
(dp157
g58
(dp158
sg67
g63
sg60
(lp159
g53
(g74
g55
NtRp160
(dp161
g58
(dp162
g78
g79
ssg67
g156
sg60
(lp163
S'body'
p164
asbag53
(g74
g55
NtRp165
(dp166
g58
(dp167
g85
g86
ssg67
g156
sg60
(lp168
S':'
asbag53
(g74
g55
NtRp169
(dp170
g58
(dp171
sg67
g156
sg60
(lp172
g53
(g54
g55
NtRp173
(dp174
g58
(dp175
g66
I5
ssg67
g169
sg60
(lp176
S'<cStringIO.StringO object at 0x069A32A0>'
p177
asbasbasbag53
(g69
g55
NtRp178
(dp179
g58
(dp180
sg67
g63
sg60
(lp181
g53
(g74
g55
NtRp182
(dp183
g58
(dp184
g78
g79
ssg67
g178
sg60
(lp185
S'client'
p186
asbag53
(g74
g55
NtRp187
(dp188
g58
(dp189
g85
g86
ssg67
g178
sg60
(lp190
S':'
asbag53
(g74
g55
NtRp191
(dp192
g58
(dp193
sg67
g178
sg60
(lp194
g53
(g54
g55
NtRp195
(dp196
g58
(dp197
g66
I5
ssg67
g191
sg60
(lp198
S'127.0.0.1'
p199
asbasbasbag53
(g69
g55
NtRp200
(dp201
g58
(dp202
sg67
g63
sg60
(lp203
g53
(g74
g55
NtRp204
(dp205
g58
(dp206
g78
g79
ssg67
g200
sg60
(lp207
S'controller'
p208
asbag53
(g74
g55
NtRp209
(dp210
g58
(dp211
g85
g86
ssg67
g200
sg60
(lp212
S':'
asbag53
(g74
g55
NtRp213
(dp214
g58
(dp215
sg67
g200
sg60
(lp216
g53
(g54
g55
NtRp217
(dp218
g58
(dp219
g66
I5
ssg67
g213
sg60
(lp220
S'default'
p221
asbasbasbag53
(g69
g55
NtRp222
(dp223
g58
(dp224
sg67
g63
sg60
(lp225
g53
(g74
g55
NtRp226
(dp227
g58
(dp228
g78
g79
ssg67
g222
sg60
(lp229
S'cookies'
p230
asbag53
(g74
g55
NtRp231
(dp232
g58
(dp233
g85
g86
ssg67
g222
sg60
(lp234
S':'
asbag53
(g74
g55
NtRp235
(dp236
g58
(dp237
sg67
g222
sg60
(lp238
g53
(g54
g55
NtRp239
(dp240
g58
(dp241
g66
I5
ssg67
g235
sg60
(lp242
g53
(g62
g55
NtRp243
(dp244
g58
(dp245
g66
I4
ssg67
Nsg60
(lp246
g53
(g69
g55
NtRp247
(dp248
g58
(dp249
sg67
g243
sg60
(lp250
g53
(g74
g55
NtRp251
(dp252
g58
(dp253
g78
g79
ssg67
g247
sg60
(lp254
S'session_id_admin'
p255
asbag53
(g74
g55
NtRp256
(dp257
g58
(dp258
g85
g86
ssg67
g247
sg60
(lp259
S':'
asbag53
(g74
g55
NtRp260
(dp261
g58
(dp262
sg67
g247
sg60
(lp263
g53
(g54
g55
NtRp264
(dp265
g58
(dp266
g66
I4
ssg67
g260
sg60
(lp267
g53
(g62
g55
NtRp268
(dp269
g58
(dp270
g66
I3
ssg67
Nsg60
(lp271
g53
(g69
g55
NtRp272
(dp273
g58
(dp274
sg67
g268
sg60
(lp275
g53
(g74
g55
NtRp276
(dp277
g58
(dp278
g78
g79
ssg67
g272
sg60
(lp279
S'comment'
p280
asbag53
(g74
g55
NtRp281
(dp282
g58
(dp283
g85
g86
ssg67
g272
sg60
(lp284
S':'
asbag53
(g74
g55
NtRp285
(dp286
g58
(dp287
sg67
g272
sg60
(lp288
g53
(g54
g55
NtRp289
(dp290
g58
(dp291
g66
I3
ssg67
g285
sg60
(lp292
S''
asbasbasbag53
(g69
g55
NtRp293
(dp294
g58
(dp295
sg67
g268
sg60
(lp296
g53
(g74
g55
NtRp297
(dp298
g58
(dp299
g78
g79
ssg67
g293
sg60
(lp300
S'domain'
p301
asbag53
(g74
g55
NtRp302
(dp303
g58
(dp304
g85
g86
ssg67
g293
sg60
(lp305
S':'
asbag53
(g74
g55
NtRp306
(dp307
g58
(dp308
sg67
g293
sg60
(lp309
g53
(g54
g55
NtRp310
(dp311
g58
(dp312
g66
I3
ssg67
g306
sg60
(lp313
S''
asbasbasbag53
(g69
g55
NtRp314
(dp315
g58
(dp316
sg67
g268
sg60
(lp317
g53
(g74
g55
NtRp318
(dp319
g58
(dp320
g78
g79
ssg67
g314
sg60
(lp321
S'expires'
p322
asbag53
(g74
g55
NtRp323
(dp324
g58
(dp325
g85
g86
ssg67
g314
sg60
(lp326
S':'
asbag53
(g74
g55
NtRp327
(dp328
g58
(dp329
sg67
g314
sg60
(lp330
g53
(g54
g55
NtRp331
(dp332
g58
(dp333
g66
I3
ssg67
g327
sg60
(lp334
S''
asbasbasbag53
(g69
g55
NtRp335
(dp336
g58
(dp337
sg67
g268
sg60
(lp338
g53
(g74
g55
NtRp339
(dp340
g58
(dp341
g78
g79
ssg67
g335
sg60
(lp342
S'max-age'
p343
asbag53
(g74
g55
NtRp344
(dp345
g58
(dp346
g85
g86
ssg67
g335
sg60
(lp347
S':'
asbag53
(g74
g55
NtRp348
(dp349
g58
(dp350
sg67
g335
sg60
(lp351
g53
(g54
g55
NtRp352
(dp353
g58
(dp354
g66
I3
ssg67
g348
sg60
(lp355
S''
asbasbasbag53
(g69
g55
NtRp356
(dp357
g58
(dp358
sg67
g268
sg60
(lp359
g53
(g74
g55
NtRp360
(dp361
g58
(dp362
g78
g79
ssg67
g356
sg60
(lp363
S'path'
p364
asbag53
(g74
g55
NtRp365
(dp366
g58
(dp367
g85
g86
ssg67
g356
sg60
(lp368
S':'
asbag53
(g74
g55
NtRp369
(dp370
g58
(dp371
sg67
g356
sg60
(lp372
g53
(g54
g55
NtRp373
(dp374
g58
(dp375
g66
I3
ssg67
g369
sg60
(lp376
S''
asbasbasbag53
(g69
g55
NtRp377
(dp378
g58
(dp379
sg67
g268
sg60
(lp380
g53
(g74
g55
NtRp381
(dp382
g58
(dp383
g78
g79
ssg67
g377
sg60
(lp384
S'secure'
p385
asbag53
(g74
g55
NtRp386
(dp387
g58
(dp388
g85
g86
ssg67
g377
sg60
(lp389
S':'
asbag53
(g74
g55
NtRp390
(dp391
g58
(dp392
sg67
g377
sg60
(lp393
g53
(g54
g55
NtRp394
(dp395
g58
(dp396
g66
I3
ssg67
g390
sg60
(lp397
S''
asbasbasbag53
(g69
g55
NtRp398
(dp399
g58
(dp400
sg67
g268
sg60
(lp401
g53
(g74
g55
NtRp402
(dp403
g58
(dp404
g78
g79
ssg67
g398
sg60
(lp405
S'version'
p406
asbag53
(g74
g55
NtRp407
(dp408
g58
(dp409
g85
g86
ssg67
g398
sg60
(lp410
S':'
asbag53
(g74
g55
NtRp411
(dp412
g58
(dp413
sg67
g398
sg60
(lp414
g53
(g54
g55
NtRp415
(dp416
g58
(dp417
g66
I3
ssg67
g411
sg60
(lp418
S''
asbasbasbasbasbasbasbag53
(g69
g55
NtRp419
(dp420
g58
(dp421
sg67
g243
sg60
(lp422
g53
(g74
g55
NtRp423
(dp424
g58
(dp425
g78
g79
ssg67
g419
sg60
(lp426
S'session_id_klaas'
p427
asbag53
(g74
g55
NtRp428
(dp429
g58
(dp430
g85
g86
ssg67
g419
sg60
(lp431
S':'
asbag53
(g74
g55
NtRp432
(dp433
g58
(dp434
sg67
g419
sg60
(lp435
g53
(g54
g55
NtRp436
(dp437
g58
(dp438
g66
I4
ssg67
g432
sg60
(lp439
g53
(g62
g55
NtRp440
(dp441
g58
(dp442
g66
I3
ssg67
Nsg60
(lp443
g53
(g69
g55
NtRp444
(dp445
g58
(dp446
sg67
g440
sg60
(lp447
g53
(g74
g55
NtRp448
(dp449
g58
(dp450
g78
g79
ssg67
g444
sg60
(lp451
g280
asbag53
(g74
g55
NtRp452
(dp453
g58
(dp454
g85
g86
ssg67
g444
sg60
(lp455
S':'
asbag53
(g74
g55
NtRp456
(dp457
g58
(dp458
sg67
g444
sg60
(lp459
g53
(g54
g55
NtRp460
(dp461
g58
(dp462
g66
I3
ssg67
g456
sg60
(lp463
S''
asbasbasbag53
(g69
g55
NtRp464
(dp465
g58
(dp466
sg67
g440
sg60
(lp467
g53
(g74
g55
NtRp468
(dp469
g58
(dp470
g78
g79
ssg67
g464
sg60
(lp471
g301
asbag53
(g74
g55
NtRp472
(dp473
g58
(dp474
g85
g86
ssg67
g464
sg60
(lp475
S':'
asbag53
(g74
g55
NtRp476
(dp477
g58
(dp478
sg67
g464
sg60
(lp479
g53
(g54
g55
NtRp480
(dp481
g58
(dp482
g66
I3
ssg67
g476
sg60
(lp483
S''
asbasbasbag53
(g69
g55
NtRp484
(dp485
g58
(dp486
sg67
g440
sg60
(lp487
g53
(g74
g55
NtRp488
(dp489
g58
(dp490
g78
g79
ssg67
g484
sg60
(lp491
g322
asbag53
(g74
g55
NtRp492
(dp493
g58
(dp494
g85
g86
ssg67
g484
sg60
(lp495
S':'
asbag53
(g74
g55
NtRp496
(dp497
g58
(dp498
sg67
g484
sg60
(lp499
g53
(g54
g55
NtRp500
(dp501
g58
(dp502
g66
I3
ssg67
g496
sg60
(lp503
S''
asbasbasbag53
(g69
g55
NtRp504
(dp505
g58
(dp506
sg67
g440
sg60
(lp507
g53
(g74
g55
NtRp508
(dp509
g58
(dp510
g78
g79
ssg67
g504
sg60
(lp511
g343
asbag53
(g74
g55
NtRp512
(dp513
g58
(dp514
g85
g86
ssg67
g504
sg60
(lp515
S':'
asbag53
(g74
g55
NtRp516
(dp517
g58
(dp518
sg67
g504
sg60
(lp519
g53
(g54
g55
NtRp520
(dp521
g58
(dp522
g66
I3
ssg67
g516
sg60
(lp523
S''
asbasbasbag53
(g69
g55
NtRp524
(dp525
g58
(dp526
sg67
g440
sg60
(lp527
g53
(g74
g55
NtRp528
(dp529
g58
(dp530
g78
g79
ssg67
g524
sg60
(lp531
g364
asbag53
(g74
g55
NtRp532
(dp533
g58
(dp534
g85
g86
ssg67
g524
sg60
(lp535
S':'
asbag53
(g74
g55
NtRp536
(dp537
g58
(dp538
sg67
g524
sg60
(lp539
g53
(g54
g55
NtRp540
(dp541
g58
(dp542
g66
I3
ssg67
g536
sg60
(lp543
S''
asbasbasbag53
(g69
g55
NtRp544
(dp545
g58
(dp546
sg67
g440
sg60
(lp547
g53
(g74
g55
NtRp548
(dp549
g58
(dp550
g78
g79
ssg67
g544
sg60
(lp551
g385
asbag53
(g74
g55
NtRp552
(dp553
g58
(dp554
g85
g86
ssg67
g544
sg60
(lp555
S':'
asbag53
(g74
g55
NtRp556
(dp557
g58
(dp558
sg67
g544
sg60
(lp559
g53
(g54
g55
NtRp560
(dp561
g58
(dp562
g66
I3
ssg67
g556
sg60
(lp563
S''
asbasbasbag53
(g69
g55
NtRp564
(dp565
g58
(dp566
sg67
g440
sg60
(lp567
g53
(g74
g55
NtRp568
(dp569
g58
(dp570
g78
g79
ssg67
g564
sg60
(lp571
g406
asbag53
(g74
g55
NtRp572
(dp573
g58
(dp574
g85
g86
ssg67
g564
sg60
(lp575
S':'
asbag53
(g74
g55
NtRp576
(dp577
g58
(dp578
sg67
g564
sg60
(lp579
g53
(g54
g55
NtRp580
(dp581
g58
(dp582
g66
I3
ssg67
g576
sg60
(lp583
S''
asbasbasbasbasbasbasbag53
(g69
g55
NtRp584
(dp585
g58
(dp586
sg67
g243
sg60
(lp587
g53
(g74
g55
NtRp588
(dp589
g58
(dp590
g78
g79
ssg67
g584
sg60
(lp591
S'session_id_parleyweb'
p592
asbag53
(g74
g55
NtRp593
(dp594
g58
(dp595
g85
g86
ssg67
g584
sg60
(lp596
S':'
asbag53
(g74
g55
NtRp597
(dp598
g58
(dp599
sg67
g584
sg60
(lp600
g53
(g54
g55
NtRp601
(dp602
g58
(dp603
g66
I4
ssg67
g597
sg60
(lp604
g53
(g62
g55
NtRp605
(dp606
g58
(dp607
g66
I3
ssg67
Nsg60
(lp608
g53
(g69
g55
NtRp609
(dp610
g58
(dp611
sg67
g605
sg60
(lp612
g53
(g74
g55
NtRp613
(dp614
g58
(dp615
g78
g79
ssg67
g609
sg60
(lp616
g280
asbag53
(g74
g55
NtRp617
(dp618
g58
(dp619
g85
g86
ssg67
g609
sg60
(lp620
S':'
asbag53
(g74
g55
NtRp621
(dp622
g58
(dp623
sg67
g609
sg60
(lp624
g53
(g54
g55
NtRp625
(dp626
g58
(dp627
g66
I3
ssg67
g621
sg60
(lp628
S''
asbasbasbag53
(g69
g55
NtRp629
(dp630
g58
(dp631
sg67
g605
sg60
(lp632
g53
(g74
g55
NtRp633
(dp634
g58
(dp635
g78
g79
ssg67
g629
sg60
(lp636
g301
asbag53
(g74
g55
NtRp637
(dp638
g58
(dp639
g85
g86
ssg67
g629
sg60
(lp640
S':'
asbag53
(g74
g55
NtRp641
(dp642
g58
(dp643
sg67
g629
sg60
(lp644
g53
(g54
g55
NtRp645
(dp646
g58
(dp647
g66
I3
ssg67
g641
sg60
(lp648
S''
asbasbasbag53
(g69
g55
NtRp649
(dp650
g58
(dp651
sg67
g605
sg60
(lp652
g53
(g74
g55
NtRp653
(dp654
g58
(dp655
g78
g79
ssg67
g649
sg60
(lp656
g322
asbag53
(g74
g55
NtRp657
(dp658
g58
(dp659
g85
g86
ssg67
g649
sg60
(lp660
S':'
asbag53
(g74
g55
NtRp661
(dp662
g58
(dp663
sg67
g649
sg60
(lp664
g53
(g54
g55
NtRp665
(dp666
g58
(dp667
g66
I3
ssg67
g661
sg60
(lp668
S''
asbasbasbag53
(g69
g55
NtRp669
(dp670
g58
(dp671
sg67
g605
sg60
(lp672
g53
(g74
g55
NtRp673
(dp674
g58
(dp675
g78
g79
ssg67
g669
sg60
(lp676
g343
asbag53
(g74
g55
NtRp677
(dp678
g58
(dp679
g85
g86
ssg67
g669
sg60
(lp680
S':'
asbag53
(g74
g55
NtRp681
(dp682
g58
(dp683
sg67
g669
sg60
(lp684
g53
(g54
g55
NtRp685
(dp686
g58
(dp687
g66
I3
ssg67
g681
sg60
(lp688
S''
asbasbasbag53
(g69
g55
NtRp689
(dp690
g58
(dp691
sg67
g605
sg60
(lp692
g53
(g74
g55
NtRp693
(dp694
g58
(dp695
g78
g79
ssg67
g689
sg60
(lp696
g364
asbag53
(g74
g55
NtRp697
(dp698
g58
(dp699
g85
g86
ssg67
g689
sg60
(lp700
S':'
asbag53
(g74
g55
NtRp701
(dp702
g58
(dp703
sg67
g689
sg60
(lp704
g53
(g54
g55
NtRp705
(dp706
g58
(dp707
g66
I3
ssg67
g701
sg60
(lp708
S''
asbasbasbag53
(g69
g55
NtRp709
(dp710
g58
(dp711
sg67
g605
sg60
(lp712
g53
(g74
g55
NtRp713
(dp714
g58
(dp715
g78
g79
ssg67
g709
sg60
(lp716
g385
asbag53
(g74
g55
NtRp717
(dp718
g58
(dp719
g85
g86
ssg67
g709
sg60
(lp720
S':'
asbag53
(g74
g55
NtRp721
(dp722
g58
(dp723
sg67
g709
sg60
(lp724
g53
(g54
g55
NtRp725
(dp726
g58
(dp727
g66
I3
ssg67
g721
sg60
(lp728
S''
asbasbasbag53
(g69
g55
NtRp729
(dp730
g58
(dp731
sg67
g605
sg60
(lp732
g53
(g74
g55
NtRp733
(dp734
g58
(dp735
g78
g79
ssg67
g729
sg60
(lp736
g406
asbag53
(g74
g55
NtRp737
(dp738
g58
(dp739
g85
g86
ssg67
g729
sg60
(lp740
S':'
asbag53
(g74
g55
NtRp741
(dp742
g58
(dp743
sg67
g729
sg60
(lp744
g53
(g54
g55
NtRp745
(dp746
g58
(dp747
g66
I3
ssg67
g741
sg60
(lp748
S''
asbasbasbasbasbasbasbag53
(g69
g55
NtRp749
(dp750
g58
(dp751
sg67
g243
sg60
(lp752
g53
(g74
g55
NtRp753
(dp754
g58
(dp755
g78
g79
ssg67
g749
sg60
(lp756
S'session_id_welcome'
p757
asbag53
(g74
g55
NtRp758
(dp759
g58
(dp760
g85
g86
ssg67
g749
sg60
(lp761
S':'
asbag53
(g74
g55
NtRp762
(dp763
g58
(dp764
sg67
g749
sg60
(lp765
g53
(g54
g55
NtRp766
(dp767
g58
(dp768
g66
I4
ssg67
g762
sg60
(lp769
g53
(g62
g55
NtRp770
(dp771
g58
(dp772
g66
I3
ssg67
Nsg60
(lp773
g53
(g69
g55
NtRp774
(dp775
g58
(dp776
sg67
g770
sg60
(lp777
g53
(g74
g55
NtRp778
(dp779
g58
(dp780
g78
g79
ssg67
g774
sg60
(lp781
g280
asbag53
(g74
g55
NtRp782
(dp783
g58
(dp784
g85
g86
ssg67
g774
sg60
(lp785
S':'
asbag53
(g74
g55
NtRp786
(dp787
g58
(dp788
sg67
g774
sg60
(lp789
g53
(g54
g55
NtRp790
(dp791
g58
(dp792
g66
I3
ssg67
g786
sg60
(lp793
S''
asbasbasbag53
(g69
g55
NtRp794
(dp795
g58
(dp796
sg67
g770
sg60
(lp797
g53
(g74
g55
NtRp798
(dp799
g58
(dp800
g78
g79
ssg67
g794
sg60
(lp801
g301
asbag53
(g74
g55
NtRp802
(dp803
g58
(dp804
g85
g86
ssg67
g794
sg60
(lp805
S':'
asbag53
(g74
g55
NtRp806
(dp807
g58
(dp808
sg67
g794
sg60
(lp809
g53
(g54
g55
NtRp810
(dp811
g58
(dp812
g66
I3
ssg67
g806
sg60
(lp813
S''
asbasbasbag53
(g69
g55
NtRp814
(dp815
g58
(dp816
sg67
g770
sg60
(lp817
g53
(g74
g55
NtRp818
(dp819
g58
(dp820
g78
g79
ssg67
g814
sg60
(lp821
g322
asbag53
(g74
g55
NtRp822
(dp823
g58
(dp824
g85
g86
ssg67
g814
sg60
(lp825
S':'
asbag53
(g74
g55
NtRp826
(dp827
g58
(dp828
sg67
g814
sg60
(lp829
g53
(g54
g55
NtRp830
(dp831
g58
(dp832
g66
I3
ssg67
g826
sg60
(lp833
S''
asbasbasbag53
(g69
g55
NtRp834
(dp835
g58
(dp836
sg67
g770
sg60
(lp837
g53
(g74
g55
NtRp838
(dp839
g58
(dp840
g78
g79
ssg67
g834
sg60
(lp841
g343
asbag53
(g74
g55
NtRp842
(dp843
g58
(dp844
g85
g86
ssg67
g834
sg60
(lp845
S':'
asbag53
(g74
g55
NtRp846
(dp847
g58
(dp848
sg67
g834
sg60
(lp849
g53
(g54
g55
NtRp850
(dp851
g58
(dp852
g66
I3
ssg67
g846
sg60
(lp853
S''
asbasbasbag53
(g69
g55
NtRp854
(dp855
g58
(dp856
sg67
g770
sg60
(lp857
g53
(g74
g55
NtRp858
(dp859
g58
(dp860
g78
g79
ssg67
g854
sg60
(lp861
g364
asbag53
(g74
g55
NtRp862
(dp863
g58
(dp864
g85
g86
ssg67
g854
sg60
(lp865
S':'
asbag53
(g74
g55
NtRp866
(dp867
g58
(dp868
sg67
g854
sg60
(lp869
g53
(g54
g55
NtRp870
(dp871
g58
(dp872
g66
I3
ssg67
g866
sg60
(lp873
S''
asbasbasbag53
(g69
g55
NtRp874
(dp875
g58
(dp876
sg67
g770
sg60
(lp877
g53
(g74
g55
NtRp878
(dp879
g58
(dp880
g78
g79
ssg67
g874
sg60
(lp881
g385
asbag53
(g74
g55
NtRp882
(dp883
g58
(dp884
g85
g86
ssg67
g874
sg60
(lp885
S':'
asbag53
(g74
g55
NtRp886
(dp887
g58
(dp888
sg67
g874
sg60
(lp889
g53
(g54
g55
NtRp890
(dp891
g58
(dp892
g66
I3
ssg67
g886
sg60
(lp893
S''
asbasbasbag53
(g69
g55
NtRp894
(dp895
g58
(dp896
sg67
g770
sg60
(lp897
g53
(g74
g55
NtRp898
(dp899
g58
(dp900
g78
g79
ssg67
g894
sg60
(lp901
g406
asbag53
(g74
g55
NtRp902
(dp903
g58
(dp904
g85
g86
ssg67
g894
sg60
(lp905
S':'
asbag53
(g74
g55
NtRp906
(dp907
g58
(dp908
sg67
g894
sg60
(lp909
g53
(g54
g55
NtRp910
(dp911
g58
(dp912
g66
I3
ssg67
g906
sg60
(lp913
S''
asbasbasbasbasbasbasbasbasbasbasbag53
(g69
g55
NtRp914
(dp915
g58
(dp916
sg67
g63
sg60
(lp917
g53
(g74
g55
NtRp918
(dp919
g58
(dp920
g78
g79
ssg67
g914
sg60
(lp921
S'env'
p922
asbag53
(g74
g55
NtRp923
(dp924
g58
(dp925
g85
g86
ssg67
g914
sg60
(lp926
S':'
asbag53
(g74
g55
NtRp927
(dp928
g58
(dp929
sg67
g914
sg60
(lp930
g53
(g54
g55
NtRp931
(dp932
g58
(dp933
g66
I5
ssg67
g927
sg60
(lp934
g53
(g62
g55
NtRp935
(dp936
g58
(dp937
g66
I4
ssg67
Nsg60
(lp938
g53
(g69
g55
NtRp939
(dp940
g58
(dp941
sg67
g935
sg60
(lp942
g53
(g74
g55
NtRp943
(dp944
g58
(dp945
g78
g79
ssg67
g939
sg60
(lp946
S'app_folders'
p947
asbag53
(g74
g55
NtRp948
(dp949
g58
(dp950
g85
g86
ssg67
g939
sg60
(lp951
S':'
asbag53
(g74
g55
NtRp952
(dp953
g58
(dp954
sg67
g939
sg60
(lp955
g53
(g54
g55
NtRp956
(dp957
g58
(dp958
g66
I4
ssg67
g952
sg60
(lp959
S"set(['D:\\\\Dise\\xf1o Web\\\\Proyectos\\\\Parleyweb\\\\web2py\\\\applications\\\\parleyweb\\\\', 'D:\\\\Dise\\xf1o Web\\\\Proyectos\\\\Parleyweb\\\\web2py\\\\applications\\\\welcome\\\\', 'D:\\\\Dise\\xf1o Web\\\\Proyectos\\\\Parleyweb\\\\web2py\\\\applications\\\\admin\\\\'])"
p960
asbasbasbag53
(g69
g55
NtRp961
(dp962
g58
(dp963
sg67
g935
sg60
(lp964
g53
(g74
g55
NtRp965
(dp966
g58
(dp967
g78
g79
ssg67
g961
sg60
(lp968
S'applications_parent'
p969
asbag53
(g74
g55
NtRp970
(dp971
g58
(dp972
g85
g86
ssg67
g961
sg60
(lp973
S':'
asbag53
(g74
g55
NtRp974
(dp975
g58
(dp976
sg67
g961
sg60
(lp977
g53
(g54
g55
NtRp978
(dp979
g58
(dp980
g66
I4
ssg67
g974
sg60
(lp981
S'D:\\Dise\xf1o Web\\Proyectos\\Parleyweb\\web2py'
p982
asbasbasbag53
(g69
g55
NtRp983
(dp984
g58
(dp985
sg67
g935
sg60
(lp986
g53
(g74
g55
NtRp987
(dp988
g58
(dp989
g78
g79
ssg67
g983
sg60
(lp990
S'cmd_args'
p991
asbag53
(g74
g55
NtRp992
(dp993
g58
(dp994
g85
g86
ssg67
g983
sg60
(lp995
S':'
asbag53
(g74
g55
NtRp996
(dp997
g58
(dp998
sg67
g983
sg60
(lp999
g53
(g54
g55
NtRp1000
(dp1001
g58
(dp1002
g66
I4
ssg67
g996
sg60
(lp1003
g53
(g62
g55
NtRp1004
(dp1005
g58
(dp1006
g66
I3
ssg67
Nsg60
(lp1007
sbasbasbasbag53
(g69
g55
NtRp1008
(dp1009
g58
(dp1010
sg67
g935
sg60
(lp1011
g53
(g74
g55
NtRp1012
(dp1013
g58
(dp1014
g78
g79
ssg67
g1008
sg60
(lp1015
S'cmd_options'
p1016
asbag53
(g74
g55
NtRp1017
(dp1018
g58
(dp1019
g85
g86
ssg67
g1008
sg60
(lp1020
S':'
asbag53
(g74
g55
NtRp1021
(dp1022
g58
(dp1023
sg67
g1008
sg60
(lp1024
g53
(g54
g55
NtRp1025
(dp1026
g58
(dp1027
g66
I4
ssg67
g1021
sg60
(lp1028
S"<Values at 0x30bff30: {'verbose': False, 'ip': '127.0.0.1', 'shutdown_timeout': 5, 'taskbar': False, 'nocron': False, 'pid_filename': 'httpserver.pid', 'maxthreads': None, 'softcron': False, 'server_name': 'craxsnet-PC', 'bpython': False, 'nogui': False, 'port': 8000, 'extcron': False, 'debuglevel': 30, 'test': None, 'folder': 'D:\\\\Dise\\xf1o Web\\\\Proyectos\\\\Parleyweb\\\\web2py', 'config': '', 'import_models': False, 'winservice': '', 'shell': None, 'run': '', 'log_filename': 'httpserver.log', 'args': [''], 'socket_timeout': 5, 'ssl_ca_certificate': None, 'scheduler': None, 'profiler_filename': None, 'ssl_private_key': '', 'password': '<ask>', 'request_queue_size': 5, 'ssl_certificate': '', 'cronjob': False, 'numthreads': None, 'quiet': False, 'interfaces': None, 'minthreads': None, 'timeout': 10, 'plain': False, 'nobanner': False}>"
p1029
asbasbasbag53
(g69
g55
NtRp1030
(dp1031
g58
(dp1032
sg67
g935
sg60
(lp1033
g53
(g74
g55
NtRp1034
(dp1035
g58
(dp1036
g78
g79
ssg67
g1030
sg60
(lp1037
S'db_sessions'
p1038
asbag53
(g74
g55
NtRp1039
(dp1040
g58
(dp1041
g85
g86
ssg67
g1030
sg60
(lp1042
S':'
asbag53
(g74
g55
NtRp1043
(dp1044
g58
(dp1045
sg67
g1030
sg60
(lp1046
g53
(g54
g55
NtRp1047
(dp1048
g58
(dp1049
g66
I4
ssg67
g1043
sg60
(lp1050
S'set([])'
p1051
asbasbasbag53
(g69
g55
NtRp1052
(dp1053
g58
(dp1054
sg67
g935
sg60
(lp1055
g53
(g74
g55
NtRp1056
(dp1057
g58
(dp1058
g78
g79
ssg67
g1052
sg60
(lp1059
S'debugging'
p1060
asbag53
(g74
g55
NtRp1061
(dp1062
g58
(dp1063
g85
g86
ssg67
g1052
sg60
(lp1064
S':'
asbag53
(g74
g55
NtRp1065
(dp1066
g58
(dp1067
sg67
g1052
sg60
(lp1068
g53
(g54
g55
NtRp1069
(dp1070
g58
(dp1071
g66
I4
ssg67
g1065
sg60
(lp1072
g96
asbasbasbag53
(g69
g55
NtRp1073
(dp1074
g58
(dp1075
sg67
g935
sg60
(lp1076
g53
(g74
g55
NtRp1077
(dp1078
g58
(dp1079
g78
g79
ssg67
g1073
sg60
(lp1080
S'gluon_parent'
p1081
asbag53
(g74
g55
NtRp1082
(dp1083
g58
(dp1084
g85
g86
ssg67
g1073
sg60
(lp1085
S':'
asbag53
(g74
g55
NtRp1086
(dp1087
g58
(dp1088
sg67
g1073
sg60
(lp1089
g53
(g54
g55
NtRp1090
(dp1091
g58
(dp1092
g66
I4
ssg67
g1086
sg60
(lp1093
S'D:\\Dise\xf1o Web\\Proyectos\\Parleyweb\\web2py'
p1094
asbasbasbag53
(g69
g55
NtRp1095
(dp1096
g58
(dp1097
sg67
g935
sg60
(lp1098
g53
(g74
g55
NtRp1099
(dp1100
g58
(dp1101
g78
g79
ssg67
g1095
sg60
(lp1102
S'http_accept'
p1103
asbag53
(g74
g55
NtRp1104
(dp1105
g58
(dp1106
g85
g86
ssg67
g1095
sg60
(lp1107
S':'
asbag53
(g74
g55
NtRp1108
(dp1109
g58
(dp1110
sg67
g1095
sg60
(lp1111
g53
(g54
g55
NtRp1112
(dp1113
g58
(dp1114
g66
I4
ssg67
g1108
sg60
(lp1115
S'text/html,application/xhtml+xml,application/xml;q=0.9,*/*;q=0.8'
p1116
asbasbasbag53
(g69
g55
NtRp1117
(dp1118
g58
(dp1119
sg67
g935
sg60
(lp1120
g53
(g74
g55
NtRp1121
(dp1122
g58
(dp1123
g78
g79
ssg67
g1117
sg60
(lp1124
S'http_accept_encoding'
p1125
asbag53
(g74
g55
NtRp1126
(dp1127
g58
(dp1128
g85
g86
ssg67
g1117
sg60
(lp1129
S':'
asbag53
(g74
g55
NtRp1130
(dp1131
g58
(dp1132
sg67
g1117
sg60
(lp1133
g53
(g54
g55
NtRp1134
(dp1135
g58
(dp1136
g66
I4
ssg67
g1130
sg60
(lp1137
S'gzip, deflate'
p1138
asbasbasbag53
(g69
g55
NtRp1139
(dp1140
g58
(dp1141
sg67
g935
sg60
(lp1142
g53
(g74
g55
NtRp1143
(dp1144
g58
(dp1145
g78
g79
ssg67
g1139
sg60
(lp1146
S'http_accept_language'
p1147
asbag53
(g74
g55
NtRp1148
(dp1149
g58
(dp1150
g85
g86
ssg67
g1139
sg60
(lp1151
S':'
asbag53
(g74
g55
NtRp1152
(dp1153
g58
(dp1154
sg67
g1139
sg60
(lp1155
g53
(g54
g55
NtRp1156
(dp1157
g58
(dp1158
g66
I4
ssg67
g1152
sg60
(lp1159
S'es-es,de-de;q=0.8,es;q=0.6,en-us;q=0.4,en;q=0.2'
p1160
asbasbasbag53
(g69
g55
NtRp1161
(dp1162
g58
(dp1163
sg67
g935
sg60
(lp1164
g53
(g74
g55
NtRp1165
(dp1166
g58
(dp1167
g78
g79
ssg67
g1161
sg60
(lp1168
S'http_connection'
p1169
asbag53
(g74
g55
NtRp1170
(dp1171
g58
(dp1172
g85
g86
ssg67
g1161
sg60
(lp1173
S':'
asbag53
(g74
g55
NtRp1174
(dp1175
g58
(dp1176
sg67
g1161
sg60
(lp1177
g53
(g54
g55
NtRp1178
(dp1179
g58
(dp1180
g66
I4
ssg67
g1174
sg60
(lp1181
S'keep-alive'
p1182
asbasbasbag53
(g69
g55
NtRp1183
(dp1184
g58
(dp1185
sg67
g935
sg60
(lp1186
g53
(g74
g55
NtRp1187
(dp1188
g58
(dp1189
g78
g79
ssg67
g1183
sg60
(lp1190
S'http_cookie'
p1191
asbag53
(g74
g55
NtRp1192
(dp1193
g58
(dp1194
g85
g86
ssg67
g1183
sg60
(lp1195
S':'
asbag53
(g74
g55
NtRp1196
(dp1197
g58
(dp1198
sg67
g1183
sg60
(lp1199
g53
(g54
g55
NtRp1200
(dp1201
g58
(dp1202
g66
I4
ssg67
g1196
sg60
(lp1203
S'__utma=96992031.26429765.1325029743.1325029743.1326549329.2; __utmz=96992031.1325029743.1.1.utmcsr=(direct)|utmccn=(direct)|utmcmd=(none); session_id_klaas=127.0.0.1-22979940-8cc3-49bc-9f44-0623615d817e; session_id_welcome=127.0.0.1-66b42615-8608-436c-b509-0246c4cfd00e; session_id_admin=127.0.0.1-e5279095-7b9f-4d46-b577-71e870d46308; session_id_parleyweb=127.0.0.1-941ea06b-718e-475d-8aba-022805d8afd9'
p1204
asbasbasbag53
(g69
g55
NtRp1205
(dp1206
g58
(dp1207
sg67
g935
sg60
(lp1208
g53
(g74
g55
NtRp1209
(dp1210
g58
(dp1211
g78
g79
ssg67
g1205
sg60
(lp1212
S'http_host'
p1213
asbag53
(g74
g55
NtRp1214
(dp1215
g58
(dp1216
g85
g86
ssg67
g1205
sg60
(lp1217
S':'
asbag53
(g74
g55
NtRp1218
(dp1219
g58
(dp1220
sg67
g1205
sg60
(lp1221
g53
(g54
g55
NtRp1222
(dp1223
g58
(dp1224
g66
I4
ssg67
g1218
sg60
(lp1225
S'127.0.0.1:8000'
p1226
asbasbasbag53
(g69
g55
NtRp1227
(dp1228
g58
(dp1229
sg67
g935
sg60
(lp1230
g53
(g74
g55
NtRp1231
(dp1232
g58
(dp1233
g78
g79
ssg67
g1227
sg60
(lp1234
S'http_referer'
p1235
asbag53
(g74
g55
NtRp1236
(dp1237
g58
(dp1238
g85
g86
ssg67
g1227
sg60
(lp1239
S':'
asbag53
(g74
g55
NtRp1240
(dp1241
g58
(dp1242
sg67
g1227
sg60
(lp1243
g53
(g54
g55
NtRp1244
(dp1245
g58
(dp1246
g66
I4
ssg67
g1240
sg60
(lp1247
S'http://127.0.0.1:8000/parleyweb/admin/agregar_palabra'
p1248
asbasbasbag53
(g69
g55
NtRp1249
(dp1250
g58
(dp1251
sg67
g935
sg60
(lp1252
g53
(g74
g55
NtRp1253
(dp1254
g58
(dp1255
g78
g79
ssg67
g1249
sg60
(lp1256
S'http_user_agent'
p1257
asbag53
(g74
g55
NtRp1258
(dp1259
g58
(dp1260
g85
g86
ssg67
g1249
sg60
(lp1261
S':'
asbag53
(g74
g55
NtRp1262
(dp1263
g58
(dp1264
sg67
g1249
sg60
(lp1265
g53
(g54
g55
NtRp1266
(dp1267
g58
(dp1268
g66
I4
ssg67
g1262
sg60
(lp1269
S'Mozilla/5.0 (Windows NT 6.1; WOW64; rv:10.0.2) Gecko/20100101 Firefox/10.0.2'
p1270
asbasbasbag53
(g69
g55
NtRp1271
(dp1272
g58
(dp1273
sg67
g935
sg60
(lp1274
g53
(g74
g55
NtRp1275
(dp1276
g58
(dp1277
g78
g79
ssg67
g1271
sg60
(lp1278
S'is_jython'
p1279
asbag53
(g74
g55
NtRp1280
(dp1281
g58
(dp1282
g85
g86
ssg67
g1271
sg60
(lp1283
S':'
asbag53
(g74
g55
NtRp1284
(dp1285
g58
(dp1286
sg67
g1271
sg60
(lp1287
g53
(g54
g55
NtRp1288
(dp1289
g58
(dp1290
g66
I4
ssg67
g1284
sg60
(lp1291
g96
asbasbasbag53
(g69
g55
NtRp1292
(dp1293
g58
(dp1294
sg67
g935
sg60
(lp1295
g53
(g74
g55
NtRp1296
(dp1297
g58
(dp1298
g78
g79
ssg67
g1292
sg60
(lp1299
S'is_pypy'
p1300
asbag53
(g74
g55
NtRp1301
(dp1302
g58
(dp1303
g85
g86
ssg67
g1292
sg60
(lp1304
S':'
asbag53
(g74
g55
NtRp1305
(dp1306
g58
(dp1307
sg67
g1292
sg60
(lp1308
g53
(g54
g55
NtRp1309
(dp1310
g58
(dp1311
g66
I4
ssg67
g1305
sg60
(lp1312
g96
asbasbasbag53
(g69
g55
NtRp1313
(dp1314
g58
(dp1315
sg67
g935
sg60
(lp1316
g53
(g74
g55
NtRp1317
(dp1318
g58
(dp1319
g78
g79
ssg67
g1313
sg60
(lp1320
S'path_info'
p1321
asbag53
(g74
g55
NtRp1322
(dp1323
g58
(dp1324
g85
g86
ssg67
g1313
sg60
(lp1325
S':'
asbag53
(g74
g55
NtRp1326
(dp1327
g58
(dp1328
sg67
g1313
sg60
(lp1329
g53
(g54
g55
NtRp1330
(dp1331
g58
(dp1332
g66
I4
ssg67
g1326
sg60
(lp1333
S'/parleyweb/default/mostrar/82'
p1334
asbasbasbag53
(g69
g55
NtRp1335
(dp1336
g58
(dp1337
sg67
g935
sg60
(lp1338
g53
(g74
g55
NtRp1339
(dp1340
g58
(dp1341
g78
g79
ssg67
g1335
sg60
(lp1342
S'query_string'
p1343
asbag53
(g74
g55
NtRp1344
(dp1345
g58
(dp1346
g85
g86
ssg67
g1335
sg60
(lp1347
S':'
asbag53
(g74
g55
NtRp1348
(dp1349
g58
(dp1350
sg67
g1335
sg60
(lp1351
g53
(g54
g55
NtRp1352
(dp1353
g58
(dp1354
g66
I4
ssg67
g1348
sg60
(lp1355
S''
asbasbasbag53
(g69
g55
NtRp1356
(dp1357
g58
(dp1358
sg67
g935
sg60
(lp1359
g53
(g74
g55
NtRp1360
(dp1361
g58
(dp1362
g78
g79
ssg67
g1356
sg60
(lp1363
S'remote_addr'
p1364
asbag53
(g74
g55
NtRp1365
(dp1366
g58
(dp1367
g85
g86
ssg67
g1356
sg60
(lp1368
S':'
asbag53
(g74
g55
NtRp1369
(dp1370
g58
(dp1371
sg67
g1356
sg60
(lp1372
g53
(g54
g55
NtRp1373
(dp1374
g58
(dp1375
g66
I4
ssg67
g1369
sg60
(lp1376
g199
asbasbasbag53
(g69
g55
NtRp1377
(dp1378
g58
(dp1379
sg67
g935
sg60
(lp1380
g53
(g74
g55
NtRp1381
(dp1382
g58
(dp1383
g78
g79
ssg67
g1377
sg60
(lp1384
S'remote_port'
p1385
asbag53
(g74
g55
NtRp1386
(dp1387
g58
(dp1388
g85
g86
ssg67
g1377
sg60
(lp1389
S':'
asbag53
(g74
g55
NtRp1390
(dp1391
g58
(dp1392
sg67
g1377
sg60
(lp1393
g53
(g54
g55
NtRp1394
(dp1395
g58
(dp1396
g66
I4
ssg67
g1390
sg60
(lp1397
S'58181'
p1398
asbasbasbag53
(g69
g55
NtRp1399
(dp1400
g58
(dp1401
sg67
g935
sg60
(lp1402
g53
(g74
g55
NtRp1403
(dp1404
g58
(dp1405
g78
g79
ssg67
g1399
sg60
(lp1406
S'request_method'
p1407
asbag53
(g74
g55
NtRp1408
(dp1409
g58
(dp1410
g85
g86
ssg67
g1399
sg60
(lp1411
S':'
asbag53
(g74
g55
NtRp1412
(dp1413
g58
(dp1414
sg67
g1399
sg60
(lp1415
g53
(g54
g55
NtRp1416
(dp1417
g58
(dp1418
g66
I4
ssg67
g1412
sg60
(lp1419
S'GET'
p1420
asbasbasbag53
(g69
g55
NtRp1421
(dp1422
g58
(dp1423
sg67
g935
sg60
(lp1424
g53
(g74
g55
NtRp1425
(dp1426
g58
(dp1427
g78
g79
ssg67
g1421
sg60
(lp1428
S'script_name'
p1429
asbag53
(g74
g55
NtRp1430
(dp1431
g58
(dp1432
g85
g86
ssg67
g1421
sg60
(lp1433
S':'
asbag53
(g74
g55
NtRp1434
(dp1435
g58
(dp1436
sg67
g1421
sg60
(lp1437
g53
(g54
g55
NtRp1438
(dp1439
g58
(dp1440
g66
I4
ssg67
g1434
sg60
(lp1441
S''
asbasbasbag53
(g69
g55
NtRp1442
(dp1443
g58
(dp1444
sg67
g935
sg60
(lp1445
g53
(g74
g55
NtRp1446
(dp1447
g58
(dp1448
g78
g79
ssg67
g1442
sg60
(lp1449
S'server_name'
p1450
asbag53
(g74
g55
NtRp1451
(dp1452
g58
(dp1453
g85
g86
ssg67
g1442
sg60
(lp1454
S':'
asbag53
(g74
g55
NtRp1455
(dp1456
g58
(dp1457
sg67
g1442
sg60
(lp1458
g53
(g54
g55
NtRp1459
(dp1460
g58
(dp1461
g66
I4
ssg67
g1455
sg60
(lp1462
S'craxsnet-PC'
p1463
asbasbasbag53
(g69
g55
NtRp1464
(dp1465
g58
(dp1466
sg67
g935
sg60
(lp1467
g53
(g74
g55
NtRp1468
(dp1469
g58
(dp1470
g78
g79
ssg67
g1464
sg60
(lp1471
S'server_port'
p1472
asbag53
(g74
g55
NtRp1473
(dp1474
g58
(dp1475
g85
g86
ssg67
g1464
sg60
(lp1476
S':'
asbag53
(g74
g55
NtRp1477
(dp1478
g58
(dp1479
sg67
g1464
sg60
(lp1480
g53
(g54
g55
NtRp1481
(dp1482
g58
(dp1483
g66
I4
ssg67
g1477
sg60
(lp1484
S'8000'
p1485
asbasbasbag53
(g69
g55
NtRp1486
(dp1487
g58
(dp1488
sg67
g935
sg60
(lp1489
g53
(g74
g55
NtRp1490
(dp1491
g58
(dp1492
g78
g79
ssg67
g1486
sg60
(lp1493
S'server_protocol'
p1494
asbag53
(g74
g55
NtRp1495
(dp1496
g58
(dp1497
g85
g86
ssg67
g1486
sg60
(lp1498
S':'
asbag53
(g74
g55
NtRp1499
(dp1500
g58
(dp1501
sg67
g1486
sg60
(lp1502
g53
(g54
g55
NtRp1503
(dp1504
g58
(dp1505
g66
I4
ssg67
g1499
sg60
(lp1506
S'HTTP/1.1'
p1507
asbasbasbag53
(g69
g55
NtRp1508
(dp1509
g58
(dp1510
sg67
g935
sg60
(lp1511
g53
(g74
g55
NtRp1512
(dp1513
g58
(dp1514
g78
g79
ssg67
g1508
sg60
(lp1515
S'server_software'
p1516
asbag53
(g74
g55
NtRp1517
(dp1518
g58
(dp1519
g85
g86
ssg67
g1508
sg60
(lp1520
S':'
asbag53
(g74
g55
NtRp1521
(dp1522
g58
(dp1523
sg67
g1508
sg60
(lp1524
g53
(g54
g55
NtRp1525
(dp1526
g58
(dp1527
g66
I4
ssg67
g1521
sg60
(lp1528
S'Rocket 1.2.4'
p1529
asbasbasbag53
(g69
g55
NtRp1530
(dp1531
g58
(dp1532
sg67
g935
sg60
(lp1533
g53
(g74
g55
NtRp1534
(dp1535
g58
(dp1536
g78
g79
ssg67
g1530
sg60
(lp1537
S'web2py_crontype'
p1538
asbag53
(g74
g55
NtRp1539
(dp1540
g58
(dp1541
g85
g86
ssg67
g1530
sg60
(lp1542
S':'
asbag53
(g74
g55
NtRp1543
(dp1544
g58
(dp1545
sg67
g1530
sg60
(lp1546
g53
(g54
g55
NtRp1547
(dp1548
g58
(dp1549
g66
I4
ssg67
g1543
sg60
(lp1550
S'hard'
p1551
asbasbasbag53
(g69
g55
NtRp1552
(dp1553
g58
(dp1554
sg67
g935
sg60
(lp1555
g53
(g74
g55
NtRp1556
(dp1557
g58
(dp1558
g78
g79
ssg67
g1552
sg60
(lp1559
S'web2py_path'
p1560
asbag53
(g74
g55
NtRp1561
(dp1562
g58
(dp1563
g85
g86
ssg67
g1552
sg60
(lp1564
S':'
asbag53
(g74
g55
NtRp1565
(dp1566
g58
(dp1567
sg67
g1552
sg60
(lp1568
g53
(g54
g55
NtRp1569
(dp1570
g58
(dp1571
g66
I4
ssg67
g1565
sg60
(lp1572
g982
asbasbasbag53
(g69
g55
NtRp1573
(dp1574
g58
(dp1575
sg67
g935
sg60
(lp1576
g53
(g74
g55
NtRp1577
(dp1578
g58
(dp1579
g78
g79
ssg67
g1573
sg60
(lp1580
S'web2py_version'
p1581
asbag53
(g74
g55
NtRp1582
(dp1583
g58
(dp1584
g85
g86
ssg67
g1573
sg60
(lp1585
S':'
asbag53
(g74
g55
NtRp1586
(dp1587
g58
(dp1588
sg67
g1573
sg60
(lp1589
g53
(g54
g55
NtRp1590
(dp1591
g58
(dp1592
g66
I4
ssg67
g1586
sg60
(lp1593
g53
(g62
g55
NtRp1594
(dp1595
g58
(dp1596
g66
I3
ssg67
Nsg60
(lp1597
g53
(g69
g55
NtRp1598
(dp1599
g58
(dp1600
sg67
g1594
sg60
(lp1601
g53
(g74
g55
NtRp1602
(dp1603
g58
(dp1604
sg67
g1598
sg60
(lp1605
g53
(g54
g55
NtRp1606
(dp1607
g58
(dp1608
g66
I3
ssg67
g1602
sg60
(lp1609
S'1'
asbasbasbag53
(g69
g55
NtRp1610
(dp1611
g58
(dp1612
sg67
g1594
sg60
(lp1613
g53
(g74
g55
NtRp1614
(dp1615
g58
(dp1616
sg67
g1610
sg60
(lp1617
g53
(g54
g55
NtRp1618
(dp1619
g58
(dp1620
g66
I3
ssg67
g1614
sg60
(lp1621
S'99'
p1622
asbasbasbag53
(g69
g55
NtRp1623
(dp1624
g58
(dp1625
sg67
g1594
sg60
(lp1626
g53
(g74
g55
NtRp1627
(dp1628
g58
(dp1629
sg67
g1623
sg60
(lp1630
g53
(g54
g55
NtRp1631
(dp1632
g58
(dp1633
g66
I3
ssg67
g1627
sg60
(lp1634
S'7'
asbasbasbag53
(g69
g55
NtRp1635
(dp1636
g58
(dp1637
sg67
g1594
sg60
(lp1638
g53
(g74
g55
NtRp1639
(dp1640
g58
(dp1641
sg67
g1635
sg60
(lp1642
g53
(g54
g55
NtRp1643
(dp1644
g58
(dp1645
g66
I3
ssg67
g1639
sg60
(lp1646
S'datetime.datetime(2012, 3, 4, 22, 12, 8)'
p1647
asbasbasbag53
(g69
g55
NtRp1648
(dp1649
g58
(dp1650
sg67
g1594
sg60
(lp1651
g53
(g74
g55
NtRp1652
(dp1653
g58
(dp1654
sg67
g1648
sg60
(lp1655
g53
(g54
g55
NtRp1656
(dp1657
g58
(dp1658
g66
I3
ssg67
g1652
sg60
(lp1659
S'stable'
p1660
asbasbasbasbasbasbasbag53
(g69
g55
NtRp1661
(dp1662
g58
(dp1663
sg67
g935
sg60
(lp1664
g53
(g74
g55
NtRp1665
(dp1666
g58
(dp1667
g78
g79
ssg67
g1661
sg60
(lp1668
S'wsgi_errors'
p1669
asbag53
(g74
g55
NtRp1670
(dp1671
g58
(dp1672
g85
g86
ssg67
g1661
sg60
(lp1673
S':'
asbag53
(g74
g55
NtRp1674
(dp1675
g58
(dp1676
sg67
g1661
sg60
(lp1677
g53
(g54
g55
NtRp1678
(dp1679
g58
(dp1680
g66
I4
ssg67
g1674
sg60
(lp1681
S"<open file '<stderr>', mode 'w' at 0x01F400B0>"
p1682
asbasbasbag53
(g69
g55
NtRp1683
(dp1684
g58
(dp1685
sg67
g935
sg60
(lp1686
g53
(g74
g55
NtRp1687
(dp1688
g58
(dp1689
g78
g79
ssg67
g1683
sg60
(lp1690
S'wsgi_file_wrapper'
p1691
asbag53
(g74
g55
NtRp1692
(dp1693
g58
(dp1694
g85
g86
ssg67
g1683
sg60
(lp1695
S':'
asbag53
(g74
g55
NtRp1696
(dp1697
g58
(dp1698
sg67
g1683
sg60
(lp1699
g53
(g54
g55
NtRp1700
(dp1701
g58
(dp1702
g66
I4
ssg67
g1696
sg60
(lp1703
S'<class wsgiref.util.FileWrapper at 0x02EB5390>'
p1704
asbasbasbag53
(g69
g55
NtRp1705
(dp1706
g58
(dp1707
sg67
g935
sg60
(lp1708
g53
(g74
g55
NtRp1709
(dp1710
g58
(dp1711
g78
g79
ssg67
g1705
sg60
(lp1712
S'wsgi_input'
p1713
asbag53
(g74
g55
NtRp1714
(dp1715
g58
(dp1716
g85
g86
ssg67
g1705
sg60
(lp1717
S':'
asbag53
(g74
g55
NtRp1718
(dp1719
g58
(dp1720
sg67
g1705
sg60
(lp1721
g53
(g54
g55
NtRp1722
(dp1723
g58
(dp1724
g66
I4
ssg67
g1718
sg60
(lp1725
S'<socket._fileobject object at 0x032830B0>'
p1726
asbasbasbag53
(g69
g55
NtRp1727
(dp1728
g58
(dp1729
sg67
g935
sg60
(lp1730
g53
(g74
g55
NtRp1731
(dp1732
g58
(dp1733
g78
g79
ssg67
g1727
sg60
(lp1734
S'wsgi_multiprocess'
p1735
asbag53
(g74
g55
NtRp1736
(dp1737
g58
(dp1738
g85
g86
ssg67
g1727
sg60
(lp1739
S':'
asbag53
(g74
g55
NtRp1740
(dp1741
g58
(dp1742
sg67
g1727
sg60
(lp1743
g53
(g54
g55
NtRp1744
(dp1745
g58
(dp1746
g66
I4
ssg67
g1740
sg60
(lp1747
g96
asbasbasbag53
(g69
g55
NtRp1748
(dp1749
g58
(dp1750
sg67
g935
sg60
(lp1751
g53
(g74
g55
NtRp1752
(dp1753
g58
(dp1754
g78
g79
ssg67
g1748
sg60
(lp1755
S'wsgi_multithread'
p1756
asbag53
(g74
g55
NtRp1757
(dp1758
g58
(dp1759
g85
g86
ssg67
g1748
sg60
(lp1760
S':'
asbag53
(g74
g55
NtRp1761
(dp1762
g58
(dp1763
sg67
g1748
sg60
(lp1764
g53
(g54
g55
NtRp1765
(dp1766
g58
(dp1767
g66
I4
ssg67
g1761
sg60
(lp1768
S'True'
p1769
asbasbasbag53
(g69
g55
NtRp1770
(dp1771
g58
(dp1772
sg67
g935
sg60
(lp1773
g53
(g74
g55
NtRp1774
(dp1775
g58
(dp1776
g78
g79
ssg67
g1770
sg60
(lp1777
S'wsgi_run_once'
p1778
asbag53
(g74
g55
NtRp1779
(dp1780
g58
(dp1781
g85
g86
ssg67
g1770
sg60
(lp1782
S':'
asbag53
(g74
g55
NtRp1783
(dp1784
g58
(dp1785
sg67
g1770
sg60
(lp1786
g53
(g54
g55
NtRp1787
(dp1788
g58
(dp1789
g66
I4
ssg67
g1783
sg60
(lp1790
g96
asbasbasbag53
(g69
g55
NtRp1791
(dp1792
g58
(dp1793
sg67
g935
sg60
(lp1794
g53
(g74
g55
NtRp1795
(dp1796
g58
(dp1797
g78
g79
ssg67
g1791
sg60
(lp1798
S'wsgi_url_scheme'
p1799
asbag53
(g74
g55
NtRp1800
(dp1801
g58
(dp1802
g85
g86
ssg67
g1791
sg60
(lp1803
S':'
asbag53
(g74
g55
NtRp1804
(dp1805
g58
(dp1806
sg67
g1791
sg60
(lp1807
g53
(g54
g55
NtRp1808
(dp1809
g58
(dp1810
g66
I4
ssg67
g1804
sg60
(lp1811
S'http'
p1812
asbasbasbag53
(g69
g55
NtRp1813
(dp1814
g58
(dp1815
sg67
g935
sg60
(lp1816
g53
(g74
g55
NtRp1817
(dp1818
g58
(dp1819
g78
g79
ssg67
g1813
sg60
(lp1820
S'wsgi_version'
p1821
asbag53
(g74
g55
NtRp1822
(dp1823
g58
(dp1824
g85
g86
ssg67
g1813
sg60
(lp1825
S':'
asbag53
(g74
g55
NtRp1826
(dp1827
g58
(dp1828
sg67
g1813
sg60
(lp1829
g53
(g54
g55
NtRp1830
(dp1831
g58
(dp1832
g66
I4
ssg67
g1826
sg60
(lp1833
g53
(g62
g55
NtRp1834
(dp1835
g58
(dp1836
g66
I3
ssg67
Nsg60
(lp1837
g53
(g69
g55
NtRp1838
(dp1839
g58
(dp1840
sg67
g1834
sg60
(lp1841
g53
(g74
g55
NtRp1842
(dp1843
g58
(dp1844
sg67
g1838
sg60
(lp1845
g53
(g54
g55
NtRp1846
(dp1847
g58
(dp1848
g66
I3
ssg67
g1842
sg60
(lp1849
S'1'
asbasbasbag53
(g69
g55
NtRp1850
(dp1851
g58
(dp1852
sg67
g1834
sg60
(lp1853
g53
(g74
g55
NtRp1854
(dp1855
g58
(dp1856
sg67
g1850
sg60
(lp1857
g53
(g54
g55
NtRp1858
(dp1859
g58
(dp1860
g66
I3
ssg67
g1854
sg60
(lp1861
S'0'
asbasbasbasbasbasbasbasbasbasbasbag53
(g69
g55
NtRp1862
(dp1863
g58
(dp1864
sg67
g63
sg60
(lp1865
g53
(g74
g55
NtRp1866
(dp1867
g58
(dp1868
g78
g79
ssg67
g1862
sg60
(lp1869
S'extension'
p1870
asbag53
(g74
g55
NtRp1871
(dp1872
g58
(dp1873
g85
g86
ssg67
g1862
sg60
(lp1874
S':'
asbag53
(g74
g55
NtRp1875
(dp1876
g58
(dp1877
sg67
g1862
sg60
(lp1878
g53
(g54
g55
NtRp1879
(dp1880
g58
(dp1881
g66
I5
ssg67
g1875
sg60
(lp1882
S'html'
p1883
asbasbasbag53
(g69
g55
NtRp1884
(dp1885
g58
(dp1886
sg67
g63
sg60
(lp1887
g53
(g74
g55
NtRp1888
(dp1889
g58
(dp1890
g78
g79
ssg67
g1884
sg60
(lp1891
S'folder'
p1892
asbag53
(g74
g55
NtRp1893
(dp1894
g58
(dp1895
g85
g86
ssg67
g1884
sg60
(lp1896
S':'
asbag53
(g74
g55
NtRp1897
(dp1898
g58
(dp1899
sg67
g1884
sg60
(lp1900
g53
(g54
g55
NtRp1901
(dp1902
g58
(dp1903
g66
I5
ssg67
g1897
sg60
(lp1904
S'D:\\Dise\xf1o Web\\Proyectos\\Parleyweb\\web2py\\applications\\parleyweb\\'
p1905
asbasbasbag53
(g69
g55
NtRp1906
(dp1907
g58
(dp1908
sg67
g63
sg60
(lp1909
g53
(g74
g55
NtRp1910
(dp1911
g58
(dp1912
g78
g79
ssg67
g1906
sg60
(lp1913
S'function'
p1914
asbag53
(g74
g55
NtRp1915
(dp1916
g58
(dp1917
g85
g86
ssg67
g1906
sg60
(lp1918
S':'
asbag53
(g74
g55
NtRp1919
(dp1920
g58
(dp1921
sg67
g1906
sg60
(lp1922
g53
(g54
g55
NtRp1923
(dp1924
g58
(dp1925
g66
I5
ssg67
g1919
sg60
(lp1926
S'mostrar'
p1927
asbasbasbag53
(g69
g55
NtRp1928
(dp1929
g58
(dp1930
sg67
g63
sg60
(lp1931
g53
(g74
g55
NtRp1932
(dp1933
g58
(dp1934
g78
g79
ssg67
g1928
sg60
(lp1935
S'get_vars'
p1936
asbag53
(g74
g55
NtRp1937
(dp1938
g58
(dp1939
g85
g86
ssg67
g1928
sg60
(lp1940
S':'
asbag53
(g74
g55
NtRp1941
(dp1942
g58
(dp1943
sg67
g1928
sg60
(lp1944
g53
(g54
g55
NtRp1945
(dp1946
g58
(dp1947
g66
I5
ssg67
g1941
sg60
(lp1948
g53
(g62
g55
NtRp1949
(dp1950
g58
(dp1951
g66
I4
ssg67
Nsg60
(lp1952
sbasbasbasbag53
(g69
g55
NtRp1953
(dp1954
g58
(dp1955
sg67
g63
sg60
(lp1956
g53
(g74
g55
NtRp1957
(dp1958
g58
(dp1959
g78
g79
ssg67
g1953
sg60
(lp1960
S'global_settings'
p1961
asbag53
(g74
g55
NtRp1962
(dp1963
g58
(dp1964
g85
g86
ssg67
g1953
sg60
(lp1965
S':'
asbag53
(g74
g55
NtRp1966
(dp1967
g58
(dp1968
sg67
g1953
sg60
(lp1969
g53
(g54
g55
NtRp1970
(dp1971
g58
(dp1972
g66
I5
ssg67
g1966
sg60
(lp1973
g53
(g62
g55
NtRp1974
(dp1975
g58
(dp1976
g66
I4
ssg67
Nsg60
(lp1977
g53
(g69
g55
NtRp1978
(dp1979
g58
(dp1980
sg67
g1974
sg60
(lp1981
g53
(g74
g55
NtRp1982
(dp1983
g58
(dp1984
g78
g79
ssg67
g1978
sg60
(lp1985
g947
asbag53
(g74
g55
NtRp1986
(dp1987
g58
(dp1988
g85
g86
ssg67
g1978
sg60
(lp1989
S':'
asbag53
(g74
g55
NtRp1990
(dp1991
g58
(dp1992
sg67
g1978
sg60
(lp1993
g53
(g54
g55
NtRp1994
(dp1995
g58
(dp1996
g66
I4
ssg67
g1990
sg60
(lp1997
S"set(['D:\\\\Dise\\xf1o Web\\\\Proyectos\\\\Parleyweb\\\\web2py\\\\applications\\\\parleyweb\\\\', 'D:\\\\Dise\\xf1o Web\\\\Proyectos\\\\Parleyweb\\\\web2py\\\\applications\\\\welcome\\\\', 'D:\\\\Dise\\xf1o Web\\\\Proyectos\\\\Parleyweb\\\\web2py\\\\applications\\\\admin\\\\'])"
p1998
asbasbasbag53
(g69
g55
NtRp1999
(dp2000
g58
(dp2001
sg67
g1974
sg60
(lp2002
g53
(g74
g55
NtRp2003
(dp2004
g58
(dp2005
g78
g79
ssg67
g1999
sg60
(lp2006
g969
asbag53
(g74
g55
NtRp2007
(dp2008
g58
(dp2009
g85
g86
ssg67
g1999
sg60
(lp2010
S':'
asbag53
(g74
g55
NtRp2011
(dp2012
g58
(dp2013
sg67
g1999
sg60
(lp2014
g53
(g54
g55
NtRp2015
(dp2016
g58
(dp2017
g66
I4
ssg67
g2011
sg60
(lp2018
g982
asbasbasbag53
(g69
g55
NtRp2019
(dp2020
g58
(dp2021
sg67
g1974
sg60
(lp2022
g53
(g74
g55
NtRp2023
(dp2024
g58
(dp2025
g78
g79
ssg67
g2019
sg60
(lp2026
g991
asbag53
(g74
g55
NtRp2027
(dp2028
g58
(dp2029
g85
g86
ssg67
g2019
sg60
(lp2030
S':'
asbag53
(g74
g55
NtRp2031
(dp2032
g58
(dp2033
sg67
g2019
sg60
(lp2034
g53
(g54
g55
NtRp2035
(dp2036
g58
(dp2037
g66
I4
ssg67
g2031
sg60
(lp2038
g53
(g62
g55
NtRp2039
(dp2040
g58
(dp2041
g66
I3
ssg67
Nsg60
(lp2042
sbasbasbasbag53
(g69
g55
NtRp2043
(dp2044
g58
(dp2045
sg67
g1974
sg60
(lp2046
g53
(g74
g55
NtRp2047
(dp2048
g58
(dp2049
g78
g79
ssg67
g2043
sg60
(lp2050
g1016
asbag53
(g74
g55
NtRp2051
(dp2052
g58
(dp2053
g85
g86
ssg67
g2043
sg60
(lp2054
S':'
asbag53
(g74
g55
NtRp2055
(dp2056
g58
(dp2057
sg67
g2043
sg60
(lp2058
g53
(g54
g55
NtRp2059
(dp2060
g58
(dp2061
g66
I4
ssg67
g2055
sg60
(lp2062
S"<Values at 0x30bff30: {'verbose': False, 'ip': '127.0.0.1', 'shutdown_timeout': 5, 'taskbar': False, 'nocron': False, 'pid_filename': 'httpserver.pid', 'maxthreads': None, 'softcron': False, 'server_name': 'craxsnet-PC', 'bpython': False, 'nogui': False, 'port': 8000, 'extcron': False, 'debuglevel': 30, 'test': None, 'folder': 'D:\\\\Dise\\xf1o Web\\\\Proyectos\\\\Parleyweb\\\\web2py', 'config': '', 'import_models': False, 'winservice': '', 'shell': None, 'run': '', 'log_filename': 'httpserver.log', 'args': [''], 'socket_timeout': 5, 'ssl_ca_certificate': None, 'scheduler': None, 'profiler_filename': None, 'ssl_private_key': '', 'password': '<ask>', 'request_queue_size': 5, 'ssl_certificate': '', 'cronjob': False, 'numthreads': None, 'quiet': False, 'interfaces': None, 'minthreads': None, 'timeout': 10, 'plain': False, 'nobanner': False}>"
p2063
asbasbasbag53
(g69
g55
NtRp2064
(dp2065
g58
(dp2066
sg67
g1974
sg60
(lp2067
g53
(g74
g55
NtRp2068
(dp2069
g58
(dp2070
g78
g79
ssg67
g2064
sg60
(lp2071
g1038
asbag53
(g74
g55
NtRp2072
(dp2073
g58
(dp2074
g85
g86
ssg67
g2064
sg60
(lp2075
S':'
asbag53
(g74
g55
NtRp2076
(dp2077
g58
(dp2078
sg67
g2064
sg60
(lp2079
g53
(g54
g55
NtRp2080
(dp2081
g58
(dp2082
g66
I4
ssg67
g2076
sg60
(lp2083
S'set([])'
p2084
asbasbasbag53
(g69
g55
NtRp2085
(dp2086
g58
(dp2087
sg67
g1974
sg60
(lp2088
g53
(g74
g55
NtRp2089
(dp2090
g58
(dp2091
g78
g79
ssg67
g2085
sg60
(lp2092
g1060
asbag53
(g74
g55
NtRp2093
(dp2094
g58
(dp2095
g85
g86
ssg67
g2085
sg60
(lp2096
S':'
asbag53
(g74
g55
NtRp2097
(dp2098
g58
(dp2099
sg67
g2085
sg60
(lp2100
g53
(g54
g55
NtRp2101
(dp2102
g58
(dp2103
g66
I4
ssg67
g2097
sg60
(lp2104
g96
asbasbasbag53
(g69
g55
NtRp2105
(dp2106
g58
(dp2107
sg67
g1974
sg60
(lp2108
g53
(g74
g55
NtRp2109
(dp2110
g58
(dp2111
g78
g79
ssg67
g2105
sg60
(lp2112
g1081
asbag53
(g74
g55
NtRp2113
(dp2114
g58
(dp2115
g85
g86
ssg67
g2105
sg60
(lp2116
S':'
asbag53
(g74
g55
NtRp2117
(dp2118
g58
(dp2119
sg67
g2105
sg60
(lp2120
g53
(g54
g55
NtRp2121
(dp2122
g58
(dp2123
g66
I4
ssg67
g2117
sg60
(lp2124
g1094
asbasbasbag53
(g69
g55
NtRp2125
(dp2126
g58
(dp2127
sg67
g1974
sg60
(lp2128
g53
(g74
g55
NtRp2129
(dp2130
g58
(dp2131
g78
g79
ssg67
g2125
sg60
(lp2132
g1279
asbag53
(g74
g55
NtRp2133
(dp2134
g58
(dp2135
g85
g86
ssg67
g2125
sg60
(lp2136
S':'
asbag53
(g74
g55
NtRp2137
(dp2138
g58
(dp2139
sg67
g2125
sg60
(lp2140
g53
(g54
g55
NtRp2141
(dp2142
g58
(dp2143
g66
I4
ssg67
g2137
sg60
(lp2144
g96
asbasbasbag53
(g69
g55
NtRp2145
(dp2146
g58
(dp2147
sg67
g1974
sg60
(lp2148
g53
(g74
g55
NtRp2149
(dp2150
g58
(dp2151
g78
g79
ssg67
g2145
sg60
(lp2152
g1300
asbag53
(g74
g55
NtRp2153
(dp2154
g58
(dp2155
g85
g86
ssg67
g2145
sg60
(lp2156
S':'
asbag53
(g74
g55
NtRp2157
(dp2158
g58
(dp2159
sg67
g2145
sg60
(lp2160
g53
(g54
g55
NtRp2161
(dp2162
g58
(dp2163
g66
I4
ssg67
g2157
sg60
(lp2164
g96
asbasbasbag53
(g69
g55
NtRp2165
(dp2166
g58
(dp2167
sg67
g1974
sg60
(lp2168
g53
(g74
g55
NtRp2169
(dp2170
g58
(dp2171
g78
g79
ssg67
g2165
sg60
(lp2172
g1538
asbag53
(g74
g55
NtRp2173
(dp2174
g58
(dp2175
g85
g86
ssg67
g2165
sg60
(lp2176
S':'
asbag53
(g74
g55
NtRp2177
(dp2178
g58
(dp2179
sg67
g2165
sg60
(lp2180
g53
(g54
g55
NtRp2181
(dp2182
g58
(dp2183
g66
I4
ssg67
g2177
sg60
(lp2184
g1551
asbasbasbag53
(g69
g55
NtRp2185
(dp2186
g58
(dp2187
sg67
g1974
sg60
(lp2188
g53
(g74
g55
NtRp2189
(dp2190
g58
(dp2191
g78
g79
ssg67
g2185
sg60
(lp2192
g1581
asbag53
(g74
g55
NtRp2193
(dp2194
g58
(dp2195
g85
g86
ssg67
g2185
sg60
(lp2196
S':'
asbag53
(g74
g55
NtRp2197
(dp2198
g58
(dp2199
sg67
g2185
sg60
(lp2200
g53
(g54
g55
NtRp2201
(dp2202
g58
(dp2203
g66
I4
ssg67
g2197
sg60
(lp2204
g53
(g62
g55
NtRp2205
(dp2206
g58
(dp2207
g66
I3
ssg67
Nsg60
(lp2208
g53
(g69
g55
NtRp2209
(dp2210
g58
(dp2211
sg67
g2205
sg60
(lp2212
g53
(g74
g55
NtRp2213
(dp2214
g58
(dp2215
sg67
g2209
sg60
(lp2216
g53
(g54
g55
NtRp2217
(dp2218
g58
(dp2219
g66
I3
ssg67
g2213
sg60
(lp2220
S'1'
asbasbasbag53
(g69
g55
NtRp2221
(dp2222
g58
(dp2223
sg67
g2205
sg60
(lp2224
g53
(g74
g55
NtRp2225
(dp2226
g58
(dp2227
sg67
g2221
sg60
(lp2228
g53
(g54
g55
NtRp2229
(dp2230
g58
(dp2231
g66
I3
ssg67
g2225
sg60
(lp2232
S'99'
p2233
asbasbasbag53
(g69
g55
NtRp2234
(dp2235
g58
(dp2236
sg67
g2205
sg60
(lp2237
g53
(g74
g55
NtRp2238
(dp2239
g58
(dp2240
sg67
g2234
sg60
(lp2241
g53
(g54
g55
NtRp2242
(dp2243
g58
(dp2244
g66
I3
ssg67
g2238
sg60
(lp2245
S'7'
asbasbasbag53
(g69
g55
NtRp2246
(dp2247
g58
(dp2248
sg67
g2205
sg60
(lp2249
g53
(g74
g55
NtRp2250
(dp2251
g58
(dp2252
sg67
g2246
sg60
(lp2253
g53
(g54
g55
NtRp2254
(dp2255
g58
(dp2256
g66
I3
ssg67
g2250
sg60
(lp2257
S'datetime.datetime(2012, 3, 4, 22, 12, 8)'
p2258
asbasbasbag53
(g69
g55
NtRp2259
(dp2260
g58
(dp2261
sg67
g2205
sg60
(lp2262
g53
(g74
g55
NtRp2263
(dp2264
g58
(dp2265
sg67
g2259
sg60
(lp2266
g53
(g54
g55
NtRp2267
(dp2268
g58
(dp2269
g66
I3
ssg67
g2263
sg60
(lp2270
g1660
asbasbasbasbasbasbasbasbasbasbasbag53
(g69
g55
NtRp2271
(dp2272
g58
(dp2273
sg67
g63
sg60
(lp2274
g53
(g74
g55
NtRp2275
(dp2276
g58
(dp2277
g78
g79
ssg67
g2271
sg60
(lp2278
S'is_https'
p2279
asbag53
(g74
g55
NtRp2280
(dp2281
g58
(dp2282
g85
g86
ssg67
g2271
sg60
(lp2283
S':'
asbag53
(g74
g55
NtRp2284
(dp2285
g58
(dp2286
sg67
g2271
sg60
(lp2287
g53
(g54
g55
NtRp2288
(dp2289
g58
(dp2290
g66
I5
ssg67
g2284
sg60
(lp2291
g96
asbasbasbag53
(g69
g55
NtRp2292
(dp2293
g58
(dp2294
sg67
g63
sg60
(lp2295
g53
(g74
g55
NtRp2296
(dp2297
g58
(dp2298
g78
g79
ssg67
g2292
sg60
(lp2299
S'is_local'
p2300
asbag53
(g74
g55
NtRp2301
(dp2302
g58
(dp2303
g85
g86
ssg67
g2292
sg60
(lp2304
S':'
asbag53
(g74
g55
NtRp2305
(dp2306
g58
(dp2307
sg67
g2292
sg60
(lp2308
g53
(g54
g55
NtRp2309
(dp2310
g58
(dp2311
g66
I5
ssg67
g2305
sg60
(lp2312
g1769
asbasbasbag53
(g69
g55
NtRp2313
(dp2314
g58
(dp2315
sg67
g63
sg60
(lp2316
g53
(g74
g55
NtRp2317
(dp2318
g58
(dp2319
g78
g79
ssg67
g2313
sg60
(lp2320
S'is_restful'
p2321
asbag53
(g74
g55
NtRp2322
(dp2323
g58
(dp2324
g85
g86
ssg67
g2313
sg60
(lp2325
S':'
asbag53
(g74
g55
NtRp2326
(dp2327
g58
(dp2328
sg67
g2313
sg60
(lp2329
g53
(g54
g55
NtRp2330
(dp2331
g58
(dp2332
g66
I5
ssg67
g2326
sg60
(lp2333
g96
asbasbasbag53
(g69
g55
NtRp2334
(dp2335
g58
(dp2336
sg67
g63
sg60
(lp2337
g53
(g74
g55
NtRp2338
(dp2339
g58
(dp2340
g78
g79
ssg67
g2334
sg60
(lp2341
S'now'
p2342
asbag53
(g74
g55
NtRp2343
(dp2344
g58
(dp2345
g85
g86
ssg67
g2334
sg60
(lp2346
S':'
asbag53
(g74
g55
NtRp2347
(dp2348
g58
(dp2349
sg67
g2334
sg60
(lp2350
g53
(g54
g55
NtRp2351
(dp2352
g58
(dp2353
g66
I5
ssg67
g2347
sg60
(lp2354
S'datetime.datetime(2012, 3, 10, 23, 2, 21, 874000)'
p2355
asbasbasbag53
(g69
g55
NtRp2356
(dp2357
g58
(dp2358
sg67
g63
sg60
(lp2359
g53
(g74
g55
NtRp2360
(dp2361
g58
(dp2362
g78
g79
ssg67
g2356
sg60
(lp2363
S'post_vars'
p2364
asbag53
(g74
g55
NtRp2365
(dp2366
g58
(dp2367
g85
g86
ssg67
g2356
sg60
(lp2368
S':'
asbag53
(g74
g55
NtRp2369
(dp2370
g58
(dp2371
sg67
g2356
sg60
(lp2372
g53
(g54
g55
NtRp2373
(dp2374
g58
(dp2375
g66
I5
ssg67
g2369
sg60
(lp2376
g53
(g62
g55
NtRp2377
(dp2378
g58
(dp2379
g66
I4
ssg67
Nsg60
(lp2380
sbasbasbasbag53
(g69
g55
NtRp2381
(dp2382
g58
(dp2383
sg67
g63
sg60
(lp2384
g53
(g74
g55
NtRp2385
(dp2386
g58
(dp2387
g78
g79
ssg67
g2381
sg60
(lp2388
S'raw_args'
p2389
asbag53
(g74
g55
NtRp2390
(dp2391
g58
(dp2392
g85
g86
ssg67
g2381
sg60
(lp2393
S':'
asbag53
(g74
g55
NtRp2394
(dp2395
g58
(dp2396
sg67
g2381
sg60
(lp2397
g53
(g54
g55
NtRp2398
(dp2399
g58
(dp2400
g66
I5
ssg67
g2394
sg60
(lp2401
S'82'
p2402
asbasbasbag53
(g69
g55
NtRp2403
(dp2404
g58
(dp2405
sg67
g63
sg60
(lp2406
g53
(g74
g55
NtRp2407
(dp2408
g58
(dp2409
g78
g79
ssg67
g2403
sg60
(lp2410
S'url'
p2411
asbag53
(g74
g55
NtRp2412
(dp2413
g58
(dp2414
g85
g86
ssg67
g2403
sg60
(lp2415
S':'
asbag53
(g74
g55
NtRp2416
(dp2417
g58
(dp2418
sg67
g2403
sg60
(lp2419
g53
(g54
g55
NtRp2420
(dp2421
g58
(dp2422
g66
I5
ssg67
g2416
sg60
(lp2423
S'/parleyweb/default/mostrar/82'
p2424
asbasbasbag53
(g69
g55
NtRp2425
(dp2426
g58
(dp2427
sg67
g63
sg60
(lp2428
g53
(g74
g55
NtRp2429
(dp2430
g58
(dp2431
g78
g79
ssg67
g2425
sg60
(lp2432
S'utcnow'
p2433
asbag53
(g74
g55
NtRp2434
(dp2435
g58
(dp2436
g85
g86
ssg67
g2425
sg60
(lp2437
S':'
asbag53
(g74
g55
NtRp2438
(dp2439
g58
(dp2440
sg67
g2425
sg60
(lp2441
g53
(g54
g55
NtRp2442
(dp2443
g58
(dp2444
g66
I5
ssg67
g2438
sg60
(lp2445
S'datetime.datetime(2012, 3, 10, 22, 2, 21, 875000)'
p2446
asbasbasbag53
(g69
g55
NtRp2447
(dp2448
g58
(dp2449
sg67
g63
sg60
(lp2450
g53
(g74
g55
NtRp2451
(dp2452
g58
(dp2453
g78
g79
ssg67
g2447
sg60
(lp2454
S'uuid'
p2455
asbag53
(g74
g55
NtRp2456
(dp2457
g58
(dp2458
g85
g86
ssg67
g2447
sg60
(lp2459
S':'
asbag53
(g74
g55
NtRp2460
(dp2461
g58
(dp2462
sg67
g2447
sg60
(lp2463
g53
(g54
g55
NtRp2464
(dp2465
g58
(dp2466
g66
I5
ssg67
g2460
sg60
(lp2467
S'parleyweb/127.0.0.1.2012-03-10.23-02-21.4282e471-1f53-4af3-8f8b-1c0c6a9229aa'
p2468
asbasbasbag53
(g69
g55
NtRp2469
(dp2470
g58
(dp2471
sg67
g63
sg60
(lp2472
g53
(g74
g55
NtRp2473
(dp2474
g58
(dp2475
g78
g79
ssg67
g2469
sg60
(lp2476
S'vars'
p2477
asbag53
(g74
g55
NtRp2478
(dp2479
g58
(dp2480
g85
g86
ssg67
g2469
sg60
(lp2481
S':'
asbag53
(g74
g55
NtRp2482
(dp2483
g58
(dp2484
sg67
g2469
sg60
(lp2485
g53
(g54
g55
NtRp2486
(dp2487
g58
(dp2488
g66
I5
ssg67
g2482
sg60
(lp2489
g53
(g62
g55
NtRp2490
(dp2491
g58
(dp2492
g66
I4
ssg67
Nsg60
(lp2493
sbasbasbasbag53
(g69
g55
NtRp2494
(dp2495
g58
(dp2496
sg67
g63
sg60
(lp2497
g53
(g74
g55
NtRp2498
(dp2499
g58
(dp2500
g78
g79
ssg67
g2494
sg60
(lp2501
S'wsgi'
p2502
asbag53
(g74
g55
NtRp2503
(dp2504
g58
(dp2505
g85
g86
ssg67
g2494
sg60
(lp2506
S':'
asbag53
(g74
g55
NtRp2507
(dp2508
g58
(dp2509
sg67
g2494
sg60
(lp2510
g53
(g54
g55
NtRp2511
(dp2512
g58
(dp2513
g66
I5
ssg67
g2507
sg60
(lp2514
g53
(g62
g55
NtRp2515
(dp2516
g58
(dp2517
g66
I4
ssg67
Nsg60
(lp2518
g53
(g69
g55
NtRp2519
(dp2520
g58
(dp2521
sg67
g2515
sg60
(lp2522
g53
(g74
g55
NtRp2523
(dp2524
g58
(dp2525
g78
g79
ssg67
g2519
sg60
(lp2526
S'environ'
p2527
asbag53
(g74
g55
NtRp2528
(dp2529
g58
(dp2530
g85
g86
ssg67
g2519
sg60
(lp2531
S':'
asbag53
(g74
g55
NtRp2532
(dp2533
g58
(dp2534
sg67
g2519
sg60
(lp2535
g53
(g54
g55
NtRp2536
(dp2537
g58
(dp2538
g66
I4
ssg67
g2532
sg60
(lp2539
g53
(g62
g55
NtRp2540
(dp2541
g58
(dp2542
g66
I3
ssg67
Nsg60
(lp2543
g53
(g69
g55
NtRp2544
(dp2545
g58
(dp2546
sg67
g2540
sg60
(lp2547
g53
(g74
g55
NtRp2548
(dp2549
g58
(dp2550
g78
g79
ssg67
g2544
sg60
(lp2551
S'HTTP_ACCEPT'
p2552
asbag53
(g74
g55
NtRp2553
(dp2554
g58
(dp2555
g85
g86
ssg67
g2544
sg60
(lp2556
S':'
asbag53
(g74
g55
NtRp2557
(dp2558
g58
(dp2559
sg67
g2544
sg60
(lp2560
g53
(g54
g55
NtRp2561
(dp2562
g58
(dp2563
g66
I3
ssg67
g2557
sg60
(lp2564
g1116
asbasbasbag53
(g69
g55
NtRp2565
(dp2566
g58
(dp2567
sg67
g2540
sg60
(lp2568
g53
(g74
g55
NtRp2569
(dp2570
g58
(dp2571
g78
g79
ssg67
g2565
sg60
(lp2572
S'HTTP_ACCEPT_ENCODING'
p2573
asbag53
(g74
g55
NtRp2574
(dp2575
g58
(dp2576
g85
g86
ssg67
g2565
sg60
(lp2577
S':'
asbag53
(g74
g55
NtRp2578
(dp2579
g58
(dp2580
sg67
g2565
sg60
(lp2581
g53
(g54
g55
NtRp2582
(dp2583
g58
(dp2584
g66
I3
ssg67
g2578
sg60
(lp2585
g1138
asbasbasbag53
(g69
g55
NtRp2586
(dp2587
g58
(dp2588
sg67
g2540
sg60
(lp2589
g53
(g74
g55
NtRp2590
(dp2591
g58
(dp2592
g78
g79
ssg67
g2586
sg60
(lp2593
S'HTTP_ACCEPT_LANGUAGE'
p2594
asbag53
(g74
g55
NtRp2595
(dp2596
g58
(dp2597
g85
g86
ssg67
g2586
sg60
(lp2598
S':'
asbag53
(g74
g55
NtRp2599
(dp2600
g58
(dp2601
sg67
g2586
sg60
(lp2602
g53
(g54
g55
NtRp2603
(dp2604
g58
(dp2605
g66
I3
ssg67
g2599
sg60
(lp2606
g1160
asbasbasbag53
(g69
g55
NtRp2607
(dp2608
g58
(dp2609
sg67
g2540
sg60
(lp2610
g53
(g74
g55
NtRp2611
(dp2612
g58
(dp2613
g78
g79
ssg67
g2607
sg60
(lp2614
S'HTTP_CONNECTION'
p2615
asbag53
(g74
g55
NtRp2616
(dp2617
g58
(dp2618
g85
g86
ssg67
g2607
sg60
(lp2619
S':'
asbag53
(g74
g55
NtRp2620
(dp2621
g58
(dp2622
sg67
g2607
sg60
(lp2623
g53
(g54
g55
NtRp2624
(dp2625
g58
(dp2626
g66
I3
ssg67
g2620
sg60
(lp2627
g1182
asbasbasbag53
(g69
g55
NtRp2628
(dp2629
g58
(dp2630
sg67
g2540
sg60
(lp2631
g53
(g74
g55
NtRp2632
(dp2633
g58
(dp2634
g78
g79
ssg67
g2628
sg60
(lp2635
S'HTTP_COOKIE'
p2636
asbag53
(g74
g55
NtRp2637
(dp2638
g58
(dp2639
g85
g86
ssg67
g2628
sg60
(lp2640
S':'
asbag53
(g74
g55
NtRp2641
(dp2642
g58
(dp2643
sg67
g2628
sg60
(lp2644
g53
(g54
g55
NtRp2645
(dp2646
g58
(dp2647
g66
I3
ssg67
g2641
sg60
(lp2648
g1204
asbasbasbag53
(g69
g55
NtRp2649
(dp2650
g58
(dp2651
sg67
g2540
sg60
(lp2652
g53
(g74
g55
NtRp2653
(dp2654
g58
(dp2655
g78
g79
ssg67
g2649
sg60
(lp2656
S'HTTP_HOST'
p2657
asbag53
(g74
g55
NtRp2658
(dp2659
g58
(dp2660
g85
g86
ssg67
g2649
sg60
(lp2661
S':'
asbag53
(g74
g55
NtRp2662
(dp2663
g58
(dp2664
sg67
g2649
sg60
(lp2665
g53
(g54
g55
NtRp2666
(dp2667
g58
(dp2668
g66
I3
ssg67
g2662
sg60
(lp2669
g1226
asbasbasbag53
(g69
g55
NtRp2670
(dp2671
g58
(dp2672
sg67
g2540
sg60
(lp2673
g53
(g74
g55
NtRp2674
(dp2675
g58
(dp2676
g78
g79
ssg67
g2670
sg60
(lp2677
S'HTTP_REFERER'
p2678
asbag53
(g74
g55
NtRp2679
(dp2680
g58
(dp2681
g85
g86
ssg67
g2670
sg60
(lp2682
S':'
asbag53
(g74
g55
NtRp2683
(dp2684
g58
(dp2685
sg67
g2670
sg60
(lp2686
g53
(g54
g55
NtRp2687
(dp2688
g58
(dp2689
g66
I3
ssg67
g2683
sg60
(lp2690
g1248
asbasbasbag53
(g69
g55
NtRp2691
(dp2692
g58
(dp2693
sg67
g2540
sg60
(lp2694
g53
(g74
g55
NtRp2695
(dp2696
g58
(dp2697
g78
g79
ssg67
g2691
sg60
(lp2698
S'HTTP_USER_AGENT'
p2699
asbag53
(g74
g55
NtRp2700
(dp2701
g58
(dp2702
g85
g86
ssg67
g2691
sg60
(lp2703
S':'
asbag53
(g74
g55
NtRp2704
(dp2705
g58
(dp2706
sg67
g2691
sg60
(lp2707
g53
(g54
g55
NtRp2708
(dp2709
g58
(dp2710
g66
I3
ssg67
g2704
sg60
(lp2711
g1270
asbasbasbag53
(g69
g55
NtRp2712
(dp2713
g58
(dp2714
sg67
g2540
sg60
(lp2715
g53
(g74
g55
NtRp2716
(dp2717
g58
(dp2718
g78
g79
ssg67
g2712
sg60
(lp2719
S'PATH_INFO'
p2720
asbag53
(g74
g55
NtRp2721
(dp2722
g58
(dp2723
g85
g86
ssg67
g2712
sg60
(lp2724
S':'
asbag53
(g74
g55
NtRp2725
(dp2726
g58
(dp2727
sg67
g2712
sg60
(lp2728
g53
(g54
g55
NtRp2729
(dp2730
g58
(dp2731
g66
I3
ssg67
g2725
sg60
(lp2732
g1334
asbasbasbag53
(g69
g55
NtRp2733
(dp2734
g58
(dp2735
sg67
g2540
sg60
(lp2736
g53
(g74
g55
NtRp2737
(dp2738
g58
(dp2739
g78
g79
ssg67
g2733
sg60
(lp2740
S'QUERY_STRING'
p2741
asbag53
(g74
g55
NtRp2742
(dp2743
g58
(dp2744
g85
g86
ssg67
g2733
sg60
(lp2745
S':'
asbag53
(g74
g55
NtRp2746
(dp2747
g58
(dp2748
sg67
g2733
sg60
(lp2749
g53
(g54
g55
NtRp2750
(dp2751
g58
(dp2752
g66
I3
ssg67
g2746
sg60
(lp2753
S''
asbasbasbag53
(g69
g55
NtRp2754
(dp2755
g58
(dp2756
sg67
g2540
sg60
(lp2757
g53
(g74
g55
NtRp2758
(dp2759
g58
(dp2760
g78
g79
ssg67
g2754
sg60
(lp2761
S'REMOTE_ADDR'
p2762
asbag53
(g74
g55
NtRp2763
(dp2764
g58
(dp2765
g85
g86
ssg67
g2754
sg60
(lp2766
S':'
asbag53
(g74
g55
NtRp2767
(dp2768
g58
(dp2769
sg67
g2754
sg60
(lp2770
g53
(g54
g55
NtRp2771
(dp2772
g58
(dp2773
g66
I3
ssg67
g2767
sg60
(lp2774
g199
asbasbasbag53
(g69
g55
NtRp2775
(dp2776
g58
(dp2777
sg67
g2540
sg60
(lp2778
g53
(g74
g55
NtRp2779
(dp2780
g58
(dp2781
g78
g79
ssg67
g2775
sg60
(lp2782
S'REMOTE_PORT'
p2783
asbag53
(g74
g55
NtRp2784
(dp2785
g58
(dp2786
g85
g86
ssg67
g2775
sg60
(lp2787
S':'
asbag53
(g74
g55
NtRp2788
(dp2789
g58
(dp2790
sg67
g2775
sg60
(lp2791
g53
(g54
g55
NtRp2792
(dp2793
g58
(dp2794
g66
I3
ssg67
g2788
sg60
(lp2795
g1398
asbasbasbag53
(g69
g55
NtRp2796
(dp2797
g58
(dp2798
sg67
g2540
sg60
(lp2799
g53
(g74
g55
NtRp2800
(dp2801
g58
(dp2802
g78
g79
ssg67
g2796
sg60
(lp2803
S'REQUEST_METHOD'
p2804
asbag53
(g74
g55
NtRp2805
(dp2806
g58
(dp2807
g85
g86
ssg67
g2796
sg60
(lp2808
S':'
asbag53
(g74
g55
NtRp2809
(dp2810
g58
(dp2811
sg67
g2796
sg60
(lp2812
g53
(g54
g55
NtRp2813
(dp2814
g58
(dp2815
g66
I3
ssg67
g2809
sg60
(lp2816
g1420
asbasbasbag53
(g69
g55
NtRp2817
(dp2818
g58
(dp2819
sg67
g2540
sg60
(lp2820
g53
(g74
g55
NtRp2821
(dp2822
g58
(dp2823
g78
g79
ssg67
g2817
sg60
(lp2824
S'SCRIPT_NAME'
p2825
asbag53
(g74
g55
NtRp2826
(dp2827
g58
(dp2828
g85
g86
ssg67
g2817
sg60
(lp2829
S':'
asbag53
(g74
g55
NtRp2830
(dp2831
g58
(dp2832
sg67
g2817
sg60
(lp2833
g53
(g54
g55
NtRp2834
(dp2835
g58
(dp2836
g66
I3
ssg67
g2830
sg60
(lp2837
S''
asbasbasbag53
(g69
g55
NtRp2838
(dp2839
g58
(dp2840
sg67
g2540
sg60
(lp2841
g53
(g74
g55
NtRp2842
(dp2843
g58
(dp2844
g78
g79
ssg67
g2838
sg60
(lp2845
S'SERVER_NAME'
p2846
asbag53
(g74
g55
NtRp2847
(dp2848
g58
(dp2849
g85
g86
ssg67
g2838
sg60
(lp2850
S':'
asbag53
(g74
g55
NtRp2851
(dp2852
g58
(dp2853
sg67
g2838
sg60
(lp2854
g53
(g54
g55
NtRp2855
(dp2856
g58
(dp2857
g66
I3
ssg67
g2851
sg60
(lp2858
g1463
asbasbasbag53
(g69
g55
NtRp2859
(dp2860
g58
(dp2861
sg67
g2540
sg60
(lp2862
g53
(g74
g55
NtRp2863
(dp2864
g58
(dp2865
g78
g79
ssg67
g2859
sg60
(lp2866
S'SERVER_PORT'
p2867
asbag53
(g74
g55
NtRp2868
(dp2869
g58
(dp2870
g85
g86
ssg67
g2859
sg60
(lp2871
S':'
asbag53
(g74
g55
NtRp2872
(dp2873
g58
(dp2874
sg67
g2859
sg60
(lp2875
g53
(g54
g55
NtRp2876
(dp2877
g58
(dp2878
g66
I3
ssg67
g2872
sg60
(lp2879
g1485
asbasbasbag53
(g69
g55
NtRp2880
(dp2881
g58
(dp2882
sg67
g2540
sg60
(lp2883
g53
(g74
g55
NtRp2884
(dp2885
g58
(dp2886
g78
g79
ssg67
g2880
sg60
(lp2887
S'SERVER_PROTOCOL'
p2888
asbag53
(g74
g55
NtRp2889
(dp2890
g58
(dp2891
g85
g86
ssg67
g2880
sg60
(lp2892
S':'
asbag53
(g74
g55
NtRp2893
(dp2894
g58
(dp2895
sg67
g2880
sg60
(lp2896
g53
(g54
g55
NtRp2897
(dp2898
g58
(dp2899
g66
I3
ssg67
g2893
sg60
(lp2900
g1507
asbasbasbag53
(g69
g55
NtRp2901
(dp2902
g58
(dp2903
sg67
g2540
sg60
(lp2904
g53
(g74
g55
NtRp2905
(dp2906
g58
(dp2907
g78
g79
ssg67
g2901
sg60
(lp2908
S'SERVER_SOFTWARE'
p2909
asbag53
(g74
g55
NtRp2910
(dp2911
g58
(dp2912
g85
g86
ssg67
g2901
sg60
(lp2913
S':'
asbag53
(g74
g55
NtRp2914
(dp2915
g58
(dp2916
sg67
g2901
sg60
(lp2917
g53
(g54
g55
NtRp2918
(dp2919
g58
(dp2920
g66
I3
ssg67
g2914
sg60
(lp2921
g1529
asbasbasbag53
(g69
g55
NtRp2922
(dp2923
g58
(dp2924
sg67
g2540
sg60
(lp2925
g53
(g74
g55
NtRp2926
(dp2927
g58
(dp2928
g78
g79
ssg67
g2922
sg60
(lp2929
S'wsgi.errors'
p2930
asbag53
(g74
g55
NtRp2931
(dp2932
g58
(dp2933
g85
g86
ssg67
g2922
sg60
(lp2934
S':'
asbag53
(g74
g55
NtRp2935
(dp2936
g58
(dp2937
sg67
g2922
sg60
(lp2938
g53
(g54
g55
NtRp2939
(dp2940
g58
(dp2941
g66
I3
ssg67
g2935
sg60
(lp2942
S"<open file '<stderr>', mode 'w' at 0x01F400B0>"
p2943
asbasbasbag53
(g69
g55
NtRp2944
(dp2945
g58
(dp2946
sg67
g2540
sg60
(lp2947
g53
(g74
g55
NtRp2948
(dp2949
g58
(dp2950
g78
g79
ssg67
g2944
sg60
(lp2951
S'wsgi.file_wrapper'
p2952
asbag53
(g74
g55
NtRp2953
(dp2954
g58
(dp2955
g85
g86
ssg67
g2944
sg60
(lp2956
S':'
asbag53
(g74
g55
NtRp2957
(dp2958
g58
(dp2959
sg67
g2944
sg60
(lp2960
g53
(g54
g55
NtRp2961
(dp2962
g58
(dp2963
g66
I3
ssg67
g2957
sg60
(lp2964
S'<class wsgiref.util.FileWrapper at 0x02EB5390>'
p2965
asbasbasbag53
(g69
g55
NtRp2966
(dp2967
g58
(dp2968
sg67
g2540
sg60
(lp2969
g53
(g74
g55
NtRp2970
(dp2971
g58
(dp2972
g78
g79
ssg67
g2966
sg60
(lp2973
S'wsgi.input'
p2974
asbag53
(g74
g55
NtRp2975
(dp2976
g58
(dp2977
g85
g86
ssg67
g2966
sg60
(lp2978
S':'
asbag53
(g74
g55
NtRp2979
(dp2980
g58
(dp2981
sg67
g2966
sg60
(lp2982
g53
(g54
g55
NtRp2983
(dp2984
g58
(dp2985
g66
I3
ssg67
g2979
sg60
(lp2986
S'<cStringIO.StringO object at 0x069A32A0>'
p2987
asbasbasbag53
(g69
g55
NtRp2988
(dp2989
g58
(dp2990
sg67
g2540
sg60
(lp2991
g53
(g74
g55
NtRp2992
(dp2993
g58
(dp2994
g78
g79
ssg67
g2988
sg60
(lp2995
S'wsgi.multiprocess'
p2996
asbag53
(g74
g55
NtRp2997
(dp2998
g58
(dp2999
g85
g86
ssg67
g2988
sg60
(lp3000
S':'
asbag53
(g74
g55
NtRp3001
(dp3002
g58
(dp3003
sg67
g2988
sg60
(lp3004
g53
(g54
g55
NtRp3005
(dp3006
g58
(dp3007
g66
I3
ssg67
g3001
sg60
(lp3008
g96
asbasbasbag53
(g69
g55
NtRp3009
(dp3010
g58
(dp3011
sg67
g2540
sg60
(lp3012
g53
(g74
g55
NtRp3013
(dp3014
g58
(dp3015
g78
g79
ssg67
g3009
sg60
(lp3016
S'wsgi.multithread'
p3017
asbag53
(g74
g55
NtRp3018
(dp3019
g58
(dp3020
g85
g86
ssg67
g3009
sg60
(lp3021
S':'
asbag53
(g74
g55
NtRp3022
(dp3023
g58
(dp3024
sg67
g3009
sg60
(lp3025
g53
(g54
g55
NtRp3026
(dp3027
g58
(dp3028
g66
I3
ssg67
g3022
sg60
(lp3029
g1769
asbasbasbag53
(g69
g55
NtRp3030
(dp3031
g58
(dp3032
sg67
g2540
sg60
(lp3033
g53
(g74
g55
NtRp3034
(dp3035
g58
(dp3036
g78
g79
ssg67
g3030
sg60
(lp3037
S'wsgi.run_once'
p3038
asbag53
(g74
g55
NtRp3039
(dp3040
g58
(dp3041
g85
g86
ssg67
g3030
sg60
(lp3042
S':'
asbag53
(g74
g55
NtRp3043
(dp3044
g58
(dp3045
sg67
g3030
sg60
(lp3046
g53
(g54
g55
NtRp3047
(dp3048
g58
(dp3049
g66
I3
ssg67
g3043
sg60
(lp3050
g96
asbasbasbag53
(g69
g55
NtRp3051
(dp3052
g58
(dp3053
sg67
g2540
sg60
(lp3054
g53
(g74
g55
NtRp3055
(dp3056
g58
(dp3057
g78
g79
ssg67
g3051
sg60
(lp3058
S'wsgi.url_scheme'
p3059
asbag53
(g74
g55
NtRp3060
(dp3061
g58
(dp3062
g85
g86
ssg67
g3051
sg60
(lp3063
S':'
asbag53
(g74
g55
NtRp3064
(dp3065
g58
(dp3066
sg67
g3051
sg60
(lp3067
g53
(g54
g55
NtRp3068
(dp3069
g58
(dp3070
g66
I3
ssg67
g3064
sg60
(lp3071
g1812
asbasbasbag53
(g69
g55
NtRp3072
(dp3073
g58
(dp3074
sg67
g2540
sg60
(lp3075
g53
(g74
g55
NtRp3076
(dp3077
g58
(dp3078
g78
g79
ssg67
g3072
sg60
(lp3079
S'wsgi.version'
p3080
asbag53
(g74
g55
NtRp3081
(dp3082
g58
(dp3083
g85
g86
ssg67
g3072
sg60
(lp3084
S':'
asbag53
(g74
g55
NtRp3085
(dp3086
g58
(dp3087
sg67
g3072
sg60
(lp3088
g53
(g54
g55
NtRp3089
(dp3090
g58
(dp3091
g66
I3
ssg67
g3085
sg60
(lp3092
S'1'
asbasbasbasbasbasbasbasbasbasbasbasbasbsS'frames'
p3093
(lp3094
(dp3095
S'file'
p3096
S'D:\\Dise\xf1o Web\\Proyectos\\Parleyweb\\web2py\\gluon\\restricted.py'
p3097
sS'dump'
p3098
(dp3099
sS'lnum'
p3100
I205
sS'lines'
p3101
(dp3102
sS'call'
p3103
S"(code='# -*- coding: utf-8 -*-\\n# this file is released ...\\n\\n\\n\\n\\n\\n\\n\\nresponse._vars=response._caller(mostrar)\\n', environment={'A': <class 'gluon.html.A'>, 'Auth': <class 'gluon.tools.Auth'>, 'B': <class 'gluon.html.B'>, 'BEAUTIFY': <class 'gluon.html.BEAUTIFY'>, 'BODY': <class 'gluon.html.BODY'>, 'BR': <class 'gluon.html.BR'>, 'BUTTON': <class 'gluon.html.BUTTON'>, 'CAT': <class 'gluon.html.CAT'>, 'CENTER': <class 'gluon.html.CENTER'>, 'CLEANUP': <class 'gluon.validators.CLEANUP'>, ...}, layer='D:\\\\Dise\\xf1o Web\\\\Proyectos\\\\Parleyweb\\\\web2py\\\\applications\\\\parleyweb\\\\controllers/default.py')"
p3104
sS'func'
p3105
S'restricted'
p3106
sa(dp3107
g3096
S'D:\\Dise\xf1o Web\\Proyectos\\Parleyweb\\web2py\\applications\\parleyweb\\controllers\\default.py'
p3108
sg3098
(dp3109
sg3100
I113
sg3101
(dp3110
I102
S''
sI103
S''
sI104
S''
sI105
S''
sI106
S''
sI107
S''
sI108
S''
sI109
S''
sI110
S''
sI111
S''
ssg3103
S'()'
p3111
sg3105
S'<module>'
p3112
sa(dp3113
g3096
S'D:\\Dise\xf1o Web\\Proyectos\\Parleyweb\\web2py\\gluon\\globals.py'
p3114
sg3098
(dp3115
sg3100
I173
sg3101
(dp3116
sg3103
S'(f=<function mostrar at 0x07C2BE30>)'
p3117
sg3105
S'<lambda>'
p3118
sa(dp3119
g3096
S'D:\\Dise\xf1o Web\\Proyectos\\Parleyweb\\web2py\\applications\\parleyweb\\controllers\\default.py'
p3120
sg3098
(dp3121
sg3100
I78
sg3101
(dp3122
I73
S'    return dict(form=crud())'
p3123
sI74
S''
sI75
S'def mostrar():'
p3124
sI76
S'    palabras = db((db.palabras.id==request.args(0))).select().first()'
p3125
sI77
S'    igualar = db((db.palabras.id==db.palabra_ejemplo.palabra)&(db.ejemplos.id==db.palabra_ejemplo.ejemplo))'
p3126
sI78
S'    ejemplos = igualar(db.palabras.id==request.args(0)).select(db.ejemplos)'
p3127
sI79
S''
sI80
S'    return dict(palabras=palabras, ejemplos=ejemplos)'
p3128
sI81
S''
sI82
S''
ssg3103
S'()'
p3129
sg3105
S'mostrar'
p3130
sa(dp3131
g3096
S'D:\\Dise\xf1o Web\\Proyectos\\Parleyweb\\web2py\\gluon\\dal.py'
p3132
sg3098
(dp3133
sg3100
I7578
sg3101
(dp3134
sg3103
S"(self=<gluon.dal.Set object at 0x06B3BA30>, *fields=[<Table {'ALL': <gluon.dal.SQLALL object at 0x06B...>, 'id': <gluon.dal.Field object at 0x06B3BDF0>}>], **attributes={})"
p3135
sg3105
S'select'
p3136
sa(dp3137
g3096
S'D:\\Dise\xf1o Web\\Proyectos\\Parleyweb\\web2py\\gluon\\dal.py'
p3138
sg3098
(dp3139
sg3100
I1315
sg3101
(dp3140
sg3103
S"(self=<gluon.dal.SQLiteAdapter object at 0x070EFC90>, query=<gluon.dal.Query object at 0x06B3B1F0>, fields=[<Table {'ALL': <gluon.dal.SQLALL object at 0x06B...>, 'id': <gluon.dal.Field object at 0x06B3BDF0>}>], attributes={})"
p3141
sg3105
g3136
sa(dp3142
g3096
S'D:\\Dise\xf1o Web\\Proyectos\\Parleyweb\\web2py\\gluon\\dal.py'
p3143
sg3098
(dp3144
sg3100
I1305
sg3101
(dp3145
sg3103
S"(sql='SELECT  ejemplos FROM palabras, palabra_ejemplo,...alabra_ejemplo.ejemplo)) AND (palabras.id = 82));')"
p3146
sg3105
S'response'
p3147
sa(dp3148
g3096
S'D:\\Dise\xf1o Web\\Proyectos\\Parleyweb\\web2py\\gluon\\dal.py'
p3149
sg3098
(dp3150
sg3100
I1392
sg3101
(dp3151
sg3103
S"(self=<gluon.dal.SQLiteAdapter object at 0x070EFC90>, *a=('SELECT  ejemplos FROM palabras, palabra_ejemplo,...alabra_ejemplo.ejemplo)) AND (palabras.id = 82));',), **b={})"
p3152
sg3105
S'execute'
p3153
sa(dp3154
g3096
S'D:\\Dise\xf1o Web\\Proyectos\\Parleyweb\\web2py\\gluon\\dal.py'
p3155
sg3098
(dp3156
sg3100
I1386
sg3101
(dp3157
sg3103
S"(self=<gluon.dal.SQLiteAdapter object at 0x070EFC90>, *a=('SELECT  ejemplos FROM palabras, palabra_ejemplo,...alabra_ejemplo.ejemplo)) AND (palabras.id = 82));',), **b={})"
p3158
sg3105
S'log_execute'
p3159
sasS'pyver'
p3160
S'Python 2.5.4: D:\\Dise\xf1o Web\\Proyectos\\Parleyweb\\web2py\\web2py.exe'
p3161
sS'session'
p3162
g53
(g54
g55
NtRp3163
(dp3164
g58
(dp3165
sg60
(lp3166
g53
(g62
g55
NtRp3167
(dp3168
g58
(dp3169
g66
I5
ssg67
Nsg60
(lp3170
g53
(g69
g55
NtRp3171
(dp3172
g58
(dp3173
sg67
g3167
sg60
(lp3174
g53
(g74
g55
NtRp3175
(dp3176
g58
(dp3177
g78
g79
ssg67
g3171
sg60
(lp3178
S'last_query'
p3179
asbag53
(g74
g55
NtRp3180
(dp3181
g58
(dp3182
g85
g86
ssg67
g3171
sg60
(lp3183
S':'
asbag53
(g74
g55
NtRp3184
(dp3185
g58
(dp3186
sg67
g3171
sg60
(lp3187
g53
(g54
g55
NtRp3188
(dp3189
g58
(dp3190
g66
I5
ssg67
g3184
sg60
(lp3191
S'db.palabras.id>0'
p3192
asbasbasbasbasbsS'etype'
p3193
S"<class 'sqlite3.OperationalError'>"
p3194
sS'date'
p3195
S'Sat Mar 10 23:02:21 2012'
p3196
sg3147
g53
(g54
g55
NtRp3197
(dp3198
g58
(dp3199
sg60
(lp3200
g53
(g62
g55
NtRp3201
(dp3202
g58
(dp3203
g66
I5
ssg67
Nsg60
(lp3204
g53
(g69
g55
NtRp3205
(dp3206
g58
(dp3207
sg67
g3201
sg60
(lp3208
g53
(g74
g55
NtRp3209
(dp3210
g58
(dp3211
g78
g79
ssg67
g3205
sg60
(lp3212
g164
asbag53
(g74
g55
NtRp3213
(dp3214
g58
(dp3215
g85
g86
ssg67
g3205
sg60
(lp3216
S':'
asbag53
(g74
g55
NtRp3217
(dp3218
g58
(dp3219
sg67
g3205
sg60
(lp3220
g53
(g54
g55
NtRp3221
(dp3222
g58
(dp3223
g66
I5
ssg67
g3217
sg60
(lp3224
S'<cStringIO.StringO object at 0x06F4F9E0>'
p3225
asbasbasbag53
(g69
g55
NtRp3226
(dp3227
g58
(dp3228
sg67
g3201
sg60
(lp3229
g53
(g74
g55
NtRp3230
(dp3231
g58
(dp3232
g78
g79
ssg67
g3226
sg60
(lp3233
g230
asbag53
(g74
g55
NtRp3234
(dp3235
g58
(dp3236
g85
g86
ssg67
g3226
sg60
(lp3237
S':'
asbag53
(g74
g55
NtRp3238
(dp3239
g58
(dp3240
sg67
g3226
sg60
(lp3241
g53
(g54
g55
NtRp3242
(dp3243
g58
(dp3244
g66
I5
ssg67
g3238
sg60
(lp3245
g53
(g62
g55
NtRp3246
(dp3247
g58
(dp3248
g66
I4
ssg67
Nsg60
(lp3249
g53
(g69
g55
NtRp3250
(dp3251
g58
(dp3252
sg67
g3246
sg60
(lp3253
g53
(g74
g55
NtRp3254
(dp3255
g58
(dp3256
g78
g79
ssg67
g3250
sg60
(lp3257
S'session_id_parleyweb'
p3258
asbag53
(g74
g55
NtRp3259
(dp3260
g58
(dp3261
g85
g86
ssg67
g3250
sg60
(lp3262
S':'
asbag53
(g74
g55
NtRp3263
(dp3264
g58
(dp3265
sg67
g3250
sg60
(lp3266
g53
(g54
g55
NtRp3267
(dp3268
g58
(dp3269
g66
I4
ssg67
g3263
sg60
(lp3270
g53
(g62
g55
NtRp3271
(dp3272
g58
(dp3273
g66
I3
ssg67
Nsg60
(lp3274
g53
(g69
g55
NtRp3275
(dp3276
g58
(dp3277
sg67
g3271
sg60
(lp3278
g53
(g74
g55
NtRp3279
(dp3280
g58
(dp3281
g78
g79
ssg67
g3275
sg60
(lp3282
g280
asbag53
(g74
g55
NtRp3283
(dp3284
g58
(dp3285
g85
g86
ssg67
g3275
sg60
(lp3286
S':'
asbag53
(g74
g55
NtRp3287
(dp3288
g58
(dp3289
sg67
g3275
sg60
(lp3290
g53
(g54
g55
NtRp3291
(dp3292
g58
(dp3293
g66
I3
ssg67
g3287
sg60
(lp3294
S''
asbasbasbag53
(g69
g55
NtRp3295
(dp3296
g58
(dp3297
sg67
g3271
sg60
(lp3298
g53
(g74
g55
NtRp3299
(dp3300
g58
(dp3301
g78
g79
ssg67
g3295
sg60
(lp3302
g301
asbag53
(g74
g55
NtRp3303
(dp3304
g58
(dp3305
g85
g86
ssg67
g3295
sg60
(lp3306
S':'
asbag53
(g74
g55
NtRp3307
(dp3308
g58
(dp3309
sg67
g3295
sg60
(lp3310
g53
(g54
g55
NtRp3311
(dp3312
g58
(dp3313
g66
I3
ssg67
g3307
sg60
(lp3314
S''
asbasbasbag53
(g69
g55
NtRp3315
(dp3316
g58
(dp3317
sg67
g3271
sg60
(lp3318
g53
(g74
g55
NtRp3319
(dp3320
g58
(dp3321
g78
g79
ssg67
g3315
sg60
(lp3322
g322
asbag53
(g74
g55
NtRp3323
(dp3324
g58
(dp3325
g85
g86
ssg67
g3315
sg60
(lp3326
S':'
asbag53
(g74
g55
NtRp3327
(dp3328
g58
(dp3329
sg67
g3315
sg60
(lp3330
g53
(g54
g55
NtRp3331
(dp3332
g58
(dp3333
g66
I3
ssg67
g3327
sg60
(lp3334
S''
asbasbasbag53
(g69
g55
NtRp3335
(dp3336
g58
(dp3337
sg67
g3271
sg60
(lp3338
g53
(g74
g55
NtRp3339
(dp3340
g58
(dp3341
g78
g79
ssg67
g3335
sg60
(lp3342
g343
asbag53
(g74
g55
NtRp3343
(dp3344
g58
(dp3345
g85
g86
ssg67
g3335
sg60
(lp3346
S':'
asbag53
(g74
g55
NtRp3347
(dp3348
g58
(dp3349
sg67
g3335
sg60
(lp3350
g53
(g54
g55
NtRp3351
(dp3352
g58
(dp3353
g66
I3
ssg67
g3347
sg60
(lp3354
S''
asbasbasbag53
(g69
g55
NtRp3355
(dp3356
g58
(dp3357
sg67
g3271
sg60
(lp3358
g53
(g74
g55
NtRp3359
(dp3360
g58
(dp3361
g78
g79
ssg67
g3355
sg60
(lp3362
g364
asbag53
(g74
g55
NtRp3363
(dp3364
g58
(dp3365
g85
g86
ssg67
g3355
sg60
(lp3366
S':'
asbag53
(g74
g55
NtRp3367
(dp3368
g58
(dp3369
sg67
g3355
sg60
(lp3370
g53
(g54
g55
NtRp3371
(dp3372
g58
(dp3373
g66
I3
ssg67
g3367
sg60
(lp3374
S'/'
asbasbasbag53
(g69
g55
NtRp3375
(dp3376
g58
(dp3377
sg67
g3271
sg60
(lp3378
g53
(g74
g55
NtRp3379
(dp3380
g58
(dp3381
g78
g79
ssg67
g3375
sg60
(lp3382
g385
asbag53
(g74
g55
NtRp3383
(dp3384
g58
(dp3385
g85
g86
ssg67
g3375
sg60
(lp3386
S':'
asbag53
(g74
g55
NtRp3387
(dp3388
g58
(dp3389
sg67
g3375
sg60
(lp3390
g53
(g54
g55
NtRp3391
(dp3392
g58
(dp3393
g66
I3
ssg67
g3387
sg60
(lp3394
S''
asbasbasbag53
(g69
g55
NtRp3395
(dp3396
g58
(dp3397
sg67
g3271
sg60
(lp3398
g53
(g74
g55
NtRp3399
(dp3400
g58
(dp3401
g78
g79
ssg67
g3395
sg60
(lp3402
g406
asbag53
(g74
g55
NtRp3403
(dp3404
g58
(dp3405
g85
g86
ssg67
g3395
sg60
(lp3406
S':'
asbag53
(g74
g55
NtRp3407
(dp3408
g58
(dp3409
sg67
g3395
sg60
(lp3410
g53
(g54
g55
NtRp3411
(dp3412
g58
(dp3413
g66
I3
ssg67
g3407
sg60
(lp3414
S''
asbasbasbasbasbasbasbasbasbasbasbag53
(g69
g55
NtRp3415
(dp3416
g58
(dp3417
sg67
g3201
sg60
(lp3418
g53
(g74
g55
NtRp3419
(dp3420
g58
(dp3421
g78
g79
ssg67
g3415
sg60
(lp3422
S'delimiters'
p3423
asbag53
(g74
g55
NtRp3424
(dp3425
g58
(dp3426
g85
g86
ssg67
g3415
sg60
(lp3427
S':'
asbag53
(g74
g55
NtRp3428
(dp3429
g58
(dp3430
sg67
g3415
sg60
(lp3431
g53
(g54
g55
NtRp3432
(dp3433
g58
(dp3434
g66
I5
ssg67
g3428
sg60
(lp3435
g53
(g62
g55
NtRp3436
(dp3437
g58
(dp3438
g66
I4
ssg67
Nsg60
(lp3439
g53
(g69
g55
NtRp3440
(dp3441
g58
(dp3442
sg67
g3436
sg60
(lp3443
g53
(g74
g55
NtRp3444
(dp3445
g58
(dp3446
sg67
g3440
sg60
(lp3447
g53
(g54
g55
NtRp3448
(dp3449
g58
(dp3450
g66
I4
ssg67
g3444
sg60
(lp3451
S'{{'
p3452
asbasbasbag53
(g69
g55
NtRp3453
(dp3454
g58
(dp3455
sg67
g3436
sg60
(lp3456
g53
(g74
g55
NtRp3457
(dp3458
g58
(dp3459
sg67
g3453
sg60
(lp3460
g53
(g54
g55
NtRp3461
(dp3462
g58
(dp3463
g66
I4
ssg67
g3457
sg60
(lp3464
S'}}'
p3465
asbasbasbasbasbasbasbag53
(g69
g55
NtRp3466
(dp3467
g58
(dp3468
sg67
g3201
sg60
(lp3469
g53
(g74
g55
NtRp3470
(dp3471
g58
(dp3472
g78
g79
ssg67
g3466
sg60
(lp3473
S'files'
p3474
asbag53
(g74
g55
NtRp3475
(dp3476
g58
(dp3477
g85
g86
ssg67
g3466
sg60
(lp3478
S':'
asbag53
(g74
g55
NtRp3479
(dp3480
g58
(dp3481
sg67
g3466
sg60
(lp3482
g53
(g54
g55
NtRp3483
(dp3484
g58
(dp3485
g66
I5
ssg67
g3479
sg60
(lp3486
g53
(g62
g55
NtRp3487
(dp3488
g58
(dp3489
g66
I4
ssg67
Nsg60
(lp3490
sbasbasbasbag53
(g69
g55
NtRp3491
(dp3492
g58
(dp3493
sg67
g3201
sg60
(lp3494
g53
(g74
g55
NtRp3495
(dp3496
g58
(dp3497
g78
g79
ssg67
g3491
sg60
(lp3498
S'flash'
p3499
asbag53
(g74
g55
NtRp3500
(dp3501
g58
(dp3502
g85
g86
ssg67
g3491
sg60
(lp3503
S':'
asbag53
(g74
g55
NtRp3504
(dp3505
g58
(dp3506
sg67
g3491
sg60
(lp3507
g53
(g54
g55
NtRp3508
(dp3509
g58
(dp3510
g66
I5
ssg67
g3504
sg60
(lp3511
S''
asbasbasbag53
(g69
g55
NtRp3512
(dp3513
g58
(dp3514
sg67
g3201
sg60
(lp3515
g53
(g74
g55
NtRp3516
(dp3517
g58
(dp3518
g78
g79
ssg67
g3512
sg60
(lp3519
S'generic_patterns'
p3520
asbag53
(g74
g55
NtRp3521
(dp3522
g58
(dp3523
g85
g86
ssg67
g3512
sg60
(lp3524
S':'
asbag53
(g74
g55
NtRp3525
(dp3526
g58
(dp3527
sg67
g3512
sg60
(lp3528
g53
(g54
g55
NtRp3529
(dp3530
g58
(dp3531
g66
I5
ssg67
g3525
sg60
(lp3532
g53
(g62
g55
NtRp3533
(dp3534
g58
(dp3535
g66
I4
ssg67
Nsg60
(lp3536
g53
(g69
g55
NtRp3537
(dp3538
g58
(dp3539
sg67
g3533
sg60
(lp3540
g53
(g74
g55
NtRp3541
(dp3542
g58
(dp3543
sg67
g3537
sg60
(lp3544
g53
(g54
g55
NtRp3545
(dp3546
g58
(dp3547
g66
I4
ssg67
g3541
sg60
(lp3548
S'*'
asbasbasbasbasbasbasbag53
(g69
g55
NtRp3549
(dp3550
g58
(dp3551
sg67
g3201
sg60
(lp3552
g53
(g74
g55
NtRp3553
(dp3554
g58
(dp3555
g78
g79
ssg67
g3549
sg60
(lp3556
S'headers'
p3557
asbag53
(g74
g55
NtRp3558
(dp3559
g58
(dp3560
g85
g86
ssg67
g3549
sg60
(lp3561
S':'
asbag53
(g74
g55
NtRp3562
(dp3563
g58
(dp3564
sg67
g3549
sg60
(lp3565
g53
(g54
g55
NtRp3566
(dp3567
g58
(dp3568
g66
I5
ssg67
g3562
sg60
(lp3569
g53
(g62
g55
NtRp3570
(dp3571
g58
(dp3572
g66
I4
ssg67
Nsg60
(lp3573
g53
(g69
g55
NtRp3574
(dp3575
g58
(dp3576
sg67
g3570
sg60
(lp3577
g53
(g74
g55
NtRp3578
(dp3579
g58
(dp3580
g78
g79
ssg67
g3574
sg60
(lp3581
S'Cache-Control'
p3582
asbag53
(g74
g55
NtRp3583
(dp3584
g58
(dp3585
g85
g86
ssg67
g3574
sg60
(lp3586
S':'
asbag53
(g74
g55
NtRp3587
(dp3588
g58
(dp3589
sg67
g3574
sg60
(lp3590
g53
(g54
g55
NtRp3591
(dp3592
g58
(dp3593
g66
I4
ssg67
g3587
sg60
(lp3594
S'no-store, no-cache, must-revalidate, post-check=0, pre-check=0'
p3595
asbasbasbag53
(g69
g55
NtRp3596
(dp3597
g58
(dp3598
sg67
g3570
sg60
(lp3599
g53
(g74
g55
NtRp3600
(dp3601
g58
(dp3602
g78
g79
ssg67
g3596
sg60
(lp3603
S'Content-Type'
p3604
asbag53
(g74
g55
NtRp3605
(dp3606
g58
(dp3607
g85
g86
ssg67
g3596
sg60
(lp3608
S':'
asbag53
(g74
g55
NtRp3609
(dp3610
g58
(dp3611
sg67
g3596
sg60
(lp3612
g53
(g54
g55
NtRp3613
(dp3614
g58
(dp3615
g66
I4
ssg67
g3609
sg60
(lp3616
S'text/html; charset=utf-8'
p3617
asbasbasbag53
(g69
g55
NtRp3618
(dp3619
g58
(dp3620
sg67
g3570
sg60
(lp3621
g53
(g74
g55
NtRp3622
(dp3623
g58
(dp3624
g78
g79
ssg67
g3618
sg60
(lp3625
S'Expires'
p3626
asbag53
(g74
g55
NtRp3627
(dp3628
g58
(dp3629
g85
g86
ssg67
g3618
sg60
(lp3630
S':'
asbag53
(g74
g55
NtRp3631
(dp3632
g58
(dp3633
sg67
g3618
sg60
(lp3634
g53
(g54
g55
NtRp3635
(dp3636
g58
(dp3637
g66
I4
ssg67
g3631
sg60
(lp3638
S'Sat, 10 Mar 2012 22:02:21 GMT'
p3639
asbasbasbag53
(g69
g55
NtRp3640
(dp3641
g58
(dp3642
sg67
g3570
sg60
(lp3643
g53
(g74
g55
NtRp3644
(dp3645
g58
(dp3646
g78
g79
ssg67
g3640
sg60
(lp3647
S'Pragma'
p3648
asbag53
(g74
g55
NtRp3649
(dp3650
g58
(dp3651
g85
g86
ssg67
g3640
sg60
(lp3652
S':'
asbag53
(g74
g55
NtRp3653
(dp3654
g58
(dp3655
sg67
g3640
sg60
(lp3656
g53
(g54
g55
NtRp3657
(dp3658
g58
(dp3659
g66
I4
ssg67
g3653
sg60
(lp3660
S'no-cache'
p3661
asbasbasbag53
(g69
g55
NtRp3662
(dp3663
g58
(dp3664
sg67
g3570
sg60
(lp3665
g53
(g74
g55
NtRp3666
(dp3667
g58
(dp3668
g78
g79
ssg67
g3662
sg60
(lp3669
S'X-Powered-By'
p3670
asbag53
(g74
g55
NtRp3671
(dp3672
g58
(dp3673
g85
g86
ssg67
g3662
sg60
(lp3674
S':'
asbag53
(g74
g55
NtRp3675
(dp3676
g58
(dp3677
sg67
g3662
sg60
(lp3678
g53
(g54
g55
NtRp3679
(dp3680
g58
(dp3681
g66
I4
ssg67
g3675
sg60
(lp3682
S'web2py'
p3683
asbasbasbasbasbasbasbag53
(g69
g55
NtRp3684
(dp3685
g58
(dp3686
sg67
g3201
sg60
(lp3687
g53
(g74
g55
NtRp3688
(dp3689
g58
(dp3690
g78
g79
ssg67
g3684
sg60
(lp3691
S'menu'
p3692
asbag53
(g74
g55
NtRp3693
(dp3694
g58
(dp3695
g85
g86
ssg67
g3684
sg60
(lp3696
S':'
asbag53
(g74
g55
NtRp3697
(dp3698
g58
(dp3699
sg67
g3684
sg60
(lp3700
g53
(g54
g55
NtRp3701
(dp3702
g58
(dp3703
g66
I5
ssg67
g3697
sg60
(lp3704
g53
(g62
g55
NtRp3705
(dp3706
g58
(dp3707
g66
I4
ssg67
Nsg60
(lp3708
g53
(g69
g55
NtRp3709
(dp3710
g58
(dp3711
sg67
g3705
sg60
(lp3712
g53
(g74
g55
NtRp3713
(dp3714
g58
(dp3715
sg67
g3709
sg60
(lp3716
g53
(g54
g55
NtRp3717
(dp3718
g58
(dp3719
g66
I4
ssg67
g3713
sg60
(lp3720
g53
(g62
g55
NtRp3721
(dp3722
g58
(dp3723
g66
I3
ssg67
Nsg60
(lp3724
g53
(g69
g55
NtRp3725
(dp3726
g58
(dp3727
sg67
g3721
sg60
(lp3728
g53
(g74
g55
NtRp3729
(dp3730
g58
(dp3731
sg67
g3725
sg60
(lp3732
g53
(g54
g55
NtRp3733
(dp3734
g58
(dp3735
g66
I3
ssg67
g3729
sg60
(lp3736
cgluon.languages
lazyT_unpickle
p3737
(S't\x04\x00\x00\x00Home'
tRp3738
asbasbasbag53
(g69
g55
NtRp3739
(dp3740
g58
(dp3741
sg67
g3721
sg60
(lp3742
g53
(g74
g55
NtRp3743
(dp3744
g58
(dp3745
sg67
g3739
sg60
(lp3746
g53
(g54
g55
NtRp3747
(dp3748
g58
(dp3749
g66
I3
ssg67
g3743
sg60
(lp3750
g96
asbasbasbag53
(g69
g55
NtRp3751
(dp3752
g58
(dp3753
sg67
g3721
sg60
(lp3754
g53
(g74
g55
NtRp3755
(dp3756
g58
(dp3757
sg67
g3751
sg60
(lp3758
g53
(g54
g55
NtRp3759
(dp3760
g58
(dp3761
g66
I3
ssg67
g3755
sg60
(lp3762
S'/parleyweb/default/index'
p3763
asbasbasbag53
(g69
g55
NtRp3764
(dp3765
g58
(dp3766
sg67
g3721
sg60
(lp3767
g53
(g74
g55
NtRp3768
(dp3769
g58
(dp3770
sg67
g3764
sg60
(lp3771
g53
(g54
g55
NtRp3772
(dp3773
g58
(dp3774
g66
I3
ssg67
g3768
sg60
(lp3775
g53
(g62
g55
NtRp3776
(dp3777
g58
(dp3778
g66
I2
ssg67
Nsg60
(lp3779
sbasbasbasbasbasbasbasbasbasbasbasbag53
(g69
g55
NtRp3780
(dp3781
g58
(dp3782
sg67
g3201
sg60
(lp3783
g53
(g74
g55
NtRp3784
(dp3785
g58
(dp3786
g78
g79
ssg67
g3780
sg60
(lp3787
S'meta'
p3788
asbag53
(g74
g55
NtRp3789
(dp3790
g58
(dp3791
g85
g86
ssg67
g3780
sg60
(lp3792
S':'
asbag53
(g74
g55
NtRp3793
(dp3794
g58
(dp3795
sg67
g3780
sg60
(lp3796
g53
(g54
g55
NtRp3797
(dp3798
g58
(dp3799
g66
I5
ssg67
g3793
sg60
(lp3800
g53
(g62
g55
NtRp3801
(dp3802
g58
(dp3803
g66
I4
ssg67
Nsg60
(lp3804
g53
(g69
g55
NtRp3805
(dp3806
g58
(dp3807
sg67
g3801
sg60
(lp3808
g53
(g74
g55
NtRp3809
(dp3810
g58
(dp3811
g78
g79
ssg67
g3805
sg60
(lp3812
S'author'
p3813
asbag53
(g74
g55
NtRp3814
(dp3815
g58
(dp3816
g85
g86
ssg67
g3805
sg60
(lp3817
S':'
asbag53
(g74
g55
NtRp3818
(dp3819
g58
(dp3820
sg67
g3805
sg60
(lp3821
g53
(g54
g55
NtRp3822
(dp3823
g58
(dp3824
g66
I4
ssg67
g3818
sg60
(lp3825
S'Your Name <you@example.com>'
p3826
asbasbasbag53
(g69
g55
NtRp3827
(dp3828
g58
(dp3829
sg67
g3801
sg60
(lp3830
g53
(g74
g55
NtRp3831
(dp3832
g58
(dp3833
g78
g79
ssg67
g3827
sg60
(lp3834
S'copyright'
p3835
asbag53
(g74
g55
NtRp3836
(dp3837
g58
(dp3838
g85
g86
ssg67
g3827
sg60
(lp3839
S':'
asbag53
(g74
g55
NtRp3840
(dp3841
g58
(dp3842
sg67
g3827
sg60
(lp3843
g53
(g54
g55
NtRp3844
(dp3845
g58
(dp3846
g66
I4
ssg67
g3840
sg60
(lp3847
S'Copyright 2011'
p3848
asbasbasbag53
(g69
g55
NtRp3849
(dp3850
g58
(dp3851
sg67
g3801
sg60
(lp3852
g53
(g74
g55
NtRp3853
(dp3854
g58
(dp3855
g78
g79
ssg67
g3849
sg60
(lp3856
S'description'
p3857
asbag53
(g74
g55
NtRp3858
(dp3859
g58
(dp3860
g85
g86
ssg67
g3849
sg60
(lp3861
S':'
asbag53
(g74
g55
NtRp3862
(dp3863
g58
(dp3864
sg67
g3849
sg60
(lp3865
g53
(g54
g55
NtRp3866
(dp3867
g58
(dp3868
g66
I4
ssg67
g3862
sg60
(lp3869
S'a cool new app'
p3870
asbasbasbag53
(g69
g55
NtRp3871
(dp3872
g58
(dp3873
sg67
g3801
sg60
(lp3874
g53
(g74
g55
NtRp3875
(dp3876
g58
(dp3877
g78
g79
ssg67
g3871
sg60
(lp3878
S'generator'
p3879
asbag53
(g74
g55
NtRp3880
(dp3881
g58
(dp3882
g85
g86
ssg67
g3871
sg60
(lp3883
S':'
asbag53
(g74
g55
NtRp3884
(dp3885
g58
(dp3886
sg67
g3871
sg60
(lp3887
g53
(g54
g55
NtRp3888
(dp3889
g58
(dp3890
g66
I4
ssg67
g3884
sg60
(lp3891
S'Web2py Web Framework'
p3892
asbasbasbag53
(g69
g55
NtRp3893
(dp3894
g58
(dp3895
sg67
g3801
sg60
(lp3896
g53
(g74
g55
NtRp3897
(dp3898
g58
(dp3899
g78
g79
ssg67
g3893
sg60
(lp3900
S'keywords'
p3901
asbag53
(g74
g55
NtRp3902
(dp3903
g58
(dp3904
g85
g86
ssg67
g3893
sg60
(lp3905
S':'
asbag53
(g74
g55
NtRp3906
(dp3907
g58
(dp3908
sg67
g3893
sg60
(lp3909
g53
(g54
g55
NtRp3910
(dp3911
g58
(dp3912
g66
I4
ssg67
g3906
sg60
(lp3913
S'web2py, python, framework'
p3914
asbasbasbasbasbasbasbag53
(g69
g55
NtRp3915
(dp3916
g58
(dp3917
sg67
g3201
sg60
(lp3918
g53
(g74
g55
NtRp3919
(dp3920
g58
(dp3921
g78
g79
ssg67
g3915
sg60
(lp3922
S'postprocessing'
p3923
asbag53
(g74
g55
NtRp3924
(dp3925
g58
(dp3926
g85
g86
ssg67
g3915
sg60
(lp3927
S':'
asbag53
(g74
g55
NtRp3928
(dp3929
g58
(dp3930
sg67
g3915
sg60
(lp3931
g53
(g54
g55
NtRp3932
(dp3933
g58
(dp3934
g66
I5
ssg67
g3928
sg60
(lp3935
g53
(g62
g55
NtRp3936
(dp3937
g58
(dp3938
g66
I4
ssg67
Nsg60
(lp3939
sbasbasbasbag53
(g69
g55
NtRp3940
(dp3941
g58
(dp3942
sg67
g3201
sg60
(lp3943
g53
(g74
g55
NtRp3944
(dp3945
g58
(dp3946
g78
g79
ssg67
g3940
sg60
(lp3947
S'session_file'
p3948
asbag53
(g74
g55
NtRp3949
(dp3950
g58
(dp3951
g85
g86
ssg67
g3940
sg60
(lp3952
S':'
asbag53
(g74
g55
NtRp3953
(dp3954
g58
(dp3955
sg67
g3940
sg60
(lp3956
g53
(g54
g55
NtRp3957
(dp3958
g58
(dp3959
g66
I5
ssg67
g3953
sg60
(lp3960
S"<open file 'D:\\Dise\xf1o Web\\Proyectos\\Parleyweb\\web2py\\applications\\parleyweb\\sessions\\127.0.0.1-941ea06b-718e-475d-8aba-022805d8afd9', mode 'rb+' at 0x06D71E30>"
p3961
asbasbasbag53
(g69
g55
NtRp3962
(dp3963
g58
(dp3964
sg67
g3201
sg60
(lp3965
g53
(g74
g55
NtRp3966
(dp3967
g58
(dp3968
g78
g79
ssg67
g3962
sg60
(lp3969
S'session_filename'
p3970
asbag53
(g74
g55
NtRp3971
(dp3972
g58
(dp3973
g85
g86
ssg67
g3962
sg60
(lp3974
S':'
asbag53
(g74
g55
NtRp3975
(dp3976
g58
(dp3977
sg67
g3962
sg60
(lp3978
g53
(g54
g55
NtRp3979
(dp3980
g58
(dp3981
g66
I5
ssg67
g3975
sg60
(lp3982
S'D:\\Dise\xf1o Web\\Proyectos\\Parleyweb\\web2py\\applications\\parleyweb\\sessions\\127.0.0.1-941ea06b-718e-475d-8aba-022805d8afd9'
p3983
asbasbasbag53
(g69
g55
NtRp3984
(dp3985
g58
(dp3986
sg67
g3201
sg60
(lp3987
g53
(g74
g55
NtRp3988
(dp3989
g58
(dp3990
g78
g79
ssg67
g3984
sg60
(lp3991
S'session_id'
p3992
asbag53
(g74
g55
NtRp3993
(dp3994
g58
(dp3995
g85
g86
ssg67
g3984
sg60
(lp3996
S':'
asbag53
(g74
g55
NtRp3997
(dp3998
g58
(dp3999
sg67
g3984
sg60
(lp4000
g53
(g54
g55
NtRp4001
(dp4002
g58
(dp4003
g66
I5
ssg67
g3997
sg60
(lp4004
S'127.0.0.1-941ea06b-718e-475d-8aba-022805d8afd9'
p4005
asbasbasbag53
(g69
g55
NtRp4006
(dp4007
g58
(dp4008
sg67
g3201
sg60
(lp4009
g53
(g74
g55
NtRp4010
(dp4011
g58
(dp4012
g78
g79
ssg67
g4006
sg60
(lp4013
S'session_id_name'
p4014
asbag53
(g74
g55
NtRp4015
(dp4016
g58
(dp4017
g85
g86
ssg67
g4006
sg60
(lp4018
S':'
asbag53
(g74
g55
NtRp4019
(dp4020
g58
(dp4021
sg67
g4006
sg60
(lp4022
g53
(g54
g55
NtRp4023
(dp4024
g58
(dp4025
g66
I5
ssg67
g4019
sg60
(lp4026
g3258
asbasbasbag53
(g69
g55
NtRp4027
(dp4028
g58
(dp4029
sg67
g3201
sg60
(lp4030
g53
(g74
g55
NtRp4031
(dp4032
g58
(dp4033
g78
g79
ssg67
g4027
sg60
(lp4034
S'session_locked'
p4035
asbag53
(g74
g55
NtRp4036
(dp4037
g58
(dp4038
g85
g86
ssg67
g4027
sg60
(lp4039
S':'
asbag53
(g74
g55
NtRp4040
(dp4041
g58
(dp4042
sg67
g4027
sg60
(lp4043
g53
(g54
g55
NtRp4044
(dp4045
g58
(dp4046
g66
I5
ssg67
g4040
sg60
(lp4047
g1769
asbasbasbag53
(g69
g55
NtRp4048
(dp4049
g58
(dp4050
sg67
g3201
sg60
(lp4051
g53
(g74
g55
NtRp4052
(dp4053
g58
(dp4054
g78
g79
ssg67
g4048
sg60
(lp4055
S'session_new'
p4056
asbag53
(g74
g55
NtRp4057
(dp4058
g58
(dp4059
g85
g86
ssg67
g4048
sg60
(lp4060
S':'
asbag53
(g74
g55
NtRp4061
(dp4062
g58
(dp4063
sg67
g4048
sg60
(lp4064
g53
(g54
g55
NtRp4065
(dp4066
g58
(dp4067
g66
I5
ssg67
g4061
sg60
(lp4068
g96
asbasbasbag53
(g69
g55
NtRp4069
(dp4070
g58
(dp4071
sg67
g3201
sg60
(lp4072
g53
(g74
g55
NtRp4073
(dp4074
g58
(dp4075
g78
g79
ssg67
g4069
sg60
(lp4076
S'status'
p4077
asbag53
(g74
g55
NtRp4078
(dp4079
g58
(dp4080
g85
g86
ssg67
g4069
sg60
(lp4081
S':'
asbag53
(g74
g55
NtRp4082
(dp4083
g58
(dp4084
sg67
g4069
sg60
(lp4085
g53
(g54
g55
NtRp4086
(dp4087
g58
(dp4088
g66
I5
ssg67
g4082
sg60
(lp4089
S'200'
p4090
asbasbasbag53
(g69
g55
NtRp4091
(dp4092
g58
(dp4093
sg67
g3201
sg60
(lp4094
g53
(g74
g55
NtRp4095
(dp4096
g58
(dp4097
g78
g79
ssg67
g4091
sg60
(lp4098
S'subtitle'
p4099
asbag53
(g74
g55
NtRp4100
(dp4101
g58
(dp4102
g85
g86
ssg67
g4091
sg60
(lp4103
S':'
asbag53
(g74
g55
NtRp4104
(dp4105
g58
(dp4106
sg67
g4091
sg60
(lp4107
g53
(g54
g55
NtRp4108
(dp4109
g58
(dp4110
g66
I5
ssg67
g4104
sg60
(lp4111
g3737
(S's\t\x00\x00\x00Adaptame!'
tRp4112
asbasbasbag53
(g69
g55
NtRp4113
(dp4114
g58
(dp4115
sg67
g3201
sg60
(lp4116
g53
(g74
g55
NtRp4117
(dp4118
g58
(dp4119
g78
g79
ssg67
g4113
sg60
(lp4120
S'title'
p4121
asbag53
(g74
g55
NtRp4122
(dp4123
g58
(dp4124
g85
g86
ssg67
g4113
sg60
(lp4125
S':'
asbag53
(g74
g55
NtRp4126
(dp4127
g58
(dp4128
sg67
g4113
sg60
(lp4129
g53
(g54
g55
NtRp4130
(dp4131
g58
(dp4132
g66
I5
ssg67
g4126
sg60
(lp4133
S'Parleyweb'
p4134
asbasbasbag53
(g69
g55
NtRp4135
(dp4136
g58
(dp4137
sg67
g3201
sg60
(lp4138
g53
(g74
g55
NtRp4139
(dp4140
g58
(dp4141
g78
g79
ssg67
g4135
sg60
(lp4142
g2455
asbag53
(g74
g55
NtRp4143
(dp4144
g58
(dp4145
g85
g86
ssg67
g4135
sg60
(lp4146
S':'
asbag53
(g74
g55
NtRp4147
(dp4148
g58
(dp4149
sg67
g4135
sg60
(lp4150
g53
(g54
g55
NtRp4151
(dp4152
g58
(dp4153
g66
I5
ssg67
g4147
sg60
(lp4154
g2468
asbasbasbag53
(g69
g55
NtRp4155
(dp4156
g58
(dp4157
sg67
g3201
sg60
(lp4158
g53
(g74
g55
NtRp4159
(dp4160
g58
(dp4161
g78
g79
ssg67
g4155
sg60
(lp4162
S'view'
p4163
asbag53
(g74
g55
NtRp4164
(dp4165
g58
(dp4166
g85
g86
ssg67
g4155
sg60
(lp4167
S':'
asbag53
(g74
g55
NtRp4168
(dp4169
g58
(dp4170
sg67
g4155
sg60
(lp4171
g53
(g54
g55
NtRp4172
(dp4173
g58
(dp4174
g66
I5
ssg67
g4168
sg60
(lp4175
S'default/mostrar.html'
p4176
asbasbasbasbasbsS'locals'
p4177
(dp4178
S'a'
S"('SELECT  ejemplos FROM palabras, palabra_ejemplo,...alabra_ejemplo.ejemplo)) AND (palabras.id = 82));',)"
p4179
sS'self'
p4180
S'<gluon.dal.SQLiteAdapter object at 0x070EFC90>'
p4181
sS'b'
g41
sS't0'
p4182
S'1331416941.937'
p4183
sssS'traceback'
p4184
S'Traceback (most recent call last):\n  File "gluon/restricted.py", line 205, in restricted\n  File "D:\\Dise\xf1o Web\\Proyectos\\Parleyweb\\web2py\\applications\\parleyweb\\controllers/default.py", line 113, in <module>\n  File "gluon/globals.py", line 173, in <lambda>\n  File "D:\\Dise\xf1o Web\\Proyectos\\Parleyweb\\web2py\\applications\\parleyweb\\controllers/default.py", line 78, in mostrar\n  File "gluon/dal.py", line 7578, in select\n  File "gluon/dal.py", line 1315, in select\n  File "gluon/dal.py", line 1305, in response\n  File "gluon/dal.py", line 1392, in execute\n  File "gluon/dal.py", line 1386, in log_execute\nOperationalError: no such column: ejemplos\n'
p4185
s.