(dp1
S'output'
p2
S"<type 'exceptions.SyntaxError'> invalid syntax (default/mostrar.html, line 82)"
p3
sS'layer'
p4
S'D:\\Dise\xf1o Web\\Proyectos\\Parleyweb\\web2py\\applications\\parleyweb\\views\\default/mostrar.html'
p5
sS'code'
p6
S'response.write(\'<!DOCTYPE html>\\n<!-- paulirish.com/2008/conditional-stylesheets-vs-css-hacks-answer-neither/ -->\\n<!--[if lt IE 7]><html class="ie ie6 ie-lte9 ie-lte8 ie-lte7 no-js" lang="\', escape=False)\nresponse.write(T.accepted_language or \'en\')\nresponse.write(\'"> <![endif]-->\\n<!--[if IE 7]><html class="ie ie7 ie-lte9 ie-lte8 ie-lte7 no-js" lang="\', escape=False)\nresponse.write(T.accepted_language or \'en\')\nresponse.write(\'"> <![endif]-->\\n<!--[if IE 8]><html class="ie ie8 ie-lte9 ie-lte8 no-js" lang="\', escape=False)\nresponse.write(T.accepted_language or \'en\')\nresponse.write(\'"> <![endif]-->\\n<!--[if IE 9]><html class="ie9 ie-lte9 no-js" lang="\', escape=False)\nresponse.write(T.accepted_language or \'en\')\nresponse.write(\'"> <![endif]-->\\n<!--[if (gt IE 9)|!(IE)]><!--> <html class="no-js" lang="\', escape=False)\nresponse.write(T.accepted_language or \'en\')\nresponse.write(\'"> <!--<![endif]-->\\n<head>\\n  <meta charset="utf-8" />\\n  <!-- www.phpied.com/conditional-comments-block-downloads/ -->\\n  <!-- Always force latest IE rendering engine\\n\\t   (even in intranet) & Chrome Frame\\n\\t   Remove this if you use the .htaccess -->\\n  <!--[if IE]>\\n    <meta http-equiv="X-UA-Compatible" content="IE=edge\', escape=False)\nresponse.write(not request.is_local and \',chrome=1\' or \'\')\nresponse.write(\'">\\n  <![endif]-->\\n  \\n  <title>\', escape=False)\nresponse.write(response.title or request.application)\nresponse.write(\'</title>\\n  \\n  <!-- http://dev.w3.org/html5/markup/meta.name.html -->\\n  <meta name="application-name" content="\', escape=False)\nresponse.write(request.application)\nresponse.write(\'" />\\n  \\n  <!-- Speaking of Google, don\\\'t forget to set your site up:\\n\\t   http://google.com/webmasters -->\\n  <meta name="google-site-verification" content="" />\\n\\n  <!--  Mobile Viewport Fix\\n\\t  j.mp/mobileviewport & davidbcalhoun.com/2010/viewport-metatag\\n\\t  device-width: Occupy full width of the screen in its current orientation\\n\\t  initial-scale = 1.0 retains dimensions instead of zooming out if page height > device height\\n\\t  user-scalable = yes allows the user to zoom in -->\\n  <meta name="viewport" content="width=device-width, initial-scale=1.0, user-scalable=yes">\\n  \\n  <!-- Place favicon.ico and apple-touch-icon.png in the root of your domain and delete these references -->\\n  <link rel="shortcut icon" href="\', escape=False)\nresponse.write(URL(\'static\',\'favicon.ico\'))\nresponse.write(\'" type="image/x-icon">\\n  <link rel="apple-touch-icon" href="\', escape=False)\nresponse.write(URL(\'static\',\'favicon.png\'))\nresponse.write(\'">\\n\\n  <!-- All JavaScript at the bottom, except for Modernizr which enables \\n\\t   HTML5 elements & feature detects -->\\n  <script src="\', escape=False)\nresponse.write(URL(\'static\',\'js/modernizr.custom.js\'))\nresponse.write(\'"></script>  \\n\\n  <!-- include stylesheets -->\\n  \', escape=False)\nresponse.files.append(URL(\'static\',\'css/bootstrap.css\'))\nresponse.files.append(URL(\'static\',\'js/bootstrap.js\'))\nresponse.files.append(URL(\'static\',\'css/parleyweb.css\'))\nresponse.files.append(URL(\'static\',\'css/jquery-ui-1.8.18.custom.css\'))\nresponse.files.append(URL(\'static\',\'css/prettyPhoto.css\'))\nresponse.files.append(URL(\'static\',\'js/jquery.prettyPhoto.js\'))\nresponse.files.append(URL(\'static\',\'js/parleyweb.js\'))\nresponse.files.append(URL(\'static\',\'js/jquery-ui-1.8.18.custom.min.js\'))\nresponse.write(\'\\n\\n  \', escape=False)\nresponse.write(\'<script type="text/javascript"><!--\\n    // These variables are used by the web2py_ajax_init function in web2py_ajax.js (which is loaded below).\\n    var w2p_ajax_confirm_message = "\', escape=False)\nresponse.write(T(\'Are you sure you want to delete this object?\'))\nresponse.write(\'";\\n    var w2p_ajax_date_format = "\', escape=False)\nresponse.write(T(\'%Y-%m-%d\'))\nresponse.write(\'";\\n    var w2p_ajax_datetime_format = "\', escape=False)\nresponse.write(T(\'%Y-%m-%d %H:%M:%S\'))\nresponse.write(\'";\\n    //--></script>\\n\', escape=False)\nresponse.files.insert(0,URL(\'static\',\'js/jquery.js\'))\nresponse.files.insert(1,URL(\'static\',\'css/calendar.css\'))\nresponse.files.insert(2,URL(\'static\',\'js/calendar.js\'))\nresponse.files.insert(3,URL(\'static\',\'js/web2py.js\'))\nresponse.include_meta()\nresponse.include_files()\nresponse.write(\'\\n\', escape=False)\nresponse.write(\'\\n\\n  \\n\\n  \', escape=False)\n# using sidebars need to know what sidebar you want to use\nleft_sidebar_enabled = globals().get(\'left_sidebar_enabled\',False)\nright_sidebar_enabled = globals().get(\'right_sidebar_enabled\',False)\nmiddle_columns = {0:\'sixteen\',1:\'twelve\',2:\'eight\'}[\n(left_sidebar_enabled and 1 or 0)+(right_sidebar_enabled and 1 or 0)]\nresponse.write(\'\\n\\n  <!-- uncomment here to load jquery-ui\\n  <link rel="stylesheet" href="http://ajax.googleapis.com/ajax/libs/jqueryui/1.8.16/themes/base/jquery-ui.css" type="text/css" media="all" />\\n  <script src="http://ajax.googleapis.com/ajax/libs/jqueryui/1.8.16/jquery-ui.min.js" type="text/javascript"></script>\\n  uncomment to load jquery-ui //-->\\n</head>\\n <body>\\n\\n    <div class="navbar navbar-fixed-top">\\n      <div class="navbar-inner">\\n        <div class="container-fluid">\\n          <a class="btn btn-navbar" data-toggle="collapse" data-target=".nav-collapse">\\n            <span class="icon-bar"></span>\\n            <span class="icon-bar"></span>\\n            <span class="icon-bar"></span>\\n          </a>\\n          <a class="brand" href="#">Parleyweb</a>\\n          <div class="nav-collapse">\\n\\t    \', escape=False)\n#=MENU(response.menu, _class="nav active")\nresponse.write(\'\\n            <ul class="nav">\\n              <li>\', escape=False)\nresponse.write(A(T(\'Administracion\'), _href=URL(\'admin\', \'index\')))\nresponse.write(\'</li>\\n            </ul>\\n\\t    \\n            <p class="navbar-text pull-right">\', escape=False)\nresponse.write(\'auth\' in globals() and auth.navbar(separators=(\' \',\' | \',\'\')))\nresponse.write(\'</p>\\n          </div><!--/.nav-collapse -->\\n        </div>\\n      </div>\\n    </div>\\n    <div class="flash alert alert-info"></i>\', escape=False)\nresponse.write(response.flash or \'\')\nresponse.write(\'</div>\\n    <div class="container-fluid">\\n      <div class="row-fluid">\\n        <div class="span3">\\n          <div class="well sidebar-nav">\\n            <ul class="nav nav-list">\\n              <li class="nav-header">\', escape=False)\nresponse.write(T(\'Buscar\'))\nresponse.write(\'</li>\\n            </ul>\\n          </div><!--/.well -->\\n        </div><!--/span-->\\n        <div class="span9">\\n\\t  \', escape=False)\nresponse.write(\'\\n\\t    \', escape=False)\nresponse.write(\'\\n\\n   \', escape=False)\nif palabras:\n    response.write(\'\\n       <h3 class="h3_redondo">\', escape=False)\n    response.write(palabras.palabra.capitalize())\n    response.write(\'</h3>\\n        \', escape=False)\n    if palabras.sustantivo==True and palabras.verbo==True:\n        response.write(\'\\n        <div class="btn-group botones_mostrar" data-toggle="buttons-checkbox">\\n           <!-- <button class="btn btn-info " onclick=\\\'$("#toggle1-mostrar").slideToggle(200);\\\'>Mostrar como sustantivo</button> -->\\n            <button class="btn btn-info toggle-mostrar-verbo">\\n                <span class="mostrar-verbo"><i class="icon-plus-sign icon-white"></i> Mostrar verbo</span>\\n                <span class="ocultar-verbo hide"><i class="icon-minus-sign icon-white"></i> Ocultar</span>\\n            </button>\\n            <!--<button class="btn btn-info">Ambos</button> -->\\n            <button class="btn btn-info toggle-mostrar-sustantivo">\\n                <span class="mostrar-sustantivo"><i class="icon-plus-sign icon-white"></i> Mostrar sustantivo</span>\\n                <span class="ocultar-sustantivo hide"><i class="icon-minus-sign icon-white"></i> Ocultar</span>\\n            </button>\\n        </div>\\n        <div id="toggle-mostrar-verbo" class="hide">\\n            <div class="toggle-mostrar"><h4>Verbo</h4></div>\\n            <div class="wellparley2">\\n                <table>\\n                    <tbody>\\n                        <tr>\\n                            <th>\\n                               \\n                            </th>\\n                        </tr>\\n                    </tbody>\\n                </table>\\n            </div>\\n        </div>\\n        <div id="toggle-mostrar-sustantivo" class="hide">\\n            <div class="toggle-mostrar">\\n                <h4>Sustantivo</h4>\\n                <a href="#" class="tip" rel="tooltip" title="Masculino">\', escape=False)\n        response.write(palabras.articulo.capitalize())\n        response.write(\'</a>\\n                <span>\', escape=False)\n        response.write(palabras.palabra.capitalize())\n        response.write(\'</span>\\n                <span>-</span>\\n                <a href="#" class="tip" rel="tooltip" title="Plural">(\', escape=False)\n        response.write(palabras.plural)\n        response.write(\')</a>\\n            </div>\\n            <div class="wellparley2">\\n                \', escape=False)\n        if not palabras.imagen:\n            response.write(\'\\n                    <p>No hay imagen</p>\\n                \', escape=False)\n        else:\n            response.write(\'\\n                    <a href=\', escape=False)\n            response.write(URL(\'static\', \'images/1.jpg\') rel="prettyPhoto" title="This is the description">\n            <img class="img-sustantivo" src="{{=URL(\'static\', \'images/t_1.jpg\'))\n            response.write(\'" />\\n                    </a>\\n                    <!-- <a href="images/fullscreen/2.jpg" rel="prettyPhoto" title="This is the description"><img src="images/thumbnails/t_2.jpg" width="60" height="60" alt="This is the title" /></a> -->\\n                \', escape=False)\n            pass\n        response.write(\'\\n                <table>\\n                    <tbody>\\n                        <tr>\\n                            <th>\\n                                \\n                            </th>\\n                        </tr>\\n                    </tbody>\\n                </table>\\n            </div>\\n        </div>\\n        \', escape=False)\n    elif palabras.sustantivo==True:\n        response.write(\'\\n            <div class="toggle-mostrar">\\n                <h4>Sustantivo</h4>\\n                <a href="#" class="tip" rel="tooltip" title=\', escape=False)\n        response.write(palabras.genero.capitalize())\n        response.write(\'>\', escape=False)\n        response.write(palabras.articulo.capitalize())\n        response.write(\'</a>\\n                <span>\', escape=False)\n        response.write(palabras.palabra.capitalize())\n        response.write(\'</span>\\n                <span>-</span>\\n                <a href="#" class="tip" rel="tooltip" title="Plural">(\', escape=False)\n        response.write(palabras.plural)\n        response.write(\')</a>\\n            </div>\\n            <div class="wellparley2">\\n                \', escape=False)\n        if not palabras.imagen:\n            response.write(\'\\n                    <p>No hay imagen</p>\\n                \', escape=False)\n        else:\n            response.write(\'\\n                    <img class="img-sustantivo" src="\', escape=False)\n            response.write(URL(\'download\', args=palabras.imagen))\n            response.write(\'" />\\n                \', escape=False)\n            pass\n        response.write(\'\\n                <table>\\n                    <tbody>\\n                        <tr>\\n                            <th>\\n                            </th>\\n                        </tr>\\n                    </tbody>\\n                </table>\\n            </div>    \\n        \', escape=False)\n        pass\n    response.write(\'\\n        \\n    \', escape=False)\n    pass\nresponse.write(\'\\n\\n\', escape=False)\n#=response.toolbar()\nresponse.write(\'\\n    \\n\', escape=False)\nresponse.write(\'\\n\\t  \', escape=False)\nresponse.write("\\n          \\n        </div><!--/span-->\\n      </div><!--/row-->\\n\\n      <hr>\\n\\n      <footer>\\n        <p>\\xc2\\xa9 Company 2012</p>\\n      </footer>\\n\\n    </div><!--/.fluid-container-->\\n    \\n    <!-- Le javascript\\n    ================================================== -->\\n    <!-- Placed at the end of the document so the pages load faster \\n    <script>\\n      $(function () {\\n      $(\'.tabs a:last\').tab(\'show\')\\n      })\\n    </script>-->\\n   \\n\\n \\n\\n</body>\\n</html>\\n", escape=False)'
p7
sS'snapshot'
p8
(dp9
S'exception'
p10
(dp11
S'__getslice__'
p12
S"<method-wrapper '__getslice__' of exceptions.SyntaxError object at 0x067337B0>"
p13
sS'text'
p14
S'\'            response.write(URL(\\\'static\\\', \\\'images...l="prettyPhoto" title="This is the description">\\n\''
p15
sS'__str__'
p16
S"<method-wrapper '__str__' of exceptions.SyntaxError object at 0x067337B0>"
p17
sS'__reduce__'
p18
S'<built-in method __reduce__ of exceptions.SyntaxError object at 0x067337B0>'
p19
sS'__dict__'
p20
S'{}'
p21
sS'__init__'
p22
S"<method-wrapper '__init__' of exceptions.SyntaxError object at 0x067337B0>"
p23
sS'__setattr__'
p24
S"<method-wrapper '__setattr__' of exceptions.SyntaxError object at 0x067337B0>"
p25
sS'__reduce_ex__'
p26
S'<built-in method __reduce_ex__ of exceptions.SyntaxError object at 0x067337B0>'
p27
sS'__new__'
p28
S'<built-in method __new__ of type object at 0x1E1CDBD0>'
p29
sS'__class__'
p30
S"<type 'exceptions.SyntaxError'>"
p31
sS'filename'
p32
S"'D:\\\\Dise\\xf1o Web\\\\Proyectos\\\\Parleyweb\\\\web2py\\\\applications\\\\parleyweb\\\\views\\\\default/mostrar.html'"
p33
sS'lineno'
p34
S'82'
p35
sS'msg'
p36
S"'invalid syntax'"
p37
sS'__doc__'
p38
S"'Invalid syntax.'"
p39
sS'__getitem__'
p40
S"<method-wrapper '__getitem__' of exceptions.SyntaxError object at 0x067337B0>"
p41
sS'__setstate__'
p42
S'<built-in method __setstate__ of exceptions.SyntaxError object at 0x067337B0>'
p43
sS'__getattribute__'
p44
S"<method-wrapper '__getattribute__' of exceptions.SyntaxError object at 0x067337B0>"
p45
sS'print_file_and_line'
p46
S'None'
p47
sS'args'
p48
S'(\'invalid syntax\', (\'D:\\\\Dise\\xf1o Web\\\\Proyectos\\\\Parleyweb\\\\web2py\\\\applications\\\\parleyweb\\\\views\\\\default/mostrar.html\', 82, 60, \'            response.write(URL(\\\'static\\\', \\\'images...l="prettyPhoto" title="This is the description">\\n\'))'
p49
sS'offset'
p50
S'60'
p51
sS'__delattr__'
p52
S"<method-wrapper '__delattr__' of exceptions.SyntaxError object at 0x067337B0>"
p53
sS'__repr__'
p54
S"<method-wrapper '__repr__' of exceptions.SyntaxError object at 0x067337B0>"
p55
sS'__hash__'
p56
S"<method-wrapper '__hash__' of exceptions.SyntaxError object at 0x067337B0>"
p57
ssS'evalue'
p58
S'invalid syntax (default/mostrar.html, line 82)'
p59
sS'request'
p60
ccopy_reg
_reconstructor
p61
(cgluon.html
BEAUTIFY
p62
c__builtin__
object
p63
NtRp64
(dp65
S'attributes'
p66
(dp67
sS'components'
p68
(lp69
g61
(cgluon.html
TABLE
p70
g63
NtRp71
(dp72
g66
(dp73
S'level'
p74
I5
ssS'parent'
p75
Nsg68
(lp76
g61
(cgluon.html
TR
p77
g63
NtRp78
(dp79
g66
(dp80
sg75
g71
sg68
(lp81
g61
(cgluon.html
TD
p82
g63
NtRp83
(dp84
g66
(dp85
S'_style'
p86
S'font-weight:bold;vertical-align:top'
p87
ssg75
g78
sg68
(lp88
S'ajax'
p89
asbag61
(g82
g63
NtRp90
(dp91
g66
(dp92
S'_valign'
p93
S'top'
p94
ssg75
g78
sg68
(lp95
S':'
asbag61
(g82
g63
NtRp96
(dp97
g66
(dp98
sg75
g78
sg68
(lp99
g61
(g62
g63
NtRp100
(dp101
g66
(dp102
g74
I5
ssg75
g96
sg68
(lp103
S'False'
p104
asbasbasbag61
(g77
g63
NtRp105
(dp106
g66
(dp107
sg75
g71
sg68
(lp108
g61
(g82
g63
NtRp109
(dp110
g66
(dp111
g86
g87
ssg75
g105
sg68
(lp112
S'application'
p113
asbag61
(g82
g63
NtRp114
(dp115
g66
(dp116
g93
g94
ssg75
g105
sg68
(lp117
S':'
asbag61
(g82
g63
NtRp118
(dp119
g66
(dp120
sg75
g105
sg68
(lp121
g61
(g62
g63
NtRp122
(dp123
g66
(dp124
g74
I5
ssg75
g118
sg68
(lp125
S'parleyweb'
p126
asbasbasbag61
(g77
g63
NtRp127
(dp128
g66
(dp129
sg75
g71
sg68
(lp130
g61
(g82
g63
NtRp131
(dp132
g66
(dp133
g86
g87
ssg75
g127
sg68
(lp134
g48
asbag61
(g82
g63
NtRp135
(dp136
g66
(dp137
g93
g94
ssg75
g127
sg68
(lp138
S':'
asbag61
(g82
g63
NtRp139
(dp140
g66
(dp141
sg75
g127
sg68
(lp142
g61
(g62
g63
NtRp143
(dp144
g66
(dp145
g74
I5
ssg75
g139
sg68
(lp146
g61
(g70
g63
NtRp147
(dp148
g66
(dp149
g74
I4
ssg75
Nsg68
(lp150
g61
(g77
g63
NtRp151
(dp152
g66
(dp153
sg75
g147
sg68
(lp154
g61
(g82
g63
NtRp155
(dp156
g66
(dp157
sg75
g151
sg68
(lp158
g61
(g62
g63
NtRp159
(dp160
g66
(dp161
g74
I4
ssg75
g155
sg68
(lp162
S'82'
p163
asbasbasbasbasbasbasbag61
(g77
g63
NtRp164
(dp165
g66
(dp166
sg75
g71
sg68
(lp167
g61
(g82
g63
NtRp168
(dp169
g66
(dp170
g86
g87
ssg75
g164
sg68
(lp171
S'body'
p172
asbag61
(g82
g63
NtRp173
(dp174
g66
(dp175
g93
g94
ssg75
g164
sg68
(lp176
S':'
asbag61
(g82
g63
NtRp177
(dp178
g66
(dp179
sg75
g164
sg68
(lp180
g61
(g62
g63
NtRp181
(dp182
g66
(dp183
g74
I5
ssg75
g177
sg68
(lp184
S'<cStringIO.StringO object at 0x06E1EE80>'
p185
asbasbasbag61
(g77
g63
NtRp186
(dp187
g66
(dp188
sg75
g71
sg68
(lp189
g61
(g82
g63
NtRp190
(dp191
g66
(dp192
g86
g87
ssg75
g186
sg68
(lp193
S'client'
p194
asbag61
(g82
g63
NtRp195
(dp196
g66
(dp197
g93
g94
ssg75
g186
sg68
(lp198
S':'
asbag61
(g82
g63
NtRp199
(dp200
g66
(dp201
sg75
g186
sg68
(lp202
g61
(g62
g63
NtRp203
(dp204
g66
(dp205
g74
I5
ssg75
g199
sg68
(lp206
S'127.0.0.1'
p207
asbasbasbag61
(g77
g63
NtRp208
(dp209
g66
(dp210
sg75
g71
sg68
(lp211
g61
(g82
g63
NtRp212
(dp213
g66
(dp214
g86
g87
ssg75
g208
sg68
(lp215
S'controller'
p216
asbag61
(g82
g63
NtRp217
(dp218
g66
(dp219
g93
g94
ssg75
g208
sg68
(lp220
S':'
asbag61
(g82
g63
NtRp221
(dp222
g66
(dp223
sg75
g208
sg68
(lp224
g61
(g62
g63
NtRp225
(dp226
g66
(dp227
g74
I5
ssg75
g221
sg68
(lp228
S'default'
p229
asbasbasbag61
(g77
g63
NtRp230
(dp231
g66
(dp232
sg75
g71
sg68
(lp233
g61
(g82
g63
NtRp234
(dp235
g66
(dp236
g86
g87
ssg75
g230
sg68
(lp237
S'cookies'
p238
asbag61
(g82
g63
NtRp239
(dp240
g66
(dp241
g93
g94
ssg75
g230
sg68
(lp242
S':'
asbag61
(g82
g63
NtRp243
(dp244
g66
(dp245
sg75
g230
sg68
(lp246
g61
(g62
g63
NtRp247
(dp248
g66
(dp249
g74
I5
ssg75
g243
sg68
(lp250
g61
(g70
g63
NtRp251
(dp252
g66
(dp253
g74
I4
ssg75
Nsg68
(lp254
g61
(g77
g63
NtRp255
(dp256
g66
(dp257
sg75
g251
sg68
(lp258
g61
(g82
g63
NtRp259
(dp260
g66
(dp261
g86
g87
ssg75
g255
sg68
(lp262
S'session_id_admin'
p263
asbag61
(g82
g63
NtRp264
(dp265
g66
(dp266
g93
g94
ssg75
g255
sg68
(lp267
S':'
asbag61
(g82
g63
NtRp268
(dp269
g66
(dp270
sg75
g255
sg68
(lp271
g61
(g62
g63
NtRp272
(dp273
g66
(dp274
g74
I4
ssg75
g268
sg68
(lp275
g61
(g70
g63
NtRp276
(dp277
g66
(dp278
g74
I3
ssg75
Nsg68
(lp279
g61
(g77
g63
NtRp280
(dp281
g66
(dp282
sg75
g276
sg68
(lp283
g61
(g82
g63
NtRp284
(dp285
g66
(dp286
g86
g87
ssg75
g280
sg68
(lp287
S'comment'
p288
asbag61
(g82
g63
NtRp289
(dp290
g66
(dp291
g93
g94
ssg75
g280
sg68
(lp292
S':'
asbag61
(g82
g63
NtRp293
(dp294
g66
(dp295
sg75
g280
sg68
(lp296
g61
(g62
g63
NtRp297
(dp298
g66
(dp299
g74
I3
ssg75
g293
sg68
(lp300
S''
asbasbasbag61
(g77
g63
NtRp301
(dp302
g66
(dp303
sg75
g276
sg68
(lp304
g61
(g82
g63
NtRp305
(dp306
g66
(dp307
g86
g87
ssg75
g301
sg68
(lp308
S'domain'
p309
asbag61
(g82
g63
NtRp310
(dp311
g66
(dp312
g93
g94
ssg75
g301
sg68
(lp313
S':'
asbag61
(g82
g63
NtRp314
(dp315
g66
(dp316
sg75
g301
sg68
(lp317
g61
(g62
g63
NtRp318
(dp319
g66
(dp320
g74
I3
ssg75
g314
sg68
(lp321
S''
asbasbasbag61
(g77
g63
NtRp322
(dp323
g66
(dp324
sg75
g276
sg68
(lp325
g61
(g82
g63
NtRp326
(dp327
g66
(dp328
g86
g87
ssg75
g322
sg68
(lp329
S'expires'
p330
asbag61
(g82
g63
NtRp331
(dp332
g66
(dp333
g93
g94
ssg75
g322
sg68
(lp334
S':'
asbag61
(g82
g63
NtRp335
(dp336
g66
(dp337
sg75
g322
sg68
(lp338
g61
(g62
g63
NtRp339
(dp340
g66
(dp341
g74
I3
ssg75
g335
sg68
(lp342
S''
asbasbasbag61
(g77
g63
NtRp343
(dp344
g66
(dp345
sg75
g276
sg68
(lp346
g61
(g82
g63
NtRp347
(dp348
g66
(dp349
g86
g87
ssg75
g343
sg68
(lp350
S'max-age'
p351
asbag61
(g82
g63
NtRp352
(dp353
g66
(dp354
g93
g94
ssg75
g343
sg68
(lp355
S':'
asbag61
(g82
g63
NtRp356
(dp357
g66
(dp358
sg75
g343
sg68
(lp359
g61
(g62
g63
NtRp360
(dp361
g66
(dp362
g74
I3
ssg75
g356
sg68
(lp363
S''
asbasbasbag61
(g77
g63
NtRp364
(dp365
g66
(dp366
sg75
g276
sg68
(lp367
g61
(g82
g63
NtRp368
(dp369
g66
(dp370
g86
g87
ssg75
g364
sg68
(lp371
S'path'
p372
asbag61
(g82
g63
NtRp373
(dp374
g66
(dp375
g93
g94
ssg75
g364
sg68
(lp376
S':'
asbag61
(g82
g63
NtRp377
(dp378
g66
(dp379
sg75
g364
sg68
(lp380
g61
(g62
g63
NtRp381
(dp382
g66
(dp383
g74
I3
ssg75
g377
sg68
(lp384
S''
asbasbasbag61
(g77
g63
NtRp385
(dp386
g66
(dp387
sg75
g276
sg68
(lp388
g61
(g82
g63
NtRp389
(dp390
g66
(dp391
g86
g87
ssg75
g385
sg68
(lp392
S'secure'
p393
asbag61
(g82
g63
NtRp394
(dp395
g66
(dp396
g93
g94
ssg75
g385
sg68
(lp397
S':'
asbag61
(g82
g63
NtRp398
(dp399
g66
(dp400
sg75
g385
sg68
(lp401
g61
(g62
g63
NtRp402
(dp403
g66
(dp404
g74
I3
ssg75
g398
sg68
(lp405
S''
asbasbasbag61
(g77
g63
NtRp406
(dp407
g66
(dp408
sg75
g276
sg68
(lp409
g61
(g82
g63
NtRp410
(dp411
g66
(dp412
g86
g87
ssg75
g406
sg68
(lp413
S'version'
p414
asbag61
(g82
g63
NtRp415
(dp416
g66
(dp417
g93
g94
ssg75
g406
sg68
(lp418
S':'
asbag61
(g82
g63
NtRp419
(dp420
g66
(dp421
sg75
g406
sg68
(lp422
g61
(g62
g63
NtRp423
(dp424
g66
(dp425
g74
I3
ssg75
g419
sg68
(lp426
S''
asbasbasbasbasbasbasbag61
(g77
g63
NtRp427
(dp428
g66
(dp429
sg75
g251
sg68
(lp430
g61
(g82
g63
NtRp431
(dp432
g66
(dp433
g86
g87
ssg75
g427
sg68
(lp434
S'session_id_klaas'
p435
asbag61
(g82
g63
NtRp436
(dp437
g66
(dp438
g93
g94
ssg75
g427
sg68
(lp439
S':'
asbag61
(g82
g63
NtRp440
(dp441
g66
(dp442
sg75
g427
sg68
(lp443
g61
(g62
g63
NtRp444
(dp445
g66
(dp446
g74
I4
ssg75
g440
sg68
(lp447
g61
(g70
g63
NtRp448
(dp449
g66
(dp450
g74
I3
ssg75
Nsg68
(lp451
g61
(g77
g63
NtRp452
(dp453
g66
(dp454
sg75
g448
sg68
(lp455
g61
(g82
g63
NtRp456
(dp457
g66
(dp458
g86
g87
ssg75
g452
sg68
(lp459
g288
asbag61
(g82
g63
NtRp460
(dp461
g66
(dp462
g93
g94
ssg75
g452
sg68
(lp463
S':'
asbag61
(g82
g63
NtRp464
(dp465
g66
(dp466
sg75
g452
sg68
(lp467
g61
(g62
g63
NtRp468
(dp469
g66
(dp470
g74
I3
ssg75
g464
sg68
(lp471
S''
asbasbasbag61
(g77
g63
NtRp472
(dp473
g66
(dp474
sg75
g448
sg68
(lp475
g61
(g82
g63
NtRp476
(dp477
g66
(dp478
g86
g87
ssg75
g472
sg68
(lp479
g309
asbag61
(g82
g63
NtRp480
(dp481
g66
(dp482
g93
g94
ssg75
g472
sg68
(lp483
S':'
asbag61
(g82
g63
NtRp484
(dp485
g66
(dp486
sg75
g472
sg68
(lp487
g61
(g62
g63
NtRp488
(dp489
g66
(dp490
g74
I3
ssg75
g484
sg68
(lp491
S''
asbasbasbag61
(g77
g63
NtRp492
(dp493
g66
(dp494
sg75
g448
sg68
(lp495
g61
(g82
g63
NtRp496
(dp497
g66
(dp498
g86
g87
ssg75
g492
sg68
(lp499
g330
asbag61
(g82
g63
NtRp500
(dp501
g66
(dp502
g93
g94
ssg75
g492
sg68
(lp503
S':'
asbag61
(g82
g63
NtRp504
(dp505
g66
(dp506
sg75
g492
sg68
(lp507
g61
(g62
g63
NtRp508
(dp509
g66
(dp510
g74
I3
ssg75
g504
sg68
(lp511
S''
asbasbasbag61
(g77
g63
NtRp512
(dp513
g66
(dp514
sg75
g448
sg68
(lp515
g61
(g82
g63
NtRp516
(dp517
g66
(dp518
g86
g87
ssg75
g512
sg68
(lp519
g351
asbag61
(g82
g63
NtRp520
(dp521
g66
(dp522
g93
g94
ssg75
g512
sg68
(lp523
S':'
asbag61
(g82
g63
NtRp524
(dp525
g66
(dp526
sg75
g512
sg68
(lp527
g61
(g62
g63
NtRp528
(dp529
g66
(dp530
g74
I3
ssg75
g524
sg68
(lp531
S''
asbasbasbag61
(g77
g63
NtRp532
(dp533
g66
(dp534
sg75
g448
sg68
(lp535
g61
(g82
g63
NtRp536
(dp537
g66
(dp538
g86
g87
ssg75
g532
sg68
(lp539
g372
asbag61
(g82
g63
NtRp540
(dp541
g66
(dp542
g93
g94
ssg75
g532
sg68
(lp543
S':'
asbag61
(g82
g63
NtRp544
(dp545
g66
(dp546
sg75
g532
sg68
(lp547
g61
(g62
g63
NtRp548
(dp549
g66
(dp550
g74
I3
ssg75
g544
sg68
(lp551
S''
asbasbasbag61
(g77
g63
NtRp552
(dp553
g66
(dp554
sg75
g448
sg68
(lp555
g61
(g82
g63
NtRp556
(dp557
g66
(dp558
g86
g87
ssg75
g552
sg68
(lp559
g393
asbag61
(g82
g63
NtRp560
(dp561
g66
(dp562
g93
g94
ssg75
g552
sg68
(lp563
S':'
asbag61
(g82
g63
NtRp564
(dp565
g66
(dp566
sg75
g552
sg68
(lp567
g61
(g62
g63
NtRp568
(dp569
g66
(dp570
g74
I3
ssg75
g564
sg68
(lp571
S''
asbasbasbag61
(g77
g63
NtRp572
(dp573
g66
(dp574
sg75
g448
sg68
(lp575
g61
(g82
g63
NtRp576
(dp577
g66
(dp578
g86
g87
ssg75
g572
sg68
(lp579
g414
asbag61
(g82
g63
NtRp580
(dp581
g66
(dp582
g93
g94
ssg75
g572
sg68
(lp583
S':'
asbag61
(g82
g63
NtRp584
(dp585
g66
(dp586
sg75
g572
sg68
(lp587
g61
(g62
g63
NtRp588
(dp589
g66
(dp590
g74
I3
ssg75
g584
sg68
(lp591
S''
asbasbasbasbasbasbasbag61
(g77
g63
NtRp592
(dp593
g66
(dp594
sg75
g251
sg68
(lp595
g61
(g82
g63
NtRp596
(dp597
g66
(dp598
g86
g87
ssg75
g592
sg68
(lp599
S'session_id_parleyweb'
p600
asbag61
(g82
g63
NtRp601
(dp602
g66
(dp603
g93
g94
ssg75
g592
sg68
(lp604
S':'
asbag61
(g82
g63
NtRp605
(dp606
g66
(dp607
sg75
g592
sg68
(lp608
g61
(g62
g63
NtRp609
(dp610
g66
(dp611
g74
I4
ssg75
g605
sg68
(lp612
g61
(g70
g63
NtRp613
(dp614
g66
(dp615
g74
I3
ssg75
Nsg68
(lp616
g61
(g77
g63
NtRp617
(dp618
g66
(dp619
sg75
g613
sg68
(lp620
g61
(g82
g63
NtRp621
(dp622
g66
(dp623
g86
g87
ssg75
g617
sg68
(lp624
g288
asbag61
(g82
g63
NtRp625
(dp626
g66
(dp627
g93
g94
ssg75
g617
sg68
(lp628
S':'
asbag61
(g82
g63
NtRp629
(dp630
g66
(dp631
sg75
g617
sg68
(lp632
g61
(g62
g63
NtRp633
(dp634
g66
(dp635
g74
I3
ssg75
g629
sg68
(lp636
S''
asbasbasbag61
(g77
g63
NtRp637
(dp638
g66
(dp639
sg75
g613
sg68
(lp640
g61
(g82
g63
NtRp641
(dp642
g66
(dp643
g86
g87
ssg75
g637
sg68
(lp644
g309
asbag61
(g82
g63
NtRp645
(dp646
g66
(dp647
g93
g94
ssg75
g637
sg68
(lp648
S':'
asbag61
(g82
g63
NtRp649
(dp650
g66
(dp651
sg75
g637
sg68
(lp652
g61
(g62
g63
NtRp653
(dp654
g66
(dp655
g74
I3
ssg75
g649
sg68
(lp656
S''
asbasbasbag61
(g77
g63
NtRp657
(dp658
g66
(dp659
sg75
g613
sg68
(lp660
g61
(g82
g63
NtRp661
(dp662
g66
(dp663
g86
g87
ssg75
g657
sg68
(lp664
g330
asbag61
(g82
g63
NtRp665
(dp666
g66
(dp667
g93
g94
ssg75
g657
sg68
(lp668
S':'
asbag61
(g82
g63
NtRp669
(dp670
g66
(dp671
sg75
g657
sg68
(lp672
g61
(g62
g63
NtRp673
(dp674
g66
(dp675
g74
I3
ssg75
g669
sg68
(lp676
S''
asbasbasbag61
(g77
g63
NtRp677
(dp678
g66
(dp679
sg75
g613
sg68
(lp680
g61
(g82
g63
NtRp681
(dp682
g66
(dp683
g86
g87
ssg75
g677
sg68
(lp684
g351
asbag61
(g82
g63
NtRp685
(dp686
g66
(dp687
g93
g94
ssg75
g677
sg68
(lp688
S':'
asbag61
(g82
g63
NtRp689
(dp690
g66
(dp691
sg75
g677
sg68
(lp692
g61
(g62
g63
NtRp693
(dp694
g66
(dp695
g74
I3
ssg75
g689
sg68
(lp696
S''
asbasbasbag61
(g77
g63
NtRp697
(dp698
g66
(dp699
sg75
g613
sg68
(lp700
g61
(g82
g63
NtRp701
(dp702
g66
(dp703
g86
g87
ssg75
g697
sg68
(lp704
g372
asbag61
(g82
g63
NtRp705
(dp706
g66
(dp707
g93
g94
ssg75
g697
sg68
(lp708
S':'
asbag61
(g82
g63
NtRp709
(dp710
g66
(dp711
sg75
g697
sg68
(lp712
g61
(g62
g63
NtRp713
(dp714
g66
(dp715
g74
I3
ssg75
g709
sg68
(lp716
S''
asbasbasbag61
(g77
g63
NtRp717
(dp718
g66
(dp719
sg75
g613
sg68
(lp720
g61
(g82
g63
NtRp721
(dp722
g66
(dp723
g86
g87
ssg75
g717
sg68
(lp724
g393
asbag61
(g82
g63
NtRp725
(dp726
g66
(dp727
g93
g94
ssg75
g717
sg68
(lp728
S':'
asbag61
(g82
g63
NtRp729
(dp730
g66
(dp731
sg75
g717
sg68
(lp732
g61
(g62
g63
NtRp733
(dp734
g66
(dp735
g74
I3
ssg75
g729
sg68
(lp736
S''
asbasbasbag61
(g77
g63
NtRp737
(dp738
g66
(dp739
sg75
g613
sg68
(lp740
g61
(g82
g63
NtRp741
(dp742
g66
(dp743
g86
g87
ssg75
g737
sg68
(lp744
g414
asbag61
(g82
g63
NtRp745
(dp746
g66
(dp747
g93
g94
ssg75
g737
sg68
(lp748
S':'
asbag61
(g82
g63
NtRp749
(dp750
g66
(dp751
sg75
g737
sg68
(lp752
g61
(g62
g63
NtRp753
(dp754
g66
(dp755
g74
I3
ssg75
g749
sg68
(lp756
S''
asbasbasbasbasbasbasbag61
(g77
g63
NtRp757
(dp758
g66
(dp759
sg75
g251
sg68
(lp760
g61
(g82
g63
NtRp761
(dp762
g66
(dp763
g86
g87
ssg75
g757
sg68
(lp764
S'session_id_welcome'
p765
asbag61
(g82
g63
NtRp766
(dp767
g66
(dp768
g93
g94
ssg75
g757
sg68
(lp769
S':'
asbag61
(g82
g63
NtRp770
(dp771
g66
(dp772
sg75
g757
sg68
(lp773
g61
(g62
g63
NtRp774
(dp775
g66
(dp776
g74
I4
ssg75
g770
sg68
(lp777
g61
(g70
g63
NtRp778
(dp779
g66
(dp780
g74
I3
ssg75
Nsg68
(lp781
g61
(g77
g63
NtRp782
(dp783
g66
(dp784
sg75
g778
sg68
(lp785
g61
(g82
g63
NtRp786
(dp787
g66
(dp788
g86
g87
ssg75
g782
sg68
(lp789
g288
asbag61
(g82
g63
NtRp790
(dp791
g66
(dp792
g93
g94
ssg75
g782
sg68
(lp793
S':'
asbag61
(g82
g63
NtRp794
(dp795
g66
(dp796
sg75
g782
sg68
(lp797
g61
(g62
g63
NtRp798
(dp799
g66
(dp800
g74
I3
ssg75
g794
sg68
(lp801
S''
asbasbasbag61
(g77
g63
NtRp802
(dp803
g66
(dp804
sg75
g778
sg68
(lp805
g61
(g82
g63
NtRp806
(dp807
g66
(dp808
g86
g87
ssg75
g802
sg68
(lp809
g309
asbag61
(g82
g63
NtRp810
(dp811
g66
(dp812
g93
g94
ssg75
g802
sg68
(lp813
S':'
asbag61
(g82
g63
NtRp814
(dp815
g66
(dp816
sg75
g802
sg68
(lp817
g61
(g62
g63
NtRp818
(dp819
g66
(dp820
g74
I3
ssg75
g814
sg68
(lp821
S''
asbasbasbag61
(g77
g63
NtRp822
(dp823
g66
(dp824
sg75
g778
sg68
(lp825
g61
(g82
g63
NtRp826
(dp827
g66
(dp828
g86
g87
ssg75
g822
sg68
(lp829
g330
asbag61
(g82
g63
NtRp830
(dp831
g66
(dp832
g93
g94
ssg75
g822
sg68
(lp833
S':'
asbag61
(g82
g63
NtRp834
(dp835
g66
(dp836
sg75
g822
sg68
(lp837
g61
(g62
g63
NtRp838
(dp839
g66
(dp840
g74
I3
ssg75
g834
sg68
(lp841
S''
asbasbasbag61
(g77
g63
NtRp842
(dp843
g66
(dp844
sg75
g778
sg68
(lp845
g61
(g82
g63
NtRp846
(dp847
g66
(dp848
g86
g87
ssg75
g842
sg68
(lp849
g351
asbag61
(g82
g63
NtRp850
(dp851
g66
(dp852
g93
g94
ssg75
g842
sg68
(lp853
S':'
asbag61
(g82
g63
NtRp854
(dp855
g66
(dp856
sg75
g842
sg68
(lp857
g61
(g62
g63
NtRp858
(dp859
g66
(dp860
g74
I3
ssg75
g854
sg68
(lp861
S''
asbasbasbag61
(g77
g63
NtRp862
(dp863
g66
(dp864
sg75
g778
sg68
(lp865
g61
(g82
g63
NtRp866
(dp867
g66
(dp868
g86
g87
ssg75
g862
sg68
(lp869
g372
asbag61
(g82
g63
NtRp870
(dp871
g66
(dp872
g93
g94
ssg75
g862
sg68
(lp873
S':'
asbag61
(g82
g63
NtRp874
(dp875
g66
(dp876
sg75
g862
sg68
(lp877
g61
(g62
g63
NtRp878
(dp879
g66
(dp880
g74
I3
ssg75
g874
sg68
(lp881
S''
asbasbasbag61
(g77
g63
NtRp882
(dp883
g66
(dp884
sg75
g778
sg68
(lp885
g61
(g82
g63
NtRp886
(dp887
g66
(dp888
g86
g87
ssg75
g882
sg68
(lp889
g393
asbag61
(g82
g63
NtRp890
(dp891
g66
(dp892
g93
g94
ssg75
g882
sg68
(lp893
S':'
asbag61
(g82
g63
NtRp894
(dp895
g66
(dp896
sg75
g882
sg68
(lp897
g61
(g62
g63
NtRp898
(dp899
g66
(dp900
g74
I3
ssg75
g894
sg68
(lp901
S''
asbasbasbag61
(g77
g63
NtRp902
(dp903
g66
(dp904
sg75
g778
sg68
(lp905
g61
(g82
g63
NtRp906
(dp907
g66
(dp908
g86
g87
ssg75
g902
sg68
(lp909
g414
asbag61
(g82
g63
NtRp910
(dp911
g66
(dp912
g93
g94
ssg75
g902
sg68
(lp913
S':'
asbag61
(g82
g63
NtRp914
(dp915
g66
(dp916
sg75
g902
sg68
(lp917
g61
(g62
g63
NtRp918
(dp919
g66
(dp920
g74
I3
ssg75
g914
sg68
(lp921
S''
asbasbasbasbasbasbasbasbasbasbasbag61
(g77
g63
NtRp922
(dp923
g66
(dp924
sg75
g71
sg68
(lp925
g61
(g82
g63
NtRp926
(dp927
g66
(dp928
g86
g87
ssg75
g922
sg68
(lp929
S'env'
p930
asbag61
(g82
g63
NtRp931
(dp932
g66
(dp933
g93
g94
ssg75
g922
sg68
(lp934
S':'
asbag61
(g82
g63
NtRp935
(dp936
g66
(dp937
sg75
g922
sg68
(lp938
g61
(g62
g63
NtRp939
(dp940
g66
(dp941
g74
I5
ssg75
g935
sg68
(lp942
g61
(g70
g63
NtRp943
(dp944
g66
(dp945
g74
I4
ssg75
Nsg68
(lp946
g61
(g77
g63
NtRp947
(dp948
g66
(dp949
sg75
g943
sg68
(lp950
g61
(g82
g63
NtRp951
(dp952
g66
(dp953
g86
g87
ssg75
g947
sg68
(lp954
S'app_folders'
p955
asbag61
(g82
g63
NtRp956
(dp957
g66
(dp958
g93
g94
ssg75
g947
sg68
(lp959
S':'
asbag61
(g82
g63
NtRp960
(dp961
g66
(dp962
sg75
g947
sg68
(lp963
g61
(g62
g63
NtRp964
(dp965
g66
(dp966
g74
I4
ssg75
g960
sg68
(lp967
S"set(['D:\\\\Dise\\xf1o Web\\\\Proyectos\\\\Parleyweb\\\\web2py\\\\applications\\\\parleyweb\\\\', 'D:\\\\Dise\\xf1o Web\\\\Proyectos\\\\Parleyweb\\\\web2py\\\\applications\\\\welcome\\\\', 'D:\\\\Dise\\xf1o Web\\\\Proyectos\\\\Parleyweb\\\\web2py\\\\applications\\\\admin\\\\'])"
p968
asbasbasbag61
(g77
g63
NtRp969
(dp970
g66
(dp971
sg75
g943
sg68
(lp972
g61
(g82
g63
NtRp973
(dp974
g66
(dp975
g86
g87
ssg75
g969
sg68
(lp976
S'applications_parent'
p977
asbag61
(g82
g63
NtRp978
(dp979
g66
(dp980
g93
g94
ssg75
g969
sg68
(lp981
S':'
asbag61
(g82
g63
NtRp982
(dp983
g66
(dp984
sg75
g969
sg68
(lp985
g61
(g62
g63
NtRp986
(dp987
g66
(dp988
g74
I4
ssg75
g982
sg68
(lp989
S'D:\\Dise\xf1o Web\\Proyectos\\Parleyweb\\web2py'
p990
asbasbasbag61
(g77
g63
NtRp991
(dp992
g66
(dp993
sg75
g943
sg68
(lp994
g61
(g82
g63
NtRp995
(dp996
g66
(dp997
g86
g87
ssg75
g991
sg68
(lp998
S'cmd_args'
p999
asbag61
(g82
g63
NtRp1000
(dp1001
g66
(dp1002
g93
g94
ssg75
g991
sg68
(lp1003
S':'
asbag61
(g82
g63
NtRp1004
(dp1005
g66
(dp1006
sg75
g991
sg68
(lp1007
g61
(g62
g63
NtRp1008
(dp1009
g66
(dp1010
g74
I4
ssg75
g1004
sg68
(lp1011
g61
(g70
g63
NtRp1012
(dp1013
g66
(dp1014
g74
I3
ssg75
Nsg68
(lp1015
sbasbasbasbag61
(g77
g63
NtRp1016
(dp1017
g66
(dp1018
sg75
g943
sg68
(lp1019
g61
(g82
g63
NtRp1020
(dp1021
g66
(dp1022
g86
g87
ssg75
g1016
sg68
(lp1023
S'cmd_options'
p1024
asbag61
(g82
g63
NtRp1025
(dp1026
g66
(dp1027
g93
g94
ssg75
g1016
sg68
(lp1028
S':'
asbag61
(g82
g63
NtRp1029
(dp1030
g66
(dp1031
sg75
g1016
sg68
(lp1032
g61
(g62
g63
NtRp1033
(dp1034
g66
(dp1035
g74
I4
ssg75
g1029
sg68
(lp1036
S"<Values at 0x30bff30: {'verbose': False, 'ip': '127.0.0.1', 'shutdown_timeout': 5, 'taskbar': False, 'nocron': False, 'pid_filename': 'httpserver.pid', 'maxthreads': None, 'softcron': False, 'server_name': 'craxsnet-PC', 'bpython': False, 'nogui': False, 'port': 8000, 'extcron': False, 'debuglevel': 30, 'test': None, 'folder': 'D:\\\\Dise\\xf1o Web\\\\Proyectos\\\\Parleyweb\\\\web2py', 'config': '', 'import_models': False, 'winservice': '', 'shell': None, 'run': '', 'log_filename': 'httpserver.log', 'args': [''], 'socket_timeout': 5, 'ssl_ca_certificate': None, 'scheduler': None, 'profiler_filename': None, 'ssl_private_key': '', 'password': '<ask>', 'request_queue_size': 5, 'ssl_certificate': '', 'cronjob': False, 'numthreads': None, 'quiet': False, 'interfaces': None, 'minthreads': None, 'timeout': 10, 'plain': False, 'nobanner': False}>"
p1037
asbasbasbag61
(g77
g63
NtRp1038
(dp1039
g66
(dp1040
sg75
g943
sg68
(lp1041
g61
(g82
g63
NtRp1042
(dp1043
g66
(dp1044
g86
g87
ssg75
g1038
sg68
(lp1045
S'db_sessions'
p1046
asbag61
(g82
g63
NtRp1047
(dp1048
g66
(dp1049
g93
g94
ssg75
g1038
sg68
(lp1050
S':'
asbag61
(g82
g63
NtRp1051
(dp1052
g66
(dp1053
sg75
g1038
sg68
(lp1054
g61
(g62
g63
NtRp1055
(dp1056
g66
(dp1057
g74
I4
ssg75
g1051
sg68
(lp1058
S'set([])'
p1059
asbasbasbag61
(g77
g63
NtRp1060
(dp1061
g66
(dp1062
sg75
g943
sg68
(lp1063
g61
(g82
g63
NtRp1064
(dp1065
g66
(dp1066
g86
g87
ssg75
g1060
sg68
(lp1067
S'debugging'
p1068
asbag61
(g82
g63
NtRp1069
(dp1070
g66
(dp1071
g93
g94
ssg75
g1060
sg68
(lp1072
S':'
asbag61
(g82
g63
NtRp1073
(dp1074
g66
(dp1075
sg75
g1060
sg68
(lp1076
g61
(g62
g63
NtRp1077
(dp1078
g66
(dp1079
g74
I4
ssg75
g1073
sg68
(lp1080
g104
asbasbasbag61
(g77
g63
NtRp1081
(dp1082
g66
(dp1083
sg75
g943
sg68
(lp1084
g61
(g82
g63
NtRp1085
(dp1086
g66
(dp1087
g86
g87
ssg75
g1081
sg68
(lp1088
S'gluon_parent'
p1089
asbag61
(g82
g63
NtRp1090
(dp1091
g66
(dp1092
g93
g94
ssg75
g1081
sg68
(lp1093
S':'
asbag61
(g82
g63
NtRp1094
(dp1095
g66
(dp1096
sg75
g1081
sg68
(lp1097
g61
(g62
g63
NtRp1098
(dp1099
g66
(dp1100
g74
I4
ssg75
g1094
sg68
(lp1101
S'D:\\Dise\xf1o Web\\Proyectos\\Parleyweb\\web2py'
p1102
asbasbasbag61
(g77
g63
NtRp1103
(dp1104
g66
(dp1105
sg75
g943
sg68
(lp1106
g61
(g82
g63
NtRp1107
(dp1108
g66
(dp1109
g86
g87
ssg75
g1103
sg68
(lp1110
S'http_accept'
p1111
asbag61
(g82
g63
NtRp1112
(dp1113
g66
(dp1114
g93
g94
ssg75
g1103
sg68
(lp1115
S':'
asbag61
(g82
g63
NtRp1116
(dp1117
g66
(dp1118
sg75
g1103
sg68
(lp1119
g61
(g62
g63
NtRp1120
(dp1121
g66
(dp1122
g74
I4
ssg75
g1116
sg68
(lp1123
S'text/html,application/xhtml+xml,application/xml;q=0.9,*/*;q=0.8'
p1124
asbasbasbag61
(g77
g63
NtRp1125
(dp1126
g66
(dp1127
sg75
g943
sg68
(lp1128
g61
(g82
g63
NtRp1129
(dp1130
g66
(dp1131
g86
g87
ssg75
g1125
sg68
(lp1132
S'http_accept_encoding'
p1133
asbag61
(g82
g63
NtRp1134
(dp1135
g66
(dp1136
g93
g94
ssg75
g1125
sg68
(lp1137
S':'
asbag61
(g82
g63
NtRp1138
(dp1139
g66
(dp1140
sg75
g1125
sg68
(lp1141
g61
(g62
g63
NtRp1142
(dp1143
g66
(dp1144
g74
I4
ssg75
g1138
sg68
(lp1145
S'gzip, deflate'
p1146
asbasbasbag61
(g77
g63
NtRp1147
(dp1148
g66
(dp1149
sg75
g943
sg68
(lp1150
g61
(g82
g63
NtRp1151
(dp1152
g66
(dp1153
g86
g87
ssg75
g1147
sg68
(lp1154
S'http_accept_language'
p1155
asbag61
(g82
g63
NtRp1156
(dp1157
g66
(dp1158
g93
g94
ssg75
g1147
sg68
(lp1159
S':'
asbag61
(g82
g63
NtRp1160
(dp1161
g66
(dp1162
sg75
g1147
sg68
(lp1163
g61
(g62
g63
NtRp1164
(dp1165
g66
(dp1166
g74
I4
ssg75
g1160
sg68
(lp1167
S'es-es,de-de;q=0.8,es;q=0.6,en-us;q=0.4,en;q=0.2'
p1168
asbasbasbag61
(g77
g63
NtRp1169
(dp1170
g66
(dp1171
sg75
g943
sg68
(lp1172
g61
(g82
g63
NtRp1173
(dp1174
g66
(dp1175
g86
g87
ssg75
g1169
sg68
(lp1176
S'http_cache_control'
p1177
asbag61
(g82
g63
NtRp1178
(dp1179
g66
(dp1180
g93
g94
ssg75
g1169
sg68
(lp1181
S':'
asbag61
(g82
g63
NtRp1182
(dp1183
g66
(dp1184
sg75
g1169
sg68
(lp1185
g61
(g62
g63
NtRp1186
(dp1187
g66
(dp1188
g74
I4
ssg75
g1182
sg68
(lp1189
S'max-age=0'
p1190
asbasbasbag61
(g77
g63
NtRp1191
(dp1192
g66
(dp1193
sg75
g943
sg68
(lp1194
g61
(g82
g63
NtRp1195
(dp1196
g66
(dp1197
g86
g87
ssg75
g1191
sg68
(lp1198
S'http_connection'
p1199
asbag61
(g82
g63
NtRp1200
(dp1201
g66
(dp1202
g93
g94
ssg75
g1191
sg68
(lp1203
S':'
asbag61
(g82
g63
NtRp1204
(dp1205
g66
(dp1206
sg75
g1191
sg68
(lp1207
g61
(g62
g63
NtRp1208
(dp1209
g66
(dp1210
g74
I4
ssg75
g1204
sg68
(lp1211
S'keep-alive'
p1212
asbasbasbag61
(g77
g63
NtRp1213
(dp1214
g66
(dp1215
sg75
g943
sg68
(lp1216
g61
(g82
g63
NtRp1217
(dp1218
g66
(dp1219
g86
g87
ssg75
g1213
sg68
(lp1220
S'http_cookie'
p1221
asbag61
(g82
g63
NtRp1222
(dp1223
g66
(dp1224
g93
g94
ssg75
g1213
sg68
(lp1225
S':'
asbag61
(g82
g63
NtRp1226
(dp1227
g66
(dp1228
sg75
g1213
sg68
(lp1229
g61
(g62
g63
NtRp1230
(dp1231
g66
(dp1232
g74
I4
ssg75
g1226
sg68
(lp1233
S'__utma=96992031.26429765.1325029743.1325029743.1326549329.2; __utmz=96992031.1325029743.1.1.utmcsr=(direct)|utmccn=(direct)|utmcmd=(none); session_id_klaas=127.0.0.1-22979940-8cc3-49bc-9f44-0623615d817e; session_id_welcome=127.0.0.1-66b42615-8608-436c-b509-0246c4cfd00e; session_id_admin=127.0.0.1-e5279095-7b9f-4d46-b577-71e870d46308; session_id_parleyweb=127.0.0.1-941ea06b-718e-475d-8aba-022805d8afd9'
p1234
asbasbasbag61
(g77
g63
NtRp1235
(dp1236
g66
(dp1237
sg75
g943
sg68
(lp1238
g61
(g82
g63
NtRp1239
(dp1240
g66
(dp1241
g86
g87
ssg75
g1235
sg68
(lp1242
S'http_host'
p1243
asbag61
(g82
g63
NtRp1244
(dp1245
g66
(dp1246
g93
g94
ssg75
g1235
sg68
(lp1247
S':'
asbag61
(g82
g63
NtRp1248
(dp1249
g66
(dp1250
sg75
g1235
sg68
(lp1251
g61
(g62
g63
NtRp1252
(dp1253
g66
(dp1254
g74
I4
ssg75
g1248
sg68
(lp1255
S'127.0.0.1:8000'
p1256
asbasbasbag61
(g77
g63
NtRp1257
(dp1258
g66
(dp1259
sg75
g943
sg68
(lp1260
g61
(g82
g63
NtRp1261
(dp1262
g66
(dp1263
g86
g87
ssg75
g1257
sg68
(lp1264
S'http_user_agent'
p1265
asbag61
(g82
g63
NtRp1266
(dp1267
g66
(dp1268
g93
g94
ssg75
g1257
sg68
(lp1269
S':'
asbag61
(g82
g63
NtRp1270
(dp1271
g66
(dp1272
sg75
g1257
sg68
(lp1273
g61
(g62
g63
NtRp1274
(dp1275
g66
(dp1276
g74
I4
ssg75
g1270
sg68
(lp1277
S'Mozilla/5.0 (Windows NT 6.1; WOW64; rv:10.0.2) Gecko/20100101 Firefox/10.0.2'
p1278
asbasbasbag61
(g77
g63
NtRp1279
(dp1280
g66
(dp1281
sg75
g943
sg68
(lp1282
g61
(g82
g63
NtRp1283
(dp1284
g66
(dp1285
g86
g87
ssg75
g1279
sg68
(lp1286
S'is_jython'
p1287
asbag61
(g82
g63
NtRp1288
(dp1289
g66
(dp1290
g93
g94
ssg75
g1279
sg68
(lp1291
S':'
asbag61
(g82
g63
NtRp1292
(dp1293
g66
(dp1294
sg75
g1279
sg68
(lp1295
g61
(g62
g63
NtRp1296
(dp1297
g66
(dp1298
g74
I4
ssg75
g1292
sg68
(lp1299
g104
asbasbasbag61
(g77
g63
NtRp1300
(dp1301
g66
(dp1302
sg75
g943
sg68
(lp1303
g61
(g82
g63
NtRp1304
(dp1305
g66
(dp1306
g86
g87
ssg75
g1300
sg68
(lp1307
S'is_pypy'
p1308
asbag61
(g82
g63
NtRp1309
(dp1310
g66
(dp1311
g93
g94
ssg75
g1300
sg68
(lp1312
S':'
asbag61
(g82
g63
NtRp1313
(dp1314
g66
(dp1315
sg75
g1300
sg68
(lp1316
g61
(g62
g63
NtRp1317
(dp1318
g66
(dp1319
g74
I4
ssg75
g1313
sg68
(lp1320
g104
asbasbasbag61
(g77
g63
NtRp1321
(dp1322
g66
(dp1323
sg75
g943
sg68
(lp1324
g61
(g82
g63
NtRp1325
(dp1326
g66
(dp1327
g86
g87
ssg75
g1321
sg68
(lp1328
S'path_info'
p1329
asbag61
(g82
g63
NtRp1330
(dp1331
g66
(dp1332
g93
g94
ssg75
g1321
sg68
(lp1333
S':'
asbag61
(g82
g63
NtRp1334
(dp1335
g66
(dp1336
sg75
g1321
sg68
(lp1337
g61
(g62
g63
NtRp1338
(dp1339
g66
(dp1340
g74
I4
ssg75
g1334
sg68
(lp1341
S'/parleyweb/default/mostrar/82'
p1342
asbasbasbag61
(g77
g63
NtRp1343
(dp1344
g66
(dp1345
sg75
g943
sg68
(lp1346
g61
(g82
g63
NtRp1347
(dp1348
g66
(dp1349
g86
g87
ssg75
g1343
sg68
(lp1350
S'query_string'
p1351
asbag61
(g82
g63
NtRp1352
(dp1353
g66
(dp1354
g93
g94
ssg75
g1343
sg68
(lp1355
S':'
asbag61
(g82
g63
NtRp1356
(dp1357
g66
(dp1358
sg75
g1343
sg68
(lp1359
g61
(g62
g63
NtRp1360
(dp1361
g66
(dp1362
g74
I4
ssg75
g1356
sg68
(lp1363
S''
asbasbasbag61
(g77
g63
NtRp1364
(dp1365
g66
(dp1366
sg75
g943
sg68
(lp1367
g61
(g82
g63
NtRp1368
(dp1369
g66
(dp1370
g86
g87
ssg75
g1364
sg68
(lp1371
S'remote_addr'
p1372
asbag61
(g82
g63
NtRp1373
(dp1374
g66
(dp1375
g93
g94
ssg75
g1364
sg68
(lp1376
S':'
asbag61
(g82
g63
NtRp1377
(dp1378
g66
(dp1379
sg75
g1364
sg68
(lp1380
g61
(g62
g63
NtRp1381
(dp1382
g66
(dp1383
g74
I4
ssg75
g1377
sg68
(lp1384
g207
asbasbasbag61
(g77
g63
NtRp1385
(dp1386
g66
(dp1387
sg75
g943
sg68
(lp1388
g61
(g82
g63
NtRp1389
(dp1390
g66
(dp1391
g86
g87
ssg75
g1385
sg68
(lp1392
S'remote_port'
p1393
asbag61
(g82
g63
NtRp1394
(dp1395
g66
(dp1396
g93
g94
ssg75
g1385
sg68
(lp1397
S':'
asbag61
(g82
g63
NtRp1398
(dp1399
g66
(dp1400
sg75
g1385
sg68
(lp1401
g61
(g62
g63
NtRp1402
(dp1403
g66
(dp1404
g74
I4
ssg75
g1398
sg68
(lp1405
S'54601'
p1406
asbasbasbag61
(g77
g63
NtRp1407
(dp1408
g66
(dp1409
sg75
g943
sg68
(lp1410
g61
(g82
g63
NtRp1411
(dp1412
g66
(dp1413
g86
g87
ssg75
g1407
sg68
(lp1414
S'request_method'
p1415
asbag61
(g82
g63
NtRp1416
(dp1417
g66
(dp1418
g93
g94
ssg75
g1407
sg68
(lp1419
S':'
asbag61
(g82
g63
NtRp1420
(dp1421
g66
(dp1422
sg75
g1407
sg68
(lp1423
g61
(g62
g63
NtRp1424
(dp1425
g66
(dp1426
g74
I4
ssg75
g1420
sg68
(lp1427
S'GET'
p1428
asbasbasbag61
(g77
g63
NtRp1429
(dp1430
g66
(dp1431
sg75
g943
sg68
(lp1432
g61
(g82
g63
NtRp1433
(dp1434
g66
(dp1435
g86
g87
ssg75
g1429
sg68
(lp1436
S'script_name'
p1437
asbag61
(g82
g63
NtRp1438
(dp1439
g66
(dp1440
g93
g94
ssg75
g1429
sg68
(lp1441
S':'
asbag61
(g82
g63
NtRp1442
(dp1443
g66
(dp1444
sg75
g1429
sg68
(lp1445
g61
(g62
g63
NtRp1446
(dp1447
g66
(dp1448
g74
I4
ssg75
g1442
sg68
(lp1449
S''
asbasbasbag61
(g77
g63
NtRp1450
(dp1451
g66
(dp1452
sg75
g943
sg68
(lp1453
g61
(g82
g63
NtRp1454
(dp1455
g66
(dp1456
g86
g87
ssg75
g1450
sg68
(lp1457
S'server_name'
p1458
asbag61
(g82
g63
NtRp1459
(dp1460
g66
(dp1461
g93
g94
ssg75
g1450
sg68
(lp1462
S':'
asbag61
(g82
g63
NtRp1463
(dp1464
g66
(dp1465
sg75
g1450
sg68
(lp1466
g61
(g62
g63
NtRp1467
(dp1468
g66
(dp1469
g74
I4
ssg75
g1463
sg68
(lp1470
S'craxsnet-PC'
p1471
asbasbasbag61
(g77
g63
NtRp1472
(dp1473
g66
(dp1474
sg75
g943
sg68
(lp1475
g61
(g82
g63
NtRp1476
(dp1477
g66
(dp1478
g86
g87
ssg75
g1472
sg68
(lp1479
S'server_port'
p1480
asbag61
(g82
g63
NtRp1481
(dp1482
g66
(dp1483
g93
g94
ssg75
g1472
sg68
(lp1484
S':'
asbag61
(g82
g63
NtRp1485
(dp1486
g66
(dp1487
sg75
g1472
sg68
(lp1488
g61
(g62
g63
NtRp1489
(dp1490
g66
(dp1491
g74
I4
ssg75
g1485
sg68
(lp1492
S'8000'
p1493
asbasbasbag61
(g77
g63
NtRp1494
(dp1495
g66
(dp1496
sg75
g943
sg68
(lp1497
g61
(g82
g63
NtRp1498
(dp1499
g66
(dp1500
g86
g87
ssg75
g1494
sg68
(lp1501
S'server_protocol'
p1502
asbag61
(g82
g63
NtRp1503
(dp1504
g66
(dp1505
g93
g94
ssg75
g1494
sg68
(lp1506
S':'
asbag61
(g82
g63
NtRp1507
(dp1508
g66
(dp1509
sg75
g1494
sg68
(lp1510
g61
(g62
g63
NtRp1511
(dp1512
g66
(dp1513
g74
I4
ssg75
g1507
sg68
(lp1514
S'HTTP/1.1'
p1515
asbasbasbag61
(g77
g63
NtRp1516
(dp1517
g66
(dp1518
sg75
g943
sg68
(lp1519
g61
(g82
g63
NtRp1520
(dp1521
g66
(dp1522
g86
g87
ssg75
g1516
sg68
(lp1523
S'server_software'
p1524
asbag61
(g82
g63
NtRp1525
(dp1526
g66
(dp1527
g93
g94
ssg75
g1516
sg68
(lp1528
S':'
asbag61
(g82
g63
NtRp1529
(dp1530
g66
(dp1531
sg75
g1516
sg68
(lp1532
g61
(g62
g63
NtRp1533
(dp1534
g66
(dp1535
g74
I4
ssg75
g1529
sg68
(lp1536
S'Rocket 1.2.4'
p1537
asbasbasbag61
(g77
g63
NtRp1538
(dp1539
g66
(dp1540
sg75
g943
sg68
(lp1541
g61
(g82
g63
NtRp1542
(dp1543
g66
(dp1544
g86
g87
ssg75
g1538
sg68
(lp1545
S'web2py_crontype'
p1546
asbag61
(g82
g63
NtRp1547
(dp1548
g66
(dp1549
g93
g94
ssg75
g1538
sg68
(lp1550
S':'
asbag61
(g82
g63
NtRp1551
(dp1552
g66
(dp1553
sg75
g1538
sg68
(lp1554
g61
(g62
g63
NtRp1555
(dp1556
g66
(dp1557
g74
I4
ssg75
g1551
sg68
(lp1558
S'hard'
p1559
asbasbasbag61
(g77
g63
NtRp1560
(dp1561
g66
(dp1562
sg75
g943
sg68
(lp1563
g61
(g82
g63
NtRp1564
(dp1565
g66
(dp1566
g86
g87
ssg75
g1560
sg68
(lp1567
S'web2py_path'
p1568
asbag61
(g82
g63
NtRp1569
(dp1570
g66
(dp1571
g93
g94
ssg75
g1560
sg68
(lp1572
S':'
asbag61
(g82
g63
NtRp1573
(dp1574
g66
(dp1575
sg75
g1560
sg68
(lp1576
g61
(g62
g63
NtRp1577
(dp1578
g66
(dp1579
g74
I4
ssg75
g1573
sg68
(lp1580
g990
asbasbasbag61
(g77
g63
NtRp1581
(dp1582
g66
(dp1583
sg75
g943
sg68
(lp1584
g61
(g82
g63
NtRp1585
(dp1586
g66
(dp1587
g86
g87
ssg75
g1581
sg68
(lp1588
S'web2py_version'
p1589
asbag61
(g82
g63
NtRp1590
(dp1591
g66
(dp1592
g93
g94
ssg75
g1581
sg68
(lp1593
S':'
asbag61
(g82
g63
NtRp1594
(dp1595
g66
(dp1596
sg75
g1581
sg68
(lp1597
g61
(g62
g63
NtRp1598
(dp1599
g66
(dp1600
g74
I4
ssg75
g1594
sg68
(lp1601
g61
(g70
g63
NtRp1602
(dp1603
g66
(dp1604
g74
I3
ssg75
Nsg68
(lp1605
g61
(g77
g63
NtRp1606
(dp1607
g66
(dp1608
sg75
g1602
sg68
(lp1609
g61
(g82
g63
NtRp1610
(dp1611
g66
(dp1612
sg75
g1606
sg68
(lp1613
g61
(g62
g63
NtRp1614
(dp1615
g66
(dp1616
g74
I3
ssg75
g1610
sg68
(lp1617
S'1'
asbasbasbag61
(g77
g63
NtRp1618
(dp1619
g66
(dp1620
sg75
g1602
sg68
(lp1621
g61
(g82
g63
NtRp1622
(dp1623
g66
(dp1624
sg75
g1618
sg68
(lp1625
g61
(g62
g63
NtRp1626
(dp1627
g66
(dp1628
g74
I3
ssg75
g1622
sg68
(lp1629
S'99'
p1630
asbasbasbag61
(g77
g63
NtRp1631
(dp1632
g66
(dp1633
sg75
g1602
sg68
(lp1634
g61
(g82
g63
NtRp1635
(dp1636
g66
(dp1637
sg75
g1631
sg68
(lp1638
g61
(g62
g63
NtRp1639
(dp1640
g66
(dp1641
g74
I3
ssg75
g1635
sg68
(lp1642
S'7'
asbasbasbag61
(g77
g63
NtRp1643
(dp1644
g66
(dp1645
sg75
g1602
sg68
(lp1646
g61
(g82
g63
NtRp1647
(dp1648
g66
(dp1649
sg75
g1643
sg68
(lp1650
g61
(g62
g63
NtRp1651
(dp1652
g66
(dp1653
g74
I3
ssg75
g1647
sg68
(lp1654
S'datetime.datetime(2012, 3, 4, 22, 12, 8)'
p1655
asbasbasbag61
(g77
g63
NtRp1656
(dp1657
g66
(dp1658
sg75
g1602
sg68
(lp1659
g61
(g82
g63
NtRp1660
(dp1661
g66
(dp1662
sg75
g1656
sg68
(lp1663
g61
(g62
g63
NtRp1664
(dp1665
g66
(dp1666
g74
I3
ssg75
g1660
sg68
(lp1667
S'stable'
p1668
asbasbasbasbasbasbasbag61
(g77
g63
NtRp1669
(dp1670
g66
(dp1671
sg75
g943
sg68
(lp1672
g61
(g82
g63
NtRp1673
(dp1674
g66
(dp1675
g86
g87
ssg75
g1669
sg68
(lp1676
S'wsgi_errors'
p1677
asbag61
(g82
g63
NtRp1678
(dp1679
g66
(dp1680
g93
g94
ssg75
g1669
sg68
(lp1681
S':'
asbag61
(g82
g63
NtRp1682
(dp1683
g66
(dp1684
sg75
g1669
sg68
(lp1685
g61
(g62
g63
NtRp1686
(dp1687
g66
(dp1688
g74
I4
ssg75
g1682
sg68
(lp1689
S"<open file '<stderr>', mode 'w' at 0x01F400B0>"
p1690
asbasbasbag61
(g77
g63
NtRp1691
(dp1692
g66
(dp1693
sg75
g943
sg68
(lp1694
g61
(g82
g63
NtRp1695
(dp1696
g66
(dp1697
g86
g87
ssg75
g1691
sg68
(lp1698
S'wsgi_file_wrapper'
p1699
asbag61
(g82
g63
NtRp1700
(dp1701
g66
(dp1702
g93
g94
ssg75
g1691
sg68
(lp1703
S':'
asbag61
(g82
g63
NtRp1704
(dp1705
g66
(dp1706
sg75
g1691
sg68
(lp1707
g61
(g62
g63
NtRp1708
(dp1709
g66
(dp1710
g74
I4
ssg75
g1704
sg68
(lp1711
S'<class wsgiref.util.FileWrapper at 0x02EB5390>'
p1712
asbasbasbag61
(g77
g63
NtRp1713
(dp1714
g66
(dp1715
sg75
g943
sg68
(lp1716
g61
(g82
g63
NtRp1717
(dp1718
g66
(dp1719
g86
g87
ssg75
g1713
sg68
(lp1720
S'wsgi_input'
p1721
asbag61
(g82
g63
NtRp1722
(dp1723
g66
(dp1724
g93
g94
ssg75
g1713
sg68
(lp1725
S':'
asbag61
(g82
g63
NtRp1726
(dp1727
g66
(dp1728
sg75
g1713
sg68
(lp1729
g61
(g62
g63
NtRp1730
(dp1731
g66
(dp1732
g74
I4
ssg75
g1726
sg68
(lp1733
S'<socket._fileobject object at 0x06E237B0>'
p1734
asbasbasbag61
(g77
g63
NtRp1735
(dp1736
g66
(dp1737
sg75
g943
sg68
(lp1738
g61
(g82
g63
NtRp1739
(dp1740
g66
(dp1741
g86
g87
ssg75
g1735
sg68
(lp1742
S'wsgi_multiprocess'
p1743
asbag61
(g82
g63
NtRp1744
(dp1745
g66
(dp1746
g93
g94
ssg75
g1735
sg68
(lp1747
S':'
asbag61
(g82
g63
NtRp1748
(dp1749
g66
(dp1750
sg75
g1735
sg68
(lp1751
g61
(g62
g63
NtRp1752
(dp1753
g66
(dp1754
g74
I4
ssg75
g1748
sg68
(lp1755
g104
asbasbasbag61
(g77
g63
NtRp1756
(dp1757
g66
(dp1758
sg75
g943
sg68
(lp1759
g61
(g82
g63
NtRp1760
(dp1761
g66
(dp1762
g86
g87
ssg75
g1756
sg68
(lp1763
S'wsgi_multithread'
p1764
asbag61
(g82
g63
NtRp1765
(dp1766
g66
(dp1767
g93
g94
ssg75
g1756
sg68
(lp1768
S':'
asbag61
(g82
g63
NtRp1769
(dp1770
g66
(dp1771
sg75
g1756
sg68
(lp1772
g61
(g62
g63
NtRp1773
(dp1774
g66
(dp1775
g74
I4
ssg75
g1769
sg68
(lp1776
S'True'
p1777
asbasbasbag61
(g77
g63
NtRp1778
(dp1779
g66
(dp1780
sg75
g943
sg68
(lp1781
g61
(g82
g63
NtRp1782
(dp1783
g66
(dp1784
g86
g87
ssg75
g1778
sg68
(lp1785
S'wsgi_run_once'
p1786
asbag61
(g82
g63
NtRp1787
(dp1788
g66
(dp1789
g93
g94
ssg75
g1778
sg68
(lp1790
S':'
asbag61
(g82
g63
NtRp1791
(dp1792
g66
(dp1793
sg75
g1778
sg68
(lp1794
g61
(g62
g63
NtRp1795
(dp1796
g66
(dp1797
g74
I4
ssg75
g1791
sg68
(lp1798
g104
asbasbasbag61
(g77
g63
NtRp1799
(dp1800
g66
(dp1801
sg75
g943
sg68
(lp1802
g61
(g82
g63
NtRp1803
(dp1804
g66
(dp1805
g86
g87
ssg75
g1799
sg68
(lp1806
S'wsgi_url_scheme'
p1807
asbag61
(g82
g63
NtRp1808
(dp1809
g66
(dp1810
g93
g94
ssg75
g1799
sg68
(lp1811
S':'
asbag61
(g82
g63
NtRp1812
(dp1813
g66
(dp1814
sg75
g1799
sg68
(lp1815
g61
(g62
g63
NtRp1816
(dp1817
g66
(dp1818
g74
I4
ssg75
g1812
sg68
(lp1819
S'http'
p1820
asbasbasbag61
(g77
g63
NtRp1821
(dp1822
g66
(dp1823
sg75
g943
sg68
(lp1824
g61
(g82
g63
NtRp1825
(dp1826
g66
(dp1827
g86
g87
ssg75
g1821
sg68
(lp1828
S'wsgi_version'
p1829
asbag61
(g82
g63
NtRp1830
(dp1831
g66
(dp1832
g93
g94
ssg75
g1821
sg68
(lp1833
S':'
asbag61
(g82
g63
NtRp1834
(dp1835
g66
(dp1836
sg75
g1821
sg68
(lp1837
g61
(g62
g63
NtRp1838
(dp1839
g66
(dp1840
g74
I4
ssg75
g1834
sg68
(lp1841
g61
(g70
g63
NtRp1842
(dp1843
g66
(dp1844
g74
I3
ssg75
Nsg68
(lp1845
g61
(g77
g63
NtRp1846
(dp1847
g66
(dp1848
sg75
g1842
sg68
(lp1849
g61
(g82
g63
NtRp1850
(dp1851
g66
(dp1852
sg75
g1846
sg68
(lp1853
g61
(g62
g63
NtRp1854
(dp1855
g66
(dp1856
g74
I3
ssg75
g1850
sg68
(lp1857
S'1'
asbasbasbag61
(g77
g63
NtRp1858
(dp1859
g66
(dp1860
sg75
g1842
sg68
(lp1861
g61
(g82
g63
NtRp1862
(dp1863
g66
(dp1864
sg75
g1858
sg68
(lp1865
g61
(g62
g63
NtRp1866
(dp1867
g66
(dp1868
g74
I3
ssg75
g1862
sg68
(lp1869
S'0'
asbasbasbasbasbasbasbasbasbasbasbag61
(g77
g63
NtRp1870
(dp1871
g66
(dp1872
sg75
g71
sg68
(lp1873
g61
(g82
g63
NtRp1874
(dp1875
g66
(dp1876
g86
g87
ssg75
g1870
sg68
(lp1877
S'extension'
p1878
asbag61
(g82
g63
NtRp1879
(dp1880
g66
(dp1881
g93
g94
ssg75
g1870
sg68
(lp1882
S':'
asbag61
(g82
g63
NtRp1883
(dp1884
g66
(dp1885
sg75
g1870
sg68
(lp1886
g61
(g62
g63
NtRp1887
(dp1888
g66
(dp1889
g74
I5
ssg75
g1883
sg68
(lp1890
S'html'
p1891
asbasbasbag61
(g77
g63
NtRp1892
(dp1893
g66
(dp1894
sg75
g71
sg68
(lp1895
g61
(g82
g63
NtRp1896
(dp1897
g66
(dp1898
g86
g87
ssg75
g1892
sg68
(lp1899
S'folder'
p1900
asbag61
(g82
g63
NtRp1901
(dp1902
g66
(dp1903
g93
g94
ssg75
g1892
sg68
(lp1904
S':'
asbag61
(g82
g63
NtRp1905
(dp1906
g66
(dp1907
sg75
g1892
sg68
(lp1908
g61
(g62
g63
NtRp1909
(dp1910
g66
(dp1911
g74
I5
ssg75
g1905
sg68
(lp1912
S'D:\\Dise\xf1o Web\\Proyectos\\Parleyweb\\web2py\\applications\\parleyweb\\'
p1913
asbasbasbag61
(g77
g63
NtRp1914
(dp1915
g66
(dp1916
sg75
g71
sg68
(lp1917
g61
(g82
g63
NtRp1918
(dp1919
g66
(dp1920
g86
g87
ssg75
g1914
sg68
(lp1921
S'function'
p1922
asbag61
(g82
g63
NtRp1923
(dp1924
g66
(dp1925
g93
g94
ssg75
g1914
sg68
(lp1926
S':'
asbag61
(g82
g63
NtRp1927
(dp1928
g66
(dp1929
sg75
g1914
sg68
(lp1930
g61
(g62
g63
NtRp1931
(dp1932
g66
(dp1933
g74
I5
ssg75
g1927
sg68
(lp1934
S'mostrar'
p1935
asbasbasbag61
(g77
g63
NtRp1936
(dp1937
g66
(dp1938
sg75
g71
sg68
(lp1939
g61
(g82
g63
NtRp1940
(dp1941
g66
(dp1942
g86
g87
ssg75
g1936
sg68
(lp1943
S'get_vars'
p1944
asbag61
(g82
g63
NtRp1945
(dp1946
g66
(dp1947
g93
g94
ssg75
g1936
sg68
(lp1948
S':'
asbag61
(g82
g63
NtRp1949
(dp1950
g66
(dp1951
sg75
g1936
sg68
(lp1952
g61
(g62
g63
NtRp1953
(dp1954
g66
(dp1955
g74
I5
ssg75
g1949
sg68
(lp1956
g61
(g70
g63
NtRp1957
(dp1958
g66
(dp1959
g74
I4
ssg75
Nsg68
(lp1960
sbasbasbasbag61
(g77
g63
NtRp1961
(dp1962
g66
(dp1963
sg75
g71
sg68
(lp1964
g61
(g82
g63
NtRp1965
(dp1966
g66
(dp1967
g86
g87
ssg75
g1961
sg68
(lp1968
S'global_settings'
p1969
asbag61
(g82
g63
NtRp1970
(dp1971
g66
(dp1972
g93
g94
ssg75
g1961
sg68
(lp1973
S':'
asbag61
(g82
g63
NtRp1974
(dp1975
g66
(dp1976
sg75
g1961
sg68
(lp1977
g61
(g62
g63
NtRp1978
(dp1979
g66
(dp1980
g74
I5
ssg75
g1974
sg68
(lp1981
g61
(g70
g63
NtRp1982
(dp1983
g66
(dp1984
g74
I4
ssg75
Nsg68
(lp1985
g61
(g77
g63
NtRp1986
(dp1987
g66
(dp1988
sg75
g1982
sg68
(lp1989
g61
(g82
g63
NtRp1990
(dp1991
g66
(dp1992
g86
g87
ssg75
g1986
sg68
(lp1993
g955
asbag61
(g82
g63
NtRp1994
(dp1995
g66
(dp1996
g93
g94
ssg75
g1986
sg68
(lp1997
S':'
asbag61
(g82
g63
NtRp1998
(dp1999
g66
(dp2000
sg75
g1986
sg68
(lp2001
g61
(g62
g63
NtRp2002
(dp2003
g66
(dp2004
g74
I4
ssg75
g1998
sg68
(lp2005
S"set(['D:\\\\Dise\\xf1o Web\\\\Proyectos\\\\Parleyweb\\\\web2py\\\\applications\\\\parleyweb\\\\', 'D:\\\\Dise\\xf1o Web\\\\Proyectos\\\\Parleyweb\\\\web2py\\\\applications\\\\welcome\\\\', 'D:\\\\Dise\\xf1o Web\\\\Proyectos\\\\Parleyweb\\\\web2py\\\\applications\\\\admin\\\\'])"
p2006
asbasbasbag61
(g77
g63
NtRp2007
(dp2008
g66
(dp2009
sg75
g1982
sg68
(lp2010
g61
(g82
g63
NtRp2011
(dp2012
g66
(dp2013
g86
g87
ssg75
g2007
sg68
(lp2014
g977
asbag61
(g82
g63
NtRp2015
(dp2016
g66
(dp2017
g93
g94
ssg75
g2007
sg68
(lp2018
S':'
asbag61
(g82
g63
NtRp2019
(dp2020
g66
(dp2021
sg75
g2007
sg68
(lp2022
g61
(g62
g63
NtRp2023
(dp2024
g66
(dp2025
g74
I4
ssg75
g2019
sg68
(lp2026
g990
asbasbasbag61
(g77
g63
NtRp2027
(dp2028
g66
(dp2029
sg75
g1982
sg68
(lp2030
g61
(g82
g63
NtRp2031
(dp2032
g66
(dp2033
g86
g87
ssg75
g2027
sg68
(lp2034
g999
asbag61
(g82
g63
NtRp2035
(dp2036
g66
(dp2037
g93
g94
ssg75
g2027
sg68
(lp2038
S':'
asbag61
(g82
g63
NtRp2039
(dp2040
g66
(dp2041
sg75
g2027
sg68
(lp2042
g61
(g62
g63
NtRp2043
(dp2044
g66
(dp2045
g74
I4
ssg75
g2039
sg68
(lp2046
g61
(g70
g63
NtRp2047
(dp2048
g66
(dp2049
g74
I3
ssg75
Nsg68
(lp2050
sbasbasbasbag61
(g77
g63
NtRp2051
(dp2052
g66
(dp2053
sg75
g1982
sg68
(lp2054
g61
(g82
g63
NtRp2055
(dp2056
g66
(dp2057
g86
g87
ssg75
g2051
sg68
(lp2058
g1024
asbag61
(g82
g63
NtRp2059
(dp2060
g66
(dp2061
g93
g94
ssg75
g2051
sg68
(lp2062
S':'
asbag61
(g82
g63
NtRp2063
(dp2064
g66
(dp2065
sg75
g2051
sg68
(lp2066
g61
(g62
g63
NtRp2067
(dp2068
g66
(dp2069
g74
I4
ssg75
g2063
sg68
(lp2070
S"<Values at 0x30bff30: {'verbose': False, 'ip': '127.0.0.1', 'shutdown_timeout': 5, 'taskbar': False, 'nocron': False, 'pid_filename': 'httpserver.pid', 'maxthreads': None, 'softcron': False, 'server_name': 'craxsnet-PC', 'bpython': False, 'nogui': False, 'port': 8000, 'extcron': False, 'debuglevel': 30, 'test': None, 'folder': 'D:\\\\Dise\\xf1o Web\\\\Proyectos\\\\Parleyweb\\\\web2py', 'config': '', 'import_models': False, 'winservice': '', 'shell': None, 'run': '', 'log_filename': 'httpserver.log', 'args': [''], 'socket_timeout': 5, 'ssl_ca_certificate': None, 'scheduler': None, 'profiler_filename': None, 'ssl_private_key': '', 'password': '<ask>', 'request_queue_size': 5, 'ssl_certificate': '', 'cronjob': False, 'numthreads': None, 'quiet': False, 'interfaces': None, 'minthreads': None, 'timeout': 10, 'plain': False, 'nobanner': False}>"
p2071
asbasbasbag61
(g77
g63
NtRp2072
(dp2073
g66
(dp2074
sg75
g1982
sg68
(lp2075
g61
(g82
g63
NtRp2076
(dp2077
g66
(dp2078
g86
g87
ssg75
g2072
sg68
(lp2079
g1046
asbag61
(g82
g63
NtRp2080
(dp2081
g66
(dp2082
g93
g94
ssg75
g2072
sg68
(lp2083
S':'
asbag61
(g82
g63
NtRp2084
(dp2085
g66
(dp2086
sg75
g2072
sg68
(lp2087
g61
(g62
g63
NtRp2088
(dp2089
g66
(dp2090
g74
I4
ssg75
g2084
sg68
(lp2091
S'set([])'
p2092
asbasbasbag61
(g77
g63
NtRp2093
(dp2094
g66
(dp2095
sg75
g1982
sg68
(lp2096
g61
(g82
g63
NtRp2097
(dp2098
g66
(dp2099
g86
g87
ssg75
g2093
sg68
(lp2100
g1068
asbag61
(g82
g63
NtRp2101
(dp2102
g66
(dp2103
g93
g94
ssg75
g2093
sg68
(lp2104
S':'
asbag61
(g82
g63
NtRp2105
(dp2106
g66
(dp2107
sg75
g2093
sg68
(lp2108
g61
(g62
g63
NtRp2109
(dp2110
g66
(dp2111
g74
I4
ssg75
g2105
sg68
(lp2112
g104
asbasbasbag61
(g77
g63
NtRp2113
(dp2114
g66
(dp2115
sg75
g1982
sg68
(lp2116
g61
(g82
g63
NtRp2117
(dp2118
g66
(dp2119
g86
g87
ssg75
g2113
sg68
(lp2120
g1089
asbag61
(g82
g63
NtRp2121
(dp2122
g66
(dp2123
g93
g94
ssg75
g2113
sg68
(lp2124
S':'
asbag61
(g82
g63
NtRp2125
(dp2126
g66
(dp2127
sg75
g2113
sg68
(lp2128
g61
(g62
g63
NtRp2129
(dp2130
g66
(dp2131
g74
I4
ssg75
g2125
sg68
(lp2132
g1102
asbasbasbag61
(g77
g63
NtRp2133
(dp2134
g66
(dp2135
sg75
g1982
sg68
(lp2136
g61
(g82
g63
NtRp2137
(dp2138
g66
(dp2139
g86
g87
ssg75
g2133
sg68
(lp2140
g1287
asbag61
(g82
g63
NtRp2141
(dp2142
g66
(dp2143
g93
g94
ssg75
g2133
sg68
(lp2144
S':'
asbag61
(g82
g63
NtRp2145
(dp2146
g66
(dp2147
sg75
g2133
sg68
(lp2148
g61
(g62
g63
NtRp2149
(dp2150
g66
(dp2151
g74
I4
ssg75
g2145
sg68
(lp2152
g104
asbasbasbag61
(g77
g63
NtRp2153
(dp2154
g66
(dp2155
sg75
g1982
sg68
(lp2156
g61
(g82
g63
NtRp2157
(dp2158
g66
(dp2159
g86
g87
ssg75
g2153
sg68
(lp2160
g1308
asbag61
(g82
g63
NtRp2161
(dp2162
g66
(dp2163
g93
g94
ssg75
g2153
sg68
(lp2164
S':'
asbag61
(g82
g63
NtRp2165
(dp2166
g66
(dp2167
sg75
g2153
sg68
(lp2168
g61
(g62
g63
NtRp2169
(dp2170
g66
(dp2171
g74
I4
ssg75
g2165
sg68
(lp2172
g104
asbasbasbag61
(g77
g63
NtRp2173
(dp2174
g66
(dp2175
sg75
g1982
sg68
(lp2176
g61
(g82
g63
NtRp2177
(dp2178
g66
(dp2179
g86
g87
ssg75
g2173
sg68
(lp2180
g1546
asbag61
(g82
g63
NtRp2181
(dp2182
g66
(dp2183
g93
g94
ssg75
g2173
sg68
(lp2184
S':'
asbag61
(g82
g63
NtRp2185
(dp2186
g66
(dp2187
sg75
g2173
sg68
(lp2188
g61
(g62
g63
NtRp2189
(dp2190
g66
(dp2191
g74
I4
ssg75
g2185
sg68
(lp2192
g1559
asbasbasbag61
(g77
g63
NtRp2193
(dp2194
g66
(dp2195
sg75
g1982
sg68
(lp2196
g61
(g82
g63
NtRp2197
(dp2198
g66
(dp2199
g86
g87
ssg75
g2193
sg68
(lp2200
g1589
asbag61
(g82
g63
NtRp2201
(dp2202
g66
(dp2203
g93
g94
ssg75
g2193
sg68
(lp2204
S':'
asbag61
(g82
g63
NtRp2205
(dp2206
g66
(dp2207
sg75
g2193
sg68
(lp2208
g61
(g62
g63
NtRp2209
(dp2210
g66
(dp2211
g74
I4
ssg75
g2205
sg68
(lp2212
g61
(g70
g63
NtRp2213
(dp2214
g66
(dp2215
g74
I3
ssg75
Nsg68
(lp2216
g61
(g77
g63
NtRp2217
(dp2218
g66
(dp2219
sg75
g2213
sg68
(lp2220
g61
(g82
g63
NtRp2221
(dp2222
g66
(dp2223
sg75
g2217
sg68
(lp2224
g61
(g62
g63
NtRp2225
(dp2226
g66
(dp2227
g74
I3
ssg75
g2221
sg68
(lp2228
S'1'
asbasbasbag61
(g77
g63
NtRp2229
(dp2230
g66
(dp2231
sg75
g2213
sg68
(lp2232
g61
(g82
g63
NtRp2233
(dp2234
g66
(dp2235
sg75
g2229
sg68
(lp2236
g61
(g62
g63
NtRp2237
(dp2238
g66
(dp2239
g74
I3
ssg75
g2233
sg68
(lp2240
S'99'
p2241
asbasbasbag61
(g77
g63
NtRp2242
(dp2243
g66
(dp2244
sg75
g2213
sg68
(lp2245
g61
(g82
g63
NtRp2246
(dp2247
g66
(dp2248
sg75
g2242
sg68
(lp2249
g61
(g62
g63
NtRp2250
(dp2251
g66
(dp2252
g74
I3
ssg75
g2246
sg68
(lp2253
S'7'
asbasbasbag61
(g77
g63
NtRp2254
(dp2255
g66
(dp2256
sg75
g2213
sg68
(lp2257
g61
(g82
g63
NtRp2258
(dp2259
g66
(dp2260
sg75
g2254
sg68
(lp2261
g61
(g62
g63
NtRp2262
(dp2263
g66
(dp2264
g74
I3
ssg75
g2258
sg68
(lp2265
S'datetime.datetime(2012, 3, 4, 22, 12, 8)'
p2266
asbasbasbag61
(g77
g63
NtRp2267
(dp2268
g66
(dp2269
sg75
g2213
sg68
(lp2270
g61
(g82
g63
NtRp2271
(dp2272
g66
(dp2273
sg75
g2267
sg68
(lp2274
g61
(g62
g63
NtRp2275
(dp2276
g66
(dp2277
g74
I3
ssg75
g2271
sg68
(lp2278
g1668
asbasbasbasbasbasbasbasbasbasbasbag61
(g77
g63
NtRp2279
(dp2280
g66
(dp2281
sg75
g71
sg68
(lp2282
g61
(g82
g63
NtRp2283
(dp2284
g66
(dp2285
g86
g87
ssg75
g2279
sg68
(lp2286
S'is_https'
p2287
asbag61
(g82
g63
NtRp2288
(dp2289
g66
(dp2290
g93
g94
ssg75
g2279
sg68
(lp2291
S':'
asbag61
(g82
g63
NtRp2292
(dp2293
g66
(dp2294
sg75
g2279
sg68
(lp2295
g61
(g62
g63
NtRp2296
(dp2297
g66
(dp2298
g74
I5
ssg75
g2292
sg68
(lp2299
g104
asbasbasbag61
(g77
g63
NtRp2300
(dp2301
g66
(dp2302
sg75
g71
sg68
(lp2303
g61
(g82
g63
NtRp2304
(dp2305
g66
(dp2306
g86
g87
ssg75
g2300
sg68
(lp2307
S'is_local'
p2308
asbag61
(g82
g63
NtRp2309
(dp2310
g66
(dp2311
g93
g94
ssg75
g2300
sg68
(lp2312
S':'
asbag61
(g82
g63
NtRp2313
(dp2314
g66
(dp2315
sg75
g2300
sg68
(lp2316
g61
(g62
g63
NtRp2317
(dp2318
g66
(dp2319
g74
I5
ssg75
g2313
sg68
(lp2320
g1777
asbasbasbag61
(g77
g63
NtRp2321
(dp2322
g66
(dp2323
sg75
g71
sg68
(lp2324
g61
(g82
g63
NtRp2325
(dp2326
g66
(dp2327
g86
g87
ssg75
g2321
sg68
(lp2328
S'is_restful'
p2329
asbag61
(g82
g63
NtRp2330
(dp2331
g66
(dp2332
g93
g94
ssg75
g2321
sg68
(lp2333
S':'
asbag61
(g82
g63
NtRp2334
(dp2335
g66
(dp2336
sg75
g2321
sg68
(lp2337
g61
(g62
g63
NtRp2338
(dp2339
g66
(dp2340
g74
I5
ssg75
g2334
sg68
(lp2341
g104
asbasbasbag61
(g77
g63
NtRp2342
(dp2343
g66
(dp2344
sg75
g71
sg68
(lp2345
g61
(g82
g63
NtRp2346
(dp2347
g66
(dp2348
g86
g87
ssg75
g2342
sg68
(lp2349
S'now'
p2350
asbag61
(g82
g63
NtRp2351
(dp2352
g66
(dp2353
g93
g94
ssg75
g2342
sg68
(lp2354
S':'
asbag61
(g82
g63
NtRp2355
(dp2356
g66
(dp2357
sg75
g2342
sg68
(lp2358
g61
(g62
g63
NtRp2359
(dp2360
g66
(dp2361
g74
I5
ssg75
g2355
sg68
(lp2362
S'datetime.datetime(2012, 3, 10, 15, 9, 7, 845000)'
p2363
asbasbasbag61
(g77
g63
NtRp2364
(dp2365
g66
(dp2366
sg75
g71
sg68
(lp2367
g61
(g82
g63
NtRp2368
(dp2369
g66
(dp2370
g86
g87
ssg75
g2364
sg68
(lp2371
S'post_vars'
p2372
asbag61
(g82
g63
NtRp2373
(dp2374
g66
(dp2375
g93
g94
ssg75
g2364
sg68
(lp2376
S':'
asbag61
(g82
g63
NtRp2377
(dp2378
g66
(dp2379
sg75
g2364
sg68
(lp2380
g61
(g62
g63
NtRp2381
(dp2382
g66
(dp2383
g74
I5
ssg75
g2377
sg68
(lp2384
g61
(g70
g63
NtRp2385
(dp2386
g66
(dp2387
g74
I4
ssg75
Nsg68
(lp2388
sbasbasbasbag61
(g77
g63
NtRp2389
(dp2390
g66
(dp2391
sg75
g71
sg68
(lp2392
g61
(g82
g63
NtRp2393
(dp2394
g66
(dp2395
g86
g87
ssg75
g2389
sg68
(lp2396
S'raw_args'
p2397
asbag61
(g82
g63
NtRp2398
(dp2399
g66
(dp2400
g93
g94
ssg75
g2389
sg68
(lp2401
S':'
asbag61
(g82
g63
NtRp2402
(dp2403
g66
(dp2404
sg75
g2389
sg68
(lp2405
g61
(g62
g63
NtRp2406
(dp2407
g66
(dp2408
g74
I5
ssg75
g2402
sg68
(lp2409
S'82'
p2410
asbasbasbag61
(g77
g63
NtRp2411
(dp2412
g66
(dp2413
sg75
g71
sg68
(lp2414
g61
(g82
g63
NtRp2415
(dp2416
g66
(dp2417
g86
g87
ssg75
g2411
sg68
(lp2418
S'url'
p2419
asbag61
(g82
g63
NtRp2420
(dp2421
g66
(dp2422
g93
g94
ssg75
g2411
sg68
(lp2423
S':'
asbag61
(g82
g63
NtRp2424
(dp2425
g66
(dp2426
sg75
g2411
sg68
(lp2427
g61
(g62
g63
NtRp2428
(dp2429
g66
(dp2430
g74
I5
ssg75
g2424
sg68
(lp2431
S'/parleyweb/default/mostrar/82'
p2432
asbasbasbag61
(g77
g63
NtRp2433
(dp2434
g66
(dp2435
sg75
g71
sg68
(lp2436
g61
(g82
g63
NtRp2437
(dp2438
g66
(dp2439
g86
g87
ssg75
g2433
sg68
(lp2440
S'utcnow'
p2441
asbag61
(g82
g63
NtRp2442
(dp2443
g66
(dp2444
g93
g94
ssg75
g2433
sg68
(lp2445
S':'
asbag61
(g82
g63
NtRp2446
(dp2447
g66
(dp2448
sg75
g2433
sg68
(lp2449
g61
(g62
g63
NtRp2450
(dp2451
g66
(dp2452
g74
I5
ssg75
g2446
sg68
(lp2453
S'datetime.datetime(2012, 3, 10, 14, 9, 7, 845000)'
p2454
asbasbasbag61
(g77
g63
NtRp2455
(dp2456
g66
(dp2457
sg75
g71
sg68
(lp2458
g61
(g82
g63
NtRp2459
(dp2460
g66
(dp2461
g86
g87
ssg75
g2455
sg68
(lp2462
S'uuid'
p2463
asbag61
(g82
g63
NtRp2464
(dp2465
g66
(dp2466
g93
g94
ssg75
g2455
sg68
(lp2467
S':'
asbag61
(g82
g63
NtRp2468
(dp2469
g66
(dp2470
sg75
g2455
sg68
(lp2471
g61
(g62
g63
NtRp2472
(dp2473
g66
(dp2474
g74
I5
ssg75
g2468
sg68
(lp2475
S'parleyweb/127.0.0.1.2012-03-10.15-09-07.53bbebde-8642-4631-b5ce-a82869d8ef01'
p2476
asbasbasbag61
(g77
g63
NtRp2477
(dp2478
g66
(dp2479
sg75
g71
sg68
(lp2480
g61
(g82
g63
NtRp2481
(dp2482
g66
(dp2483
g86
g87
ssg75
g2477
sg68
(lp2484
S'vars'
p2485
asbag61
(g82
g63
NtRp2486
(dp2487
g66
(dp2488
g93
g94
ssg75
g2477
sg68
(lp2489
S':'
asbag61
(g82
g63
NtRp2490
(dp2491
g66
(dp2492
sg75
g2477
sg68
(lp2493
g61
(g62
g63
NtRp2494
(dp2495
g66
(dp2496
g74
I5
ssg75
g2490
sg68
(lp2497
g61
(g70
g63
NtRp2498
(dp2499
g66
(dp2500
g74
I4
ssg75
Nsg68
(lp2501
sbasbasbasbag61
(g77
g63
NtRp2502
(dp2503
g66
(dp2504
sg75
g71
sg68
(lp2505
g61
(g82
g63
NtRp2506
(dp2507
g66
(dp2508
g86
g87
ssg75
g2502
sg68
(lp2509
S'wsgi'
p2510
asbag61
(g82
g63
NtRp2511
(dp2512
g66
(dp2513
g93
g94
ssg75
g2502
sg68
(lp2514
S':'
asbag61
(g82
g63
NtRp2515
(dp2516
g66
(dp2517
sg75
g2502
sg68
(lp2518
g61
(g62
g63
NtRp2519
(dp2520
g66
(dp2521
g74
I5
ssg75
g2515
sg68
(lp2522
g61
(g70
g63
NtRp2523
(dp2524
g66
(dp2525
g74
I4
ssg75
Nsg68
(lp2526
g61
(g77
g63
NtRp2527
(dp2528
g66
(dp2529
sg75
g2523
sg68
(lp2530
g61
(g82
g63
NtRp2531
(dp2532
g66
(dp2533
g86
g87
ssg75
g2527
sg68
(lp2534
S'environ'
p2535
asbag61
(g82
g63
NtRp2536
(dp2537
g66
(dp2538
g93
g94
ssg75
g2527
sg68
(lp2539
S':'
asbag61
(g82
g63
NtRp2540
(dp2541
g66
(dp2542
sg75
g2527
sg68
(lp2543
g61
(g62
g63
NtRp2544
(dp2545
g66
(dp2546
g74
I4
ssg75
g2540
sg68
(lp2547
g61
(g70
g63
NtRp2548
(dp2549
g66
(dp2550
g74
I3
ssg75
Nsg68
(lp2551
g61
(g77
g63
NtRp2552
(dp2553
g66
(dp2554
sg75
g2548
sg68
(lp2555
g61
(g82
g63
NtRp2556
(dp2557
g66
(dp2558
g86
g87
ssg75
g2552
sg68
(lp2559
S'HTTP_ACCEPT'
p2560
asbag61
(g82
g63
NtRp2561
(dp2562
g66
(dp2563
g93
g94
ssg75
g2552
sg68
(lp2564
S':'
asbag61
(g82
g63
NtRp2565
(dp2566
g66
(dp2567
sg75
g2552
sg68
(lp2568
g61
(g62
g63
NtRp2569
(dp2570
g66
(dp2571
g74
I3
ssg75
g2565
sg68
(lp2572
g1124
asbasbasbag61
(g77
g63
NtRp2573
(dp2574
g66
(dp2575
sg75
g2548
sg68
(lp2576
g61
(g82
g63
NtRp2577
(dp2578
g66
(dp2579
g86
g87
ssg75
g2573
sg68
(lp2580
S'HTTP_ACCEPT_ENCODING'
p2581
asbag61
(g82
g63
NtRp2582
(dp2583
g66
(dp2584
g93
g94
ssg75
g2573
sg68
(lp2585
S':'
asbag61
(g82
g63
NtRp2586
(dp2587
g66
(dp2588
sg75
g2573
sg68
(lp2589
g61
(g62
g63
NtRp2590
(dp2591
g66
(dp2592
g74
I3
ssg75
g2586
sg68
(lp2593
g1146
asbasbasbag61
(g77
g63
NtRp2594
(dp2595
g66
(dp2596
sg75
g2548
sg68
(lp2597
g61
(g82
g63
NtRp2598
(dp2599
g66
(dp2600
g86
g87
ssg75
g2594
sg68
(lp2601
S'HTTP_ACCEPT_LANGUAGE'
p2602
asbag61
(g82
g63
NtRp2603
(dp2604
g66
(dp2605
g93
g94
ssg75
g2594
sg68
(lp2606
S':'
asbag61
(g82
g63
NtRp2607
(dp2608
g66
(dp2609
sg75
g2594
sg68
(lp2610
g61
(g62
g63
NtRp2611
(dp2612
g66
(dp2613
g74
I3
ssg75
g2607
sg68
(lp2614
g1168
asbasbasbag61
(g77
g63
NtRp2615
(dp2616
g66
(dp2617
sg75
g2548
sg68
(lp2618
g61
(g82
g63
NtRp2619
(dp2620
g66
(dp2621
g86
g87
ssg75
g2615
sg68
(lp2622
S'HTTP_CACHE_CONTROL'
p2623
asbag61
(g82
g63
NtRp2624
(dp2625
g66
(dp2626
g93
g94
ssg75
g2615
sg68
(lp2627
S':'
asbag61
(g82
g63
NtRp2628
(dp2629
g66
(dp2630
sg75
g2615
sg68
(lp2631
g61
(g62
g63
NtRp2632
(dp2633
g66
(dp2634
g74
I3
ssg75
g2628
sg68
(lp2635
g1190
asbasbasbag61
(g77
g63
NtRp2636
(dp2637
g66
(dp2638
sg75
g2548
sg68
(lp2639
g61
(g82
g63
NtRp2640
(dp2641
g66
(dp2642
g86
g87
ssg75
g2636
sg68
(lp2643
S'HTTP_CONNECTION'
p2644
asbag61
(g82
g63
NtRp2645
(dp2646
g66
(dp2647
g93
g94
ssg75
g2636
sg68
(lp2648
S':'
asbag61
(g82
g63
NtRp2649
(dp2650
g66
(dp2651
sg75
g2636
sg68
(lp2652
g61
(g62
g63
NtRp2653
(dp2654
g66
(dp2655
g74
I3
ssg75
g2649
sg68
(lp2656
g1212
asbasbasbag61
(g77
g63
NtRp2657
(dp2658
g66
(dp2659
sg75
g2548
sg68
(lp2660
g61
(g82
g63
NtRp2661
(dp2662
g66
(dp2663
g86
g87
ssg75
g2657
sg68
(lp2664
S'HTTP_COOKIE'
p2665
asbag61
(g82
g63
NtRp2666
(dp2667
g66
(dp2668
g93
g94
ssg75
g2657
sg68
(lp2669
S':'
asbag61
(g82
g63
NtRp2670
(dp2671
g66
(dp2672
sg75
g2657
sg68
(lp2673
g61
(g62
g63
NtRp2674
(dp2675
g66
(dp2676
g74
I3
ssg75
g2670
sg68
(lp2677
g1234
asbasbasbag61
(g77
g63
NtRp2678
(dp2679
g66
(dp2680
sg75
g2548
sg68
(lp2681
g61
(g82
g63
NtRp2682
(dp2683
g66
(dp2684
g86
g87
ssg75
g2678
sg68
(lp2685
S'HTTP_HOST'
p2686
asbag61
(g82
g63
NtRp2687
(dp2688
g66
(dp2689
g93
g94
ssg75
g2678
sg68
(lp2690
S':'
asbag61
(g82
g63
NtRp2691
(dp2692
g66
(dp2693
sg75
g2678
sg68
(lp2694
g61
(g62
g63
NtRp2695
(dp2696
g66
(dp2697
g74
I3
ssg75
g2691
sg68
(lp2698
g1256
asbasbasbag61
(g77
g63
NtRp2699
(dp2700
g66
(dp2701
sg75
g2548
sg68
(lp2702
g61
(g82
g63
NtRp2703
(dp2704
g66
(dp2705
g86
g87
ssg75
g2699
sg68
(lp2706
S'HTTP_USER_AGENT'
p2707
asbag61
(g82
g63
NtRp2708
(dp2709
g66
(dp2710
g93
g94
ssg75
g2699
sg68
(lp2711
S':'
asbag61
(g82
g63
NtRp2712
(dp2713
g66
(dp2714
sg75
g2699
sg68
(lp2715
g61
(g62
g63
NtRp2716
(dp2717
g66
(dp2718
g74
I3
ssg75
g2712
sg68
(lp2719
g1278
asbasbasbag61
(g77
g63
NtRp2720
(dp2721
g66
(dp2722
sg75
g2548
sg68
(lp2723
g61
(g82
g63
NtRp2724
(dp2725
g66
(dp2726
g86
g87
ssg75
g2720
sg68
(lp2727
S'PATH_INFO'
p2728
asbag61
(g82
g63
NtRp2729
(dp2730
g66
(dp2731
g93
g94
ssg75
g2720
sg68
(lp2732
S':'
asbag61
(g82
g63
NtRp2733
(dp2734
g66
(dp2735
sg75
g2720
sg68
(lp2736
g61
(g62
g63
NtRp2737
(dp2738
g66
(dp2739
g74
I3
ssg75
g2733
sg68
(lp2740
g1342
asbasbasbag61
(g77
g63
NtRp2741
(dp2742
g66
(dp2743
sg75
g2548
sg68
(lp2744
g61
(g82
g63
NtRp2745
(dp2746
g66
(dp2747
g86
g87
ssg75
g2741
sg68
(lp2748
S'QUERY_STRING'
p2749
asbag61
(g82
g63
NtRp2750
(dp2751
g66
(dp2752
g93
g94
ssg75
g2741
sg68
(lp2753
S':'
asbag61
(g82
g63
NtRp2754
(dp2755
g66
(dp2756
sg75
g2741
sg68
(lp2757
g61
(g62
g63
NtRp2758
(dp2759
g66
(dp2760
g74
I3
ssg75
g2754
sg68
(lp2761
S''
asbasbasbag61
(g77
g63
NtRp2762
(dp2763
g66
(dp2764
sg75
g2548
sg68
(lp2765
g61
(g82
g63
NtRp2766
(dp2767
g66
(dp2768
g86
g87
ssg75
g2762
sg68
(lp2769
S'REMOTE_ADDR'
p2770
asbag61
(g82
g63
NtRp2771
(dp2772
g66
(dp2773
g93
g94
ssg75
g2762
sg68
(lp2774
S':'
asbag61
(g82
g63
NtRp2775
(dp2776
g66
(dp2777
sg75
g2762
sg68
(lp2778
g61
(g62
g63
NtRp2779
(dp2780
g66
(dp2781
g74
I3
ssg75
g2775
sg68
(lp2782
g207
asbasbasbag61
(g77
g63
NtRp2783
(dp2784
g66
(dp2785
sg75
g2548
sg68
(lp2786
g61
(g82
g63
NtRp2787
(dp2788
g66
(dp2789
g86
g87
ssg75
g2783
sg68
(lp2790
S'REMOTE_PORT'
p2791
asbag61
(g82
g63
NtRp2792
(dp2793
g66
(dp2794
g93
g94
ssg75
g2783
sg68
(lp2795
S':'
asbag61
(g82
g63
NtRp2796
(dp2797
g66
(dp2798
sg75
g2783
sg68
(lp2799
g61
(g62
g63
NtRp2800
(dp2801
g66
(dp2802
g74
I3
ssg75
g2796
sg68
(lp2803
g1406
asbasbasbag61
(g77
g63
NtRp2804
(dp2805
g66
(dp2806
sg75
g2548
sg68
(lp2807
g61
(g82
g63
NtRp2808
(dp2809
g66
(dp2810
g86
g87
ssg75
g2804
sg68
(lp2811
S'REQUEST_METHOD'
p2812
asbag61
(g82
g63
NtRp2813
(dp2814
g66
(dp2815
g93
g94
ssg75
g2804
sg68
(lp2816
S':'
asbag61
(g82
g63
NtRp2817
(dp2818
g66
(dp2819
sg75
g2804
sg68
(lp2820
g61
(g62
g63
NtRp2821
(dp2822
g66
(dp2823
g74
I3
ssg75
g2817
sg68
(lp2824
g1428
asbasbasbag61
(g77
g63
NtRp2825
(dp2826
g66
(dp2827
sg75
g2548
sg68
(lp2828
g61
(g82
g63
NtRp2829
(dp2830
g66
(dp2831
g86
g87
ssg75
g2825
sg68
(lp2832
S'SCRIPT_NAME'
p2833
asbag61
(g82
g63
NtRp2834
(dp2835
g66
(dp2836
g93
g94
ssg75
g2825
sg68
(lp2837
S':'
asbag61
(g82
g63
NtRp2838
(dp2839
g66
(dp2840
sg75
g2825
sg68
(lp2841
g61
(g62
g63
NtRp2842
(dp2843
g66
(dp2844
g74
I3
ssg75
g2838
sg68
(lp2845
S''
asbasbasbag61
(g77
g63
NtRp2846
(dp2847
g66
(dp2848
sg75
g2548
sg68
(lp2849
g61
(g82
g63
NtRp2850
(dp2851
g66
(dp2852
g86
g87
ssg75
g2846
sg68
(lp2853
S'SERVER_NAME'
p2854
asbag61
(g82
g63
NtRp2855
(dp2856
g66
(dp2857
g93
g94
ssg75
g2846
sg68
(lp2858
S':'
asbag61
(g82
g63
NtRp2859
(dp2860
g66
(dp2861
sg75
g2846
sg68
(lp2862
g61
(g62
g63
NtRp2863
(dp2864
g66
(dp2865
g74
I3
ssg75
g2859
sg68
(lp2866
g1471
asbasbasbag61
(g77
g63
NtRp2867
(dp2868
g66
(dp2869
sg75
g2548
sg68
(lp2870
g61
(g82
g63
NtRp2871
(dp2872
g66
(dp2873
g86
g87
ssg75
g2867
sg68
(lp2874
S'SERVER_PORT'
p2875
asbag61
(g82
g63
NtRp2876
(dp2877
g66
(dp2878
g93
g94
ssg75
g2867
sg68
(lp2879
S':'
asbag61
(g82
g63
NtRp2880
(dp2881
g66
(dp2882
sg75
g2867
sg68
(lp2883
g61
(g62
g63
NtRp2884
(dp2885
g66
(dp2886
g74
I3
ssg75
g2880
sg68
(lp2887
g1493
asbasbasbag61
(g77
g63
NtRp2888
(dp2889
g66
(dp2890
sg75
g2548
sg68
(lp2891
g61
(g82
g63
NtRp2892
(dp2893
g66
(dp2894
g86
g87
ssg75
g2888
sg68
(lp2895
S'SERVER_PROTOCOL'
p2896
asbag61
(g82
g63
NtRp2897
(dp2898
g66
(dp2899
g93
g94
ssg75
g2888
sg68
(lp2900
S':'
asbag61
(g82
g63
NtRp2901
(dp2902
g66
(dp2903
sg75
g2888
sg68
(lp2904
g61
(g62
g63
NtRp2905
(dp2906
g66
(dp2907
g74
I3
ssg75
g2901
sg68
(lp2908
g1515
asbasbasbag61
(g77
g63
NtRp2909
(dp2910
g66
(dp2911
sg75
g2548
sg68
(lp2912
g61
(g82
g63
NtRp2913
(dp2914
g66
(dp2915
g86
g87
ssg75
g2909
sg68
(lp2916
S'SERVER_SOFTWARE'
p2917
asbag61
(g82
g63
NtRp2918
(dp2919
g66
(dp2920
g93
g94
ssg75
g2909
sg68
(lp2921
S':'
asbag61
(g82
g63
NtRp2922
(dp2923
g66
(dp2924
sg75
g2909
sg68
(lp2925
g61
(g62
g63
NtRp2926
(dp2927
g66
(dp2928
g74
I3
ssg75
g2922
sg68
(lp2929
g1537
asbasbasbag61
(g77
g63
NtRp2930
(dp2931
g66
(dp2932
sg75
g2548
sg68
(lp2933
g61
(g82
g63
NtRp2934
(dp2935
g66
(dp2936
g86
g87
ssg75
g2930
sg68
(lp2937
S'wsgi.errors'
p2938
asbag61
(g82
g63
NtRp2939
(dp2940
g66
(dp2941
g93
g94
ssg75
g2930
sg68
(lp2942
S':'
asbag61
(g82
g63
NtRp2943
(dp2944
g66
(dp2945
sg75
g2930
sg68
(lp2946
g61
(g62
g63
NtRp2947
(dp2948
g66
(dp2949
g74
I3
ssg75
g2943
sg68
(lp2950
S"<open file '<stderr>', mode 'w' at 0x01F400B0>"
p2951
asbasbasbag61
(g77
g63
NtRp2952
(dp2953
g66
(dp2954
sg75
g2548
sg68
(lp2955
g61
(g82
g63
NtRp2956
(dp2957
g66
(dp2958
g86
g87
ssg75
g2952
sg68
(lp2959
S'wsgi.file_wrapper'
p2960
asbag61
(g82
g63
NtRp2961
(dp2962
g66
(dp2963
g93
g94
ssg75
g2952
sg68
(lp2964
S':'
asbag61
(g82
g63
NtRp2965
(dp2966
g66
(dp2967
sg75
g2952
sg68
(lp2968
g61
(g62
g63
NtRp2969
(dp2970
g66
(dp2971
g74
I3
ssg75
g2965
sg68
(lp2972
S'<class wsgiref.util.FileWrapper at 0x02EB5390>'
p2973
asbasbasbag61
(g77
g63
NtRp2974
(dp2975
g66
(dp2976
sg75
g2548
sg68
(lp2977
g61
(g82
g63
NtRp2978
(dp2979
g66
(dp2980
g86
g87
ssg75
g2974
sg68
(lp2981
S'wsgi.input'
p2982
asbag61
(g82
g63
NtRp2983
(dp2984
g66
(dp2985
g93
g94
ssg75
g2974
sg68
(lp2986
S':'
asbag61
(g82
g63
NtRp2987
(dp2988
g66
(dp2989
sg75
g2974
sg68
(lp2990
g61
(g62
g63
NtRp2991
(dp2992
g66
(dp2993
g74
I3
ssg75
g2987
sg68
(lp2994
S'<cStringIO.StringO object at 0x06E1EE80>'
p2995
asbasbasbag61
(g77
g63
NtRp2996
(dp2997
g66
(dp2998
sg75
g2548
sg68
(lp2999
g61
(g82
g63
NtRp3000
(dp3001
g66
(dp3002
g86
g87
ssg75
g2996
sg68
(lp3003
S'wsgi.multiprocess'
p3004
asbag61
(g82
g63
NtRp3005
(dp3006
g66
(dp3007
g93
g94
ssg75
g2996
sg68
(lp3008
S':'
asbag61
(g82
g63
NtRp3009
(dp3010
g66
(dp3011
sg75
g2996
sg68
(lp3012
g61
(g62
g63
NtRp3013
(dp3014
g66
(dp3015
g74
I3
ssg75
g3009
sg68
(lp3016
g104
asbasbasbag61
(g77
g63
NtRp3017
(dp3018
g66
(dp3019
sg75
g2548
sg68
(lp3020
g61
(g82
g63
NtRp3021
(dp3022
g66
(dp3023
g86
g87
ssg75
g3017
sg68
(lp3024
S'wsgi.multithread'
p3025
asbag61
(g82
g63
NtRp3026
(dp3027
g66
(dp3028
g93
g94
ssg75
g3017
sg68
(lp3029
S':'
asbag61
(g82
g63
NtRp3030
(dp3031
g66
(dp3032
sg75
g3017
sg68
(lp3033
g61
(g62
g63
NtRp3034
(dp3035
g66
(dp3036
g74
I3
ssg75
g3030
sg68
(lp3037
g1777
asbasbasbag61
(g77
g63
NtRp3038
(dp3039
g66
(dp3040
sg75
g2548
sg68
(lp3041
g61
(g82
g63
NtRp3042
(dp3043
g66
(dp3044
g86
g87
ssg75
g3038
sg68
(lp3045
S'wsgi.run_once'
p3046
asbag61
(g82
g63
NtRp3047
(dp3048
g66
(dp3049
g93
g94
ssg75
g3038
sg68
(lp3050
S':'
asbag61
(g82
g63
NtRp3051
(dp3052
g66
(dp3053
sg75
g3038
sg68
(lp3054
g61
(g62
g63
NtRp3055
(dp3056
g66
(dp3057
g74
I3
ssg75
g3051
sg68
(lp3058
g104
asbasbasbag61
(g77
g63
NtRp3059
(dp3060
g66
(dp3061
sg75
g2548
sg68
(lp3062
g61
(g82
g63
NtRp3063
(dp3064
g66
(dp3065
g86
g87
ssg75
g3059
sg68
(lp3066
S'wsgi.url_scheme'
p3067
asbag61
(g82
g63
NtRp3068
(dp3069
g66
(dp3070
g93
g94
ssg75
g3059
sg68
(lp3071
S':'
asbag61
(g82
g63
NtRp3072
(dp3073
g66
(dp3074
sg75
g3059
sg68
(lp3075
g61
(g62
g63
NtRp3076
(dp3077
g66
(dp3078
g74
I3
ssg75
g3072
sg68
(lp3079
g1820
asbasbasbag61
(g77
g63
NtRp3080
(dp3081
g66
(dp3082
sg75
g2548
sg68
(lp3083
g61
(g82
g63
NtRp3084
(dp3085
g66
(dp3086
g86
g87
ssg75
g3080
sg68
(lp3087
S'wsgi.version'
p3088
asbag61
(g82
g63
NtRp3089
(dp3090
g66
(dp3091
g93
g94
ssg75
g3080
sg68
(lp3092
S':'
asbag61
(g82
g63
NtRp3093
(dp3094
g66
(dp3095
sg75
g3080
sg68
(lp3096
g61
(g62
g63
NtRp3097
(dp3098
g66
(dp3099
g74
I3
ssg75
g3093
sg68
(lp3100
S'1'
asbasbasbasbasbasbasbasbasbasbasbasbasbsS'frames'
p3101
(lp3102
(dp3103
S'file'
p3104
S'D:\\Dise\xf1o Web\\Proyectos\\Parleyweb\\web2py\\gluon\\restricted.py'
p3105
sS'dump'
p3106
(dp3107
sS'lnum'
p3108
I204
sS'lines'
p3109
(dp3110
sS'call'
p3111
S'(code=\'response.write(\\\'<!DOCTYPE html>\\\\n<!-- paulirish....>\\\\n   \\\\n\\\\n \\\\n\\\\n</body>\\\\n</html>\\\\n", escape=False)\', environment={\'A\': <class \'gluon.html.A\'>, \'Auth\': <class \'gluon.tools.Auth\'>, \'B\': <class \'gluon.html.B\'>, \'BEAUTIFY\': <class \'gluon.html.BEAUTIFY\'>, \'BODY\': <class \'gluon.html.BODY\'>, \'BR\': <class \'gluon.html.BR\'>, \'BUTTON\': <class \'gluon.html.BUTTON\'>, \'CAT\': <class \'gluon.html.CAT\'>, \'CENTER\': <class \'gluon.html.CENTER\'>, \'CLEANUP\': <class \'gluon.validators.CLEANUP\'>, ...}, layer=\'D:\\\\Dise\\xf1o Web\\\\Proyectos\\\\Parleyweb\\\\web2py\\\\applications\\\\parleyweb\\\\views\\\\default/mostrar.html\')'
p3112
sS'func'
p3113
S'restricted'
p3114
sa(dp3115
g3104
S'D:\\Dise\xf1o Web\\Proyectos\\Parleyweb\\web2py\\gluon\\restricted.py'
p3116
sg3106
(dp3117
sg3108
I189
sg3109
(dp3118
sg3111
S'(code=\'response.write(\\\'<!DOCTYPE html>\\\\n<!-- paulirish....>\\\\n   \\\\n\\\\n \\\\n\\\\n</body>\\\\n</html>\\\\n", escape=False)\', layer=\'D:\\\\Dise\\xf1o Web\\\\Proyectos\\\\Parleyweb\\\\web2py\\\\applications\\\\parleyweb\\\\views\\\\default/mostrar.html\')'
p3119
sg3113
S'compile2'
p3120
sasS'pyver'
p3121
S'Python 2.5.4: D:\\Dise\xf1o Web\\Proyectos\\Parleyweb\\web2py\\web2py.exe'
p3122
sS'session'
p3123
g61
(g62
g63
NtRp3124
(dp3125
g66
(dp3126
sg68
(lp3127
g61
(g70
g63
NtRp3128
(dp3129
g66
(dp3130
g74
I5
ssg75
Nsg68
(lp3131
g61
(g77
g63
NtRp3132
(dp3133
g66
(dp3134
sg75
g3128
sg68
(lp3135
g61
(g82
g63
NtRp3136
(dp3137
g66
(dp3138
g86
g87
ssg75
g3132
sg68
(lp3139
S'last_query'
p3140
asbag61
(g82
g63
NtRp3141
(dp3142
g66
(dp3143
g93
g94
ssg75
g3132
sg68
(lp3144
S':'
asbag61
(g82
g63
NtRp3145
(dp3146
g66
(dp3147
sg75
g3132
sg68
(lp3148
g61
(g62
g63
NtRp3149
(dp3150
g66
(dp3151
g74
I5
ssg75
g3145
sg68
(lp3152
S'db.palabras.id>0'
p3153
asbasbasbasbasbsS'etype'
p3154
S"<type 'exceptions.SyntaxError'>"
p3155
sS'date'
p3156
S'Sat Mar 10 15:09:07 2012'
p3157
sS'response'
p3158
g61
(g62
g63
NtRp3159
(dp3160
g66
(dp3161
sg68
(lp3162
g61
(g70
g63
NtRp3163
(dp3164
g66
(dp3165
g74
I5
ssg75
Nsg68
(lp3166
g61
(g77
g63
NtRp3167
(dp3168
g66
(dp3169
sg75
g3163
sg68
(lp3170
g61
(g82
g63
NtRp3171
(dp3172
g66
(dp3173
g86
g87
ssg75
g3167
sg68
(lp3174
g172
asbag61
(g82
g63
NtRp3175
(dp3176
g66
(dp3177
g93
g94
ssg75
g3167
sg68
(lp3178
S':'
asbag61
(g82
g63
NtRp3179
(dp3180
g66
(dp3181
sg75
g3167
sg68
(lp3182
g61
(g62
g63
NtRp3183
(dp3184
g66
(dp3185
g74
I5
ssg75
g3179
sg68
(lp3186
S'<cStringIO.StringO object at 0x0700B0C0>'
p3187
asbasbasbag61
(g77
g63
NtRp3188
(dp3189
g66
(dp3190
sg75
g3163
sg68
(lp3191
g61
(g82
g63
NtRp3192
(dp3193
g66
(dp3194
g86
g87
ssg75
g3188
sg68
(lp3195
g238
asbag61
(g82
g63
NtRp3196
(dp3197
g66
(dp3198
g93
g94
ssg75
g3188
sg68
(lp3199
S':'
asbag61
(g82
g63
NtRp3200
(dp3201
g66
(dp3202
sg75
g3188
sg68
(lp3203
g61
(g62
g63
NtRp3204
(dp3205
g66
(dp3206
g74
I5
ssg75
g3200
sg68
(lp3207
g61
(g70
g63
NtRp3208
(dp3209
g66
(dp3210
g74
I4
ssg75
Nsg68
(lp3211
g61
(g77
g63
NtRp3212
(dp3213
g66
(dp3214
sg75
g3208
sg68
(lp3215
g61
(g82
g63
NtRp3216
(dp3217
g66
(dp3218
g86
g87
ssg75
g3212
sg68
(lp3219
S'session_id_parleyweb'
p3220
asbag61
(g82
g63
NtRp3221
(dp3222
g66
(dp3223
g93
g94
ssg75
g3212
sg68
(lp3224
S':'
asbag61
(g82
g63
NtRp3225
(dp3226
g66
(dp3227
sg75
g3212
sg68
(lp3228
g61
(g62
g63
NtRp3229
(dp3230
g66
(dp3231
g74
I4
ssg75
g3225
sg68
(lp3232
g61
(g70
g63
NtRp3233
(dp3234
g66
(dp3235
g74
I3
ssg75
Nsg68
(lp3236
g61
(g77
g63
NtRp3237
(dp3238
g66
(dp3239
sg75
g3233
sg68
(lp3240
g61
(g82
g63
NtRp3241
(dp3242
g66
(dp3243
g86
g87
ssg75
g3237
sg68
(lp3244
g288
asbag61
(g82
g63
NtRp3245
(dp3246
g66
(dp3247
g93
g94
ssg75
g3237
sg68
(lp3248
S':'
asbag61
(g82
g63
NtRp3249
(dp3250
g66
(dp3251
sg75
g3237
sg68
(lp3252
g61
(g62
g63
NtRp3253
(dp3254
g66
(dp3255
g74
I3
ssg75
g3249
sg68
(lp3256
S''
asbasbasbag61
(g77
g63
NtRp3257
(dp3258
g66
(dp3259
sg75
g3233
sg68
(lp3260
g61
(g82
g63
NtRp3261
(dp3262
g66
(dp3263
g86
g87
ssg75
g3257
sg68
(lp3264
g309
asbag61
(g82
g63
NtRp3265
(dp3266
g66
(dp3267
g93
g94
ssg75
g3257
sg68
(lp3268
S':'
asbag61
(g82
g63
NtRp3269
(dp3270
g66
(dp3271
sg75
g3257
sg68
(lp3272
g61
(g62
g63
NtRp3273
(dp3274
g66
(dp3275
g74
I3
ssg75
g3269
sg68
(lp3276
S''
asbasbasbag61
(g77
g63
NtRp3277
(dp3278
g66
(dp3279
sg75
g3233
sg68
(lp3280
g61
(g82
g63
NtRp3281
(dp3282
g66
(dp3283
g86
g87
ssg75
g3277
sg68
(lp3284
g330
asbag61
(g82
g63
NtRp3285
(dp3286
g66
(dp3287
g93
g94
ssg75
g3277
sg68
(lp3288
S':'
asbag61
(g82
g63
NtRp3289
(dp3290
g66
(dp3291
sg75
g3277
sg68
(lp3292
g61
(g62
g63
NtRp3293
(dp3294
g66
(dp3295
g74
I3
ssg75
g3289
sg68
(lp3296
S''
asbasbasbag61
(g77
g63
NtRp3297
(dp3298
g66
(dp3299
sg75
g3233
sg68
(lp3300
g61
(g82
g63
NtRp3301
(dp3302
g66
(dp3303
g86
g87
ssg75
g3297
sg68
(lp3304
g351
asbag61
(g82
g63
NtRp3305
(dp3306
g66
(dp3307
g93
g94
ssg75
g3297
sg68
(lp3308
S':'
asbag61
(g82
g63
NtRp3309
(dp3310
g66
(dp3311
sg75
g3297
sg68
(lp3312
g61
(g62
g63
NtRp3313
(dp3314
g66
(dp3315
g74
I3
ssg75
g3309
sg68
(lp3316
S''
asbasbasbag61
(g77
g63
NtRp3317
(dp3318
g66
(dp3319
sg75
g3233
sg68
(lp3320
g61
(g82
g63
NtRp3321
(dp3322
g66
(dp3323
g86
g87
ssg75
g3317
sg68
(lp3324
g372
asbag61
(g82
g63
NtRp3325
(dp3326
g66
(dp3327
g93
g94
ssg75
g3317
sg68
(lp3328
S':'
asbag61
(g82
g63
NtRp3329
(dp3330
g66
(dp3331
sg75
g3317
sg68
(lp3332
g61
(g62
g63
NtRp3333
(dp3334
g66
(dp3335
g74
I3
ssg75
g3329
sg68
(lp3336
S'/'
asbasbasbag61
(g77
g63
NtRp3337
(dp3338
g66
(dp3339
sg75
g3233
sg68
(lp3340
g61
(g82
g63
NtRp3341
(dp3342
g66
(dp3343
g86
g87
ssg75
g3337
sg68
(lp3344
g393
asbag61
(g82
g63
NtRp3345
(dp3346
g66
(dp3347
g93
g94
ssg75
g3337
sg68
(lp3348
S':'
asbag61
(g82
g63
NtRp3349
(dp3350
g66
(dp3351
sg75
g3337
sg68
(lp3352
g61
(g62
g63
NtRp3353
(dp3354
g66
(dp3355
g74
I3
ssg75
g3349
sg68
(lp3356
S''
asbasbasbag61
(g77
g63
NtRp3357
(dp3358
g66
(dp3359
sg75
g3233
sg68
(lp3360
g61
(g82
g63
NtRp3361
(dp3362
g66
(dp3363
g86
g87
ssg75
g3357
sg68
(lp3364
g414
asbag61
(g82
g63
NtRp3365
(dp3366
g66
(dp3367
g93
g94
ssg75
g3357
sg68
(lp3368
S':'
asbag61
(g82
g63
NtRp3369
(dp3370
g66
(dp3371
sg75
g3357
sg68
(lp3372
g61
(g62
g63
NtRp3373
(dp3374
g66
(dp3375
g74
I3
ssg75
g3369
sg68
(lp3376
S''
asbasbasbasbasbasbasbasbasbasbasbag61
(g77
g63
NtRp3377
(dp3378
g66
(dp3379
sg75
g3163
sg68
(lp3380
g61
(g82
g63
NtRp3381
(dp3382
g66
(dp3383
g86
g87
ssg75
g3377
sg68
(lp3384
S'delimiters'
p3385
asbag61
(g82
g63
NtRp3386
(dp3387
g66
(dp3388
g93
g94
ssg75
g3377
sg68
(lp3389
S':'
asbag61
(g82
g63
NtRp3390
(dp3391
g66
(dp3392
sg75
g3377
sg68
(lp3393
g61
(g62
g63
NtRp3394
(dp3395
g66
(dp3396
g74
I5
ssg75
g3390
sg68
(lp3397
g61
(g70
g63
NtRp3398
(dp3399
g66
(dp3400
g74
I4
ssg75
Nsg68
(lp3401
g61
(g77
g63
NtRp3402
(dp3403
g66
(dp3404
sg75
g3398
sg68
(lp3405
g61
(g82
g63
NtRp3406
(dp3407
g66
(dp3408
sg75
g3402
sg68
(lp3409
g61
(g62
g63
NtRp3410
(dp3411
g66
(dp3412
g74
I4
ssg75
g3406
sg68
(lp3413
S'{{'
p3414
asbasbasbag61
(g77
g63
NtRp3415
(dp3416
g66
(dp3417
sg75
g3398
sg68
(lp3418
g61
(g82
g63
NtRp3419
(dp3420
g66
(dp3421
sg75
g3415
sg68
(lp3422
g61
(g62
g63
NtRp3423
(dp3424
g66
(dp3425
g74
I4
ssg75
g3419
sg68
(lp3426
S'}}'
p3427
asbasbasbasbasbasbasbag61
(g77
g63
NtRp3428
(dp3429
g66
(dp3430
sg75
g3163
sg68
(lp3431
g61
(g82
g63
NtRp3432
(dp3433
g66
(dp3434
g86
g87
ssg75
g3428
sg68
(lp3435
S'files'
p3436
asbag61
(g82
g63
NtRp3437
(dp3438
g66
(dp3439
g93
g94
ssg75
g3428
sg68
(lp3440
S':'
asbag61
(g82
g63
NtRp3441
(dp3442
g66
(dp3443
sg75
g3428
sg68
(lp3444
g61
(g62
g63
NtRp3445
(dp3446
g66
(dp3447
g74
I5
ssg75
g3441
sg68
(lp3448
g61
(g70
g63
NtRp3449
(dp3450
g66
(dp3451
g74
I4
ssg75
Nsg68
(lp3452
sbasbasbasbag61
(g77
g63
NtRp3453
(dp3454
g66
(dp3455
sg75
g3163
sg68
(lp3456
g61
(g82
g63
NtRp3457
(dp3458
g66
(dp3459
g86
g87
ssg75
g3453
sg68
(lp3460
S'flash'
p3461
asbag61
(g82
g63
NtRp3462
(dp3463
g66
(dp3464
g93
g94
ssg75
g3453
sg68
(lp3465
S':'
asbag61
(g82
g63
NtRp3466
(dp3467
g66
(dp3468
sg75
g3453
sg68
(lp3469
g61
(g62
g63
NtRp3470
(dp3471
g66
(dp3472
g74
I5
ssg75
g3466
sg68
(lp3473
S''
asbasbasbag61
(g77
g63
NtRp3474
(dp3475
g66
(dp3476
sg75
g3163
sg68
(lp3477
g61
(g82
g63
NtRp3478
(dp3479
g66
(dp3480
g86
g87
ssg75
g3474
sg68
(lp3481
S'generic_patterns'
p3482
asbag61
(g82
g63
NtRp3483
(dp3484
g66
(dp3485
g93
g94
ssg75
g3474
sg68
(lp3486
S':'
asbag61
(g82
g63
NtRp3487
(dp3488
g66
(dp3489
sg75
g3474
sg68
(lp3490
g61
(g62
g63
NtRp3491
(dp3492
g66
(dp3493
g74
I5
ssg75
g3487
sg68
(lp3494
g61
(g70
g63
NtRp3495
(dp3496
g66
(dp3497
g74
I4
ssg75
Nsg68
(lp3498
g61
(g77
g63
NtRp3499
(dp3500
g66
(dp3501
sg75
g3495
sg68
(lp3502
g61
(g82
g63
NtRp3503
(dp3504
g66
(dp3505
sg75
g3499
sg68
(lp3506
g61
(g62
g63
NtRp3507
(dp3508
g66
(dp3509
g74
I4
ssg75
g3503
sg68
(lp3510
S'*'
asbasbasbasbasbasbasbag61
(g77
g63
NtRp3511
(dp3512
g66
(dp3513
sg75
g3163
sg68
(lp3514
g61
(g82
g63
NtRp3515
(dp3516
g66
(dp3517
g86
g87
ssg75
g3511
sg68
(lp3518
S'headers'
p3519
asbag61
(g82
g63
NtRp3520
(dp3521
g66
(dp3522
g93
g94
ssg75
g3511
sg68
(lp3523
S':'
asbag61
(g82
g63
NtRp3524
(dp3525
g66
(dp3526
sg75
g3511
sg68
(lp3527
g61
(g62
g63
NtRp3528
(dp3529
g66
(dp3530
g74
I5
ssg75
g3524
sg68
(lp3531
g61
(g70
g63
NtRp3532
(dp3533
g66
(dp3534
g74
I4
ssg75
Nsg68
(lp3535
g61
(g77
g63
NtRp3536
(dp3537
g66
(dp3538
sg75
g3532
sg68
(lp3539
g61
(g82
g63
NtRp3540
(dp3541
g66
(dp3542
g86
g87
ssg75
g3536
sg68
(lp3543
S'Cache-Control'
p3544
asbag61
(g82
g63
NtRp3545
(dp3546
g66
(dp3547
g93
g94
ssg75
g3536
sg68
(lp3548
S':'
asbag61
(g82
g63
NtRp3549
(dp3550
g66
(dp3551
sg75
g3536
sg68
(lp3552
g61
(g62
g63
NtRp3553
(dp3554
g66
(dp3555
g74
I4
ssg75
g3549
sg68
(lp3556
S'no-store, no-cache, must-revalidate, post-check=0, pre-check=0'
p3557
asbasbasbag61
(g77
g63
NtRp3558
(dp3559
g66
(dp3560
sg75
g3532
sg68
(lp3561
g61
(g82
g63
NtRp3562
(dp3563
g66
(dp3564
g86
g87
ssg75
g3558
sg68
(lp3565
S'Content-Type'
p3566
asbag61
(g82
g63
NtRp3567
(dp3568
g66
(dp3569
g93
g94
ssg75
g3558
sg68
(lp3570
S':'
asbag61
(g82
g63
NtRp3571
(dp3572
g66
(dp3573
sg75
g3558
sg68
(lp3574
g61
(g62
g63
NtRp3575
(dp3576
g66
(dp3577
g74
I4
ssg75
g3571
sg68
(lp3578
S'text/html; charset=utf-8'
p3579
asbasbasbag61
(g77
g63
NtRp3580
(dp3581
g66
(dp3582
sg75
g3532
sg68
(lp3583
g61
(g82
g63
NtRp3584
(dp3585
g66
(dp3586
g86
g87
ssg75
g3580
sg68
(lp3587
S'Expires'
p3588
asbag61
(g82
g63
NtRp3589
(dp3590
g66
(dp3591
g93
g94
ssg75
g3580
sg68
(lp3592
S':'
asbag61
(g82
g63
NtRp3593
(dp3594
g66
(dp3595
sg75
g3580
sg68
(lp3596
g61
(g62
g63
NtRp3597
(dp3598
g66
(dp3599
g74
I4
ssg75
g3593
sg68
(lp3600
S'Sat, 10 Mar 2012 14:09:07 GMT'
p3601
asbasbasbag61
(g77
g63
NtRp3602
(dp3603
g66
(dp3604
sg75
g3532
sg68
(lp3605
g61
(g82
g63
NtRp3606
(dp3607
g66
(dp3608
g86
g87
ssg75
g3602
sg68
(lp3609
S'Pragma'
p3610
asbag61
(g82
g63
NtRp3611
(dp3612
g66
(dp3613
g93
g94
ssg75
g3602
sg68
(lp3614
S':'
asbag61
(g82
g63
NtRp3615
(dp3616
g66
(dp3617
sg75
g3602
sg68
(lp3618
g61
(g62
g63
NtRp3619
(dp3620
g66
(dp3621
g74
I4
ssg75
g3615
sg68
(lp3622
S'no-cache'
p3623
asbasbasbag61
(g77
g63
NtRp3624
(dp3625
g66
(dp3626
sg75
g3532
sg68
(lp3627
g61
(g82
g63
NtRp3628
(dp3629
g66
(dp3630
g86
g87
ssg75
g3624
sg68
(lp3631
S'X-Powered-By'
p3632
asbag61
(g82
g63
NtRp3633
(dp3634
g66
(dp3635
g93
g94
ssg75
g3624
sg68
(lp3636
S':'
asbag61
(g82
g63
NtRp3637
(dp3638
g66
(dp3639
sg75
g3624
sg68
(lp3640
g61
(g62
g63
NtRp3641
(dp3642
g66
(dp3643
g74
I4
ssg75
g3637
sg68
(lp3644
S'web2py'
p3645
asbasbasbasbasbasbasbag61
(g77
g63
NtRp3646
(dp3647
g66
(dp3648
sg75
g3163
sg68
(lp3649
g61
(g82
g63
NtRp3650
(dp3651
g66
(dp3652
g86
g87
ssg75
g3646
sg68
(lp3653
S'menu'
p3654
asbag61
(g82
g63
NtRp3655
(dp3656
g66
(dp3657
g93
g94
ssg75
g3646
sg68
(lp3658
S':'
asbag61
(g82
g63
NtRp3659
(dp3660
g66
(dp3661
sg75
g3646
sg68
(lp3662
g61
(g62
g63
NtRp3663
(dp3664
g66
(dp3665
g74
I5
ssg75
g3659
sg68
(lp3666
g61
(g70
g63
NtRp3667
(dp3668
g66
(dp3669
g74
I4
ssg75
Nsg68
(lp3670
g61
(g77
g63
NtRp3671
(dp3672
g66
(dp3673
sg75
g3667
sg68
(lp3674
g61
(g82
g63
NtRp3675
(dp3676
g66
(dp3677
sg75
g3671
sg68
(lp3678
g61
(g62
g63
NtRp3679
(dp3680
g66
(dp3681
g74
I4
ssg75
g3675
sg68
(lp3682
g61
(g70
g63
NtRp3683
(dp3684
g66
(dp3685
g74
I3
ssg75
Nsg68
(lp3686
g61
(g77
g63
NtRp3687
(dp3688
g66
(dp3689
sg75
g3683
sg68
(lp3690
g61
(g82
g63
NtRp3691
(dp3692
g66
(dp3693
sg75
g3687
sg68
(lp3694
g61
(g62
g63
NtRp3695
(dp3696
g66
(dp3697
g74
I3
ssg75
g3691
sg68
(lp3698
cgluon.languages
lazyT_unpickle
p3699
(S't\x04\x00\x00\x00Home'
tRp3700
asbasbasbag61
(g77
g63
NtRp3701
(dp3702
g66
(dp3703
sg75
g3683
sg68
(lp3704
g61
(g82
g63
NtRp3705
(dp3706
g66
(dp3707
sg75
g3701
sg68
(lp3708
g61
(g62
g63
NtRp3709
(dp3710
g66
(dp3711
g74
I3
ssg75
g3705
sg68
(lp3712
g104
asbasbasbag61
(g77
g63
NtRp3713
(dp3714
g66
(dp3715
sg75
g3683
sg68
(lp3716
g61
(g82
g63
NtRp3717
(dp3718
g66
(dp3719
sg75
g3713
sg68
(lp3720
g61
(g62
g63
NtRp3721
(dp3722
g66
(dp3723
g74
I3
ssg75
g3717
sg68
(lp3724
S'/parleyweb/default/index'
p3725
asbasbasbag61
(g77
g63
NtRp3726
(dp3727
g66
(dp3728
sg75
g3683
sg68
(lp3729
g61
(g82
g63
NtRp3730
(dp3731
g66
(dp3732
sg75
g3726
sg68
(lp3733
g61
(g62
g63
NtRp3734
(dp3735
g66
(dp3736
g74
I3
ssg75
g3730
sg68
(lp3737
g61
(g70
g63
NtRp3738
(dp3739
g66
(dp3740
g74
I2
ssg75
Nsg68
(lp3741
sbasbasbasbasbasbasbasbasbasbasbasbag61
(g77
g63
NtRp3742
(dp3743
g66
(dp3744
sg75
g3163
sg68
(lp3745
g61
(g82
g63
NtRp3746
(dp3747
g66
(dp3748
g86
g87
ssg75
g3742
sg68
(lp3749
S'meta'
p3750
asbag61
(g82
g63
NtRp3751
(dp3752
g66
(dp3753
g93
g94
ssg75
g3742
sg68
(lp3754
S':'
asbag61
(g82
g63
NtRp3755
(dp3756
g66
(dp3757
sg75
g3742
sg68
(lp3758
g61
(g62
g63
NtRp3759
(dp3760
g66
(dp3761
g74
I5
ssg75
g3755
sg68
(lp3762
g61
(g70
g63
NtRp3763
(dp3764
g66
(dp3765
g74
I4
ssg75
Nsg68
(lp3766
g61
(g77
g63
NtRp3767
(dp3768
g66
(dp3769
sg75
g3763
sg68
(lp3770
g61
(g82
g63
NtRp3771
(dp3772
g66
(dp3773
g86
g87
ssg75
g3767
sg68
(lp3774
S'author'
p3775
asbag61
(g82
g63
NtRp3776
(dp3777
g66
(dp3778
g93
g94
ssg75
g3767
sg68
(lp3779
S':'
asbag61
(g82
g63
NtRp3780
(dp3781
g66
(dp3782
sg75
g3767
sg68
(lp3783
g61
(g62
g63
NtRp3784
(dp3785
g66
(dp3786
g74
I4
ssg75
g3780
sg68
(lp3787
S'Your Name <you@example.com>'
p3788
asbasbasbag61
(g77
g63
NtRp3789
(dp3790
g66
(dp3791
sg75
g3763
sg68
(lp3792
g61
(g82
g63
NtRp3793
(dp3794
g66
(dp3795
g86
g87
ssg75
g3789
sg68
(lp3796
S'copyright'
p3797
asbag61
(g82
g63
NtRp3798
(dp3799
g66
(dp3800
g93
g94
ssg75
g3789
sg68
(lp3801
S':'
asbag61
(g82
g63
NtRp3802
(dp3803
g66
(dp3804
sg75
g3789
sg68
(lp3805
g61
(g62
g63
NtRp3806
(dp3807
g66
(dp3808
g74
I4
ssg75
g3802
sg68
(lp3809
S'Copyright 2011'
p3810
asbasbasbag61
(g77
g63
NtRp3811
(dp3812
g66
(dp3813
sg75
g3763
sg68
(lp3814
g61
(g82
g63
NtRp3815
(dp3816
g66
(dp3817
g86
g87
ssg75
g3811
sg68
(lp3818
S'description'
p3819
asbag61
(g82
g63
NtRp3820
(dp3821
g66
(dp3822
g93
g94
ssg75
g3811
sg68
(lp3823
S':'
asbag61
(g82
g63
NtRp3824
(dp3825
g66
(dp3826
sg75
g3811
sg68
(lp3827
g61
(g62
g63
NtRp3828
(dp3829
g66
(dp3830
g74
I4
ssg75
g3824
sg68
(lp3831
S'a cool new app'
p3832
asbasbasbag61
(g77
g63
NtRp3833
(dp3834
g66
(dp3835
sg75
g3763
sg68
(lp3836
g61
(g82
g63
NtRp3837
(dp3838
g66
(dp3839
g86
g87
ssg75
g3833
sg68
(lp3840
S'generator'
p3841
asbag61
(g82
g63
NtRp3842
(dp3843
g66
(dp3844
g93
g94
ssg75
g3833
sg68
(lp3845
S':'
asbag61
(g82
g63
NtRp3846
(dp3847
g66
(dp3848
sg75
g3833
sg68
(lp3849
g61
(g62
g63
NtRp3850
(dp3851
g66
(dp3852
g74
I4
ssg75
g3846
sg68
(lp3853
S'Web2py Web Framework'
p3854
asbasbasbag61
(g77
g63
NtRp3855
(dp3856
g66
(dp3857
sg75
g3763
sg68
(lp3858
g61
(g82
g63
NtRp3859
(dp3860
g66
(dp3861
g86
g87
ssg75
g3855
sg68
(lp3862
S'keywords'
p3863
asbag61
(g82
g63
NtRp3864
(dp3865
g66
(dp3866
g93
g94
ssg75
g3855
sg68
(lp3867
S':'
asbag61
(g82
g63
NtRp3868
(dp3869
g66
(dp3870
sg75
g3855
sg68
(lp3871
g61
(g62
g63
NtRp3872
(dp3873
g66
(dp3874
g74
I4
ssg75
g3868
sg68
(lp3875
S'web2py, python, framework'
p3876
asbasbasbasbasbasbasbag61
(g77
g63
NtRp3877
(dp3878
g66
(dp3879
sg75
g3163
sg68
(lp3880
g61
(g82
g63
NtRp3881
(dp3882
g66
(dp3883
g86
g87
ssg75
g3877
sg68
(lp3884
S'postprocessing'
p3885
asbag61
(g82
g63
NtRp3886
(dp3887
g66
(dp3888
g93
g94
ssg75
g3877
sg68
(lp3889
S':'
asbag61
(g82
g63
NtRp3890
(dp3891
g66
(dp3892
sg75
g3877
sg68
(lp3893
g61
(g62
g63
NtRp3894
(dp3895
g66
(dp3896
g74
I5
ssg75
g3890
sg68
(lp3897
g61
(g70
g63
NtRp3898
(dp3899
g66
(dp3900
g74
I4
ssg75
Nsg68
(lp3901
sbasbasbasbag61
(g77
g63
NtRp3902
(dp3903
g66
(dp3904
sg75
g3163
sg68
(lp3905
g61
(g82
g63
NtRp3906
(dp3907
g66
(dp3908
g86
g87
ssg75
g3902
sg68
(lp3909
S'session_file'
p3910
asbag61
(g82
g63
NtRp3911
(dp3912
g66
(dp3913
g93
g94
ssg75
g3902
sg68
(lp3914
S':'
asbag61
(g82
g63
NtRp3915
(dp3916
g66
(dp3917
sg75
g3902
sg68
(lp3918
g61
(g62
g63
NtRp3919
(dp3920
g66
(dp3921
g74
I5
ssg75
g3915
sg68
(lp3922
S"<open file 'D:\\Dise\xf1o Web\\Proyectos\\Parleyweb\\web2py\\applications\\parleyweb\\sessions\\127.0.0.1-941ea06b-718e-475d-8aba-022805d8afd9', mode 'rb+' at 0x0727D578>"
p3923
asbasbasbag61
(g77
g63
NtRp3924
(dp3925
g66
(dp3926
sg75
g3163
sg68
(lp3927
g61
(g82
g63
NtRp3928
(dp3929
g66
(dp3930
g86
g87
ssg75
g3924
sg68
(lp3931
S'session_filename'
p3932
asbag61
(g82
g63
NtRp3933
(dp3934
g66
(dp3935
g93
g94
ssg75
g3924
sg68
(lp3936
S':'
asbag61
(g82
g63
NtRp3937
(dp3938
g66
(dp3939
sg75
g3924
sg68
(lp3940
g61
(g62
g63
NtRp3941
(dp3942
g66
(dp3943
g74
I5
ssg75
g3937
sg68
(lp3944
S'D:\\Dise\xf1o Web\\Proyectos\\Parleyweb\\web2py\\applications\\parleyweb\\sessions\\127.0.0.1-941ea06b-718e-475d-8aba-022805d8afd9'
p3945
asbasbasbag61
(g77
g63
NtRp3946
(dp3947
g66
(dp3948
sg75
g3163
sg68
(lp3949
g61
(g82
g63
NtRp3950
(dp3951
g66
(dp3952
g86
g87
ssg75
g3946
sg68
(lp3953
S'session_id'
p3954
asbag61
(g82
g63
NtRp3955
(dp3956
g66
(dp3957
g93
g94
ssg75
g3946
sg68
(lp3958
S':'
asbag61
(g82
g63
NtRp3959
(dp3960
g66
(dp3961
sg75
g3946
sg68
(lp3962
g61
(g62
g63
NtRp3963
(dp3964
g66
(dp3965
g74
I5
ssg75
g3959
sg68
(lp3966
S'127.0.0.1-941ea06b-718e-475d-8aba-022805d8afd9'
p3967
asbasbasbag61
(g77
g63
NtRp3968
(dp3969
g66
(dp3970
sg75
g3163
sg68
(lp3971
g61
(g82
g63
NtRp3972
(dp3973
g66
(dp3974
g86
g87
ssg75
g3968
sg68
(lp3975
S'session_id_name'
p3976
asbag61
(g82
g63
NtRp3977
(dp3978
g66
(dp3979
g93
g94
ssg75
g3968
sg68
(lp3980
S':'
asbag61
(g82
g63
NtRp3981
(dp3982
g66
(dp3983
sg75
g3968
sg68
(lp3984
g61
(g62
g63
NtRp3985
(dp3986
g66
(dp3987
g74
I5
ssg75
g3981
sg68
(lp3988
g3220
asbasbasbag61
(g77
g63
NtRp3989
(dp3990
g66
(dp3991
sg75
g3163
sg68
(lp3992
g61
(g82
g63
NtRp3993
(dp3994
g66
(dp3995
g86
g87
ssg75
g3989
sg68
(lp3996
S'session_locked'
p3997
asbag61
(g82
g63
NtRp3998
(dp3999
g66
(dp4000
g93
g94
ssg75
g3989
sg68
(lp4001
S':'
asbag61
(g82
g63
NtRp4002
(dp4003
g66
(dp4004
sg75
g3989
sg68
(lp4005
g61
(g62
g63
NtRp4006
(dp4007
g66
(dp4008
g74
I5
ssg75
g4002
sg68
(lp4009
g1777
asbasbasbag61
(g77
g63
NtRp4010
(dp4011
g66
(dp4012
sg75
g3163
sg68
(lp4013
g61
(g82
g63
NtRp4014
(dp4015
g66
(dp4016
g86
g87
ssg75
g4010
sg68
(lp4017
S'session_new'
p4018
asbag61
(g82
g63
NtRp4019
(dp4020
g66
(dp4021
g93
g94
ssg75
g4010
sg68
(lp4022
S':'
asbag61
(g82
g63
NtRp4023
(dp4024
g66
(dp4025
sg75
g4010
sg68
(lp4026
g61
(g62
g63
NtRp4027
(dp4028
g66
(dp4029
g74
I5
ssg75
g4023
sg68
(lp4030
g104
asbasbasbag61
(g77
g63
NtRp4031
(dp4032
g66
(dp4033
sg75
g3163
sg68
(lp4034
g61
(g82
g63
NtRp4035
(dp4036
g66
(dp4037
g86
g87
ssg75
g4031
sg68
(lp4038
S'status'
p4039
asbag61
(g82
g63
NtRp4040
(dp4041
g66
(dp4042
g93
g94
ssg75
g4031
sg68
(lp4043
S':'
asbag61
(g82
g63
NtRp4044
(dp4045
g66
(dp4046
sg75
g4031
sg68
(lp4047
g61
(g62
g63
NtRp4048
(dp4049
g66
(dp4050
g74
I5
ssg75
g4044
sg68
(lp4051
S'200'
p4052
asbasbasbag61
(g77
g63
NtRp4053
(dp4054
g66
(dp4055
sg75
g3163
sg68
(lp4056
g61
(g82
g63
NtRp4057
(dp4058
g66
(dp4059
g86
g87
ssg75
g4053
sg68
(lp4060
S'subtitle'
p4061
asbag61
(g82
g63
NtRp4062
(dp4063
g66
(dp4064
g93
g94
ssg75
g4053
sg68
(lp4065
S':'
asbag61
(g82
g63
NtRp4066
(dp4067
g66
(dp4068
sg75
g4053
sg68
(lp4069
g61
(g62
g63
NtRp4070
(dp4071
g66
(dp4072
g74
I5
ssg75
g4066
sg68
(lp4073
g3699
(S's\t\x00\x00\x00Adaptame!'
tRp4074
asbasbasbag61
(g77
g63
NtRp4075
(dp4076
g66
(dp4077
sg75
g3163
sg68
(lp4078
g61
(g82
g63
NtRp4079
(dp4080
g66
(dp4081
g86
g87
ssg75
g4075
sg68
(lp4082
S'title'
p4083
asbag61
(g82
g63
NtRp4084
(dp4085
g66
(dp4086
g93
g94
ssg75
g4075
sg68
(lp4087
S':'
asbag61
(g82
g63
NtRp4088
(dp4089
g66
(dp4090
sg75
g4075
sg68
(lp4091
g61
(g62
g63
NtRp4092
(dp4093
g66
(dp4094
g74
I5
ssg75
g4088
sg68
(lp4095
S'Parleyweb'
p4096
asbasbasbag61
(g77
g63
NtRp4097
(dp4098
g66
(dp4099
sg75
g3163
sg68
(lp4100
g61
(g82
g63
NtRp4101
(dp4102
g66
(dp4103
g86
g87
ssg75
g4097
sg68
(lp4104
g2463
asbag61
(g82
g63
NtRp4105
(dp4106
g66
(dp4107
g93
g94
ssg75
g4097
sg68
(lp4108
S':'
asbag61
(g82
g63
NtRp4109
(dp4110
g66
(dp4111
sg75
g4097
sg68
(lp4112
g61
(g62
g63
NtRp4113
(dp4114
g66
(dp4115
g74
I5
ssg75
g4109
sg68
(lp4116
g2476
asbasbasbag61
(g77
g63
NtRp4117
(dp4118
g66
(dp4119
sg75
g3163
sg68
(lp4120
g61
(g82
g63
NtRp4121
(dp4122
g66
(dp4123
g86
g87
ssg75
g4117
sg68
(lp4124
S'view'
p4125
asbag61
(g82
g63
NtRp4126
(dp4127
g66
(dp4128
g93
g94
ssg75
g4117
sg68
(lp4129
S':'
asbag61
(g82
g63
NtRp4130
(dp4131
g66
(dp4132
sg75
g4117
sg68
(lp4133
g61
(g62
g63
NtRp4134
(dp4135
g66
(dp4136
g74
I5
ssg75
g4130
sg68
(lp4137
S'default/mostrar.html'
p4138
asbasbasbasbasbsS'locals'
p4139
(dp4140
g4
S"'D:\\\\Dise\\xf1o Web\\\\Proyectos\\\\Parleyweb\\\\web2py\\\\applications\\\\parleyweb\\\\views\\\\default/mostrar.html'"
p4141
sg6
S'\'response.write(\\\'<!DOCTYPE html>\\\\n<!-- paulirish....>\\\\n   \\\\n\\\\n \\\\n\\\\n</body>\\\\n</html>\\\\n", escape=False)\''
p4142
sssS'traceback'
p4143
S'Traceback (most recent call last):\n  File "gluon/restricted.py", line 204, in restricted\n  File "gluon/restricted.py", line 189, in compile2\n  File "D:\\Dise\xf1o Web\\Proyectos\\Parleyweb\\web2py\\applications\\parleyweb\\views\\default/mostrar.html", line 82\n    response.write(URL(\'static\', \'images/1.jpg\') rel="prettyPhoto" title="This is the description">\n                                                   ^\nSyntaxError: invalid syntax\n'
p4144
s.