(dp1
S'output'
p2
S"<type 'exceptions.NameError'> global name 'args' is not defined"
p3
sS'layer'
p4
S'D:\\Dise\xf1o Web\\Proyectos\\Parleyweb\\web2py\\applications\\parleyweb\\controllers/default.py'
p5
sS'code'
p6
S'# -*- coding: utf-8 -*-\n# this file is released under public domain and you can use without limitations\n\n#########################################################################\n## This is a samples controller\n## - index is the default action of any application\n## - user is required for authentication and authorization\n## - download is for downloading files uploaded in the db (does streaming)\n## - call exposes all registered services (none by default)\n#########################################################################\n\ndef index():\n    """\n    example action using the internationalization operator T and flash\n    rendered by views/default/index.html or views/generic.html\n    contains_prueba = db(db.ejemplos.ejemplo_de.contains([\'vorhang\',\'von\'], all=False)).select()\n    startswith_prueba = db(db.ejemplos.ejemplo_de.startswith(\'l\')).select()\n    """\n    record = db.palabras(request.raw_args)\n    return dict(record=record)\n\n\n    \n    \n\ndef user():\n    """\n    exposes:\n    http://..../[app]/default/user/login\n    http://..../[app]/default/user/logout\n    http://..../[app]/default/user/register\n    http://..../[app]/default/user/profile\n    http://..../[app]/default/user/retrieve_password\n    http://..../[app]/default/user/change_password\n    use @auth.requires_login()\n        @auth.requires_membership(\'group name\')\n        @auth.requires_permission(\'read\',\'table name\',record_id)\n    to decorate functions that need access control\n    """\n    return dict(form=auth())\n\n\ndef download():\n    """\n    allows downloading of uploaded files\n    http://..../[app]/default/download/[filename]\n    """\n    return response.download(request,db)\n\n\ndef call():\n    """\n    exposes services. for example:\n    http://..../[app]/default/call/jsonrpc\n    decorate with @services.jsonrpc the functions to expose\n    supports xml, json, xmlrpc, jsonrpc, amfrpc, rss, csv\n    """\n    return service()\n\n\n@auth.requires_signature()\ndef data():\n    """\n    http://..../[app]/default/data/tables\n    http://..../[app]/default/data/create/[table]\n    http://..../[app]/default/data/read/[table]/[id]\n    http://..../[app]/default/data/update/[table]/[id]\n    http://..../[app]/default/data/delete/[table]/[id]\n    http://..../[app]/default/data/select/[table]\n    http://..../[app]/default/data/search/[table]\n    but URLs must be signed, i.e. linked with\n      A(\'table\',_href=URL(\'data/tables\',user_signature=True))\n    or with the signed load operator\n      LOAD(\'default\',\'data.load\',args=\'tables\',ajax=True,user_signature=True)\n    """\n    return dict(form=crud())\n\ndef mostrar():\n    if not args:\n        redirect(URL(\'index\'))\n    palabras = db((db.palabras.id==request.raw_args)).select().first()\n    igualar = db((db.palabras.id==db.palabra_ejemplo.palabra)&(db.ejemplos.id==db.palabra_ejemplo.ejemplo))\n    ejemplos = igualar(db.palabras.id==request.raw_args)\n   # prueba = ejemplos(db.ejemplos.tipo==\'sustantivo\').select(db.ejemplos.ALL)\n    \n    return dict(palabras=palabras, ejemplos=ejemplos)\n\n\n\n\n\n\n\n\n\n\n\n\n\n\n\n\n\n\n\n\n\n\n\n\n\n\n\n\n\n\n\n\nresponse._vars=response._caller(mostrar)\n'
p7
sS'snapshot'
p8
(dp9
S'exception'
p10
(dp11
S'__hash__'
p12
S"<method-wrapper '__hash__' of exceptions.NameError object at 0x07743580>"
p13
sS'__setattr__'
p14
S"<method-wrapper '__setattr__' of exceptions.NameError object at 0x07743580>"
p15
sS'__reduce_ex__'
p16
S'<built-in method __reduce_ex__ of exceptions.NameError object at 0x07743580>'
p17
sS'__getslice__'
p18
S"<method-wrapper '__getslice__' of exceptions.NameError object at 0x07743580>"
p19
sS'__getitem__'
p20
S"<method-wrapper '__getitem__' of exceptions.NameError object at 0x07743580>"
p21
sS'__setstate__'
p22
S'<built-in method __setstate__ of exceptions.NameError object at 0x07743580>'
p23
sS'__reduce__'
p24
S'<built-in method __reduce__ of exceptions.NameError object at 0x07743580>'
p25
sS'__str__'
p26
S"<method-wrapper '__str__' of exceptions.NameError object at 0x07743580>"
p27
sS'args'
p28
S'("global name \'args\' is not defined",)'
p29
sS'__getattribute__'
p30
S"<method-wrapper '__getattribute__' of exceptions.NameError object at 0x07743580>"
p31
sS'__class__'
p32
S"<type 'exceptions.NameError'>"
p33
sS'__delattr__'
p34
S"<method-wrapper '__delattr__' of exceptions.NameError object at 0x07743580>"
p35
sS'__repr__'
p36
S"<method-wrapper '__repr__' of exceptions.NameError object at 0x07743580>"
p37
sS'__dict__'
p38
S'{}'
p39
sS'__doc__'
p40
S"'Name not found globally.'"
p41
sS'__init__'
p42
S"<method-wrapper '__init__' of exceptions.NameError object at 0x07743580>"
p43
sS'__new__'
p44
S'<built-in method __new__ of type object at 0x1E1CD8D8>'
p45
ssS'evalue'
p46
S"global name 'args' is not defined"
p47
sS'request'
p48
ccopy_reg
_reconstructor
p49
(cgluon.html
BEAUTIFY
p50
c__builtin__
object
p51
NtRp52
(dp53
S'attributes'
p54
(dp55
sS'components'
p56
(lp57
g49
(cgluon.html
TABLE
p58
g51
NtRp59
(dp60
g54
(dp61
S'level'
p62
I5
ssS'parent'
p63
Nsg56
(lp64
g49
(cgluon.html
TR
p65
g51
NtRp66
(dp67
g54
(dp68
sg63
g59
sg56
(lp69
g49
(cgluon.html
TD
p70
g51
NtRp71
(dp72
g54
(dp73
S'_style'
p74
S'font-weight:bold;vertical-align:top'
p75
ssg63
g66
sg56
(lp76
S'ajax'
p77
asbag49
(g70
g51
NtRp78
(dp79
g54
(dp80
S'_valign'
p81
S'top'
p82
ssg63
g66
sg56
(lp83
S':'
asbag49
(g70
g51
NtRp84
(dp85
g54
(dp86
sg63
g66
sg56
(lp87
g49
(g50
g51
NtRp88
(dp89
g54
(dp90
g62
I5
ssg63
g84
sg56
(lp91
S'False'
p92
asbasbasbag49
(g65
g51
NtRp93
(dp94
g54
(dp95
sg63
g59
sg56
(lp96
g49
(g70
g51
NtRp97
(dp98
g54
(dp99
g74
g75
ssg63
g93
sg56
(lp100
S'application'
p101
asbag49
(g70
g51
NtRp102
(dp103
g54
(dp104
g81
g82
ssg63
g93
sg56
(lp105
S':'
asbag49
(g70
g51
NtRp106
(dp107
g54
(dp108
sg63
g93
sg56
(lp109
g49
(g50
g51
NtRp110
(dp111
g54
(dp112
g62
I5
ssg63
g106
sg56
(lp113
S'parleyweb'
p114
asbasbasbag49
(g65
g51
NtRp115
(dp116
g54
(dp117
sg63
g59
sg56
(lp118
g49
(g70
g51
NtRp119
(dp120
g54
(dp121
g74
g75
ssg63
g115
sg56
(lp122
g28
asbag49
(g70
g51
NtRp123
(dp124
g54
(dp125
g81
g82
ssg63
g115
sg56
(lp126
S':'
asbag49
(g70
g51
NtRp127
(dp128
g54
(dp129
sg63
g115
sg56
(lp130
g49
(g50
g51
NtRp131
(dp132
g54
(dp133
g62
I5
ssg63
g127
sg56
(lp134
g49
(g58
g51
NtRp135
(dp136
g54
(dp137
g62
I4
ssg63
Nsg56
(lp138
g49
(g65
g51
NtRp139
(dp140
g54
(dp141
sg63
g135
sg56
(lp142
g49
(g70
g51
NtRp143
(dp144
g54
(dp145
sg63
g139
sg56
(lp146
g49
(g50
g51
NtRp147
(dp148
g54
(dp149
g62
I4
ssg63
g143
sg56
(lp150
S'82'
p151
asbasbasbasbasbasbasbag49
(g65
g51
NtRp152
(dp153
g54
(dp154
sg63
g59
sg56
(lp155
g49
(g70
g51
NtRp156
(dp157
g54
(dp158
g74
g75
ssg63
g152
sg56
(lp159
S'body'
p160
asbag49
(g70
g51
NtRp161
(dp162
g54
(dp163
g81
g82
ssg63
g152
sg56
(lp164
S':'
asbag49
(g70
g51
NtRp165
(dp166
g54
(dp167
sg63
g152
sg56
(lp168
g49
(g50
g51
NtRp169
(dp170
g54
(dp171
g62
I5
ssg63
g165
sg56
(lp172
S'<cStringIO.StringO object at 0x075A4D20>'
p173
asbasbasbag49
(g65
g51
NtRp174
(dp175
g54
(dp176
sg63
g59
sg56
(lp177
g49
(g70
g51
NtRp178
(dp179
g54
(dp180
g74
g75
ssg63
g174
sg56
(lp181
S'client'
p182
asbag49
(g70
g51
NtRp183
(dp184
g54
(dp185
g81
g82
ssg63
g174
sg56
(lp186
S':'
asbag49
(g70
g51
NtRp187
(dp188
g54
(dp189
sg63
g174
sg56
(lp190
g49
(g50
g51
NtRp191
(dp192
g54
(dp193
g62
I5
ssg63
g187
sg56
(lp194
S'127.0.0.1'
p195
asbasbasbag49
(g65
g51
NtRp196
(dp197
g54
(dp198
sg63
g59
sg56
(lp199
g49
(g70
g51
NtRp200
(dp201
g54
(dp202
g74
g75
ssg63
g196
sg56
(lp203
S'controller'
p204
asbag49
(g70
g51
NtRp205
(dp206
g54
(dp207
g81
g82
ssg63
g196
sg56
(lp208
S':'
asbag49
(g70
g51
NtRp209
(dp210
g54
(dp211
sg63
g196
sg56
(lp212
g49
(g50
g51
NtRp213
(dp214
g54
(dp215
g62
I5
ssg63
g209
sg56
(lp216
S'default'
p217
asbasbasbag49
(g65
g51
NtRp218
(dp219
g54
(dp220
sg63
g59
sg56
(lp221
g49
(g70
g51
NtRp222
(dp223
g54
(dp224
g74
g75
ssg63
g218
sg56
(lp225
S'cookies'
p226
asbag49
(g70
g51
NtRp227
(dp228
g54
(dp229
g81
g82
ssg63
g218
sg56
(lp230
S':'
asbag49
(g70
g51
NtRp231
(dp232
g54
(dp233
sg63
g218
sg56
(lp234
g49
(g50
g51
NtRp235
(dp236
g54
(dp237
g62
I5
ssg63
g231
sg56
(lp238
g49
(g58
g51
NtRp239
(dp240
g54
(dp241
g62
I4
ssg63
Nsg56
(lp242
g49
(g65
g51
NtRp243
(dp244
g54
(dp245
sg63
g239
sg56
(lp246
g49
(g70
g51
NtRp247
(dp248
g54
(dp249
g74
g75
ssg63
g243
sg56
(lp250
S'session_id_admin'
p251
asbag49
(g70
g51
NtRp252
(dp253
g54
(dp254
g81
g82
ssg63
g243
sg56
(lp255
S':'
asbag49
(g70
g51
NtRp256
(dp257
g54
(dp258
sg63
g243
sg56
(lp259
g49
(g50
g51
NtRp260
(dp261
g54
(dp262
g62
I4
ssg63
g256
sg56
(lp263
g49
(g58
g51
NtRp264
(dp265
g54
(dp266
g62
I3
ssg63
Nsg56
(lp267
g49
(g65
g51
NtRp268
(dp269
g54
(dp270
sg63
g264
sg56
(lp271
g49
(g70
g51
NtRp272
(dp273
g54
(dp274
g74
g75
ssg63
g268
sg56
(lp275
S'comment'
p276
asbag49
(g70
g51
NtRp277
(dp278
g54
(dp279
g81
g82
ssg63
g268
sg56
(lp280
S':'
asbag49
(g70
g51
NtRp281
(dp282
g54
(dp283
sg63
g268
sg56
(lp284
g49
(g50
g51
NtRp285
(dp286
g54
(dp287
g62
I3
ssg63
g281
sg56
(lp288
S''
asbasbasbag49
(g65
g51
NtRp289
(dp290
g54
(dp291
sg63
g264
sg56
(lp292
g49
(g70
g51
NtRp293
(dp294
g54
(dp295
g74
g75
ssg63
g289
sg56
(lp296
S'domain'
p297
asbag49
(g70
g51
NtRp298
(dp299
g54
(dp300
g81
g82
ssg63
g289
sg56
(lp301
S':'
asbag49
(g70
g51
NtRp302
(dp303
g54
(dp304
sg63
g289
sg56
(lp305
g49
(g50
g51
NtRp306
(dp307
g54
(dp308
g62
I3
ssg63
g302
sg56
(lp309
S''
asbasbasbag49
(g65
g51
NtRp310
(dp311
g54
(dp312
sg63
g264
sg56
(lp313
g49
(g70
g51
NtRp314
(dp315
g54
(dp316
g74
g75
ssg63
g310
sg56
(lp317
S'expires'
p318
asbag49
(g70
g51
NtRp319
(dp320
g54
(dp321
g81
g82
ssg63
g310
sg56
(lp322
S':'
asbag49
(g70
g51
NtRp323
(dp324
g54
(dp325
sg63
g310
sg56
(lp326
g49
(g50
g51
NtRp327
(dp328
g54
(dp329
g62
I3
ssg63
g323
sg56
(lp330
S''
asbasbasbag49
(g65
g51
NtRp331
(dp332
g54
(dp333
sg63
g264
sg56
(lp334
g49
(g70
g51
NtRp335
(dp336
g54
(dp337
g74
g75
ssg63
g331
sg56
(lp338
S'max-age'
p339
asbag49
(g70
g51
NtRp340
(dp341
g54
(dp342
g81
g82
ssg63
g331
sg56
(lp343
S':'
asbag49
(g70
g51
NtRp344
(dp345
g54
(dp346
sg63
g331
sg56
(lp347
g49
(g50
g51
NtRp348
(dp349
g54
(dp350
g62
I3
ssg63
g344
sg56
(lp351
S''
asbasbasbag49
(g65
g51
NtRp352
(dp353
g54
(dp354
sg63
g264
sg56
(lp355
g49
(g70
g51
NtRp356
(dp357
g54
(dp358
g74
g75
ssg63
g352
sg56
(lp359
S'path'
p360
asbag49
(g70
g51
NtRp361
(dp362
g54
(dp363
g81
g82
ssg63
g352
sg56
(lp364
S':'
asbag49
(g70
g51
NtRp365
(dp366
g54
(dp367
sg63
g352
sg56
(lp368
g49
(g50
g51
NtRp369
(dp370
g54
(dp371
g62
I3
ssg63
g365
sg56
(lp372
S''
asbasbasbag49
(g65
g51
NtRp373
(dp374
g54
(dp375
sg63
g264
sg56
(lp376
g49
(g70
g51
NtRp377
(dp378
g54
(dp379
g74
g75
ssg63
g373
sg56
(lp380
S'secure'
p381
asbag49
(g70
g51
NtRp382
(dp383
g54
(dp384
g81
g82
ssg63
g373
sg56
(lp385
S':'
asbag49
(g70
g51
NtRp386
(dp387
g54
(dp388
sg63
g373
sg56
(lp389
g49
(g50
g51
NtRp390
(dp391
g54
(dp392
g62
I3
ssg63
g386
sg56
(lp393
S''
asbasbasbag49
(g65
g51
NtRp394
(dp395
g54
(dp396
sg63
g264
sg56
(lp397
g49
(g70
g51
NtRp398
(dp399
g54
(dp400
g74
g75
ssg63
g394
sg56
(lp401
S'version'
p402
asbag49
(g70
g51
NtRp403
(dp404
g54
(dp405
g81
g82
ssg63
g394
sg56
(lp406
S':'
asbag49
(g70
g51
NtRp407
(dp408
g54
(dp409
sg63
g394
sg56
(lp410
g49
(g50
g51
NtRp411
(dp412
g54
(dp413
g62
I3
ssg63
g407
sg56
(lp414
S''
asbasbasbasbasbasbasbag49
(g65
g51
NtRp415
(dp416
g54
(dp417
sg63
g239
sg56
(lp418
g49
(g70
g51
NtRp419
(dp420
g54
(dp421
g74
g75
ssg63
g415
sg56
(lp422
S'session_id_parleyweb'
p423
asbag49
(g70
g51
NtRp424
(dp425
g54
(dp426
g81
g82
ssg63
g415
sg56
(lp427
S':'
asbag49
(g70
g51
NtRp428
(dp429
g54
(dp430
sg63
g415
sg56
(lp431
g49
(g50
g51
NtRp432
(dp433
g54
(dp434
g62
I4
ssg63
g428
sg56
(lp435
g49
(g58
g51
NtRp436
(dp437
g54
(dp438
g62
I3
ssg63
Nsg56
(lp439
g49
(g65
g51
NtRp440
(dp441
g54
(dp442
sg63
g436
sg56
(lp443
g49
(g70
g51
NtRp444
(dp445
g54
(dp446
g74
g75
ssg63
g440
sg56
(lp447
g276
asbag49
(g70
g51
NtRp448
(dp449
g54
(dp450
g81
g82
ssg63
g440
sg56
(lp451
S':'
asbag49
(g70
g51
NtRp452
(dp453
g54
(dp454
sg63
g440
sg56
(lp455
g49
(g50
g51
NtRp456
(dp457
g54
(dp458
g62
I3
ssg63
g452
sg56
(lp459
S''
asbasbasbag49
(g65
g51
NtRp460
(dp461
g54
(dp462
sg63
g436
sg56
(lp463
g49
(g70
g51
NtRp464
(dp465
g54
(dp466
g74
g75
ssg63
g460
sg56
(lp467
g297
asbag49
(g70
g51
NtRp468
(dp469
g54
(dp470
g81
g82
ssg63
g460
sg56
(lp471
S':'
asbag49
(g70
g51
NtRp472
(dp473
g54
(dp474
sg63
g460
sg56
(lp475
g49
(g50
g51
NtRp476
(dp477
g54
(dp478
g62
I3
ssg63
g472
sg56
(lp479
S''
asbasbasbag49
(g65
g51
NtRp480
(dp481
g54
(dp482
sg63
g436
sg56
(lp483
g49
(g70
g51
NtRp484
(dp485
g54
(dp486
g74
g75
ssg63
g480
sg56
(lp487
g318
asbag49
(g70
g51
NtRp488
(dp489
g54
(dp490
g81
g82
ssg63
g480
sg56
(lp491
S':'
asbag49
(g70
g51
NtRp492
(dp493
g54
(dp494
sg63
g480
sg56
(lp495
g49
(g50
g51
NtRp496
(dp497
g54
(dp498
g62
I3
ssg63
g492
sg56
(lp499
S''
asbasbasbag49
(g65
g51
NtRp500
(dp501
g54
(dp502
sg63
g436
sg56
(lp503
g49
(g70
g51
NtRp504
(dp505
g54
(dp506
g74
g75
ssg63
g500
sg56
(lp507
g339
asbag49
(g70
g51
NtRp508
(dp509
g54
(dp510
g81
g82
ssg63
g500
sg56
(lp511
S':'
asbag49
(g70
g51
NtRp512
(dp513
g54
(dp514
sg63
g500
sg56
(lp515
g49
(g50
g51
NtRp516
(dp517
g54
(dp518
g62
I3
ssg63
g512
sg56
(lp519
S''
asbasbasbag49
(g65
g51
NtRp520
(dp521
g54
(dp522
sg63
g436
sg56
(lp523
g49
(g70
g51
NtRp524
(dp525
g54
(dp526
g74
g75
ssg63
g520
sg56
(lp527
g360
asbag49
(g70
g51
NtRp528
(dp529
g54
(dp530
g81
g82
ssg63
g520
sg56
(lp531
S':'
asbag49
(g70
g51
NtRp532
(dp533
g54
(dp534
sg63
g520
sg56
(lp535
g49
(g50
g51
NtRp536
(dp537
g54
(dp538
g62
I3
ssg63
g532
sg56
(lp539
S''
asbasbasbag49
(g65
g51
NtRp540
(dp541
g54
(dp542
sg63
g436
sg56
(lp543
g49
(g70
g51
NtRp544
(dp545
g54
(dp546
g74
g75
ssg63
g540
sg56
(lp547
g381
asbag49
(g70
g51
NtRp548
(dp549
g54
(dp550
g81
g82
ssg63
g540
sg56
(lp551
S':'
asbag49
(g70
g51
NtRp552
(dp553
g54
(dp554
sg63
g540
sg56
(lp555
g49
(g50
g51
NtRp556
(dp557
g54
(dp558
g62
I3
ssg63
g552
sg56
(lp559
S''
asbasbasbag49
(g65
g51
NtRp560
(dp561
g54
(dp562
sg63
g436
sg56
(lp563
g49
(g70
g51
NtRp564
(dp565
g54
(dp566
g74
g75
ssg63
g560
sg56
(lp567
g402
asbag49
(g70
g51
NtRp568
(dp569
g54
(dp570
g81
g82
ssg63
g560
sg56
(lp571
S':'
asbag49
(g70
g51
NtRp572
(dp573
g54
(dp574
sg63
g560
sg56
(lp575
g49
(g50
g51
NtRp576
(dp577
g54
(dp578
g62
I3
ssg63
g572
sg56
(lp579
S''
asbasbasbasbasbasbasbag49
(g65
g51
NtRp580
(dp581
g54
(dp582
sg63
g239
sg56
(lp583
g49
(g70
g51
NtRp584
(dp585
g54
(dp586
g74
g75
ssg63
g580
sg56
(lp587
S'session_id_welcome'
p588
asbag49
(g70
g51
NtRp589
(dp590
g54
(dp591
g81
g82
ssg63
g580
sg56
(lp592
S':'
asbag49
(g70
g51
NtRp593
(dp594
g54
(dp595
sg63
g580
sg56
(lp596
g49
(g50
g51
NtRp597
(dp598
g54
(dp599
g62
I4
ssg63
g593
sg56
(lp600
g49
(g58
g51
NtRp601
(dp602
g54
(dp603
g62
I3
ssg63
Nsg56
(lp604
g49
(g65
g51
NtRp605
(dp606
g54
(dp607
sg63
g601
sg56
(lp608
g49
(g70
g51
NtRp609
(dp610
g54
(dp611
g74
g75
ssg63
g605
sg56
(lp612
g276
asbag49
(g70
g51
NtRp613
(dp614
g54
(dp615
g81
g82
ssg63
g605
sg56
(lp616
S':'
asbag49
(g70
g51
NtRp617
(dp618
g54
(dp619
sg63
g605
sg56
(lp620
g49
(g50
g51
NtRp621
(dp622
g54
(dp623
g62
I3
ssg63
g617
sg56
(lp624
S''
asbasbasbag49
(g65
g51
NtRp625
(dp626
g54
(dp627
sg63
g601
sg56
(lp628
g49
(g70
g51
NtRp629
(dp630
g54
(dp631
g74
g75
ssg63
g625
sg56
(lp632
g297
asbag49
(g70
g51
NtRp633
(dp634
g54
(dp635
g81
g82
ssg63
g625
sg56
(lp636
S':'
asbag49
(g70
g51
NtRp637
(dp638
g54
(dp639
sg63
g625
sg56
(lp640
g49
(g50
g51
NtRp641
(dp642
g54
(dp643
g62
I3
ssg63
g637
sg56
(lp644
S''
asbasbasbag49
(g65
g51
NtRp645
(dp646
g54
(dp647
sg63
g601
sg56
(lp648
g49
(g70
g51
NtRp649
(dp650
g54
(dp651
g74
g75
ssg63
g645
sg56
(lp652
g318
asbag49
(g70
g51
NtRp653
(dp654
g54
(dp655
g81
g82
ssg63
g645
sg56
(lp656
S':'
asbag49
(g70
g51
NtRp657
(dp658
g54
(dp659
sg63
g645
sg56
(lp660
g49
(g50
g51
NtRp661
(dp662
g54
(dp663
g62
I3
ssg63
g657
sg56
(lp664
S''
asbasbasbag49
(g65
g51
NtRp665
(dp666
g54
(dp667
sg63
g601
sg56
(lp668
g49
(g70
g51
NtRp669
(dp670
g54
(dp671
g74
g75
ssg63
g665
sg56
(lp672
g339
asbag49
(g70
g51
NtRp673
(dp674
g54
(dp675
g81
g82
ssg63
g665
sg56
(lp676
S':'
asbag49
(g70
g51
NtRp677
(dp678
g54
(dp679
sg63
g665
sg56
(lp680
g49
(g50
g51
NtRp681
(dp682
g54
(dp683
g62
I3
ssg63
g677
sg56
(lp684
S''
asbasbasbag49
(g65
g51
NtRp685
(dp686
g54
(dp687
sg63
g601
sg56
(lp688
g49
(g70
g51
NtRp689
(dp690
g54
(dp691
g74
g75
ssg63
g685
sg56
(lp692
g360
asbag49
(g70
g51
NtRp693
(dp694
g54
(dp695
g81
g82
ssg63
g685
sg56
(lp696
S':'
asbag49
(g70
g51
NtRp697
(dp698
g54
(dp699
sg63
g685
sg56
(lp700
g49
(g50
g51
NtRp701
(dp702
g54
(dp703
g62
I3
ssg63
g697
sg56
(lp704
S''
asbasbasbag49
(g65
g51
NtRp705
(dp706
g54
(dp707
sg63
g601
sg56
(lp708
g49
(g70
g51
NtRp709
(dp710
g54
(dp711
g74
g75
ssg63
g705
sg56
(lp712
g381
asbag49
(g70
g51
NtRp713
(dp714
g54
(dp715
g81
g82
ssg63
g705
sg56
(lp716
S':'
asbag49
(g70
g51
NtRp717
(dp718
g54
(dp719
sg63
g705
sg56
(lp720
g49
(g50
g51
NtRp721
(dp722
g54
(dp723
g62
I3
ssg63
g717
sg56
(lp724
S''
asbasbasbag49
(g65
g51
NtRp725
(dp726
g54
(dp727
sg63
g601
sg56
(lp728
g49
(g70
g51
NtRp729
(dp730
g54
(dp731
g74
g75
ssg63
g725
sg56
(lp732
g402
asbag49
(g70
g51
NtRp733
(dp734
g54
(dp735
g81
g82
ssg63
g725
sg56
(lp736
S':'
asbag49
(g70
g51
NtRp737
(dp738
g54
(dp739
sg63
g725
sg56
(lp740
g49
(g50
g51
NtRp741
(dp742
g54
(dp743
g62
I3
ssg63
g737
sg56
(lp744
S''
asbasbasbasbasbasbasbasbasbasbasbag49
(g65
g51
NtRp745
(dp746
g54
(dp747
sg63
g59
sg56
(lp748
g49
(g70
g51
NtRp749
(dp750
g54
(dp751
g74
g75
ssg63
g745
sg56
(lp752
S'env'
p753
asbag49
(g70
g51
NtRp754
(dp755
g54
(dp756
g81
g82
ssg63
g745
sg56
(lp757
S':'
asbag49
(g70
g51
NtRp758
(dp759
g54
(dp760
sg63
g745
sg56
(lp761
g49
(g50
g51
NtRp762
(dp763
g54
(dp764
g62
I5
ssg63
g758
sg56
(lp765
g49
(g58
g51
NtRp766
(dp767
g54
(dp768
g62
I4
ssg63
Nsg56
(lp769
g49
(g65
g51
NtRp770
(dp771
g54
(dp772
sg63
g766
sg56
(lp773
g49
(g70
g51
NtRp774
(dp775
g54
(dp776
g74
g75
ssg63
g770
sg56
(lp777
S'app_folders'
p778
asbag49
(g70
g51
NtRp779
(dp780
g54
(dp781
g81
g82
ssg63
g770
sg56
(lp782
S':'
asbag49
(g70
g51
NtRp783
(dp784
g54
(dp785
sg63
g770
sg56
(lp786
g49
(g50
g51
NtRp787
(dp788
g54
(dp789
g62
I4
ssg63
g783
sg56
(lp790
S"set(['D:\\\\Dise\\xf1o Web\\\\Proyectos\\\\Parleyweb\\\\web2py\\\\applications\\\\parleyweb\\\\', 'D:\\\\Dise\\xf1o Web\\\\Proyectos\\\\Parleyweb\\\\web2py\\\\applications\\\\welcome\\\\', 'D:\\\\Dise\\xf1o Web\\\\Proyectos\\\\Parleyweb\\\\web2py\\\\applications\\\\admin\\\\'])"
p791
asbasbasbag49
(g65
g51
NtRp792
(dp793
g54
(dp794
sg63
g766
sg56
(lp795
g49
(g70
g51
NtRp796
(dp797
g54
(dp798
g74
g75
ssg63
g792
sg56
(lp799
S'applications_parent'
p800
asbag49
(g70
g51
NtRp801
(dp802
g54
(dp803
g81
g82
ssg63
g792
sg56
(lp804
S':'
asbag49
(g70
g51
NtRp805
(dp806
g54
(dp807
sg63
g792
sg56
(lp808
g49
(g50
g51
NtRp809
(dp810
g54
(dp811
g62
I4
ssg63
g805
sg56
(lp812
S'D:\\Dise\xf1o Web\\Proyectos\\Parleyweb\\web2py'
p813
asbasbasbag49
(g65
g51
NtRp814
(dp815
g54
(dp816
sg63
g766
sg56
(lp817
g49
(g70
g51
NtRp818
(dp819
g54
(dp820
g74
g75
ssg63
g814
sg56
(lp821
S'cmd_args'
p822
asbag49
(g70
g51
NtRp823
(dp824
g54
(dp825
g81
g82
ssg63
g814
sg56
(lp826
S':'
asbag49
(g70
g51
NtRp827
(dp828
g54
(dp829
sg63
g814
sg56
(lp830
g49
(g50
g51
NtRp831
(dp832
g54
(dp833
g62
I4
ssg63
g827
sg56
(lp834
g49
(g58
g51
NtRp835
(dp836
g54
(dp837
g62
I3
ssg63
Nsg56
(lp838
sbasbasbasbag49
(g65
g51
NtRp839
(dp840
g54
(dp841
sg63
g766
sg56
(lp842
g49
(g70
g51
NtRp843
(dp844
g54
(dp845
g74
g75
ssg63
g839
sg56
(lp846
S'cmd_options'
p847
asbag49
(g70
g51
NtRp848
(dp849
g54
(dp850
g81
g82
ssg63
g839
sg56
(lp851
S':'
asbag49
(g70
g51
NtRp852
(dp853
g54
(dp854
sg63
g839
sg56
(lp855
g49
(g50
g51
NtRp856
(dp857
g54
(dp858
g62
I4
ssg63
g852
sg56
(lp859
S"<Values at 0x3110f30: {'verbose': False, 'ip': '127.0.0.1', 'shutdown_timeout': 5, 'taskbar': False, 'nocron': False, 'pid_filename': 'httpserver.pid', 'maxthreads': None, 'softcron': False, 'server_name': 'craxsnet-PC', 'bpython': False, 'nogui': False, 'port': 8000, 'extcron': False, 'debuglevel': 30, 'test': None, 'folder': 'D:\\\\Dise\\xf1o Web\\\\Proyectos\\\\Parleyweb\\\\web2py', 'config': '', 'import_models': False, 'winservice': '', 'shell': None, 'run': '', 'log_filename': 'httpserver.log', 'args': [''], 'socket_timeout': 5, 'ssl_ca_certificate': None, 'scheduler': None, 'profiler_filename': None, 'ssl_private_key': '', 'password': '<ask>', 'request_queue_size': 5, 'ssl_certificate': '', 'cronjob': False, 'numthreads': None, 'quiet': False, 'interfaces': None, 'minthreads': None, 'timeout': 10, 'plain': False, 'nobanner': False}>"
p860
asbasbasbag49
(g65
g51
NtRp861
(dp862
g54
(dp863
sg63
g766
sg56
(lp864
g49
(g70
g51
NtRp865
(dp866
g54
(dp867
g74
g75
ssg63
g861
sg56
(lp868
S'db_sessions'
p869
asbag49
(g70
g51
NtRp870
(dp871
g54
(dp872
g81
g82
ssg63
g861
sg56
(lp873
S':'
asbag49
(g70
g51
NtRp874
(dp875
g54
(dp876
sg63
g861
sg56
(lp877
g49
(g50
g51
NtRp878
(dp879
g54
(dp880
g62
I4
ssg63
g874
sg56
(lp881
S'set([])'
p882
asbasbasbag49
(g65
g51
NtRp883
(dp884
g54
(dp885
sg63
g766
sg56
(lp886
g49
(g70
g51
NtRp887
(dp888
g54
(dp889
g74
g75
ssg63
g883
sg56
(lp890
S'debugging'
p891
asbag49
(g70
g51
NtRp892
(dp893
g54
(dp894
g81
g82
ssg63
g883
sg56
(lp895
S':'
asbag49
(g70
g51
NtRp896
(dp897
g54
(dp898
sg63
g883
sg56
(lp899
g49
(g50
g51
NtRp900
(dp901
g54
(dp902
g62
I4
ssg63
g896
sg56
(lp903
g92
asbasbasbag49
(g65
g51
NtRp904
(dp905
g54
(dp906
sg63
g766
sg56
(lp907
g49
(g70
g51
NtRp908
(dp909
g54
(dp910
g74
g75
ssg63
g904
sg56
(lp911
S'gluon_parent'
p912
asbag49
(g70
g51
NtRp913
(dp914
g54
(dp915
g81
g82
ssg63
g904
sg56
(lp916
S':'
asbag49
(g70
g51
NtRp917
(dp918
g54
(dp919
sg63
g904
sg56
(lp920
g49
(g50
g51
NtRp921
(dp922
g54
(dp923
g62
I4
ssg63
g917
sg56
(lp924
S'D:\\Dise\xf1o Web\\Proyectos\\Parleyweb\\web2py'
p925
asbasbasbag49
(g65
g51
NtRp926
(dp927
g54
(dp928
sg63
g766
sg56
(lp929
g49
(g70
g51
NtRp930
(dp931
g54
(dp932
g74
g75
ssg63
g926
sg56
(lp933
S'http_accept'
p934
asbag49
(g70
g51
NtRp935
(dp936
g54
(dp937
g81
g82
ssg63
g926
sg56
(lp938
S':'
asbag49
(g70
g51
NtRp939
(dp940
g54
(dp941
sg63
g926
sg56
(lp942
g49
(g50
g51
NtRp943
(dp944
g54
(dp945
g62
I4
ssg63
g939
sg56
(lp946
S'text/html,application/xhtml+xml,application/xml;q=0.9,*/*;q=0.8'
p947
asbasbasbag49
(g65
g51
NtRp948
(dp949
g54
(dp950
sg63
g766
sg56
(lp951
g49
(g70
g51
NtRp952
(dp953
g54
(dp954
g74
g75
ssg63
g948
sg56
(lp955
S'http_accept_encoding'
p956
asbag49
(g70
g51
NtRp957
(dp958
g54
(dp959
g81
g82
ssg63
g948
sg56
(lp960
S':'
asbag49
(g70
g51
NtRp961
(dp962
g54
(dp963
sg63
g948
sg56
(lp964
g49
(g50
g51
NtRp965
(dp966
g54
(dp967
g62
I4
ssg63
g961
sg56
(lp968
S'gzip, deflate'
p969
asbasbasbag49
(g65
g51
NtRp970
(dp971
g54
(dp972
sg63
g766
sg56
(lp973
g49
(g70
g51
NtRp974
(dp975
g54
(dp976
g74
g75
ssg63
g970
sg56
(lp977
S'http_accept_language'
p978
asbag49
(g70
g51
NtRp979
(dp980
g54
(dp981
g81
g82
ssg63
g970
sg56
(lp982
S':'
asbag49
(g70
g51
NtRp983
(dp984
g54
(dp985
sg63
g970
sg56
(lp986
g49
(g50
g51
NtRp987
(dp988
g54
(dp989
g62
I4
ssg63
g983
sg56
(lp990
S'es-es,de-de;q=0.8,es;q=0.6,en-us;q=0.4,en;q=0.2'
p991
asbasbasbag49
(g65
g51
NtRp992
(dp993
g54
(dp994
sg63
g766
sg56
(lp995
g49
(g70
g51
NtRp996
(dp997
g54
(dp998
g74
g75
ssg63
g992
sg56
(lp999
S'http_connection'
p1000
asbag49
(g70
g51
NtRp1001
(dp1002
g54
(dp1003
g81
g82
ssg63
g992
sg56
(lp1004
S':'
asbag49
(g70
g51
NtRp1005
(dp1006
g54
(dp1007
sg63
g992
sg56
(lp1008
g49
(g50
g51
NtRp1009
(dp1010
g54
(dp1011
g62
I4
ssg63
g1005
sg56
(lp1012
S'keep-alive'
p1013
asbasbasbag49
(g65
g51
NtRp1014
(dp1015
g54
(dp1016
sg63
g766
sg56
(lp1017
g49
(g70
g51
NtRp1018
(dp1019
g54
(dp1020
g74
g75
ssg63
g1014
sg56
(lp1021
S'http_cookie'
p1022
asbag49
(g70
g51
NtRp1023
(dp1024
g54
(dp1025
g81
g82
ssg63
g1014
sg56
(lp1026
S':'
asbag49
(g70
g51
NtRp1027
(dp1028
g54
(dp1029
sg63
g1014
sg56
(lp1030
g49
(g50
g51
NtRp1031
(dp1032
g54
(dp1033
g62
I4
ssg63
g1027
sg56
(lp1034
S'__utma=96992031.26429765.1325029743.1325029743.1326549329.2; __utmz=96992031.1325029743.1.1.utmcsr=(direct)|utmccn=(direct)|utmcmd=(none); session_id_welcome=127.0.0.1-644b7da8-0d4f-4bbf-b94b-66f6992adfc8; session_id_parleyweb=127.0.0.1-0780c0c1-affd-425a-affb-ac061c4961c7; session_id_admin=127.0.0.1-532b2264-f480-4135-a7d5-01c72ef908a1'
p1035
asbasbasbag49
(g65
g51
NtRp1036
(dp1037
g54
(dp1038
sg63
g766
sg56
(lp1039
g49
(g70
g51
NtRp1040
(dp1041
g54
(dp1042
g74
g75
ssg63
g1036
sg56
(lp1043
S'http_host'
p1044
asbag49
(g70
g51
NtRp1045
(dp1046
g54
(dp1047
g81
g82
ssg63
g1036
sg56
(lp1048
S':'
asbag49
(g70
g51
NtRp1049
(dp1050
g54
(dp1051
sg63
g1036
sg56
(lp1052
g49
(g50
g51
NtRp1053
(dp1054
g54
(dp1055
g62
I4
ssg63
g1049
sg56
(lp1056
S'127.0.0.1:8000'
p1057
asbasbasbag49
(g65
g51
NtRp1058
(dp1059
g54
(dp1060
sg63
g766
sg56
(lp1061
g49
(g70
g51
NtRp1062
(dp1063
g54
(dp1064
g74
g75
ssg63
g1058
sg56
(lp1065
S'http_referer'
p1066
asbag49
(g70
g51
NtRp1067
(dp1068
g54
(dp1069
g81
g82
ssg63
g1058
sg56
(lp1070
S':'
asbag49
(g70
g51
NtRp1071
(dp1072
g54
(dp1073
sg63
g1058
sg56
(lp1074
g49
(g50
g51
NtRp1075
(dp1076
g54
(dp1077
g62
I4
ssg63
g1071
sg56
(lp1078
S'http://127.0.0.1:8000/parleyweb/default/index'
p1079
asbasbasbag49
(g65
g51
NtRp1080
(dp1081
g54
(dp1082
sg63
g766
sg56
(lp1083
g49
(g70
g51
NtRp1084
(dp1085
g54
(dp1086
g74
g75
ssg63
g1080
sg56
(lp1087
S'http_user_agent'
p1088
asbag49
(g70
g51
NtRp1089
(dp1090
g54
(dp1091
g81
g82
ssg63
g1080
sg56
(lp1092
S':'
asbag49
(g70
g51
NtRp1093
(dp1094
g54
(dp1095
sg63
g1080
sg56
(lp1096
g49
(g50
g51
NtRp1097
(dp1098
g54
(dp1099
g62
I4
ssg63
g1093
sg56
(lp1100
S'Mozilla/5.0 (Windows NT 6.1; WOW64; rv:11.0) Gecko/20100101 Firefox/11.0'
p1101
asbasbasbag49
(g65
g51
NtRp1102
(dp1103
g54
(dp1104
sg63
g766
sg56
(lp1105
g49
(g70
g51
NtRp1106
(dp1107
g54
(dp1108
g74
g75
ssg63
g1102
sg56
(lp1109
S'is_jython'
p1110
asbag49
(g70
g51
NtRp1111
(dp1112
g54
(dp1113
g81
g82
ssg63
g1102
sg56
(lp1114
S':'
asbag49
(g70
g51
NtRp1115
(dp1116
g54
(dp1117
sg63
g1102
sg56
(lp1118
g49
(g50
g51
NtRp1119
(dp1120
g54
(dp1121
g62
I4
ssg63
g1115
sg56
(lp1122
g92
asbasbasbag49
(g65
g51
NtRp1123
(dp1124
g54
(dp1125
sg63
g766
sg56
(lp1126
g49
(g70
g51
NtRp1127
(dp1128
g54
(dp1129
g74
g75
ssg63
g1123
sg56
(lp1130
S'is_pypy'
p1131
asbag49
(g70
g51
NtRp1132
(dp1133
g54
(dp1134
g81
g82
ssg63
g1123
sg56
(lp1135
S':'
asbag49
(g70
g51
NtRp1136
(dp1137
g54
(dp1138
sg63
g1123
sg56
(lp1139
g49
(g50
g51
NtRp1140
(dp1141
g54
(dp1142
g62
I4
ssg63
g1136
sg56
(lp1143
g92
asbasbasbag49
(g65
g51
NtRp1144
(dp1145
g54
(dp1146
sg63
g766
sg56
(lp1147
g49
(g70
g51
NtRp1148
(dp1149
g54
(dp1150
g74
g75
ssg63
g1144
sg56
(lp1151
S'path_info'
p1152
asbag49
(g70
g51
NtRp1153
(dp1154
g54
(dp1155
g81
g82
ssg63
g1144
sg56
(lp1156
S':'
asbag49
(g70
g51
NtRp1157
(dp1158
g54
(dp1159
sg63
g1144
sg56
(lp1160
g49
(g50
g51
NtRp1161
(dp1162
g54
(dp1163
g62
I4
ssg63
g1157
sg56
(lp1164
S'/parleyweb/default/mostrar/82'
p1165
asbasbasbag49
(g65
g51
NtRp1166
(dp1167
g54
(dp1168
sg63
g766
sg56
(lp1169
g49
(g70
g51
NtRp1170
(dp1171
g54
(dp1172
g74
g75
ssg63
g1166
sg56
(lp1173
S'query_string'
p1174
asbag49
(g70
g51
NtRp1175
(dp1176
g54
(dp1177
g81
g82
ssg63
g1166
sg56
(lp1178
S':'
asbag49
(g70
g51
NtRp1179
(dp1180
g54
(dp1181
sg63
g1166
sg56
(lp1182
g49
(g50
g51
NtRp1183
(dp1184
g54
(dp1185
g62
I4
ssg63
g1179
sg56
(lp1186
S''
asbasbasbag49
(g65
g51
NtRp1187
(dp1188
g54
(dp1189
sg63
g766
sg56
(lp1190
g49
(g70
g51
NtRp1191
(dp1192
g54
(dp1193
g74
g75
ssg63
g1187
sg56
(lp1194
S'remote_addr'
p1195
asbag49
(g70
g51
NtRp1196
(dp1197
g54
(dp1198
g81
g82
ssg63
g1187
sg56
(lp1199
S':'
asbag49
(g70
g51
NtRp1200
(dp1201
g54
(dp1202
sg63
g1187
sg56
(lp1203
g49
(g50
g51
NtRp1204
(dp1205
g54
(dp1206
g62
I4
ssg63
g1200
sg56
(lp1207
g195
asbasbasbag49
(g65
g51
NtRp1208
(dp1209
g54
(dp1210
sg63
g766
sg56
(lp1211
g49
(g70
g51
NtRp1212
(dp1213
g54
(dp1214
g74
g75
ssg63
g1208
sg56
(lp1215
S'remote_port'
p1216
asbag49
(g70
g51
NtRp1217
(dp1218
g54
(dp1219
g81
g82
ssg63
g1208
sg56
(lp1220
S':'
asbag49
(g70
g51
NtRp1221
(dp1222
g54
(dp1223
sg63
g1208
sg56
(lp1224
g49
(g50
g51
NtRp1225
(dp1226
g54
(dp1227
g62
I4
ssg63
g1221
sg56
(lp1228
S'52211'
p1229
asbasbasbag49
(g65
g51
NtRp1230
(dp1231
g54
(dp1232
sg63
g766
sg56
(lp1233
g49
(g70
g51
NtRp1234
(dp1235
g54
(dp1236
g74
g75
ssg63
g1230
sg56
(lp1237
S'request_method'
p1238
asbag49
(g70
g51
NtRp1239
(dp1240
g54
(dp1241
g81
g82
ssg63
g1230
sg56
(lp1242
S':'
asbag49
(g70
g51
NtRp1243
(dp1244
g54
(dp1245
sg63
g1230
sg56
(lp1246
g49
(g50
g51
NtRp1247
(dp1248
g54
(dp1249
g62
I4
ssg63
g1243
sg56
(lp1250
S'GET'
p1251
asbasbasbag49
(g65
g51
NtRp1252
(dp1253
g54
(dp1254
sg63
g766
sg56
(lp1255
g49
(g70
g51
NtRp1256
(dp1257
g54
(dp1258
g74
g75
ssg63
g1252
sg56
(lp1259
S'script_name'
p1260
asbag49
(g70
g51
NtRp1261
(dp1262
g54
(dp1263
g81
g82
ssg63
g1252
sg56
(lp1264
S':'
asbag49
(g70
g51
NtRp1265
(dp1266
g54
(dp1267
sg63
g1252
sg56
(lp1268
g49
(g50
g51
NtRp1269
(dp1270
g54
(dp1271
g62
I4
ssg63
g1265
sg56
(lp1272
S''
asbasbasbag49
(g65
g51
NtRp1273
(dp1274
g54
(dp1275
sg63
g766
sg56
(lp1276
g49
(g70
g51
NtRp1277
(dp1278
g54
(dp1279
g74
g75
ssg63
g1273
sg56
(lp1280
S'server_name'
p1281
asbag49
(g70
g51
NtRp1282
(dp1283
g54
(dp1284
g81
g82
ssg63
g1273
sg56
(lp1285
S':'
asbag49
(g70
g51
NtRp1286
(dp1287
g54
(dp1288
sg63
g1273
sg56
(lp1289
g49
(g50
g51
NtRp1290
(dp1291
g54
(dp1292
g62
I4
ssg63
g1286
sg56
(lp1293
S'craxsnet-PC'
p1294
asbasbasbag49
(g65
g51
NtRp1295
(dp1296
g54
(dp1297
sg63
g766
sg56
(lp1298
g49
(g70
g51
NtRp1299
(dp1300
g54
(dp1301
g74
g75
ssg63
g1295
sg56
(lp1302
S'server_port'
p1303
asbag49
(g70
g51
NtRp1304
(dp1305
g54
(dp1306
g81
g82
ssg63
g1295
sg56
(lp1307
S':'
asbag49
(g70
g51
NtRp1308
(dp1309
g54
(dp1310
sg63
g1295
sg56
(lp1311
g49
(g50
g51
NtRp1312
(dp1313
g54
(dp1314
g62
I4
ssg63
g1308
sg56
(lp1315
S'8000'
p1316
asbasbasbag49
(g65
g51
NtRp1317
(dp1318
g54
(dp1319
sg63
g766
sg56
(lp1320
g49
(g70
g51
NtRp1321
(dp1322
g54
(dp1323
g74
g75
ssg63
g1317
sg56
(lp1324
S'server_protocol'
p1325
asbag49
(g70
g51
NtRp1326
(dp1327
g54
(dp1328
g81
g82
ssg63
g1317
sg56
(lp1329
S':'
asbag49
(g70
g51
NtRp1330
(dp1331
g54
(dp1332
sg63
g1317
sg56
(lp1333
g49
(g50
g51
NtRp1334
(dp1335
g54
(dp1336
g62
I4
ssg63
g1330
sg56
(lp1337
S'HTTP/1.1'
p1338
asbasbasbag49
(g65
g51
NtRp1339
(dp1340
g54
(dp1341
sg63
g766
sg56
(lp1342
g49
(g70
g51
NtRp1343
(dp1344
g54
(dp1345
g74
g75
ssg63
g1339
sg56
(lp1346
S'server_software'
p1347
asbag49
(g70
g51
NtRp1348
(dp1349
g54
(dp1350
g81
g82
ssg63
g1339
sg56
(lp1351
S':'
asbag49
(g70
g51
NtRp1352
(dp1353
g54
(dp1354
sg63
g1339
sg56
(lp1355
g49
(g50
g51
NtRp1356
(dp1357
g54
(dp1358
g62
I4
ssg63
g1352
sg56
(lp1359
S'Rocket 1.2.4'
p1360
asbasbasbag49
(g65
g51
NtRp1361
(dp1362
g54
(dp1363
sg63
g766
sg56
(lp1364
g49
(g70
g51
NtRp1365
(dp1366
g54
(dp1367
g74
g75
ssg63
g1361
sg56
(lp1368
S'web2py_crontype'
p1369
asbag49
(g70
g51
NtRp1370
(dp1371
g54
(dp1372
g81
g82
ssg63
g1361
sg56
(lp1373
S':'
asbag49
(g70
g51
NtRp1374
(dp1375
g54
(dp1376
sg63
g1361
sg56
(lp1377
g49
(g50
g51
NtRp1378
(dp1379
g54
(dp1380
g62
I4
ssg63
g1374
sg56
(lp1381
S'hard'
p1382
asbasbasbag49
(g65
g51
NtRp1383
(dp1384
g54
(dp1385
sg63
g766
sg56
(lp1386
g49
(g70
g51
NtRp1387
(dp1388
g54
(dp1389
g74
g75
ssg63
g1383
sg56
(lp1390
S'web2py_path'
p1391
asbag49
(g70
g51
NtRp1392
(dp1393
g54
(dp1394
g81
g82
ssg63
g1383
sg56
(lp1395
S':'
asbag49
(g70
g51
NtRp1396
(dp1397
g54
(dp1398
sg63
g1383
sg56
(lp1399
g49
(g50
g51
NtRp1400
(dp1401
g54
(dp1402
g62
I4
ssg63
g1396
sg56
(lp1403
g813
asbasbasbag49
(g65
g51
NtRp1404
(dp1405
g54
(dp1406
sg63
g766
sg56
(lp1407
g49
(g70
g51
NtRp1408
(dp1409
g54
(dp1410
g74
g75
ssg63
g1404
sg56
(lp1411
S'web2py_version'
p1412
asbag49
(g70
g51
NtRp1413
(dp1414
g54
(dp1415
g81
g82
ssg63
g1404
sg56
(lp1416
S':'
asbag49
(g70
g51
NtRp1417
(dp1418
g54
(dp1419
sg63
g1404
sg56
(lp1420
g49
(g50
g51
NtRp1421
(dp1422
g54
(dp1423
g62
I4
ssg63
g1417
sg56
(lp1424
g49
(g58
g51
NtRp1425
(dp1426
g54
(dp1427
g62
I3
ssg63
Nsg56
(lp1428
g49
(g65
g51
NtRp1429
(dp1430
g54
(dp1431
sg63
g1425
sg56
(lp1432
g49
(g70
g51
NtRp1433
(dp1434
g54
(dp1435
sg63
g1429
sg56
(lp1436
g49
(g50
g51
NtRp1437
(dp1438
g54
(dp1439
g62
I3
ssg63
g1433
sg56
(lp1440
S'1'
asbasbasbag49
(g65
g51
NtRp1441
(dp1442
g54
(dp1443
sg63
g1425
sg56
(lp1444
g49
(g70
g51
NtRp1445
(dp1446
g54
(dp1447
sg63
g1441
sg56
(lp1448
g49
(g50
g51
NtRp1449
(dp1450
g54
(dp1451
g62
I3
ssg63
g1445
sg56
(lp1452
S'99'
p1453
asbasbasbag49
(g65
g51
NtRp1454
(dp1455
g54
(dp1456
sg63
g1425
sg56
(lp1457
g49
(g70
g51
NtRp1458
(dp1459
g54
(dp1460
sg63
g1454
sg56
(lp1461
g49
(g50
g51
NtRp1462
(dp1463
g54
(dp1464
g62
I3
ssg63
g1458
sg56
(lp1465
S'7'
asbasbasbag49
(g65
g51
NtRp1466
(dp1467
g54
(dp1468
sg63
g1425
sg56
(lp1469
g49
(g70
g51
NtRp1470
(dp1471
g54
(dp1472
sg63
g1466
sg56
(lp1473
g49
(g50
g51
NtRp1474
(dp1475
g54
(dp1476
g62
I3
ssg63
g1470
sg56
(lp1477
S'datetime.datetime(2012, 3, 4, 22, 12, 8)'
p1478
asbasbasbag49
(g65
g51
NtRp1479
(dp1480
g54
(dp1481
sg63
g1425
sg56
(lp1482
g49
(g70
g51
NtRp1483
(dp1484
g54
(dp1485
sg63
g1479
sg56
(lp1486
g49
(g50
g51
NtRp1487
(dp1488
g54
(dp1489
g62
I3
ssg63
g1483
sg56
(lp1490
S'stable'
p1491
asbasbasbasbasbasbasbag49
(g65
g51
NtRp1492
(dp1493
g54
(dp1494
sg63
g766
sg56
(lp1495
g49
(g70
g51
NtRp1496
(dp1497
g54
(dp1498
g74
g75
ssg63
g1492
sg56
(lp1499
S'wsgi_errors'
p1500
asbag49
(g70
g51
NtRp1501
(dp1502
g54
(dp1503
g81
g82
ssg63
g1492
sg56
(lp1504
S':'
asbag49
(g70
g51
NtRp1505
(dp1506
g54
(dp1507
sg63
g1492
sg56
(lp1508
g49
(g50
g51
NtRp1509
(dp1510
g54
(dp1511
g62
I4
ssg63
g1505
sg56
(lp1512
S"<open file '<stderr>', mode 'w' at 0x01FB00B0>"
p1513
asbasbasbag49
(g65
g51
NtRp1514
(dp1515
g54
(dp1516
sg63
g766
sg56
(lp1517
g49
(g70
g51
NtRp1518
(dp1519
g54
(dp1520
g74
g75
ssg63
g1514
sg56
(lp1521
S'wsgi_file_wrapper'
p1522
asbag49
(g70
g51
NtRp1523
(dp1524
g54
(dp1525
g81
g82
ssg63
g1514
sg56
(lp1526
S':'
asbag49
(g70
g51
NtRp1527
(dp1528
g54
(dp1529
sg63
g1514
sg56
(lp1530
g49
(g50
g51
NtRp1531
(dp1532
g54
(dp1533
g62
I4
ssg63
g1527
sg56
(lp1534
S'<class wsgiref.util.FileWrapper at 0x02F56390>'
p1535
asbasbasbag49
(g65
g51
NtRp1536
(dp1537
g54
(dp1538
sg63
g766
sg56
(lp1539
g49
(g70
g51
NtRp1540
(dp1541
g54
(dp1542
g74
g75
ssg63
g1536
sg56
(lp1543
S'wsgi_input'
p1544
asbag49
(g70
g51
NtRp1545
(dp1546
g54
(dp1547
g81
g82
ssg63
g1536
sg56
(lp1548
S':'
asbag49
(g70
g51
NtRp1549
(dp1550
g54
(dp1551
sg63
g1536
sg56
(lp1552
g49
(g50
g51
NtRp1553
(dp1554
g54
(dp1555
g62
I4
ssg63
g1549
sg56
(lp1556
S'<socket._fileobject object at 0x074FEF70>'
p1557
asbasbasbag49
(g65
g51
NtRp1558
(dp1559
g54
(dp1560
sg63
g766
sg56
(lp1561
g49
(g70
g51
NtRp1562
(dp1563
g54
(dp1564
g74
g75
ssg63
g1558
sg56
(lp1565
S'wsgi_multiprocess'
p1566
asbag49
(g70
g51
NtRp1567
(dp1568
g54
(dp1569
g81
g82
ssg63
g1558
sg56
(lp1570
S':'
asbag49
(g70
g51
NtRp1571
(dp1572
g54
(dp1573
sg63
g1558
sg56
(lp1574
g49
(g50
g51
NtRp1575
(dp1576
g54
(dp1577
g62
I4
ssg63
g1571
sg56
(lp1578
g92
asbasbasbag49
(g65
g51
NtRp1579
(dp1580
g54
(dp1581
sg63
g766
sg56
(lp1582
g49
(g70
g51
NtRp1583
(dp1584
g54
(dp1585
g74
g75
ssg63
g1579
sg56
(lp1586
S'wsgi_multithread'
p1587
asbag49
(g70
g51
NtRp1588
(dp1589
g54
(dp1590
g81
g82
ssg63
g1579
sg56
(lp1591
S':'
asbag49
(g70
g51
NtRp1592
(dp1593
g54
(dp1594
sg63
g1579
sg56
(lp1595
g49
(g50
g51
NtRp1596
(dp1597
g54
(dp1598
g62
I4
ssg63
g1592
sg56
(lp1599
S'True'
p1600
asbasbasbag49
(g65
g51
NtRp1601
(dp1602
g54
(dp1603
sg63
g766
sg56
(lp1604
g49
(g70
g51
NtRp1605
(dp1606
g54
(dp1607
g74
g75
ssg63
g1601
sg56
(lp1608
S'wsgi_run_once'
p1609
asbag49
(g70
g51
NtRp1610
(dp1611
g54
(dp1612
g81
g82
ssg63
g1601
sg56
(lp1613
S':'
asbag49
(g70
g51
NtRp1614
(dp1615
g54
(dp1616
sg63
g1601
sg56
(lp1617
g49
(g50
g51
NtRp1618
(dp1619
g54
(dp1620
g62
I4
ssg63
g1614
sg56
(lp1621
g92
asbasbasbag49
(g65
g51
NtRp1622
(dp1623
g54
(dp1624
sg63
g766
sg56
(lp1625
g49
(g70
g51
NtRp1626
(dp1627
g54
(dp1628
g74
g75
ssg63
g1622
sg56
(lp1629
S'wsgi_url_scheme'
p1630
asbag49
(g70
g51
NtRp1631
(dp1632
g54
(dp1633
g81
g82
ssg63
g1622
sg56
(lp1634
S':'
asbag49
(g70
g51
NtRp1635
(dp1636
g54
(dp1637
sg63
g1622
sg56
(lp1638
g49
(g50
g51
NtRp1639
(dp1640
g54
(dp1641
g62
I4
ssg63
g1635
sg56
(lp1642
S'http'
p1643
asbasbasbag49
(g65
g51
NtRp1644
(dp1645
g54
(dp1646
sg63
g766
sg56
(lp1647
g49
(g70
g51
NtRp1648
(dp1649
g54
(dp1650
g74
g75
ssg63
g1644
sg56
(lp1651
S'wsgi_version'
p1652
asbag49
(g70
g51
NtRp1653
(dp1654
g54
(dp1655
g81
g82
ssg63
g1644
sg56
(lp1656
S':'
asbag49
(g70
g51
NtRp1657
(dp1658
g54
(dp1659
sg63
g1644
sg56
(lp1660
g49
(g50
g51
NtRp1661
(dp1662
g54
(dp1663
g62
I4
ssg63
g1657
sg56
(lp1664
g49
(g58
g51
NtRp1665
(dp1666
g54
(dp1667
g62
I3
ssg63
Nsg56
(lp1668
g49
(g65
g51
NtRp1669
(dp1670
g54
(dp1671
sg63
g1665
sg56
(lp1672
g49
(g70
g51
NtRp1673
(dp1674
g54
(dp1675
sg63
g1669
sg56
(lp1676
g49
(g50
g51
NtRp1677
(dp1678
g54
(dp1679
g62
I3
ssg63
g1673
sg56
(lp1680
S'1'
asbasbasbag49
(g65
g51
NtRp1681
(dp1682
g54
(dp1683
sg63
g1665
sg56
(lp1684
g49
(g70
g51
NtRp1685
(dp1686
g54
(dp1687
sg63
g1681
sg56
(lp1688
g49
(g50
g51
NtRp1689
(dp1690
g54
(dp1691
g62
I3
ssg63
g1685
sg56
(lp1692
S'0'
asbasbasbasbasbasbasbasbasbasbasbag49
(g65
g51
NtRp1693
(dp1694
g54
(dp1695
sg63
g59
sg56
(lp1696
g49
(g70
g51
NtRp1697
(dp1698
g54
(dp1699
g74
g75
ssg63
g1693
sg56
(lp1700
S'extension'
p1701
asbag49
(g70
g51
NtRp1702
(dp1703
g54
(dp1704
g81
g82
ssg63
g1693
sg56
(lp1705
S':'
asbag49
(g70
g51
NtRp1706
(dp1707
g54
(dp1708
sg63
g1693
sg56
(lp1709
g49
(g50
g51
NtRp1710
(dp1711
g54
(dp1712
g62
I5
ssg63
g1706
sg56
(lp1713
S'html'
p1714
asbasbasbag49
(g65
g51
NtRp1715
(dp1716
g54
(dp1717
sg63
g59
sg56
(lp1718
g49
(g70
g51
NtRp1719
(dp1720
g54
(dp1721
g74
g75
ssg63
g1715
sg56
(lp1722
S'folder'
p1723
asbag49
(g70
g51
NtRp1724
(dp1725
g54
(dp1726
g81
g82
ssg63
g1715
sg56
(lp1727
S':'
asbag49
(g70
g51
NtRp1728
(dp1729
g54
(dp1730
sg63
g1715
sg56
(lp1731
g49
(g50
g51
NtRp1732
(dp1733
g54
(dp1734
g62
I5
ssg63
g1728
sg56
(lp1735
S'D:\\Dise\xf1o Web\\Proyectos\\Parleyweb\\web2py\\applications\\parleyweb\\'
p1736
asbasbasbag49
(g65
g51
NtRp1737
(dp1738
g54
(dp1739
sg63
g59
sg56
(lp1740
g49
(g70
g51
NtRp1741
(dp1742
g54
(dp1743
g74
g75
ssg63
g1737
sg56
(lp1744
S'function'
p1745
asbag49
(g70
g51
NtRp1746
(dp1747
g54
(dp1748
g81
g82
ssg63
g1737
sg56
(lp1749
S':'
asbag49
(g70
g51
NtRp1750
(dp1751
g54
(dp1752
sg63
g1737
sg56
(lp1753
g49
(g50
g51
NtRp1754
(dp1755
g54
(dp1756
g62
I5
ssg63
g1750
sg56
(lp1757
S'mostrar'
p1758
asbasbasbag49
(g65
g51
NtRp1759
(dp1760
g54
(dp1761
sg63
g59
sg56
(lp1762
g49
(g70
g51
NtRp1763
(dp1764
g54
(dp1765
g74
g75
ssg63
g1759
sg56
(lp1766
S'get_vars'
p1767
asbag49
(g70
g51
NtRp1768
(dp1769
g54
(dp1770
g81
g82
ssg63
g1759
sg56
(lp1771
S':'
asbag49
(g70
g51
NtRp1772
(dp1773
g54
(dp1774
sg63
g1759
sg56
(lp1775
g49
(g50
g51
NtRp1776
(dp1777
g54
(dp1778
g62
I5
ssg63
g1772
sg56
(lp1779
g49
(g58
g51
NtRp1780
(dp1781
g54
(dp1782
g62
I4
ssg63
Nsg56
(lp1783
sbasbasbasbag49
(g65
g51
NtRp1784
(dp1785
g54
(dp1786
sg63
g59
sg56
(lp1787
g49
(g70
g51
NtRp1788
(dp1789
g54
(dp1790
g74
g75
ssg63
g1784
sg56
(lp1791
S'global_settings'
p1792
asbag49
(g70
g51
NtRp1793
(dp1794
g54
(dp1795
g81
g82
ssg63
g1784
sg56
(lp1796
S':'
asbag49
(g70
g51
NtRp1797
(dp1798
g54
(dp1799
sg63
g1784
sg56
(lp1800
g49
(g50
g51
NtRp1801
(dp1802
g54
(dp1803
g62
I5
ssg63
g1797
sg56
(lp1804
g49
(g58
g51
NtRp1805
(dp1806
g54
(dp1807
g62
I4
ssg63
Nsg56
(lp1808
g49
(g65
g51
NtRp1809
(dp1810
g54
(dp1811
sg63
g1805
sg56
(lp1812
g49
(g70
g51
NtRp1813
(dp1814
g54
(dp1815
g74
g75
ssg63
g1809
sg56
(lp1816
g778
asbag49
(g70
g51
NtRp1817
(dp1818
g54
(dp1819
g81
g82
ssg63
g1809
sg56
(lp1820
S':'
asbag49
(g70
g51
NtRp1821
(dp1822
g54
(dp1823
sg63
g1809
sg56
(lp1824
g49
(g50
g51
NtRp1825
(dp1826
g54
(dp1827
g62
I4
ssg63
g1821
sg56
(lp1828
S"set(['D:\\\\Dise\\xf1o Web\\\\Proyectos\\\\Parleyweb\\\\web2py\\\\applications\\\\parleyweb\\\\', 'D:\\\\Dise\\xf1o Web\\\\Proyectos\\\\Parleyweb\\\\web2py\\\\applications\\\\welcome\\\\', 'D:\\\\Dise\\xf1o Web\\\\Proyectos\\\\Parleyweb\\\\web2py\\\\applications\\\\admin\\\\'])"
p1829
asbasbasbag49
(g65
g51
NtRp1830
(dp1831
g54
(dp1832
sg63
g1805
sg56
(lp1833
g49
(g70
g51
NtRp1834
(dp1835
g54
(dp1836
g74
g75
ssg63
g1830
sg56
(lp1837
g800
asbag49
(g70
g51
NtRp1838
(dp1839
g54
(dp1840
g81
g82
ssg63
g1830
sg56
(lp1841
S':'
asbag49
(g70
g51
NtRp1842
(dp1843
g54
(dp1844
sg63
g1830
sg56
(lp1845
g49
(g50
g51
NtRp1846
(dp1847
g54
(dp1848
g62
I4
ssg63
g1842
sg56
(lp1849
g813
asbasbasbag49
(g65
g51
NtRp1850
(dp1851
g54
(dp1852
sg63
g1805
sg56
(lp1853
g49
(g70
g51
NtRp1854
(dp1855
g54
(dp1856
g74
g75
ssg63
g1850
sg56
(lp1857
g822
asbag49
(g70
g51
NtRp1858
(dp1859
g54
(dp1860
g81
g82
ssg63
g1850
sg56
(lp1861
S':'
asbag49
(g70
g51
NtRp1862
(dp1863
g54
(dp1864
sg63
g1850
sg56
(lp1865
g49
(g50
g51
NtRp1866
(dp1867
g54
(dp1868
g62
I4
ssg63
g1862
sg56
(lp1869
g49
(g58
g51
NtRp1870
(dp1871
g54
(dp1872
g62
I3
ssg63
Nsg56
(lp1873
sbasbasbasbag49
(g65
g51
NtRp1874
(dp1875
g54
(dp1876
sg63
g1805
sg56
(lp1877
g49
(g70
g51
NtRp1878
(dp1879
g54
(dp1880
g74
g75
ssg63
g1874
sg56
(lp1881
g847
asbag49
(g70
g51
NtRp1882
(dp1883
g54
(dp1884
g81
g82
ssg63
g1874
sg56
(lp1885
S':'
asbag49
(g70
g51
NtRp1886
(dp1887
g54
(dp1888
sg63
g1874
sg56
(lp1889
g49
(g50
g51
NtRp1890
(dp1891
g54
(dp1892
g62
I4
ssg63
g1886
sg56
(lp1893
S"<Values at 0x3110f30: {'verbose': False, 'ip': '127.0.0.1', 'shutdown_timeout': 5, 'taskbar': False, 'nocron': False, 'pid_filename': 'httpserver.pid', 'maxthreads': None, 'softcron': False, 'server_name': 'craxsnet-PC', 'bpython': False, 'nogui': False, 'port': 8000, 'extcron': False, 'debuglevel': 30, 'test': None, 'folder': 'D:\\\\Dise\\xf1o Web\\\\Proyectos\\\\Parleyweb\\\\web2py', 'config': '', 'import_models': False, 'winservice': '', 'shell': None, 'run': '', 'log_filename': 'httpserver.log', 'args': [''], 'socket_timeout': 5, 'ssl_ca_certificate': None, 'scheduler': None, 'profiler_filename': None, 'ssl_private_key': '', 'password': '<ask>', 'request_queue_size': 5, 'ssl_certificate': '', 'cronjob': False, 'numthreads': None, 'quiet': False, 'interfaces': None, 'minthreads': None, 'timeout': 10, 'plain': False, 'nobanner': False}>"
p1894
asbasbasbag49
(g65
g51
NtRp1895
(dp1896
g54
(dp1897
sg63
g1805
sg56
(lp1898
g49
(g70
g51
NtRp1899
(dp1900
g54
(dp1901
g74
g75
ssg63
g1895
sg56
(lp1902
g869
asbag49
(g70
g51
NtRp1903
(dp1904
g54
(dp1905
g81
g82
ssg63
g1895
sg56
(lp1906
S':'
asbag49
(g70
g51
NtRp1907
(dp1908
g54
(dp1909
sg63
g1895
sg56
(lp1910
g49
(g50
g51
NtRp1911
(dp1912
g54
(dp1913
g62
I4
ssg63
g1907
sg56
(lp1914
S'set([])'
p1915
asbasbasbag49
(g65
g51
NtRp1916
(dp1917
g54
(dp1918
sg63
g1805
sg56
(lp1919
g49
(g70
g51
NtRp1920
(dp1921
g54
(dp1922
g74
g75
ssg63
g1916
sg56
(lp1923
g891
asbag49
(g70
g51
NtRp1924
(dp1925
g54
(dp1926
g81
g82
ssg63
g1916
sg56
(lp1927
S':'
asbag49
(g70
g51
NtRp1928
(dp1929
g54
(dp1930
sg63
g1916
sg56
(lp1931
g49
(g50
g51
NtRp1932
(dp1933
g54
(dp1934
g62
I4
ssg63
g1928
sg56
(lp1935
g92
asbasbasbag49
(g65
g51
NtRp1936
(dp1937
g54
(dp1938
sg63
g1805
sg56
(lp1939
g49
(g70
g51
NtRp1940
(dp1941
g54
(dp1942
g74
g75
ssg63
g1936
sg56
(lp1943
g912
asbag49
(g70
g51
NtRp1944
(dp1945
g54
(dp1946
g81
g82
ssg63
g1936
sg56
(lp1947
S':'
asbag49
(g70
g51
NtRp1948
(dp1949
g54
(dp1950
sg63
g1936
sg56
(lp1951
g49
(g50
g51
NtRp1952
(dp1953
g54
(dp1954
g62
I4
ssg63
g1948
sg56
(lp1955
g925
asbasbasbag49
(g65
g51
NtRp1956
(dp1957
g54
(dp1958
sg63
g1805
sg56
(lp1959
g49
(g70
g51
NtRp1960
(dp1961
g54
(dp1962
g74
g75
ssg63
g1956
sg56
(lp1963
g1110
asbag49
(g70
g51
NtRp1964
(dp1965
g54
(dp1966
g81
g82
ssg63
g1956
sg56
(lp1967
S':'
asbag49
(g70
g51
NtRp1968
(dp1969
g54
(dp1970
sg63
g1956
sg56
(lp1971
g49
(g50
g51
NtRp1972
(dp1973
g54
(dp1974
g62
I4
ssg63
g1968
sg56
(lp1975
g92
asbasbasbag49
(g65
g51
NtRp1976
(dp1977
g54
(dp1978
sg63
g1805
sg56
(lp1979
g49
(g70
g51
NtRp1980
(dp1981
g54
(dp1982
g74
g75
ssg63
g1976
sg56
(lp1983
g1131
asbag49
(g70
g51
NtRp1984
(dp1985
g54
(dp1986
g81
g82
ssg63
g1976
sg56
(lp1987
S':'
asbag49
(g70
g51
NtRp1988
(dp1989
g54
(dp1990
sg63
g1976
sg56
(lp1991
g49
(g50
g51
NtRp1992
(dp1993
g54
(dp1994
g62
I4
ssg63
g1988
sg56
(lp1995
g92
asbasbasbag49
(g65
g51
NtRp1996
(dp1997
g54
(dp1998
sg63
g1805
sg56
(lp1999
g49
(g70
g51
NtRp2000
(dp2001
g54
(dp2002
g74
g75
ssg63
g1996
sg56
(lp2003
g1369
asbag49
(g70
g51
NtRp2004
(dp2005
g54
(dp2006
g81
g82
ssg63
g1996
sg56
(lp2007
S':'
asbag49
(g70
g51
NtRp2008
(dp2009
g54
(dp2010
sg63
g1996
sg56
(lp2011
g49
(g50
g51
NtRp2012
(dp2013
g54
(dp2014
g62
I4
ssg63
g2008
sg56
(lp2015
g1382
asbasbasbag49
(g65
g51
NtRp2016
(dp2017
g54
(dp2018
sg63
g1805
sg56
(lp2019
g49
(g70
g51
NtRp2020
(dp2021
g54
(dp2022
g74
g75
ssg63
g2016
sg56
(lp2023
g1412
asbag49
(g70
g51
NtRp2024
(dp2025
g54
(dp2026
g81
g82
ssg63
g2016
sg56
(lp2027
S':'
asbag49
(g70
g51
NtRp2028
(dp2029
g54
(dp2030
sg63
g2016
sg56
(lp2031
g49
(g50
g51
NtRp2032
(dp2033
g54
(dp2034
g62
I4
ssg63
g2028
sg56
(lp2035
g49
(g58
g51
NtRp2036
(dp2037
g54
(dp2038
g62
I3
ssg63
Nsg56
(lp2039
g49
(g65
g51
NtRp2040
(dp2041
g54
(dp2042
sg63
g2036
sg56
(lp2043
g49
(g70
g51
NtRp2044
(dp2045
g54
(dp2046
sg63
g2040
sg56
(lp2047
g49
(g50
g51
NtRp2048
(dp2049
g54
(dp2050
g62
I3
ssg63
g2044
sg56
(lp2051
S'1'
asbasbasbag49
(g65
g51
NtRp2052
(dp2053
g54
(dp2054
sg63
g2036
sg56
(lp2055
g49
(g70
g51
NtRp2056
(dp2057
g54
(dp2058
sg63
g2052
sg56
(lp2059
g49
(g50
g51
NtRp2060
(dp2061
g54
(dp2062
g62
I3
ssg63
g2056
sg56
(lp2063
S'99'
p2064
asbasbasbag49
(g65
g51
NtRp2065
(dp2066
g54
(dp2067
sg63
g2036
sg56
(lp2068
g49
(g70
g51
NtRp2069
(dp2070
g54
(dp2071
sg63
g2065
sg56
(lp2072
g49
(g50
g51
NtRp2073
(dp2074
g54
(dp2075
g62
I3
ssg63
g2069
sg56
(lp2076
S'7'
asbasbasbag49
(g65
g51
NtRp2077
(dp2078
g54
(dp2079
sg63
g2036
sg56
(lp2080
g49
(g70
g51
NtRp2081
(dp2082
g54
(dp2083
sg63
g2077
sg56
(lp2084
g49
(g50
g51
NtRp2085
(dp2086
g54
(dp2087
g62
I3
ssg63
g2081
sg56
(lp2088
S'datetime.datetime(2012, 3, 4, 22, 12, 8)'
p2089
asbasbasbag49
(g65
g51
NtRp2090
(dp2091
g54
(dp2092
sg63
g2036
sg56
(lp2093
g49
(g70
g51
NtRp2094
(dp2095
g54
(dp2096
sg63
g2090
sg56
(lp2097
g49
(g50
g51
NtRp2098
(dp2099
g54
(dp2100
g62
I3
ssg63
g2094
sg56
(lp2101
g1491
asbasbasbasbasbasbasbasbasbasbasbag49
(g65
g51
NtRp2102
(dp2103
g54
(dp2104
sg63
g59
sg56
(lp2105
g49
(g70
g51
NtRp2106
(dp2107
g54
(dp2108
g74
g75
ssg63
g2102
sg56
(lp2109
S'is_https'
p2110
asbag49
(g70
g51
NtRp2111
(dp2112
g54
(dp2113
g81
g82
ssg63
g2102
sg56
(lp2114
S':'
asbag49
(g70
g51
NtRp2115
(dp2116
g54
(dp2117
sg63
g2102
sg56
(lp2118
g49
(g50
g51
NtRp2119
(dp2120
g54
(dp2121
g62
I5
ssg63
g2115
sg56
(lp2122
g92
asbasbasbag49
(g65
g51
NtRp2123
(dp2124
g54
(dp2125
sg63
g59
sg56
(lp2126
g49
(g70
g51
NtRp2127
(dp2128
g54
(dp2129
g74
g75
ssg63
g2123
sg56
(lp2130
S'is_local'
p2131
asbag49
(g70
g51
NtRp2132
(dp2133
g54
(dp2134
g81
g82
ssg63
g2123
sg56
(lp2135
S':'
asbag49
(g70
g51
NtRp2136
(dp2137
g54
(dp2138
sg63
g2123
sg56
(lp2139
g49
(g50
g51
NtRp2140
(dp2141
g54
(dp2142
g62
I5
ssg63
g2136
sg56
(lp2143
g1600
asbasbasbag49
(g65
g51
NtRp2144
(dp2145
g54
(dp2146
sg63
g59
sg56
(lp2147
g49
(g70
g51
NtRp2148
(dp2149
g54
(dp2150
g74
g75
ssg63
g2144
sg56
(lp2151
S'is_restful'
p2152
asbag49
(g70
g51
NtRp2153
(dp2154
g54
(dp2155
g81
g82
ssg63
g2144
sg56
(lp2156
S':'
asbag49
(g70
g51
NtRp2157
(dp2158
g54
(dp2159
sg63
g2144
sg56
(lp2160
g49
(g50
g51
NtRp2161
(dp2162
g54
(dp2163
g62
I5
ssg63
g2157
sg56
(lp2164
g92
asbasbasbag49
(g65
g51
NtRp2165
(dp2166
g54
(dp2167
sg63
g59
sg56
(lp2168
g49
(g70
g51
NtRp2169
(dp2170
g54
(dp2171
g74
g75
ssg63
g2165
sg56
(lp2172
S'now'
p2173
asbag49
(g70
g51
NtRp2174
(dp2175
g54
(dp2176
g81
g82
ssg63
g2165
sg56
(lp2177
S':'
asbag49
(g70
g51
NtRp2178
(dp2179
g54
(dp2180
sg63
g2165
sg56
(lp2181
g49
(g50
g51
NtRp2182
(dp2183
g54
(dp2184
g62
I5
ssg63
g2178
sg56
(lp2185
S'datetime.datetime(2012, 3, 17, 1, 9, 31, 85000)'
p2186
asbasbasbag49
(g65
g51
NtRp2187
(dp2188
g54
(dp2189
sg63
g59
sg56
(lp2190
g49
(g70
g51
NtRp2191
(dp2192
g54
(dp2193
g74
g75
ssg63
g2187
sg56
(lp2194
S'post_vars'
p2195
asbag49
(g70
g51
NtRp2196
(dp2197
g54
(dp2198
g81
g82
ssg63
g2187
sg56
(lp2199
S':'
asbag49
(g70
g51
NtRp2200
(dp2201
g54
(dp2202
sg63
g2187
sg56
(lp2203
g49
(g50
g51
NtRp2204
(dp2205
g54
(dp2206
g62
I5
ssg63
g2200
sg56
(lp2207
g49
(g58
g51
NtRp2208
(dp2209
g54
(dp2210
g62
I4
ssg63
Nsg56
(lp2211
sbasbasbasbag49
(g65
g51
NtRp2212
(dp2213
g54
(dp2214
sg63
g59
sg56
(lp2215
g49
(g70
g51
NtRp2216
(dp2217
g54
(dp2218
g74
g75
ssg63
g2212
sg56
(lp2219
S'raw_args'
p2220
asbag49
(g70
g51
NtRp2221
(dp2222
g54
(dp2223
g81
g82
ssg63
g2212
sg56
(lp2224
S':'
asbag49
(g70
g51
NtRp2225
(dp2226
g54
(dp2227
sg63
g2212
sg56
(lp2228
g49
(g50
g51
NtRp2229
(dp2230
g54
(dp2231
g62
I5
ssg63
g2225
sg56
(lp2232
S'82'
p2233
asbasbasbag49
(g65
g51
NtRp2234
(dp2235
g54
(dp2236
sg63
g59
sg56
(lp2237
g49
(g70
g51
NtRp2238
(dp2239
g54
(dp2240
g74
g75
ssg63
g2234
sg56
(lp2241
S'url'
p2242
asbag49
(g70
g51
NtRp2243
(dp2244
g54
(dp2245
g81
g82
ssg63
g2234
sg56
(lp2246
S':'
asbag49
(g70
g51
NtRp2247
(dp2248
g54
(dp2249
sg63
g2234
sg56
(lp2250
g49
(g50
g51
NtRp2251
(dp2252
g54
(dp2253
g62
I5
ssg63
g2247
sg56
(lp2254
S'/parleyweb/default/mostrar/82'
p2255
asbasbasbag49
(g65
g51
NtRp2256
(dp2257
g54
(dp2258
sg63
g59
sg56
(lp2259
g49
(g70
g51
NtRp2260
(dp2261
g54
(dp2262
g74
g75
ssg63
g2256
sg56
(lp2263
S'utcnow'
p2264
asbag49
(g70
g51
NtRp2265
(dp2266
g54
(dp2267
g81
g82
ssg63
g2256
sg56
(lp2268
S':'
asbag49
(g70
g51
NtRp2269
(dp2270
g54
(dp2271
sg63
g2256
sg56
(lp2272
g49
(g50
g51
NtRp2273
(dp2274
g54
(dp2275
g62
I5
ssg63
g2269
sg56
(lp2276
S'datetime.datetime(2012, 3, 17, 0, 9, 31, 85000)'
p2277
asbasbasbag49
(g65
g51
NtRp2278
(dp2279
g54
(dp2280
sg63
g59
sg56
(lp2281
g49
(g70
g51
NtRp2282
(dp2283
g54
(dp2284
g74
g75
ssg63
g2278
sg56
(lp2285
S'uuid'
p2286
asbag49
(g70
g51
NtRp2287
(dp2288
g54
(dp2289
g81
g82
ssg63
g2278
sg56
(lp2290
S':'
asbag49
(g70
g51
NtRp2291
(dp2292
g54
(dp2293
sg63
g2278
sg56
(lp2294
g49
(g50
g51
NtRp2295
(dp2296
g54
(dp2297
g62
I5
ssg63
g2291
sg56
(lp2298
S'parleyweb/127.0.0.1.2012-03-17.01-09-31.056f1798-05ba-47c6-adbc-1f88bbab9394'
p2299
asbasbasbag49
(g65
g51
NtRp2300
(dp2301
g54
(dp2302
sg63
g59
sg56
(lp2303
g49
(g70
g51
NtRp2304
(dp2305
g54
(dp2306
g74
g75
ssg63
g2300
sg56
(lp2307
S'vars'
p2308
asbag49
(g70
g51
NtRp2309
(dp2310
g54
(dp2311
g81
g82
ssg63
g2300
sg56
(lp2312
S':'
asbag49
(g70
g51
NtRp2313
(dp2314
g54
(dp2315
sg63
g2300
sg56
(lp2316
g49
(g50
g51
NtRp2317
(dp2318
g54
(dp2319
g62
I5
ssg63
g2313
sg56
(lp2320
g49
(g58
g51
NtRp2321
(dp2322
g54
(dp2323
g62
I4
ssg63
Nsg56
(lp2324
sbasbasbasbag49
(g65
g51
NtRp2325
(dp2326
g54
(dp2327
sg63
g59
sg56
(lp2328
g49
(g70
g51
NtRp2329
(dp2330
g54
(dp2331
g74
g75
ssg63
g2325
sg56
(lp2332
S'wsgi'
p2333
asbag49
(g70
g51
NtRp2334
(dp2335
g54
(dp2336
g81
g82
ssg63
g2325
sg56
(lp2337
S':'
asbag49
(g70
g51
NtRp2338
(dp2339
g54
(dp2340
sg63
g2325
sg56
(lp2341
g49
(g50
g51
NtRp2342
(dp2343
g54
(dp2344
g62
I5
ssg63
g2338
sg56
(lp2345
g49
(g58
g51
NtRp2346
(dp2347
g54
(dp2348
g62
I4
ssg63
Nsg56
(lp2349
g49
(g65
g51
NtRp2350
(dp2351
g54
(dp2352
sg63
g2346
sg56
(lp2353
g49
(g70
g51
NtRp2354
(dp2355
g54
(dp2356
g74
g75
ssg63
g2350
sg56
(lp2357
S'environ'
p2358
asbag49
(g70
g51
NtRp2359
(dp2360
g54
(dp2361
g81
g82
ssg63
g2350
sg56
(lp2362
S':'
asbag49
(g70
g51
NtRp2363
(dp2364
g54
(dp2365
sg63
g2350
sg56
(lp2366
g49
(g50
g51
NtRp2367
(dp2368
g54
(dp2369
g62
I4
ssg63
g2363
sg56
(lp2370
g49
(g58
g51
NtRp2371
(dp2372
g54
(dp2373
g62
I3
ssg63
Nsg56
(lp2374
g49
(g65
g51
NtRp2375
(dp2376
g54
(dp2377
sg63
g2371
sg56
(lp2378
g49
(g70
g51
NtRp2379
(dp2380
g54
(dp2381
g74
g75
ssg63
g2375
sg56
(lp2382
S'HTTP_ACCEPT'
p2383
asbag49
(g70
g51
NtRp2384
(dp2385
g54
(dp2386
g81
g82
ssg63
g2375
sg56
(lp2387
S':'
asbag49
(g70
g51
NtRp2388
(dp2389
g54
(dp2390
sg63
g2375
sg56
(lp2391
g49
(g50
g51
NtRp2392
(dp2393
g54
(dp2394
g62
I3
ssg63
g2388
sg56
(lp2395
g947
asbasbasbag49
(g65
g51
NtRp2396
(dp2397
g54
(dp2398
sg63
g2371
sg56
(lp2399
g49
(g70
g51
NtRp2400
(dp2401
g54
(dp2402
g74
g75
ssg63
g2396
sg56
(lp2403
S'HTTP_ACCEPT_ENCODING'
p2404
asbag49
(g70
g51
NtRp2405
(dp2406
g54
(dp2407
g81
g82
ssg63
g2396
sg56
(lp2408
S':'
asbag49
(g70
g51
NtRp2409
(dp2410
g54
(dp2411
sg63
g2396
sg56
(lp2412
g49
(g50
g51
NtRp2413
(dp2414
g54
(dp2415
g62
I3
ssg63
g2409
sg56
(lp2416
g969
asbasbasbag49
(g65
g51
NtRp2417
(dp2418
g54
(dp2419
sg63
g2371
sg56
(lp2420
g49
(g70
g51
NtRp2421
(dp2422
g54
(dp2423
g74
g75
ssg63
g2417
sg56
(lp2424
S'HTTP_ACCEPT_LANGUAGE'
p2425
asbag49
(g70
g51
NtRp2426
(dp2427
g54
(dp2428
g81
g82
ssg63
g2417
sg56
(lp2429
S':'
asbag49
(g70
g51
NtRp2430
(dp2431
g54
(dp2432
sg63
g2417
sg56
(lp2433
g49
(g50
g51
NtRp2434
(dp2435
g54
(dp2436
g62
I3
ssg63
g2430
sg56
(lp2437
g991
asbasbasbag49
(g65
g51
NtRp2438
(dp2439
g54
(dp2440
sg63
g2371
sg56
(lp2441
g49
(g70
g51
NtRp2442
(dp2443
g54
(dp2444
g74
g75
ssg63
g2438
sg56
(lp2445
S'HTTP_CONNECTION'
p2446
asbag49
(g70
g51
NtRp2447
(dp2448
g54
(dp2449
g81
g82
ssg63
g2438
sg56
(lp2450
S':'
asbag49
(g70
g51
NtRp2451
(dp2452
g54
(dp2453
sg63
g2438
sg56
(lp2454
g49
(g50
g51
NtRp2455
(dp2456
g54
(dp2457
g62
I3
ssg63
g2451
sg56
(lp2458
g1013
asbasbasbag49
(g65
g51
NtRp2459
(dp2460
g54
(dp2461
sg63
g2371
sg56
(lp2462
g49
(g70
g51
NtRp2463
(dp2464
g54
(dp2465
g74
g75
ssg63
g2459
sg56
(lp2466
S'HTTP_COOKIE'
p2467
asbag49
(g70
g51
NtRp2468
(dp2469
g54
(dp2470
g81
g82
ssg63
g2459
sg56
(lp2471
S':'
asbag49
(g70
g51
NtRp2472
(dp2473
g54
(dp2474
sg63
g2459
sg56
(lp2475
g49
(g50
g51
NtRp2476
(dp2477
g54
(dp2478
g62
I3
ssg63
g2472
sg56
(lp2479
g1035
asbasbasbag49
(g65
g51
NtRp2480
(dp2481
g54
(dp2482
sg63
g2371
sg56
(lp2483
g49
(g70
g51
NtRp2484
(dp2485
g54
(dp2486
g74
g75
ssg63
g2480
sg56
(lp2487
S'HTTP_HOST'
p2488
asbag49
(g70
g51
NtRp2489
(dp2490
g54
(dp2491
g81
g82
ssg63
g2480
sg56
(lp2492
S':'
asbag49
(g70
g51
NtRp2493
(dp2494
g54
(dp2495
sg63
g2480
sg56
(lp2496
g49
(g50
g51
NtRp2497
(dp2498
g54
(dp2499
g62
I3
ssg63
g2493
sg56
(lp2500
g1057
asbasbasbag49
(g65
g51
NtRp2501
(dp2502
g54
(dp2503
sg63
g2371
sg56
(lp2504
g49
(g70
g51
NtRp2505
(dp2506
g54
(dp2507
g74
g75
ssg63
g2501
sg56
(lp2508
S'HTTP_REFERER'
p2509
asbag49
(g70
g51
NtRp2510
(dp2511
g54
(dp2512
g81
g82
ssg63
g2501
sg56
(lp2513
S':'
asbag49
(g70
g51
NtRp2514
(dp2515
g54
(dp2516
sg63
g2501
sg56
(lp2517
g49
(g50
g51
NtRp2518
(dp2519
g54
(dp2520
g62
I3
ssg63
g2514
sg56
(lp2521
g1079
asbasbasbag49
(g65
g51
NtRp2522
(dp2523
g54
(dp2524
sg63
g2371
sg56
(lp2525
g49
(g70
g51
NtRp2526
(dp2527
g54
(dp2528
g74
g75
ssg63
g2522
sg56
(lp2529
S'HTTP_USER_AGENT'
p2530
asbag49
(g70
g51
NtRp2531
(dp2532
g54
(dp2533
g81
g82
ssg63
g2522
sg56
(lp2534
S':'
asbag49
(g70
g51
NtRp2535
(dp2536
g54
(dp2537
sg63
g2522
sg56
(lp2538
g49
(g50
g51
NtRp2539
(dp2540
g54
(dp2541
g62
I3
ssg63
g2535
sg56
(lp2542
g1101
asbasbasbag49
(g65
g51
NtRp2543
(dp2544
g54
(dp2545
sg63
g2371
sg56
(lp2546
g49
(g70
g51
NtRp2547
(dp2548
g54
(dp2549
g74
g75
ssg63
g2543
sg56
(lp2550
S'PATH_INFO'
p2551
asbag49
(g70
g51
NtRp2552
(dp2553
g54
(dp2554
g81
g82
ssg63
g2543
sg56
(lp2555
S':'
asbag49
(g70
g51
NtRp2556
(dp2557
g54
(dp2558
sg63
g2543
sg56
(lp2559
g49
(g50
g51
NtRp2560
(dp2561
g54
(dp2562
g62
I3
ssg63
g2556
sg56
(lp2563
g1165
asbasbasbag49
(g65
g51
NtRp2564
(dp2565
g54
(dp2566
sg63
g2371
sg56
(lp2567
g49
(g70
g51
NtRp2568
(dp2569
g54
(dp2570
g74
g75
ssg63
g2564
sg56
(lp2571
S'QUERY_STRING'
p2572
asbag49
(g70
g51
NtRp2573
(dp2574
g54
(dp2575
g81
g82
ssg63
g2564
sg56
(lp2576
S':'
asbag49
(g70
g51
NtRp2577
(dp2578
g54
(dp2579
sg63
g2564
sg56
(lp2580
g49
(g50
g51
NtRp2581
(dp2582
g54
(dp2583
g62
I3
ssg63
g2577
sg56
(lp2584
S''
asbasbasbag49
(g65
g51
NtRp2585
(dp2586
g54
(dp2587
sg63
g2371
sg56
(lp2588
g49
(g70
g51
NtRp2589
(dp2590
g54
(dp2591
g74
g75
ssg63
g2585
sg56
(lp2592
S'REMOTE_ADDR'
p2593
asbag49
(g70
g51
NtRp2594
(dp2595
g54
(dp2596
g81
g82
ssg63
g2585
sg56
(lp2597
S':'
asbag49
(g70
g51
NtRp2598
(dp2599
g54
(dp2600
sg63
g2585
sg56
(lp2601
g49
(g50
g51
NtRp2602
(dp2603
g54
(dp2604
g62
I3
ssg63
g2598
sg56
(lp2605
g195
asbasbasbag49
(g65
g51
NtRp2606
(dp2607
g54
(dp2608
sg63
g2371
sg56
(lp2609
g49
(g70
g51
NtRp2610
(dp2611
g54
(dp2612
g74
g75
ssg63
g2606
sg56
(lp2613
S'REMOTE_PORT'
p2614
asbag49
(g70
g51
NtRp2615
(dp2616
g54
(dp2617
g81
g82
ssg63
g2606
sg56
(lp2618
S':'
asbag49
(g70
g51
NtRp2619
(dp2620
g54
(dp2621
sg63
g2606
sg56
(lp2622
g49
(g50
g51
NtRp2623
(dp2624
g54
(dp2625
g62
I3
ssg63
g2619
sg56
(lp2626
g1229
asbasbasbag49
(g65
g51
NtRp2627
(dp2628
g54
(dp2629
sg63
g2371
sg56
(lp2630
g49
(g70
g51
NtRp2631
(dp2632
g54
(dp2633
g74
g75
ssg63
g2627
sg56
(lp2634
S'REQUEST_METHOD'
p2635
asbag49
(g70
g51
NtRp2636
(dp2637
g54
(dp2638
g81
g82
ssg63
g2627
sg56
(lp2639
S':'
asbag49
(g70
g51
NtRp2640
(dp2641
g54
(dp2642
sg63
g2627
sg56
(lp2643
g49
(g50
g51
NtRp2644
(dp2645
g54
(dp2646
g62
I3
ssg63
g2640
sg56
(lp2647
g1251
asbasbasbag49
(g65
g51
NtRp2648
(dp2649
g54
(dp2650
sg63
g2371
sg56
(lp2651
g49
(g70
g51
NtRp2652
(dp2653
g54
(dp2654
g74
g75
ssg63
g2648
sg56
(lp2655
S'SCRIPT_NAME'
p2656
asbag49
(g70
g51
NtRp2657
(dp2658
g54
(dp2659
g81
g82
ssg63
g2648
sg56
(lp2660
S':'
asbag49
(g70
g51
NtRp2661
(dp2662
g54
(dp2663
sg63
g2648
sg56
(lp2664
g49
(g50
g51
NtRp2665
(dp2666
g54
(dp2667
g62
I3
ssg63
g2661
sg56
(lp2668
S''
asbasbasbag49
(g65
g51
NtRp2669
(dp2670
g54
(dp2671
sg63
g2371
sg56
(lp2672
g49
(g70
g51
NtRp2673
(dp2674
g54
(dp2675
g74
g75
ssg63
g2669
sg56
(lp2676
S'SERVER_NAME'
p2677
asbag49
(g70
g51
NtRp2678
(dp2679
g54
(dp2680
g81
g82
ssg63
g2669
sg56
(lp2681
S':'
asbag49
(g70
g51
NtRp2682
(dp2683
g54
(dp2684
sg63
g2669
sg56
(lp2685
g49
(g50
g51
NtRp2686
(dp2687
g54
(dp2688
g62
I3
ssg63
g2682
sg56
(lp2689
g1294
asbasbasbag49
(g65
g51
NtRp2690
(dp2691
g54
(dp2692
sg63
g2371
sg56
(lp2693
g49
(g70
g51
NtRp2694
(dp2695
g54
(dp2696
g74
g75
ssg63
g2690
sg56
(lp2697
S'SERVER_PORT'
p2698
asbag49
(g70
g51
NtRp2699
(dp2700
g54
(dp2701
g81
g82
ssg63
g2690
sg56
(lp2702
S':'
asbag49
(g70
g51
NtRp2703
(dp2704
g54
(dp2705
sg63
g2690
sg56
(lp2706
g49
(g50
g51
NtRp2707
(dp2708
g54
(dp2709
g62
I3
ssg63
g2703
sg56
(lp2710
g1316
asbasbasbag49
(g65
g51
NtRp2711
(dp2712
g54
(dp2713
sg63
g2371
sg56
(lp2714
g49
(g70
g51
NtRp2715
(dp2716
g54
(dp2717
g74
g75
ssg63
g2711
sg56
(lp2718
S'SERVER_PROTOCOL'
p2719
asbag49
(g70
g51
NtRp2720
(dp2721
g54
(dp2722
g81
g82
ssg63
g2711
sg56
(lp2723
S':'
asbag49
(g70
g51
NtRp2724
(dp2725
g54
(dp2726
sg63
g2711
sg56
(lp2727
g49
(g50
g51
NtRp2728
(dp2729
g54
(dp2730
g62
I3
ssg63
g2724
sg56
(lp2731
g1338
asbasbasbag49
(g65
g51
NtRp2732
(dp2733
g54
(dp2734
sg63
g2371
sg56
(lp2735
g49
(g70
g51
NtRp2736
(dp2737
g54
(dp2738
g74
g75
ssg63
g2732
sg56
(lp2739
S'SERVER_SOFTWARE'
p2740
asbag49
(g70
g51
NtRp2741
(dp2742
g54
(dp2743
g81
g82
ssg63
g2732
sg56
(lp2744
S':'
asbag49
(g70
g51
NtRp2745
(dp2746
g54
(dp2747
sg63
g2732
sg56
(lp2748
g49
(g50
g51
NtRp2749
(dp2750
g54
(dp2751
g62
I3
ssg63
g2745
sg56
(lp2752
g1360
asbasbasbag49
(g65
g51
NtRp2753
(dp2754
g54
(dp2755
sg63
g2371
sg56
(lp2756
g49
(g70
g51
NtRp2757
(dp2758
g54
(dp2759
g74
g75
ssg63
g2753
sg56
(lp2760
S'wsgi.errors'
p2761
asbag49
(g70
g51
NtRp2762
(dp2763
g54
(dp2764
g81
g82
ssg63
g2753
sg56
(lp2765
S':'
asbag49
(g70
g51
NtRp2766
(dp2767
g54
(dp2768
sg63
g2753
sg56
(lp2769
g49
(g50
g51
NtRp2770
(dp2771
g54
(dp2772
g62
I3
ssg63
g2766
sg56
(lp2773
S"<open file '<stderr>', mode 'w' at 0x01FB00B0>"
p2774
asbasbasbag49
(g65
g51
NtRp2775
(dp2776
g54
(dp2777
sg63
g2371
sg56
(lp2778
g49
(g70
g51
NtRp2779
(dp2780
g54
(dp2781
g74
g75
ssg63
g2775
sg56
(lp2782
S'wsgi.file_wrapper'
p2783
asbag49
(g70
g51
NtRp2784
(dp2785
g54
(dp2786
g81
g82
ssg63
g2775
sg56
(lp2787
S':'
asbag49
(g70
g51
NtRp2788
(dp2789
g54
(dp2790
sg63
g2775
sg56
(lp2791
g49
(g50
g51
NtRp2792
(dp2793
g54
(dp2794
g62
I3
ssg63
g2788
sg56
(lp2795
S'<class wsgiref.util.FileWrapper at 0x02F56390>'
p2796
asbasbasbag49
(g65
g51
NtRp2797
(dp2798
g54
(dp2799
sg63
g2371
sg56
(lp2800
g49
(g70
g51
NtRp2801
(dp2802
g54
(dp2803
g74
g75
ssg63
g2797
sg56
(lp2804
S'wsgi.input'
p2805
asbag49
(g70
g51
NtRp2806
(dp2807
g54
(dp2808
g81
g82
ssg63
g2797
sg56
(lp2809
S':'
asbag49
(g70
g51
NtRp2810
(dp2811
g54
(dp2812
sg63
g2797
sg56
(lp2813
g49
(g50
g51
NtRp2814
(dp2815
g54
(dp2816
g62
I3
ssg63
g2810
sg56
(lp2817
S'<cStringIO.StringO object at 0x075A4D20>'
p2818
asbasbasbag49
(g65
g51
NtRp2819
(dp2820
g54
(dp2821
sg63
g2371
sg56
(lp2822
g49
(g70
g51
NtRp2823
(dp2824
g54
(dp2825
g74
g75
ssg63
g2819
sg56
(lp2826
S'wsgi.multiprocess'
p2827
asbag49
(g70
g51
NtRp2828
(dp2829
g54
(dp2830
g81
g82
ssg63
g2819
sg56
(lp2831
S':'
asbag49
(g70
g51
NtRp2832
(dp2833
g54
(dp2834
sg63
g2819
sg56
(lp2835
g49
(g50
g51
NtRp2836
(dp2837
g54
(dp2838
g62
I3
ssg63
g2832
sg56
(lp2839
g92
asbasbasbag49
(g65
g51
NtRp2840
(dp2841
g54
(dp2842
sg63
g2371
sg56
(lp2843
g49
(g70
g51
NtRp2844
(dp2845
g54
(dp2846
g74
g75
ssg63
g2840
sg56
(lp2847
S'wsgi.multithread'
p2848
asbag49
(g70
g51
NtRp2849
(dp2850
g54
(dp2851
g81
g82
ssg63
g2840
sg56
(lp2852
S':'
asbag49
(g70
g51
NtRp2853
(dp2854
g54
(dp2855
sg63
g2840
sg56
(lp2856
g49
(g50
g51
NtRp2857
(dp2858
g54
(dp2859
g62
I3
ssg63
g2853
sg56
(lp2860
g1600
asbasbasbag49
(g65
g51
NtRp2861
(dp2862
g54
(dp2863
sg63
g2371
sg56
(lp2864
g49
(g70
g51
NtRp2865
(dp2866
g54
(dp2867
g74
g75
ssg63
g2861
sg56
(lp2868
S'wsgi.run_once'
p2869
asbag49
(g70
g51
NtRp2870
(dp2871
g54
(dp2872
g81
g82
ssg63
g2861
sg56
(lp2873
S':'
asbag49
(g70
g51
NtRp2874
(dp2875
g54
(dp2876
sg63
g2861
sg56
(lp2877
g49
(g50
g51
NtRp2878
(dp2879
g54
(dp2880
g62
I3
ssg63
g2874
sg56
(lp2881
g92
asbasbasbag49
(g65
g51
NtRp2882
(dp2883
g54
(dp2884
sg63
g2371
sg56
(lp2885
g49
(g70
g51
NtRp2886
(dp2887
g54
(dp2888
g74
g75
ssg63
g2882
sg56
(lp2889
S'wsgi.url_scheme'
p2890
asbag49
(g70
g51
NtRp2891
(dp2892
g54
(dp2893
g81
g82
ssg63
g2882
sg56
(lp2894
S':'
asbag49
(g70
g51
NtRp2895
(dp2896
g54
(dp2897
sg63
g2882
sg56
(lp2898
g49
(g50
g51
NtRp2899
(dp2900
g54
(dp2901
g62
I3
ssg63
g2895
sg56
(lp2902
g1643
asbasbasbag49
(g65
g51
NtRp2903
(dp2904
g54
(dp2905
sg63
g2371
sg56
(lp2906
g49
(g70
g51
NtRp2907
(dp2908
g54
(dp2909
g74
g75
ssg63
g2903
sg56
(lp2910
S'wsgi.version'
p2911
asbag49
(g70
g51
NtRp2912
(dp2913
g54
(dp2914
g81
g82
ssg63
g2903
sg56
(lp2915
S':'
asbag49
(g70
g51
NtRp2916
(dp2917
g54
(dp2918
sg63
g2903
sg56
(lp2919
g49
(g50
g51
NtRp2920
(dp2921
g54
(dp2922
g62
I3
ssg63
g2916
sg56
(lp2923
S'1'
asbasbasbasbasbasbasbasbasbasbasbasbasbsS'frames'
p2924
(lp2925
(dp2926
S'file'
p2927
S'D:\\Dise\xf1o Web\\Proyectos\\Parleyweb\\web2py\\gluon\\restricted.py'
p2928
sS'dump'
p2929
(dp2930
sS'lnum'
p2931
I205
sS'lines'
p2932
(dp2933
sS'call'
p2934
S"(code='# -*- coding: utf-8 -*-\\n# this file is released ...\\n\\n\\n\\n\\n\\n\\n\\nresponse._vars=response._caller(mostrar)\\n', environment={'A': <class 'gluon.html.A'>, 'Auth': <class 'gluon.tools.Auth'>, 'B': <class 'gluon.html.B'>, 'BEAUTIFY': <class 'gluon.html.BEAUTIFY'>, 'BODY': <class 'gluon.html.BODY'>, 'BR': <class 'gluon.html.BR'>, 'BUTTON': <class 'gluon.html.BUTTON'>, 'CAT': <class 'gluon.html.CAT'>, 'CENTER': <class 'gluon.html.CENTER'>, 'CLEANUP': <class 'gluon.validators.CLEANUP'>, ...}, layer='D:\\\\Dise\\xf1o Web\\\\Proyectos\\\\Parleyweb\\\\web2py\\\\applications\\\\parleyweb\\\\controllers/default.py')"
p2935
sS'func'
p2936
S'restricted'
p2937
sa(dp2938
g2927
S'D:\\Dise\xf1o Web\\Proyectos\\Parleyweb\\web2py\\applications\\parleyweb\\controllers\\default.py'
p2939
sg2929
(dp2940
sg2931
I119
sg2932
(dp2941
I108
S''
sI109
S''
sI110
S''
sI111
S''
sI112
S''
sI113
S''
sI114
S''
sI115
S''
sI116
S''
sI117
S''
ssg2934
S'()'
p2942
sg2936
S'<module>'
p2943
sa(dp2944
g2927
S'D:\\Dise\xf1o Web\\Proyectos\\Parleyweb\\web2py\\gluon\\globals.py'
p2945
sg2929
(dp2946
sg2931
I173
sg2932
(dp2947
sg2934
S'(f=<function mostrar at 0x032CE570>)'
p2948
sg2936
S'<lambda>'
p2949
sa(dp2950
g2927
S'D:\\Dise\xf1o Web\\Proyectos\\Parleyweb\\web2py\\applications\\parleyweb\\controllers\\default.py'
p2951
sg2929
(dp2952
sg2931
I79
sg2932
(dp2953
I74
S"      LOAD('default','data.load',args='tables',ajax=True,user_signature=True)"
p2954
sI75
S'    """'
p2955
sI76
S'    return dict(form=crud())'
p2956
sI77
S''
sI78
S'def mostrar():'
p2957
sI79
S'    if not args:'
p2958
sI80
S"        redirect(URL('index'))"
p2959
sI81
S'    palabras = db((db.palabras.id==request.raw_args)).select().first()'
p2960
sI82
S'    igualar = db((db.palabras.id==db.palabra_ejemplo.palabra)&(db.ejemplos.id==db.palabra_ejemplo.ejemplo))'
p2961
sI83
S'    ejemplos = igualar(db.palabras.id==request.raw_args)'
p2962
ssg2934
S'()'
p2963
sg2936
S'mostrar'
p2964
sasS'pyver'
p2965
S'Python 2.5.4: D:\\Dise\xf1o Web\\Proyectos\\Parleyweb\\web2py\\web2py.exe'
p2966
sS'session'
p2967
g49
(g50
g51
NtRp2968
(dp2969
g54
(dp2970
sg56
(lp2971
g49
(g58
g51
NtRp2972
(dp2973
g54
(dp2974
g62
I5
ssg63
Nsg56
(lp2975
sbasbsS'etype'
p2976
S"<type 'exceptions.NameError'>"
p2977
sS'date'
p2978
S'Sat Mar 17 01:09:31 2012'
p2979
sS'response'
p2980
g49
(g50
g51
NtRp2981
(dp2982
g54
(dp2983
sg56
(lp2984
g49
(g58
g51
NtRp2985
(dp2986
g54
(dp2987
g62
I5
ssg63
Nsg56
(lp2988
g49
(g65
g51
NtRp2989
(dp2990
g54
(dp2991
sg63
g2985
sg56
(lp2992
g49
(g70
g51
NtRp2993
(dp2994
g54
(dp2995
g74
g75
ssg63
g2989
sg56
(lp2996
g160
asbag49
(g70
g51
NtRp2997
(dp2998
g54
(dp2999
g81
g82
ssg63
g2989
sg56
(lp3000
S':'
asbag49
(g70
g51
NtRp3001
(dp3002
g54
(dp3003
sg63
g2989
sg56
(lp3004
g49
(g50
g51
NtRp3005
(dp3006
g54
(dp3007
g62
I5
ssg63
g3001
sg56
(lp3008
S'<cStringIO.StringO object at 0x075B1C00>'
p3009
asbasbasbag49
(g65
g51
NtRp3010
(dp3011
g54
(dp3012
sg63
g2985
sg56
(lp3013
g49
(g70
g51
NtRp3014
(dp3015
g54
(dp3016
g74
g75
ssg63
g3010
sg56
(lp3017
g226
asbag49
(g70
g51
NtRp3018
(dp3019
g54
(dp3020
g81
g82
ssg63
g3010
sg56
(lp3021
S':'
asbag49
(g70
g51
NtRp3022
(dp3023
g54
(dp3024
sg63
g3010
sg56
(lp3025
g49
(g50
g51
NtRp3026
(dp3027
g54
(dp3028
g62
I5
ssg63
g3022
sg56
(lp3029
g49
(g58
g51
NtRp3030
(dp3031
g54
(dp3032
g62
I4
ssg63
Nsg56
(lp3033
g49
(g65
g51
NtRp3034
(dp3035
g54
(dp3036
sg63
g3030
sg56
(lp3037
g49
(g70
g51
NtRp3038
(dp3039
g54
(dp3040
g74
g75
ssg63
g3034
sg56
(lp3041
S'session_id_parleyweb'
p3042
asbag49
(g70
g51
NtRp3043
(dp3044
g54
(dp3045
g81
g82
ssg63
g3034
sg56
(lp3046
S':'
asbag49
(g70
g51
NtRp3047
(dp3048
g54
(dp3049
sg63
g3034
sg56
(lp3050
g49
(g50
g51
NtRp3051
(dp3052
g54
(dp3053
g62
I4
ssg63
g3047
sg56
(lp3054
g49
(g58
g51
NtRp3055
(dp3056
g54
(dp3057
g62
I3
ssg63
Nsg56
(lp3058
g49
(g65
g51
NtRp3059
(dp3060
g54
(dp3061
sg63
g3055
sg56
(lp3062
g49
(g70
g51
NtRp3063
(dp3064
g54
(dp3065
g74
g75
ssg63
g3059
sg56
(lp3066
g276
asbag49
(g70
g51
NtRp3067
(dp3068
g54
(dp3069
g81
g82
ssg63
g3059
sg56
(lp3070
S':'
asbag49
(g70
g51
NtRp3071
(dp3072
g54
(dp3073
sg63
g3059
sg56
(lp3074
g49
(g50
g51
NtRp3075
(dp3076
g54
(dp3077
g62
I3
ssg63
g3071
sg56
(lp3078
S''
asbasbasbag49
(g65
g51
NtRp3079
(dp3080
g54
(dp3081
sg63
g3055
sg56
(lp3082
g49
(g70
g51
NtRp3083
(dp3084
g54
(dp3085
g74
g75
ssg63
g3079
sg56
(lp3086
g297
asbag49
(g70
g51
NtRp3087
(dp3088
g54
(dp3089
g81
g82
ssg63
g3079
sg56
(lp3090
S':'
asbag49
(g70
g51
NtRp3091
(dp3092
g54
(dp3093
sg63
g3079
sg56
(lp3094
g49
(g50
g51
NtRp3095
(dp3096
g54
(dp3097
g62
I3
ssg63
g3091
sg56
(lp3098
S''
asbasbasbag49
(g65
g51
NtRp3099
(dp3100
g54
(dp3101
sg63
g3055
sg56
(lp3102
g49
(g70
g51
NtRp3103
(dp3104
g54
(dp3105
g74
g75
ssg63
g3099
sg56
(lp3106
g318
asbag49
(g70
g51
NtRp3107
(dp3108
g54
(dp3109
g81
g82
ssg63
g3099
sg56
(lp3110
S':'
asbag49
(g70
g51
NtRp3111
(dp3112
g54
(dp3113
sg63
g3099
sg56
(lp3114
g49
(g50
g51
NtRp3115
(dp3116
g54
(dp3117
g62
I3
ssg63
g3111
sg56
(lp3118
S''
asbasbasbag49
(g65
g51
NtRp3119
(dp3120
g54
(dp3121
sg63
g3055
sg56
(lp3122
g49
(g70
g51
NtRp3123
(dp3124
g54
(dp3125
g74
g75
ssg63
g3119
sg56
(lp3126
g339
asbag49
(g70
g51
NtRp3127
(dp3128
g54
(dp3129
g81
g82
ssg63
g3119
sg56
(lp3130
S':'
asbag49
(g70
g51
NtRp3131
(dp3132
g54
(dp3133
sg63
g3119
sg56
(lp3134
g49
(g50
g51
NtRp3135
(dp3136
g54
(dp3137
g62
I3
ssg63
g3131
sg56
(lp3138
S''
asbasbasbag49
(g65
g51
NtRp3139
(dp3140
g54
(dp3141
sg63
g3055
sg56
(lp3142
g49
(g70
g51
NtRp3143
(dp3144
g54
(dp3145
g74
g75
ssg63
g3139
sg56
(lp3146
g360
asbag49
(g70
g51
NtRp3147
(dp3148
g54
(dp3149
g81
g82
ssg63
g3139
sg56
(lp3150
S':'
asbag49
(g70
g51
NtRp3151
(dp3152
g54
(dp3153
sg63
g3139
sg56
(lp3154
g49
(g50
g51
NtRp3155
(dp3156
g54
(dp3157
g62
I3
ssg63
g3151
sg56
(lp3158
S'/'
asbasbasbag49
(g65
g51
NtRp3159
(dp3160
g54
(dp3161
sg63
g3055
sg56
(lp3162
g49
(g70
g51
NtRp3163
(dp3164
g54
(dp3165
g74
g75
ssg63
g3159
sg56
(lp3166
g381
asbag49
(g70
g51
NtRp3167
(dp3168
g54
(dp3169
g81
g82
ssg63
g3159
sg56
(lp3170
S':'
asbag49
(g70
g51
NtRp3171
(dp3172
g54
(dp3173
sg63
g3159
sg56
(lp3174
g49
(g50
g51
NtRp3175
(dp3176
g54
(dp3177
g62
I3
ssg63
g3171
sg56
(lp3178
S''
asbasbasbag49
(g65
g51
NtRp3179
(dp3180
g54
(dp3181
sg63
g3055
sg56
(lp3182
g49
(g70
g51
NtRp3183
(dp3184
g54
(dp3185
g74
g75
ssg63
g3179
sg56
(lp3186
g402
asbag49
(g70
g51
NtRp3187
(dp3188
g54
(dp3189
g81
g82
ssg63
g3179
sg56
(lp3190
S':'
asbag49
(g70
g51
NtRp3191
(dp3192
g54
(dp3193
sg63
g3179
sg56
(lp3194
g49
(g50
g51
NtRp3195
(dp3196
g54
(dp3197
g62
I3
ssg63
g3191
sg56
(lp3198
S''
asbasbasbasbasbasbasbasbasbasbasbag49
(g65
g51
NtRp3199
(dp3200
g54
(dp3201
sg63
g2985
sg56
(lp3202
g49
(g70
g51
NtRp3203
(dp3204
g54
(dp3205
g74
g75
ssg63
g3199
sg56
(lp3206
S'delimiters'
p3207
asbag49
(g70
g51
NtRp3208
(dp3209
g54
(dp3210
g81
g82
ssg63
g3199
sg56
(lp3211
S':'
asbag49
(g70
g51
NtRp3212
(dp3213
g54
(dp3214
sg63
g3199
sg56
(lp3215
g49
(g50
g51
NtRp3216
(dp3217
g54
(dp3218
g62
I5
ssg63
g3212
sg56
(lp3219
g49
(g58
g51
NtRp3220
(dp3221
g54
(dp3222
g62
I4
ssg63
Nsg56
(lp3223
g49
(g65
g51
NtRp3224
(dp3225
g54
(dp3226
sg63
g3220
sg56
(lp3227
g49
(g70
g51
NtRp3228
(dp3229
g54
(dp3230
sg63
g3224
sg56
(lp3231
g49
(g50
g51
NtRp3232
(dp3233
g54
(dp3234
g62
I4
ssg63
g3228
sg56
(lp3235
S'{{'
p3236
asbasbasbag49
(g65
g51
NtRp3237
(dp3238
g54
(dp3239
sg63
g3220
sg56
(lp3240
g49
(g70
g51
NtRp3241
(dp3242
g54
(dp3243
sg63
g3237
sg56
(lp3244
g49
(g50
g51
NtRp3245
(dp3246
g54
(dp3247
g62
I4
ssg63
g3241
sg56
(lp3248
S'}}'
p3249
asbasbasbasbasbasbasbag49
(g65
g51
NtRp3250
(dp3251
g54
(dp3252
sg63
g2985
sg56
(lp3253
g49
(g70
g51
NtRp3254
(dp3255
g54
(dp3256
g74
g75
ssg63
g3250
sg56
(lp3257
S'files'
p3258
asbag49
(g70
g51
NtRp3259
(dp3260
g54
(dp3261
g81
g82
ssg63
g3250
sg56
(lp3262
S':'
asbag49
(g70
g51
NtRp3263
(dp3264
g54
(dp3265
sg63
g3250
sg56
(lp3266
g49
(g50
g51
NtRp3267
(dp3268
g54
(dp3269
g62
I5
ssg63
g3263
sg56
(lp3270
g49
(g58
g51
NtRp3271
(dp3272
g54
(dp3273
g62
I4
ssg63
Nsg56
(lp3274
sbasbasbasbag49
(g65
g51
NtRp3275
(dp3276
g54
(dp3277
sg63
g2985
sg56
(lp3278
g49
(g70
g51
NtRp3279
(dp3280
g54
(dp3281
g74
g75
ssg63
g3275
sg56
(lp3282
S'flash'
p3283
asbag49
(g70
g51
NtRp3284
(dp3285
g54
(dp3286
g81
g82
ssg63
g3275
sg56
(lp3287
S':'
asbag49
(g70
g51
NtRp3288
(dp3289
g54
(dp3290
sg63
g3275
sg56
(lp3291
g49
(g50
g51
NtRp3292
(dp3293
g54
(dp3294
g62
I5
ssg63
g3288
sg56
(lp3295
S''
asbasbasbag49
(g65
g51
NtRp3296
(dp3297
g54
(dp3298
sg63
g2985
sg56
(lp3299
g49
(g70
g51
NtRp3300
(dp3301
g54
(dp3302
g74
g75
ssg63
g3296
sg56
(lp3303
S'generic_patterns'
p3304
asbag49
(g70
g51
NtRp3305
(dp3306
g54
(dp3307
g81
g82
ssg63
g3296
sg56
(lp3308
S':'
asbag49
(g70
g51
NtRp3309
(dp3310
g54
(dp3311
sg63
g3296
sg56
(lp3312
g49
(g50
g51
NtRp3313
(dp3314
g54
(dp3315
g62
I5
ssg63
g3309
sg56
(lp3316
g49
(g58
g51
NtRp3317
(dp3318
g54
(dp3319
g62
I4
ssg63
Nsg56
(lp3320
g49
(g65
g51
NtRp3321
(dp3322
g54
(dp3323
sg63
g3317
sg56
(lp3324
g49
(g70
g51
NtRp3325
(dp3326
g54
(dp3327
sg63
g3321
sg56
(lp3328
g49
(g50
g51
NtRp3329
(dp3330
g54
(dp3331
g62
I4
ssg63
g3325
sg56
(lp3332
S'*'
asbasbasbasbasbasbasbag49
(g65
g51
NtRp3333
(dp3334
g54
(dp3335
sg63
g2985
sg56
(lp3336
g49
(g70
g51
NtRp3337
(dp3338
g54
(dp3339
g74
g75
ssg63
g3333
sg56
(lp3340
S'headers'
p3341
asbag49
(g70
g51
NtRp3342
(dp3343
g54
(dp3344
g81
g82
ssg63
g3333
sg56
(lp3345
S':'
asbag49
(g70
g51
NtRp3346
(dp3347
g54
(dp3348
sg63
g3333
sg56
(lp3349
g49
(g50
g51
NtRp3350
(dp3351
g54
(dp3352
g62
I5
ssg63
g3346
sg56
(lp3353
g49
(g58
g51
NtRp3354
(dp3355
g54
(dp3356
g62
I4
ssg63
Nsg56
(lp3357
g49
(g65
g51
NtRp3358
(dp3359
g54
(dp3360
sg63
g3354
sg56
(lp3361
g49
(g70
g51
NtRp3362
(dp3363
g54
(dp3364
g74
g75
ssg63
g3358
sg56
(lp3365
S'Cache-Control'
p3366
asbag49
(g70
g51
NtRp3367
(dp3368
g54
(dp3369
g81
g82
ssg63
g3358
sg56
(lp3370
S':'
asbag49
(g70
g51
NtRp3371
(dp3372
g54
(dp3373
sg63
g3358
sg56
(lp3374
g49
(g50
g51
NtRp3375
(dp3376
g54
(dp3377
g62
I4
ssg63
g3371
sg56
(lp3378
S'no-store, no-cache, must-revalidate, post-check=0, pre-check=0'
p3379
asbasbasbag49
(g65
g51
NtRp3380
(dp3381
g54
(dp3382
sg63
g3354
sg56
(lp3383
g49
(g70
g51
NtRp3384
(dp3385
g54
(dp3386
g74
g75
ssg63
g3380
sg56
(lp3387
S'Content-Type'
p3388
asbag49
(g70
g51
NtRp3389
(dp3390
g54
(dp3391
g81
g82
ssg63
g3380
sg56
(lp3392
S':'
asbag49
(g70
g51
NtRp3393
(dp3394
g54
(dp3395
sg63
g3380
sg56
(lp3396
g49
(g50
g51
NtRp3397
(dp3398
g54
(dp3399
g62
I4
ssg63
g3393
sg56
(lp3400
S'text/html; charset=utf-8'
p3401
asbasbasbag49
(g65
g51
NtRp3402
(dp3403
g54
(dp3404
sg63
g3354
sg56
(lp3405
g49
(g70
g51
NtRp3406
(dp3407
g54
(dp3408
g74
g75
ssg63
g3402
sg56
(lp3409
S'Expires'
p3410
asbag49
(g70
g51
NtRp3411
(dp3412
g54
(dp3413
g81
g82
ssg63
g3402
sg56
(lp3414
S':'
asbag49
(g70
g51
NtRp3415
(dp3416
g54
(dp3417
sg63
g3402
sg56
(lp3418
g49
(g50
g51
NtRp3419
(dp3420
g54
(dp3421
g62
I4
ssg63
g3415
sg56
(lp3422
S'Sat, 17 Mar 2012 00:09:31 GMT'
p3423
asbasbasbag49
(g65
g51
NtRp3424
(dp3425
g54
(dp3426
sg63
g3354
sg56
(lp3427
g49
(g70
g51
NtRp3428
(dp3429
g54
(dp3430
g74
g75
ssg63
g3424
sg56
(lp3431
S'Pragma'
p3432
asbag49
(g70
g51
NtRp3433
(dp3434
g54
(dp3435
g81
g82
ssg63
g3424
sg56
(lp3436
S':'
asbag49
(g70
g51
NtRp3437
(dp3438
g54
(dp3439
sg63
g3424
sg56
(lp3440
g49
(g50
g51
NtRp3441
(dp3442
g54
(dp3443
g62
I4
ssg63
g3437
sg56
(lp3444
S'no-cache'
p3445
asbasbasbag49
(g65
g51
NtRp3446
(dp3447
g54
(dp3448
sg63
g3354
sg56
(lp3449
g49
(g70
g51
NtRp3450
(dp3451
g54
(dp3452
g74
g75
ssg63
g3446
sg56
(lp3453
S'X-Powered-By'
p3454
asbag49
(g70
g51
NtRp3455
(dp3456
g54
(dp3457
g81
g82
ssg63
g3446
sg56
(lp3458
S':'
asbag49
(g70
g51
NtRp3459
(dp3460
g54
(dp3461
sg63
g3446
sg56
(lp3462
g49
(g50
g51
NtRp3463
(dp3464
g54
(dp3465
g62
I4
ssg63
g3459
sg56
(lp3466
S'web2py'
p3467
asbasbasbasbasbasbasbag49
(g65
g51
NtRp3468
(dp3469
g54
(dp3470
sg63
g2985
sg56
(lp3471
g49
(g70
g51
NtRp3472
(dp3473
g54
(dp3474
g74
g75
ssg63
g3468
sg56
(lp3475
S'menu'
p3476
asbag49
(g70
g51
NtRp3477
(dp3478
g54
(dp3479
g81
g82
ssg63
g3468
sg56
(lp3480
S':'
asbag49
(g70
g51
NtRp3481
(dp3482
g54
(dp3483
sg63
g3468
sg56
(lp3484
g49
(g50
g51
NtRp3485
(dp3486
g54
(dp3487
g62
I5
ssg63
g3481
sg56
(lp3488
g49
(g58
g51
NtRp3489
(dp3490
g54
(dp3491
g62
I4
ssg63
Nsg56
(lp3492
g49
(g65
g51
NtRp3493
(dp3494
g54
(dp3495
sg63
g3489
sg56
(lp3496
g49
(g70
g51
NtRp3497
(dp3498
g54
(dp3499
sg63
g3493
sg56
(lp3500
g49
(g50
g51
NtRp3501
(dp3502
g54
(dp3503
g62
I4
ssg63
g3497
sg56
(lp3504
g49
(g58
g51
NtRp3505
(dp3506
g54
(dp3507
g62
I3
ssg63
Nsg56
(lp3508
g49
(g65
g51
NtRp3509
(dp3510
g54
(dp3511
sg63
g3505
sg56
(lp3512
g49
(g70
g51
NtRp3513
(dp3514
g54
(dp3515
sg63
g3509
sg56
(lp3516
g49
(g50
g51
NtRp3517
(dp3518
g54
(dp3519
g62
I3
ssg63
g3513
sg56
(lp3520
cgluon.languages
lazyT_unpickle
p3521
(S't\x04\x00\x00\x00Home'
tRp3522
asbasbasbag49
(g65
g51
NtRp3523
(dp3524
g54
(dp3525
sg63
g3505
sg56
(lp3526
g49
(g70
g51
NtRp3527
(dp3528
g54
(dp3529
sg63
g3523
sg56
(lp3530
g49
(g50
g51
NtRp3531
(dp3532
g54
(dp3533
g62
I3
ssg63
g3527
sg56
(lp3534
g92
asbasbasbag49
(g65
g51
NtRp3535
(dp3536
g54
(dp3537
sg63
g3505
sg56
(lp3538
g49
(g70
g51
NtRp3539
(dp3540
g54
(dp3541
sg63
g3535
sg56
(lp3542
g49
(g50
g51
NtRp3543
(dp3544
g54
(dp3545
g62
I3
ssg63
g3539
sg56
(lp3546
S'/parleyweb/default/index'
p3547
asbasbasbag49
(g65
g51
NtRp3548
(dp3549
g54
(dp3550
sg63
g3505
sg56
(lp3551
g49
(g70
g51
NtRp3552
(dp3553
g54
(dp3554
sg63
g3548
sg56
(lp3555
g49
(g50
g51
NtRp3556
(dp3557
g54
(dp3558
g62
I3
ssg63
g3552
sg56
(lp3559
g49
(g58
g51
NtRp3560
(dp3561
g54
(dp3562
g62
I2
ssg63
Nsg56
(lp3563
sbasbasbasbasbasbasbasbasbasbasbasbag49
(g65
g51
NtRp3564
(dp3565
g54
(dp3566
sg63
g2985
sg56
(lp3567
g49
(g70
g51
NtRp3568
(dp3569
g54
(dp3570
g74
g75
ssg63
g3564
sg56
(lp3571
S'meta'
p3572
asbag49
(g70
g51
NtRp3573
(dp3574
g54
(dp3575
g81
g82
ssg63
g3564
sg56
(lp3576
S':'
asbag49
(g70
g51
NtRp3577
(dp3578
g54
(dp3579
sg63
g3564
sg56
(lp3580
g49
(g50
g51
NtRp3581
(dp3582
g54
(dp3583
g62
I5
ssg63
g3577
sg56
(lp3584
g49
(g58
g51
NtRp3585
(dp3586
g54
(dp3587
g62
I4
ssg63
Nsg56
(lp3588
g49
(g65
g51
NtRp3589
(dp3590
g54
(dp3591
sg63
g3585
sg56
(lp3592
g49
(g70
g51
NtRp3593
(dp3594
g54
(dp3595
g74
g75
ssg63
g3589
sg56
(lp3596
S'author'
p3597
asbag49
(g70
g51
NtRp3598
(dp3599
g54
(dp3600
g81
g82
ssg63
g3589
sg56
(lp3601
S':'
asbag49
(g70
g51
NtRp3602
(dp3603
g54
(dp3604
sg63
g3589
sg56
(lp3605
g49
(g50
g51
NtRp3606
(dp3607
g54
(dp3608
g62
I4
ssg63
g3602
sg56
(lp3609
S'Your Name <you@example.com>'
p3610
asbasbasbag49
(g65
g51
NtRp3611
(dp3612
g54
(dp3613
sg63
g3585
sg56
(lp3614
g49
(g70
g51
NtRp3615
(dp3616
g54
(dp3617
g74
g75
ssg63
g3611
sg56
(lp3618
S'copyright'
p3619
asbag49
(g70
g51
NtRp3620
(dp3621
g54
(dp3622
g81
g82
ssg63
g3611
sg56
(lp3623
S':'
asbag49
(g70
g51
NtRp3624
(dp3625
g54
(dp3626
sg63
g3611
sg56
(lp3627
g49
(g50
g51
NtRp3628
(dp3629
g54
(dp3630
g62
I4
ssg63
g3624
sg56
(lp3631
S'Copyright 2011'
p3632
asbasbasbag49
(g65
g51
NtRp3633
(dp3634
g54
(dp3635
sg63
g3585
sg56
(lp3636
g49
(g70
g51
NtRp3637
(dp3638
g54
(dp3639
g74
g75
ssg63
g3633
sg56
(lp3640
S'description'
p3641
asbag49
(g70
g51
NtRp3642
(dp3643
g54
(dp3644
g81
g82
ssg63
g3633
sg56
(lp3645
S':'
asbag49
(g70
g51
NtRp3646
(dp3647
g54
(dp3648
sg63
g3633
sg56
(lp3649
g49
(g50
g51
NtRp3650
(dp3651
g54
(dp3652
g62
I4
ssg63
g3646
sg56
(lp3653
S'a cool new app'
p3654
asbasbasbag49
(g65
g51
NtRp3655
(dp3656
g54
(dp3657
sg63
g3585
sg56
(lp3658
g49
(g70
g51
NtRp3659
(dp3660
g54
(dp3661
g74
g75
ssg63
g3655
sg56
(lp3662
S'generator'
p3663
asbag49
(g70
g51
NtRp3664
(dp3665
g54
(dp3666
g81
g82
ssg63
g3655
sg56
(lp3667
S':'
asbag49
(g70
g51
NtRp3668
(dp3669
g54
(dp3670
sg63
g3655
sg56
(lp3671
g49
(g50
g51
NtRp3672
(dp3673
g54
(dp3674
g62
I4
ssg63
g3668
sg56
(lp3675
S'Web2py Web Framework'
p3676
asbasbasbag49
(g65
g51
NtRp3677
(dp3678
g54
(dp3679
sg63
g3585
sg56
(lp3680
g49
(g70
g51
NtRp3681
(dp3682
g54
(dp3683
g74
g75
ssg63
g3677
sg56
(lp3684
S'keywords'
p3685
asbag49
(g70
g51
NtRp3686
(dp3687
g54
(dp3688
g81
g82
ssg63
g3677
sg56
(lp3689
S':'
asbag49
(g70
g51
NtRp3690
(dp3691
g54
(dp3692
sg63
g3677
sg56
(lp3693
g49
(g50
g51
NtRp3694
(dp3695
g54
(dp3696
g62
I4
ssg63
g3690
sg56
(lp3697
S'web2py, python, framework'
p3698
asbasbasbasbasbasbasbag49
(g65
g51
NtRp3699
(dp3700
g54
(dp3701
sg63
g2985
sg56
(lp3702
g49
(g70
g51
NtRp3703
(dp3704
g54
(dp3705
g74
g75
ssg63
g3699
sg56
(lp3706
S'postprocessing'
p3707
asbag49
(g70
g51
NtRp3708
(dp3709
g54
(dp3710
g81
g82
ssg63
g3699
sg56
(lp3711
S':'
asbag49
(g70
g51
NtRp3712
(dp3713
g54
(dp3714
sg63
g3699
sg56
(lp3715
g49
(g50
g51
NtRp3716
(dp3717
g54
(dp3718
g62
I5
ssg63
g3712
sg56
(lp3719
g49
(g58
g51
NtRp3720
(dp3721
g54
(dp3722
g62
I4
ssg63
Nsg56
(lp3723
sbasbasbasbag49
(g65
g51
NtRp3724
(dp3725
g54
(dp3726
sg63
g2985
sg56
(lp3727
g49
(g70
g51
NtRp3728
(dp3729
g54
(dp3730
g74
g75
ssg63
g3724
sg56
(lp3731
S'session_file'
p3732
asbag49
(g70
g51
NtRp3733
(dp3734
g54
(dp3735
g81
g82
ssg63
g3724
sg56
(lp3736
S':'
asbag49
(g70
g51
NtRp3737
(dp3738
g54
(dp3739
sg63
g3724
sg56
(lp3740
g49
(g50
g51
NtRp3741
(dp3742
g54
(dp3743
g62
I5
ssg63
g3737
sg56
(lp3744
S"<open file 'D:\\Dise\xf1o Web\\Proyectos\\Parleyweb\\web2py\\applications\\parleyweb\\sessions\\127.0.0.1-0780c0c1-affd-425a-affb-ac061c4961c7', mode 'rb+' at 0x06F0E020>"
p3745
asbasbasbag49
(g65
g51
NtRp3746
(dp3747
g54
(dp3748
sg63
g2985
sg56
(lp3749
g49
(g70
g51
NtRp3750
(dp3751
g54
(dp3752
g74
g75
ssg63
g3746
sg56
(lp3753
S'session_filename'
p3754
asbag49
(g70
g51
NtRp3755
(dp3756
g54
(dp3757
g81
g82
ssg63
g3746
sg56
(lp3758
S':'
asbag49
(g70
g51
NtRp3759
(dp3760
g54
(dp3761
sg63
g3746
sg56
(lp3762
g49
(g50
g51
NtRp3763
(dp3764
g54
(dp3765
g62
I5
ssg63
g3759
sg56
(lp3766
S'D:\\Dise\xf1o Web\\Proyectos\\Parleyweb\\web2py\\applications\\parleyweb\\sessions\\127.0.0.1-0780c0c1-affd-425a-affb-ac061c4961c7'
p3767
asbasbasbag49
(g65
g51
NtRp3768
(dp3769
g54
(dp3770
sg63
g2985
sg56
(lp3771
g49
(g70
g51
NtRp3772
(dp3773
g54
(dp3774
g74
g75
ssg63
g3768
sg56
(lp3775
S'session_id'
p3776
asbag49
(g70
g51
NtRp3777
(dp3778
g54
(dp3779
g81
g82
ssg63
g3768
sg56
(lp3780
S':'
asbag49
(g70
g51
NtRp3781
(dp3782
g54
(dp3783
sg63
g3768
sg56
(lp3784
g49
(g50
g51
NtRp3785
(dp3786
g54
(dp3787
g62
I5
ssg63
g3781
sg56
(lp3788
S'127.0.0.1-0780c0c1-affd-425a-affb-ac061c4961c7'
p3789
asbasbasbag49
(g65
g51
NtRp3790
(dp3791
g54
(dp3792
sg63
g2985
sg56
(lp3793
g49
(g70
g51
NtRp3794
(dp3795
g54
(dp3796
g74
g75
ssg63
g3790
sg56
(lp3797
S'session_id_name'
p3798
asbag49
(g70
g51
NtRp3799
(dp3800
g54
(dp3801
g81
g82
ssg63
g3790
sg56
(lp3802
S':'
asbag49
(g70
g51
NtRp3803
(dp3804
g54
(dp3805
sg63
g3790
sg56
(lp3806
g49
(g50
g51
NtRp3807
(dp3808
g54
(dp3809
g62
I5
ssg63
g3803
sg56
(lp3810
g3042
asbasbasbag49
(g65
g51
NtRp3811
(dp3812
g54
(dp3813
sg63
g2985
sg56
(lp3814
g49
(g70
g51
NtRp3815
(dp3816
g54
(dp3817
g74
g75
ssg63
g3811
sg56
(lp3818
S'session_locked'
p3819
asbag49
(g70
g51
NtRp3820
(dp3821
g54
(dp3822
g81
g82
ssg63
g3811
sg56
(lp3823
S':'
asbag49
(g70
g51
NtRp3824
(dp3825
g54
(dp3826
sg63
g3811
sg56
(lp3827
g49
(g50
g51
NtRp3828
(dp3829
g54
(dp3830
g62
I5
ssg63
g3824
sg56
(lp3831
g1600
asbasbasbag49
(g65
g51
NtRp3832
(dp3833
g54
(dp3834
sg63
g2985
sg56
(lp3835
g49
(g70
g51
NtRp3836
(dp3837
g54
(dp3838
g74
g75
ssg63
g3832
sg56
(lp3839
S'session_new'
p3840
asbag49
(g70
g51
NtRp3841
(dp3842
g54
(dp3843
g81
g82
ssg63
g3832
sg56
(lp3844
S':'
asbag49
(g70
g51
NtRp3845
(dp3846
g54
(dp3847
sg63
g3832
sg56
(lp3848
g49
(g50
g51
NtRp3849
(dp3850
g54
(dp3851
g62
I5
ssg63
g3845
sg56
(lp3852
g92
asbasbasbag49
(g65
g51
NtRp3853
(dp3854
g54
(dp3855
sg63
g2985
sg56
(lp3856
g49
(g70
g51
NtRp3857
(dp3858
g54
(dp3859
g74
g75
ssg63
g3853
sg56
(lp3860
S'status'
p3861
asbag49
(g70
g51
NtRp3862
(dp3863
g54
(dp3864
g81
g82
ssg63
g3853
sg56
(lp3865
S':'
asbag49
(g70
g51
NtRp3866
(dp3867
g54
(dp3868
sg63
g3853
sg56
(lp3869
g49
(g50
g51
NtRp3870
(dp3871
g54
(dp3872
g62
I5
ssg63
g3866
sg56
(lp3873
S'200'
p3874
asbasbasbag49
(g65
g51
NtRp3875
(dp3876
g54
(dp3877
sg63
g2985
sg56
(lp3878
g49
(g70
g51
NtRp3879
(dp3880
g54
(dp3881
g74
g75
ssg63
g3875
sg56
(lp3882
S'subtitle'
p3883
asbag49
(g70
g51
NtRp3884
(dp3885
g54
(dp3886
g81
g82
ssg63
g3875
sg56
(lp3887
S':'
asbag49
(g70
g51
NtRp3888
(dp3889
g54
(dp3890
sg63
g3875
sg56
(lp3891
g49
(g50
g51
NtRp3892
(dp3893
g54
(dp3894
g62
I5
ssg63
g3888
sg56
(lp3895
g3521
(S's\t\x00\x00\x00Adaptame!'
tRp3896
asbasbasbag49
(g65
g51
NtRp3897
(dp3898
g54
(dp3899
sg63
g2985
sg56
(lp3900
g49
(g70
g51
NtRp3901
(dp3902
g54
(dp3903
g74
g75
ssg63
g3897
sg56
(lp3904
S'title'
p3905
asbag49
(g70
g51
NtRp3906
(dp3907
g54
(dp3908
g81
g82
ssg63
g3897
sg56
(lp3909
S':'
asbag49
(g70
g51
NtRp3910
(dp3911
g54
(dp3912
sg63
g3897
sg56
(lp3913
g49
(g50
g51
NtRp3914
(dp3915
g54
(dp3916
g62
I5
ssg63
g3910
sg56
(lp3917
S'Parleyweb'
p3918
asbasbasbag49
(g65
g51
NtRp3919
(dp3920
g54
(dp3921
sg63
g2985
sg56
(lp3922
g49
(g70
g51
NtRp3923
(dp3924
g54
(dp3925
g74
g75
ssg63
g3919
sg56
(lp3926
g2286
asbag49
(g70
g51
NtRp3927
(dp3928
g54
(dp3929
g81
g82
ssg63
g3919
sg56
(lp3930
S':'
asbag49
(g70
g51
NtRp3931
(dp3932
g54
(dp3933
sg63
g3919
sg56
(lp3934
g49
(g50
g51
NtRp3935
(dp3936
g54
(dp3937
g62
I5
ssg63
g3931
sg56
(lp3938
g2299
asbasbasbag49
(g65
g51
NtRp3939
(dp3940
g54
(dp3941
sg63
g2985
sg56
(lp3942
g49
(g70
g51
NtRp3943
(dp3944
g54
(dp3945
g74
g75
ssg63
g3939
sg56
(lp3946
S'view'
p3947
asbag49
(g70
g51
NtRp3948
(dp3949
g54
(dp3950
g81
g82
ssg63
g3939
sg56
(lp3951
S':'
asbag49
(g70
g51
NtRp3952
(dp3953
g54
(dp3954
sg63
g3939
sg56
(lp3955
g49
(g50
g51
NtRp3956
(dp3957
g54
(dp3958
g62
I5
ssg63
g3952
sg56
(lp3959
S'default/mostrar.html'
p3960
asbasbasbasbasbsS'locals'
p3961
(dp3962
ssS'traceback'
p3963
S'Traceback (most recent call last):\n  File "gluon/restricted.py", line 205, in restricted\n  File "D:\\Dise\xf1o Web\\Proyectos\\Parleyweb\\web2py\\applications\\parleyweb\\controllers/default.py", line 119, in <module>\n  File "gluon/globals.py", line 173, in <lambda>\n  File "D:\\Dise\xf1o Web\\Proyectos\\Parleyweb\\web2py\\applications\\parleyweb\\controllers/default.py", line 79, in mostrar\nNameError: global name \'args\' is not defined\n'
p3964
s.