(dp1
S'output'
p2
S"<type 'exceptions.NameError'> name 'formulario_busqueda' is not defined"
p3
sS'layer'
p4
S'D:\\Dise\xf1o Web\\Proyectos\\Parleyweb\\web2py\\applications\\parleyweb\\views\\default/index.html'
p5
sS'code'
p6
S'response.write(\'<!DOCTYPE html>\\n<!-- paulirish.com/2008/conditional-stylesheets-vs-css-hacks-answer-neither/ -->\\n<!--[if lt IE 7]><html class="ie ie6 ie-lte9 ie-lte8 ie-lte7 no-js" lang="\', escape=False)\nresponse.write(T.accepted_language or \'en\')\nresponse.write(\'"> <![endif]-->\\n<!--[if IE 7]><html class="ie ie7 ie-lte9 ie-lte8 ie-lte7 no-js" lang="\', escape=False)\nresponse.write(T.accepted_language or \'en\')\nresponse.write(\'"> <![endif]-->\\n<!--[if IE 8]><html class="ie ie8 ie-lte9 ie-lte8 no-js" lang="\', escape=False)\nresponse.write(T.accepted_language or \'en\')\nresponse.write(\'"> <![endif]-->\\n<!--[if IE 9]><html class="ie9 ie-lte9 no-js" lang="\', escape=False)\nresponse.write(T.accepted_language or \'en\')\nresponse.write(\'"> <![endif]-->\\n<!--[if (gt IE 9)|!(IE)]><!--> <html class="no-js" lang="\', escape=False)\nresponse.write(T.accepted_language or \'en\')\nresponse.write(\'"> <!--<![endif]-->\\n<head>\\n  <meta charset="utf-8" />\\n  <!-- www.phpied.com/conditional-comments-block-downloads/ -->\\n  <!-- Always force latest IE rendering engine\\n\\t   (even in intranet) & Chrome Frame\\n\\t   Remove this if you use the .htaccess -->\\n  <!--[if IE]>\\n    <meta http-equiv="X-UA-Compatible" content="IE=edge\', escape=False)\nresponse.write(not request.is_local and \',chrome=1\' or \'\')\nresponse.write(\'">\\n  <![endif]-->\\n  \\n  <title>\', escape=False)\nresponse.write(response.title or request.application)\nresponse.write(\'</title>\\n  \\n  <!-- http://dev.w3.org/html5/markup/meta.name.html -->\\n  <meta name="application-name" content="\', escape=False)\nresponse.write(request.application)\nresponse.write(\'" />\\n  \\n  <!-- Speaking of Google, don\\\'t forget to set your site up:\\n\\t   http://google.com/webmasters -->\\n  <meta name="google-site-verification" content="" />\\n\\n  <!--  Mobile Viewport Fix\\n\\t  j.mp/mobileviewport & davidbcalhoun.com/2010/viewport-metatag\\n\\t  device-width: Occupy full width of the screen in its current orientation\\n\\t  initial-scale = 1.0 retains dimensions instead of zooming out if page height > device height\\n\\t  user-scalable = yes allows the user to zoom in -->\\n  <meta name="viewport" content="width=device-width, initial-scale=1.0, user-scalable=yes">\\n  \\n  <!-- Place favicon.ico and apple-touch-icon.png in the root of your domain and delete these references -->\\n  <link rel="shortcut icon" href="\', escape=False)\nresponse.write(URL(\'static\',\'favicon.ico\'))\nresponse.write(\'" type="image/x-icon">\\n  <link rel="apple-touch-icon" href="\', escape=False)\nresponse.write(URL(\'static\',\'favicon.png\'))\nresponse.write(\'">\\n\\n  <!-- All JavaScript at the bottom, except for Modernizr which enables \\n\\t   HTML5 elements & feature detects -->\\n  <script src="\', escape=False)\nresponse.write(URL(\'static\',\'js/modernizr.custom.js\'))\nresponse.write(\'"></script>  \\n\\n  <!-- include stylesheets -->\\n  \', escape=False)\nresponse.files.append(URL(\'static\',\'css/bootstrap.css\'))\nresponse.files.append(URL(\'static\',\'js/bootstrap.js\'))\nresponse.files.append(URL(\'static\',\'css/parleyweb.css\'))\nresponse.files.append(URL(\'static\',\'css/jquery-ui-1.8.18.custom.css\'))\nresponse.files.append(URL(\'static\',\'js/parleyweb.js\'))\nresponse.files.append(URL(\'static\',\'js/jquery-ui-1.8.18.custom.min.js\'))\nresponse.write(\'\\n\\n  \', escape=False)\nresponse.write(\'<script type="text/javascript"><!--\\n    // These variables are used by the web2py_ajax_init function in web2py_ajax.js (which is loaded below).\\n    var w2p_ajax_confirm_message = "\', escape=False)\nresponse.write(T(\'Are you sure you want to delete this object?\'))\nresponse.write(\'";\\n    var w2p_ajax_date_format = "\', escape=False)\nresponse.write(T(\'%Y-%m-%d\'))\nresponse.write(\'";\\n    var w2p_ajax_datetime_format = "\', escape=False)\nresponse.write(T(\'%Y-%m-%d %H:%M:%S\'))\nresponse.write(\'";\\n    //--></script>\\n\', escape=False)\nresponse.files.insert(0,URL(\'static\',\'js/jquery.js\'))\nresponse.files.insert(1,URL(\'static\',\'css/calendar.css\'))\nresponse.files.insert(2,URL(\'static\',\'js/calendar.js\'))\nresponse.files.insert(3,URL(\'static\',\'js/web2py.js\'))\nresponse.include_meta()\nresponse.include_files()\nresponse.write(\'\\n\', escape=False)\nresponse.write(\'\\n\\n  \\n\\n  \', escape=False)\n# using sidebars need to know what sidebar you want to use\nleft_sidebar_enabled = globals().get(\'left_sidebar_enabled\',False)\nright_sidebar_enabled = globals().get(\'right_sidebar_enabled\',False)\nmiddle_columns = {0:\'sixteen\',1:\'twelve\',2:\'eight\'}[\n(left_sidebar_enabled and 1 or 0)+(right_sidebar_enabled and 1 or 0)]\nresponse.write(\'\\n\\n  <!-- uncomment here to load jquery-ui\\n  <link rel="stylesheet" href="http://ajax.googleapis.com/ajax/libs/jqueryui/1.8.16/themes/base/jquery-ui.css" type="text/css" media="all" />\\n  <script src="http://ajax.googleapis.com/ajax/libs/jqueryui/1.8.16/jquery-ui.min.js" type="text/javascript"></script>\\n  uncomment to load jquery-ui //-->\\n</head>\\n <body>\\n\\n    <div class="navbar navbar-fixed-top">\\n      <div class="navbar-inner">\\n        <div class="container-fluid">\\n          <a class="btn btn-navbar" data-toggle="collapse" data-target=".nav-collapse">\\n            <span class="icon-bar"></span>\\n            <span class="icon-bar"></span>\\n            <span class="icon-bar"></span>\\n          </a>\\n          <a class="brand" href="#">Parleyweb</a>\\n          <div class="nav-collapse">\\n\\t    \', escape=False)\n#=MENU(response.menu, _class="nav active")\nresponse.write(\'\\n            <ul class="nav">\\n              <li>\', escape=False)\nresponse.write(A(T(\'Administracion\'), _href=URL(\'admin\', \'index\')))\nresponse.write(\'</li>\\n            </ul>\\n\\t    \\n            <p class="navbar-text pull-right">\', escape=False)\nresponse.write(\'auth\' in globals() and auth.navbar(separators=(\' \',\' | \',\'\')))\nresponse.write(\'</p>\\n          </div><!--/.nav-collapse -->\\n        </div>\\n      </div>\\n    </div>\\n    <div class="flash alert alert-info"></i>\', escape=False)\nresponse.write(response.flash or \'\')\nresponse.write(\'</div>\\n    <div class="container-fluid">\\n      <div class="row-fluid">\\n        <div class="span3">\\n          <div class="well sidebar-nav">\\n            <ul class="nav nav-list">\\n              <li class="nav-header">\', escape=False)\nresponse.write(T(\'Buscar\'))\nresponse.write(\'</li>\\n\\t      <li>\', escape=False)\nresponse.write(formulario_busqueda)\nresponse.write(\'</li>\\n            </ul>\\n          </div><!--/.well -->\\n        </div><!--/span-->\\n        <div class="span9">\\n\\t  \', escape=False)\nresponse.write(\'\\n\\t    \', escape=False)\nresponse.write(\'\\n\\n \', escape=False)\nresponse.write(response.toolbar())\nresponse.write(\'\\n\\t  \', escape=False)\nresponse.write("\\n          \\n        </div><!--/span-->\\n      </div><!--/row-->\\n\\n      <hr>\\n\\n      <footer>\\n        <p>\\xc2\\xa9 Company 2012</p>\\n      </footer>\\n\\n    </div><!--/.fluid-container-->\\n    \\n    <!-- Le javascript\\n    ================================================== -->\\n    <!-- Placed at the end of the document so the pages load faster \\n    <script>\\n      $(function () {\\n      $(\'.tabs a:last\').tab(\'show\')\\n      })\\n    </script>-->\\n   \\n\\n \\n\\n</body>\\n</html>\\n", escape=False)'
p7
sS'snapshot'
p8
(dp9
S'exception'
p10
(dp11
S'__hash__'
p12
S"<method-wrapper '__hash__' of exceptions.NameError object at 0x0781A738>"
p13
sS'__setattr__'
p14
S"<method-wrapper '__setattr__' of exceptions.NameError object at 0x0781A738>"
p15
sS'__reduce_ex__'
p16
S'<built-in method __reduce_ex__ of exceptions.NameError object at 0x0781A738>'
p17
sS'__getslice__'
p18
S"<method-wrapper '__getslice__' of exceptions.NameError object at 0x0781A738>"
p19
sS'__getitem__'
p20
S"<method-wrapper '__getitem__' of exceptions.NameError object at 0x0781A738>"
p21
sS'__setstate__'
p22
S'<built-in method __setstate__ of exceptions.NameError object at 0x0781A738>'
p23
sS'__reduce__'
p24
S'<built-in method __reduce__ of exceptions.NameError object at 0x0781A738>'
p25
sS'__str__'
p26
S"<method-wrapper '__str__' of exceptions.NameError object at 0x0781A738>"
p27
sS'args'
p28
S'("name \'formulario_busqueda\' is not defined",)'
p29
sS'__getattribute__'
p30
S"<method-wrapper '__getattribute__' of exceptions.NameError object at 0x0781A738>"
p31
sS'__class__'
p32
S"<type 'exceptions.NameError'>"
p33
sS'__delattr__'
p34
S"<method-wrapper '__delattr__' of exceptions.NameError object at 0x0781A738>"
p35
sS'__repr__'
p36
S"<method-wrapper '__repr__' of exceptions.NameError object at 0x0781A738>"
p37
sS'__dict__'
p38
S'{}'
p39
sS'__doc__'
p40
S"'Name not found globally.'"
p41
sS'__init__'
p42
S"<method-wrapper '__init__' of exceptions.NameError object at 0x0781A738>"
p43
sS'__new__'
p44
S'<built-in method __new__ of type object at 0x1E1CD8D8>'
p45
ssS'evalue'
p46
S"name 'formulario_busqueda' is not defined"
p47
sS'request'
p48
ccopy_reg
_reconstructor
p49
(cgluon.html
BEAUTIFY
p50
c__builtin__
object
p51
NtRp52
(dp53
S'attributes'
p54
(dp55
sS'components'
p56
(lp57
g49
(cgluon.html
TABLE
p58
g51
NtRp59
(dp60
g54
(dp61
S'level'
p62
I5
ssS'parent'
p63
Nsg56
(lp64
g49
(cgluon.html
TR
p65
g51
NtRp66
(dp67
g54
(dp68
sg63
g59
sg56
(lp69
g49
(cgluon.html
TD
p70
g51
NtRp71
(dp72
g54
(dp73
S'_style'
p74
S'font-weight:bold;vertical-align:top'
p75
ssg63
g66
sg56
(lp76
S'ajax'
p77
asbag49
(g70
g51
NtRp78
(dp79
g54
(dp80
S'_valign'
p81
S'top'
p82
ssg63
g66
sg56
(lp83
S':'
asbag49
(g70
g51
NtRp84
(dp85
g54
(dp86
sg63
g66
sg56
(lp87
g49
(g50
g51
NtRp88
(dp89
g54
(dp90
g62
I5
ssg63
g84
sg56
(lp91
S'False'
p92
asbasbasbag49
(g65
g51
NtRp93
(dp94
g54
(dp95
sg63
g59
sg56
(lp96
g49
(g70
g51
NtRp97
(dp98
g54
(dp99
g74
g75
ssg63
g93
sg56
(lp100
S'application'
p101
asbag49
(g70
g51
NtRp102
(dp103
g54
(dp104
g81
g82
ssg63
g93
sg56
(lp105
S':'
asbag49
(g70
g51
NtRp106
(dp107
g54
(dp108
sg63
g93
sg56
(lp109
g49
(g50
g51
NtRp110
(dp111
g54
(dp112
g62
I5
ssg63
g106
sg56
(lp113
S'parleyweb'
p114
asbasbasbag49
(g65
g51
NtRp115
(dp116
g54
(dp117
sg63
g59
sg56
(lp118
g49
(g70
g51
NtRp119
(dp120
g54
(dp121
g74
g75
ssg63
g115
sg56
(lp122
g28
asbag49
(g70
g51
NtRp123
(dp124
g54
(dp125
g81
g82
ssg63
g115
sg56
(lp126
S':'
asbag49
(g70
g51
NtRp127
(dp128
g54
(dp129
sg63
g115
sg56
(lp130
g49
(g50
g51
NtRp131
(dp132
g54
(dp133
g62
I5
ssg63
g127
sg56
(lp134
g49
(g58
g51
NtRp135
(dp136
g54
(dp137
g62
I4
ssg63
Nsg56
(lp138
sbasbasbasbag49
(g65
g51
NtRp139
(dp140
g54
(dp141
sg63
g59
sg56
(lp142
g49
(g70
g51
NtRp143
(dp144
g54
(dp145
g74
g75
ssg63
g139
sg56
(lp146
S'body'
p147
asbag49
(g70
g51
NtRp148
(dp149
g54
(dp150
g81
g82
ssg63
g139
sg56
(lp151
S':'
asbag49
(g70
g51
NtRp152
(dp153
g54
(dp154
sg63
g139
sg56
(lp155
g49
(g50
g51
NtRp156
(dp157
g54
(dp158
g62
I5
ssg63
g152
sg56
(lp159
S'<cStringIO.StringO object at 0x07BCF4A0>'
p160
asbasbasbag49
(g65
g51
NtRp161
(dp162
g54
(dp163
sg63
g59
sg56
(lp164
g49
(g70
g51
NtRp165
(dp166
g54
(dp167
g74
g75
ssg63
g161
sg56
(lp168
S'client'
p169
asbag49
(g70
g51
NtRp170
(dp171
g54
(dp172
g81
g82
ssg63
g161
sg56
(lp173
S':'
asbag49
(g70
g51
NtRp174
(dp175
g54
(dp176
sg63
g161
sg56
(lp177
g49
(g50
g51
NtRp178
(dp179
g54
(dp180
g62
I5
ssg63
g174
sg56
(lp181
S'127.0.0.1'
p182
asbasbasbag49
(g65
g51
NtRp183
(dp184
g54
(dp185
sg63
g59
sg56
(lp186
g49
(g70
g51
NtRp187
(dp188
g54
(dp189
g74
g75
ssg63
g183
sg56
(lp190
S'controller'
p191
asbag49
(g70
g51
NtRp192
(dp193
g54
(dp194
g81
g82
ssg63
g183
sg56
(lp195
S':'
asbag49
(g70
g51
NtRp196
(dp197
g54
(dp198
sg63
g183
sg56
(lp199
g49
(g50
g51
NtRp200
(dp201
g54
(dp202
g62
I5
ssg63
g196
sg56
(lp203
S'default'
p204
asbasbasbag49
(g65
g51
NtRp205
(dp206
g54
(dp207
sg63
g59
sg56
(lp208
g49
(g70
g51
NtRp209
(dp210
g54
(dp211
g74
g75
ssg63
g205
sg56
(lp212
S'cookies'
p213
asbag49
(g70
g51
NtRp214
(dp215
g54
(dp216
g81
g82
ssg63
g205
sg56
(lp217
S':'
asbag49
(g70
g51
NtRp218
(dp219
g54
(dp220
sg63
g205
sg56
(lp221
g49
(g50
g51
NtRp222
(dp223
g54
(dp224
g62
I5
ssg63
g218
sg56
(lp225
g49
(g58
g51
NtRp226
(dp227
g54
(dp228
g62
I4
ssg63
Nsg56
(lp229
g49
(g65
g51
NtRp230
(dp231
g54
(dp232
sg63
g226
sg56
(lp233
g49
(g70
g51
NtRp234
(dp235
g54
(dp236
g74
g75
ssg63
g230
sg56
(lp237
S'session_id_admin'
p238
asbag49
(g70
g51
NtRp239
(dp240
g54
(dp241
g81
g82
ssg63
g230
sg56
(lp242
S':'
asbag49
(g70
g51
NtRp243
(dp244
g54
(dp245
sg63
g230
sg56
(lp246
g49
(g50
g51
NtRp247
(dp248
g54
(dp249
g62
I4
ssg63
g243
sg56
(lp250
g49
(g58
g51
NtRp251
(dp252
g54
(dp253
g62
I3
ssg63
Nsg56
(lp254
g49
(g65
g51
NtRp255
(dp256
g54
(dp257
sg63
g251
sg56
(lp258
g49
(g70
g51
NtRp259
(dp260
g54
(dp261
g74
g75
ssg63
g255
sg56
(lp262
S'comment'
p263
asbag49
(g70
g51
NtRp264
(dp265
g54
(dp266
g81
g82
ssg63
g255
sg56
(lp267
S':'
asbag49
(g70
g51
NtRp268
(dp269
g54
(dp270
sg63
g255
sg56
(lp271
g49
(g50
g51
NtRp272
(dp273
g54
(dp274
g62
I3
ssg63
g268
sg56
(lp275
S''
asbasbasbag49
(g65
g51
NtRp276
(dp277
g54
(dp278
sg63
g251
sg56
(lp279
g49
(g70
g51
NtRp280
(dp281
g54
(dp282
g74
g75
ssg63
g276
sg56
(lp283
S'domain'
p284
asbag49
(g70
g51
NtRp285
(dp286
g54
(dp287
g81
g82
ssg63
g276
sg56
(lp288
S':'
asbag49
(g70
g51
NtRp289
(dp290
g54
(dp291
sg63
g276
sg56
(lp292
g49
(g50
g51
NtRp293
(dp294
g54
(dp295
g62
I3
ssg63
g289
sg56
(lp296
S''
asbasbasbag49
(g65
g51
NtRp297
(dp298
g54
(dp299
sg63
g251
sg56
(lp300
g49
(g70
g51
NtRp301
(dp302
g54
(dp303
g74
g75
ssg63
g297
sg56
(lp304
S'expires'
p305
asbag49
(g70
g51
NtRp306
(dp307
g54
(dp308
g81
g82
ssg63
g297
sg56
(lp309
S':'
asbag49
(g70
g51
NtRp310
(dp311
g54
(dp312
sg63
g297
sg56
(lp313
g49
(g50
g51
NtRp314
(dp315
g54
(dp316
g62
I3
ssg63
g310
sg56
(lp317
S''
asbasbasbag49
(g65
g51
NtRp318
(dp319
g54
(dp320
sg63
g251
sg56
(lp321
g49
(g70
g51
NtRp322
(dp323
g54
(dp324
g74
g75
ssg63
g318
sg56
(lp325
S'max-age'
p326
asbag49
(g70
g51
NtRp327
(dp328
g54
(dp329
g81
g82
ssg63
g318
sg56
(lp330
S':'
asbag49
(g70
g51
NtRp331
(dp332
g54
(dp333
sg63
g318
sg56
(lp334
g49
(g50
g51
NtRp335
(dp336
g54
(dp337
g62
I3
ssg63
g331
sg56
(lp338
S''
asbasbasbag49
(g65
g51
NtRp339
(dp340
g54
(dp341
sg63
g251
sg56
(lp342
g49
(g70
g51
NtRp343
(dp344
g54
(dp345
g74
g75
ssg63
g339
sg56
(lp346
S'path'
p347
asbag49
(g70
g51
NtRp348
(dp349
g54
(dp350
g81
g82
ssg63
g339
sg56
(lp351
S':'
asbag49
(g70
g51
NtRp352
(dp353
g54
(dp354
sg63
g339
sg56
(lp355
g49
(g50
g51
NtRp356
(dp357
g54
(dp358
g62
I3
ssg63
g352
sg56
(lp359
S''
asbasbasbag49
(g65
g51
NtRp360
(dp361
g54
(dp362
sg63
g251
sg56
(lp363
g49
(g70
g51
NtRp364
(dp365
g54
(dp366
g74
g75
ssg63
g360
sg56
(lp367
S'secure'
p368
asbag49
(g70
g51
NtRp369
(dp370
g54
(dp371
g81
g82
ssg63
g360
sg56
(lp372
S':'
asbag49
(g70
g51
NtRp373
(dp374
g54
(dp375
sg63
g360
sg56
(lp376
g49
(g50
g51
NtRp377
(dp378
g54
(dp379
g62
I3
ssg63
g373
sg56
(lp380
S''
asbasbasbag49
(g65
g51
NtRp381
(dp382
g54
(dp383
sg63
g251
sg56
(lp384
g49
(g70
g51
NtRp385
(dp386
g54
(dp387
g74
g75
ssg63
g381
sg56
(lp388
S'version'
p389
asbag49
(g70
g51
NtRp390
(dp391
g54
(dp392
g81
g82
ssg63
g381
sg56
(lp393
S':'
asbag49
(g70
g51
NtRp394
(dp395
g54
(dp396
sg63
g381
sg56
(lp397
g49
(g50
g51
NtRp398
(dp399
g54
(dp400
g62
I3
ssg63
g394
sg56
(lp401
S''
asbasbasbasbasbasbasbag49
(g65
g51
NtRp402
(dp403
g54
(dp404
sg63
g226
sg56
(lp405
g49
(g70
g51
NtRp406
(dp407
g54
(dp408
g74
g75
ssg63
g402
sg56
(lp409
S'session_id_parleyweb'
p410
asbag49
(g70
g51
NtRp411
(dp412
g54
(dp413
g81
g82
ssg63
g402
sg56
(lp414
S':'
asbag49
(g70
g51
NtRp415
(dp416
g54
(dp417
sg63
g402
sg56
(lp418
g49
(g50
g51
NtRp419
(dp420
g54
(dp421
g62
I4
ssg63
g415
sg56
(lp422
g49
(g58
g51
NtRp423
(dp424
g54
(dp425
g62
I3
ssg63
Nsg56
(lp426
g49
(g65
g51
NtRp427
(dp428
g54
(dp429
sg63
g423
sg56
(lp430
g49
(g70
g51
NtRp431
(dp432
g54
(dp433
g74
g75
ssg63
g427
sg56
(lp434
g263
asbag49
(g70
g51
NtRp435
(dp436
g54
(dp437
g81
g82
ssg63
g427
sg56
(lp438
S':'
asbag49
(g70
g51
NtRp439
(dp440
g54
(dp441
sg63
g427
sg56
(lp442
g49
(g50
g51
NtRp443
(dp444
g54
(dp445
g62
I3
ssg63
g439
sg56
(lp446
S''
asbasbasbag49
(g65
g51
NtRp447
(dp448
g54
(dp449
sg63
g423
sg56
(lp450
g49
(g70
g51
NtRp451
(dp452
g54
(dp453
g74
g75
ssg63
g447
sg56
(lp454
g284
asbag49
(g70
g51
NtRp455
(dp456
g54
(dp457
g81
g82
ssg63
g447
sg56
(lp458
S':'
asbag49
(g70
g51
NtRp459
(dp460
g54
(dp461
sg63
g447
sg56
(lp462
g49
(g50
g51
NtRp463
(dp464
g54
(dp465
g62
I3
ssg63
g459
sg56
(lp466
S''
asbasbasbag49
(g65
g51
NtRp467
(dp468
g54
(dp469
sg63
g423
sg56
(lp470
g49
(g70
g51
NtRp471
(dp472
g54
(dp473
g74
g75
ssg63
g467
sg56
(lp474
g305
asbag49
(g70
g51
NtRp475
(dp476
g54
(dp477
g81
g82
ssg63
g467
sg56
(lp478
S':'
asbag49
(g70
g51
NtRp479
(dp480
g54
(dp481
sg63
g467
sg56
(lp482
g49
(g50
g51
NtRp483
(dp484
g54
(dp485
g62
I3
ssg63
g479
sg56
(lp486
S''
asbasbasbag49
(g65
g51
NtRp487
(dp488
g54
(dp489
sg63
g423
sg56
(lp490
g49
(g70
g51
NtRp491
(dp492
g54
(dp493
g74
g75
ssg63
g487
sg56
(lp494
g326
asbag49
(g70
g51
NtRp495
(dp496
g54
(dp497
g81
g82
ssg63
g487
sg56
(lp498
S':'
asbag49
(g70
g51
NtRp499
(dp500
g54
(dp501
sg63
g487
sg56
(lp502
g49
(g50
g51
NtRp503
(dp504
g54
(dp505
g62
I3
ssg63
g499
sg56
(lp506
S''
asbasbasbag49
(g65
g51
NtRp507
(dp508
g54
(dp509
sg63
g423
sg56
(lp510
g49
(g70
g51
NtRp511
(dp512
g54
(dp513
g74
g75
ssg63
g507
sg56
(lp514
g347
asbag49
(g70
g51
NtRp515
(dp516
g54
(dp517
g81
g82
ssg63
g507
sg56
(lp518
S':'
asbag49
(g70
g51
NtRp519
(dp520
g54
(dp521
sg63
g507
sg56
(lp522
g49
(g50
g51
NtRp523
(dp524
g54
(dp525
g62
I3
ssg63
g519
sg56
(lp526
S''
asbasbasbag49
(g65
g51
NtRp527
(dp528
g54
(dp529
sg63
g423
sg56
(lp530
g49
(g70
g51
NtRp531
(dp532
g54
(dp533
g74
g75
ssg63
g527
sg56
(lp534
g368
asbag49
(g70
g51
NtRp535
(dp536
g54
(dp537
g81
g82
ssg63
g527
sg56
(lp538
S':'
asbag49
(g70
g51
NtRp539
(dp540
g54
(dp541
sg63
g527
sg56
(lp542
g49
(g50
g51
NtRp543
(dp544
g54
(dp545
g62
I3
ssg63
g539
sg56
(lp546
S''
asbasbasbag49
(g65
g51
NtRp547
(dp548
g54
(dp549
sg63
g423
sg56
(lp550
g49
(g70
g51
NtRp551
(dp552
g54
(dp553
g74
g75
ssg63
g547
sg56
(lp554
g389
asbag49
(g70
g51
NtRp555
(dp556
g54
(dp557
g81
g82
ssg63
g547
sg56
(lp558
S':'
asbag49
(g70
g51
NtRp559
(dp560
g54
(dp561
sg63
g547
sg56
(lp562
g49
(g50
g51
NtRp563
(dp564
g54
(dp565
g62
I3
ssg63
g559
sg56
(lp566
S''
asbasbasbasbasbasbasbag49
(g65
g51
NtRp567
(dp568
g54
(dp569
sg63
g226
sg56
(lp570
g49
(g70
g51
NtRp571
(dp572
g54
(dp573
g74
g75
ssg63
g567
sg56
(lp574
S'session_id_welcome'
p575
asbag49
(g70
g51
NtRp576
(dp577
g54
(dp578
g81
g82
ssg63
g567
sg56
(lp579
S':'
asbag49
(g70
g51
NtRp580
(dp581
g54
(dp582
sg63
g567
sg56
(lp583
g49
(g50
g51
NtRp584
(dp585
g54
(dp586
g62
I4
ssg63
g580
sg56
(lp587
g49
(g58
g51
NtRp588
(dp589
g54
(dp590
g62
I3
ssg63
Nsg56
(lp591
g49
(g65
g51
NtRp592
(dp593
g54
(dp594
sg63
g588
sg56
(lp595
g49
(g70
g51
NtRp596
(dp597
g54
(dp598
g74
g75
ssg63
g592
sg56
(lp599
g263
asbag49
(g70
g51
NtRp600
(dp601
g54
(dp602
g81
g82
ssg63
g592
sg56
(lp603
S':'
asbag49
(g70
g51
NtRp604
(dp605
g54
(dp606
sg63
g592
sg56
(lp607
g49
(g50
g51
NtRp608
(dp609
g54
(dp610
g62
I3
ssg63
g604
sg56
(lp611
S''
asbasbasbag49
(g65
g51
NtRp612
(dp613
g54
(dp614
sg63
g588
sg56
(lp615
g49
(g70
g51
NtRp616
(dp617
g54
(dp618
g74
g75
ssg63
g612
sg56
(lp619
g284
asbag49
(g70
g51
NtRp620
(dp621
g54
(dp622
g81
g82
ssg63
g612
sg56
(lp623
S':'
asbag49
(g70
g51
NtRp624
(dp625
g54
(dp626
sg63
g612
sg56
(lp627
g49
(g50
g51
NtRp628
(dp629
g54
(dp630
g62
I3
ssg63
g624
sg56
(lp631
S''
asbasbasbag49
(g65
g51
NtRp632
(dp633
g54
(dp634
sg63
g588
sg56
(lp635
g49
(g70
g51
NtRp636
(dp637
g54
(dp638
g74
g75
ssg63
g632
sg56
(lp639
g305
asbag49
(g70
g51
NtRp640
(dp641
g54
(dp642
g81
g82
ssg63
g632
sg56
(lp643
S':'
asbag49
(g70
g51
NtRp644
(dp645
g54
(dp646
sg63
g632
sg56
(lp647
g49
(g50
g51
NtRp648
(dp649
g54
(dp650
g62
I3
ssg63
g644
sg56
(lp651
S''
asbasbasbag49
(g65
g51
NtRp652
(dp653
g54
(dp654
sg63
g588
sg56
(lp655
g49
(g70
g51
NtRp656
(dp657
g54
(dp658
g74
g75
ssg63
g652
sg56
(lp659
g326
asbag49
(g70
g51
NtRp660
(dp661
g54
(dp662
g81
g82
ssg63
g652
sg56
(lp663
S':'
asbag49
(g70
g51
NtRp664
(dp665
g54
(dp666
sg63
g652
sg56
(lp667
g49
(g50
g51
NtRp668
(dp669
g54
(dp670
g62
I3
ssg63
g664
sg56
(lp671
S''
asbasbasbag49
(g65
g51
NtRp672
(dp673
g54
(dp674
sg63
g588
sg56
(lp675
g49
(g70
g51
NtRp676
(dp677
g54
(dp678
g74
g75
ssg63
g672
sg56
(lp679
g347
asbag49
(g70
g51
NtRp680
(dp681
g54
(dp682
g81
g82
ssg63
g672
sg56
(lp683
S':'
asbag49
(g70
g51
NtRp684
(dp685
g54
(dp686
sg63
g672
sg56
(lp687
g49
(g50
g51
NtRp688
(dp689
g54
(dp690
g62
I3
ssg63
g684
sg56
(lp691
S''
asbasbasbag49
(g65
g51
NtRp692
(dp693
g54
(dp694
sg63
g588
sg56
(lp695
g49
(g70
g51
NtRp696
(dp697
g54
(dp698
g74
g75
ssg63
g692
sg56
(lp699
g368
asbag49
(g70
g51
NtRp700
(dp701
g54
(dp702
g81
g82
ssg63
g692
sg56
(lp703
S':'
asbag49
(g70
g51
NtRp704
(dp705
g54
(dp706
sg63
g692
sg56
(lp707
g49
(g50
g51
NtRp708
(dp709
g54
(dp710
g62
I3
ssg63
g704
sg56
(lp711
S''
asbasbasbag49
(g65
g51
NtRp712
(dp713
g54
(dp714
sg63
g588
sg56
(lp715
g49
(g70
g51
NtRp716
(dp717
g54
(dp718
g74
g75
ssg63
g712
sg56
(lp719
g389
asbag49
(g70
g51
NtRp720
(dp721
g54
(dp722
g81
g82
ssg63
g712
sg56
(lp723
S':'
asbag49
(g70
g51
NtRp724
(dp725
g54
(dp726
sg63
g712
sg56
(lp727
g49
(g50
g51
NtRp728
(dp729
g54
(dp730
g62
I3
ssg63
g724
sg56
(lp731
S''
asbasbasbasbasbasbasbasbasbasbasbag49
(g65
g51
NtRp732
(dp733
g54
(dp734
sg63
g59
sg56
(lp735
g49
(g70
g51
NtRp736
(dp737
g54
(dp738
g74
g75
ssg63
g732
sg56
(lp739
S'env'
p740
asbag49
(g70
g51
NtRp741
(dp742
g54
(dp743
g81
g82
ssg63
g732
sg56
(lp744
S':'
asbag49
(g70
g51
NtRp745
(dp746
g54
(dp747
sg63
g732
sg56
(lp748
g49
(g50
g51
NtRp749
(dp750
g54
(dp751
g62
I5
ssg63
g745
sg56
(lp752
g49
(g58
g51
NtRp753
(dp754
g54
(dp755
g62
I4
ssg63
Nsg56
(lp756
g49
(g65
g51
NtRp757
(dp758
g54
(dp759
sg63
g753
sg56
(lp760
g49
(g70
g51
NtRp761
(dp762
g54
(dp763
g74
g75
ssg63
g757
sg56
(lp764
S'app_folders'
p765
asbag49
(g70
g51
NtRp766
(dp767
g54
(dp768
g81
g82
ssg63
g757
sg56
(lp769
S':'
asbag49
(g70
g51
NtRp770
(dp771
g54
(dp772
sg63
g757
sg56
(lp773
g49
(g50
g51
NtRp774
(dp775
g54
(dp776
g62
I4
ssg63
g770
sg56
(lp777
S"set(['D:\\\\Dise\\xf1o Web\\\\Proyectos\\\\Parleyweb\\\\web2py\\\\applications\\\\parleyweb\\\\', 'D:\\\\Dise\\xf1o Web\\\\Proyectos\\\\Parleyweb\\\\web2py\\\\applications\\\\welcome\\\\', 'D:\\\\Dise\\xf1o Web\\\\Proyectos\\\\Parleyweb\\\\web2py\\\\applications\\\\admin\\\\'])"
p778
asbasbasbag49
(g65
g51
NtRp779
(dp780
g54
(dp781
sg63
g753
sg56
(lp782
g49
(g70
g51
NtRp783
(dp784
g54
(dp785
g74
g75
ssg63
g779
sg56
(lp786
S'applications_parent'
p787
asbag49
(g70
g51
NtRp788
(dp789
g54
(dp790
g81
g82
ssg63
g779
sg56
(lp791
S':'
asbag49
(g70
g51
NtRp792
(dp793
g54
(dp794
sg63
g779
sg56
(lp795
g49
(g50
g51
NtRp796
(dp797
g54
(dp798
g62
I4
ssg63
g792
sg56
(lp799
S'D:\\Dise\xf1o Web\\Proyectos\\Parleyweb\\web2py'
p800
asbasbasbag49
(g65
g51
NtRp801
(dp802
g54
(dp803
sg63
g753
sg56
(lp804
g49
(g70
g51
NtRp805
(dp806
g54
(dp807
g74
g75
ssg63
g801
sg56
(lp808
S'cmd_args'
p809
asbag49
(g70
g51
NtRp810
(dp811
g54
(dp812
g81
g82
ssg63
g801
sg56
(lp813
S':'
asbag49
(g70
g51
NtRp814
(dp815
g54
(dp816
sg63
g801
sg56
(lp817
g49
(g50
g51
NtRp818
(dp819
g54
(dp820
g62
I4
ssg63
g814
sg56
(lp821
g49
(g58
g51
NtRp822
(dp823
g54
(dp824
g62
I3
ssg63
Nsg56
(lp825
sbasbasbasbag49
(g65
g51
NtRp826
(dp827
g54
(dp828
sg63
g753
sg56
(lp829
g49
(g70
g51
NtRp830
(dp831
g54
(dp832
g74
g75
ssg63
g826
sg56
(lp833
S'cmd_options'
p834
asbag49
(g70
g51
NtRp835
(dp836
g54
(dp837
g81
g82
ssg63
g826
sg56
(lp838
S':'
asbag49
(g70
g51
NtRp839
(dp840
g54
(dp841
sg63
g826
sg56
(lp842
g49
(g50
g51
NtRp843
(dp844
g54
(dp845
g62
I4
ssg63
g839
sg56
(lp846
S"<Values at 0x3110f30: {'verbose': False, 'ip': '127.0.0.1', 'shutdown_timeout': 5, 'taskbar': False, 'nocron': False, 'pid_filename': 'httpserver.pid', 'maxthreads': None, 'softcron': False, 'server_name': 'craxsnet-PC', 'bpython': False, 'nogui': False, 'port': 8000, 'extcron': False, 'debuglevel': 30, 'test': None, 'folder': 'D:\\\\Dise\\xf1o Web\\\\Proyectos\\\\Parleyweb\\\\web2py', 'config': '', 'import_models': False, 'winservice': '', 'shell': None, 'run': '', 'log_filename': 'httpserver.log', 'args': [''], 'socket_timeout': 5, 'ssl_ca_certificate': None, 'scheduler': None, 'profiler_filename': None, 'ssl_private_key': '', 'password': '<ask>', 'request_queue_size': 5, 'ssl_certificate': '', 'cronjob': False, 'numthreads': None, 'quiet': False, 'interfaces': None, 'minthreads': None, 'timeout': 10, 'plain': False, 'nobanner': False}>"
p847
asbasbasbag49
(g65
g51
NtRp848
(dp849
g54
(dp850
sg63
g753
sg56
(lp851
g49
(g70
g51
NtRp852
(dp853
g54
(dp854
g74
g75
ssg63
g848
sg56
(lp855
S'db_sessions'
p856
asbag49
(g70
g51
NtRp857
(dp858
g54
(dp859
g81
g82
ssg63
g848
sg56
(lp860
S':'
asbag49
(g70
g51
NtRp861
(dp862
g54
(dp863
sg63
g848
sg56
(lp864
g49
(g50
g51
NtRp865
(dp866
g54
(dp867
g62
I4
ssg63
g861
sg56
(lp868
S'set([])'
p869
asbasbasbag49
(g65
g51
NtRp870
(dp871
g54
(dp872
sg63
g753
sg56
(lp873
g49
(g70
g51
NtRp874
(dp875
g54
(dp876
g74
g75
ssg63
g870
sg56
(lp877
S'debugging'
p878
asbag49
(g70
g51
NtRp879
(dp880
g54
(dp881
g81
g82
ssg63
g870
sg56
(lp882
S':'
asbag49
(g70
g51
NtRp883
(dp884
g54
(dp885
sg63
g870
sg56
(lp886
g49
(g50
g51
NtRp887
(dp888
g54
(dp889
g62
I4
ssg63
g883
sg56
(lp890
g92
asbasbasbag49
(g65
g51
NtRp891
(dp892
g54
(dp893
sg63
g753
sg56
(lp894
g49
(g70
g51
NtRp895
(dp896
g54
(dp897
g74
g75
ssg63
g891
sg56
(lp898
S'gluon_parent'
p899
asbag49
(g70
g51
NtRp900
(dp901
g54
(dp902
g81
g82
ssg63
g891
sg56
(lp903
S':'
asbag49
(g70
g51
NtRp904
(dp905
g54
(dp906
sg63
g891
sg56
(lp907
g49
(g50
g51
NtRp908
(dp909
g54
(dp910
g62
I4
ssg63
g904
sg56
(lp911
S'D:\\Dise\xf1o Web\\Proyectos\\Parleyweb\\web2py'
p912
asbasbasbag49
(g65
g51
NtRp913
(dp914
g54
(dp915
sg63
g753
sg56
(lp916
g49
(g70
g51
NtRp917
(dp918
g54
(dp919
g74
g75
ssg63
g913
sg56
(lp920
S'http_accept'
p921
asbag49
(g70
g51
NtRp922
(dp923
g54
(dp924
g81
g82
ssg63
g913
sg56
(lp925
S':'
asbag49
(g70
g51
NtRp926
(dp927
g54
(dp928
sg63
g913
sg56
(lp929
g49
(g50
g51
NtRp930
(dp931
g54
(dp932
g62
I4
ssg63
g926
sg56
(lp933
S'text/html,application/xhtml+xml,application/xml;q=0.9,*/*;q=0.8'
p934
asbasbasbag49
(g65
g51
NtRp935
(dp936
g54
(dp937
sg63
g753
sg56
(lp938
g49
(g70
g51
NtRp939
(dp940
g54
(dp941
g74
g75
ssg63
g935
sg56
(lp942
S'http_accept_encoding'
p943
asbag49
(g70
g51
NtRp944
(dp945
g54
(dp946
g81
g82
ssg63
g935
sg56
(lp947
S':'
asbag49
(g70
g51
NtRp948
(dp949
g54
(dp950
sg63
g935
sg56
(lp951
g49
(g50
g51
NtRp952
(dp953
g54
(dp954
g62
I4
ssg63
g948
sg56
(lp955
S'gzip, deflate'
p956
asbasbasbag49
(g65
g51
NtRp957
(dp958
g54
(dp959
sg63
g753
sg56
(lp960
g49
(g70
g51
NtRp961
(dp962
g54
(dp963
g74
g75
ssg63
g957
sg56
(lp964
S'http_accept_language'
p965
asbag49
(g70
g51
NtRp966
(dp967
g54
(dp968
g81
g82
ssg63
g957
sg56
(lp969
S':'
asbag49
(g70
g51
NtRp970
(dp971
g54
(dp972
sg63
g957
sg56
(lp973
g49
(g50
g51
NtRp974
(dp975
g54
(dp976
g62
I4
ssg63
g970
sg56
(lp977
S'es-es,de-de;q=0.8,es;q=0.6,en-us;q=0.4,en;q=0.2'
p978
asbasbasbag49
(g65
g51
NtRp979
(dp980
g54
(dp981
sg63
g753
sg56
(lp982
g49
(g70
g51
NtRp983
(dp984
g54
(dp985
g74
g75
ssg63
g979
sg56
(lp986
S'http_cache_control'
p987
asbag49
(g70
g51
NtRp988
(dp989
g54
(dp990
g81
g82
ssg63
g979
sg56
(lp991
S':'
asbag49
(g70
g51
NtRp992
(dp993
g54
(dp994
sg63
g979
sg56
(lp995
g49
(g50
g51
NtRp996
(dp997
g54
(dp998
g62
I4
ssg63
g992
sg56
(lp999
S'max-age=0'
p1000
asbasbasbag49
(g65
g51
NtRp1001
(dp1002
g54
(dp1003
sg63
g753
sg56
(lp1004
g49
(g70
g51
NtRp1005
(dp1006
g54
(dp1007
g74
g75
ssg63
g1001
sg56
(lp1008
S'http_connection'
p1009
asbag49
(g70
g51
NtRp1010
(dp1011
g54
(dp1012
g81
g82
ssg63
g1001
sg56
(lp1013
S':'
asbag49
(g70
g51
NtRp1014
(dp1015
g54
(dp1016
sg63
g1001
sg56
(lp1017
g49
(g50
g51
NtRp1018
(dp1019
g54
(dp1020
g62
I4
ssg63
g1014
sg56
(lp1021
S'keep-alive'
p1022
asbasbasbag49
(g65
g51
NtRp1023
(dp1024
g54
(dp1025
sg63
g753
sg56
(lp1026
g49
(g70
g51
NtRp1027
(dp1028
g54
(dp1029
g74
g75
ssg63
g1023
sg56
(lp1030
S'http_cookie'
p1031
asbag49
(g70
g51
NtRp1032
(dp1033
g54
(dp1034
g81
g82
ssg63
g1023
sg56
(lp1035
S':'
asbag49
(g70
g51
NtRp1036
(dp1037
g54
(dp1038
sg63
g1023
sg56
(lp1039
g49
(g50
g51
NtRp1040
(dp1041
g54
(dp1042
g62
I4
ssg63
g1036
sg56
(lp1043
S'__utma=96992031.26429765.1325029743.1325029743.1326549329.2; __utmz=96992031.1325029743.1.1.utmcsr=(direct)|utmccn=(direct)|utmcmd=(none); session_id_welcome=127.0.0.1-644b7da8-0d4f-4bbf-b94b-66f6992adfc8; session_id_parleyweb=127.0.0.1-0780c0c1-affd-425a-affb-ac061c4961c7; session_id_admin=127.0.0.1-532b2264-f480-4135-a7d5-01c72ef908a1'
p1044
asbasbasbag49
(g65
g51
NtRp1045
(dp1046
g54
(dp1047
sg63
g753
sg56
(lp1048
g49
(g70
g51
NtRp1049
(dp1050
g54
(dp1051
g74
g75
ssg63
g1045
sg56
(lp1052
S'http_host'
p1053
asbag49
(g70
g51
NtRp1054
(dp1055
g54
(dp1056
g81
g82
ssg63
g1045
sg56
(lp1057
S':'
asbag49
(g70
g51
NtRp1058
(dp1059
g54
(dp1060
sg63
g1045
sg56
(lp1061
g49
(g50
g51
NtRp1062
(dp1063
g54
(dp1064
g62
I4
ssg63
g1058
sg56
(lp1065
S'127.0.0.1:8000'
p1066
asbasbasbag49
(g65
g51
NtRp1067
(dp1068
g54
(dp1069
sg63
g753
sg56
(lp1070
g49
(g70
g51
NtRp1071
(dp1072
g54
(dp1073
g74
g75
ssg63
g1067
sg56
(lp1074
S'http_referer'
p1075
asbag49
(g70
g51
NtRp1076
(dp1077
g54
(dp1078
g81
g82
ssg63
g1067
sg56
(lp1079
S':'
asbag49
(g70
g51
NtRp1080
(dp1081
g54
(dp1082
sg63
g1067
sg56
(lp1083
g49
(g50
g51
NtRp1084
(dp1085
g54
(dp1086
g62
I4
ssg63
g1080
sg56
(lp1087
S'http://127.0.0.1:8000/parleyweb/admin/index'
p1088
asbasbasbag49
(g65
g51
NtRp1089
(dp1090
g54
(dp1091
sg63
g753
sg56
(lp1092
g49
(g70
g51
NtRp1093
(dp1094
g54
(dp1095
g74
g75
ssg63
g1089
sg56
(lp1096
S'http_user_agent'
p1097
asbag49
(g70
g51
NtRp1098
(dp1099
g54
(dp1100
g81
g82
ssg63
g1089
sg56
(lp1101
S':'
asbag49
(g70
g51
NtRp1102
(dp1103
g54
(dp1104
sg63
g1089
sg56
(lp1105
g49
(g50
g51
NtRp1106
(dp1107
g54
(dp1108
g62
I4
ssg63
g1102
sg56
(lp1109
S'Mozilla/5.0 (Windows NT 6.1; WOW64; rv:11.0) Gecko/20100101 Firefox/11.0'
p1110
asbasbasbag49
(g65
g51
NtRp1111
(dp1112
g54
(dp1113
sg63
g753
sg56
(lp1114
g49
(g70
g51
NtRp1115
(dp1116
g54
(dp1117
g74
g75
ssg63
g1111
sg56
(lp1118
S'is_jython'
p1119
asbag49
(g70
g51
NtRp1120
(dp1121
g54
(dp1122
g81
g82
ssg63
g1111
sg56
(lp1123
S':'
asbag49
(g70
g51
NtRp1124
(dp1125
g54
(dp1126
sg63
g1111
sg56
(lp1127
g49
(g50
g51
NtRp1128
(dp1129
g54
(dp1130
g62
I4
ssg63
g1124
sg56
(lp1131
g92
asbasbasbag49
(g65
g51
NtRp1132
(dp1133
g54
(dp1134
sg63
g753
sg56
(lp1135
g49
(g70
g51
NtRp1136
(dp1137
g54
(dp1138
g74
g75
ssg63
g1132
sg56
(lp1139
S'is_pypy'
p1140
asbag49
(g70
g51
NtRp1141
(dp1142
g54
(dp1143
g81
g82
ssg63
g1132
sg56
(lp1144
S':'
asbag49
(g70
g51
NtRp1145
(dp1146
g54
(dp1147
sg63
g1132
sg56
(lp1148
g49
(g50
g51
NtRp1149
(dp1150
g54
(dp1151
g62
I4
ssg63
g1145
sg56
(lp1152
g92
asbasbasbag49
(g65
g51
NtRp1153
(dp1154
g54
(dp1155
sg63
g753
sg56
(lp1156
g49
(g70
g51
NtRp1157
(dp1158
g54
(dp1159
g74
g75
ssg63
g1153
sg56
(lp1160
S'path_info'
p1161
asbag49
(g70
g51
NtRp1162
(dp1163
g54
(dp1164
g81
g82
ssg63
g1153
sg56
(lp1165
S':'
asbag49
(g70
g51
NtRp1166
(dp1167
g54
(dp1168
sg63
g1153
sg56
(lp1169
g49
(g50
g51
NtRp1170
(dp1171
g54
(dp1172
g62
I4
ssg63
g1166
sg56
(lp1173
S'/parleyweb/default/index'
p1174
asbasbasbag49
(g65
g51
NtRp1175
(dp1176
g54
(dp1177
sg63
g753
sg56
(lp1178
g49
(g70
g51
NtRp1179
(dp1180
g54
(dp1181
g74
g75
ssg63
g1175
sg56
(lp1182
S'query_string'
p1183
asbag49
(g70
g51
NtRp1184
(dp1185
g54
(dp1186
g81
g82
ssg63
g1175
sg56
(lp1187
S':'
asbag49
(g70
g51
NtRp1188
(dp1189
g54
(dp1190
sg63
g1175
sg56
(lp1191
g49
(g50
g51
NtRp1192
(dp1193
g54
(dp1194
g62
I4
ssg63
g1188
sg56
(lp1195
S''
asbasbasbag49
(g65
g51
NtRp1196
(dp1197
g54
(dp1198
sg63
g753
sg56
(lp1199
g49
(g70
g51
NtRp1200
(dp1201
g54
(dp1202
g74
g75
ssg63
g1196
sg56
(lp1203
S'remote_addr'
p1204
asbag49
(g70
g51
NtRp1205
(dp1206
g54
(dp1207
g81
g82
ssg63
g1196
sg56
(lp1208
S':'
asbag49
(g70
g51
NtRp1209
(dp1210
g54
(dp1211
sg63
g1196
sg56
(lp1212
g49
(g50
g51
NtRp1213
(dp1214
g54
(dp1215
g62
I4
ssg63
g1209
sg56
(lp1216
g182
asbasbasbag49
(g65
g51
NtRp1217
(dp1218
g54
(dp1219
sg63
g753
sg56
(lp1220
g49
(g70
g51
NtRp1221
(dp1222
g54
(dp1223
g74
g75
ssg63
g1217
sg56
(lp1224
S'remote_port'
p1225
asbag49
(g70
g51
NtRp1226
(dp1227
g54
(dp1228
g81
g82
ssg63
g1217
sg56
(lp1229
S':'
asbag49
(g70
g51
NtRp1230
(dp1231
g54
(dp1232
sg63
g1217
sg56
(lp1233
g49
(g50
g51
NtRp1234
(dp1235
g54
(dp1236
g62
I4
ssg63
g1230
sg56
(lp1237
S'51292'
p1238
asbasbasbag49
(g65
g51
NtRp1239
(dp1240
g54
(dp1241
sg63
g753
sg56
(lp1242
g49
(g70
g51
NtRp1243
(dp1244
g54
(dp1245
g74
g75
ssg63
g1239
sg56
(lp1246
S'request_method'
p1247
asbag49
(g70
g51
NtRp1248
(dp1249
g54
(dp1250
g81
g82
ssg63
g1239
sg56
(lp1251
S':'
asbag49
(g70
g51
NtRp1252
(dp1253
g54
(dp1254
sg63
g1239
sg56
(lp1255
g49
(g50
g51
NtRp1256
(dp1257
g54
(dp1258
g62
I4
ssg63
g1252
sg56
(lp1259
S'GET'
p1260
asbasbasbag49
(g65
g51
NtRp1261
(dp1262
g54
(dp1263
sg63
g753
sg56
(lp1264
g49
(g70
g51
NtRp1265
(dp1266
g54
(dp1267
g74
g75
ssg63
g1261
sg56
(lp1268
S'script_name'
p1269
asbag49
(g70
g51
NtRp1270
(dp1271
g54
(dp1272
g81
g82
ssg63
g1261
sg56
(lp1273
S':'
asbag49
(g70
g51
NtRp1274
(dp1275
g54
(dp1276
sg63
g1261
sg56
(lp1277
g49
(g50
g51
NtRp1278
(dp1279
g54
(dp1280
g62
I4
ssg63
g1274
sg56
(lp1281
S''
asbasbasbag49
(g65
g51
NtRp1282
(dp1283
g54
(dp1284
sg63
g753
sg56
(lp1285
g49
(g70
g51
NtRp1286
(dp1287
g54
(dp1288
g74
g75
ssg63
g1282
sg56
(lp1289
S'server_name'
p1290
asbag49
(g70
g51
NtRp1291
(dp1292
g54
(dp1293
g81
g82
ssg63
g1282
sg56
(lp1294
S':'
asbag49
(g70
g51
NtRp1295
(dp1296
g54
(dp1297
sg63
g1282
sg56
(lp1298
g49
(g50
g51
NtRp1299
(dp1300
g54
(dp1301
g62
I4
ssg63
g1295
sg56
(lp1302
S'craxsnet-PC'
p1303
asbasbasbag49
(g65
g51
NtRp1304
(dp1305
g54
(dp1306
sg63
g753
sg56
(lp1307
g49
(g70
g51
NtRp1308
(dp1309
g54
(dp1310
g74
g75
ssg63
g1304
sg56
(lp1311
S'server_port'
p1312
asbag49
(g70
g51
NtRp1313
(dp1314
g54
(dp1315
g81
g82
ssg63
g1304
sg56
(lp1316
S':'
asbag49
(g70
g51
NtRp1317
(dp1318
g54
(dp1319
sg63
g1304
sg56
(lp1320
g49
(g50
g51
NtRp1321
(dp1322
g54
(dp1323
g62
I4
ssg63
g1317
sg56
(lp1324
S'8000'
p1325
asbasbasbag49
(g65
g51
NtRp1326
(dp1327
g54
(dp1328
sg63
g753
sg56
(lp1329
g49
(g70
g51
NtRp1330
(dp1331
g54
(dp1332
g74
g75
ssg63
g1326
sg56
(lp1333
S'server_protocol'
p1334
asbag49
(g70
g51
NtRp1335
(dp1336
g54
(dp1337
g81
g82
ssg63
g1326
sg56
(lp1338
S':'
asbag49
(g70
g51
NtRp1339
(dp1340
g54
(dp1341
sg63
g1326
sg56
(lp1342
g49
(g50
g51
NtRp1343
(dp1344
g54
(dp1345
g62
I4
ssg63
g1339
sg56
(lp1346
S'HTTP/1.1'
p1347
asbasbasbag49
(g65
g51
NtRp1348
(dp1349
g54
(dp1350
sg63
g753
sg56
(lp1351
g49
(g70
g51
NtRp1352
(dp1353
g54
(dp1354
g74
g75
ssg63
g1348
sg56
(lp1355
S'server_software'
p1356
asbag49
(g70
g51
NtRp1357
(dp1358
g54
(dp1359
g81
g82
ssg63
g1348
sg56
(lp1360
S':'
asbag49
(g70
g51
NtRp1361
(dp1362
g54
(dp1363
sg63
g1348
sg56
(lp1364
g49
(g50
g51
NtRp1365
(dp1366
g54
(dp1367
g62
I4
ssg63
g1361
sg56
(lp1368
S'Rocket 1.2.4'
p1369
asbasbasbag49
(g65
g51
NtRp1370
(dp1371
g54
(dp1372
sg63
g753
sg56
(lp1373
g49
(g70
g51
NtRp1374
(dp1375
g54
(dp1376
g74
g75
ssg63
g1370
sg56
(lp1377
S'web2py_crontype'
p1378
asbag49
(g70
g51
NtRp1379
(dp1380
g54
(dp1381
g81
g82
ssg63
g1370
sg56
(lp1382
S':'
asbag49
(g70
g51
NtRp1383
(dp1384
g54
(dp1385
sg63
g1370
sg56
(lp1386
g49
(g50
g51
NtRp1387
(dp1388
g54
(dp1389
g62
I4
ssg63
g1383
sg56
(lp1390
S'hard'
p1391
asbasbasbag49
(g65
g51
NtRp1392
(dp1393
g54
(dp1394
sg63
g753
sg56
(lp1395
g49
(g70
g51
NtRp1396
(dp1397
g54
(dp1398
g74
g75
ssg63
g1392
sg56
(lp1399
S'web2py_path'
p1400
asbag49
(g70
g51
NtRp1401
(dp1402
g54
(dp1403
g81
g82
ssg63
g1392
sg56
(lp1404
S':'
asbag49
(g70
g51
NtRp1405
(dp1406
g54
(dp1407
sg63
g1392
sg56
(lp1408
g49
(g50
g51
NtRp1409
(dp1410
g54
(dp1411
g62
I4
ssg63
g1405
sg56
(lp1412
g800
asbasbasbag49
(g65
g51
NtRp1413
(dp1414
g54
(dp1415
sg63
g753
sg56
(lp1416
g49
(g70
g51
NtRp1417
(dp1418
g54
(dp1419
g74
g75
ssg63
g1413
sg56
(lp1420
S'web2py_version'
p1421
asbag49
(g70
g51
NtRp1422
(dp1423
g54
(dp1424
g81
g82
ssg63
g1413
sg56
(lp1425
S':'
asbag49
(g70
g51
NtRp1426
(dp1427
g54
(dp1428
sg63
g1413
sg56
(lp1429
g49
(g50
g51
NtRp1430
(dp1431
g54
(dp1432
g62
I4
ssg63
g1426
sg56
(lp1433
g49
(g58
g51
NtRp1434
(dp1435
g54
(dp1436
g62
I3
ssg63
Nsg56
(lp1437
g49
(g65
g51
NtRp1438
(dp1439
g54
(dp1440
sg63
g1434
sg56
(lp1441
g49
(g70
g51
NtRp1442
(dp1443
g54
(dp1444
sg63
g1438
sg56
(lp1445
g49
(g50
g51
NtRp1446
(dp1447
g54
(dp1448
g62
I3
ssg63
g1442
sg56
(lp1449
S'1'
asbasbasbag49
(g65
g51
NtRp1450
(dp1451
g54
(dp1452
sg63
g1434
sg56
(lp1453
g49
(g70
g51
NtRp1454
(dp1455
g54
(dp1456
sg63
g1450
sg56
(lp1457
g49
(g50
g51
NtRp1458
(dp1459
g54
(dp1460
g62
I3
ssg63
g1454
sg56
(lp1461
S'99'
p1462
asbasbasbag49
(g65
g51
NtRp1463
(dp1464
g54
(dp1465
sg63
g1434
sg56
(lp1466
g49
(g70
g51
NtRp1467
(dp1468
g54
(dp1469
sg63
g1463
sg56
(lp1470
g49
(g50
g51
NtRp1471
(dp1472
g54
(dp1473
g62
I3
ssg63
g1467
sg56
(lp1474
S'7'
asbasbasbag49
(g65
g51
NtRp1475
(dp1476
g54
(dp1477
sg63
g1434
sg56
(lp1478
g49
(g70
g51
NtRp1479
(dp1480
g54
(dp1481
sg63
g1475
sg56
(lp1482
g49
(g50
g51
NtRp1483
(dp1484
g54
(dp1485
g62
I3
ssg63
g1479
sg56
(lp1486
S'datetime.datetime(2012, 3, 4, 22, 12, 8)'
p1487
asbasbasbag49
(g65
g51
NtRp1488
(dp1489
g54
(dp1490
sg63
g1434
sg56
(lp1491
g49
(g70
g51
NtRp1492
(dp1493
g54
(dp1494
sg63
g1488
sg56
(lp1495
g49
(g50
g51
NtRp1496
(dp1497
g54
(dp1498
g62
I3
ssg63
g1492
sg56
(lp1499
S'stable'
p1500
asbasbasbasbasbasbasbag49
(g65
g51
NtRp1501
(dp1502
g54
(dp1503
sg63
g753
sg56
(lp1504
g49
(g70
g51
NtRp1505
(dp1506
g54
(dp1507
g74
g75
ssg63
g1501
sg56
(lp1508
S'wsgi_errors'
p1509
asbag49
(g70
g51
NtRp1510
(dp1511
g54
(dp1512
g81
g82
ssg63
g1501
sg56
(lp1513
S':'
asbag49
(g70
g51
NtRp1514
(dp1515
g54
(dp1516
sg63
g1501
sg56
(lp1517
g49
(g50
g51
NtRp1518
(dp1519
g54
(dp1520
g62
I4
ssg63
g1514
sg56
(lp1521
S"<open file '<stderr>', mode 'w' at 0x01FB00B0>"
p1522
asbasbasbag49
(g65
g51
NtRp1523
(dp1524
g54
(dp1525
sg63
g753
sg56
(lp1526
g49
(g70
g51
NtRp1527
(dp1528
g54
(dp1529
g74
g75
ssg63
g1523
sg56
(lp1530
S'wsgi_file_wrapper'
p1531
asbag49
(g70
g51
NtRp1532
(dp1533
g54
(dp1534
g81
g82
ssg63
g1523
sg56
(lp1535
S':'
asbag49
(g70
g51
NtRp1536
(dp1537
g54
(dp1538
sg63
g1523
sg56
(lp1539
g49
(g50
g51
NtRp1540
(dp1541
g54
(dp1542
g62
I4
ssg63
g1536
sg56
(lp1543
S'<class wsgiref.util.FileWrapper at 0x02F56390>'
p1544
asbasbasbag49
(g65
g51
NtRp1545
(dp1546
g54
(dp1547
sg63
g753
sg56
(lp1548
g49
(g70
g51
NtRp1549
(dp1550
g54
(dp1551
g74
g75
ssg63
g1545
sg56
(lp1552
S'wsgi_input'
p1553
asbag49
(g70
g51
NtRp1554
(dp1555
g54
(dp1556
g81
g82
ssg63
g1545
sg56
(lp1557
S':'
asbag49
(g70
g51
NtRp1558
(dp1559
g54
(dp1560
sg63
g1545
sg56
(lp1561
g49
(g50
g51
NtRp1562
(dp1563
g54
(dp1564
g62
I4
ssg63
g1558
sg56
(lp1565
S'<socket._fileobject object at 0x0782D7B0>'
p1566
asbasbasbag49
(g65
g51
NtRp1567
(dp1568
g54
(dp1569
sg63
g753
sg56
(lp1570
g49
(g70
g51
NtRp1571
(dp1572
g54
(dp1573
g74
g75
ssg63
g1567
sg56
(lp1574
S'wsgi_multiprocess'
p1575
asbag49
(g70
g51
NtRp1576
(dp1577
g54
(dp1578
g81
g82
ssg63
g1567
sg56
(lp1579
S':'
asbag49
(g70
g51
NtRp1580
(dp1581
g54
(dp1582
sg63
g1567
sg56
(lp1583
g49
(g50
g51
NtRp1584
(dp1585
g54
(dp1586
g62
I4
ssg63
g1580
sg56
(lp1587
g92
asbasbasbag49
(g65
g51
NtRp1588
(dp1589
g54
(dp1590
sg63
g753
sg56
(lp1591
g49
(g70
g51
NtRp1592
(dp1593
g54
(dp1594
g74
g75
ssg63
g1588
sg56
(lp1595
S'wsgi_multithread'
p1596
asbag49
(g70
g51
NtRp1597
(dp1598
g54
(dp1599
g81
g82
ssg63
g1588
sg56
(lp1600
S':'
asbag49
(g70
g51
NtRp1601
(dp1602
g54
(dp1603
sg63
g1588
sg56
(lp1604
g49
(g50
g51
NtRp1605
(dp1606
g54
(dp1607
g62
I4
ssg63
g1601
sg56
(lp1608
S'True'
p1609
asbasbasbag49
(g65
g51
NtRp1610
(dp1611
g54
(dp1612
sg63
g753
sg56
(lp1613
g49
(g70
g51
NtRp1614
(dp1615
g54
(dp1616
g74
g75
ssg63
g1610
sg56
(lp1617
S'wsgi_run_once'
p1618
asbag49
(g70
g51
NtRp1619
(dp1620
g54
(dp1621
g81
g82
ssg63
g1610
sg56
(lp1622
S':'
asbag49
(g70
g51
NtRp1623
(dp1624
g54
(dp1625
sg63
g1610
sg56
(lp1626
g49
(g50
g51
NtRp1627
(dp1628
g54
(dp1629
g62
I4
ssg63
g1623
sg56
(lp1630
g92
asbasbasbag49
(g65
g51
NtRp1631
(dp1632
g54
(dp1633
sg63
g753
sg56
(lp1634
g49
(g70
g51
NtRp1635
(dp1636
g54
(dp1637
g74
g75
ssg63
g1631
sg56
(lp1638
S'wsgi_url_scheme'
p1639
asbag49
(g70
g51
NtRp1640
(dp1641
g54
(dp1642
g81
g82
ssg63
g1631
sg56
(lp1643
S':'
asbag49
(g70
g51
NtRp1644
(dp1645
g54
(dp1646
sg63
g1631
sg56
(lp1647
g49
(g50
g51
NtRp1648
(dp1649
g54
(dp1650
g62
I4
ssg63
g1644
sg56
(lp1651
S'http'
p1652
asbasbasbag49
(g65
g51
NtRp1653
(dp1654
g54
(dp1655
sg63
g753
sg56
(lp1656
g49
(g70
g51
NtRp1657
(dp1658
g54
(dp1659
g74
g75
ssg63
g1653
sg56
(lp1660
S'wsgi_version'
p1661
asbag49
(g70
g51
NtRp1662
(dp1663
g54
(dp1664
g81
g82
ssg63
g1653
sg56
(lp1665
S':'
asbag49
(g70
g51
NtRp1666
(dp1667
g54
(dp1668
sg63
g1653
sg56
(lp1669
g49
(g50
g51
NtRp1670
(dp1671
g54
(dp1672
g62
I4
ssg63
g1666
sg56
(lp1673
g49
(g58
g51
NtRp1674
(dp1675
g54
(dp1676
g62
I3
ssg63
Nsg56
(lp1677
g49
(g65
g51
NtRp1678
(dp1679
g54
(dp1680
sg63
g1674
sg56
(lp1681
g49
(g70
g51
NtRp1682
(dp1683
g54
(dp1684
sg63
g1678
sg56
(lp1685
g49
(g50
g51
NtRp1686
(dp1687
g54
(dp1688
g62
I3
ssg63
g1682
sg56
(lp1689
S'1'
asbasbasbag49
(g65
g51
NtRp1690
(dp1691
g54
(dp1692
sg63
g1674
sg56
(lp1693
g49
(g70
g51
NtRp1694
(dp1695
g54
(dp1696
sg63
g1690
sg56
(lp1697
g49
(g50
g51
NtRp1698
(dp1699
g54
(dp1700
g62
I3
ssg63
g1694
sg56
(lp1701
S'0'
asbasbasbasbasbasbasbasbasbasbasbag49
(g65
g51
NtRp1702
(dp1703
g54
(dp1704
sg63
g59
sg56
(lp1705
g49
(g70
g51
NtRp1706
(dp1707
g54
(dp1708
g74
g75
ssg63
g1702
sg56
(lp1709
S'extension'
p1710
asbag49
(g70
g51
NtRp1711
(dp1712
g54
(dp1713
g81
g82
ssg63
g1702
sg56
(lp1714
S':'
asbag49
(g70
g51
NtRp1715
(dp1716
g54
(dp1717
sg63
g1702
sg56
(lp1718
g49
(g50
g51
NtRp1719
(dp1720
g54
(dp1721
g62
I5
ssg63
g1715
sg56
(lp1722
S'html'
p1723
asbasbasbag49
(g65
g51
NtRp1724
(dp1725
g54
(dp1726
sg63
g59
sg56
(lp1727
g49
(g70
g51
NtRp1728
(dp1729
g54
(dp1730
g74
g75
ssg63
g1724
sg56
(lp1731
S'folder'
p1732
asbag49
(g70
g51
NtRp1733
(dp1734
g54
(dp1735
g81
g82
ssg63
g1724
sg56
(lp1736
S':'
asbag49
(g70
g51
NtRp1737
(dp1738
g54
(dp1739
sg63
g1724
sg56
(lp1740
g49
(g50
g51
NtRp1741
(dp1742
g54
(dp1743
g62
I5
ssg63
g1737
sg56
(lp1744
S'D:\\Dise\xf1o Web\\Proyectos\\Parleyweb\\web2py\\applications\\parleyweb\\'
p1745
asbasbasbag49
(g65
g51
NtRp1746
(dp1747
g54
(dp1748
sg63
g59
sg56
(lp1749
g49
(g70
g51
NtRp1750
(dp1751
g54
(dp1752
g74
g75
ssg63
g1746
sg56
(lp1753
S'function'
p1754
asbag49
(g70
g51
NtRp1755
(dp1756
g54
(dp1757
g81
g82
ssg63
g1746
sg56
(lp1758
S':'
asbag49
(g70
g51
NtRp1759
(dp1760
g54
(dp1761
sg63
g1746
sg56
(lp1762
g49
(g50
g51
NtRp1763
(dp1764
g54
(dp1765
g62
I5
ssg63
g1759
sg56
(lp1766
S'index'
p1767
asbasbasbag49
(g65
g51
NtRp1768
(dp1769
g54
(dp1770
sg63
g59
sg56
(lp1771
g49
(g70
g51
NtRp1772
(dp1773
g54
(dp1774
g74
g75
ssg63
g1768
sg56
(lp1775
S'get_vars'
p1776
asbag49
(g70
g51
NtRp1777
(dp1778
g54
(dp1779
g81
g82
ssg63
g1768
sg56
(lp1780
S':'
asbag49
(g70
g51
NtRp1781
(dp1782
g54
(dp1783
sg63
g1768
sg56
(lp1784
g49
(g50
g51
NtRp1785
(dp1786
g54
(dp1787
g62
I5
ssg63
g1781
sg56
(lp1788
g49
(g58
g51
NtRp1789
(dp1790
g54
(dp1791
g62
I4
ssg63
Nsg56
(lp1792
sbasbasbasbag49
(g65
g51
NtRp1793
(dp1794
g54
(dp1795
sg63
g59
sg56
(lp1796
g49
(g70
g51
NtRp1797
(dp1798
g54
(dp1799
g74
g75
ssg63
g1793
sg56
(lp1800
S'global_settings'
p1801
asbag49
(g70
g51
NtRp1802
(dp1803
g54
(dp1804
g81
g82
ssg63
g1793
sg56
(lp1805
S':'
asbag49
(g70
g51
NtRp1806
(dp1807
g54
(dp1808
sg63
g1793
sg56
(lp1809
g49
(g50
g51
NtRp1810
(dp1811
g54
(dp1812
g62
I5
ssg63
g1806
sg56
(lp1813
g49
(g58
g51
NtRp1814
(dp1815
g54
(dp1816
g62
I4
ssg63
Nsg56
(lp1817
g49
(g65
g51
NtRp1818
(dp1819
g54
(dp1820
sg63
g1814
sg56
(lp1821
g49
(g70
g51
NtRp1822
(dp1823
g54
(dp1824
g74
g75
ssg63
g1818
sg56
(lp1825
g765
asbag49
(g70
g51
NtRp1826
(dp1827
g54
(dp1828
g81
g82
ssg63
g1818
sg56
(lp1829
S':'
asbag49
(g70
g51
NtRp1830
(dp1831
g54
(dp1832
sg63
g1818
sg56
(lp1833
g49
(g50
g51
NtRp1834
(dp1835
g54
(dp1836
g62
I4
ssg63
g1830
sg56
(lp1837
S"set(['D:\\\\Dise\\xf1o Web\\\\Proyectos\\\\Parleyweb\\\\web2py\\\\applications\\\\parleyweb\\\\', 'D:\\\\Dise\\xf1o Web\\\\Proyectos\\\\Parleyweb\\\\web2py\\\\applications\\\\welcome\\\\', 'D:\\\\Dise\\xf1o Web\\\\Proyectos\\\\Parleyweb\\\\web2py\\\\applications\\\\admin\\\\'])"
p1838
asbasbasbag49
(g65
g51
NtRp1839
(dp1840
g54
(dp1841
sg63
g1814
sg56
(lp1842
g49
(g70
g51
NtRp1843
(dp1844
g54
(dp1845
g74
g75
ssg63
g1839
sg56
(lp1846
g787
asbag49
(g70
g51
NtRp1847
(dp1848
g54
(dp1849
g81
g82
ssg63
g1839
sg56
(lp1850
S':'
asbag49
(g70
g51
NtRp1851
(dp1852
g54
(dp1853
sg63
g1839
sg56
(lp1854
g49
(g50
g51
NtRp1855
(dp1856
g54
(dp1857
g62
I4
ssg63
g1851
sg56
(lp1858
g800
asbasbasbag49
(g65
g51
NtRp1859
(dp1860
g54
(dp1861
sg63
g1814
sg56
(lp1862
g49
(g70
g51
NtRp1863
(dp1864
g54
(dp1865
g74
g75
ssg63
g1859
sg56
(lp1866
g809
asbag49
(g70
g51
NtRp1867
(dp1868
g54
(dp1869
g81
g82
ssg63
g1859
sg56
(lp1870
S':'
asbag49
(g70
g51
NtRp1871
(dp1872
g54
(dp1873
sg63
g1859
sg56
(lp1874
g49
(g50
g51
NtRp1875
(dp1876
g54
(dp1877
g62
I4
ssg63
g1871
sg56
(lp1878
g49
(g58
g51
NtRp1879
(dp1880
g54
(dp1881
g62
I3
ssg63
Nsg56
(lp1882
sbasbasbasbag49
(g65
g51
NtRp1883
(dp1884
g54
(dp1885
sg63
g1814
sg56
(lp1886
g49
(g70
g51
NtRp1887
(dp1888
g54
(dp1889
g74
g75
ssg63
g1883
sg56
(lp1890
g834
asbag49
(g70
g51
NtRp1891
(dp1892
g54
(dp1893
g81
g82
ssg63
g1883
sg56
(lp1894
S':'
asbag49
(g70
g51
NtRp1895
(dp1896
g54
(dp1897
sg63
g1883
sg56
(lp1898
g49
(g50
g51
NtRp1899
(dp1900
g54
(dp1901
g62
I4
ssg63
g1895
sg56
(lp1902
S"<Values at 0x3110f30: {'verbose': False, 'ip': '127.0.0.1', 'shutdown_timeout': 5, 'taskbar': False, 'nocron': False, 'pid_filename': 'httpserver.pid', 'maxthreads': None, 'softcron': False, 'server_name': 'craxsnet-PC', 'bpython': False, 'nogui': False, 'port': 8000, 'extcron': False, 'debuglevel': 30, 'test': None, 'folder': 'D:\\\\Dise\\xf1o Web\\\\Proyectos\\\\Parleyweb\\\\web2py', 'config': '', 'import_models': False, 'winservice': '', 'shell': None, 'run': '', 'log_filename': 'httpserver.log', 'args': [''], 'socket_timeout': 5, 'ssl_ca_certificate': None, 'scheduler': None, 'profiler_filename': None, 'ssl_private_key': '', 'password': '<ask>', 'request_queue_size': 5, 'ssl_certificate': '', 'cronjob': False, 'numthreads': None, 'quiet': False, 'interfaces': None, 'minthreads': None, 'timeout': 10, 'plain': False, 'nobanner': False}>"
p1903
asbasbasbag49
(g65
g51
NtRp1904
(dp1905
g54
(dp1906
sg63
g1814
sg56
(lp1907
g49
(g70
g51
NtRp1908
(dp1909
g54
(dp1910
g74
g75
ssg63
g1904
sg56
(lp1911
g856
asbag49
(g70
g51
NtRp1912
(dp1913
g54
(dp1914
g81
g82
ssg63
g1904
sg56
(lp1915
S':'
asbag49
(g70
g51
NtRp1916
(dp1917
g54
(dp1918
sg63
g1904
sg56
(lp1919
g49
(g50
g51
NtRp1920
(dp1921
g54
(dp1922
g62
I4
ssg63
g1916
sg56
(lp1923
S'set([])'
p1924
asbasbasbag49
(g65
g51
NtRp1925
(dp1926
g54
(dp1927
sg63
g1814
sg56
(lp1928
g49
(g70
g51
NtRp1929
(dp1930
g54
(dp1931
g74
g75
ssg63
g1925
sg56
(lp1932
g878
asbag49
(g70
g51
NtRp1933
(dp1934
g54
(dp1935
g81
g82
ssg63
g1925
sg56
(lp1936
S':'
asbag49
(g70
g51
NtRp1937
(dp1938
g54
(dp1939
sg63
g1925
sg56
(lp1940
g49
(g50
g51
NtRp1941
(dp1942
g54
(dp1943
g62
I4
ssg63
g1937
sg56
(lp1944
g92
asbasbasbag49
(g65
g51
NtRp1945
(dp1946
g54
(dp1947
sg63
g1814
sg56
(lp1948
g49
(g70
g51
NtRp1949
(dp1950
g54
(dp1951
g74
g75
ssg63
g1945
sg56
(lp1952
g899
asbag49
(g70
g51
NtRp1953
(dp1954
g54
(dp1955
g81
g82
ssg63
g1945
sg56
(lp1956
S':'
asbag49
(g70
g51
NtRp1957
(dp1958
g54
(dp1959
sg63
g1945
sg56
(lp1960
g49
(g50
g51
NtRp1961
(dp1962
g54
(dp1963
g62
I4
ssg63
g1957
sg56
(lp1964
g912
asbasbasbag49
(g65
g51
NtRp1965
(dp1966
g54
(dp1967
sg63
g1814
sg56
(lp1968
g49
(g70
g51
NtRp1969
(dp1970
g54
(dp1971
g74
g75
ssg63
g1965
sg56
(lp1972
g1119
asbag49
(g70
g51
NtRp1973
(dp1974
g54
(dp1975
g81
g82
ssg63
g1965
sg56
(lp1976
S':'
asbag49
(g70
g51
NtRp1977
(dp1978
g54
(dp1979
sg63
g1965
sg56
(lp1980
g49
(g50
g51
NtRp1981
(dp1982
g54
(dp1983
g62
I4
ssg63
g1977
sg56
(lp1984
g92
asbasbasbag49
(g65
g51
NtRp1985
(dp1986
g54
(dp1987
sg63
g1814
sg56
(lp1988
g49
(g70
g51
NtRp1989
(dp1990
g54
(dp1991
g74
g75
ssg63
g1985
sg56
(lp1992
g1140
asbag49
(g70
g51
NtRp1993
(dp1994
g54
(dp1995
g81
g82
ssg63
g1985
sg56
(lp1996
S':'
asbag49
(g70
g51
NtRp1997
(dp1998
g54
(dp1999
sg63
g1985
sg56
(lp2000
g49
(g50
g51
NtRp2001
(dp2002
g54
(dp2003
g62
I4
ssg63
g1997
sg56
(lp2004
g92
asbasbasbag49
(g65
g51
NtRp2005
(dp2006
g54
(dp2007
sg63
g1814
sg56
(lp2008
g49
(g70
g51
NtRp2009
(dp2010
g54
(dp2011
g74
g75
ssg63
g2005
sg56
(lp2012
g1378
asbag49
(g70
g51
NtRp2013
(dp2014
g54
(dp2015
g81
g82
ssg63
g2005
sg56
(lp2016
S':'
asbag49
(g70
g51
NtRp2017
(dp2018
g54
(dp2019
sg63
g2005
sg56
(lp2020
g49
(g50
g51
NtRp2021
(dp2022
g54
(dp2023
g62
I4
ssg63
g2017
sg56
(lp2024
g1391
asbasbasbag49
(g65
g51
NtRp2025
(dp2026
g54
(dp2027
sg63
g1814
sg56
(lp2028
g49
(g70
g51
NtRp2029
(dp2030
g54
(dp2031
g74
g75
ssg63
g2025
sg56
(lp2032
g1421
asbag49
(g70
g51
NtRp2033
(dp2034
g54
(dp2035
g81
g82
ssg63
g2025
sg56
(lp2036
S':'
asbag49
(g70
g51
NtRp2037
(dp2038
g54
(dp2039
sg63
g2025
sg56
(lp2040
g49
(g50
g51
NtRp2041
(dp2042
g54
(dp2043
g62
I4
ssg63
g2037
sg56
(lp2044
g49
(g58
g51
NtRp2045
(dp2046
g54
(dp2047
g62
I3
ssg63
Nsg56
(lp2048
g49
(g65
g51
NtRp2049
(dp2050
g54
(dp2051
sg63
g2045
sg56
(lp2052
g49
(g70
g51
NtRp2053
(dp2054
g54
(dp2055
sg63
g2049
sg56
(lp2056
g49
(g50
g51
NtRp2057
(dp2058
g54
(dp2059
g62
I3
ssg63
g2053
sg56
(lp2060
S'1'
asbasbasbag49
(g65
g51
NtRp2061
(dp2062
g54
(dp2063
sg63
g2045
sg56
(lp2064
g49
(g70
g51
NtRp2065
(dp2066
g54
(dp2067
sg63
g2061
sg56
(lp2068
g49
(g50
g51
NtRp2069
(dp2070
g54
(dp2071
g62
I3
ssg63
g2065
sg56
(lp2072
S'99'
p2073
asbasbasbag49
(g65
g51
NtRp2074
(dp2075
g54
(dp2076
sg63
g2045
sg56
(lp2077
g49
(g70
g51
NtRp2078
(dp2079
g54
(dp2080
sg63
g2074
sg56
(lp2081
g49
(g50
g51
NtRp2082
(dp2083
g54
(dp2084
g62
I3
ssg63
g2078
sg56
(lp2085
S'7'
asbasbasbag49
(g65
g51
NtRp2086
(dp2087
g54
(dp2088
sg63
g2045
sg56
(lp2089
g49
(g70
g51
NtRp2090
(dp2091
g54
(dp2092
sg63
g2086
sg56
(lp2093
g49
(g50
g51
NtRp2094
(dp2095
g54
(dp2096
g62
I3
ssg63
g2090
sg56
(lp2097
S'datetime.datetime(2012, 3, 4, 22, 12, 8)'
p2098
asbasbasbag49
(g65
g51
NtRp2099
(dp2100
g54
(dp2101
sg63
g2045
sg56
(lp2102
g49
(g70
g51
NtRp2103
(dp2104
g54
(dp2105
sg63
g2099
sg56
(lp2106
g49
(g50
g51
NtRp2107
(dp2108
g54
(dp2109
g62
I3
ssg63
g2103
sg56
(lp2110
g1500
asbasbasbasbasbasbasbasbasbasbasbag49
(g65
g51
NtRp2111
(dp2112
g54
(dp2113
sg63
g59
sg56
(lp2114
g49
(g70
g51
NtRp2115
(dp2116
g54
(dp2117
g74
g75
ssg63
g2111
sg56
(lp2118
S'is_https'
p2119
asbag49
(g70
g51
NtRp2120
(dp2121
g54
(dp2122
g81
g82
ssg63
g2111
sg56
(lp2123
S':'
asbag49
(g70
g51
NtRp2124
(dp2125
g54
(dp2126
sg63
g2111
sg56
(lp2127
g49
(g50
g51
NtRp2128
(dp2129
g54
(dp2130
g62
I5
ssg63
g2124
sg56
(lp2131
g92
asbasbasbag49
(g65
g51
NtRp2132
(dp2133
g54
(dp2134
sg63
g59
sg56
(lp2135
g49
(g70
g51
NtRp2136
(dp2137
g54
(dp2138
g74
g75
ssg63
g2132
sg56
(lp2139
S'is_local'
p2140
asbag49
(g70
g51
NtRp2141
(dp2142
g54
(dp2143
g81
g82
ssg63
g2132
sg56
(lp2144
S':'
asbag49
(g70
g51
NtRp2145
(dp2146
g54
(dp2147
sg63
g2132
sg56
(lp2148
g49
(g50
g51
NtRp2149
(dp2150
g54
(dp2151
g62
I5
ssg63
g2145
sg56
(lp2152
g1609
asbasbasbag49
(g65
g51
NtRp2153
(dp2154
g54
(dp2155
sg63
g59
sg56
(lp2156
g49
(g70
g51
NtRp2157
(dp2158
g54
(dp2159
g74
g75
ssg63
g2153
sg56
(lp2160
S'is_restful'
p2161
asbag49
(g70
g51
NtRp2162
(dp2163
g54
(dp2164
g81
g82
ssg63
g2153
sg56
(lp2165
S':'
asbag49
(g70
g51
NtRp2166
(dp2167
g54
(dp2168
sg63
g2153
sg56
(lp2169
g49
(g50
g51
NtRp2170
(dp2171
g54
(dp2172
g62
I5
ssg63
g2166
sg56
(lp2173
g92
asbasbasbag49
(g65
g51
NtRp2174
(dp2175
g54
(dp2176
sg63
g59
sg56
(lp2177
g49
(g70
g51
NtRp2178
(dp2179
g54
(dp2180
g74
g75
ssg63
g2174
sg56
(lp2181
S'now'
p2182
asbag49
(g70
g51
NtRp2183
(dp2184
g54
(dp2185
g81
g82
ssg63
g2174
sg56
(lp2186
S':'
asbag49
(g70
g51
NtRp2187
(dp2188
g54
(dp2189
sg63
g2174
sg56
(lp2190
g49
(g50
g51
NtRp2191
(dp2192
g54
(dp2193
g62
I5
ssg63
g2187
sg56
(lp2194
S'datetime.datetime(2012, 3, 16, 23, 51, 32, 603000)'
p2195
asbasbasbag49
(g65
g51
NtRp2196
(dp2197
g54
(dp2198
sg63
g59
sg56
(lp2199
g49
(g70
g51
NtRp2200
(dp2201
g54
(dp2202
g74
g75
ssg63
g2196
sg56
(lp2203
S'post_vars'
p2204
asbag49
(g70
g51
NtRp2205
(dp2206
g54
(dp2207
g81
g82
ssg63
g2196
sg56
(lp2208
S':'
asbag49
(g70
g51
NtRp2209
(dp2210
g54
(dp2211
sg63
g2196
sg56
(lp2212
g49
(g50
g51
NtRp2213
(dp2214
g54
(dp2215
g62
I5
ssg63
g2209
sg56
(lp2216
g49
(g58
g51
NtRp2217
(dp2218
g54
(dp2219
g62
I4
ssg63
Nsg56
(lp2220
sbasbasbasbag49
(g65
g51
NtRp2221
(dp2222
g54
(dp2223
sg63
g59
sg56
(lp2224
g49
(g70
g51
NtRp2225
(dp2226
g54
(dp2227
g74
g75
ssg63
g2221
sg56
(lp2228
S'url'
p2229
asbag49
(g70
g51
NtRp2230
(dp2231
g54
(dp2232
g81
g82
ssg63
g2221
sg56
(lp2233
S':'
asbag49
(g70
g51
NtRp2234
(dp2235
g54
(dp2236
sg63
g2221
sg56
(lp2237
g49
(g50
g51
NtRp2238
(dp2239
g54
(dp2240
g62
I5
ssg63
g2234
sg56
(lp2241
S'/parleyweb/default/index'
p2242
asbasbasbag49
(g65
g51
NtRp2243
(dp2244
g54
(dp2245
sg63
g59
sg56
(lp2246
g49
(g70
g51
NtRp2247
(dp2248
g54
(dp2249
g74
g75
ssg63
g2243
sg56
(lp2250
S'utcnow'
p2251
asbag49
(g70
g51
NtRp2252
(dp2253
g54
(dp2254
g81
g82
ssg63
g2243
sg56
(lp2255
S':'
asbag49
(g70
g51
NtRp2256
(dp2257
g54
(dp2258
sg63
g2243
sg56
(lp2259
g49
(g50
g51
NtRp2260
(dp2261
g54
(dp2262
g62
I5
ssg63
g2256
sg56
(lp2263
S'datetime.datetime(2012, 3, 16, 22, 51, 32, 603000)'
p2264
asbasbasbag49
(g65
g51
NtRp2265
(dp2266
g54
(dp2267
sg63
g59
sg56
(lp2268
g49
(g70
g51
NtRp2269
(dp2270
g54
(dp2271
g74
g75
ssg63
g2265
sg56
(lp2272
S'uuid'
p2273
asbag49
(g70
g51
NtRp2274
(dp2275
g54
(dp2276
g81
g82
ssg63
g2265
sg56
(lp2277
S':'
asbag49
(g70
g51
NtRp2278
(dp2279
g54
(dp2280
sg63
g2265
sg56
(lp2281
g49
(g50
g51
NtRp2282
(dp2283
g54
(dp2284
g62
I5
ssg63
g2278
sg56
(lp2285
S'parleyweb/127.0.0.1.2012-03-16.23-51-32.c6509258-fdd2-4064-988c-8a1bd2c1347a'
p2286
asbasbasbag49
(g65
g51
NtRp2287
(dp2288
g54
(dp2289
sg63
g59
sg56
(lp2290
g49
(g70
g51
NtRp2291
(dp2292
g54
(dp2293
g74
g75
ssg63
g2287
sg56
(lp2294
S'vars'
p2295
asbag49
(g70
g51
NtRp2296
(dp2297
g54
(dp2298
g81
g82
ssg63
g2287
sg56
(lp2299
S':'
asbag49
(g70
g51
NtRp2300
(dp2301
g54
(dp2302
sg63
g2287
sg56
(lp2303
g49
(g50
g51
NtRp2304
(dp2305
g54
(dp2306
g62
I5
ssg63
g2300
sg56
(lp2307
g49
(g58
g51
NtRp2308
(dp2309
g54
(dp2310
g62
I4
ssg63
Nsg56
(lp2311
sbasbasbasbag49
(g65
g51
NtRp2312
(dp2313
g54
(dp2314
sg63
g59
sg56
(lp2315
g49
(g70
g51
NtRp2316
(dp2317
g54
(dp2318
g74
g75
ssg63
g2312
sg56
(lp2319
S'wsgi'
p2320
asbag49
(g70
g51
NtRp2321
(dp2322
g54
(dp2323
g81
g82
ssg63
g2312
sg56
(lp2324
S':'
asbag49
(g70
g51
NtRp2325
(dp2326
g54
(dp2327
sg63
g2312
sg56
(lp2328
g49
(g50
g51
NtRp2329
(dp2330
g54
(dp2331
g62
I5
ssg63
g2325
sg56
(lp2332
g49
(g58
g51
NtRp2333
(dp2334
g54
(dp2335
g62
I4
ssg63
Nsg56
(lp2336
g49
(g65
g51
NtRp2337
(dp2338
g54
(dp2339
sg63
g2333
sg56
(lp2340
g49
(g70
g51
NtRp2341
(dp2342
g54
(dp2343
g74
g75
ssg63
g2337
sg56
(lp2344
S'environ'
p2345
asbag49
(g70
g51
NtRp2346
(dp2347
g54
(dp2348
g81
g82
ssg63
g2337
sg56
(lp2349
S':'
asbag49
(g70
g51
NtRp2350
(dp2351
g54
(dp2352
sg63
g2337
sg56
(lp2353
g49
(g50
g51
NtRp2354
(dp2355
g54
(dp2356
g62
I4
ssg63
g2350
sg56
(lp2357
g49
(g58
g51
NtRp2358
(dp2359
g54
(dp2360
g62
I3
ssg63
Nsg56
(lp2361
g49
(g65
g51
NtRp2362
(dp2363
g54
(dp2364
sg63
g2358
sg56
(lp2365
g49
(g70
g51
NtRp2366
(dp2367
g54
(dp2368
g74
g75
ssg63
g2362
sg56
(lp2369
S'HTTP_ACCEPT'
p2370
asbag49
(g70
g51
NtRp2371
(dp2372
g54
(dp2373
g81
g82
ssg63
g2362
sg56
(lp2374
S':'
asbag49
(g70
g51
NtRp2375
(dp2376
g54
(dp2377
sg63
g2362
sg56
(lp2378
g49
(g50
g51
NtRp2379
(dp2380
g54
(dp2381
g62
I3
ssg63
g2375
sg56
(lp2382
g934
asbasbasbag49
(g65
g51
NtRp2383
(dp2384
g54
(dp2385
sg63
g2358
sg56
(lp2386
g49
(g70
g51
NtRp2387
(dp2388
g54
(dp2389
g74
g75
ssg63
g2383
sg56
(lp2390
S'HTTP_ACCEPT_ENCODING'
p2391
asbag49
(g70
g51
NtRp2392
(dp2393
g54
(dp2394
g81
g82
ssg63
g2383
sg56
(lp2395
S':'
asbag49
(g70
g51
NtRp2396
(dp2397
g54
(dp2398
sg63
g2383
sg56
(lp2399
g49
(g50
g51
NtRp2400
(dp2401
g54
(dp2402
g62
I3
ssg63
g2396
sg56
(lp2403
g956
asbasbasbag49
(g65
g51
NtRp2404
(dp2405
g54
(dp2406
sg63
g2358
sg56
(lp2407
g49
(g70
g51
NtRp2408
(dp2409
g54
(dp2410
g74
g75
ssg63
g2404
sg56
(lp2411
S'HTTP_ACCEPT_LANGUAGE'
p2412
asbag49
(g70
g51
NtRp2413
(dp2414
g54
(dp2415
g81
g82
ssg63
g2404
sg56
(lp2416
S':'
asbag49
(g70
g51
NtRp2417
(dp2418
g54
(dp2419
sg63
g2404
sg56
(lp2420
g49
(g50
g51
NtRp2421
(dp2422
g54
(dp2423
g62
I3
ssg63
g2417
sg56
(lp2424
g978
asbasbasbag49
(g65
g51
NtRp2425
(dp2426
g54
(dp2427
sg63
g2358
sg56
(lp2428
g49
(g70
g51
NtRp2429
(dp2430
g54
(dp2431
g74
g75
ssg63
g2425
sg56
(lp2432
S'HTTP_CACHE_CONTROL'
p2433
asbag49
(g70
g51
NtRp2434
(dp2435
g54
(dp2436
g81
g82
ssg63
g2425
sg56
(lp2437
S':'
asbag49
(g70
g51
NtRp2438
(dp2439
g54
(dp2440
sg63
g2425
sg56
(lp2441
g49
(g50
g51
NtRp2442
(dp2443
g54
(dp2444
g62
I3
ssg63
g2438
sg56
(lp2445
g1000
asbasbasbag49
(g65
g51
NtRp2446
(dp2447
g54
(dp2448
sg63
g2358
sg56
(lp2449
g49
(g70
g51
NtRp2450
(dp2451
g54
(dp2452
g74
g75
ssg63
g2446
sg56
(lp2453
S'HTTP_CONNECTION'
p2454
asbag49
(g70
g51
NtRp2455
(dp2456
g54
(dp2457
g81
g82
ssg63
g2446
sg56
(lp2458
S':'
asbag49
(g70
g51
NtRp2459
(dp2460
g54
(dp2461
sg63
g2446
sg56
(lp2462
g49
(g50
g51
NtRp2463
(dp2464
g54
(dp2465
g62
I3
ssg63
g2459
sg56
(lp2466
g1022
asbasbasbag49
(g65
g51
NtRp2467
(dp2468
g54
(dp2469
sg63
g2358
sg56
(lp2470
g49
(g70
g51
NtRp2471
(dp2472
g54
(dp2473
g74
g75
ssg63
g2467
sg56
(lp2474
S'HTTP_COOKIE'
p2475
asbag49
(g70
g51
NtRp2476
(dp2477
g54
(dp2478
g81
g82
ssg63
g2467
sg56
(lp2479
S':'
asbag49
(g70
g51
NtRp2480
(dp2481
g54
(dp2482
sg63
g2467
sg56
(lp2483
g49
(g50
g51
NtRp2484
(dp2485
g54
(dp2486
g62
I3
ssg63
g2480
sg56
(lp2487
g1044
asbasbasbag49
(g65
g51
NtRp2488
(dp2489
g54
(dp2490
sg63
g2358
sg56
(lp2491
g49
(g70
g51
NtRp2492
(dp2493
g54
(dp2494
g74
g75
ssg63
g2488
sg56
(lp2495
S'HTTP_HOST'
p2496
asbag49
(g70
g51
NtRp2497
(dp2498
g54
(dp2499
g81
g82
ssg63
g2488
sg56
(lp2500
S':'
asbag49
(g70
g51
NtRp2501
(dp2502
g54
(dp2503
sg63
g2488
sg56
(lp2504
g49
(g50
g51
NtRp2505
(dp2506
g54
(dp2507
g62
I3
ssg63
g2501
sg56
(lp2508
g1066
asbasbasbag49
(g65
g51
NtRp2509
(dp2510
g54
(dp2511
sg63
g2358
sg56
(lp2512
g49
(g70
g51
NtRp2513
(dp2514
g54
(dp2515
g74
g75
ssg63
g2509
sg56
(lp2516
S'HTTP_REFERER'
p2517
asbag49
(g70
g51
NtRp2518
(dp2519
g54
(dp2520
g81
g82
ssg63
g2509
sg56
(lp2521
S':'
asbag49
(g70
g51
NtRp2522
(dp2523
g54
(dp2524
sg63
g2509
sg56
(lp2525
g49
(g50
g51
NtRp2526
(dp2527
g54
(dp2528
g62
I3
ssg63
g2522
sg56
(lp2529
g1088
asbasbasbag49
(g65
g51
NtRp2530
(dp2531
g54
(dp2532
sg63
g2358
sg56
(lp2533
g49
(g70
g51
NtRp2534
(dp2535
g54
(dp2536
g74
g75
ssg63
g2530
sg56
(lp2537
S'HTTP_USER_AGENT'
p2538
asbag49
(g70
g51
NtRp2539
(dp2540
g54
(dp2541
g81
g82
ssg63
g2530
sg56
(lp2542
S':'
asbag49
(g70
g51
NtRp2543
(dp2544
g54
(dp2545
sg63
g2530
sg56
(lp2546
g49
(g50
g51
NtRp2547
(dp2548
g54
(dp2549
g62
I3
ssg63
g2543
sg56
(lp2550
g1110
asbasbasbag49
(g65
g51
NtRp2551
(dp2552
g54
(dp2553
sg63
g2358
sg56
(lp2554
g49
(g70
g51
NtRp2555
(dp2556
g54
(dp2557
g74
g75
ssg63
g2551
sg56
(lp2558
S'PATH_INFO'
p2559
asbag49
(g70
g51
NtRp2560
(dp2561
g54
(dp2562
g81
g82
ssg63
g2551
sg56
(lp2563
S':'
asbag49
(g70
g51
NtRp2564
(dp2565
g54
(dp2566
sg63
g2551
sg56
(lp2567
g49
(g50
g51
NtRp2568
(dp2569
g54
(dp2570
g62
I3
ssg63
g2564
sg56
(lp2571
g1174
asbasbasbag49
(g65
g51
NtRp2572
(dp2573
g54
(dp2574
sg63
g2358
sg56
(lp2575
g49
(g70
g51
NtRp2576
(dp2577
g54
(dp2578
g74
g75
ssg63
g2572
sg56
(lp2579
S'QUERY_STRING'
p2580
asbag49
(g70
g51
NtRp2581
(dp2582
g54
(dp2583
g81
g82
ssg63
g2572
sg56
(lp2584
S':'
asbag49
(g70
g51
NtRp2585
(dp2586
g54
(dp2587
sg63
g2572
sg56
(lp2588
g49
(g50
g51
NtRp2589
(dp2590
g54
(dp2591
g62
I3
ssg63
g2585
sg56
(lp2592
S''
asbasbasbag49
(g65
g51
NtRp2593
(dp2594
g54
(dp2595
sg63
g2358
sg56
(lp2596
g49
(g70
g51
NtRp2597
(dp2598
g54
(dp2599
g74
g75
ssg63
g2593
sg56
(lp2600
S'REMOTE_ADDR'
p2601
asbag49
(g70
g51
NtRp2602
(dp2603
g54
(dp2604
g81
g82
ssg63
g2593
sg56
(lp2605
S':'
asbag49
(g70
g51
NtRp2606
(dp2607
g54
(dp2608
sg63
g2593
sg56
(lp2609
g49
(g50
g51
NtRp2610
(dp2611
g54
(dp2612
g62
I3
ssg63
g2606
sg56
(lp2613
g182
asbasbasbag49
(g65
g51
NtRp2614
(dp2615
g54
(dp2616
sg63
g2358
sg56
(lp2617
g49
(g70
g51
NtRp2618
(dp2619
g54
(dp2620
g74
g75
ssg63
g2614
sg56
(lp2621
S'REMOTE_PORT'
p2622
asbag49
(g70
g51
NtRp2623
(dp2624
g54
(dp2625
g81
g82
ssg63
g2614
sg56
(lp2626
S':'
asbag49
(g70
g51
NtRp2627
(dp2628
g54
(dp2629
sg63
g2614
sg56
(lp2630
g49
(g50
g51
NtRp2631
(dp2632
g54
(dp2633
g62
I3
ssg63
g2627
sg56
(lp2634
g1238
asbasbasbag49
(g65
g51
NtRp2635
(dp2636
g54
(dp2637
sg63
g2358
sg56
(lp2638
g49
(g70
g51
NtRp2639
(dp2640
g54
(dp2641
g74
g75
ssg63
g2635
sg56
(lp2642
S'REQUEST_METHOD'
p2643
asbag49
(g70
g51
NtRp2644
(dp2645
g54
(dp2646
g81
g82
ssg63
g2635
sg56
(lp2647
S':'
asbag49
(g70
g51
NtRp2648
(dp2649
g54
(dp2650
sg63
g2635
sg56
(lp2651
g49
(g50
g51
NtRp2652
(dp2653
g54
(dp2654
g62
I3
ssg63
g2648
sg56
(lp2655
g1260
asbasbasbag49
(g65
g51
NtRp2656
(dp2657
g54
(dp2658
sg63
g2358
sg56
(lp2659
g49
(g70
g51
NtRp2660
(dp2661
g54
(dp2662
g74
g75
ssg63
g2656
sg56
(lp2663
S'SCRIPT_NAME'
p2664
asbag49
(g70
g51
NtRp2665
(dp2666
g54
(dp2667
g81
g82
ssg63
g2656
sg56
(lp2668
S':'
asbag49
(g70
g51
NtRp2669
(dp2670
g54
(dp2671
sg63
g2656
sg56
(lp2672
g49
(g50
g51
NtRp2673
(dp2674
g54
(dp2675
g62
I3
ssg63
g2669
sg56
(lp2676
S''
asbasbasbag49
(g65
g51
NtRp2677
(dp2678
g54
(dp2679
sg63
g2358
sg56
(lp2680
g49
(g70
g51
NtRp2681
(dp2682
g54
(dp2683
g74
g75
ssg63
g2677
sg56
(lp2684
S'SERVER_NAME'
p2685
asbag49
(g70
g51
NtRp2686
(dp2687
g54
(dp2688
g81
g82
ssg63
g2677
sg56
(lp2689
S':'
asbag49
(g70
g51
NtRp2690
(dp2691
g54
(dp2692
sg63
g2677
sg56
(lp2693
g49
(g50
g51
NtRp2694
(dp2695
g54
(dp2696
g62
I3
ssg63
g2690
sg56
(lp2697
g1303
asbasbasbag49
(g65
g51
NtRp2698
(dp2699
g54
(dp2700
sg63
g2358
sg56
(lp2701
g49
(g70
g51
NtRp2702
(dp2703
g54
(dp2704
g74
g75
ssg63
g2698
sg56
(lp2705
S'SERVER_PORT'
p2706
asbag49
(g70
g51
NtRp2707
(dp2708
g54
(dp2709
g81
g82
ssg63
g2698
sg56
(lp2710
S':'
asbag49
(g70
g51
NtRp2711
(dp2712
g54
(dp2713
sg63
g2698
sg56
(lp2714
g49
(g50
g51
NtRp2715
(dp2716
g54
(dp2717
g62
I3
ssg63
g2711
sg56
(lp2718
g1325
asbasbasbag49
(g65
g51
NtRp2719
(dp2720
g54
(dp2721
sg63
g2358
sg56
(lp2722
g49
(g70
g51
NtRp2723
(dp2724
g54
(dp2725
g74
g75
ssg63
g2719
sg56
(lp2726
S'SERVER_PROTOCOL'
p2727
asbag49
(g70
g51
NtRp2728
(dp2729
g54
(dp2730
g81
g82
ssg63
g2719
sg56
(lp2731
S':'
asbag49
(g70
g51
NtRp2732
(dp2733
g54
(dp2734
sg63
g2719
sg56
(lp2735
g49
(g50
g51
NtRp2736
(dp2737
g54
(dp2738
g62
I3
ssg63
g2732
sg56
(lp2739
g1347
asbasbasbag49
(g65
g51
NtRp2740
(dp2741
g54
(dp2742
sg63
g2358
sg56
(lp2743
g49
(g70
g51
NtRp2744
(dp2745
g54
(dp2746
g74
g75
ssg63
g2740
sg56
(lp2747
S'SERVER_SOFTWARE'
p2748
asbag49
(g70
g51
NtRp2749
(dp2750
g54
(dp2751
g81
g82
ssg63
g2740
sg56
(lp2752
S':'
asbag49
(g70
g51
NtRp2753
(dp2754
g54
(dp2755
sg63
g2740
sg56
(lp2756
g49
(g50
g51
NtRp2757
(dp2758
g54
(dp2759
g62
I3
ssg63
g2753
sg56
(lp2760
g1369
asbasbasbag49
(g65
g51
NtRp2761
(dp2762
g54
(dp2763
sg63
g2358
sg56
(lp2764
g49
(g70
g51
NtRp2765
(dp2766
g54
(dp2767
g74
g75
ssg63
g2761
sg56
(lp2768
S'wsgi.errors'
p2769
asbag49
(g70
g51
NtRp2770
(dp2771
g54
(dp2772
g81
g82
ssg63
g2761
sg56
(lp2773
S':'
asbag49
(g70
g51
NtRp2774
(dp2775
g54
(dp2776
sg63
g2761
sg56
(lp2777
g49
(g50
g51
NtRp2778
(dp2779
g54
(dp2780
g62
I3
ssg63
g2774
sg56
(lp2781
S"<open file '<stderr>', mode 'w' at 0x01FB00B0>"
p2782
asbasbasbag49
(g65
g51
NtRp2783
(dp2784
g54
(dp2785
sg63
g2358
sg56
(lp2786
g49
(g70
g51
NtRp2787
(dp2788
g54
(dp2789
g74
g75
ssg63
g2783
sg56
(lp2790
S'wsgi.file_wrapper'
p2791
asbag49
(g70
g51
NtRp2792
(dp2793
g54
(dp2794
g81
g82
ssg63
g2783
sg56
(lp2795
S':'
asbag49
(g70
g51
NtRp2796
(dp2797
g54
(dp2798
sg63
g2783
sg56
(lp2799
g49
(g50
g51
NtRp2800
(dp2801
g54
(dp2802
g62
I3
ssg63
g2796
sg56
(lp2803
S'<class wsgiref.util.FileWrapper at 0x02F56390>'
p2804
asbasbasbag49
(g65
g51
NtRp2805
(dp2806
g54
(dp2807
sg63
g2358
sg56
(lp2808
g49
(g70
g51
NtRp2809
(dp2810
g54
(dp2811
g74
g75
ssg63
g2805
sg56
(lp2812
S'wsgi.input'
p2813
asbag49
(g70
g51
NtRp2814
(dp2815
g54
(dp2816
g81
g82
ssg63
g2805
sg56
(lp2817
S':'
asbag49
(g70
g51
NtRp2818
(dp2819
g54
(dp2820
sg63
g2805
sg56
(lp2821
g49
(g50
g51
NtRp2822
(dp2823
g54
(dp2824
g62
I3
ssg63
g2818
sg56
(lp2825
S'<cStringIO.StringO object at 0x07BCF4A0>'
p2826
asbasbasbag49
(g65
g51
NtRp2827
(dp2828
g54
(dp2829
sg63
g2358
sg56
(lp2830
g49
(g70
g51
NtRp2831
(dp2832
g54
(dp2833
g74
g75
ssg63
g2827
sg56
(lp2834
S'wsgi.multiprocess'
p2835
asbag49
(g70
g51
NtRp2836
(dp2837
g54
(dp2838
g81
g82
ssg63
g2827
sg56
(lp2839
S':'
asbag49
(g70
g51
NtRp2840
(dp2841
g54
(dp2842
sg63
g2827
sg56
(lp2843
g49
(g50
g51
NtRp2844
(dp2845
g54
(dp2846
g62
I3
ssg63
g2840
sg56
(lp2847
g92
asbasbasbag49
(g65
g51
NtRp2848
(dp2849
g54
(dp2850
sg63
g2358
sg56
(lp2851
g49
(g70
g51
NtRp2852
(dp2853
g54
(dp2854
g74
g75
ssg63
g2848
sg56
(lp2855
S'wsgi.multithread'
p2856
asbag49
(g70
g51
NtRp2857
(dp2858
g54
(dp2859
g81
g82
ssg63
g2848
sg56
(lp2860
S':'
asbag49
(g70
g51
NtRp2861
(dp2862
g54
(dp2863
sg63
g2848
sg56
(lp2864
g49
(g50
g51
NtRp2865
(dp2866
g54
(dp2867
g62
I3
ssg63
g2861
sg56
(lp2868
g1609
asbasbasbag49
(g65
g51
NtRp2869
(dp2870
g54
(dp2871
sg63
g2358
sg56
(lp2872
g49
(g70
g51
NtRp2873
(dp2874
g54
(dp2875
g74
g75
ssg63
g2869
sg56
(lp2876
S'wsgi.run_once'
p2877
asbag49
(g70
g51
NtRp2878
(dp2879
g54
(dp2880
g81
g82
ssg63
g2869
sg56
(lp2881
S':'
asbag49
(g70
g51
NtRp2882
(dp2883
g54
(dp2884
sg63
g2869
sg56
(lp2885
g49
(g50
g51
NtRp2886
(dp2887
g54
(dp2888
g62
I3
ssg63
g2882
sg56
(lp2889
g92
asbasbasbag49
(g65
g51
NtRp2890
(dp2891
g54
(dp2892
sg63
g2358
sg56
(lp2893
g49
(g70
g51
NtRp2894
(dp2895
g54
(dp2896
g74
g75
ssg63
g2890
sg56
(lp2897
S'wsgi.url_scheme'
p2898
asbag49
(g70
g51
NtRp2899
(dp2900
g54
(dp2901
g81
g82
ssg63
g2890
sg56
(lp2902
S':'
asbag49
(g70
g51
NtRp2903
(dp2904
g54
(dp2905
sg63
g2890
sg56
(lp2906
g49
(g50
g51
NtRp2907
(dp2908
g54
(dp2909
g62
I3
ssg63
g2903
sg56
(lp2910
g1652
asbasbasbag49
(g65
g51
NtRp2911
(dp2912
g54
(dp2913
sg63
g2358
sg56
(lp2914
g49
(g70
g51
NtRp2915
(dp2916
g54
(dp2917
g74
g75
ssg63
g2911
sg56
(lp2918
S'wsgi.version'
p2919
asbag49
(g70
g51
NtRp2920
(dp2921
g54
(dp2922
g81
g82
ssg63
g2911
sg56
(lp2923
S':'
asbag49
(g70
g51
NtRp2924
(dp2925
g54
(dp2926
sg63
g2911
sg56
(lp2927
g49
(g50
g51
NtRp2928
(dp2929
g54
(dp2930
g62
I3
ssg63
g2924
sg56
(lp2931
S'1'
asbasbasbasbasbasbasbasbasbasbasbasbasbsS'frames'
p2932
(lp2933
(dp2934
S'file'
p2935
S'D:\\Dise\xf1o Web\\Proyectos\\Parleyweb\\web2py\\gluon\\restricted.py'
p2936
sS'dump'
p2937
(dp2938
sS'lnum'
p2939
I205
sS'lines'
p2940
(dp2941
sS'call'
p2942
S'(code=\'response.write(\\\'<!DOCTYPE html>\\\\n<!-- paulirish....>\\\\n   \\\\n\\\\n \\\\n\\\\n</body>\\\\n</html>\\\\n", escape=False)\', environment={\'A\': <class \'gluon.html.A\'>, \'Auth\': <class \'gluon.tools.Auth\'>, \'B\': <class \'gluon.html.B\'>, \'BEAUTIFY\': <class \'gluon.html.BEAUTIFY\'>, \'BODY\': <class \'gluon.html.BODY\'>, \'BR\': <class \'gluon.html.BR\'>, \'BUTTON\': <class \'gluon.html.BUTTON\'>, \'CAT\': <class \'gluon.html.CAT\'>, \'CENTER\': <class \'gluon.html.CENTER\'>, \'CLEANUP\': <class \'gluon.validators.CLEANUP\'>, ...}, layer=\'D:\\\\Dise\\xf1o Web\\\\Proyectos\\\\Parleyweb\\\\web2py\\\\applications\\\\parleyweb\\\\views\\\\default/index.html\')'
p2943
sS'func'
p2944
S'restricted'
p2945
sa(dp2946
g2935
S'D:\\Dise\xf1o Web\\Proyectos\\Parleyweb\\web2py\\applications\\parleyweb\\views\\default\\index.html'
p2947
sg2937
(dp2948
sg2939
I62
sg2940
(dp2949
I64
S"response.write('\\n\\t    ', escape=False)"
p2950
sI65
S"response.write('\\n\\n ', escape=False)"
p2951
sI66
S'response.write(response.toolbar())'
p2952
sI67
S"response.write('\\n\\t  ', escape=False)"
p2953
sI68
S'response.write("\\n          \\n        </div><!--/span-->\\n      </div><!--/row-->\\n\\n      <hr>\\n\\n      <footer>\\n        <p>\\xc2\\xa9 Company 2012</p>\\n      </footer>\\n\\n    </div><!--/.fluid-container-->\\n    \\n    <!-- Le javascript\\n    ================================================== -->\\n    <!-- Placed at the end of the document so the pages load faster \\n    <script>\\n      $(function () {\\n      $(\'.tabs a:last\').tab(\'show\')\\n      })\\n    </script>-->\\n   \\n\\n \\n\\n</body>\\n</html>\\n", escape=False)'
p2954
sI53
S'response.write(\'\\n            <ul class="nav">\\n              <li>\', escape=False)'
p2955
sI54
S"response.write(A(T('Administracion'), _href=URL('admin', 'index')))"
p2956
sI55
S'response.write(\'</li>\\n            </ul>\\n\\t    \\n            <p class="navbar-text pull-right">\', escape=False)'
p2957
sI56
S"response.write('auth' in globals() and auth.navbar(separators=(' ',' | ','')))"
p2958
sI57
S'response.write(\'</p>\\n          </div><!--/.nav-collapse -->\\n        </div>\\n      </div>\\n    </div>\\n    <div class="flash alert alert-info"></i>\', escape=False)'
p2959
sI58
S"response.write(response.flash or '')"
p2960
sI59
S'response.write(\'</div>\\n    <div class="container-fluid">\\n      <div class="row-fluid">\\n        <div class="span3">\\n          <div class="well sidebar-nav">\\n            <ul class="nav nav-list">\\n              <li class="nav-header">\', escape=False)'
p2961
sI60
S"response.write(T('Buscar'))"
p2962
sI61
S"response.write('</li>\\n\\t      <li>', escape=False)"
p2963
sI62
S'response.write(formulario_busqueda)'
p2964
sI63
S'response.write(\'</li>\\n            </ul>\\n          </div><!--/.well -->\\n        </div><!--/span-->\\n        <div class="span9">\\n\\t  \', escape=False)'
p2965
ssg2942
S'()'
p2966
sg2944
S'<module>'
p2967
sasS'pyver'
p2968
S'Python 2.5.4: D:\\Dise\xf1o Web\\Proyectos\\Parleyweb\\web2py\\web2py.exe'
p2969
sS'session'
p2970
g49
(g50
g51
NtRp2971
(dp2972
g54
(dp2973
sg56
(lp2974
g49
(g58
g51
NtRp2975
(dp2976
g54
(dp2977
g62
I5
ssg63
Nsg56
(lp2978
sbasbsS'etype'
p2979
S"<type 'exceptions.NameError'>"
p2980
sS'date'
p2981
S'Fri Mar 16 23:51:32 2012'
p2982
sS'response'
p2983
g49
(g50
g51
NtRp2984
(dp2985
g54
(dp2986
sg56
(lp2987
g49
(g58
g51
NtRp2988
(dp2989
g54
(dp2990
g62
I5
ssg63
Nsg56
(lp2991
g49
(g65
g51
NtRp2992
(dp2993
g54
(dp2994
sg63
g2988
sg56
(lp2995
g49
(g70
g51
NtRp2996
(dp2997
g54
(dp2998
g74
g75
ssg63
g2992
sg56
(lp2999
g147
asbag49
(g70
g51
NtRp3000
(dp3001
g54
(dp3002
g81
g82
ssg63
g2992
sg56
(lp3003
S':'
asbag49
(g70
g51
NtRp3004
(dp3005
g54
(dp3006
sg63
g2992
sg56
(lp3007
g49
(g50
g51
NtRp3008
(dp3009
g54
(dp3010
g62
I5
ssg63
g3004
sg56
(lp3011
S'<cStringIO.StringO object at 0x075B2D20>'
p3012
asbasbasbag49
(g65
g51
NtRp3013
(dp3014
g54
(dp3015
sg63
g2988
sg56
(lp3016
g49
(g70
g51
NtRp3017
(dp3018
g54
(dp3019
g74
g75
ssg63
g3013
sg56
(lp3020
g213
asbag49
(g70
g51
NtRp3021
(dp3022
g54
(dp3023
g81
g82
ssg63
g3013
sg56
(lp3024
S':'
asbag49
(g70
g51
NtRp3025
(dp3026
g54
(dp3027
sg63
g3013
sg56
(lp3028
g49
(g50
g51
NtRp3029
(dp3030
g54
(dp3031
g62
I5
ssg63
g3025
sg56
(lp3032
g49
(g58
g51
NtRp3033
(dp3034
g54
(dp3035
g62
I4
ssg63
Nsg56
(lp3036
g49
(g65
g51
NtRp3037
(dp3038
g54
(dp3039
sg63
g3033
sg56
(lp3040
g49
(g70
g51
NtRp3041
(dp3042
g54
(dp3043
g74
g75
ssg63
g3037
sg56
(lp3044
S'session_id_parleyweb'
p3045
asbag49
(g70
g51
NtRp3046
(dp3047
g54
(dp3048
g81
g82
ssg63
g3037
sg56
(lp3049
S':'
asbag49
(g70
g51
NtRp3050
(dp3051
g54
(dp3052
sg63
g3037
sg56
(lp3053
g49
(g50
g51
NtRp3054
(dp3055
g54
(dp3056
g62
I4
ssg63
g3050
sg56
(lp3057
g49
(g58
g51
NtRp3058
(dp3059
g54
(dp3060
g62
I3
ssg63
Nsg56
(lp3061
g49
(g65
g51
NtRp3062
(dp3063
g54
(dp3064
sg63
g3058
sg56
(lp3065
g49
(g70
g51
NtRp3066
(dp3067
g54
(dp3068
g74
g75
ssg63
g3062
sg56
(lp3069
g263
asbag49
(g70
g51
NtRp3070
(dp3071
g54
(dp3072
g81
g82
ssg63
g3062
sg56
(lp3073
S':'
asbag49
(g70
g51
NtRp3074
(dp3075
g54
(dp3076
sg63
g3062
sg56
(lp3077
g49
(g50
g51
NtRp3078
(dp3079
g54
(dp3080
g62
I3
ssg63
g3074
sg56
(lp3081
S''
asbasbasbag49
(g65
g51
NtRp3082
(dp3083
g54
(dp3084
sg63
g3058
sg56
(lp3085
g49
(g70
g51
NtRp3086
(dp3087
g54
(dp3088
g74
g75
ssg63
g3082
sg56
(lp3089
g284
asbag49
(g70
g51
NtRp3090
(dp3091
g54
(dp3092
g81
g82
ssg63
g3082
sg56
(lp3093
S':'
asbag49
(g70
g51
NtRp3094
(dp3095
g54
(dp3096
sg63
g3082
sg56
(lp3097
g49
(g50
g51
NtRp3098
(dp3099
g54
(dp3100
g62
I3
ssg63
g3094
sg56
(lp3101
S''
asbasbasbag49
(g65
g51
NtRp3102
(dp3103
g54
(dp3104
sg63
g3058
sg56
(lp3105
g49
(g70
g51
NtRp3106
(dp3107
g54
(dp3108
g74
g75
ssg63
g3102
sg56
(lp3109
g305
asbag49
(g70
g51
NtRp3110
(dp3111
g54
(dp3112
g81
g82
ssg63
g3102
sg56
(lp3113
S':'
asbag49
(g70
g51
NtRp3114
(dp3115
g54
(dp3116
sg63
g3102
sg56
(lp3117
g49
(g50
g51
NtRp3118
(dp3119
g54
(dp3120
g62
I3
ssg63
g3114
sg56
(lp3121
S''
asbasbasbag49
(g65
g51
NtRp3122
(dp3123
g54
(dp3124
sg63
g3058
sg56
(lp3125
g49
(g70
g51
NtRp3126
(dp3127
g54
(dp3128
g74
g75
ssg63
g3122
sg56
(lp3129
g326
asbag49
(g70
g51
NtRp3130
(dp3131
g54
(dp3132
g81
g82
ssg63
g3122
sg56
(lp3133
S':'
asbag49
(g70
g51
NtRp3134
(dp3135
g54
(dp3136
sg63
g3122
sg56
(lp3137
g49
(g50
g51
NtRp3138
(dp3139
g54
(dp3140
g62
I3
ssg63
g3134
sg56
(lp3141
S''
asbasbasbag49
(g65
g51
NtRp3142
(dp3143
g54
(dp3144
sg63
g3058
sg56
(lp3145
g49
(g70
g51
NtRp3146
(dp3147
g54
(dp3148
g74
g75
ssg63
g3142
sg56
(lp3149
g347
asbag49
(g70
g51
NtRp3150
(dp3151
g54
(dp3152
g81
g82
ssg63
g3142
sg56
(lp3153
S':'
asbag49
(g70
g51
NtRp3154
(dp3155
g54
(dp3156
sg63
g3142
sg56
(lp3157
g49
(g50
g51
NtRp3158
(dp3159
g54
(dp3160
g62
I3
ssg63
g3154
sg56
(lp3161
S'/'
asbasbasbag49
(g65
g51
NtRp3162
(dp3163
g54
(dp3164
sg63
g3058
sg56
(lp3165
g49
(g70
g51
NtRp3166
(dp3167
g54
(dp3168
g74
g75
ssg63
g3162
sg56
(lp3169
g368
asbag49
(g70
g51
NtRp3170
(dp3171
g54
(dp3172
g81
g82
ssg63
g3162
sg56
(lp3173
S':'
asbag49
(g70
g51
NtRp3174
(dp3175
g54
(dp3176
sg63
g3162
sg56
(lp3177
g49
(g50
g51
NtRp3178
(dp3179
g54
(dp3180
g62
I3
ssg63
g3174
sg56
(lp3181
S''
asbasbasbag49
(g65
g51
NtRp3182
(dp3183
g54
(dp3184
sg63
g3058
sg56
(lp3185
g49
(g70
g51
NtRp3186
(dp3187
g54
(dp3188
g74
g75
ssg63
g3182
sg56
(lp3189
g389
asbag49
(g70
g51
NtRp3190
(dp3191
g54
(dp3192
g81
g82
ssg63
g3182
sg56
(lp3193
S':'
asbag49
(g70
g51
NtRp3194
(dp3195
g54
(dp3196
sg63
g3182
sg56
(lp3197
g49
(g50
g51
NtRp3198
(dp3199
g54
(dp3200
g62
I3
ssg63
g3194
sg56
(lp3201
S''
asbasbasbasbasbasbasbasbasbasbasbag49
(g65
g51
NtRp3202
(dp3203
g54
(dp3204
sg63
g2988
sg56
(lp3205
g49
(g70
g51
NtRp3206
(dp3207
g54
(dp3208
g74
g75
ssg63
g3202
sg56
(lp3209
S'delimiters'
p3210
asbag49
(g70
g51
NtRp3211
(dp3212
g54
(dp3213
g81
g82
ssg63
g3202
sg56
(lp3214
S':'
asbag49
(g70
g51
NtRp3215
(dp3216
g54
(dp3217
sg63
g3202
sg56
(lp3218
g49
(g50
g51
NtRp3219
(dp3220
g54
(dp3221
g62
I5
ssg63
g3215
sg56
(lp3222
g49
(g58
g51
NtRp3223
(dp3224
g54
(dp3225
g62
I4
ssg63
Nsg56
(lp3226
g49
(g65
g51
NtRp3227
(dp3228
g54
(dp3229
sg63
g3223
sg56
(lp3230
g49
(g70
g51
NtRp3231
(dp3232
g54
(dp3233
sg63
g3227
sg56
(lp3234
g49
(g50
g51
NtRp3235
(dp3236
g54
(dp3237
g62
I4
ssg63
g3231
sg56
(lp3238
S'{{'
p3239
asbasbasbag49
(g65
g51
NtRp3240
(dp3241
g54
(dp3242
sg63
g3223
sg56
(lp3243
g49
(g70
g51
NtRp3244
(dp3245
g54
(dp3246
sg63
g3240
sg56
(lp3247
g49
(g50
g51
NtRp3248
(dp3249
g54
(dp3250
g62
I4
ssg63
g3244
sg56
(lp3251
S'}}'
p3252
asbasbasbasbasbasbasbag49
(g65
g51
NtRp3253
(dp3254
g54
(dp3255
sg63
g2988
sg56
(lp3256
g49
(g70
g51
NtRp3257
(dp3258
g54
(dp3259
g74
g75
ssg63
g3253
sg56
(lp3260
S'files'
p3261
asbag49
(g70
g51
NtRp3262
(dp3263
g54
(dp3264
g81
g82
ssg63
g3253
sg56
(lp3265
S':'
asbag49
(g70
g51
NtRp3266
(dp3267
g54
(dp3268
sg63
g3253
sg56
(lp3269
g49
(g50
g51
NtRp3270
(dp3271
g54
(dp3272
g62
I5
ssg63
g3266
sg56
(lp3273
g49
(g58
g51
NtRp3274
(dp3275
g54
(dp3276
g62
I4
ssg63
Nsg56
(lp3277
g49
(g65
g51
NtRp3278
(dp3279
g54
(dp3280
sg63
g3274
sg56
(lp3281
g49
(g70
g51
NtRp3282
(dp3283
g54
(dp3284
sg63
g3278
sg56
(lp3285
g49
(g50
g51
NtRp3286
(dp3287
g54
(dp3288
g62
I4
ssg63
g3282
sg56
(lp3289
S'/parleyweb/static/js/jquery.js'
p3290
asbasbasbag49
(g65
g51
NtRp3291
(dp3292
g54
(dp3293
sg63
g3274
sg56
(lp3294
g49
(g70
g51
NtRp3295
(dp3296
g54
(dp3297
sg63
g3291
sg56
(lp3298
g49
(g50
g51
NtRp3299
(dp3300
g54
(dp3301
g62
I4
ssg63
g3295
sg56
(lp3302
S'/parleyweb/static/css/calendar.css'
p3303
asbasbasbag49
(g65
g51
NtRp3304
(dp3305
g54
(dp3306
sg63
g3274
sg56
(lp3307
g49
(g70
g51
NtRp3308
(dp3309
g54
(dp3310
sg63
g3304
sg56
(lp3311
g49
(g50
g51
NtRp3312
(dp3313
g54
(dp3314
g62
I4
ssg63
g3308
sg56
(lp3315
S'/parleyweb/static/js/calendar.js'
p3316
asbasbasbag49
(g65
g51
NtRp3317
(dp3318
g54
(dp3319
sg63
g3274
sg56
(lp3320
g49
(g70
g51
NtRp3321
(dp3322
g54
(dp3323
sg63
g3317
sg56
(lp3324
g49
(g50
g51
NtRp3325
(dp3326
g54
(dp3327
g62
I4
ssg63
g3321
sg56
(lp3328
S'/parleyweb/static/js/web2py.js'
p3329
asbasbasbag49
(g65
g51
NtRp3330
(dp3331
g54
(dp3332
sg63
g3274
sg56
(lp3333
g49
(g70
g51
NtRp3334
(dp3335
g54
(dp3336
sg63
g3330
sg56
(lp3337
g49
(g50
g51
NtRp3338
(dp3339
g54
(dp3340
g62
I4
ssg63
g3334
sg56
(lp3341
S'/parleyweb/static/css/bootstrap.css'
p3342
asbasbasbag49
(g65
g51
NtRp3343
(dp3344
g54
(dp3345
sg63
g3274
sg56
(lp3346
g49
(g70
g51
NtRp3347
(dp3348
g54
(dp3349
sg63
g3343
sg56
(lp3350
g49
(g50
g51
NtRp3351
(dp3352
g54
(dp3353
g62
I4
ssg63
g3347
sg56
(lp3354
S'/parleyweb/static/js/bootstrap.js'
p3355
asbasbasbag49
(g65
g51
NtRp3356
(dp3357
g54
(dp3358
sg63
g3274
sg56
(lp3359
g49
(g70
g51
NtRp3360
(dp3361
g54
(dp3362
sg63
g3356
sg56
(lp3363
g49
(g50
g51
NtRp3364
(dp3365
g54
(dp3366
g62
I4
ssg63
g3360
sg56
(lp3367
S'/parleyweb/static/css/parleyweb.css'
p3368
asbasbasbag49
(g65
g51
NtRp3369
(dp3370
g54
(dp3371
sg63
g3274
sg56
(lp3372
g49
(g70
g51
NtRp3373
(dp3374
g54
(dp3375
sg63
g3369
sg56
(lp3376
g49
(g50
g51
NtRp3377
(dp3378
g54
(dp3379
g62
I4
ssg63
g3373
sg56
(lp3380
S'/parleyweb/static/css/jquery-ui-1.8.18.custom.css'
p3381
asbasbasbag49
(g65
g51
NtRp3382
(dp3383
g54
(dp3384
sg63
g3274
sg56
(lp3385
g49
(g70
g51
NtRp3386
(dp3387
g54
(dp3388
sg63
g3382
sg56
(lp3389
g49
(g50
g51
NtRp3390
(dp3391
g54
(dp3392
g62
I4
ssg63
g3386
sg56
(lp3393
S'/parleyweb/static/js/parleyweb.js'
p3394
asbasbasbag49
(g65
g51
NtRp3395
(dp3396
g54
(dp3397
sg63
g3274
sg56
(lp3398
g49
(g70
g51
NtRp3399
(dp3400
g54
(dp3401
sg63
g3395
sg56
(lp3402
g49
(g50
g51
NtRp3403
(dp3404
g54
(dp3405
g62
I4
ssg63
g3399
sg56
(lp3406
S'/parleyweb/static/js/jquery-ui-1.8.18.custom.min.js'
p3407
asbasbasbasbasbasbasbag49
(g65
g51
NtRp3408
(dp3409
g54
(dp3410
sg63
g2988
sg56
(lp3411
g49
(g70
g51
NtRp3412
(dp3413
g54
(dp3414
g74
g75
ssg63
g3408
sg56
(lp3415
S'flash'
p3416
asbag49
(g70
g51
NtRp3417
(dp3418
g54
(dp3419
g81
g82
ssg63
g3408
sg56
(lp3420
S':'
asbag49
(g70
g51
NtRp3421
(dp3422
g54
(dp3423
sg63
g3408
sg56
(lp3424
g49
(g50
g51
NtRp3425
(dp3426
g54
(dp3427
g62
I5
ssg63
g3421
sg56
(lp3428
S''
asbasbasbag49
(g65
g51
NtRp3429
(dp3430
g54
(dp3431
sg63
g2988
sg56
(lp3432
g49
(g70
g51
NtRp3433
(dp3434
g54
(dp3435
g74
g75
ssg63
g3429
sg56
(lp3436
S'generic_patterns'
p3437
asbag49
(g70
g51
NtRp3438
(dp3439
g54
(dp3440
g81
g82
ssg63
g3429
sg56
(lp3441
S':'
asbag49
(g70
g51
NtRp3442
(dp3443
g54
(dp3444
sg63
g3429
sg56
(lp3445
g49
(g50
g51
NtRp3446
(dp3447
g54
(dp3448
g62
I5
ssg63
g3442
sg56
(lp3449
g49
(g58
g51
NtRp3450
(dp3451
g54
(dp3452
g62
I4
ssg63
Nsg56
(lp3453
g49
(g65
g51
NtRp3454
(dp3455
g54
(dp3456
sg63
g3450
sg56
(lp3457
g49
(g70
g51
NtRp3458
(dp3459
g54
(dp3460
sg63
g3454
sg56
(lp3461
g49
(g50
g51
NtRp3462
(dp3463
g54
(dp3464
g62
I4
ssg63
g3458
sg56
(lp3465
S'*'
asbasbasbasbasbasbasbag49
(g65
g51
NtRp3466
(dp3467
g54
(dp3468
sg63
g2988
sg56
(lp3469
g49
(g70
g51
NtRp3470
(dp3471
g54
(dp3472
g74
g75
ssg63
g3466
sg56
(lp3473
S'headers'
p3474
asbag49
(g70
g51
NtRp3475
(dp3476
g54
(dp3477
g81
g82
ssg63
g3466
sg56
(lp3478
S':'
asbag49
(g70
g51
NtRp3479
(dp3480
g54
(dp3481
sg63
g3466
sg56
(lp3482
g49
(g50
g51
NtRp3483
(dp3484
g54
(dp3485
g62
I5
ssg63
g3479
sg56
(lp3486
g49
(g58
g51
NtRp3487
(dp3488
g54
(dp3489
g62
I4
ssg63
Nsg56
(lp3490
g49
(g65
g51
NtRp3491
(dp3492
g54
(dp3493
sg63
g3487
sg56
(lp3494
g49
(g70
g51
NtRp3495
(dp3496
g54
(dp3497
g74
g75
ssg63
g3491
sg56
(lp3498
S'Cache-Control'
p3499
asbag49
(g70
g51
NtRp3500
(dp3501
g54
(dp3502
g81
g82
ssg63
g3491
sg56
(lp3503
S':'
asbag49
(g70
g51
NtRp3504
(dp3505
g54
(dp3506
sg63
g3491
sg56
(lp3507
g49
(g50
g51
NtRp3508
(dp3509
g54
(dp3510
g62
I4
ssg63
g3504
sg56
(lp3511
S'no-store, no-cache, must-revalidate, post-check=0, pre-check=0'
p3512
asbasbasbag49
(g65
g51
NtRp3513
(dp3514
g54
(dp3515
sg63
g3487
sg56
(lp3516
g49
(g70
g51
NtRp3517
(dp3518
g54
(dp3519
g74
g75
ssg63
g3513
sg56
(lp3520
S'Content-Type'
p3521
asbag49
(g70
g51
NtRp3522
(dp3523
g54
(dp3524
g81
g82
ssg63
g3513
sg56
(lp3525
S':'
asbag49
(g70
g51
NtRp3526
(dp3527
g54
(dp3528
sg63
g3513
sg56
(lp3529
g49
(g50
g51
NtRp3530
(dp3531
g54
(dp3532
g62
I4
ssg63
g3526
sg56
(lp3533
S'text/html; charset=utf-8'
p3534
asbasbasbag49
(g65
g51
NtRp3535
(dp3536
g54
(dp3537
sg63
g3487
sg56
(lp3538
g49
(g70
g51
NtRp3539
(dp3540
g54
(dp3541
g74
g75
ssg63
g3535
sg56
(lp3542
S'Expires'
p3543
asbag49
(g70
g51
NtRp3544
(dp3545
g54
(dp3546
g81
g82
ssg63
g3535
sg56
(lp3547
S':'
asbag49
(g70
g51
NtRp3548
(dp3549
g54
(dp3550
sg63
g3535
sg56
(lp3551
g49
(g50
g51
NtRp3552
(dp3553
g54
(dp3554
g62
I4
ssg63
g3548
sg56
(lp3555
S'Fri, 16 Mar 2012 22:51:32 GMT'
p3556
asbasbasbag49
(g65
g51
NtRp3557
(dp3558
g54
(dp3559
sg63
g3487
sg56
(lp3560
g49
(g70
g51
NtRp3561
(dp3562
g54
(dp3563
g74
g75
ssg63
g3557
sg56
(lp3564
S'Pragma'
p3565
asbag49
(g70
g51
NtRp3566
(dp3567
g54
(dp3568
g81
g82
ssg63
g3557
sg56
(lp3569
S':'
asbag49
(g70
g51
NtRp3570
(dp3571
g54
(dp3572
sg63
g3557
sg56
(lp3573
g49
(g50
g51
NtRp3574
(dp3575
g54
(dp3576
g62
I4
ssg63
g3570
sg56
(lp3577
S'no-cache'
p3578
asbasbasbag49
(g65
g51
NtRp3579
(dp3580
g54
(dp3581
sg63
g3487
sg56
(lp3582
g49
(g70
g51
NtRp3583
(dp3584
g54
(dp3585
g74
g75
ssg63
g3579
sg56
(lp3586
S'X-Powered-By'
p3587
asbag49
(g70
g51
NtRp3588
(dp3589
g54
(dp3590
g81
g82
ssg63
g3579
sg56
(lp3591
S':'
asbag49
(g70
g51
NtRp3592
(dp3593
g54
(dp3594
sg63
g3579
sg56
(lp3595
g49
(g50
g51
NtRp3596
(dp3597
g54
(dp3598
g62
I4
ssg63
g3592
sg56
(lp3599
S'web2py'
p3600
asbasbasbasbasbasbasbag49
(g65
g51
NtRp3601
(dp3602
g54
(dp3603
sg63
g2988
sg56
(lp3604
g49
(g70
g51
NtRp3605
(dp3606
g54
(dp3607
g74
g75
ssg63
g3601
sg56
(lp3608
S'menu'
p3609
asbag49
(g70
g51
NtRp3610
(dp3611
g54
(dp3612
g81
g82
ssg63
g3601
sg56
(lp3613
S':'
asbag49
(g70
g51
NtRp3614
(dp3615
g54
(dp3616
sg63
g3601
sg56
(lp3617
g49
(g50
g51
NtRp3618
(dp3619
g54
(dp3620
g62
I5
ssg63
g3614
sg56
(lp3621
g49
(g58
g51
NtRp3622
(dp3623
g54
(dp3624
g62
I4
ssg63
Nsg56
(lp3625
g49
(g65
g51
NtRp3626
(dp3627
g54
(dp3628
sg63
g3622
sg56
(lp3629
g49
(g70
g51
NtRp3630
(dp3631
g54
(dp3632
sg63
g3626
sg56
(lp3633
g49
(g50
g51
NtRp3634
(dp3635
g54
(dp3636
g62
I4
ssg63
g3630
sg56
(lp3637
g49
(g58
g51
NtRp3638
(dp3639
g54
(dp3640
g62
I3
ssg63
Nsg56
(lp3641
g49
(g65
g51
NtRp3642
(dp3643
g54
(dp3644
sg63
g3638
sg56
(lp3645
g49
(g70
g51
NtRp3646
(dp3647
g54
(dp3648
sg63
g3642
sg56
(lp3649
g49
(g50
g51
NtRp3650
(dp3651
g54
(dp3652
g62
I3
ssg63
g3646
sg56
(lp3653
cgluon.languages
lazyT_unpickle
p3654
(S't\x04\x00\x00\x00Home'
tRp3655
asbasbasbag49
(g65
g51
NtRp3656
(dp3657
g54
(dp3658
sg63
g3638
sg56
(lp3659
g49
(g70
g51
NtRp3660
(dp3661
g54
(dp3662
sg63
g3656
sg56
(lp3663
g49
(g50
g51
NtRp3664
(dp3665
g54
(dp3666
g62
I3
ssg63
g3660
sg56
(lp3667
g92
asbasbasbag49
(g65
g51
NtRp3668
(dp3669
g54
(dp3670
sg63
g3638
sg56
(lp3671
g49
(g70
g51
NtRp3672
(dp3673
g54
(dp3674
sg63
g3668
sg56
(lp3675
g49
(g50
g51
NtRp3676
(dp3677
g54
(dp3678
g62
I3
ssg63
g3672
sg56
(lp3679
S'/parleyweb/default/index'
p3680
asbasbasbag49
(g65
g51
NtRp3681
(dp3682
g54
(dp3683
sg63
g3638
sg56
(lp3684
g49
(g70
g51
NtRp3685
(dp3686
g54
(dp3687
sg63
g3681
sg56
(lp3688
g49
(g50
g51
NtRp3689
(dp3690
g54
(dp3691
g62
I3
ssg63
g3685
sg56
(lp3692
g49
(g58
g51
NtRp3693
(dp3694
g54
(dp3695
g62
I2
ssg63
Nsg56
(lp3696
sbasbasbasbasbasbasbasbasbasbasbasbag49
(g65
g51
NtRp3697
(dp3698
g54
(dp3699
sg63
g2988
sg56
(lp3700
g49
(g70
g51
NtRp3701
(dp3702
g54
(dp3703
g74
g75
ssg63
g3697
sg56
(lp3704
S'meta'
p3705
asbag49
(g70
g51
NtRp3706
(dp3707
g54
(dp3708
g81
g82
ssg63
g3697
sg56
(lp3709
S':'
asbag49
(g70
g51
NtRp3710
(dp3711
g54
(dp3712
sg63
g3697
sg56
(lp3713
g49
(g50
g51
NtRp3714
(dp3715
g54
(dp3716
g62
I5
ssg63
g3710
sg56
(lp3717
g49
(g58
g51
NtRp3718
(dp3719
g54
(dp3720
g62
I4
ssg63
Nsg56
(lp3721
g49
(g65
g51
NtRp3722
(dp3723
g54
(dp3724
sg63
g3718
sg56
(lp3725
g49
(g70
g51
NtRp3726
(dp3727
g54
(dp3728
g74
g75
ssg63
g3722
sg56
(lp3729
S'author'
p3730
asbag49
(g70
g51
NtRp3731
(dp3732
g54
(dp3733
g81
g82
ssg63
g3722
sg56
(lp3734
S':'
asbag49
(g70
g51
NtRp3735
(dp3736
g54
(dp3737
sg63
g3722
sg56
(lp3738
g49
(g50
g51
NtRp3739
(dp3740
g54
(dp3741
g62
I4
ssg63
g3735
sg56
(lp3742
S'Your Name <you@example.com>'
p3743
asbasbasbag49
(g65
g51
NtRp3744
(dp3745
g54
(dp3746
sg63
g3718
sg56
(lp3747
g49
(g70
g51
NtRp3748
(dp3749
g54
(dp3750
g74
g75
ssg63
g3744
sg56
(lp3751
S'copyright'
p3752
asbag49
(g70
g51
NtRp3753
(dp3754
g54
(dp3755
g81
g82
ssg63
g3744
sg56
(lp3756
S':'
asbag49
(g70
g51
NtRp3757
(dp3758
g54
(dp3759
sg63
g3744
sg56
(lp3760
g49
(g50
g51
NtRp3761
(dp3762
g54
(dp3763
g62
I4
ssg63
g3757
sg56
(lp3764
S'Copyright 2011'
p3765
asbasbasbag49
(g65
g51
NtRp3766
(dp3767
g54
(dp3768
sg63
g3718
sg56
(lp3769
g49
(g70
g51
NtRp3770
(dp3771
g54
(dp3772
g74
g75
ssg63
g3766
sg56
(lp3773
S'description'
p3774
asbag49
(g70
g51
NtRp3775
(dp3776
g54
(dp3777
g81
g82
ssg63
g3766
sg56
(lp3778
S':'
asbag49
(g70
g51
NtRp3779
(dp3780
g54
(dp3781
sg63
g3766
sg56
(lp3782
g49
(g50
g51
NtRp3783
(dp3784
g54
(dp3785
g62
I4
ssg63
g3779
sg56
(lp3786
S'a cool new app'
p3787
asbasbasbag49
(g65
g51
NtRp3788
(dp3789
g54
(dp3790
sg63
g3718
sg56
(lp3791
g49
(g70
g51
NtRp3792
(dp3793
g54
(dp3794
g74
g75
ssg63
g3788
sg56
(lp3795
S'generator'
p3796
asbag49
(g70
g51
NtRp3797
(dp3798
g54
(dp3799
g81
g82
ssg63
g3788
sg56
(lp3800
S':'
asbag49
(g70
g51
NtRp3801
(dp3802
g54
(dp3803
sg63
g3788
sg56
(lp3804
g49
(g50
g51
NtRp3805
(dp3806
g54
(dp3807
g62
I4
ssg63
g3801
sg56
(lp3808
S'Web2py Web Framework'
p3809
asbasbasbag49
(g65
g51
NtRp3810
(dp3811
g54
(dp3812
sg63
g3718
sg56
(lp3813
g49
(g70
g51
NtRp3814
(dp3815
g54
(dp3816
g74
g75
ssg63
g3810
sg56
(lp3817
S'keywords'
p3818
asbag49
(g70
g51
NtRp3819
(dp3820
g54
(dp3821
g81
g82
ssg63
g3810
sg56
(lp3822
S':'
asbag49
(g70
g51
NtRp3823
(dp3824
g54
(dp3825
sg63
g3810
sg56
(lp3826
g49
(g50
g51
NtRp3827
(dp3828
g54
(dp3829
g62
I4
ssg63
g3823
sg56
(lp3830
S'web2py, python, framework'
p3831
asbasbasbasbasbasbasbag49
(g65
g51
NtRp3832
(dp3833
g54
(dp3834
sg63
g2988
sg56
(lp3835
g49
(g70
g51
NtRp3836
(dp3837
g54
(dp3838
g74
g75
ssg63
g3832
sg56
(lp3839
S'postprocessing'
p3840
asbag49
(g70
g51
NtRp3841
(dp3842
g54
(dp3843
g81
g82
ssg63
g3832
sg56
(lp3844
S':'
asbag49
(g70
g51
NtRp3845
(dp3846
g54
(dp3847
sg63
g3832
sg56
(lp3848
g49
(g50
g51
NtRp3849
(dp3850
g54
(dp3851
g62
I5
ssg63
g3845
sg56
(lp3852
g49
(g58
g51
NtRp3853
(dp3854
g54
(dp3855
g62
I4
ssg63
Nsg56
(lp3856
sbasbasbasbag49
(g65
g51
NtRp3857
(dp3858
g54
(dp3859
sg63
g2988
sg56
(lp3860
g49
(g70
g51
NtRp3861
(dp3862
g54
(dp3863
g74
g75
ssg63
g3857
sg56
(lp3864
S'session_file'
p3865
asbag49
(g70
g51
NtRp3866
(dp3867
g54
(dp3868
g81
g82
ssg63
g3857
sg56
(lp3869
S':'
asbag49
(g70
g51
NtRp3870
(dp3871
g54
(dp3872
sg63
g3857
sg56
(lp3873
g49
(g50
g51
NtRp3874
(dp3875
g54
(dp3876
g62
I5
ssg63
g3870
sg56
(lp3877
S"<open file 'D:\\Dise\xf1o Web\\Proyectos\\Parleyweb\\web2py\\applications\\parleyweb\\sessions\\127.0.0.1-0780c0c1-affd-425a-affb-ac061c4961c7', mode 'rb+' at 0x06F0E6E0>"
p3878
asbasbasbag49
(g65
g51
NtRp3879
(dp3880
g54
(dp3881
sg63
g2988
sg56
(lp3882
g49
(g70
g51
NtRp3883
(dp3884
g54
(dp3885
g74
g75
ssg63
g3879
sg56
(lp3886
S'session_filename'
p3887
asbag49
(g70
g51
NtRp3888
(dp3889
g54
(dp3890
g81
g82
ssg63
g3879
sg56
(lp3891
S':'
asbag49
(g70
g51
NtRp3892
(dp3893
g54
(dp3894
sg63
g3879
sg56
(lp3895
g49
(g50
g51
NtRp3896
(dp3897
g54
(dp3898
g62
I5
ssg63
g3892
sg56
(lp3899
S'D:\\Dise\xf1o Web\\Proyectos\\Parleyweb\\web2py\\applications\\parleyweb\\sessions\\127.0.0.1-0780c0c1-affd-425a-affb-ac061c4961c7'
p3900
asbasbasbag49
(g65
g51
NtRp3901
(dp3902
g54
(dp3903
sg63
g2988
sg56
(lp3904
g49
(g70
g51
NtRp3905
(dp3906
g54
(dp3907
g74
g75
ssg63
g3901
sg56
(lp3908
S'session_id'
p3909
asbag49
(g70
g51
NtRp3910
(dp3911
g54
(dp3912
g81
g82
ssg63
g3901
sg56
(lp3913
S':'
asbag49
(g70
g51
NtRp3914
(dp3915
g54
(dp3916
sg63
g3901
sg56
(lp3917
g49
(g50
g51
NtRp3918
(dp3919
g54
(dp3920
g62
I5
ssg63
g3914
sg56
(lp3921
S'127.0.0.1-0780c0c1-affd-425a-affb-ac061c4961c7'
p3922
asbasbasbag49
(g65
g51
NtRp3923
(dp3924
g54
(dp3925
sg63
g2988
sg56
(lp3926
g49
(g70
g51
NtRp3927
(dp3928
g54
(dp3929
g74
g75
ssg63
g3923
sg56
(lp3930
S'session_id_name'
p3931
asbag49
(g70
g51
NtRp3932
(dp3933
g54
(dp3934
g81
g82
ssg63
g3923
sg56
(lp3935
S':'
asbag49
(g70
g51
NtRp3936
(dp3937
g54
(dp3938
sg63
g3923
sg56
(lp3939
g49
(g50
g51
NtRp3940
(dp3941
g54
(dp3942
g62
I5
ssg63
g3936
sg56
(lp3943
g3045
asbasbasbag49
(g65
g51
NtRp3944
(dp3945
g54
(dp3946
sg63
g2988
sg56
(lp3947
g49
(g70
g51
NtRp3948
(dp3949
g54
(dp3950
g74
g75
ssg63
g3944
sg56
(lp3951
S'session_locked'
p3952
asbag49
(g70
g51
NtRp3953
(dp3954
g54
(dp3955
g81
g82
ssg63
g3944
sg56
(lp3956
S':'
asbag49
(g70
g51
NtRp3957
(dp3958
g54
(dp3959
sg63
g3944
sg56
(lp3960
g49
(g50
g51
NtRp3961
(dp3962
g54
(dp3963
g62
I5
ssg63
g3957
sg56
(lp3964
g1609
asbasbasbag49
(g65
g51
NtRp3965
(dp3966
g54
(dp3967
sg63
g2988
sg56
(lp3968
g49
(g70
g51
NtRp3969
(dp3970
g54
(dp3971
g74
g75
ssg63
g3965
sg56
(lp3972
S'session_new'
p3973
asbag49
(g70
g51
NtRp3974
(dp3975
g54
(dp3976
g81
g82
ssg63
g3965
sg56
(lp3977
S':'
asbag49
(g70
g51
NtRp3978
(dp3979
g54
(dp3980
sg63
g3965
sg56
(lp3981
g49
(g50
g51
NtRp3982
(dp3983
g54
(dp3984
g62
I5
ssg63
g3978
sg56
(lp3985
g92
asbasbasbag49
(g65
g51
NtRp3986
(dp3987
g54
(dp3988
sg63
g2988
sg56
(lp3989
g49
(g70
g51
NtRp3990
(dp3991
g54
(dp3992
g74
g75
ssg63
g3986
sg56
(lp3993
S'status'
p3994
asbag49
(g70
g51
NtRp3995
(dp3996
g54
(dp3997
g81
g82
ssg63
g3986
sg56
(lp3998
S':'
asbag49
(g70
g51
NtRp3999
(dp4000
g54
(dp4001
sg63
g3986
sg56
(lp4002
g49
(g50
g51
NtRp4003
(dp4004
g54
(dp4005
g62
I5
ssg63
g3999
sg56
(lp4006
S'200'
p4007
asbasbasbag49
(g65
g51
NtRp4008
(dp4009
g54
(dp4010
sg63
g2988
sg56
(lp4011
g49
(g70
g51
NtRp4012
(dp4013
g54
(dp4014
g74
g75
ssg63
g4008
sg56
(lp4015
S'subtitle'
p4016
asbag49
(g70
g51
NtRp4017
(dp4018
g54
(dp4019
g81
g82
ssg63
g4008
sg56
(lp4020
S':'
asbag49
(g70
g51
NtRp4021
(dp4022
g54
(dp4023
sg63
g4008
sg56
(lp4024
g49
(g50
g51
NtRp4025
(dp4026
g54
(dp4027
g62
I5
ssg63
g4021
sg56
(lp4028
g3654
(S's\t\x00\x00\x00Adaptame!'
tRp4029
asbasbasbag49
(g65
g51
NtRp4030
(dp4031
g54
(dp4032
sg63
g2988
sg56
(lp4033
g49
(g70
g51
NtRp4034
(dp4035
g54
(dp4036
g74
g75
ssg63
g4030
sg56
(lp4037
S'title'
p4038
asbag49
(g70
g51
NtRp4039
(dp4040
g54
(dp4041
g81
g82
ssg63
g4030
sg56
(lp4042
S':'
asbag49
(g70
g51
NtRp4043
(dp4044
g54
(dp4045
sg63
g4030
sg56
(lp4046
g49
(g50
g51
NtRp4047
(dp4048
g54
(dp4049
g62
I5
ssg63
g4043
sg56
(lp4050
S'Parleyweb'
p4051
asbasbasbag49
(g65
g51
NtRp4052
(dp4053
g54
(dp4054
sg63
g2988
sg56
(lp4055
g49
(g70
g51
NtRp4056
(dp4057
g54
(dp4058
g74
g75
ssg63
g4052
sg56
(lp4059
g2273
asbag49
(g70
g51
NtRp4060
(dp4061
g54
(dp4062
g81
g82
ssg63
g4052
sg56
(lp4063
S':'
asbag49
(g70
g51
NtRp4064
(dp4065
g54
(dp4066
sg63
g4052
sg56
(lp4067
g49
(g50
g51
NtRp4068
(dp4069
g54
(dp4070
g62
I5
ssg63
g4064
sg56
(lp4071
g2286
asbasbasbag49
(g65
g51
NtRp4072
(dp4073
g54
(dp4074
sg63
g2988
sg56
(lp4075
g49
(g70
g51
NtRp4076
(dp4077
g54
(dp4078
g74
g75
ssg63
g4072
sg56
(lp4079
S'view'
p4080
asbag49
(g70
g51
NtRp4081
(dp4082
g54
(dp4083
g81
g82
ssg63
g4072
sg56
(lp4084
S':'
asbag49
(g70
g51
NtRp4085
(dp4086
g54
(dp4087
sg63
g4072
sg56
(lp4088
g49
(g50
g51
NtRp4089
(dp4090
g54
(dp4091
g62
I5
ssg63
g4085
sg56
(lp4092
S'default/index.html'
p4093
asbasbasbasbasbsS'locals'
p4094
(dp4095
S'Service'
p4096
S"<class 'gluon.tools.Service'>"
p4097
sS'OBJECT'
p4098
S"<class 'gluon.html.OBJECT'>"
p4099
sS'SQLDB'
p4100
S"<class 'gluon.dal.DAL'>"
p4101
sg2970
S"<Storage {'_formkey[palabras/create]': '1a2069be...as/90]': '46463833-6217-406a-966c-227f97d23b60'}>"
p4102
sS'LINK'
p4103
S"<class 'gluon.html.LINK'>"
p4104
sS'BR'
p4105
S"<class 'gluon.html.BR'>"
p4106
sS'local_import'
p4107
S'<function <lambda> at 0x07758BF0>'
p4108
sS'OPTGROUP'
p4109
S"<class 'gluon.html.OPTGROUP'>"
p4110
sS'PRE'
p4111
S"<class 'gluon.html.PRE'>"
p4112
sS'IS_INT_IN_RANGE'
p4113
S"<class 'gluon.validators.IS_INT_IN_RANGE'>"
p4114
sS'left_sidebar_enabled'
p4115
g92
sS'IS_LOWER'
p4116
S"<class 'gluon.validators.IS_LOWER'>"
p4117
sS'IS_STRONG'
p4118
S"<class 'gluon.validators.IS_STRONG'>"
p4119
sS'cache'
p4120
S'<gluon.cache.Cache object at 0x077F3C10>'
p4121
sS'IS_IN_DB'
p4122
S"<class 'gluon.validators.IS_IN_DB'>"
p4123
sS'TAG'
p4124
S'<gluon.html.__TAG__ object at 0x027F1D50>'
p4125
sS'SQLField'
p4126
S"<class 'gluon.dal.Field'>"
p4127
sS'mail'
p4128
S'<gluon.tools.Mail object at 0x07BCFF90>'
p4129
sS'BODY'
p4130
S"<class 'gluon.html.BODY'>"
p4131
sS'IS_DATE_IN_RANGE'
p4132
S"<class 'gluon.validators.IS_DATE_IN_RANGE'>"
p4133
sS'TH'
p4134
S"<class 'gluon.html.TH'>"
p4135
sS'URL'
p4136
S'<function URL at 0x02857EB0>'
p4137
sS'__file__'
p4138
S"'D:\\\\Dise\\xf1o Web\\\\Proyectos\\\\Parleyweb\\\\web2py\\\\applications\\\\parleyweb\\\\views\\\\default/index.html'"
p4139
sS'db'
p4140
S"<DAL {'auth_event': <Table {'origin': <gluon.dal..._key': <gluon.dal.Field object at 0x078F58B0>}>}>"
p4141
sS'auth'
p4142
S'<gluon.tools.Auth object at 0x07BCFBD0>'
p4143
sS'P'
S"<class 'gluon.html.P'>"
p4144
sS'TFOOT'
p4145
S"<class 'gluon.html.TFOOT'>"
p4146
sS'XHTML'
p4147
S"<class 'gluon.html.XHTML'>"
p4148
sS'ON'
p4149
g1609
sS'OL'
p4150
S"<class 'gluon.html.OL'>"
p4151
sS'TEXTAREA'
p4152
S"<class 'gluon.html.TEXTAREA'>"
p4153
sS'MENU'
p4154
S"<class 'gluon.html.MENU'>"
p4155
sS'LOAD'
p4156
S'<function LOAD at 0x02B417B0>'
p4157
sS'CODE'
p4158
S"<class 'gluon.html.CODE'>"
p4159
sS'HTTP'
p4160
S"<class 'gluon.http.HTTP'>"
p4161
sS'HR'
p4162
S"<class 'gluon.html.HR'>"
p4163
sS'IS_DATETIME'
p4164
S"<class 'gluon.validators.IS_DATETIME'>"
p4165
sS'HEAD'
p4166
S"<class 'gluon.html.HEAD'>"
p4167
sS'LABEL'
p4168
S"<class 'gluon.html.LABEL'>"
p4169
sS'CLEANUP'
p4170
S"<class 'gluon.validators.CLEANUP'>"
p4171
sS'plugins'
p4172
S'<gluon.tools.PluginManager object at 0x06D1E610>'
p4173
sS'SELECT'
p4174
S"<class 'gluon.html.SELECT'>"
p4175
sS'use_janrain'
p4176
S'<function use_janrain at 0x031113B0>'
p4177
sS'CENTER'
p4178
S"<class 'gluon.html.CENTER'>"
p4179
sS'prettydate'
p4180
S'<function prettydate at 0x032AEDF0>'
p4181
sS'Crud'
p4182
S"<class 'gluon.tools.Crud'>"
p4183
sS'Auth'
p4184
S"<class 'gluon.tools.Auth'>"
p4185
sS'__builtins__'
p4186
S"{'ArithmeticError': <type 'exceptions.ArithmeticError'>, 'AssertionError': <type 'exceptions.AssertionError'>, 'AttributeError': <type 'exceptions.AttributeError'>, 'BaseException': <type 'exceptions.BaseException'>, 'DeprecationWarning': <type 'exceptions.DeprecationWarning'>, 'EOFError': <type 'exceptions.EOFError'>, 'Ellipsis': Ellipsis, 'EnvironmentError': <type 'exceptions.EnvironmentError'>, 'Exception': <type 'exceptions.Exception'>, 'False': False, ...}"
p4187
sS'HTML'
p4188
S"<class 'gluon.html.HTML'>"
p4189
sS'SQLFORM'
p4190
S"<class 'gluon.sqlhtml.SQLFORM'>"
p4191
sS'EM'
p4192
S"<class 'gluon.html.EM'>"
p4193
sS'redirect'
p4194
S'<function redirect at 0x0247BB70>'
p4195
sS'FIELDSET'
p4196
S"<class 'gluon.html.FIELDSET'>"
p4197
sS'IS_EQUAL_TO'
p4198
S"<class 'gluon.validators.IS_EQUAL_TO'>"
p4199
sS'embed64'
p4200
S'<function embed64 at 0x028669F0>'
p4201
sS'IS_LIST_OF'
p4202
S"<class 'gluon.validators.IS_LIST_OF'>"
p4203
sS'__name__'
p4204
S"'__restricted__'"
p4205
sS'EMBED'
p4206
S"<class 'gluon.html.EMBED'>"
p4207
sS'_'
S'<function _ at 0x07758F30>'
p4208
sS'FORM'
p4209
S"<class 'gluon.html.FORM'>"
p4210
sS'H2'
p4211
S"<class 'gluon.html.H2'>"
p4212
sS'H3'
p4213
S"<class 'gluon.html.H3'>"
p4214
sS'BUTTON'
p4215
S"<class 'gluon.html.BUTTON'>"
p4216
sS'H1'
p4217
S"<class 'gluon.html.H1'>"
p4218
sS'H6'
p4219
S"<class 'gluon.html.H6'>"
p4220
sS'H4'
p4221
S"<class 'gluon.html.H4'>"
p4222
sS'H5'
p4223
S"<class 'gluon.html.H5'>"
p4224
sS'UL'
p4225
S"<class 'gluon.html.UL'>"
p4226
sS'IS_UPPER'
p4227
S"<class 'gluon.validators.IS_UPPER'>"
p4228
sS'xmlescape'
p4229
S'<function xmlescape at 0x02857E30>'
p4230
sS'IS_TIME'
p4231
S"<class 'gluon.validators.IS_TIME'>"
p4232
sS'OPTION'
p4233
S"<class 'gluon.html.OPTION'>"
p4234
sS'TITLE'
p4235
S"<class 'gluon.html.TITLE'>"
p4236
sS'CRYPT'
p4237
S"<class 'gluon.validators.CRYPT'>"
p4238
sS'IS_EMPTY_OR'
p4239
S"<class 'gluon.validators.IS_EMPTY_OR'>"
p4240
sS'MARKMIN'
p4241
S"<class 'gluon.html.MARKMIN'>"
p4242
sS'INPUT'
p4243
S"<class 'gluon.html.INPUT'>"
p4244
sS'COL'
p4245
S"<class 'gluon.html.COL'>"
p4246
sS'service'
p4247
S'<gluon.tools.Service object at 0x078F5370>'
p4248
sS'SCRIPT'
p4249
S"<class 'gluon.html.SCRIPT'>"
p4250
sS'TABLE'
p4251
S"<class 'gluon.html.TABLE'>"
p4252
sS'IS_IPV4'
p4253
S"<class 'gluon.validators.IS_IPV4'>"
p4254
sS'IS_LENGTH'
p4255
S"<class 'gluon.validators.IS_LENGTH'>"
p4256
sS'XML'
p4257
S"<class 'gluon.html.XML'>"
p4258
sS'B'
S"<class 'gluon.html.B'>"
p4259
sS'formbusqueda'
p4260
S'<function formbusqueda at 0x07758930>'
p4261
sS'SQLTABLE'
p4262
S"<class 'gluon.sqlhtml.SQLTABLE'>"
p4263
sS'IS_MATCH'
p4264
S"<class 'gluon.validators.IS_MATCH'>"
p4265
sS'IS_ALPHANUMERIC'
p4266
S"<class 'gluon.validators.IS_ALPHANUMERIC'>"
p4267
sS'SPAN'
p4268
S"<class 'gluon.html.SPAN'>"
p4269
sS'IS_SLUG'
p4270
S"<class 'gluon.validators.IS_SLUG'>"
p4271
sS'BEAUTIFY'
p4272
S"<class 'gluon.html.BEAUTIFY'>"
p4273
sS'META'
p4274
S"<class 'gluon.html.META'>"
p4275
sS'IS_DATE'
p4276
S"<class 'gluon.validators.IS_DATE'>"
p4277
sS'IS_EMAIL'
p4278
S"<class 'gluon.validators.IS_EMAIL'>"
p4279
sS'IS_NOT_EMPTY'
p4280
S"<class 'gluon.validators.IS_NOT_EMPTY'>"
p4281
sS'IS_FLOAT_IN_RANGE'
p4282
S"<class 'gluon.validators.IS_FLOAT_IN_RANGE'>"
p4283
sS'TBODY'
p4284
S"<class 'gluon.html.TBODY'>"
p4285
sS'CAT'
p4286
S"<class 'gluon.html.CAT'>"
p4287
sS'Field'
p4288
S"<class 'gluon.dal.Field'>"
p4289
sS'middle_columns'
p4290
S"'sixteen'"
p4291
sS'DIV'
p4292
S"<class 'gluon.html.DIV'>"
p4293
sS'LEGEND'
p4294
S"<class 'gluon.html.LEGEND'>"
p4295
sS'IMG'
p4296
S"<class 'gluon.html.IMG'>"
p4297
sS'COLGROUP'
p4298
S"<class 'gluon.html.COLGROUP'>"
p4299
sS'DAL'
p4300
S"<class 'gluon.dal.DAL'>"
p4301
sS'TT'
p4302
S"<class 'gluon.html.TT'>"
p4303
sS'TR'
p4304
S"<class 'gluon.html.TR'>"
p4305
sS'LI'
p4306
S"<class 'gluon.html.LI'>"
p4307
sS'right_sidebar_enabled'
p4308
g92
sS'IFRAME'
p4309
S"<class 'gluon.html.IFRAME'>"
p4310
sS'TD'
p4311
S"<class 'gluon.html.TD'>"
p4312
sS'PluginManager'
p4313
S"<class 'gluon.tools.PluginManager'>"
p4314
sS'IS_URL'
p4315
S"<class 'gluon.validators.IS_URL'>"
p4316
sS'A'
S"<class 'gluon.html.A'>"
p4317
sS'STYLE'
p4318
S"<class 'gluon.html.STYLE'>"
p4319
sS'IS_DATETIME_IN_RANGE'
p4320
S"<class 'gluon.validators.IS_DATETIME_IN_RANGE'>"
p4321
sS'IS_IMAGE'
p4322
S"<class 'gluon.validators.IS_IMAGE'>"
p4323
sS'I'
S"<class 'gluon.html.I'>"
p4324
sS'crud'
p4325
S'<gluon.tools.Crud object at 0x078F5990>'
p4326
sS'IS_NOT_IN_DB'
p4327
S"<class 'gluon.validators.IS_NOT_IN_DB'>"
p4328
sg2983
S"<Storage {'body': <cStringIO.StringO object at 0...a> at 0x0725E0F0>, 'view': 'default/index.html'}>"
p4329
sS'THEAD'
p4330
S"<class 'gluon.html.THEAD'>"
p4331
sS'IS_NULL_OR'
p4332
S"<class 'gluon.validators.IS_EMPTY_OR'>"
p4333
sg48
S"<Storage {'body': <cStringIO.StringO object at 0..._vars': <Storage {}>, 'post_vars': <Storage {}>}>"
p4334
sS'IS_EXPR'
p4335
S"<class 'gluon.validators.IS_EXPR'>"
p4336
sS'T'
S'<gluon.languages.translator object at 0x07BCFEF0>'
p4337
sS'IS_IN_SET'
p4338
S"<class 'gluon.validators.IS_IN_SET'>"
p4339
sS'IS_UPLOAD_FILENAME'
p4340
S"<class 'gluon.validators.IS_UPLOAD_FILENAME'>"
p4341
sS'IS_DECIMAL_IN_RANGE'
p4342
S"<class 'gluon.validators.IS_DECIMAL_IN_RANGE'>"
p4343
sssS'traceback'
p4344
S'Traceback (most recent call last):\n  File "gluon/restricted.py", line 205, in restricted\n  File "D:\\Dise\xf1o Web\\Proyectos\\Parleyweb\\web2py\\applications\\parleyweb\\views\\default/index.html", line 62, in <module>\nNameError: name \'formulario_busqueda\' is not defined\n'
p4345
s.