(dp1
S'output'
p2
S"<type 'exceptions.NameError'> name 'post_vars' is not defined"
p3
sS'layer'
p4
S'D:\\Dise\xf1o Web\\Proyectos\\Parleyweb\\web2py\\applications\\parleyweb\\views\\admin/relacionar.html'
p5
sS'code'
p6
S'response.write(\'\\r\\n\', escape=False)\nresponse.write(\'<!DOCTYPE html>\\n<!-- paulirish.com/2008/conditional-stylesheets-vs-css-hacks-answer-neither/ -->\\n<!--[if lt IE 7]><html class="ie ie6 ie-lte9 ie-lte8 ie-lte7 no-js" lang="\', escape=False)\nresponse.write(T.accepted_language or \'en\')\nresponse.write(\'"> <![endif]-->\\n<!--[if IE 7]><html class="ie ie7 ie-lte9 ie-lte8 ie-lte7 no-js" lang="\', escape=False)\nresponse.write(T.accepted_language or \'en\')\nresponse.write(\'"> <![endif]-->\\n<!--[if IE 8]><html class="ie ie8 ie-lte9 ie-lte8 no-js" lang="\', escape=False)\nresponse.write(T.accepted_language or \'en\')\nresponse.write(\'"> <![endif]-->\\n<!--[if IE 9]><html class="ie9 ie-lte9 no-js" lang="\', escape=False)\nresponse.write(T.accepted_language or \'en\')\nresponse.write(\'"> <![endif]-->\\n<!--[if (gt IE 9)|!(IE)]><!--> <html class="no-js" lang="\', escape=False)\nresponse.write(T.accepted_language or \'en\')\nresponse.write(\'"> <!--<![endif]-->\\n<head>\\n  <meta charset="utf-8" />\\n  <!-- www.phpied.com/conditional-comments-block-downloads/ -->\\n  <!-- Always force latest IE rendering engine\\n\\t   (even in intranet) & Chrome Frame\\n\\t   Remove this if you use the .htaccess -->\\n  <!--[if IE]>\\n    <meta http-equiv="X-UA-Compatible" content="IE=edge\', escape=False)\nresponse.write(not request.is_local and \',chrome=1\' or \'\')\nresponse.write(\'">\\n  <![endif]-->\\n  \\n  <title>\', escape=False)\nresponse.write(response.title or request.application)\nresponse.write(\'</title>\\n  \\n  <!-- http://dev.w3.org/html5/markup/meta.name.html -->\\n  <meta name="application-name" content="\', escape=False)\nresponse.write(request.application)\nresponse.write(\'" />\\n  \\n  <!-- Speaking of Google, don\\\'t forget to set your site up:\\n\\t   http://google.com/webmasters -->\\n  <meta name="google-site-verification" content="" />\\n\\n  <!--  Mobile Viewport Fix\\n\\t  j.mp/mobileviewport & davidbcalhoun.com/2010/viewport-metatag\\n\\t  device-width: Occupy full width of the screen in its current orientation\\n\\t  initial-scale = 1.0 retains dimensions instead of zooming out if page height > device height\\n\\t  user-scalable = yes allows the user to zoom in -->\\n  <meta name="viewport" content="width=device-width, initial-scale=1.0, user-scalable=yes">\\n  \\n  <!-- Place favicon.ico and apple-touch-icon.png in the root of your domain and delete these references -->\\n  <link rel="shortcut icon" href="\', escape=False)\nresponse.write(URL(\'static\',\'favicon.ico\'))\nresponse.write(\'" type="image/x-icon">\\n  <link rel="apple-touch-icon" href="\', escape=False)\nresponse.write(URL(\'static\',\'favicon.png\'))\nresponse.write(\'">\\n\\n  <!-- All JavaScript at the bottom, except for Modernizr which enables \\n\\t   HTML5 elements & feature detects -->\\n  <script src="\', escape=False)\nresponse.write(URL(\'static\',\'js/modernizr.custom.js\'))\nresponse.write(\'"></script>  \\n\\n  <!-- include stylesheets -->\\n  \', escape=False)\nresponse.files.append(URL(\'static\',\'css/bootstrap.css\'))\nresponse.files.append(URL(\'static\',\'js/bootstrap.js\'))\nresponse.files.append(URL(\'static\',\'css/parleyweb.css\'))\nresponse.files.append(URL(\'static\',\'css/jquery-ui-1.8.18.custom.css\'))\nresponse.files.append(URL(\'static\',\'js/parleyweb.js\'))\nresponse.files.append(URL(\'static\',\'js/jquery-ui-1.8.18.custom.min.js\'))\nresponse.write(\'\\n\\n  \', escape=False)\nresponse.write(\'<script type="text/javascript"><!--\\n    // These variables are used by the web2py_ajax_init function in web2py_ajax.js (which is loaded below).\\n    var w2p_ajax_confirm_message = "\', escape=False)\nresponse.write(T(\'Are you sure you want to delete this object?\'))\nresponse.write(\'";\\n    var w2p_ajax_date_format = "\', escape=False)\nresponse.write(T(\'%Y-%m-%d\'))\nresponse.write(\'";\\n    var w2p_ajax_datetime_format = "\', escape=False)\nresponse.write(T(\'%Y-%m-%d %H:%M:%S\'))\nresponse.write(\'";\\n    //--></script>\\n\', escape=False)\nresponse.files.insert(0,URL(\'static\',\'js/jquery.js\'))\nresponse.files.insert(1,URL(\'static\',\'css/calendar.css\'))\nresponse.files.insert(2,URL(\'static\',\'js/calendar.js\'))\nresponse.files.insert(3,URL(\'static\',\'js/web2py.js\'))\nresponse.include_meta()\nresponse.include_files()\nresponse.write(\'\\n\', escape=False)\nresponse.write(\'\\n\\n  \\n\\n  \', escape=False)\n# using sidebars need to know what sidebar you want to use\nleft_sidebar_enabled = globals().get(\'left_sidebar_enabled\',False)\nright_sidebar_enabled = globals().get(\'right_sidebar_enabled\',False)\nmiddle_columns = {0:\'sixteen\',1:\'twelve\',2:\'eight\'}[\n(left_sidebar_enabled and 1 or 0)+(right_sidebar_enabled and 1 or 0)]\nresponse.write(\'\\n\\n  <!-- uncomment here to load jquery-ui\\n  <link rel="stylesheet" href="http://ajax.googleapis.com/ajax/libs/jqueryui/1.8.16/themes/base/jquery-ui.css" type="text/css" media="all" />\\n  <script src="http://ajax.googleapis.com/ajax/libs/jqueryui/1.8.16/jquery-ui.min.js" type="text/javascript"></script>\\n  uncomment to load jquery-ui //-->\\n</head>\\n <body>\\n\\n    <div class="navbar navbar-fixed-top">\\n      <div class="navbar-inner">\\n        <div class="container-fluid">\\n          <a class="btn btn-navbar" data-toggle="collapse" data-target=".nav-collapse">\\n            <span class="icon-bar"></span>\\n            <span class="icon-bar"></span>\\n            <span class="icon-bar"></span>\\n          </a>\\n          <a class="brand" href="#">Parleyweb</a>\\n          <div class="nav-collapse">\\n\\t    \', escape=False)\n#=MENU(response.menu, _class="nav active")\nresponse.write(\'\\n            <ul class="nav">\\n              <li>\', escape=False)\nresponse.write(A(T(\'Administracion\'), _href=URL(\'admin\', \'index\')))\nresponse.write(\'</li>\\n            </ul>\\n\\t    \\n            <p class="navbar-text pull-right">\', escape=False)\nresponse.write(\'auth\' in globals() and auth.navbar(separators=(\' \',\' | \',\'\')))\nresponse.write(\'</p>\\n          </div><!--/.nav-collapse -->\\n        </div>\\n      </div>\\n    </div>\\n    <div class="flash alert alert-info"></i>\', escape=False)\nresponse.write(response.flash or \'\')\nresponse.write(\'</div>\\n    <div class="container-fluid">\\n      <div class="row-fluid">\\n        <div class="span3">\\n          <div class="well sidebar-nav">\\n            <ul class="nav nav-list">\\n              <li class="nav-header">\', escape=False)\nresponse.write(T(\'Buscar\'))\nresponse.write(\'</li>\\n            </ul>\\n          </div><!--/.well -->\\n        </div><!--/span-->\\n        <div class="span9">\\n\\t  \', escape=False)\nresponse.write(\'\\n\\t    \', escape=False)\nresponse.write(\'\\r\\n<h1>Esta es la plantilla admin/relacionar.html</h1>\\r\\n\\r\\n\', escape=False)\nresponse.write(len(post_vars.relacionar))\nresponse.write(\'\\r\\n\', escape=False)\nresponse.write(tabla)\nresponse.write(\'\\r\\n\', escape=False)\nresponse.write(response.toolbar())\nresponse.write(\'\\r\\n\\r\\n\', escape=False)\nresponse.write(\'\\n\\t  \', escape=False)\nresponse.write("\\n          \\n        </div><!--/span-->\\n      </div><!--/row-->\\n\\n      <hr>\\n\\n      <footer>\\n        <p>\\xc2\\xa9 Company 2012</p>\\n      </footer>\\n\\n    </div><!--/.fluid-container-->\\n    \\n    <!-- Le javascript\\n    ================================================== -->\\n    <!-- Placed at the end of the document so the pages load faster \\n    <script>\\n      $(function () {\\n      $(\'.tabs a:last\').tab(\'show\')\\n      })\\n    </script>-->\\n   \\n\\n \\n\\n</body>\\n</html>\\n", escape=False)'
p7
sS'snapshot'
p8
(dp9
S'exception'
p10
(dp11
S'__hash__'
p12
S"<method-wrapper '__hash__' of exceptions.NameError object at 0x06A33418>"
p13
sS'__setattr__'
p14
S"<method-wrapper '__setattr__' of exceptions.NameError object at 0x06A33418>"
p15
sS'__reduce_ex__'
p16
S'<built-in method __reduce_ex__ of exceptions.NameError object at 0x06A33418>'
p17
sS'__getslice__'
p18
S"<method-wrapper '__getslice__' of exceptions.NameError object at 0x06A33418>"
p19
sS'__getitem__'
p20
S"<method-wrapper '__getitem__' of exceptions.NameError object at 0x06A33418>"
p21
sS'__setstate__'
p22
S'<built-in method __setstate__ of exceptions.NameError object at 0x06A33418>'
p23
sS'__reduce__'
p24
S'<built-in method __reduce__ of exceptions.NameError object at 0x06A33418>'
p25
sS'__str__'
p26
S"<method-wrapper '__str__' of exceptions.NameError object at 0x06A33418>"
p27
sS'args'
p28
S'("name \'post_vars\' is not defined",)'
p29
sS'__getattribute__'
p30
S"<method-wrapper '__getattribute__' of exceptions.NameError object at 0x06A33418>"
p31
sS'__class__'
p32
S"<type 'exceptions.NameError'>"
p33
sS'__delattr__'
p34
S"<method-wrapper '__delattr__' of exceptions.NameError object at 0x06A33418>"
p35
sS'__repr__'
p36
S"<method-wrapper '__repr__' of exceptions.NameError object at 0x06A33418>"
p37
sS'__dict__'
p38
S'{}'
p39
sS'__doc__'
p40
S"'Name not found globally.'"
p41
sS'__init__'
p42
S"<method-wrapper '__init__' of exceptions.NameError object at 0x06A33418>"
p43
sS'__new__'
p44
S'<built-in method __new__ of type object at 0x1E1CD8D8>'
p45
ssS'evalue'
p46
S"name 'post_vars' is not defined"
p47
sS'request'
p48
ccopy_reg
_reconstructor
p49
(cgluon.html
BEAUTIFY
p50
c__builtin__
object
p51
NtRp52
(dp53
S'attributes'
p54
(dp55
sS'components'
p56
(lp57
g49
(cgluon.html
TABLE
p58
g51
NtRp59
(dp60
g54
(dp61
S'level'
p62
I5
ssS'parent'
p63
Nsg56
(lp64
g49
(cgluon.html
TR
p65
g51
NtRp66
(dp67
g54
(dp68
sg63
g59
sg56
(lp69
g49
(cgluon.html
TD
p70
g51
NtRp71
(dp72
g54
(dp73
S'_style'
p74
S'font-weight:bold;vertical-align:top'
p75
ssg63
g66
sg56
(lp76
S'ajax'
p77
asbag49
(g70
g51
NtRp78
(dp79
g54
(dp80
S'_valign'
p81
S'top'
p82
ssg63
g66
sg56
(lp83
S':'
asbag49
(g70
g51
NtRp84
(dp85
g54
(dp86
sg63
g66
sg56
(lp87
g49
(g50
g51
NtRp88
(dp89
g54
(dp90
g62
I5
ssg63
g84
sg56
(lp91
S'False'
p92
asbasbasbag49
(g65
g51
NtRp93
(dp94
g54
(dp95
sg63
g59
sg56
(lp96
g49
(g70
g51
NtRp97
(dp98
g54
(dp99
g74
g75
ssg63
g93
sg56
(lp100
S'application'
p101
asbag49
(g70
g51
NtRp102
(dp103
g54
(dp104
g81
g82
ssg63
g93
sg56
(lp105
S':'
asbag49
(g70
g51
NtRp106
(dp107
g54
(dp108
sg63
g93
sg56
(lp109
g49
(g50
g51
NtRp110
(dp111
g54
(dp112
g62
I5
ssg63
g106
sg56
(lp113
S'parleyweb'
p114
asbasbasbag49
(g65
g51
NtRp115
(dp116
g54
(dp117
sg63
g59
sg56
(lp118
g49
(g70
g51
NtRp119
(dp120
g54
(dp121
g74
g75
ssg63
g115
sg56
(lp122
S'body'
p123
asbag49
(g70
g51
NtRp124
(dp125
g54
(dp126
g81
g82
ssg63
g115
sg56
(lp127
S':'
asbag49
(g70
g51
NtRp128
(dp129
g54
(dp130
sg63
g115
sg56
(lp131
g49
(g50
g51
NtRp132
(dp133
g54
(dp134
g62
I5
ssg63
g128
sg56
(lp135
S"<open file '<fdopen>', mode 'w+b' at 0x068F9F50>"
p136
asbasbasbag49
(g65
g51
NtRp137
(dp138
g54
(dp139
sg63
g59
sg56
(lp140
g49
(g70
g51
NtRp141
(dp142
g54
(dp143
g74
g75
ssg63
g137
sg56
(lp144
S'client'
p145
asbag49
(g70
g51
NtRp146
(dp147
g54
(dp148
g81
g82
ssg63
g137
sg56
(lp149
S':'
asbag49
(g70
g51
NtRp150
(dp151
g54
(dp152
sg63
g137
sg56
(lp153
g49
(g50
g51
NtRp154
(dp155
g54
(dp156
g62
I5
ssg63
g150
sg56
(lp157
S'127.0.0.1'
p158
asbasbasbag49
(g65
g51
NtRp159
(dp160
g54
(dp161
sg63
g59
sg56
(lp162
g49
(g70
g51
NtRp163
(dp164
g54
(dp165
g74
g75
ssg63
g159
sg56
(lp166
S'controller'
p167
asbag49
(g70
g51
NtRp168
(dp169
g54
(dp170
g81
g82
ssg63
g159
sg56
(lp171
S':'
asbag49
(g70
g51
NtRp172
(dp173
g54
(dp174
sg63
g159
sg56
(lp175
g49
(g50
g51
NtRp176
(dp177
g54
(dp178
g62
I5
ssg63
g172
sg56
(lp179
S'admin'
p180
asbasbasbag49
(g65
g51
NtRp181
(dp182
g54
(dp183
sg63
g59
sg56
(lp184
g49
(g70
g51
NtRp185
(dp186
g54
(dp187
g74
g75
ssg63
g181
sg56
(lp188
S'cookies'
p189
asbag49
(g70
g51
NtRp190
(dp191
g54
(dp192
g81
g82
ssg63
g181
sg56
(lp193
S':'
asbag49
(g70
g51
NtRp194
(dp195
g54
(dp196
sg63
g181
sg56
(lp197
g49
(g50
g51
NtRp198
(dp199
g54
(dp200
g62
I5
ssg63
g194
sg56
(lp201
g49
(g58
g51
NtRp202
(dp203
g54
(dp204
g62
I4
ssg63
Nsg56
(lp205
g49
(g65
g51
NtRp206
(dp207
g54
(dp208
sg63
g202
sg56
(lp209
g49
(g70
g51
NtRp210
(dp211
g54
(dp212
g74
g75
ssg63
g206
sg56
(lp213
S'session_id_admin'
p214
asbag49
(g70
g51
NtRp215
(dp216
g54
(dp217
g81
g82
ssg63
g206
sg56
(lp218
S':'
asbag49
(g70
g51
NtRp219
(dp220
g54
(dp221
sg63
g206
sg56
(lp222
g49
(g50
g51
NtRp223
(dp224
g54
(dp225
g62
I4
ssg63
g219
sg56
(lp226
g49
(g58
g51
NtRp227
(dp228
g54
(dp229
g62
I3
ssg63
Nsg56
(lp230
g49
(g65
g51
NtRp231
(dp232
g54
(dp233
sg63
g227
sg56
(lp234
g49
(g70
g51
NtRp235
(dp236
g54
(dp237
g74
g75
ssg63
g231
sg56
(lp238
S'comment'
p239
asbag49
(g70
g51
NtRp240
(dp241
g54
(dp242
g81
g82
ssg63
g231
sg56
(lp243
S':'
asbag49
(g70
g51
NtRp244
(dp245
g54
(dp246
sg63
g231
sg56
(lp247
g49
(g50
g51
NtRp248
(dp249
g54
(dp250
g62
I3
ssg63
g244
sg56
(lp251
S''
asbasbasbag49
(g65
g51
NtRp252
(dp253
g54
(dp254
sg63
g227
sg56
(lp255
g49
(g70
g51
NtRp256
(dp257
g54
(dp258
g74
g75
ssg63
g252
sg56
(lp259
S'domain'
p260
asbag49
(g70
g51
NtRp261
(dp262
g54
(dp263
g81
g82
ssg63
g252
sg56
(lp264
S':'
asbag49
(g70
g51
NtRp265
(dp266
g54
(dp267
sg63
g252
sg56
(lp268
g49
(g50
g51
NtRp269
(dp270
g54
(dp271
g62
I3
ssg63
g265
sg56
(lp272
S''
asbasbasbag49
(g65
g51
NtRp273
(dp274
g54
(dp275
sg63
g227
sg56
(lp276
g49
(g70
g51
NtRp277
(dp278
g54
(dp279
g74
g75
ssg63
g273
sg56
(lp280
S'expires'
p281
asbag49
(g70
g51
NtRp282
(dp283
g54
(dp284
g81
g82
ssg63
g273
sg56
(lp285
S':'
asbag49
(g70
g51
NtRp286
(dp287
g54
(dp288
sg63
g273
sg56
(lp289
g49
(g50
g51
NtRp290
(dp291
g54
(dp292
g62
I3
ssg63
g286
sg56
(lp293
S''
asbasbasbag49
(g65
g51
NtRp294
(dp295
g54
(dp296
sg63
g227
sg56
(lp297
g49
(g70
g51
NtRp298
(dp299
g54
(dp300
g74
g75
ssg63
g294
sg56
(lp301
S'max-age'
p302
asbag49
(g70
g51
NtRp303
(dp304
g54
(dp305
g81
g82
ssg63
g294
sg56
(lp306
S':'
asbag49
(g70
g51
NtRp307
(dp308
g54
(dp309
sg63
g294
sg56
(lp310
g49
(g50
g51
NtRp311
(dp312
g54
(dp313
g62
I3
ssg63
g307
sg56
(lp314
S''
asbasbasbag49
(g65
g51
NtRp315
(dp316
g54
(dp317
sg63
g227
sg56
(lp318
g49
(g70
g51
NtRp319
(dp320
g54
(dp321
g74
g75
ssg63
g315
sg56
(lp322
S'path'
p323
asbag49
(g70
g51
NtRp324
(dp325
g54
(dp326
g81
g82
ssg63
g315
sg56
(lp327
S':'
asbag49
(g70
g51
NtRp328
(dp329
g54
(dp330
sg63
g315
sg56
(lp331
g49
(g50
g51
NtRp332
(dp333
g54
(dp334
g62
I3
ssg63
g328
sg56
(lp335
S''
asbasbasbag49
(g65
g51
NtRp336
(dp337
g54
(dp338
sg63
g227
sg56
(lp339
g49
(g70
g51
NtRp340
(dp341
g54
(dp342
g74
g75
ssg63
g336
sg56
(lp343
S'secure'
p344
asbag49
(g70
g51
NtRp345
(dp346
g54
(dp347
g81
g82
ssg63
g336
sg56
(lp348
S':'
asbag49
(g70
g51
NtRp349
(dp350
g54
(dp351
sg63
g336
sg56
(lp352
g49
(g50
g51
NtRp353
(dp354
g54
(dp355
g62
I3
ssg63
g349
sg56
(lp356
S''
asbasbasbag49
(g65
g51
NtRp357
(dp358
g54
(dp359
sg63
g227
sg56
(lp360
g49
(g70
g51
NtRp361
(dp362
g54
(dp363
g74
g75
ssg63
g357
sg56
(lp364
S'version'
p365
asbag49
(g70
g51
NtRp366
(dp367
g54
(dp368
g81
g82
ssg63
g357
sg56
(lp369
S':'
asbag49
(g70
g51
NtRp370
(dp371
g54
(dp372
sg63
g357
sg56
(lp373
g49
(g50
g51
NtRp374
(dp375
g54
(dp376
g62
I3
ssg63
g370
sg56
(lp377
S''
asbasbasbasbasbasbasbag49
(g65
g51
NtRp378
(dp379
g54
(dp380
sg63
g202
sg56
(lp381
g49
(g70
g51
NtRp382
(dp383
g54
(dp384
g74
g75
ssg63
g378
sg56
(lp385
S'session_id_parleyweb'
p386
asbag49
(g70
g51
NtRp387
(dp388
g54
(dp389
g81
g82
ssg63
g378
sg56
(lp390
S':'
asbag49
(g70
g51
NtRp391
(dp392
g54
(dp393
sg63
g378
sg56
(lp394
g49
(g50
g51
NtRp395
(dp396
g54
(dp397
g62
I4
ssg63
g391
sg56
(lp398
g49
(g58
g51
NtRp399
(dp400
g54
(dp401
g62
I3
ssg63
Nsg56
(lp402
g49
(g65
g51
NtRp403
(dp404
g54
(dp405
sg63
g399
sg56
(lp406
g49
(g70
g51
NtRp407
(dp408
g54
(dp409
g74
g75
ssg63
g403
sg56
(lp410
g239
asbag49
(g70
g51
NtRp411
(dp412
g54
(dp413
g81
g82
ssg63
g403
sg56
(lp414
S':'
asbag49
(g70
g51
NtRp415
(dp416
g54
(dp417
sg63
g403
sg56
(lp418
g49
(g50
g51
NtRp419
(dp420
g54
(dp421
g62
I3
ssg63
g415
sg56
(lp422
S''
asbasbasbag49
(g65
g51
NtRp423
(dp424
g54
(dp425
sg63
g399
sg56
(lp426
g49
(g70
g51
NtRp427
(dp428
g54
(dp429
g74
g75
ssg63
g423
sg56
(lp430
g260
asbag49
(g70
g51
NtRp431
(dp432
g54
(dp433
g81
g82
ssg63
g423
sg56
(lp434
S':'
asbag49
(g70
g51
NtRp435
(dp436
g54
(dp437
sg63
g423
sg56
(lp438
g49
(g50
g51
NtRp439
(dp440
g54
(dp441
g62
I3
ssg63
g435
sg56
(lp442
S''
asbasbasbag49
(g65
g51
NtRp443
(dp444
g54
(dp445
sg63
g399
sg56
(lp446
g49
(g70
g51
NtRp447
(dp448
g54
(dp449
g74
g75
ssg63
g443
sg56
(lp450
g281
asbag49
(g70
g51
NtRp451
(dp452
g54
(dp453
g81
g82
ssg63
g443
sg56
(lp454
S':'
asbag49
(g70
g51
NtRp455
(dp456
g54
(dp457
sg63
g443
sg56
(lp458
g49
(g50
g51
NtRp459
(dp460
g54
(dp461
g62
I3
ssg63
g455
sg56
(lp462
S''
asbasbasbag49
(g65
g51
NtRp463
(dp464
g54
(dp465
sg63
g399
sg56
(lp466
g49
(g70
g51
NtRp467
(dp468
g54
(dp469
g74
g75
ssg63
g463
sg56
(lp470
g302
asbag49
(g70
g51
NtRp471
(dp472
g54
(dp473
g81
g82
ssg63
g463
sg56
(lp474
S':'
asbag49
(g70
g51
NtRp475
(dp476
g54
(dp477
sg63
g463
sg56
(lp478
g49
(g50
g51
NtRp479
(dp480
g54
(dp481
g62
I3
ssg63
g475
sg56
(lp482
S''
asbasbasbag49
(g65
g51
NtRp483
(dp484
g54
(dp485
sg63
g399
sg56
(lp486
g49
(g70
g51
NtRp487
(dp488
g54
(dp489
g74
g75
ssg63
g483
sg56
(lp490
g323
asbag49
(g70
g51
NtRp491
(dp492
g54
(dp493
g81
g82
ssg63
g483
sg56
(lp494
S':'
asbag49
(g70
g51
NtRp495
(dp496
g54
(dp497
sg63
g483
sg56
(lp498
g49
(g50
g51
NtRp499
(dp500
g54
(dp501
g62
I3
ssg63
g495
sg56
(lp502
S''
asbasbasbag49
(g65
g51
NtRp503
(dp504
g54
(dp505
sg63
g399
sg56
(lp506
g49
(g70
g51
NtRp507
(dp508
g54
(dp509
g74
g75
ssg63
g503
sg56
(lp510
g344
asbag49
(g70
g51
NtRp511
(dp512
g54
(dp513
g81
g82
ssg63
g503
sg56
(lp514
S':'
asbag49
(g70
g51
NtRp515
(dp516
g54
(dp517
sg63
g503
sg56
(lp518
g49
(g50
g51
NtRp519
(dp520
g54
(dp521
g62
I3
ssg63
g515
sg56
(lp522
S''
asbasbasbag49
(g65
g51
NtRp523
(dp524
g54
(dp525
sg63
g399
sg56
(lp526
g49
(g70
g51
NtRp527
(dp528
g54
(dp529
g74
g75
ssg63
g523
sg56
(lp530
g365
asbag49
(g70
g51
NtRp531
(dp532
g54
(dp533
g81
g82
ssg63
g523
sg56
(lp534
S':'
asbag49
(g70
g51
NtRp535
(dp536
g54
(dp537
sg63
g523
sg56
(lp538
g49
(g50
g51
NtRp539
(dp540
g54
(dp541
g62
I3
ssg63
g535
sg56
(lp542
S''
asbasbasbasbasbasbasbasbasbasbasbag49
(g65
g51
NtRp543
(dp544
g54
(dp545
sg63
g59
sg56
(lp546
g49
(g70
g51
NtRp547
(dp548
g54
(dp549
g74
g75
ssg63
g543
sg56
(lp550
S'env'
p551
asbag49
(g70
g51
NtRp552
(dp553
g54
(dp554
g81
g82
ssg63
g543
sg56
(lp555
S':'
asbag49
(g70
g51
NtRp556
(dp557
g54
(dp558
sg63
g543
sg56
(lp559
g49
(g50
g51
NtRp560
(dp561
g54
(dp562
g62
I5
ssg63
g556
sg56
(lp563
g49
(g58
g51
NtRp564
(dp565
g54
(dp566
g62
I4
ssg63
Nsg56
(lp567
g49
(g65
g51
NtRp568
(dp569
g54
(dp570
sg63
g564
sg56
(lp571
g49
(g70
g51
NtRp572
(dp573
g54
(dp574
g74
g75
ssg63
g568
sg56
(lp575
S'app_folders'
p576
asbag49
(g70
g51
NtRp577
(dp578
g54
(dp579
g81
g82
ssg63
g568
sg56
(lp580
S':'
asbag49
(g70
g51
NtRp581
(dp582
g54
(dp583
sg63
g568
sg56
(lp584
g49
(g50
g51
NtRp585
(dp586
g54
(dp587
g62
I4
ssg63
g581
sg56
(lp588
S"set(['D:\\\\Dise\\xf1o Web\\\\Proyectos\\\\Parleyweb\\\\web2py\\\\applications\\\\parleyweb\\\\', 'D:\\\\Dise\\xf1o Web\\\\Proyectos\\\\Parleyweb\\\\web2py\\\\applications\\\\admin\\\\'])"
p589
asbasbasbag49
(g65
g51
NtRp590
(dp591
g54
(dp592
sg63
g564
sg56
(lp593
g49
(g70
g51
NtRp594
(dp595
g54
(dp596
g74
g75
ssg63
g590
sg56
(lp597
S'applications_parent'
p598
asbag49
(g70
g51
NtRp599
(dp600
g54
(dp601
g81
g82
ssg63
g590
sg56
(lp602
S':'
asbag49
(g70
g51
NtRp603
(dp604
g54
(dp605
sg63
g590
sg56
(lp606
g49
(g50
g51
NtRp607
(dp608
g54
(dp609
g62
I4
ssg63
g603
sg56
(lp610
S'D:\\Dise\xf1o Web\\Proyectos\\Parleyweb\\web2py'
p611
asbasbasbag49
(g65
g51
NtRp612
(dp613
g54
(dp614
sg63
g564
sg56
(lp615
g49
(g70
g51
NtRp616
(dp617
g54
(dp618
g74
g75
ssg63
g612
sg56
(lp619
S'cmd_args'
p620
asbag49
(g70
g51
NtRp621
(dp622
g54
(dp623
g81
g82
ssg63
g612
sg56
(lp624
S':'
asbag49
(g70
g51
NtRp625
(dp626
g54
(dp627
sg63
g612
sg56
(lp628
g49
(g50
g51
NtRp629
(dp630
g54
(dp631
g62
I4
ssg63
g625
sg56
(lp632
g49
(g58
g51
NtRp633
(dp634
g54
(dp635
g62
I3
ssg63
Nsg56
(lp636
sbasbasbasbag49
(g65
g51
NtRp637
(dp638
g54
(dp639
sg63
g564
sg56
(lp640
g49
(g70
g51
NtRp641
(dp642
g54
(dp643
g74
g75
ssg63
g637
sg56
(lp644
S'cmd_options'
p645
asbag49
(g70
g51
NtRp646
(dp647
g54
(dp648
g81
g82
ssg63
g637
sg56
(lp649
S':'
asbag49
(g70
g51
NtRp650
(dp651
g54
(dp652
sg63
g637
sg56
(lp653
g49
(g50
g51
NtRp654
(dp655
g54
(dp656
g62
I4
ssg63
g650
sg56
(lp657
S"<Values at 0x3185238: {'verbose': False, 'ip': '127.0.0.1', 'shutdown_timeout': 5, 'taskbar': False, 'nocron': False, 'pid_filename': 'httpserver.pid', 'maxthreads': None, 'softcron': False, 'server_name': 'craxsnet-PC', 'bpython': False, 'nogui': False, 'port': 8000, 'extcron': False, 'debuglevel': 30, 'test': None, 'folder': 'D:\\\\Dise\\xf1o Web\\\\Proyectos\\\\Parleyweb\\\\web2py', 'config': '', 'import_models': False, 'winservice': '', 'shell': None, 'run': '', 'log_filename': 'httpserver.log', 'args': [''], 'socket_timeout': 5, 'ssl_ca_certificate': None, 'scheduler': None, 'profiler_filename': None, 'ssl_private_key': '', 'password': '<ask>', 'request_queue_size': 5, 'ssl_certificate': '', 'cronjob': False, 'numthreads': None, 'quiet': False, 'interfaces': None, 'minthreads': None, 'timeout': 10, 'plain': False, 'nobanner': False}>"
p658
asbasbasbag49
(g65
g51
NtRp659
(dp660
g54
(dp661
sg63
g564
sg56
(lp662
g49
(g70
g51
NtRp663
(dp664
g54
(dp665
g74
g75
ssg63
g659
sg56
(lp666
S'content_length'
p667
asbag49
(g70
g51
NtRp668
(dp669
g54
(dp670
g81
g82
ssg63
g659
sg56
(lp671
S':'
asbag49
(g70
g51
NtRp672
(dp673
g54
(dp674
sg63
g659
sg56
(lp675
g49
(g50
g51
NtRp676
(dp677
g54
(dp678
g62
I4
ssg63
g672
sg56
(lp679
S'255'
p680
asbasbasbag49
(g65
g51
NtRp681
(dp682
g54
(dp683
sg63
g564
sg56
(lp684
g49
(g70
g51
NtRp685
(dp686
g54
(dp687
g74
g75
ssg63
g681
sg56
(lp688
S'content_type'
p689
asbag49
(g70
g51
NtRp690
(dp691
g54
(dp692
g81
g82
ssg63
g681
sg56
(lp693
S':'
asbag49
(g70
g51
NtRp694
(dp695
g54
(dp696
sg63
g681
sg56
(lp697
g49
(g50
g51
NtRp698
(dp699
g54
(dp700
g62
I4
ssg63
g694
sg56
(lp701
S'multipart/form-data; boundary=---------------------------226482744623805'
p702
asbasbasbag49
(g65
g51
NtRp703
(dp704
g54
(dp705
sg63
g564
sg56
(lp706
g49
(g70
g51
NtRp707
(dp708
g54
(dp709
g74
g75
ssg63
g703
sg56
(lp710
S'db_sessions'
p711
asbag49
(g70
g51
NtRp712
(dp713
g54
(dp714
g81
g82
ssg63
g703
sg56
(lp715
S':'
asbag49
(g70
g51
NtRp716
(dp717
g54
(dp718
sg63
g703
sg56
(lp719
g49
(g50
g51
NtRp720
(dp721
g54
(dp722
g62
I4
ssg63
g716
sg56
(lp723
S'set([])'
p724
asbasbasbag49
(g65
g51
NtRp725
(dp726
g54
(dp727
sg63
g564
sg56
(lp728
g49
(g70
g51
NtRp729
(dp730
g54
(dp731
g74
g75
ssg63
g725
sg56
(lp732
S'debugging'
p733
asbag49
(g70
g51
NtRp734
(dp735
g54
(dp736
g81
g82
ssg63
g725
sg56
(lp737
S':'
asbag49
(g70
g51
NtRp738
(dp739
g54
(dp740
sg63
g725
sg56
(lp741
g49
(g50
g51
NtRp742
(dp743
g54
(dp744
g62
I4
ssg63
g738
sg56
(lp745
g92
asbasbasbag49
(g65
g51
NtRp746
(dp747
g54
(dp748
sg63
g564
sg56
(lp749
g49
(g70
g51
NtRp750
(dp751
g54
(dp752
g74
g75
ssg63
g746
sg56
(lp753
S'gluon_parent'
p754
asbag49
(g70
g51
NtRp755
(dp756
g54
(dp757
g81
g82
ssg63
g746
sg56
(lp758
S':'
asbag49
(g70
g51
NtRp759
(dp760
g54
(dp761
sg63
g746
sg56
(lp762
g49
(g50
g51
NtRp763
(dp764
g54
(dp765
g62
I4
ssg63
g759
sg56
(lp766
S'D:\\Dise\xf1o Web\\Proyectos\\Parleyweb\\web2py'
p767
asbasbasbag49
(g65
g51
NtRp768
(dp769
g54
(dp770
sg63
g564
sg56
(lp771
g49
(g70
g51
NtRp772
(dp773
g54
(dp774
g74
g75
ssg63
g768
sg56
(lp775
S'http_accept'
p776
asbag49
(g70
g51
NtRp777
(dp778
g54
(dp779
g81
g82
ssg63
g768
sg56
(lp780
S':'
asbag49
(g70
g51
NtRp781
(dp782
g54
(dp783
sg63
g768
sg56
(lp784
g49
(g50
g51
NtRp785
(dp786
g54
(dp787
g62
I4
ssg63
g781
sg56
(lp788
S'text/html,application/xhtml+xml,application/xml;q=0.9,*/*;q=0.8'
p789
asbasbasbag49
(g65
g51
NtRp790
(dp791
g54
(dp792
sg63
g564
sg56
(lp793
g49
(g70
g51
NtRp794
(dp795
g54
(dp796
g74
g75
ssg63
g790
sg56
(lp797
S'http_accept_encoding'
p798
asbag49
(g70
g51
NtRp799
(dp800
g54
(dp801
g81
g82
ssg63
g790
sg56
(lp802
S':'
asbag49
(g70
g51
NtRp803
(dp804
g54
(dp805
sg63
g790
sg56
(lp806
g49
(g50
g51
NtRp807
(dp808
g54
(dp809
g62
I4
ssg63
g803
sg56
(lp810
S'gzip, deflate'
p811
asbasbasbag49
(g65
g51
NtRp812
(dp813
g54
(dp814
sg63
g564
sg56
(lp815
g49
(g70
g51
NtRp816
(dp817
g54
(dp818
g74
g75
ssg63
g812
sg56
(lp819
S'http_accept_language'
p820
asbag49
(g70
g51
NtRp821
(dp822
g54
(dp823
g81
g82
ssg63
g812
sg56
(lp824
S':'
asbag49
(g70
g51
NtRp825
(dp826
g54
(dp827
sg63
g812
sg56
(lp828
g49
(g50
g51
NtRp829
(dp830
g54
(dp831
g62
I4
ssg63
g825
sg56
(lp832
S'es-es,de-de;q=0.8,es;q=0.6,en-us;q=0.4,en;q=0.2'
p833
asbasbasbag49
(g65
g51
NtRp834
(dp835
g54
(dp836
sg63
g564
sg56
(lp837
g49
(g70
g51
NtRp838
(dp839
g54
(dp840
g74
g75
ssg63
g834
sg56
(lp841
S'http_cache_control'
p842
asbag49
(g70
g51
NtRp843
(dp844
g54
(dp845
g81
g82
ssg63
g834
sg56
(lp846
S':'
asbag49
(g70
g51
NtRp847
(dp848
g54
(dp849
sg63
g834
sg56
(lp850
g49
(g50
g51
NtRp851
(dp852
g54
(dp853
g62
I4
ssg63
g847
sg56
(lp854
S'max-age=0'
p855
asbasbasbag49
(g65
g51
NtRp856
(dp857
g54
(dp858
sg63
g564
sg56
(lp859
g49
(g70
g51
NtRp860
(dp861
g54
(dp862
g74
g75
ssg63
g856
sg56
(lp863
S'http_connection'
p864
asbag49
(g70
g51
NtRp865
(dp866
g54
(dp867
g81
g82
ssg63
g856
sg56
(lp868
S':'
asbag49
(g70
g51
NtRp869
(dp870
g54
(dp871
sg63
g856
sg56
(lp872
g49
(g50
g51
NtRp873
(dp874
g54
(dp875
g62
I4
ssg63
g869
sg56
(lp876
S'keep-alive'
p877
asbasbasbag49
(g65
g51
NtRp878
(dp879
g54
(dp880
sg63
g564
sg56
(lp881
g49
(g70
g51
NtRp882
(dp883
g54
(dp884
g74
g75
ssg63
g878
sg56
(lp885
S'http_content_length'
p886
asbag49
(g70
g51
NtRp887
(dp888
g54
(dp889
g81
g82
ssg63
g878
sg56
(lp890
S':'
asbag49
(g70
g51
NtRp891
(dp892
g54
(dp893
sg63
g878
sg56
(lp894
g49
(g50
g51
NtRp895
(dp896
g54
(dp897
g62
I4
ssg63
g891
sg56
(lp898
g680
asbasbasbag49
(g65
g51
NtRp899
(dp900
g54
(dp901
sg63
g564
sg56
(lp902
g49
(g70
g51
NtRp903
(dp904
g54
(dp905
g74
g75
ssg63
g899
sg56
(lp906
S'http_content_type'
p907
asbag49
(g70
g51
NtRp908
(dp909
g54
(dp910
g81
g82
ssg63
g899
sg56
(lp911
S':'
asbag49
(g70
g51
NtRp912
(dp913
g54
(dp914
sg63
g899
sg56
(lp915
g49
(g50
g51
NtRp916
(dp917
g54
(dp918
g62
I4
ssg63
g912
sg56
(lp919
g702
asbasbasbag49
(g65
g51
NtRp920
(dp921
g54
(dp922
sg63
g564
sg56
(lp923
g49
(g70
g51
NtRp924
(dp925
g54
(dp926
g74
g75
ssg63
g920
sg56
(lp927
S'http_cookie'
p928
asbag49
(g70
g51
NtRp929
(dp930
g54
(dp931
g81
g82
ssg63
g920
sg56
(lp932
S':'
asbag49
(g70
g51
NtRp933
(dp934
g54
(dp935
sg63
g920
sg56
(lp936
g49
(g50
g51
NtRp937
(dp938
g54
(dp939
g62
I4
ssg63
g933
sg56
(lp940
S'__utma=96992031.26429765.1325029743.1325029743.1326549329.2; __utmz=96992031.1325029743.1.1.utmcsr=(direct)|utmccn=(direct)|utmcmd=(none); session_id_parleyweb=127.0.0.1-8bc0d624-a7ac-4822-aaf0-ed4b06ce8341; session_id_admin=127.0.0.1-fca687a4-73c3-45ca-8b8b-3788208a9c53'
p941
asbasbasbag49
(g65
g51
NtRp942
(dp943
g54
(dp944
sg63
g564
sg56
(lp945
g49
(g70
g51
NtRp946
(dp947
g54
(dp948
g74
g75
ssg63
g942
sg56
(lp949
S'http_host'
p950
asbag49
(g70
g51
NtRp951
(dp952
g54
(dp953
g81
g82
ssg63
g942
sg56
(lp954
S':'
asbag49
(g70
g51
NtRp955
(dp956
g54
(dp957
sg63
g942
sg56
(lp958
g49
(g50
g51
NtRp959
(dp960
g54
(dp961
g62
I4
ssg63
g955
sg56
(lp962
S'127.0.0.1:8000'
p963
asbasbasbag49
(g65
g51
NtRp964
(dp965
g54
(dp966
sg63
g564
sg56
(lp967
g49
(g70
g51
NtRp968
(dp969
g54
(dp970
g74
g75
ssg63
g964
sg56
(lp971
S'http_referer'
p972
asbag49
(g70
g51
NtRp973
(dp974
g54
(dp975
g81
g82
ssg63
g964
sg56
(lp976
S':'
asbag49
(g70
g51
NtRp977
(dp978
g54
(dp979
sg63
g964
sg56
(lp980
g49
(g50
g51
NtRp981
(dp982
g54
(dp983
g62
I4
ssg63
g977
sg56
(lp984
S'http://127.0.0.1:8000/parleyweb/admin/buscar_ejemplos2/b'
p985
asbasbasbag49
(g65
g51
NtRp986
(dp987
g54
(dp988
sg63
g564
sg56
(lp989
g49
(g70
g51
NtRp990
(dp991
g54
(dp992
g74
g75
ssg63
g986
sg56
(lp993
S'http_user_agent'
p994
asbag49
(g70
g51
NtRp995
(dp996
g54
(dp997
g81
g82
ssg63
g986
sg56
(lp998
S':'
asbag49
(g70
g51
NtRp999
(dp1000
g54
(dp1001
sg63
g986
sg56
(lp1002
g49
(g50
g51
NtRp1003
(dp1004
g54
(dp1005
g62
I4
ssg63
g999
sg56
(lp1006
S'Mozilla/5.0 (Windows NT 6.1; WOW64; rv:10.0.2) Gecko/20100101 Firefox/10.0.2'
p1007
asbasbasbag49
(g65
g51
NtRp1008
(dp1009
g54
(dp1010
sg63
g564
sg56
(lp1011
g49
(g70
g51
NtRp1012
(dp1013
g54
(dp1014
g74
g75
ssg63
g1008
sg56
(lp1015
S'is_jython'
p1016
asbag49
(g70
g51
NtRp1017
(dp1018
g54
(dp1019
g81
g82
ssg63
g1008
sg56
(lp1020
S':'
asbag49
(g70
g51
NtRp1021
(dp1022
g54
(dp1023
sg63
g1008
sg56
(lp1024
g49
(g50
g51
NtRp1025
(dp1026
g54
(dp1027
g62
I4
ssg63
g1021
sg56
(lp1028
g92
asbasbasbag49
(g65
g51
NtRp1029
(dp1030
g54
(dp1031
sg63
g564
sg56
(lp1032
g49
(g70
g51
NtRp1033
(dp1034
g54
(dp1035
g74
g75
ssg63
g1029
sg56
(lp1036
S'is_pypy'
p1037
asbag49
(g70
g51
NtRp1038
(dp1039
g54
(dp1040
g81
g82
ssg63
g1029
sg56
(lp1041
S':'
asbag49
(g70
g51
NtRp1042
(dp1043
g54
(dp1044
sg63
g1029
sg56
(lp1045
g49
(g50
g51
NtRp1046
(dp1047
g54
(dp1048
g62
I4
ssg63
g1042
sg56
(lp1049
g92
asbasbasbag49
(g65
g51
NtRp1050
(dp1051
g54
(dp1052
sg63
g564
sg56
(lp1053
g49
(g70
g51
NtRp1054
(dp1055
g54
(dp1056
g74
g75
ssg63
g1050
sg56
(lp1057
S'path_info'
p1058
asbag49
(g70
g51
NtRp1059
(dp1060
g54
(dp1061
g81
g82
ssg63
g1050
sg56
(lp1062
S':'
asbag49
(g70
g51
NtRp1063
(dp1064
g54
(dp1065
sg63
g1050
sg56
(lp1066
g49
(g50
g51
NtRp1067
(dp1068
g54
(dp1069
g62
I4
ssg63
g1063
sg56
(lp1070
S'/parleyweb/admin/relacionar'
p1071
asbasbasbag49
(g65
g51
NtRp1072
(dp1073
g54
(dp1074
sg63
g564
sg56
(lp1075
g49
(g70
g51
NtRp1076
(dp1077
g54
(dp1078
g74
g75
ssg63
g1072
sg56
(lp1079
S'query_string'
p1080
asbag49
(g70
g51
NtRp1081
(dp1082
g54
(dp1083
g81
g82
ssg63
g1072
sg56
(lp1084
S':'
asbag49
(g70
g51
NtRp1085
(dp1086
g54
(dp1087
sg63
g1072
sg56
(lp1088
g49
(g50
g51
NtRp1089
(dp1090
g54
(dp1091
g62
I4
ssg63
g1085
sg56
(lp1092
S''
asbasbasbag49
(g65
g51
NtRp1093
(dp1094
g54
(dp1095
sg63
g564
sg56
(lp1096
g49
(g70
g51
NtRp1097
(dp1098
g54
(dp1099
g74
g75
ssg63
g1093
sg56
(lp1100
S'remote_addr'
p1101
asbag49
(g70
g51
NtRp1102
(dp1103
g54
(dp1104
g81
g82
ssg63
g1093
sg56
(lp1105
S':'
asbag49
(g70
g51
NtRp1106
(dp1107
g54
(dp1108
sg63
g1093
sg56
(lp1109
g49
(g50
g51
NtRp1110
(dp1111
g54
(dp1112
g62
I4
ssg63
g1106
sg56
(lp1113
g158
asbasbasbag49
(g65
g51
NtRp1114
(dp1115
g54
(dp1116
sg63
g564
sg56
(lp1117
g49
(g70
g51
NtRp1118
(dp1119
g54
(dp1120
g74
g75
ssg63
g1114
sg56
(lp1121
S'remote_port'
p1122
asbag49
(g70
g51
NtRp1123
(dp1124
g54
(dp1125
g81
g82
ssg63
g1114
sg56
(lp1126
S':'
asbag49
(g70
g51
NtRp1127
(dp1128
g54
(dp1129
sg63
g1114
sg56
(lp1130
g49
(g50
g51
NtRp1131
(dp1132
g54
(dp1133
g62
I4
ssg63
g1127
sg56
(lp1134
S'49901'
p1135
asbasbasbag49
(g65
g51
NtRp1136
(dp1137
g54
(dp1138
sg63
g564
sg56
(lp1139
g49
(g70
g51
NtRp1140
(dp1141
g54
(dp1142
g74
g75
ssg63
g1136
sg56
(lp1143
S'request_method'
p1144
asbag49
(g70
g51
NtRp1145
(dp1146
g54
(dp1147
g81
g82
ssg63
g1136
sg56
(lp1148
S':'
asbag49
(g70
g51
NtRp1149
(dp1150
g54
(dp1151
sg63
g1136
sg56
(lp1152
g49
(g50
g51
NtRp1153
(dp1154
g54
(dp1155
g62
I4
ssg63
g1149
sg56
(lp1156
S'POST'
p1157
asbasbasbag49
(g65
g51
NtRp1158
(dp1159
g54
(dp1160
sg63
g564
sg56
(lp1161
g49
(g70
g51
NtRp1162
(dp1163
g54
(dp1164
g74
g75
ssg63
g1158
sg56
(lp1165
S'request_uri'
p1166
asbag49
(g70
g51
NtRp1167
(dp1168
g54
(dp1169
g81
g82
ssg63
g1158
sg56
(lp1170
S':'
asbag49
(g70
g51
NtRp1171
(dp1172
g54
(dp1173
sg63
g1158
sg56
(lp1174
g49
(g50
g51
NtRp1175
(dp1176
g54
(dp1177
g62
I4
ssg63
g1171
sg56
(lp1178
g1071
asbasbasbag49
(g65
g51
NtRp1179
(dp1180
g54
(dp1181
sg63
g564
sg56
(lp1182
g49
(g70
g51
NtRp1183
(dp1184
g54
(dp1185
g74
g75
ssg63
g1179
sg56
(lp1186
S'script_name'
p1187
asbag49
(g70
g51
NtRp1188
(dp1189
g54
(dp1190
g81
g82
ssg63
g1179
sg56
(lp1191
S':'
asbag49
(g70
g51
NtRp1192
(dp1193
g54
(dp1194
sg63
g1179
sg56
(lp1195
g49
(g50
g51
NtRp1196
(dp1197
g54
(dp1198
g62
I4
ssg63
g1192
sg56
(lp1199
S''
asbasbasbag49
(g65
g51
NtRp1200
(dp1201
g54
(dp1202
sg63
g564
sg56
(lp1203
g49
(g70
g51
NtRp1204
(dp1205
g54
(dp1206
g74
g75
ssg63
g1200
sg56
(lp1207
S'server_name'
p1208
asbag49
(g70
g51
NtRp1209
(dp1210
g54
(dp1211
g81
g82
ssg63
g1200
sg56
(lp1212
S':'
asbag49
(g70
g51
NtRp1213
(dp1214
g54
(dp1215
sg63
g1200
sg56
(lp1216
g49
(g50
g51
NtRp1217
(dp1218
g54
(dp1219
g62
I4
ssg63
g1213
sg56
(lp1220
S'craxsnet-PC'
p1221
asbasbasbag49
(g65
g51
NtRp1222
(dp1223
g54
(dp1224
sg63
g564
sg56
(lp1225
g49
(g70
g51
NtRp1226
(dp1227
g54
(dp1228
g74
g75
ssg63
g1222
sg56
(lp1229
S'server_port'
p1230
asbag49
(g70
g51
NtRp1231
(dp1232
g54
(dp1233
g81
g82
ssg63
g1222
sg56
(lp1234
S':'
asbag49
(g70
g51
NtRp1235
(dp1236
g54
(dp1237
sg63
g1222
sg56
(lp1238
g49
(g50
g51
NtRp1239
(dp1240
g54
(dp1241
g62
I4
ssg63
g1235
sg56
(lp1242
S'8000'
p1243
asbasbasbag49
(g65
g51
NtRp1244
(dp1245
g54
(dp1246
sg63
g564
sg56
(lp1247
g49
(g70
g51
NtRp1248
(dp1249
g54
(dp1250
g74
g75
ssg63
g1244
sg56
(lp1251
S'server_protocol'
p1252
asbag49
(g70
g51
NtRp1253
(dp1254
g54
(dp1255
g81
g82
ssg63
g1244
sg56
(lp1256
S':'
asbag49
(g70
g51
NtRp1257
(dp1258
g54
(dp1259
sg63
g1244
sg56
(lp1260
g49
(g50
g51
NtRp1261
(dp1262
g54
(dp1263
g62
I4
ssg63
g1257
sg56
(lp1264
S'HTTP/1.1'
p1265
asbasbasbag49
(g65
g51
NtRp1266
(dp1267
g54
(dp1268
sg63
g564
sg56
(lp1269
g49
(g70
g51
NtRp1270
(dp1271
g54
(dp1272
g74
g75
ssg63
g1266
sg56
(lp1273
S'server_software'
p1274
asbag49
(g70
g51
NtRp1275
(dp1276
g54
(dp1277
g81
g82
ssg63
g1266
sg56
(lp1278
S':'
asbag49
(g70
g51
NtRp1279
(dp1280
g54
(dp1281
sg63
g1266
sg56
(lp1282
g49
(g50
g51
NtRp1283
(dp1284
g54
(dp1285
g62
I4
ssg63
g1279
sg56
(lp1286
S'Rocket 1.2.4'
p1287
asbasbasbag49
(g65
g51
NtRp1288
(dp1289
g54
(dp1290
sg63
g564
sg56
(lp1291
g49
(g70
g51
NtRp1292
(dp1293
g54
(dp1294
g74
g75
ssg63
g1288
sg56
(lp1295
S'web2py_crontype'
p1296
asbag49
(g70
g51
NtRp1297
(dp1298
g54
(dp1299
g81
g82
ssg63
g1288
sg56
(lp1300
S':'
asbag49
(g70
g51
NtRp1301
(dp1302
g54
(dp1303
sg63
g1288
sg56
(lp1304
g49
(g50
g51
NtRp1305
(dp1306
g54
(dp1307
g62
I4
ssg63
g1301
sg56
(lp1308
S'hard'
p1309
asbasbasbag49
(g65
g51
NtRp1310
(dp1311
g54
(dp1312
sg63
g564
sg56
(lp1313
g49
(g70
g51
NtRp1314
(dp1315
g54
(dp1316
g74
g75
ssg63
g1310
sg56
(lp1317
S'web2py_original_uri'
p1318
asbag49
(g70
g51
NtRp1319
(dp1320
g54
(dp1321
g81
g82
ssg63
g1310
sg56
(lp1322
S':'
asbag49
(g70
g51
NtRp1323
(dp1324
g54
(dp1325
sg63
g1310
sg56
(lp1326
g49
(g50
g51
NtRp1327
(dp1328
g54
(dp1329
g62
I4
ssg63
g1323
sg56
(lp1330
S'/parleyweb/admin/relacionar'
p1331
asbasbasbag49
(g65
g51
NtRp1332
(dp1333
g54
(dp1334
sg63
g564
sg56
(lp1335
g49
(g70
g51
NtRp1336
(dp1337
g54
(dp1338
g74
g75
ssg63
g1332
sg56
(lp1339
S'web2py_path'
p1340
asbag49
(g70
g51
NtRp1341
(dp1342
g54
(dp1343
g81
g82
ssg63
g1332
sg56
(lp1344
S':'
asbag49
(g70
g51
NtRp1345
(dp1346
g54
(dp1347
sg63
g1332
sg56
(lp1348
g49
(g50
g51
NtRp1349
(dp1350
g54
(dp1351
g62
I4
ssg63
g1345
sg56
(lp1352
g611
asbasbasbag49
(g65
g51
NtRp1353
(dp1354
g54
(dp1355
sg63
g564
sg56
(lp1356
g49
(g70
g51
NtRp1357
(dp1358
g54
(dp1359
g74
g75
ssg63
g1353
sg56
(lp1360
S'web2py_version'
p1361
asbag49
(g70
g51
NtRp1362
(dp1363
g54
(dp1364
g81
g82
ssg63
g1353
sg56
(lp1365
S':'
asbag49
(g70
g51
NtRp1366
(dp1367
g54
(dp1368
sg63
g1353
sg56
(lp1369
g49
(g50
g51
NtRp1370
(dp1371
g54
(dp1372
g62
I4
ssg63
g1366
sg56
(lp1373
g49
(g58
g51
NtRp1374
(dp1375
g54
(dp1376
g62
I3
ssg63
Nsg56
(lp1377
g49
(g65
g51
NtRp1378
(dp1379
g54
(dp1380
sg63
g1374
sg56
(lp1381
g49
(g70
g51
NtRp1382
(dp1383
g54
(dp1384
sg63
g1378
sg56
(lp1385
g49
(g50
g51
NtRp1386
(dp1387
g54
(dp1388
g62
I3
ssg63
g1382
sg56
(lp1389
S'1'
asbasbasbag49
(g65
g51
NtRp1390
(dp1391
g54
(dp1392
sg63
g1374
sg56
(lp1393
g49
(g70
g51
NtRp1394
(dp1395
g54
(dp1396
sg63
g1390
sg56
(lp1397
g49
(g50
g51
NtRp1398
(dp1399
g54
(dp1400
g62
I3
ssg63
g1394
sg56
(lp1401
S'99'
p1402
asbasbasbag49
(g65
g51
NtRp1403
(dp1404
g54
(dp1405
sg63
g1374
sg56
(lp1406
g49
(g70
g51
NtRp1407
(dp1408
g54
(dp1409
sg63
g1403
sg56
(lp1410
g49
(g50
g51
NtRp1411
(dp1412
g54
(dp1413
g62
I3
ssg63
g1407
sg56
(lp1414
S'7'
asbasbasbag49
(g65
g51
NtRp1415
(dp1416
g54
(dp1417
sg63
g1374
sg56
(lp1418
g49
(g70
g51
NtRp1419
(dp1420
g54
(dp1421
sg63
g1415
sg56
(lp1422
g49
(g50
g51
NtRp1423
(dp1424
g54
(dp1425
g62
I3
ssg63
g1419
sg56
(lp1426
S'datetime.datetime(2012, 3, 4, 22, 12, 8)'
p1427
asbasbasbag49
(g65
g51
NtRp1428
(dp1429
g54
(dp1430
sg63
g1374
sg56
(lp1431
g49
(g70
g51
NtRp1432
(dp1433
g54
(dp1434
sg63
g1428
sg56
(lp1435
g49
(g50
g51
NtRp1436
(dp1437
g54
(dp1438
g62
I3
ssg63
g1432
sg56
(lp1439
S'stable'
p1440
asbasbasbasbasbasbasbag49
(g65
g51
NtRp1441
(dp1442
g54
(dp1443
sg63
g564
sg56
(lp1444
g49
(g70
g51
NtRp1445
(dp1446
g54
(dp1447
g74
g75
ssg63
g1441
sg56
(lp1448
S'wsgi_errors'
p1449
asbag49
(g70
g51
NtRp1450
(dp1451
g54
(dp1452
g81
g82
ssg63
g1441
sg56
(lp1453
S':'
asbag49
(g70
g51
NtRp1454
(dp1455
g54
(dp1456
sg63
g1441
sg56
(lp1457
g49
(g50
g51
NtRp1458
(dp1459
g54
(dp1460
g62
I4
ssg63
g1454
sg56
(lp1461
S"<open file '<stderr>', mode 'w' at 0x004200B0>"
p1462
asbasbasbag49
(g65
g51
NtRp1463
(dp1464
g54
(dp1465
sg63
g564
sg56
(lp1466
g49
(g70
g51
NtRp1467
(dp1468
g54
(dp1469
g74
g75
ssg63
g1463
sg56
(lp1470
S'wsgi_file_wrapper'
p1471
asbag49
(g70
g51
NtRp1472
(dp1473
g54
(dp1474
g81
g82
ssg63
g1463
sg56
(lp1475
S':'
asbag49
(g70
g51
NtRp1476
(dp1477
g54
(dp1478
sg63
g1463
sg56
(lp1479
g49
(g50
g51
NtRp1480
(dp1481
g54
(dp1482
g62
I4
ssg63
g1476
sg56
(lp1483
S'<class wsgiref.util.FileWrapper at 0x02FC6390>'
p1484
asbasbasbag49
(g65
g51
NtRp1485
(dp1486
g54
(dp1487
sg63
g564
sg56
(lp1488
g49
(g70
g51
NtRp1489
(dp1490
g54
(dp1491
g74
g75
ssg63
g1485
sg56
(lp1492
S'wsgi_input'
p1493
asbag49
(g70
g51
NtRp1494
(dp1495
g54
(dp1496
g81
g82
ssg63
g1485
sg56
(lp1497
S':'
asbag49
(g70
g51
NtRp1498
(dp1499
g54
(dp1500
sg63
g1485
sg56
(lp1501
g49
(g50
g51
NtRp1502
(dp1503
g54
(dp1504
g62
I4
ssg63
g1498
sg56
(lp1505
S'<socket._fileobject object at 0x06E61530>'
p1506
asbasbasbag49
(g65
g51
NtRp1507
(dp1508
g54
(dp1509
sg63
g564
sg56
(lp1510
g49
(g70
g51
NtRp1511
(dp1512
g54
(dp1513
g74
g75
ssg63
g1507
sg56
(lp1514
S'wsgi_multiprocess'
p1515
asbag49
(g70
g51
NtRp1516
(dp1517
g54
(dp1518
g81
g82
ssg63
g1507
sg56
(lp1519
S':'
asbag49
(g70
g51
NtRp1520
(dp1521
g54
(dp1522
sg63
g1507
sg56
(lp1523
g49
(g50
g51
NtRp1524
(dp1525
g54
(dp1526
g62
I4
ssg63
g1520
sg56
(lp1527
g92
asbasbasbag49
(g65
g51
NtRp1528
(dp1529
g54
(dp1530
sg63
g564
sg56
(lp1531
g49
(g70
g51
NtRp1532
(dp1533
g54
(dp1534
g74
g75
ssg63
g1528
sg56
(lp1535
S'wsgi_multithread'
p1536
asbag49
(g70
g51
NtRp1537
(dp1538
g54
(dp1539
g81
g82
ssg63
g1528
sg56
(lp1540
S':'
asbag49
(g70
g51
NtRp1541
(dp1542
g54
(dp1543
sg63
g1528
sg56
(lp1544
g49
(g50
g51
NtRp1545
(dp1546
g54
(dp1547
g62
I4
ssg63
g1541
sg56
(lp1548
S'True'
p1549
asbasbasbag49
(g65
g51
NtRp1550
(dp1551
g54
(dp1552
sg63
g564
sg56
(lp1553
g49
(g70
g51
NtRp1554
(dp1555
g54
(dp1556
g74
g75
ssg63
g1550
sg56
(lp1557
S'wsgi_run_once'
p1558
asbag49
(g70
g51
NtRp1559
(dp1560
g54
(dp1561
g81
g82
ssg63
g1550
sg56
(lp1562
S':'
asbag49
(g70
g51
NtRp1563
(dp1564
g54
(dp1565
sg63
g1550
sg56
(lp1566
g49
(g50
g51
NtRp1567
(dp1568
g54
(dp1569
g62
I4
ssg63
g1563
sg56
(lp1570
g92
asbasbasbag49
(g65
g51
NtRp1571
(dp1572
g54
(dp1573
sg63
g564
sg56
(lp1574
g49
(g70
g51
NtRp1575
(dp1576
g54
(dp1577
g74
g75
ssg63
g1571
sg56
(lp1578
S'wsgi_url_scheme'
p1579
asbag49
(g70
g51
NtRp1580
(dp1581
g54
(dp1582
g81
g82
ssg63
g1571
sg56
(lp1583
S':'
asbag49
(g70
g51
NtRp1584
(dp1585
g54
(dp1586
sg63
g1571
sg56
(lp1587
g49
(g50
g51
NtRp1588
(dp1589
g54
(dp1590
g62
I4
ssg63
g1584
sg56
(lp1591
S'http'
p1592
asbasbasbag49
(g65
g51
NtRp1593
(dp1594
g54
(dp1595
sg63
g564
sg56
(lp1596
g49
(g70
g51
NtRp1597
(dp1598
g54
(dp1599
g74
g75
ssg63
g1593
sg56
(lp1600
S'wsgi_version'
p1601
asbag49
(g70
g51
NtRp1602
(dp1603
g54
(dp1604
g81
g82
ssg63
g1593
sg56
(lp1605
S':'
asbag49
(g70
g51
NtRp1606
(dp1607
g54
(dp1608
sg63
g1593
sg56
(lp1609
g49
(g50
g51
NtRp1610
(dp1611
g54
(dp1612
g62
I4
ssg63
g1606
sg56
(lp1613
g49
(g58
g51
NtRp1614
(dp1615
g54
(dp1616
g62
I3
ssg63
Nsg56
(lp1617
g49
(g65
g51
NtRp1618
(dp1619
g54
(dp1620
sg63
g1614
sg56
(lp1621
g49
(g70
g51
NtRp1622
(dp1623
g54
(dp1624
sg63
g1618
sg56
(lp1625
g49
(g50
g51
NtRp1626
(dp1627
g54
(dp1628
g62
I3
ssg63
g1622
sg56
(lp1629
S'1'
asbasbasbag49
(g65
g51
NtRp1630
(dp1631
g54
(dp1632
sg63
g1614
sg56
(lp1633
g49
(g70
g51
NtRp1634
(dp1635
g54
(dp1636
sg63
g1630
sg56
(lp1637
g49
(g50
g51
NtRp1638
(dp1639
g54
(dp1640
g62
I3
ssg63
g1634
sg56
(lp1641
S'0'
asbasbasbasbasbasbasbasbasbasbasbag49
(g65
g51
NtRp1642
(dp1643
g54
(dp1644
sg63
g59
sg56
(lp1645
g49
(g70
g51
NtRp1646
(dp1647
g54
(dp1648
g74
g75
ssg63
g1642
sg56
(lp1649
S'extension'
p1650
asbag49
(g70
g51
NtRp1651
(dp1652
g54
(dp1653
g81
g82
ssg63
g1642
sg56
(lp1654
S':'
asbag49
(g70
g51
NtRp1655
(dp1656
g54
(dp1657
sg63
g1642
sg56
(lp1658
g49
(g50
g51
NtRp1659
(dp1660
g54
(dp1661
g62
I5
ssg63
g1655
sg56
(lp1662
S'html'
p1663
asbasbasbag49
(g65
g51
NtRp1664
(dp1665
g54
(dp1666
sg63
g59
sg56
(lp1667
g49
(g70
g51
NtRp1668
(dp1669
g54
(dp1670
g74
g75
ssg63
g1664
sg56
(lp1671
S'folder'
p1672
asbag49
(g70
g51
NtRp1673
(dp1674
g54
(dp1675
g81
g82
ssg63
g1664
sg56
(lp1676
S':'
asbag49
(g70
g51
NtRp1677
(dp1678
g54
(dp1679
sg63
g1664
sg56
(lp1680
g49
(g50
g51
NtRp1681
(dp1682
g54
(dp1683
g62
I5
ssg63
g1677
sg56
(lp1684
S'D:\\Dise\xf1o Web\\Proyectos\\Parleyweb\\web2py\\applications\\parleyweb\\'
p1685
asbasbasbag49
(g65
g51
NtRp1686
(dp1687
g54
(dp1688
sg63
g59
sg56
(lp1689
g49
(g70
g51
NtRp1690
(dp1691
g54
(dp1692
g74
g75
ssg63
g1686
sg56
(lp1693
S'function'
p1694
asbag49
(g70
g51
NtRp1695
(dp1696
g54
(dp1697
g81
g82
ssg63
g1686
sg56
(lp1698
S':'
asbag49
(g70
g51
NtRp1699
(dp1700
g54
(dp1701
sg63
g1686
sg56
(lp1702
g49
(g50
g51
NtRp1703
(dp1704
g54
(dp1705
g62
I5
ssg63
g1699
sg56
(lp1706
S'relacionar'
p1707
asbasbasbag49
(g65
g51
NtRp1708
(dp1709
g54
(dp1710
sg63
g59
sg56
(lp1711
g49
(g70
g51
NtRp1712
(dp1713
g54
(dp1714
g74
g75
ssg63
g1708
sg56
(lp1715
S'get_vars'
p1716
asbag49
(g70
g51
NtRp1717
(dp1718
g54
(dp1719
g81
g82
ssg63
g1708
sg56
(lp1720
S':'
asbag49
(g70
g51
NtRp1721
(dp1722
g54
(dp1723
sg63
g1708
sg56
(lp1724
g49
(g50
g51
NtRp1725
(dp1726
g54
(dp1727
g62
I5
ssg63
g1721
sg56
(lp1728
g49
(g58
g51
NtRp1729
(dp1730
g54
(dp1731
g62
I4
ssg63
Nsg56
(lp1732
sbasbasbasbag49
(g65
g51
NtRp1733
(dp1734
g54
(dp1735
sg63
g59
sg56
(lp1736
g49
(g70
g51
NtRp1737
(dp1738
g54
(dp1739
g74
g75
ssg63
g1733
sg56
(lp1740
S'global_settings'
p1741
asbag49
(g70
g51
NtRp1742
(dp1743
g54
(dp1744
g81
g82
ssg63
g1733
sg56
(lp1745
S':'
asbag49
(g70
g51
NtRp1746
(dp1747
g54
(dp1748
sg63
g1733
sg56
(lp1749
g49
(g50
g51
NtRp1750
(dp1751
g54
(dp1752
g62
I5
ssg63
g1746
sg56
(lp1753
g49
(g58
g51
NtRp1754
(dp1755
g54
(dp1756
g62
I4
ssg63
Nsg56
(lp1757
g49
(g65
g51
NtRp1758
(dp1759
g54
(dp1760
sg63
g1754
sg56
(lp1761
g49
(g70
g51
NtRp1762
(dp1763
g54
(dp1764
g74
g75
ssg63
g1758
sg56
(lp1765
g576
asbag49
(g70
g51
NtRp1766
(dp1767
g54
(dp1768
g81
g82
ssg63
g1758
sg56
(lp1769
S':'
asbag49
(g70
g51
NtRp1770
(dp1771
g54
(dp1772
sg63
g1758
sg56
(lp1773
g49
(g50
g51
NtRp1774
(dp1775
g54
(dp1776
g62
I4
ssg63
g1770
sg56
(lp1777
S"set(['D:\\\\Dise\\xf1o Web\\\\Proyectos\\\\Parleyweb\\\\web2py\\\\applications\\\\parleyweb\\\\', 'D:\\\\Dise\\xf1o Web\\\\Proyectos\\\\Parleyweb\\\\web2py\\\\applications\\\\admin\\\\'])"
p1778
asbasbasbag49
(g65
g51
NtRp1779
(dp1780
g54
(dp1781
sg63
g1754
sg56
(lp1782
g49
(g70
g51
NtRp1783
(dp1784
g54
(dp1785
g74
g75
ssg63
g1779
sg56
(lp1786
g598
asbag49
(g70
g51
NtRp1787
(dp1788
g54
(dp1789
g81
g82
ssg63
g1779
sg56
(lp1790
S':'
asbag49
(g70
g51
NtRp1791
(dp1792
g54
(dp1793
sg63
g1779
sg56
(lp1794
g49
(g50
g51
NtRp1795
(dp1796
g54
(dp1797
g62
I4
ssg63
g1791
sg56
(lp1798
g611
asbasbasbag49
(g65
g51
NtRp1799
(dp1800
g54
(dp1801
sg63
g1754
sg56
(lp1802
g49
(g70
g51
NtRp1803
(dp1804
g54
(dp1805
g74
g75
ssg63
g1799
sg56
(lp1806
g620
asbag49
(g70
g51
NtRp1807
(dp1808
g54
(dp1809
g81
g82
ssg63
g1799
sg56
(lp1810
S':'
asbag49
(g70
g51
NtRp1811
(dp1812
g54
(dp1813
sg63
g1799
sg56
(lp1814
g49
(g50
g51
NtRp1815
(dp1816
g54
(dp1817
g62
I4
ssg63
g1811
sg56
(lp1818
g49
(g58
g51
NtRp1819
(dp1820
g54
(dp1821
g62
I3
ssg63
Nsg56
(lp1822
sbasbasbasbag49
(g65
g51
NtRp1823
(dp1824
g54
(dp1825
sg63
g1754
sg56
(lp1826
g49
(g70
g51
NtRp1827
(dp1828
g54
(dp1829
g74
g75
ssg63
g1823
sg56
(lp1830
g645
asbag49
(g70
g51
NtRp1831
(dp1832
g54
(dp1833
g81
g82
ssg63
g1823
sg56
(lp1834
S':'
asbag49
(g70
g51
NtRp1835
(dp1836
g54
(dp1837
sg63
g1823
sg56
(lp1838
g49
(g50
g51
NtRp1839
(dp1840
g54
(dp1841
g62
I4
ssg63
g1835
sg56
(lp1842
S"<Values at 0x3185238: {'verbose': False, 'ip': '127.0.0.1', 'shutdown_timeout': 5, 'taskbar': False, 'nocron': False, 'pid_filename': 'httpserver.pid', 'maxthreads': None, 'softcron': False, 'server_name': 'craxsnet-PC', 'bpython': False, 'nogui': False, 'port': 8000, 'extcron': False, 'debuglevel': 30, 'test': None, 'folder': 'D:\\\\Dise\\xf1o Web\\\\Proyectos\\\\Parleyweb\\\\web2py', 'config': '', 'import_models': False, 'winservice': '', 'shell': None, 'run': '', 'log_filename': 'httpserver.log', 'args': [''], 'socket_timeout': 5, 'ssl_ca_certificate': None, 'scheduler': None, 'profiler_filename': None, 'ssl_private_key': '', 'password': '<ask>', 'request_queue_size': 5, 'ssl_certificate': '', 'cronjob': False, 'numthreads': None, 'quiet': False, 'interfaces': None, 'minthreads': None, 'timeout': 10, 'plain': False, 'nobanner': False}>"
p1843
asbasbasbag49
(g65
g51
NtRp1844
(dp1845
g54
(dp1846
sg63
g1754
sg56
(lp1847
g49
(g70
g51
NtRp1848
(dp1849
g54
(dp1850
g74
g75
ssg63
g1844
sg56
(lp1851
g711
asbag49
(g70
g51
NtRp1852
(dp1853
g54
(dp1854
g81
g82
ssg63
g1844
sg56
(lp1855
S':'
asbag49
(g70
g51
NtRp1856
(dp1857
g54
(dp1858
sg63
g1844
sg56
(lp1859
g49
(g50
g51
NtRp1860
(dp1861
g54
(dp1862
g62
I4
ssg63
g1856
sg56
(lp1863
S'set([])'
p1864
asbasbasbag49
(g65
g51
NtRp1865
(dp1866
g54
(dp1867
sg63
g1754
sg56
(lp1868
g49
(g70
g51
NtRp1869
(dp1870
g54
(dp1871
g74
g75
ssg63
g1865
sg56
(lp1872
g733
asbag49
(g70
g51
NtRp1873
(dp1874
g54
(dp1875
g81
g82
ssg63
g1865
sg56
(lp1876
S':'
asbag49
(g70
g51
NtRp1877
(dp1878
g54
(dp1879
sg63
g1865
sg56
(lp1880
g49
(g50
g51
NtRp1881
(dp1882
g54
(dp1883
g62
I4
ssg63
g1877
sg56
(lp1884
g92
asbasbasbag49
(g65
g51
NtRp1885
(dp1886
g54
(dp1887
sg63
g1754
sg56
(lp1888
g49
(g70
g51
NtRp1889
(dp1890
g54
(dp1891
g74
g75
ssg63
g1885
sg56
(lp1892
g754
asbag49
(g70
g51
NtRp1893
(dp1894
g54
(dp1895
g81
g82
ssg63
g1885
sg56
(lp1896
S':'
asbag49
(g70
g51
NtRp1897
(dp1898
g54
(dp1899
sg63
g1885
sg56
(lp1900
g49
(g50
g51
NtRp1901
(dp1902
g54
(dp1903
g62
I4
ssg63
g1897
sg56
(lp1904
g767
asbasbasbag49
(g65
g51
NtRp1905
(dp1906
g54
(dp1907
sg63
g1754
sg56
(lp1908
g49
(g70
g51
NtRp1909
(dp1910
g54
(dp1911
g74
g75
ssg63
g1905
sg56
(lp1912
g1016
asbag49
(g70
g51
NtRp1913
(dp1914
g54
(dp1915
g81
g82
ssg63
g1905
sg56
(lp1916
S':'
asbag49
(g70
g51
NtRp1917
(dp1918
g54
(dp1919
sg63
g1905
sg56
(lp1920
g49
(g50
g51
NtRp1921
(dp1922
g54
(dp1923
g62
I4
ssg63
g1917
sg56
(lp1924
g92
asbasbasbag49
(g65
g51
NtRp1925
(dp1926
g54
(dp1927
sg63
g1754
sg56
(lp1928
g49
(g70
g51
NtRp1929
(dp1930
g54
(dp1931
g74
g75
ssg63
g1925
sg56
(lp1932
g1037
asbag49
(g70
g51
NtRp1933
(dp1934
g54
(dp1935
g81
g82
ssg63
g1925
sg56
(lp1936
S':'
asbag49
(g70
g51
NtRp1937
(dp1938
g54
(dp1939
sg63
g1925
sg56
(lp1940
g49
(g50
g51
NtRp1941
(dp1942
g54
(dp1943
g62
I4
ssg63
g1937
sg56
(lp1944
g92
asbasbasbag49
(g65
g51
NtRp1945
(dp1946
g54
(dp1947
sg63
g1754
sg56
(lp1948
g49
(g70
g51
NtRp1949
(dp1950
g54
(dp1951
g74
g75
ssg63
g1945
sg56
(lp1952
g1296
asbag49
(g70
g51
NtRp1953
(dp1954
g54
(dp1955
g81
g82
ssg63
g1945
sg56
(lp1956
S':'
asbag49
(g70
g51
NtRp1957
(dp1958
g54
(dp1959
sg63
g1945
sg56
(lp1960
g49
(g50
g51
NtRp1961
(dp1962
g54
(dp1963
g62
I4
ssg63
g1957
sg56
(lp1964
g1309
asbasbasbag49
(g65
g51
NtRp1965
(dp1966
g54
(dp1967
sg63
g1754
sg56
(lp1968
g49
(g70
g51
NtRp1969
(dp1970
g54
(dp1971
g74
g75
ssg63
g1965
sg56
(lp1972
g1361
asbag49
(g70
g51
NtRp1973
(dp1974
g54
(dp1975
g81
g82
ssg63
g1965
sg56
(lp1976
S':'
asbag49
(g70
g51
NtRp1977
(dp1978
g54
(dp1979
sg63
g1965
sg56
(lp1980
g49
(g50
g51
NtRp1981
(dp1982
g54
(dp1983
g62
I4
ssg63
g1977
sg56
(lp1984
g49
(g58
g51
NtRp1985
(dp1986
g54
(dp1987
g62
I3
ssg63
Nsg56
(lp1988
g49
(g65
g51
NtRp1989
(dp1990
g54
(dp1991
sg63
g1985
sg56
(lp1992
g49
(g70
g51
NtRp1993
(dp1994
g54
(dp1995
sg63
g1989
sg56
(lp1996
g49
(g50
g51
NtRp1997
(dp1998
g54
(dp1999
g62
I3
ssg63
g1993
sg56
(lp2000
S'1'
asbasbasbag49
(g65
g51
NtRp2001
(dp2002
g54
(dp2003
sg63
g1985
sg56
(lp2004
g49
(g70
g51
NtRp2005
(dp2006
g54
(dp2007
sg63
g2001
sg56
(lp2008
g49
(g50
g51
NtRp2009
(dp2010
g54
(dp2011
g62
I3
ssg63
g2005
sg56
(lp2012
S'99'
p2013
asbasbasbag49
(g65
g51
NtRp2014
(dp2015
g54
(dp2016
sg63
g1985
sg56
(lp2017
g49
(g70
g51
NtRp2018
(dp2019
g54
(dp2020
sg63
g2014
sg56
(lp2021
g49
(g50
g51
NtRp2022
(dp2023
g54
(dp2024
g62
I3
ssg63
g2018
sg56
(lp2025
S'7'
asbasbasbag49
(g65
g51
NtRp2026
(dp2027
g54
(dp2028
sg63
g1985
sg56
(lp2029
g49
(g70
g51
NtRp2030
(dp2031
g54
(dp2032
sg63
g2026
sg56
(lp2033
g49
(g50
g51
NtRp2034
(dp2035
g54
(dp2036
g62
I3
ssg63
g2030
sg56
(lp2037
S'datetime.datetime(2012, 3, 4, 22, 12, 8)'
p2038
asbasbasbag49
(g65
g51
NtRp2039
(dp2040
g54
(dp2041
sg63
g1985
sg56
(lp2042
g49
(g70
g51
NtRp2043
(dp2044
g54
(dp2045
sg63
g2039
sg56
(lp2046
g49
(g50
g51
NtRp2047
(dp2048
g54
(dp2049
g62
I3
ssg63
g2043
sg56
(lp2050
g1440
asbasbasbasbasbasbasbasbasbasbasbag49
(g65
g51
NtRp2051
(dp2052
g54
(dp2053
sg63
g59
sg56
(lp2054
g49
(g70
g51
NtRp2055
(dp2056
g54
(dp2057
g74
g75
ssg63
g2051
sg56
(lp2058
S'is_https'
p2059
asbag49
(g70
g51
NtRp2060
(dp2061
g54
(dp2062
g81
g82
ssg63
g2051
sg56
(lp2063
S':'
asbag49
(g70
g51
NtRp2064
(dp2065
g54
(dp2066
sg63
g2051
sg56
(lp2067
g49
(g50
g51
NtRp2068
(dp2069
g54
(dp2070
g62
I5
ssg63
g2064
sg56
(lp2071
g92
asbasbasbag49
(g65
g51
NtRp2072
(dp2073
g54
(dp2074
sg63
g59
sg56
(lp2075
g49
(g70
g51
NtRp2076
(dp2077
g54
(dp2078
g74
g75
ssg63
g2072
sg56
(lp2079
S'is_local'
p2080
asbag49
(g70
g51
NtRp2081
(dp2082
g54
(dp2083
g81
g82
ssg63
g2072
sg56
(lp2084
S':'
asbag49
(g70
g51
NtRp2085
(dp2086
g54
(dp2087
sg63
g2072
sg56
(lp2088
g49
(g50
g51
NtRp2089
(dp2090
g54
(dp2091
g62
I5
ssg63
g2085
sg56
(lp2092
g1549
asbasbasbag49
(g65
g51
NtRp2093
(dp2094
g54
(dp2095
sg63
g59
sg56
(lp2096
g49
(g70
g51
NtRp2097
(dp2098
g54
(dp2099
g74
g75
ssg63
g2093
sg56
(lp2100
S'is_restful'
p2101
asbag49
(g70
g51
NtRp2102
(dp2103
g54
(dp2104
g81
g82
ssg63
g2093
sg56
(lp2105
S':'
asbag49
(g70
g51
NtRp2106
(dp2107
g54
(dp2108
sg63
g2093
sg56
(lp2109
g49
(g50
g51
NtRp2110
(dp2111
g54
(dp2112
g62
I5
ssg63
g2106
sg56
(lp2113
g92
asbasbasbag49
(g65
g51
NtRp2114
(dp2115
g54
(dp2116
sg63
g59
sg56
(lp2117
g49
(g70
g51
NtRp2118
(dp2119
g54
(dp2120
g74
g75
ssg63
g2114
sg56
(lp2121
S'now'
p2122
asbag49
(g70
g51
NtRp2123
(dp2124
g54
(dp2125
g81
g82
ssg63
g2114
sg56
(lp2126
S':'
asbag49
(g70
g51
NtRp2127
(dp2128
g54
(dp2129
sg63
g2114
sg56
(lp2130
g49
(g50
g51
NtRp2131
(dp2132
g54
(dp2133
g62
I5
ssg63
g2127
sg56
(lp2134
S'datetime.datetime(2012, 3, 15, 14, 12, 21, 851000)'
p2135
asbasbasbag49
(g65
g51
NtRp2136
(dp2137
g54
(dp2138
sg63
g59
sg56
(lp2139
g49
(g70
g51
NtRp2140
(dp2141
g54
(dp2142
g74
g75
ssg63
g2136
sg56
(lp2143
S'post_vars'
p2144
asbag49
(g70
g51
NtRp2145
(dp2146
g54
(dp2147
g81
g82
ssg63
g2136
sg56
(lp2148
S':'
asbag49
(g70
g51
NtRp2149
(dp2150
g54
(dp2151
sg63
g2136
sg56
(lp2152
g49
(g50
g51
NtRp2153
(dp2154
g54
(dp2155
g62
I5
ssg63
g2149
sg56
(lp2156
g49
(g58
g51
NtRp2157
(dp2158
g54
(dp2159
g62
I4
ssg63
Nsg56
(lp2160
g49
(g65
g51
NtRp2161
(dp2162
g54
(dp2163
sg63
g2157
sg56
(lp2164
g49
(g70
g51
NtRp2165
(dp2166
g54
(dp2167
g74
g75
ssg63
g2161
sg56
(lp2168
S'id_palabra'
p2169
asbag49
(g70
g51
NtRp2170
(dp2171
g54
(dp2172
g81
g82
ssg63
g2161
sg56
(lp2173
S':'
asbag49
(g70
g51
NtRp2174
(dp2175
g54
(dp2176
sg63
g2161
sg56
(lp2177
g49
(g50
g51
NtRp2178
(dp2179
g54
(dp2180
g62
I4
ssg63
g2174
sg56
(lp2181
S'135'
p2182
asbasbasbag49
(g65
g51
NtRp2183
(dp2184
g54
(dp2185
sg63
g2157
sg56
(lp2186
g49
(g70
g51
NtRp2187
(dp2188
g54
(dp2189
g74
g75
ssg63
g2183
sg56
(lp2190
S'relacionar'
p2191
asbag49
(g70
g51
NtRp2192
(dp2193
g54
(dp2194
g81
g82
ssg63
g2183
sg56
(lp2195
S':'
asbag49
(g70
g51
NtRp2196
(dp2197
g54
(dp2198
sg63
g2183
sg56
(lp2199
g49
(g50
g51
NtRp2200
(dp2201
g54
(dp2202
g62
I4
ssg63
g2196
sg56
(lp2203
S'31'
p2204
asbasbasbasbasbasbasbag49
(g65
g51
NtRp2205
(dp2206
g54
(dp2207
sg63
g59
sg56
(lp2208
g49
(g70
g51
NtRp2209
(dp2210
g54
(dp2211
g74
g75
ssg63
g2205
sg56
(lp2212
S'url'
p2213
asbag49
(g70
g51
NtRp2214
(dp2215
g54
(dp2216
g81
g82
ssg63
g2205
sg56
(lp2217
S':'
asbag49
(g70
g51
NtRp2218
(dp2219
g54
(dp2220
sg63
g2205
sg56
(lp2221
g49
(g50
g51
NtRp2222
(dp2223
g54
(dp2224
g62
I5
ssg63
g2218
sg56
(lp2225
S'/parleyweb/admin/relacionar'
p2226
asbasbasbag49
(g65
g51
NtRp2227
(dp2228
g54
(dp2229
sg63
g59
sg56
(lp2230
g49
(g70
g51
NtRp2231
(dp2232
g54
(dp2233
g74
g75
ssg63
g2227
sg56
(lp2234
S'utcnow'
p2235
asbag49
(g70
g51
NtRp2236
(dp2237
g54
(dp2238
g81
g82
ssg63
g2227
sg56
(lp2239
S':'
asbag49
(g70
g51
NtRp2240
(dp2241
g54
(dp2242
sg63
g2227
sg56
(lp2243
g49
(g50
g51
NtRp2244
(dp2245
g54
(dp2246
g62
I5
ssg63
g2240
sg56
(lp2247
S'datetime.datetime(2012, 3, 15, 13, 12, 21, 851000)'
p2248
asbasbasbag49
(g65
g51
NtRp2249
(dp2250
g54
(dp2251
sg63
g59
sg56
(lp2252
g49
(g70
g51
NtRp2253
(dp2254
g54
(dp2255
g74
g75
ssg63
g2249
sg56
(lp2256
S'uuid'
p2257
asbag49
(g70
g51
NtRp2258
(dp2259
g54
(dp2260
g81
g82
ssg63
g2249
sg56
(lp2261
S':'
asbag49
(g70
g51
NtRp2262
(dp2263
g54
(dp2264
sg63
g2249
sg56
(lp2265
g49
(g50
g51
NtRp2266
(dp2267
g54
(dp2268
g62
I5
ssg63
g2262
sg56
(lp2269
S'parleyweb/127.0.0.1.2012-03-15.14-12-21.4351f3d2-7447-4f69-9334-71ed94a10c1b'
p2270
asbasbasbag49
(g65
g51
NtRp2271
(dp2272
g54
(dp2273
sg63
g59
sg56
(lp2274
g49
(g70
g51
NtRp2275
(dp2276
g54
(dp2277
g74
g75
ssg63
g2271
sg56
(lp2278
S'vars'
p2279
asbag49
(g70
g51
NtRp2280
(dp2281
g54
(dp2282
g81
g82
ssg63
g2271
sg56
(lp2283
S':'
asbag49
(g70
g51
NtRp2284
(dp2285
g54
(dp2286
sg63
g2271
sg56
(lp2287
g49
(g50
g51
NtRp2288
(dp2289
g54
(dp2290
g62
I5
ssg63
g2284
sg56
(lp2291
g49
(g58
g51
NtRp2292
(dp2293
g54
(dp2294
g62
I4
ssg63
Nsg56
(lp2295
g49
(g65
g51
NtRp2296
(dp2297
g54
(dp2298
sg63
g2292
sg56
(lp2299
g49
(g70
g51
NtRp2300
(dp2301
g54
(dp2302
g74
g75
ssg63
g2296
sg56
(lp2303
g2169
asbag49
(g70
g51
NtRp2304
(dp2305
g54
(dp2306
g81
g82
ssg63
g2296
sg56
(lp2307
S':'
asbag49
(g70
g51
NtRp2308
(dp2309
g54
(dp2310
sg63
g2296
sg56
(lp2311
g49
(g50
g51
NtRp2312
(dp2313
g54
(dp2314
g62
I4
ssg63
g2308
sg56
(lp2315
g2182
asbasbasbag49
(g65
g51
NtRp2316
(dp2317
g54
(dp2318
sg63
g2292
sg56
(lp2319
g49
(g70
g51
NtRp2320
(dp2321
g54
(dp2322
g74
g75
ssg63
g2316
sg56
(lp2323
g2191
asbag49
(g70
g51
NtRp2324
(dp2325
g54
(dp2326
g81
g82
ssg63
g2316
sg56
(lp2327
S':'
asbag49
(g70
g51
NtRp2328
(dp2329
g54
(dp2330
sg63
g2316
sg56
(lp2331
g49
(g50
g51
NtRp2332
(dp2333
g54
(dp2334
g62
I4
ssg63
g2328
sg56
(lp2335
g2204
asbasbasbasbasbasbasbag49
(g65
g51
NtRp2336
(dp2337
g54
(dp2338
sg63
g59
sg56
(lp2339
g49
(g70
g51
NtRp2340
(dp2341
g54
(dp2342
g74
g75
ssg63
g2336
sg56
(lp2343
S'wsgi'
p2344
asbag49
(g70
g51
NtRp2345
(dp2346
g54
(dp2347
g81
g82
ssg63
g2336
sg56
(lp2348
S':'
asbag49
(g70
g51
NtRp2349
(dp2350
g54
(dp2351
sg63
g2336
sg56
(lp2352
g49
(g50
g51
NtRp2353
(dp2354
g54
(dp2355
g62
I5
ssg63
g2349
sg56
(lp2356
g49
(g58
g51
NtRp2357
(dp2358
g54
(dp2359
g62
I4
ssg63
Nsg56
(lp2360
g49
(g65
g51
NtRp2361
(dp2362
g54
(dp2363
sg63
g2357
sg56
(lp2364
g49
(g70
g51
NtRp2365
(dp2366
g54
(dp2367
g74
g75
ssg63
g2361
sg56
(lp2368
S'environ'
p2369
asbag49
(g70
g51
NtRp2370
(dp2371
g54
(dp2372
g81
g82
ssg63
g2361
sg56
(lp2373
S':'
asbag49
(g70
g51
NtRp2374
(dp2375
g54
(dp2376
sg63
g2361
sg56
(lp2377
g49
(g50
g51
NtRp2378
(dp2379
g54
(dp2380
g62
I4
ssg63
g2374
sg56
(lp2381
g49
(g58
g51
NtRp2382
(dp2383
g54
(dp2384
g62
I3
ssg63
Nsg56
(lp2385
g49
(g65
g51
NtRp2386
(dp2387
g54
(dp2388
sg63
g2382
sg56
(lp2389
g49
(g70
g51
NtRp2390
(dp2391
g54
(dp2392
g74
g75
ssg63
g2386
sg56
(lp2393
S'CONTENT_LENGTH'
p2394
asbag49
(g70
g51
NtRp2395
(dp2396
g54
(dp2397
g81
g82
ssg63
g2386
sg56
(lp2398
S':'
asbag49
(g70
g51
NtRp2399
(dp2400
g54
(dp2401
sg63
g2386
sg56
(lp2402
g49
(g50
g51
NtRp2403
(dp2404
g54
(dp2405
g62
I3
ssg63
g2399
sg56
(lp2406
g680
asbasbasbag49
(g65
g51
NtRp2407
(dp2408
g54
(dp2409
sg63
g2382
sg56
(lp2410
g49
(g70
g51
NtRp2411
(dp2412
g54
(dp2413
g74
g75
ssg63
g2407
sg56
(lp2414
S'CONTENT_TYPE'
p2415
asbag49
(g70
g51
NtRp2416
(dp2417
g54
(dp2418
g81
g82
ssg63
g2407
sg56
(lp2419
S':'
asbag49
(g70
g51
NtRp2420
(dp2421
g54
(dp2422
sg63
g2407
sg56
(lp2423
g49
(g50
g51
NtRp2424
(dp2425
g54
(dp2426
g62
I3
ssg63
g2420
sg56
(lp2427
g702
asbasbasbag49
(g65
g51
NtRp2428
(dp2429
g54
(dp2430
sg63
g2382
sg56
(lp2431
g49
(g70
g51
NtRp2432
(dp2433
g54
(dp2434
g74
g75
ssg63
g2428
sg56
(lp2435
S'HTTP_ACCEPT'
p2436
asbag49
(g70
g51
NtRp2437
(dp2438
g54
(dp2439
g81
g82
ssg63
g2428
sg56
(lp2440
S':'
asbag49
(g70
g51
NtRp2441
(dp2442
g54
(dp2443
sg63
g2428
sg56
(lp2444
g49
(g50
g51
NtRp2445
(dp2446
g54
(dp2447
g62
I3
ssg63
g2441
sg56
(lp2448
g789
asbasbasbag49
(g65
g51
NtRp2449
(dp2450
g54
(dp2451
sg63
g2382
sg56
(lp2452
g49
(g70
g51
NtRp2453
(dp2454
g54
(dp2455
g74
g75
ssg63
g2449
sg56
(lp2456
S'HTTP_ACCEPT_ENCODING'
p2457
asbag49
(g70
g51
NtRp2458
(dp2459
g54
(dp2460
g81
g82
ssg63
g2449
sg56
(lp2461
S':'
asbag49
(g70
g51
NtRp2462
(dp2463
g54
(dp2464
sg63
g2449
sg56
(lp2465
g49
(g50
g51
NtRp2466
(dp2467
g54
(dp2468
g62
I3
ssg63
g2462
sg56
(lp2469
g811
asbasbasbag49
(g65
g51
NtRp2470
(dp2471
g54
(dp2472
sg63
g2382
sg56
(lp2473
g49
(g70
g51
NtRp2474
(dp2475
g54
(dp2476
g74
g75
ssg63
g2470
sg56
(lp2477
S'HTTP_ACCEPT_LANGUAGE'
p2478
asbag49
(g70
g51
NtRp2479
(dp2480
g54
(dp2481
g81
g82
ssg63
g2470
sg56
(lp2482
S':'
asbag49
(g70
g51
NtRp2483
(dp2484
g54
(dp2485
sg63
g2470
sg56
(lp2486
g49
(g50
g51
NtRp2487
(dp2488
g54
(dp2489
g62
I3
ssg63
g2483
sg56
(lp2490
g833
asbasbasbag49
(g65
g51
NtRp2491
(dp2492
g54
(dp2493
sg63
g2382
sg56
(lp2494
g49
(g70
g51
NtRp2495
(dp2496
g54
(dp2497
g74
g75
ssg63
g2491
sg56
(lp2498
S'HTTP_CACHE_CONTROL'
p2499
asbag49
(g70
g51
NtRp2500
(dp2501
g54
(dp2502
g81
g82
ssg63
g2491
sg56
(lp2503
S':'
asbag49
(g70
g51
NtRp2504
(dp2505
g54
(dp2506
sg63
g2491
sg56
(lp2507
g49
(g50
g51
NtRp2508
(dp2509
g54
(dp2510
g62
I3
ssg63
g2504
sg56
(lp2511
g855
asbasbasbag49
(g65
g51
NtRp2512
(dp2513
g54
(dp2514
sg63
g2382
sg56
(lp2515
g49
(g70
g51
NtRp2516
(dp2517
g54
(dp2518
g74
g75
ssg63
g2512
sg56
(lp2519
S'HTTP_CONNECTION'
p2520
asbag49
(g70
g51
NtRp2521
(dp2522
g54
(dp2523
g81
g82
ssg63
g2512
sg56
(lp2524
S':'
asbag49
(g70
g51
NtRp2525
(dp2526
g54
(dp2527
sg63
g2512
sg56
(lp2528
g49
(g50
g51
NtRp2529
(dp2530
g54
(dp2531
g62
I3
ssg63
g2525
sg56
(lp2532
g877
asbasbasbag49
(g65
g51
NtRp2533
(dp2534
g54
(dp2535
sg63
g2382
sg56
(lp2536
g49
(g70
g51
NtRp2537
(dp2538
g54
(dp2539
g74
g75
ssg63
g2533
sg56
(lp2540
S'HTTP_CONTENT_LENGTH'
p2541
asbag49
(g70
g51
NtRp2542
(dp2543
g54
(dp2544
g81
g82
ssg63
g2533
sg56
(lp2545
S':'
asbag49
(g70
g51
NtRp2546
(dp2547
g54
(dp2548
sg63
g2533
sg56
(lp2549
g49
(g50
g51
NtRp2550
(dp2551
g54
(dp2552
g62
I3
ssg63
g2546
sg56
(lp2553
g680
asbasbasbag49
(g65
g51
NtRp2554
(dp2555
g54
(dp2556
sg63
g2382
sg56
(lp2557
g49
(g70
g51
NtRp2558
(dp2559
g54
(dp2560
g74
g75
ssg63
g2554
sg56
(lp2561
S'HTTP_CONTENT_TYPE'
p2562
asbag49
(g70
g51
NtRp2563
(dp2564
g54
(dp2565
g81
g82
ssg63
g2554
sg56
(lp2566
S':'
asbag49
(g70
g51
NtRp2567
(dp2568
g54
(dp2569
sg63
g2554
sg56
(lp2570
g49
(g50
g51
NtRp2571
(dp2572
g54
(dp2573
g62
I3
ssg63
g2567
sg56
(lp2574
g702
asbasbasbag49
(g65
g51
NtRp2575
(dp2576
g54
(dp2577
sg63
g2382
sg56
(lp2578
g49
(g70
g51
NtRp2579
(dp2580
g54
(dp2581
g74
g75
ssg63
g2575
sg56
(lp2582
S'HTTP_COOKIE'
p2583
asbag49
(g70
g51
NtRp2584
(dp2585
g54
(dp2586
g81
g82
ssg63
g2575
sg56
(lp2587
S':'
asbag49
(g70
g51
NtRp2588
(dp2589
g54
(dp2590
sg63
g2575
sg56
(lp2591
g49
(g50
g51
NtRp2592
(dp2593
g54
(dp2594
g62
I3
ssg63
g2588
sg56
(lp2595
g941
asbasbasbag49
(g65
g51
NtRp2596
(dp2597
g54
(dp2598
sg63
g2382
sg56
(lp2599
g49
(g70
g51
NtRp2600
(dp2601
g54
(dp2602
g74
g75
ssg63
g2596
sg56
(lp2603
S'HTTP_HOST'
p2604
asbag49
(g70
g51
NtRp2605
(dp2606
g54
(dp2607
g81
g82
ssg63
g2596
sg56
(lp2608
S':'
asbag49
(g70
g51
NtRp2609
(dp2610
g54
(dp2611
sg63
g2596
sg56
(lp2612
g49
(g50
g51
NtRp2613
(dp2614
g54
(dp2615
g62
I3
ssg63
g2609
sg56
(lp2616
g963
asbasbasbag49
(g65
g51
NtRp2617
(dp2618
g54
(dp2619
sg63
g2382
sg56
(lp2620
g49
(g70
g51
NtRp2621
(dp2622
g54
(dp2623
g74
g75
ssg63
g2617
sg56
(lp2624
S'HTTP_REFERER'
p2625
asbag49
(g70
g51
NtRp2626
(dp2627
g54
(dp2628
g81
g82
ssg63
g2617
sg56
(lp2629
S':'
asbag49
(g70
g51
NtRp2630
(dp2631
g54
(dp2632
sg63
g2617
sg56
(lp2633
g49
(g50
g51
NtRp2634
(dp2635
g54
(dp2636
g62
I3
ssg63
g2630
sg56
(lp2637
g985
asbasbasbag49
(g65
g51
NtRp2638
(dp2639
g54
(dp2640
sg63
g2382
sg56
(lp2641
g49
(g70
g51
NtRp2642
(dp2643
g54
(dp2644
g74
g75
ssg63
g2638
sg56
(lp2645
S'HTTP_USER_AGENT'
p2646
asbag49
(g70
g51
NtRp2647
(dp2648
g54
(dp2649
g81
g82
ssg63
g2638
sg56
(lp2650
S':'
asbag49
(g70
g51
NtRp2651
(dp2652
g54
(dp2653
sg63
g2638
sg56
(lp2654
g49
(g50
g51
NtRp2655
(dp2656
g54
(dp2657
g62
I3
ssg63
g2651
sg56
(lp2658
g1007
asbasbasbag49
(g65
g51
NtRp2659
(dp2660
g54
(dp2661
sg63
g2382
sg56
(lp2662
g49
(g70
g51
NtRp2663
(dp2664
g54
(dp2665
g74
g75
ssg63
g2659
sg56
(lp2666
S'PATH_INFO'
p2667
asbag49
(g70
g51
NtRp2668
(dp2669
g54
(dp2670
g81
g82
ssg63
g2659
sg56
(lp2671
S':'
asbag49
(g70
g51
NtRp2672
(dp2673
g54
(dp2674
sg63
g2659
sg56
(lp2675
g49
(g50
g51
NtRp2676
(dp2677
g54
(dp2678
g62
I3
ssg63
g2672
sg56
(lp2679
g1071
asbasbasbag49
(g65
g51
NtRp2680
(dp2681
g54
(dp2682
sg63
g2382
sg56
(lp2683
g49
(g70
g51
NtRp2684
(dp2685
g54
(dp2686
g74
g75
ssg63
g2680
sg56
(lp2687
S'QUERY_STRING'
p2688
asbag49
(g70
g51
NtRp2689
(dp2690
g54
(dp2691
g81
g82
ssg63
g2680
sg56
(lp2692
S':'
asbag49
(g70
g51
NtRp2693
(dp2694
g54
(dp2695
sg63
g2680
sg56
(lp2696
g49
(g50
g51
NtRp2697
(dp2698
g54
(dp2699
g62
I3
ssg63
g2693
sg56
(lp2700
S''
asbasbasbag49
(g65
g51
NtRp2701
(dp2702
g54
(dp2703
sg63
g2382
sg56
(lp2704
g49
(g70
g51
NtRp2705
(dp2706
g54
(dp2707
g74
g75
ssg63
g2701
sg56
(lp2708
S'REMOTE_ADDR'
p2709
asbag49
(g70
g51
NtRp2710
(dp2711
g54
(dp2712
g81
g82
ssg63
g2701
sg56
(lp2713
S':'
asbag49
(g70
g51
NtRp2714
(dp2715
g54
(dp2716
sg63
g2701
sg56
(lp2717
g49
(g50
g51
NtRp2718
(dp2719
g54
(dp2720
g62
I3
ssg63
g2714
sg56
(lp2721
g158
asbasbasbag49
(g65
g51
NtRp2722
(dp2723
g54
(dp2724
sg63
g2382
sg56
(lp2725
g49
(g70
g51
NtRp2726
(dp2727
g54
(dp2728
g74
g75
ssg63
g2722
sg56
(lp2729
S'REMOTE_PORT'
p2730
asbag49
(g70
g51
NtRp2731
(dp2732
g54
(dp2733
g81
g82
ssg63
g2722
sg56
(lp2734
S':'
asbag49
(g70
g51
NtRp2735
(dp2736
g54
(dp2737
sg63
g2722
sg56
(lp2738
g49
(g50
g51
NtRp2739
(dp2740
g54
(dp2741
g62
I3
ssg63
g2735
sg56
(lp2742
g1135
asbasbasbag49
(g65
g51
NtRp2743
(dp2744
g54
(dp2745
sg63
g2382
sg56
(lp2746
g49
(g70
g51
NtRp2747
(dp2748
g54
(dp2749
g74
g75
ssg63
g2743
sg56
(lp2750
S'REQUEST_METHOD'
p2751
asbag49
(g70
g51
NtRp2752
(dp2753
g54
(dp2754
g81
g82
ssg63
g2743
sg56
(lp2755
S':'
asbag49
(g70
g51
NtRp2756
(dp2757
g54
(dp2758
sg63
g2743
sg56
(lp2759
g49
(g50
g51
NtRp2760
(dp2761
g54
(dp2762
g62
I3
ssg63
g2756
sg56
(lp2763
g1157
asbasbasbag49
(g65
g51
NtRp2764
(dp2765
g54
(dp2766
sg63
g2382
sg56
(lp2767
g49
(g70
g51
NtRp2768
(dp2769
g54
(dp2770
g74
g75
ssg63
g2764
sg56
(lp2771
S'REQUEST_URI'
p2772
asbag49
(g70
g51
NtRp2773
(dp2774
g54
(dp2775
g81
g82
ssg63
g2764
sg56
(lp2776
S':'
asbag49
(g70
g51
NtRp2777
(dp2778
g54
(dp2779
sg63
g2764
sg56
(lp2780
g49
(g50
g51
NtRp2781
(dp2782
g54
(dp2783
g62
I3
ssg63
g2777
sg56
(lp2784
g1071
asbasbasbag49
(g65
g51
NtRp2785
(dp2786
g54
(dp2787
sg63
g2382
sg56
(lp2788
g49
(g70
g51
NtRp2789
(dp2790
g54
(dp2791
g74
g75
ssg63
g2785
sg56
(lp2792
S'SCRIPT_NAME'
p2793
asbag49
(g70
g51
NtRp2794
(dp2795
g54
(dp2796
g81
g82
ssg63
g2785
sg56
(lp2797
S':'
asbag49
(g70
g51
NtRp2798
(dp2799
g54
(dp2800
sg63
g2785
sg56
(lp2801
g49
(g50
g51
NtRp2802
(dp2803
g54
(dp2804
g62
I3
ssg63
g2798
sg56
(lp2805
S''
asbasbasbag49
(g65
g51
NtRp2806
(dp2807
g54
(dp2808
sg63
g2382
sg56
(lp2809
g49
(g70
g51
NtRp2810
(dp2811
g54
(dp2812
g74
g75
ssg63
g2806
sg56
(lp2813
S'SERVER_NAME'
p2814
asbag49
(g70
g51
NtRp2815
(dp2816
g54
(dp2817
g81
g82
ssg63
g2806
sg56
(lp2818
S':'
asbag49
(g70
g51
NtRp2819
(dp2820
g54
(dp2821
sg63
g2806
sg56
(lp2822
g49
(g50
g51
NtRp2823
(dp2824
g54
(dp2825
g62
I3
ssg63
g2819
sg56
(lp2826
g1221
asbasbasbag49
(g65
g51
NtRp2827
(dp2828
g54
(dp2829
sg63
g2382
sg56
(lp2830
g49
(g70
g51
NtRp2831
(dp2832
g54
(dp2833
g74
g75
ssg63
g2827
sg56
(lp2834
S'SERVER_PORT'
p2835
asbag49
(g70
g51
NtRp2836
(dp2837
g54
(dp2838
g81
g82
ssg63
g2827
sg56
(lp2839
S':'
asbag49
(g70
g51
NtRp2840
(dp2841
g54
(dp2842
sg63
g2827
sg56
(lp2843
g49
(g50
g51
NtRp2844
(dp2845
g54
(dp2846
g62
I3
ssg63
g2840
sg56
(lp2847
g1243
asbasbasbag49
(g65
g51
NtRp2848
(dp2849
g54
(dp2850
sg63
g2382
sg56
(lp2851
g49
(g70
g51
NtRp2852
(dp2853
g54
(dp2854
g74
g75
ssg63
g2848
sg56
(lp2855
S'SERVER_PROTOCOL'
p2856
asbag49
(g70
g51
NtRp2857
(dp2858
g54
(dp2859
g81
g82
ssg63
g2848
sg56
(lp2860
S':'
asbag49
(g70
g51
NtRp2861
(dp2862
g54
(dp2863
sg63
g2848
sg56
(lp2864
g49
(g50
g51
NtRp2865
(dp2866
g54
(dp2867
g62
I3
ssg63
g2861
sg56
(lp2868
g1265
asbasbasbag49
(g65
g51
NtRp2869
(dp2870
g54
(dp2871
sg63
g2382
sg56
(lp2872
g49
(g70
g51
NtRp2873
(dp2874
g54
(dp2875
g74
g75
ssg63
g2869
sg56
(lp2876
S'SERVER_SOFTWARE'
p2877
asbag49
(g70
g51
NtRp2878
(dp2879
g54
(dp2880
g81
g82
ssg63
g2869
sg56
(lp2881
S':'
asbag49
(g70
g51
NtRp2882
(dp2883
g54
(dp2884
sg63
g2869
sg56
(lp2885
g49
(g50
g51
NtRp2886
(dp2887
g54
(dp2888
g62
I3
ssg63
g2882
sg56
(lp2889
g1287
asbasbasbag49
(g65
g51
NtRp2890
(dp2891
g54
(dp2892
sg63
g2382
sg56
(lp2893
g49
(g70
g51
NtRp2894
(dp2895
g54
(dp2896
g74
g75
ssg63
g2890
sg56
(lp2897
S'WEB2PY_ORIGINAL_URI'
p2898
asbag49
(g70
g51
NtRp2899
(dp2900
g54
(dp2901
g81
g82
ssg63
g2890
sg56
(lp2902
S':'
asbag49
(g70
g51
NtRp2903
(dp2904
g54
(dp2905
sg63
g2890
sg56
(lp2906
g49
(g50
g51
NtRp2907
(dp2908
g54
(dp2909
g62
I3
ssg63
g2903
sg56
(lp2910
g1331
asbasbasbag49
(g65
g51
NtRp2911
(dp2912
g54
(dp2913
sg63
g2382
sg56
(lp2914
g49
(g70
g51
NtRp2915
(dp2916
g54
(dp2917
g74
g75
ssg63
g2911
sg56
(lp2918
S'wsgi.errors'
p2919
asbag49
(g70
g51
NtRp2920
(dp2921
g54
(dp2922
g81
g82
ssg63
g2911
sg56
(lp2923
S':'
asbag49
(g70
g51
NtRp2924
(dp2925
g54
(dp2926
sg63
g2911
sg56
(lp2927
g49
(g50
g51
NtRp2928
(dp2929
g54
(dp2930
g62
I3
ssg63
g2924
sg56
(lp2931
S"<open file '<stderr>', mode 'w' at 0x004200B0>"
p2932
asbasbasbag49
(g65
g51
NtRp2933
(dp2934
g54
(dp2935
sg63
g2382
sg56
(lp2936
g49
(g70
g51
NtRp2937
(dp2938
g54
(dp2939
g74
g75
ssg63
g2933
sg56
(lp2940
S'wsgi.file_wrapper'
p2941
asbag49
(g70
g51
NtRp2942
(dp2943
g54
(dp2944
g81
g82
ssg63
g2933
sg56
(lp2945
S':'
asbag49
(g70
g51
NtRp2946
(dp2947
g54
(dp2948
sg63
g2933
sg56
(lp2949
g49
(g50
g51
NtRp2950
(dp2951
g54
(dp2952
g62
I3
ssg63
g2946
sg56
(lp2953
S'<class wsgiref.util.FileWrapper at 0x02FC6390>'
p2954
asbasbasbag49
(g65
g51
NtRp2955
(dp2956
g54
(dp2957
sg63
g2382
sg56
(lp2958
g49
(g70
g51
NtRp2959
(dp2960
g54
(dp2961
g74
g75
ssg63
g2955
sg56
(lp2962
S'wsgi.input'
p2963
asbag49
(g70
g51
NtRp2964
(dp2965
g54
(dp2966
g81
g82
ssg63
g2955
sg56
(lp2967
S':'
asbag49
(g70
g51
NtRp2968
(dp2969
g54
(dp2970
sg63
g2955
sg56
(lp2971
g49
(g50
g51
NtRp2972
(dp2973
g54
(dp2974
g62
I3
ssg63
g2968
sg56
(lp2975
S"<open file '<fdopen>', mode 'w+b' at 0x068F9F50>"
p2976
asbasbasbag49
(g65
g51
NtRp2977
(dp2978
g54
(dp2979
sg63
g2382
sg56
(lp2980
g49
(g70
g51
NtRp2981
(dp2982
g54
(dp2983
g74
g75
ssg63
g2977
sg56
(lp2984
S'wsgi.multiprocess'
p2985
asbag49
(g70
g51
NtRp2986
(dp2987
g54
(dp2988
g81
g82
ssg63
g2977
sg56
(lp2989
S':'
asbag49
(g70
g51
NtRp2990
(dp2991
g54
(dp2992
sg63
g2977
sg56
(lp2993
g49
(g50
g51
NtRp2994
(dp2995
g54
(dp2996
g62
I3
ssg63
g2990
sg56
(lp2997
g92
asbasbasbag49
(g65
g51
NtRp2998
(dp2999
g54
(dp3000
sg63
g2382
sg56
(lp3001
g49
(g70
g51
NtRp3002
(dp3003
g54
(dp3004
g74
g75
ssg63
g2998
sg56
(lp3005
S'wsgi.multithread'
p3006
asbag49
(g70
g51
NtRp3007
(dp3008
g54
(dp3009
g81
g82
ssg63
g2998
sg56
(lp3010
S':'
asbag49
(g70
g51
NtRp3011
(dp3012
g54
(dp3013
sg63
g2998
sg56
(lp3014
g49
(g50
g51
NtRp3015
(dp3016
g54
(dp3017
g62
I3
ssg63
g3011
sg56
(lp3018
g1549
asbasbasbag49
(g65
g51
NtRp3019
(dp3020
g54
(dp3021
sg63
g2382
sg56
(lp3022
g49
(g70
g51
NtRp3023
(dp3024
g54
(dp3025
g74
g75
ssg63
g3019
sg56
(lp3026
S'wsgi.run_once'
p3027
asbag49
(g70
g51
NtRp3028
(dp3029
g54
(dp3030
g81
g82
ssg63
g3019
sg56
(lp3031
S':'
asbag49
(g70
g51
NtRp3032
(dp3033
g54
(dp3034
sg63
g3019
sg56
(lp3035
g49
(g50
g51
NtRp3036
(dp3037
g54
(dp3038
g62
I3
ssg63
g3032
sg56
(lp3039
g92
asbasbasbag49
(g65
g51
NtRp3040
(dp3041
g54
(dp3042
sg63
g2382
sg56
(lp3043
g49
(g70
g51
NtRp3044
(dp3045
g54
(dp3046
g74
g75
ssg63
g3040
sg56
(lp3047
S'wsgi.url_scheme'
p3048
asbag49
(g70
g51
NtRp3049
(dp3050
g54
(dp3051
g81
g82
ssg63
g3040
sg56
(lp3052
S':'
asbag49
(g70
g51
NtRp3053
(dp3054
g54
(dp3055
sg63
g3040
sg56
(lp3056
g49
(g50
g51
NtRp3057
(dp3058
g54
(dp3059
g62
I3
ssg63
g3053
sg56
(lp3060
g1592
asbasbasbag49
(g65
g51
NtRp3061
(dp3062
g54
(dp3063
sg63
g2382
sg56
(lp3064
g49
(g70
g51
NtRp3065
(dp3066
g54
(dp3067
g74
g75
ssg63
g3061
sg56
(lp3068
S'wsgi.version'
p3069
asbag49
(g70
g51
NtRp3070
(dp3071
g54
(dp3072
g81
g82
ssg63
g3061
sg56
(lp3073
S':'
asbag49
(g70
g51
NtRp3074
(dp3075
g54
(dp3076
sg63
g3061
sg56
(lp3077
g49
(g50
g51
NtRp3078
(dp3079
g54
(dp3080
g62
I3
ssg63
g3074
sg56
(lp3081
S'1'
asbasbasbasbasbasbasbasbasbasbasbasbasbsS'frames'
p3082
(lp3083
(dp3084
S'file'
p3085
S'D:\\Dise\xf1o Web\\Proyectos\\Parleyweb\\web2py\\gluon\\restricted.py'
p3086
sS'dump'
p3087
(dp3088
sS'lnum'
p3089
I205
sS'lines'
p3090
(dp3091
sS'call'
p3092
S'(code=\'response.write(\\\'\\\\r\\\\n\\\', escape=False)\\nresponse.wr...>\\\\n   \\\\n\\\\n \\\\n\\\\n</body>\\\\n</html>\\\\n", escape=False)\', environment={\'A\': <class \'gluon.html.A\'>, \'Auth\': <class \'gluon.tools.Auth\'>, \'B\': <class \'gluon.html.B\'>, \'BEAUTIFY\': <class \'gluon.html.BEAUTIFY\'>, \'BODY\': <class \'gluon.html.BODY\'>, \'BR\': <class \'gluon.html.BR\'>, \'BUTTON\': <class \'gluon.html.BUTTON\'>, \'CAT\': <class \'gluon.html.CAT\'>, \'CENTER\': <class \'gluon.html.CENTER\'>, \'CLEANUP\': <class \'gluon.validators.CLEANUP\'>, ...}, layer=\'D:\\\\Dise\\xf1o Web\\\\Proyectos\\\\Parleyweb\\\\web2py\\\\applications\\\\parleyweb\\\\views\\\\admin/relacionar.html\')'
p3093
sS'func'
p3094
S'restricted'
p3095
sa(dp3096
g3085
S'D:\\Dise\xf1o Web\\Proyectos\\Parleyweb\\web2py\\applications\\parleyweb\\views\\admin\\relacionar.html'
p3097
sg3087
(dp3098
sg3089
I65
sg3090
(dp3099
I64
S"response.write('\\r\\n<h1>Esta es la plantilla admin/relacionar.html</h1>\\r\\n\\r\\n', escape=False)"
p3100
sI65
S'response.write(len(post_vars.relacionar))'
p3101
sI66
S"response.write('\\r\\n', escape=False)"
p3102
sI67
S'response.write(tabla)'
p3103
sI68
S"response.write('\\r\\n', escape=False)"
p3104
sI69
S'response.write(response.toolbar())'
p3105
sI70
S"response.write('\\r\\n\\r\\n', escape=False)"
p3106
sI71
S"response.write('\\n\\t  ', escape=False)"
p3107
sI72
S'response.write("\\n          \\n        </div><!--/span-->\\n      </div><!--/row-->\\n\\n      <hr>\\n\\n      <footer>\\n        <p>\\xc2\\xa9 Company 2012</p>\\n      </footer>\\n\\n    </div><!--/.fluid-container-->\\n    \\n    <!-- Le javascript\\n    ================================================== -->\\n    <!-- Placed at the end of the document so the pages load faster \\n    <script>\\n      $(function () {\\n      $(\'.tabs a:last\').tab(\'show\')\\n      })\\n    </script>-->\\n   \\n\\n \\n\\n</body>\\n</html>\\n", escape=False)'
p3108
sI56
S'response.write(\'</li>\\n            </ul>\\n\\t    \\n            <p class="navbar-text pull-right">\', escape=False)'
p3109
sI57
S"response.write('auth' in globals() and auth.navbar(separators=(' ',' | ','')))"
p3110
sI58
S'response.write(\'</p>\\n          </div><!--/.nav-collapse -->\\n        </div>\\n      </div>\\n    </div>\\n    <div class="flash alert alert-info"></i>\', escape=False)'
p3111
sI59
S"response.write(response.flash or '')"
p3112
sI60
S'response.write(\'</div>\\n    <div class="container-fluid">\\n      <div class="row-fluid">\\n        <div class="span3">\\n          <div class="well sidebar-nav">\\n            <ul class="nav nav-list">\\n              <li class="nav-header">\', escape=False)'
p3113
sI61
S"response.write(T('Buscar'))"
p3114
sI62
S'response.write(\'</li>\\n            </ul>\\n          </div><!--/.well -->\\n        </div><!--/span-->\\n        <div class="span9">\\n\\t  \', escape=False)'
p3115
sI63
S"response.write('\\n\\t    ', escape=False)"
p3116
ssg3092
S'()'
p3117
sg3094
S'<module>'
p3118
sasS'pyver'
p3119
S'Python 2.5.4: D:\\Dise\xf1o Web\\Proyectos\\Parleyweb\\web2py\\web2py.exe'
p3120
sS'session'
p3121
g49
(g50
g51
NtRp3122
(dp3123
g54
(dp3124
sg56
(lp3125
g49
(g58
g51
NtRp3126
(dp3127
g54
(dp3128
g62
I5
ssg63
Nsg56
(lp3129
sbasbsS'etype'
p3130
S"<type 'exceptions.NameError'>"
p3131
sS'date'
p3132
S'Thu Mar 15 14:12:21 2012'
p3133
sS'response'
p3134
g49
(g50
g51
NtRp3135
(dp3136
g54
(dp3137
sg56
(lp3138
g49
(g58
g51
NtRp3139
(dp3140
g54
(dp3141
g62
I5
ssg63
Nsg56
(lp3142
g49
(g65
g51
NtRp3143
(dp3144
g54
(dp3145
sg63
g3139
sg56
(lp3146
g49
(g70
g51
NtRp3147
(dp3148
g54
(dp3149
g74
g75
ssg63
g3143
sg56
(lp3150
g123
asbag49
(g70
g51
NtRp3151
(dp3152
g54
(dp3153
g81
g82
ssg63
g3143
sg56
(lp3154
S':'
asbag49
(g70
g51
NtRp3155
(dp3156
g54
(dp3157
sg63
g3143
sg56
(lp3158
g49
(g50
g51
NtRp3159
(dp3160
g54
(dp3161
g62
I5
ssg63
g3155
sg56
(lp3162
S'<cStringIO.StringO object at 0x06FA8F00>'
p3163
asbasbasbag49
(g65
g51
NtRp3164
(dp3165
g54
(dp3166
sg63
g3139
sg56
(lp3167
g49
(g70
g51
NtRp3168
(dp3169
g54
(dp3170
g74
g75
ssg63
g3164
sg56
(lp3171
g189
asbag49
(g70
g51
NtRp3172
(dp3173
g54
(dp3174
g81
g82
ssg63
g3164
sg56
(lp3175
S':'
asbag49
(g70
g51
NtRp3176
(dp3177
g54
(dp3178
sg63
g3164
sg56
(lp3179
g49
(g50
g51
NtRp3180
(dp3181
g54
(dp3182
g62
I5
ssg63
g3176
sg56
(lp3183
g49
(g58
g51
NtRp3184
(dp3185
g54
(dp3186
g62
I4
ssg63
Nsg56
(lp3187
g49
(g65
g51
NtRp3188
(dp3189
g54
(dp3190
sg63
g3184
sg56
(lp3191
g49
(g70
g51
NtRp3192
(dp3193
g54
(dp3194
g74
g75
ssg63
g3188
sg56
(lp3195
S'session_id_parleyweb'
p3196
asbag49
(g70
g51
NtRp3197
(dp3198
g54
(dp3199
g81
g82
ssg63
g3188
sg56
(lp3200
S':'
asbag49
(g70
g51
NtRp3201
(dp3202
g54
(dp3203
sg63
g3188
sg56
(lp3204
g49
(g50
g51
NtRp3205
(dp3206
g54
(dp3207
g62
I4
ssg63
g3201
sg56
(lp3208
g49
(g58
g51
NtRp3209
(dp3210
g54
(dp3211
g62
I3
ssg63
Nsg56
(lp3212
g49
(g65
g51
NtRp3213
(dp3214
g54
(dp3215
sg63
g3209
sg56
(lp3216
g49
(g70
g51
NtRp3217
(dp3218
g54
(dp3219
g74
g75
ssg63
g3213
sg56
(lp3220
g239
asbag49
(g70
g51
NtRp3221
(dp3222
g54
(dp3223
g81
g82
ssg63
g3213
sg56
(lp3224
S':'
asbag49
(g70
g51
NtRp3225
(dp3226
g54
(dp3227
sg63
g3213
sg56
(lp3228
g49
(g50
g51
NtRp3229
(dp3230
g54
(dp3231
g62
I3
ssg63
g3225
sg56
(lp3232
S''
asbasbasbag49
(g65
g51
NtRp3233
(dp3234
g54
(dp3235
sg63
g3209
sg56
(lp3236
g49
(g70
g51
NtRp3237
(dp3238
g54
(dp3239
g74
g75
ssg63
g3233
sg56
(lp3240
g260
asbag49
(g70
g51
NtRp3241
(dp3242
g54
(dp3243
g81
g82
ssg63
g3233
sg56
(lp3244
S':'
asbag49
(g70
g51
NtRp3245
(dp3246
g54
(dp3247
sg63
g3233
sg56
(lp3248
g49
(g50
g51
NtRp3249
(dp3250
g54
(dp3251
g62
I3
ssg63
g3245
sg56
(lp3252
S''
asbasbasbag49
(g65
g51
NtRp3253
(dp3254
g54
(dp3255
sg63
g3209
sg56
(lp3256
g49
(g70
g51
NtRp3257
(dp3258
g54
(dp3259
g74
g75
ssg63
g3253
sg56
(lp3260
g281
asbag49
(g70
g51
NtRp3261
(dp3262
g54
(dp3263
g81
g82
ssg63
g3253
sg56
(lp3264
S':'
asbag49
(g70
g51
NtRp3265
(dp3266
g54
(dp3267
sg63
g3253
sg56
(lp3268
g49
(g50
g51
NtRp3269
(dp3270
g54
(dp3271
g62
I3
ssg63
g3265
sg56
(lp3272
S''
asbasbasbag49
(g65
g51
NtRp3273
(dp3274
g54
(dp3275
sg63
g3209
sg56
(lp3276
g49
(g70
g51
NtRp3277
(dp3278
g54
(dp3279
g74
g75
ssg63
g3273
sg56
(lp3280
g302
asbag49
(g70
g51
NtRp3281
(dp3282
g54
(dp3283
g81
g82
ssg63
g3273
sg56
(lp3284
S':'
asbag49
(g70
g51
NtRp3285
(dp3286
g54
(dp3287
sg63
g3273
sg56
(lp3288
g49
(g50
g51
NtRp3289
(dp3290
g54
(dp3291
g62
I3
ssg63
g3285
sg56
(lp3292
S''
asbasbasbag49
(g65
g51
NtRp3293
(dp3294
g54
(dp3295
sg63
g3209
sg56
(lp3296
g49
(g70
g51
NtRp3297
(dp3298
g54
(dp3299
g74
g75
ssg63
g3293
sg56
(lp3300
g323
asbag49
(g70
g51
NtRp3301
(dp3302
g54
(dp3303
g81
g82
ssg63
g3293
sg56
(lp3304
S':'
asbag49
(g70
g51
NtRp3305
(dp3306
g54
(dp3307
sg63
g3293
sg56
(lp3308
g49
(g50
g51
NtRp3309
(dp3310
g54
(dp3311
g62
I3
ssg63
g3305
sg56
(lp3312
S'/'
asbasbasbag49
(g65
g51
NtRp3313
(dp3314
g54
(dp3315
sg63
g3209
sg56
(lp3316
g49
(g70
g51
NtRp3317
(dp3318
g54
(dp3319
g74
g75
ssg63
g3313
sg56
(lp3320
g344
asbag49
(g70
g51
NtRp3321
(dp3322
g54
(dp3323
g81
g82
ssg63
g3313
sg56
(lp3324
S':'
asbag49
(g70
g51
NtRp3325
(dp3326
g54
(dp3327
sg63
g3313
sg56
(lp3328
g49
(g50
g51
NtRp3329
(dp3330
g54
(dp3331
g62
I3
ssg63
g3325
sg56
(lp3332
S''
asbasbasbag49
(g65
g51
NtRp3333
(dp3334
g54
(dp3335
sg63
g3209
sg56
(lp3336
g49
(g70
g51
NtRp3337
(dp3338
g54
(dp3339
g74
g75
ssg63
g3333
sg56
(lp3340
g365
asbag49
(g70
g51
NtRp3341
(dp3342
g54
(dp3343
g81
g82
ssg63
g3333
sg56
(lp3344
S':'
asbag49
(g70
g51
NtRp3345
(dp3346
g54
(dp3347
sg63
g3333
sg56
(lp3348
g49
(g50
g51
NtRp3349
(dp3350
g54
(dp3351
g62
I3
ssg63
g3345
sg56
(lp3352
S''
asbasbasbasbasbasbasbasbasbasbasbag49
(g65
g51
NtRp3353
(dp3354
g54
(dp3355
sg63
g3139
sg56
(lp3356
g49
(g70
g51
NtRp3357
(dp3358
g54
(dp3359
g74
g75
ssg63
g3353
sg56
(lp3360
S'delimiters'
p3361
asbag49
(g70
g51
NtRp3362
(dp3363
g54
(dp3364
g81
g82
ssg63
g3353
sg56
(lp3365
S':'
asbag49
(g70
g51
NtRp3366
(dp3367
g54
(dp3368
sg63
g3353
sg56
(lp3369
g49
(g50
g51
NtRp3370
(dp3371
g54
(dp3372
g62
I5
ssg63
g3366
sg56
(lp3373
g49
(g58
g51
NtRp3374
(dp3375
g54
(dp3376
g62
I4
ssg63
Nsg56
(lp3377
g49
(g65
g51
NtRp3378
(dp3379
g54
(dp3380
sg63
g3374
sg56
(lp3381
g49
(g70
g51
NtRp3382
(dp3383
g54
(dp3384
sg63
g3378
sg56
(lp3385
g49
(g50
g51
NtRp3386
(dp3387
g54
(dp3388
g62
I4
ssg63
g3382
sg56
(lp3389
S'{{'
p3390
asbasbasbag49
(g65
g51
NtRp3391
(dp3392
g54
(dp3393
sg63
g3374
sg56
(lp3394
g49
(g70
g51
NtRp3395
(dp3396
g54
(dp3397
sg63
g3391
sg56
(lp3398
g49
(g50
g51
NtRp3399
(dp3400
g54
(dp3401
g62
I4
ssg63
g3395
sg56
(lp3402
S'}}'
p3403
asbasbasbasbasbasbasbag49
(g65
g51
NtRp3404
(dp3405
g54
(dp3406
sg63
g3139
sg56
(lp3407
g49
(g70
g51
NtRp3408
(dp3409
g54
(dp3410
g74
g75
ssg63
g3404
sg56
(lp3411
S'files'
p3412
asbag49
(g70
g51
NtRp3413
(dp3414
g54
(dp3415
g81
g82
ssg63
g3404
sg56
(lp3416
S':'
asbag49
(g70
g51
NtRp3417
(dp3418
g54
(dp3419
sg63
g3404
sg56
(lp3420
g49
(g50
g51
NtRp3421
(dp3422
g54
(dp3423
g62
I5
ssg63
g3417
sg56
(lp3424
g49
(g58
g51
NtRp3425
(dp3426
g54
(dp3427
g62
I4
ssg63
Nsg56
(lp3428
g49
(g65
g51
NtRp3429
(dp3430
g54
(dp3431
sg63
g3425
sg56
(lp3432
g49
(g70
g51
NtRp3433
(dp3434
g54
(dp3435
sg63
g3429
sg56
(lp3436
g49
(g50
g51
NtRp3437
(dp3438
g54
(dp3439
g62
I4
ssg63
g3433
sg56
(lp3440
S'/parleyweb/static/js/jquery.js'
p3441
asbasbasbag49
(g65
g51
NtRp3442
(dp3443
g54
(dp3444
sg63
g3425
sg56
(lp3445
g49
(g70
g51
NtRp3446
(dp3447
g54
(dp3448
sg63
g3442
sg56
(lp3449
g49
(g50
g51
NtRp3450
(dp3451
g54
(dp3452
g62
I4
ssg63
g3446
sg56
(lp3453
S'/parleyweb/static/css/calendar.css'
p3454
asbasbasbag49
(g65
g51
NtRp3455
(dp3456
g54
(dp3457
sg63
g3425
sg56
(lp3458
g49
(g70
g51
NtRp3459
(dp3460
g54
(dp3461
sg63
g3455
sg56
(lp3462
g49
(g50
g51
NtRp3463
(dp3464
g54
(dp3465
g62
I4
ssg63
g3459
sg56
(lp3466
S'/parleyweb/static/js/calendar.js'
p3467
asbasbasbag49
(g65
g51
NtRp3468
(dp3469
g54
(dp3470
sg63
g3425
sg56
(lp3471
g49
(g70
g51
NtRp3472
(dp3473
g54
(dp3474
sg63
g3468
sg56
(lp3475
g49
(g50
g51
NtRp3476
(dp3477
g54
(dp3478
g62
I4
ssg63
g3472
sg56
(lp3479
S'/parleyweb/static/js/web2py.js'
p3480
asbasbasbag49
(g65
g51
NtRp3481
(dp3482
g54
(dp3483
sg63
g3425
sg56
(lp3484
g49
(g70
g51
NtRp3485
(dp3486
g54
(dp3487
sg63
g3481
sg56
(lp3488
g49
(g50
g51
NtRp3489
(dp3490
g54
(dp3491
g62
I4
ssg63
g3485
sg56
(lp3492
S'/parleyweb/static/css/bootstrap.css'
p3493
asbasbasbag49
(g65
g51
NtRp3494
(dp3495
g54
(dp3496
sg63
g3425
sg56
(lp3497
g49
(g70
g51
NtRp3498
(dp3499
g54
(dp3500
sg63
g3494
sg56
(lp3501
g49
(g50
g51
NtRp3502
(dp3503
g54
(dp3504
g62
I4
ssg63
g3498
sg56
(lp3505
S'/parleyweb/static/js/bootstrap.js'
p3506
asbasbasbag49
(g65
g51
NtRp3507
(dp3508
g54
(dp3509
sg63
g3425
sg56
(lp3510
g49
(g70
g51
NtRp3511
(dp3512
g54
(dp3513
sg63
g3507
sg56
(lp3514
g49
(g50
g51
NtRp3515
(dp3516
g54
(dp3517
g62
I4
ssg63
g3511
sg56
(lp3518
S'/parleyweb/static/css/parleyweb.css'
p3519
asbasbasbag49
(g65
g51
NtRp3520
(dp3521
g54
(dp3522
sg63
g3425
sg56
(lp3523
g49
(g70
g51
NtRp3524
(dp3525
g54
(dp3526
sg63
g3520
sg56
(lp3527
g49
(g50
g51
NtRp3528
(dp3529
g54
(dp3530
g62
I4
ssg63
g3524
sg56
(lp3531
S'/parleyweb/static/css/jquery-ui-1.8.18.custom.css'
p3532
asbasbasbag49
(g65
g51
NtRp3533
(dp3534
g54
(dp3535
sg63
g3425
sg56
(lp3536
g49
(g70
g51
NtRp3537
(dp3538
g54
(dp3539
sg63
g3533
sg56
(lp3540
g49
(g50
g51
NtRp3541
(dp3542
g54
(dp3543
g62
I4
ssg63
g3537
sg56
(lp3544
S'/parleyweb/static/js/parleyweb.js'
p3545
asbasbasbag49
(g65
g51
NtRp3546
(dp3547
g54
(dp3548
sg63
g3425
sg56
(lp3549
g49
(g70
g51
NtRp3550
(dp3551
g54
(dp3552
sg63
g3546
sg56
(lp3553
g49
(g50
g51
NtRp3554
(dp3555
g54
(dp3556
g62
I4
ssg63
g3550
sg56
(lp3557
S'/parleyweb/static/js/jquery-ui-1.8.18.custom.min.js'
p3558
asbasbasbasbasbasbasbag49
(g65
g51
NtRp3559
(dp3560
g54
(dp3561
sg63
g3139
sg56
(lp3562
g49
(g70
g51
NtRp3563
(dp3564
g54
(dp3565
g74
g75
ssg63
g3559
sg56
(lp3566
S'flash'
p3567
asbag49
(g70
g51
NtRp3568
(dp3569
g54
(dp3570
g81
g82
ssg63
g3559
sg56
(lp3571
S':'
asbag49
(g70
g51
NtRp3572
(dp3573
g54
(dp3574
sg63
g3559
sg56
(lp3575
g49
(g50
g51
NtRp3576
(dp3577
g54
(dp3578
g62
I5
ssg63
g3572
sg56
(lp3579
S''
asbasbasbag49
(g65
g51
NtRp3580
(dp3581
g54
(dp3582
sg63
g3139
sg56
(lp3583
g49
(g70
g51
NtRp3584
(dp3585
g54
(dp3586
g74
g75
ssg63
g3580
sg56
(lp3587
S'generic_patterns'
p3588
asbag49
(g70
g51
NtRp3589
(dp3590
g54
(dp3591
g81
g82
ssg63
g3580
sg56
(lp3592
S':'
asbag49
(g70
g51
NtRp3593
(dp3594
g54
(dp3595
sg63
g3580
sg56
(lp3596
g49
(g50
g51
NtRp3597
(dp3598
g54
(dp3599
g62
I5
ssg63
g3593
sg56
(lp3600
g49
(g58
g51
NtRp3601
(dp3602
g54
(dp3603
g62
I4
ssg63
Nsg56
(lp3604
g49
(g65
g51
NtRp3605
(dp3606
g54
(dp3607
sg63
g3601
sg56
(lp3608
g49
(g70
g51
NtRp3609
(dp3610
g54
(dp3611
sg63
g3605
sg56
(lp3612
g49
(g50
g51
NtRp3613
(dp3614
g54
(dp3615
g62
I4
ssg63
g3609
sg56
(lp3616
S'*'
asbasbasbasbasbasbasbag49
(g65
g51
NtRp3617
(dp3618
g54
(dp3619
sg63
g3139
sg56
(lp3620
g49
(g70
g51
NtRp3621
(dp3622
g54
(dp3623
g74
g75
ssg63
g3617
sg56
(lp3624
S'headers'
p3625
asbag49
(g70
g51
NtRp3626
(dp3627
g54
(dp3628
g81
g82
ssg63
g3617
sg56
(lp3629
S':'
asbag49
(g70
g51
NtRp3630
(dp3631
g54
(dp3632
sg63
g3617
sg56
(lp3633
g49
(g50
g51
NtRp3634
(dp3635
g54
(dp3636
g62
I5
ssg63
g3630
sg56
(lp3637
g49
(g58
g51
NtRp3638
(dp3639
g54
(dp3640
g62
I4
ssg63
Nsg56
(lp3641
g49
(g65
g51
NtRp3642
(dp3643
g54
(dp3644
sg63
g3638
sg56
(lp3645
g49
(g70
g51
NtRp3646
(dp3647
g54
(dp3648
g74
g75
ssg63
g3642
sg56
(lp3649
S'Cache-Control'
p3650
asbag49
(g70
g51
NtRp3651
(dp3652
g54
(dp3653
g81
g82
ssg63
g3642
sg56
(lp3654
S':'
asbag49
(g70
g51
NtRp3655
(dp3656
g54
(dp3657
sg63
g3642
sg56
(lp3658
g49
(g50
g51
NtRp3659
(dp3660
g54
(dp3661
g62
I4
ssg63
g3655
sg56
(lp3662
S'no-store, no-cache, must-revalidate, post-check=0, pre-check=0'
p3663
asbasbasbag49
(g65
g51
NtRp3664
(dp3665
g54
(dp3666
sg63
g3638
sg56
(lp3667
g49
(g70
g51
NtRp3668
(dp3669
g54
(dp3670
g74
g75
ssg63
g3664
sg56
(lp3671
S'Content-Type'
p3672
asbag49
(g70
g51
NtRp3673
(dp3674
g54
(dp3675
g81
g82
ssg63
g3664
sg56
(lp3676
S':'
asbag49
(g70
g51
NtRp3677
(dp3678
g54
(dp3679
sg63
g3664
sg56
(lp3680
g49
(g50
g51
NtRp3681
(dp3682
g54
(dp3683
g62
I4
ssg63
g3677
sg56
(lp3684
S'text/html; charset=utf-8'
p3685
asbasbasbag49
(g65
g51
NtRp3686
(dp3687
g54
(dp3688
sg63
g3638
sg56
(lp3689
g49
(g70
g51
NtRp3690
(dp3691
g54
(dp3692
g74
g75
ssg63
g3686
sg56
(lp3693
S'Expires'
p3694
asbag49
(g70
g51
NtRp3695
(dp3696
g54
(dp3697
g81
g82
ssg63
g3686
sg56
(lp3698
S':'
asbag49
(g70
g51
NtRp3699
(dp3700
g54
(dp3701
sg63
g3686
sg56
(lp3702
g49
(g50
g51
NtRp3703
(dp3704
g54
(dp3705
g62
I4
ssg63
g3699
sg56
(lp3706
S'Thu, 15 Mar 2012 13:12:21 GMT'
p3707
asbasbasbag49
(g65
g51
NtRp3708
(dp3709
g54
(dp3710
sg63
g3638
sg56
(lp3711
g49
(g70
g51
NtRp3712
(dp3713
g54
(dp3714
g74
g75
ssg63
g3708
sg56
(lp3715
S'Pragma'
p3716
asbag49
(g70
g51
NtRp3717
(dp3718
g54
(dp3719
g81
g82
ssg63
g3708
sg56
(lp3720
S':'
asbag49
(g70
g51
NtRp3721
(dp3722
g54
(dp3723
sg63
g3708
sg56
(lp3724
g49
(g50
g51
NtRp3725
(dp3726
g54
(dp3727
g62
I4
ssg63
g3721
sg56
(lp3728
S'no-cache'
p3729
asbasbasbag49
(g65
g51
NtRp3730
(dp3731
g54
(dp3732
sg63
g3638
sg56
(lp3733
g49
(g70
g51
NtRp3734
(dp3735
g54
(dp3736
g74
g75
ssg63
g3730
sg56
(lp3737
S'X-Powered-By'
p3738
asbag49
(g70
g51
NtRp3739
(dp3740
g54
(dp3741
g81
g82
ssg63
g3730
sg56
(lp3742
S':'
asbag49
(g70
g51
NtRp3743
(dp3744
g54
(dp3745
sg63
g3730
sg56
(lp3746
g49
(g50
g51
NtRp3747
(dp3748
g54
(dp3749
g62
I4
ssg63
g3743
sg56
(lp3750
S'web2py'
p3751
asbasbasbasbasbasbasbag49
(g65
g51
NtRp3752
(dp3753
g54
(dp3754
sg63
g3139
sg56
(lp3755
g49
(g70
g51
NtRp3756
(dp3757
g54
(dp3758
g74
g75
ssg63
g3752
sg56
(lp3759
S'menu'
p3760
asbag49
(g70
g51
NtRp3761
(dp3762
g54
(dp3763
g81
g82
ssg63
g3752
sg56
(lp3764
S':'
asbag49
(g70
g51
NtRp3765
(dp3766
g54
(dp3767
sg63
g3752
sg56
(lp3768
g49
(g50
g51
NtRp3769
(dp3770
g54
(dp3771
g62
I5
ssg63
g3765
sg56
(lp3772
g49
(g58
g51
NtRp3773
(dp3774
g54
(dp3775
g62
I4
ssg63
Nsg56
(lp3776
g49
(g65
g51
NtRp3777
(dp3778
g54
(dp3779
sg63
g3773
sg56
(lp3780
g49
(g70
g51
NtRp3781
(dp3782
g54
(dp3783
sg63
g3777
sg56
(lp3784
g49
(g50
g51
NtRp3785
(dp3786
g54
(dp3787
g62
I4
ssg63
g3781
sg56
(lp3788
g49
(g58
g51
NtRp3789
(dp3790
g54
(dp3791
g62
I3
ssg63
Nsg56
(lp3792
g49
(g65
g51
NtRp3793
(dp3794
g54
(dp3795
sg63
g3789
sg56
(lp3796
g49
(g70
g51
NtRp3797
(dp3798
g54
(dp3799
sg63
g3793
sg56
(lp3800
g49
(g50
g51
NtRp3801
(dp3802
g54
(dp3803
g62
I3
ssg63
g3797
sg56
(lp3804
cgluon.languages
lazyT_unpickle
p3805
(S't\x04\x00\x00\x00Home'
tRp3806
asbasbasbag49
(g65
g51
NtRp3807
(dp3808
g54
(dp3809
sg63
g3789
sg56
(lp3810
g49
(g70
g51
NtRp3811
(dp3812
g54
(dp3813
sg63
g3807
sg56
(lp3814
g49
(g50
g51
NtRp3815
(dp3816
g54
(dp3817
g62
I3
ssg63
g3811
sg56
(lp3818
g92
asbasbasbag49
(g65
g51
NtRp3819
(dp3820
g54
(dp3821
sg63
g3789
sg56
(lp3822
g49
(g70
g51
NtRp3823
(dp3824
g54
(dp3825
sg63
g3819
sg56
(lp3826
g49
(g50
g51
NtRp3827
(dp3828
g54
(dp3829
g62
I3
ssg63
g3823
sg56
(lp3830
S'/parleyweb/default/index'
p3831
asbasbasbag49
(g65
g51
NtRp3832
(dp3833
g54
(dp3834
sg63
g3789
sg56
(lp3835
g49
(g70
g51
NtRp3836
(dp3837
g54
(dp3838
sg63
g3832
sg56
(lp3839
g49
(g50
g51
NtRp3840
(dp3841
g54
(dp3842
g62
I3
ssg63
g3836
sg56
(lp3843
g49
(g58
g51
NtRp3844
(dp3845
g54
(dp3846
g62
I2
ssg63
Nsg56
(lp3847
sbasbasbasbasbasbasbasbasbasbasbasbag49
(g65
g51
NtRp3848
(dp3849
g54
(dp3850
sg63
g3139
sg56
(lp3851
g49
(g70
g51
NtRp3852
(dp3853
g54
(dp3854
g74
g75
ssg63
g3848
sg56
(lp3855
S'meta'
p3856
asbag49
(g70
g51
NtRp3857
(dp3858
g54
(dp3859
g81
g82
ssg63
g3848
sg56
(lp3860
S':'
asbag49
(g70
g51
NtRp3861
(dp3862
g54
(dp3863
sg63
g3848
sg56
(lp3864
g49
(g50
g51
NtRp3865
(dp3866
g54
(dp3867
g62
I5
ssg63
g3861
sg56
(lp3868
g49
(g58
g51
NtRp3869
(dp3870
g54
(dp3871
g62
I4
ssg63
Nsg56
(lp3872
g49
(g65
g51
NtRp3873
(dp3874
g54
(dp3875
sg63
g3869
sg56
(lp3876
g49
(g70
g51
NtRp3877
(dp3878
g54
(dp3879
g74
g75
ssg63
g3873
sg56
(lp3880
S'author'
p3881
asbag49
(g70
g51
NtRp3882
(dp3883
g54
(dp3884
g81
g82
ssg63
g3873
sg56
(lp3885
S':'
asbag49
(g70
g51
NtRp3886
(dp3887
g54
(dp3888
sg63
g3873
sg56
(lp3889
g49
(g50
g51
NtRp3890
(dp3891
g54
(dp3892
g62
I4
ssg63
g3886
sg56
(lp3893
S'Your Name <you@example.com>'
p3894
asbasbasbag49
(g65
g51
NtRp3895
(dp3896
g54
(dp3897
sg63
g3869
sg56
(lp3898
g49
(g70
g51
NtRp3899
(dp3900
g54
(dp3901
g74
g75
ssg63
g3895
sg56
(lp3902
S'copyright'
p3903
asbag49
(g70
g51
NtRp3904
(dp3905
g54
(dp3906
g81
g82
ssg63
g3895
sg56
(lp3907
S':'
asbag49
(g70
g51
NtRp3908
(dp3909
g54
(dp3910
sg63
g3895
sg56
(lp3911
g49
(g50
g51
NtRp3912
(dp3913
g54
(dp3914
g62
I4
ssg63
g3908
sg56
(lp3915
S'Copyright 2011'
p3916
asbasbasbag49
(g65
g51
NtRp3917
(dp3918
g54
(dp3919
sg63
g3869
sg56
(lp3920
g49
(g70
g51
NtRp3921
(dp3922
g54
(dp3923
g74
g75
ssg63
g3917
sg56
(lp3924
S'description'
p3925
asbag49
(g70
g51
NtRp3926
(dp3927
g54
(dp3928
g81
g82
ssg63
g3917
sg56
(lp3929
S':'
asbag49
(g70
g51
NtRp3930
(dp3931
g54
(dp3932
sg63
g3917
sg56
(lp3933
g49
(g50
g51
NtRp3934
(dp3935
g54
(dp3936
g62
I4
ssg63
g3930
sg56
(lp3937
S'a cool new app'
p3938
asbasbasbag49
(g65
g51
NtRp3939
(dp3940
g54
(dp3941
sg63
g3869
sg56
(lp3942
g49
(g70
g51
NtRp3943
(dp3944
g54
(dp3945
g74
g75
ssg63
g3939
sg56
(lp3946
S'generator'
p3947
asbag49
(g70
g51
NtRp3948
(dp3949
g54
(dp3950
g81
g82
ssg63
g3939
sg56
(lp3951
S':'
asbag49
(g70
g51
NtRp3952
(dp3953
g54
(dp3954
sg63
g3939
sg56
(lp3955
g49
(g50
g51
NtRp3956
(dp3957
g54
(dp3958
g62
I4
ssg63
g3952
sg56
(lp3959
S'Web2py Web Framework'
p3960
asbasbasbag49
(g65
g51
NtRp3961
(dp3962
g54
(dp3963
sg63
g3869
sg56
(lp3964
g49
(g70
g51
NtRp3965
(dp3966
g54
(dp3967
g74
g75
ssg63
g3961
sg56
(lp3968
S'keywords'
p3969
asbag49
(g70
g51
NtRp3970
(dp3971
g54
(dp3972
g81
g82
ssg63
g3961
sg56
(lp3973
S':'
asbag49
(g70
g51
NtRp3974
(dp3975
g54
(dp3976
sg63
g3961
sg56
(lp3977
g49
(g50
g51
NtRp3978
(dp3979
g54
(dp3980
g62
I4
ssg63
g3974
sg56
(lp3981
S'web2py, python, framework'
p3982
asbasbasbasbasbasbasbag49
(g65
g51
NtRp3983
(dp3984
g54
(dp3985
sg63
g3139
sg56
(lp3986
g49
(g70
g51
NtRp3987
(dp3988
g54
(dp3989
g74
g75
ssg63
g3983
sg56
(lp3990
S'postprocessing'
p3991
asbag49
(g70
g51
NtRp3992
(dp3993
g54
(dp3994
g81
g82
ssg63
g3983
sg56
(lp3995
S':'
asbag49
(g70
g51
NtRp3996
(dp3997
g54
(dp3998
sg63
g3983
sg56
(lp3999
g49
(g50
g51
NtRp4000
(dp4001
g54
(dp4002
g62
I5
ssg63
g3996
sg56
(lp4003
g49
(g58
g51
NtRp4004
(dp4005
g54
(dp4006
g62
I4
ssg63
Nsg56
(lp4007
sbasbasbasbag49
(g65
g51
NtRp4008
(dp4009
g54
(dp4010
sg63
g3139
sg56
(lp4011
g49
(g70
g51
NtRp4012
(dp4013
g54
(dp4014
g74
g75
ssg63
g4008
sg56
(lp4015
S'session_file'
p4016
asbag49
(g70
g51
NtRp4017
(dp4018
g54
(dp4019
g81
g82
ssg63
g4008
sg56
(lp4020
S':'
asbag49
(g70
g51
NtRp4021
(dp4022
g54
(dp4023
sg63
g4008
sg56
(lp4024
g49
(g50
g51
NtRp4025
(dp4026
g54
(dp4027
g62
I5
ssg63
g4021
sg56
(lp4028
S"<open file 'D:\\Dise\xf1o Web\\Proyectos\\Parleyweb\\web2py\\applications\\parleyweb\\sessions\\127.0.0.1-8bc0d624-a7ac-4822-aaf0-ed4b06ce8341', mode 'rb+' at 0x0692D920>"
p4029
asbasbasbag49
(g65
g51
NtRp4030
(dp4031
g54
(dp4032
sg63
g3139
sg56
(lp4033
g49
(g70
g51
NtRp4034
(dp4035
g54
(dp4036
g74
g75
ssg63
g4030
sg56
(lp4037
S'session_filename'
p4038
asbag49
(g70
g51
NtRp4039
(dp4040
g54
(dp4041
g81
g82
ssg63
g4030
sg56
(lp4042
S':'
asbag49
(g70
g51
NtRp4043
(dp4044
g54
(dp4045
sg63
g4030
sg56
(lp4046
g49
(g50
g51
NtRp4047
(dp4048
g54
(dp4049
g62
I5
ssg63
g4043
sg56
(lp4050
S'D:\\Dise\xf1o Web\\Proyectos\\Parleyweb\\web2py\\applications\\parleyweb\\sessions\\127.0.0.1-8bc0d624-a7ac-4822-aaf0-ed4b06ce8341'
p4051
asbasbasbag49
(g65
g51
NtRp4052
(dp4053
g54
(dp4054
sg63
g3139
sg56
(lp4055
g49
(g70
g51
NtRp4056
(dp4057
g54
(dp4058
g74
g75
ssg63
g4052
sg56
(lp4059
S'session_id'
p4060
asbag49
(g70
g51
NtRp4061
(dp4062
g54
(dp4063
g81
g82
ssg63
g4052
sg56
(lp4064
S':'
asbag49
(g70
g51
NtRp4065
(dp4066
g54
(dp4067
sg63
g4052
sg56
(lp4068
g49
(g50
g51
NtRp4069
(dp4070
g54
(dp4071
g62
I5
ssg63
g4065
sg56
(lp4072
S'127.0.0.1-8bc0d624-a7ac-4822-aaf0-ed4b06ce8341'
p4073
asbasbasbag49
(g65
g51
NtRp4074
(dp4075
g54
(dp4076
sg63
g3139
sg56
(lp4077
g49
(g70
g51
NtRp4078
(dp4079
g54
(dp4080
g74
g75
ssg63
g4074
sg56
(lp4081
S'session_id_name'
p4082
asbag49
(g70
g51
NtRp4083
(dp4084
g54
(dp4085
g81
g82
ssg63
g4074
sg56
(lp4086
S':'
asbag49
(g70
g51
NtRp4087
(dp4088
g54
(dp4089
sg63
g4074
sg56
(lp4090
g49
(g50
g51
NtRp4091
(dp4092
g54
(dp4093
g62
I5
ssg63
g4087
sg56
(lp4094
g3196
asbasbasbag49
(g65
g51
NtRp4095
(dp4096
g54
(dp4097
sg63
g3139
sg56
(lp4098
g49
(g70
g51
NtRp4099
(dp4100
g54
(dp4101
g74
g75
ssg63
g4095
sg56
(lp4102
S'session_locked'
p4103
asbag49
(g70
g51
NtRp4104
(dp4105
g54
(dp4106
g81
g82
ssg63
g4095
sg56
(lp4107
S':'
asbag49
(g70
g51
NtRp4108
(dp4109
g54
(dp4110
sg63
g4095
sg56
(lp4111
g49
(g50
g51
NtRp4112
(dp4113
g54
(dp4114
g62
I5
ssg63
g4108
sg56
(lp4115
g1549
asbasbasbag49
(g65
g51
NtRp4116
(dp4117
g54
(dp4118
sg63
g3139
sg56
(lp4119
g49
(g70
g51
NtRp4120
(dp4121
g54
(dp4122
g74
g75
ssg63
g4116
sg56
(lp4123
S'session_new'
p4124
asbag49
(g70
g51
NtRp4125
(dp4126
g54
(dp4127
g81
g82
ssg63
g4116
sg56
(lp4128
S':'
asbag49
(g70
g51
NtRp4129
(dp4130
g54
(dp4131
sg63
g4116
sg56
(lp4132
g49
(g50
g51
NtRp4133
(dp4134
g54
(dp4135
g62
I5
ssg63
g4129
sg56
(lp4136
g92
asbasbasbag49
(g65
g51
NtRp4137
(dp4138
g54
(dp4139
sg63
g3139
sg56
(lp4140
g49
(g70
g51
NtRp4141
(dp4142
g54
(dp4143
g74
g75
ssg63
g4137
sg56
(lp4144
S'status'
p4145
asbag49
(g70
g51
NtRp4146
(dp4147
g54
(dp4148
g81
g82
ssg63
g4137
sg56
(lp4149
S':'
asbag49
(g70
g51
NtRp4150
(dp4151
g54
(dp4152
sg63
g4137
sg56
(lp4153
g49
(g50
g51
NtRp4154
(dp4155
g54
(dp4156
g62
I5
ssg63
g4150
sg56
(lp4157
S'200'
p4158
asbasbasbag49
(g65
g51
NtRp4159
(dp4160
g54
(dp4161
sg63
g3139
sg56
(lp4162
g49
(g70
g51
NtRp4163
(dp4164
g54
(dp4165
g74
g75
ssg63
g4159
sg56
(lp4166
S'subtitle'
p4167
asbag49
(g70
g51
NtRp4168
(dp4169
g54
(dp4170
g81
g82
ssg63
g4159
sg56
(lp4171
S':'
asbag49
(g70
g51
NtRp4172
(dp4173
g54
(dp4174
sg63
g4159
sg56
(lp4175
g49
(g50
g51
NtRp4176
(dp4177
g54
(dp4178
g62
I5
ssg63
g4172
sg56
(lp4179
g3805
(S's\t\x00\x00\x00Adaptame!'
tRp4180
asbasbasbag49
(g65
g51
NtRp4181
(dp4182
g54
(dp4183
sg63
g3139
sg56
(lp4184
g49
(g70
g51
NtRp4185
(dp4186
g54
(dp4187
g74
g75
ssg63
g4181
sg56
(lp4188
S'title'
p4189
asbag49
(g70
g51
NtRp4190
(dp4191
g54
(dp4192
g81
g82
ssg63
g4181
sg56
(lp4193
S':'
asbag49
(g70
g51
NtRp4194
(dp4195
g54
(dp4196
sg63
g4181
sg56
(lp4197
g49
(g50
g51
NtRp4198
(dp4199
g54
(dp4200
g62
I5
ssg63
g4194
sg56
(lp4201
S'Parleyweb'
p4202
asbasbasbag49
(g65
g51
NtRp4203
(dp4204
g54
(dp4205
sg63
g3139
sg56
(lp4206
g49
(g70
g51
NtRp4207
(dp4208
g54
(dp4209
g74
g75
ssg63
g4203
sg56
(lp4210
g2257
asbag49
(g70
g51
NtRp4211
(dp4212
g54
(dp4213
g81
g82
ssg63
g4203
sg56
(lp4214
S':'
asbag49
(g70
g51
NtRp4215
(dp4216
g54
(dp4217
sg63
g4203
sg56
(lp4218
g49
(g50
g51
NtRp4219
(dp4220
g54
(dp4221
g62
I5
ssg63
g4215
sg56
(lp4222
g2270
asbasbasbag49
(g65
g51
NtRp4223
(dp4224
g54
(dp4225
sg63
g3139
sg56
(lp4226
g49
(g70
g51
NtRp4227
(dp4228
g54
(dp4229
g74
g75
ssg63
g4223
sg56
(lp4230
S'view'
p4231
asbag49
(g70
g51
NtRp4232
(dp4233
g54
(dp4234
g81
g82
ssg63
g4223
sg56
(lp4235
S':'
asbag49
(g70
g51
NtRp4236
(dp4237
g54
(dp4238
sg63
g4223
sg56
(lp4239
g49
(g50
g51
NtRp4240
(dp4241
g54
(dp4242
g62
I5
ssg63
g4236
sg56
(lp4243
S'admin/relacionar.html'
p4244
asbasbasbasbasbsS'locals'
p4245
(dp4246
S'Service'
p4247
S"<class 'gluon.tools.Service'>"
p4248
sS'OBJECT'
p4249
S"<class 'gluon.html.OBJECT'>"
p4250
sS'SQLDB'
p4251
S"<class 'gluon.dal.DAL'>"
p4252
sg3121
S"<Storage {'_formkey[busqueda/create]': 'f4156158...reate]': 'd856a468-732c-4951-aec4-260a560215d2'}>"
p4253
sS'LINK'
p4254
S"<class 'gluon.html.LINK'>"
p4255
sS'BR'
p4256
S"<class 'gluon.html.BR'>"
p4257
sS'local_import'
p4258
S'<function <lambda> at 0x07920470>'
p4259
sS'OPTGROUP'
p4260
S"<class 'gluon.html.OPTGROUP'>"
p4261
sS'PRE'
p4262
S"<class 'gluon.html.PRE'>"
p4263
sS'IS_INT_IN_RANGE'
p4264
S"<class 'gluon.validators.IS_INT_IN_RANGE'>"
p4265
sS'left_sidebar_enabled'
p4266
g92
sS'IS_LOWER'
p4267
S"<class 'gluon.validators.IS_LOWER'>"
p4268
sS'IS_STRONG'
p4269
S"<class 'gluon.validators.IS_STRONG'>"
p4270
sS'cache'
p4271
S'<gluon.cache.Cache object at 0x06FC4530>'
p4272
sS'IS_IN_DB'
p4273
S"<class 'gluon.validators.IS_IN_DB'>"
p4274
sS'TAG'
p4275
S'<gluon.html.__TAG__ object at 0x02861D50>'
p4276
sS'SQLField'
p4277
S"<class 'gluon.dal.Field'>"
p4278
sS'mail'
p4279
S'<gluon.tools.Mail object at 0x074C9EF0>'
p4280
sS'BODY'
p4281
S"<class 'gluon.html.BODY'>"
p4282
sS'IS_DATE_IN_RANGE'
p4283
S"<class 'gluon.validators.IS_DATE_IN_RANGE'>"
p4284
sS'TH'
p4285
S"<class 'gluon.html.TH'>"
p4286
sS'URL'
p4287
S'<function URL at 0x028C7EB0>'
p4288
sS'__file__'
p4289
S"'D:\\\\Dise\\xf1o Web\\\\Proyectos\\\\Parleyweb\\\\web2py\\\\applications\\\\parleyweb\\\\views\\\\admin/relacionar.html'"
p4290
sS'db'
p4291
S"<DAL {'auth_event': <Table {'origin': <gluon.dal..._key': <gluon.dal.Field object at 0x06DC8710>}>}>"
p4292
sS'auth'
p4293
S'<gluon.tools.Auth object at 0x074C92B0>'
p4294
sS'P'
S"<class 'gluon.html.P'>"
p4295
sS'TFOOT'
p4296
S"<class 'gluon.html.TFOOT'>"
p4297
sS'XHTML'
p4298
S"<class 'gluon.html.XHTML'>"
p4299
sS'ON'
p4300
g1549
sS'OL'
p4301
S"<class 'gluon.html.OL'>"
p4302
sS'TEXTAREA'
p4303
S"<class 'gluon.html.TEXTAREA'>"
p4304
sS'MENU'
p4305
S"<class 'gluon.html.MENU'>"
p4306
sS'LOAD'
p4307
S'<function LOAD at 0x02BB17B0>'
p4308
sS'CODE'
p4309
S"<class 'gluon.html.CODE'>"
p4310
sS'HTTP'
p4311
S"<class 'gluon.http.HTTP'>"
p4312
sS'HR'
p4313
S"<class 'gluon.html.HR'>"
p4314
sS'IS_DATETIME'
p4315
S"<class 'gluon.validators.IS_DATETIME'>"
p4316
sS'HEAD'
p4317
S"<class 'gluon.html.HEAD'>"
p4318
sS'LABEL'
p4319
S"<class 'gluon.html.LABEL'>"
p4320
sS'CLEANUP'
p4321
S"<class 'gluon.validators.CLEANUP'>"
p4322
sS'plugins'
p4323
S'<gluon.tools.PluginManager object at 0x033711F0>'
p4324
sS'SELECT'
p4325
S"<class 'gluon.html.SELECT'>"
p4326
sS'use_janrain'
p4327
S'<function use_janrain at 0x0336C8F0>'
p4328
sS'CENTER'
p4329
S"<class 'gluon.html.CENTER'>"
p4330
sS'prettydate'
p4331
S'<function prettydate at 0x03369EF0>'
p4332
sS'Crud'
p4333
S"<class 'gluon.tools.Crud'>"
p4334
sS'Auth'
p4335
S"<class 'gluon.tools.Auth'>"
p4336
sS'tabla'
p4337
S'<gluon.sqlhtml.SQLTABLE object at 0x06DAC410>'
p4338
sS'__builtins__'
p4339
S"{'ArithmeticError': <type 'exceptions.ArithmeticError'>, 'AssertionError': <type 'exceptions.AssertionError'>, 'AttributeError': <type 'exceptions.AttributeError'>, 'BaseException': <type 'exceptions.BaseException'>, 'DeprecationWarning': <type 'exceptions.DeprecationWarning'>, 'EOFError': <type 'exceptions.EOFError'>, 'Ellipsis': Ellipsis, 'EnvironmentError': <type 'exceptions.EnvironmentError'>, 'Exception': <type 'exceptions.Exception'>, 'False': False, ...}"
p4340
sS'HTML'
p4341
S"<class 'gluon.html.HTML'>"
p4342
sS'SQLFORM'
p4343
S"<class 'gluon.sqlhtml.SQLFORM'>"
p4344
sS'EM'
p4345
S"<class 'gluon.html.EM'>"
p4346
sS'redirect'
p4347
S'<function redirect at 0x0246BB70>'
p4348
sS'FIELDSET'
p4349
S"<class 'gluon.html.FIELDSET'>"
p4350
sS'IS_EQUAL_TO'
p4351
S"<class 'gluon.validators.IS_EQUAL_TO'>"
p4352
sS'embed64'
p4353
S'<function embed64 at 0x028D69F0>'
p4354
sS'IS_LIST_OF'
p4355
S"<class 'gluon.validators.IS_LIST_OF'>"
p4356
sS'__name__'
p4357
S"'__restricted__'"
p4358
sS'EMBED'
p4359
S"<class 'gluon.html.EMBED'>"
p4360
sS'_'
S'<function _ at 0x06FABBF0>'
p4361
sS'FORM'
p4362
S"<class 'gluon.html.FORM'>"
p4363
sS'H2'
p4364
S"<class 'gluon.html.H2'>"
p4365
sS'H3'
p4366
S"<class 'gluon.html.H3'>"
p4367
sS'BUTTON'
p4368
S"<class 'gluon.html.BUTTON'>"
p4369
sS'H1'
p4370
S"<class 'gluon.html.H1'>"
p4371
sS'H6'
p4372
S"<class 'gluon.html.H6'>"
p4373
sS'H4'
p4374
S"<class 'gluon.html.H4'>"
p4375
sS'H5'
p4376
S"<class 'gluon.html.H5'>"
p4377
sS'UL'
p4378
S"<class 'gluon.html.UL'>"
p4379
sS'IS_UPPER'
p4380
S"<class 'gluon.validators.IS_UPPER'>"
p4381
sS'xmlescape'
p4382
S'<function xmlescape at 0x028C7E30>'
p4383
sS'IS_TIME'
p4384
S"<class 'gluon.validators.IS_TIME'>"
p4385
sS'OPTION'
p4386
S"<class 'gluon.html.OPTION'>"
p4387
sS'TITLE'
p4388
S"<class 'gluon.html.TITLE'>"
p4389
sS'CRYPT'
p4390
S"<class 'gluon.validators.CRYPT'>"
p4391
sS'IS_EMPTY_OR'
p4392
S"<class 'gluon.validators.IS_EMPTY_OR'>"
p4393
sS'MARKMIN'
p4394
S"<class 'gluon.html.MARKMIN'>"
p4395
sS'INPUT'
p4396
S"<class 'gluon.html.INPUT'>"
p4397
sS'COL'
p4398
S"<class 'gluon.html.COL'>"
p4399
sS'service'
p4400
S'<gluon.tools.Service object at 0x06DC8A90>'
p4401
sS'SCRIPT'
p4402
S"<class 'gluon.html.SCRIPT'>"
p4403
sS'TABLE'
p4404
S"<class 'gluon.html.TABLE'>"
p4405
sS'IS_IPV4'
p4406
S"<class 'gluon.validators.IS_IPV4'>"
p4407
sS'IS_LENGTH'
p4408
S"<class 'gluon.validators.IS_LENGTH'>"
p4409
sS'XML'
p4410
S"<class 'gluon.html.XML'>"
p4411
sS'B'
S"<class 'gluon.html.B'>"
p4412
sS'IMG'
p4413
S"<class 'gluon.html.IMG'>"
p4414
sS'SQLTABLE'
p4415
S"<class 'gluon.sqlhtml.SQLTABLE'>"
p4416
sS'IS_MATCH'
p4417
S"<class 'gluon.validators.IS_MATCH'>"
p4418
sS'IS_ALPHANUMERIC'
p4419
S"<class 'gluon.validators.IS_ALPHANUMERIC'>"
p4420
sS'SPAN'
p4421
S"<class 'gluon.html.SPAN'>"
p4422
sS'IS_SLUG'
p4423
S"<class 'gluon.validators.IS_SLUG'>"
p4424
sS'BEAUTIFY'
p4425
S"<class 'gluon.html.BEAUTIFY'>"
p4426
sS'META'
p4427
S"<class 'gluon.html.META'>"
p4428
sS'IS_DATE'
p4429
S"<class 'gluon.validators.IS_DATE'>"
p4430
sS'IS_EMAIL'
p4431
S"<class 'gluon.validators.IS_EMAIL'>"
p4432
sS'IS_NOT_EMPTY'
p4433
S"<class 'gluon.validators.IS_NOT_EMPTY'>"
p4434
sS'IS_FLOAT_IN_RANGE'
p4435
S"<class 'gluon.validators.IS_FLOAT_IN_RANGE'>"
p4436
sS'TBODY'
p4437
S"<class 'gluon.html.TBODY'>"
p4438
sS'CAT'
p4439
S"<class 'gluon.html.CAT'>"
p4440
sS'Field'
p4441
S"<class 'gluon.dal.Field'>"
p4442
sS'middle_columns'
p4443
S"'sixteen'"
p4444
sS'DIV'
p4445
S"<class 'gluon.html.DIV'>"
p4446
sS'LEGEND'
p4447
S"<class 'gluon.html.LEGEND'>"
p4448
sS'COLGROUP'
p4449
S"<class 'gluon.html.COLGROUP'>"
p4450
sS'DAL'
p4451
S"<class 'gluon.dal.DAL'>"
p4452
sS'TT'
p4453
S"<class 'gluon.html.TT'>"
p4454
sS'TR'
p4455
S"<class 'gluon.html.TR'>"
p4456
sS'LI'
p4457
S"<class 'gluon.html.LI'>"
p4458
sS'right_sidebar_enabled'
p4459
g92
sS'IFRAME'
p4460
S"<class 'gluon.html.IFRAME'>"
p4461
sS'TD'
p4462
S"<class 'gluon.html.TD'>"
p4463
sS'PluginManager'
p4464
S"<class 'gluon.tools.PluginManager'>"
p4465
sS'IS_URL'
p4466
S"<class 'gluon.validators.IS_URL'>"
p4467
sS'A'
S"<class 'gluon.html.A'>"
p4468
sS'STYLE'
p4469
S"<class 'gluon.html.STYLE'>"
p4470
sS'IS_DATETIME_IN_RANGE'
p4471
S"<class 'gluon.validators.IS_DATETIME_IN_RANGE'>"
p4472
sS'IS_IMAGE'
p4473
S"<class 'gluon.validators.IS_IMAGE'>"
p4474
sS'I'
S"<class 'gluon.html.I'>"
p4475
sS'crud'
p4476
S'<gluon.tools.Crud object at 0x06FA8CD0>'
p4477
sS'IS_NOT_IN_DB'
p4478
S"<class 'gluon.validators.IS_NOT_IN_DB'>"
p4479
sg3134
S"<Storage {'body': <cStringIO.StringO object at 0...at 0x074BE8F0>, 'view': 'admin/relacionar.html'}>"
p4480
sS'THEAD'
p4481
S"<class 'gluon.html.THEAD'>"
p4482
sS'IS_NULL_OR'
p4483
S"<class 'gluon.validators.IS_EMPTY_OR'>"
p4484
sg48
S"<Storage {'body': <open file '<fdopen>', mode 'w...rage {'relacionar': '31', 'id_palabra': '135'}>}>"
p4485
sS'IS_EXPR'
p4486
S"<class 'gluon.validators.IS_EXPR'>"
p4487
sS'T'
S'<gluon.languages.translator object at 0x06FA8B30>'
p4488
sS'IS_IN_SET'
p4489
S"<class 'gluon.validators.IS_IN_SET'>"
p4490
sS'IS_UPLOAD_FILENAME'
p4491
S"<class 'gluon.validators.IS_UPLOAD_FILENAME'>"
p4492
sS'IS_DECIMAL_IN_RANGE'
p4493
S"<class 'gluon.validators.IS_DECIMAL_IN_RANGE'>"
p4494
sssS'traceback'
p4495
S'Traceback (most recent call last):\n  File "gluon/restricted.py", line 205, in restricted\n  File "D:\\Dise\xf1o Web\\Proyectos\\Parleyweb\\web2py\\applications\\parleyweb\\views\\admin/relacionar.html", line 65, in <module>\nNameError: name \'post_vars\' is not defined\n'
p4496
s.