(dp1
S'output'
p2
S"<type 'exceptions.TypeError'> 'NoneType' object is not callable"
p3
sS'layer'
p4
S'D:\\Dise\xf1o Web\\Proyectos\\Parleyweb\\web2py\\applications\\parleyweb\\controllers/default.py'
p5
sS'code'
p6
S'# -*- coding: utf-8 -*-\n# this file is released under public domain and you can use without limitations\n\n#########################################################################\n## This is a samples controller\n## - index is the default action of any application\n## - user is required for authentication and authorization\n## - download is for downloading files uploaded in the db (does streaming)\n## - call exposes all registered services (none by default)\n#########################################################################\n\ndef index():\n    """\n    example action using the internationalization operator T and flash\n    rendered by views/default/index.html or views/generic.html\n    """\n    contains_prueba = db(db.ejemplos.ejemplo_de.contains([\'vorhang\',\'von\'], all=False)).select()\n    startswith_prueba = db(db.ejemplos.ejemplo_de.startswith(\'l\')).select()\n    return dict(contains_prueba = contains_prueba, startswith_prueba = startswith_prueba  )\n\n\n    \n    \n\ndef user():\n    """\n    exposes:\n    http://..../[app]/default/user/login\n    http://..../[app]/default/user/logout\n    http://..../[app]/default/user/register\n    http://..../[app]/default/user/profile\n    http://..../[app]/default/user/retrieve_password\n    http://..../[app]/default/user/change_password\n    use @auth.requires_login()\n        @auth.requires_membership(\'group name\')\n        @auth.requires_permission(\'read\',\'table name\',record_id)\n    to decorate functions that need access control\n    """\n    return dict(form=auth())\n\n\ndef download():\n    """\n    allows downloading of uploaded files\n    http://..../[app]/default/download/[filename]\n    """\n    return response.download(request,db)\n\n\ndef call():\n    """\n    exposes services. for example:\n    http://..../[app]/default/call/jsonrpc\n    decorate with @services.jsonrpc the functions to expose\n    supports xml, json, xmlrpc, jsonrpc, amfrpc, rss, csv\n    """\n    return service()\n\n\n@auth.requires_signature()\ndef data():\n    """\n    http://..../[app]/default/data/tables\n    http://..../[app]/default/data/create/[table]\n    http://..../[app]/default/data/read/[table]/[id]\n    http://..../[app]/default/data/update/[table]/[id]\n    http://..../[app]/default/data/delete/[table]/[id]\n    http://..../[app]/default/data/select/[table]\n    http://..../[app]/default/data/search/[table]\n    but URLs must be signed, i.e. linked with\n      A(\'table\',_href=URL(\'data/tables\',user_signature=True))\n    or with the signed load operator\n      LOAD(\'default\',\'data.load\',args=\'tables\',ajax=True,user_signature=True)\n    """\n    return dict(form=crud())\n\ndef mostrar():\n    palabras = db((db.palabras.id==request.args(0))).select().first()\n    igualar = db((db.palabras.id==db.palabra_ejemplo.palabra)&(db.ejemplos.id==db.palabra_ejemplo.ejemplo))\n    ejemplos = igualar(db.palabras.id==request.args(0))\n   # prueba = ejemplos(db.ejemplos.tipo==\'sustantivo\').select(db.ejemplos.ALL)\n    \n    return dict(palabras=palabras, ejemplos=ejemplos)\n\n\n\n\n\n\n\n\n\n\n\n\n\n\n\n\n\n\n\n\n\n\n\n\n\n\n\n\n\n\n\n\nresponse._vars=response._caller(mostrar)\n'
p7
sS'snapshot'
p8
(dp9
S'exception'
p10
(dp11
S'__hash__'
p12
S"<method-wrapper '__hash__' of exceptions.TypeError object at 0x072442D8>"
p13
sS'__setattr__'
p14
S"<method-wrapper '__setattr__' of exceptions.TypeError object at 0x072442D8>"
p15
sS'__reduce_ex__'
p16
S'<built-in method __reduce_ex__ of exceptions.TypeError object at 0x072442D8>'
p17
sS'__getslice__'
p18
S"<method-wrapper '__getslice__' of exceptions.TypeError object at 0x072442D8>"
p19
sS'__getitem__'
p20
S"<method-wrapper '__getitem__' of exceptions.TypeError object at 0x072442D8>"
p21
sS'__setstate__'
p22
S'<built-in method __setstate__ of exceptions.TypeError object at 0x072442D8>'
p23
sS'__reduce__'
p24
S'<built-in method __reduce__ of exceptions.TypeError object at 0x072442D8>'
p25
sS'__str__'
p26
S"<method-wrapper '__str__' of exceptions.TypeError object at 0x072442D8>"
p27
sS'args'
p28
S'("\'NoneType\' object is not callable",)'
p29
sS'__getattribute__'
p30
S"<method-wrapper '__getattribute__' of exceptions.TypeError object at 0x072442D8>"
p31
sS'__class__'
p32
S"<type 'exceptions.TypeError'>"
p33
sS'__delattr__'
p34
S"<method-wrapper '__delattr__' of exceptions.TypeError object at 0x072442D8>"
p35
sS'__repr__'
p36
S"<method-wrapper '__repr__' of exceptions.TypeError object at 0x072442D8>"
p37
sS'__dict__'
p38
S'{}'
p39
sS'__doc__'
p40
S"'Inappropriate argument type.'"
p41
sS'__init__'
p42
S"<method-wrapper '__init__' of exceptions.TypeError object at 0x072442D8>"
p43
sS'__new__'
p44
S'<built-in method __new__ of type object at 0x1E1CCD78>'
p45
ssS'evalue'
p46
S"'NoneType' object is not callable"
p47
sS'request'
p48
ccopy_reg
_reconstructor
p49
(cgluon.html
BEAUTIFY
p50
c__builtin__
object
p51
NtRp52
(dp53
S'attributes'
p54
(dp55
sS'components'
p56
(lp57
g49
(cgluon.html
TABLE
p58
g51
NtRp59
(dp60
g54
(dp61
S'level'
p62
I5
ssS'parent'
p63
Nsg56
(lp64
g49
(cgluon.html
TR
p65
g51
NtRp66
(dp67
g54
(dp68
sg63
g59
sg56
(lp69
g49
(cgluon.html
TD
p70
g51
NtRp71
(dp72
g54
(dp73
S'_style'
p74
S'font-weight:bold;vertical-align:top'
p75
ssg63
g66
sg56
(lp76
S'ajax'
p77
asbag49
(g70
g51
NtRp78
(dp79
g54
(dp80
S'_valign'
p81
S'top'
p82
ssg63
g66
sg56
(lp83
S':'
asbag49
(g70
g51
NtRp84
(dp85
g54
(dp86
sg63
g66
sg56
(lp87
g49
(g50
g51
NtRp88
(dp89
g54
(dp90
g62
I5
ssg63
g84
sg56
(lp91
S'False'
p92
asbasbasbag49
(g65
g51
NtRp93
(dp94
g54
(dp95
sg63
g59
sg56
(lp96
g49
(g70
g51
NtRp97
(dp98
g54
(dp99
g74
g75
ssg63
g93
sg56
(lp100
S'application'
p101
asbag49
(g70
g51
NtRp102
(dp103
g54
(dp104
g81
g82
ssg63
g93
sg56
(lp105
S':'
asbag49
(g70
g51
NtRp106
(dp107
g54
(dp108
sg63
g93
sg56
(lp109
g49
(g50
g51
NtRp110
(dp111
g54
(dp112
g62
I5
ssg63
g106
sg56
(lp113
S'parleyweb'
p114
asbasbasbag49
(g65
g51
NtRp115
(dp116
g54
(dp117
sg63
g59
sg56
(lp118
g49
(g70
g51
NtRp119
(dp120
g54
(dp121
g74
g75
ssg63
g115
sg56
(lp122
S'body'
p123
asbag49
(g70
g51
NtRp124
(dp125
g54
(dp126
g81
g82
ssg63
g115
sg56
(lp127
S':'
asbag49
(g70
g51
NtRp128
(dp129
g54
(dp130
sg63
g115
sg56
(lp131
g49
(g50
g51
NtRp132
(dp133
g54
(dp134
g62
I5
ssg63
g128
sg56
(lp135
S'<cStringIO.StringO object at 0x0708FF40>'
p136
asbasbasbag49
(g65
g51
NtRp137
(dp138
g54
(dp139
sg63
g59
sg56
(lp140
g49
(g70
g51
NtRp141
(dp142
g54
(dp143
g74
g75
ssg63
g137
sg56
(lp144
S'client'
p145
asbag49
(g70
g51
NtRp146
(dp147
g54
(dp148
g81
g82
ssg63
g137
sg56
(lp149
S':'
asbag49
(g70
g51
NtRp150
(dp151
g54
(dp152
sg63
g137
sg56
(lp153
g49
(g50
g51
NtRp154
(dp155
g54
(dp156
g62
I5
ssg63
g150
sg56
(lp157
S'127.0.0.1'
p158
asbasbasbag49
(g65
g51
NtRp159
(dp160
g54
(dp161
sg63
g59
sg56
(lp162
g49
(g70
g51
NtRp163
(dp164
g54
(dp165
g74
g75
ssg63
g159
sg56
(lp166
S'controller'
p167
asbag49
(g70
g51
NtRp168
(dp169
g54
(dp170
g81
g82
ssg63
g159
sg56
(lp171
S':'
asbag49
(g70
g51
NtRp172
(dp173
g54
(dp174
sg63
g159
sg56
(lp175
g49
(g50
g51
NtRp176
(dp177
g54
(dp178
g62
I5
ssg63
g172
sg56
(lp179
S'default'
p180
asbasbasbag49
(g65
g51
NtRp181
(dp182
g54
(dp183
sg63
g59
sg56
(lp184
g49
(g70
g51
NtRp185
(dp186
g54
(dp187
g74
g75
ssg63
g181
sg56
(lp188
S'cookies'
p189
asbag49
(g70
g51
NtRp190
(dp191
g54
(dp192
g81
g82
ssg63
g181
sg56
(lp193
S':'
asbag49
(g70
g51
NtRp194
(dp195
g54
(dp196
sg63
g181
sg56
(lp197
g49
(g50
g51
NtRp198
(dp199
g54
(dp200
g62
I5
ssg63
g194
sg56
(lp201
g49
(g58
g51
NtRp202
(dp203
g54
(dp204
g62
I4
ssg63
Nsg56
(lp205
g49
(g65
g51
NtRp206
(dp207
g54
(dp208
sg63
g202
sg56
(lp209
g49
(g70
g51
NtRp210
(dp211
g54
(dp212
g74
g75
ssg63
g206
sg56
(lp213
S'session_id_parleyweb'
p214
asbag49
(g70
g51
NtRp215
(dp216
g54
(dp217
g81
g82
ssg63
g206
sg56
(lp218
S':'
asbag49
(g70
g51
NtRp219
(dp220
g54
(dp221
sg63
g206
sg56
(lp222
g49
(g50
g51
NtRp223
(dp224
g54
(dp225
g62
I4
ssg63
g219
sg56
(lp226
g49
(g58
g51
NtRp227
(dp228
g54
(dp229
g62
I3
ssg63
Nsg56
(lp230
g49
(g65
g51
NtRp231
(dp232
g54
(dp233
sg63
g227
sg56
(lp234
g49
(g70
g51
NtRp235
(dp236
g54
(dp237
g74
g75
ssg63
g231
sg56
(lp238
S'comment'
p239
asbag49
(g70
g51
NtRp240
(dp241
g54
(dp242
g81
g82
ssg63
g231
sg56
(lp243
S':'
asbag49
(g70
g51
NtRp244
(dp245
g54
(dp246
sg63
g231
sg56
(lp247
g49
(g50
g51
NtRp248
(dp249
g54
(dp250
g62
I3
ssg63
g244
sg56
(lp251
S''
asbasbasbag49
(g65
g51
NtRp252
(dp253
g54
(dp254
sg63
g227
sg56
(lp255
g49
(g70
g51
NtRp256
(dp257
g54
(dp258
g74
g75
ssg63
g252
sg56
(lp259
S'domain'
p260
asbag49
(g70
g51
NtRp261
(dp262
g54
(dp263
g81
g82
ssg63
g252
sg56
(lp264
S':'
asbag49
(g70
g51
NtRp265
(dp266
g54
(dp267
sg63
g252
sg56
(lp268
g49
(g50
g51
NtRp269
(dp270
g54
(dp271
g62
I3
ssg63
g265
sg56
(lp272
S''
asbasbasbag49
(g65
g51
NtRp273
(dp274
g54
(dp275
sg63
g227
sg56
(lp276
g49
(g70
g51
NtRp277
(dp278
g54
(dp279
g74
g75
ssg63
g273
sg56
(lp280
S'expires'
p281
asbag49
(g70
g51
NtRp282
(dp283
g54
(dp284
g81
g82
ssg63
g273
sg56
(lp285
S':'
asbag49
(g70
g51
NtRp286
(dp287
g54
(dp288
sg63
g273
sg56
(lp289
g49
(g50
g51
NtRp290
(dp291
g54
(dp292
g62
I3
ssg63
g286
sg56
(lp293
S''
asbasbasbag49
(g65
g51
NtRp294
(dp295
g54
(dp296
sg63
g227
sg56
(lp297
g49
(g70
g51
NtRp298
(dp299
g54
(dp300
g74
g75
ssg63
g294
sg56
(lp301
S'max-age'
p302
asbag49
(g70
g51
NtRp303
(dp304
g54
(dp305
g81
g82
ssg63
g294
sg56
(lp306
S':'
asbag49
(g70
g51
NtRp307
(dp308
g54
(dp309
sg63
g294
sg56
(lp310
g49
(g50
g51
NtRp311
(dp312
g54
(dp313
g62
I3
ssg63
g307
sg56
(lp314
S''
asbasbasbag49
(g65
g51
NtRp315
(dp316
g54
(dp317
sg63
g227
sg56
(lp318
g49
(g70
g51
NtRp319
(dp320
g54
(dp321
g74
g75
ssg63
g315
sg56
(lp322
S'path'
p323
asbag49
(g70
g51
NtRp324
(dp325
g54
(dp326
g81
g82
ssg63
g315
sg56
(lp327
S':'
asbag49
(g70
g51
NtRp328
(dp329
g54
(dp330
sg63
g315
sg56
(lp331
g49
(g50
g51
NtRp332
(dp333
g54
(dp334
g62
I3
ssg63
g328
sg56
(lp335
S''
asbasbasbag49
(g65
g51
NtRp336
(dp337
g54
(dp338
sg63
g227
sg56
(lp339
g49
(g70
g51
NtRp340
(dp341
g54
(dp342
g74
g75
ssg63
g336
sg56
(lp343
S'secure'
p344
asbag49
(g70
g51
NtRp345
(dp346
g54
(dp347
g81
g82
ssg63
g336
sg56
(lp348
S':'
asbag49
(g70
g51
NtRp349
(dp350
g54
(dp351
sg63
g336
sg56
(lp352
g49
(g50
g51
NtRp353
(dp354
g54
(dp355
g62
I3
ssg63
g349
sg56
(lp356
S''
asbasbasbag49
(g65
g51
NtRp357
(dp358
g54
(dp359
sg63
g227
sg56
(lp360
g49
(g70
g51
NtRp361
(dp362
g54
(dp363
g74
g75
ssg63
g357
sg56
(lp364
S'version'
p365
asbag49
(g70
g51
NtRp366
(dp367
g54
(dp368
g81
g82
ssg63
g357
sg56
(lp369
S':'
asbag49
(g70
g51
NtRp370
(dp371
g54
(dp372
sg63
g357
sg56
(lp373
g49
(g50
g51
NtRp374
(dp375
g54
(dp376
g62
I3
ssg63
g370
sg56
(lp377
S''
asbasbasbasbasbasbasbasbasbasbasbag49
(g65
g51
NtRp378
(dp379
g54
(dp380
sg63
g59
sg56
(lp381
g49
(g70
g51
NtRp382
(dp383
g54
(dp384
g74
g75
ssg63
g378
sg56
(lp385
S'env'
p386
asbag49
(g70
g51
NtRp387
(dp388
g54
(dp389
g81
g82
ssg63
g378
sg56
(lp390
S':'
asbag49
(g70
g51
NtRp391
(dp392
g54
(dp393
sg63
g378
sg56
(lp394
g49
(g50
g51
NtRp395
(dp396
g54
(dp397
g62
I5
ssg63
g391
sg56
(lp398
g49
(g58
g51
NtRp399
(dp400
g54
(dp401
g62
I4
ssg63
Nsg56
(lp402
g49
(g65
g51
NtRp403
(dp404
g54
(dp405
sg63
g399
sg56
(lp406
g49
(g70
g51
NtRp407
(dp408
g54
(dp409
g74
g75
ssg63
g403
sg56
(lp410
S'app_folders'
p411
asbag49
(g70
g51
NtRp412
(dp413
g54
(dp414
g81
g82
ssg63
g403
sg56
(lp415
S':'
asbag49
(g70
g51
NtRp416
(dp417
g54
(dp418
sg63
g403
sg56
(lp419
g49
(g50
g51
NtRp420
(dp421
g54
(dp422
g62
I4
ssg63
g416
sg56
(lp423
S"set(['D:\\\\Dise\\xf1o Web\\\\Proyectos\\\\Parleyweb\\\\web2py\\\\applications\\\\parleyweb\\\\'])"
p424
asbasbasbag49
(g65
g51
NtRp425
(dp426
g54
(dp427
sg63
g399
sg56
(lp428
g49
(g70
g51
NtRp429
(dp430
g54
(dp431
g74
g75
ssg63
g425
sg56
(lp432
S'applications_parent'
p433
asbag49
(g70
g51
NtRp434
(dp435
g54
(dp436
g81
g82
ssg63
g425
sg56
(lp437
S':'
asbag49
(g70
g51
NtRp438
(dp439
g54
(dp440
sg63
g425
sg56
(lp441
g49
(g50
g51
NtRp442
(dp443
g54
(dp444
g62
I4
ssg63
g438
sg56
(lp445
S'D:\\Dise\xf1o Web\\Proyectos\\Parleyweb\\web2py'
p446
asbasbasbag49
(g65
g51
NtRp447
(dp448
g54
(dp449
sg63
g399
sg56
(lp450
g49
(g70
g51
NtRp451
(dp452
g54
(dp453
g74
g75
ssg63
g447
sg56
(lp454
S'cmd_args'
p455
asbag49
(g70
g51
NtRp456
(dp457
g54
(dp458
g81
g82
ssg63
g447
sg56
(lp459
S':'
asbag49
(g70
g51
NtRp460
(dp461
g54
(dp462
sg63
g447
sg56
(lp463
g49
(g50
g51
NtRp464
(dp465
g54
(dp466
g62
I4
ssg63
g460
sg56
(lp467
g49
(g58
g51
NtRp468
(dp469
g54
(dp470
g62
I3
ssg63
Nsg56
(lp471
sbasbasbasbag49
(g65
g51
NtRp472
(dp473
g54
(dp474
sg63
g399
sg56
(lp475
g49
(g70
g51
NtRp476
(dp477
g54
(dp478
g74
g75
ssg63
g472
sg56
(lp479
S'cmd_options'
p480
asbag49
(g70
g51
NtRp481
(dp482
g54
(dp483
g81
g82
ssg63
g472
sg56
(lp484
S':'
asbag49
(g70
g51
NtRp485
(dp486
g54
(dp487
sg63
g472
sg56
(lp488
g49
(g50
g51
NtRp489
(dp490
g54
(dp491
g62
I4
ssg63
g485
sg56
(lp492
S"<Values at 0x30d4238: {'verbose': False, 'ip': '127.0.0.1', 'shutdown_timeout': 5, 'taskbar': False, 'nocron': False, 'pid_filename': 'httpserver.pid', 'maxthreads': None, 'softcron': False, 'server_name': 'craxsnet-PC', 'bpython': False, 'nogui': False, 'port': 8000, 'extcron': False, 'debuglevel': 30, 'test': None, 'folder': 'D:\\\\Dise\\xf1o Web\\\\Proyectos\\\\Parleyweb\\\\web2py', 'config': '', 'import_models': False, 'winservice': '', 'shell': None, 'run': '', 'log_filename': 'httpserver.log', 'args': [''], 'socket_timeout': 5, 'ssl_ca_certificate': None, 'scheduler': None, 'profiler_filename': None, 'ssl_private_key': '', 'password': '<ask>', 'request_queue_size': 5, 'ssl_certificate': '', 'cronjob': False, 'numthreads': None, 'quiet': False, 'interfaces': None, 'minthreads': None, 'timeout': 10, 'plain': False, 'nobanner': False}>"
p493
asbasbasbag49
(g65
g51
NtRp494
(dp495
g54
(dp496
sg63
g399
sg56
(lp497
g49
(g70
g51
NtRp498
(dp499
g54
(dp500
g74
g75
ssg63
g494
sg56
(lp501
S'db_sessions'
p502
asbag49
(g70
g51
NtRp503
(dp504
g54
(dp505
g81
g82
ssg63
g494
sg56
(lp506
S':'
asbag49
(g70
g51
NtRp507
(dp508
g54
(dp509
sg63
g494
sg56
(lp510
g49
(g50
g51
NtRp511
(dp512
g54
(dp513
g62
I4
ssg63
g507
sg56
(lp514
S'set([])'
p515
asbasbasbag49
(g65
g51
NtRp516
(dp517
g54
(dp518
sg63
g399
sg56
(lp519
g49
(g70
g51
NtRp520
(dp521
g54
(dp522
g74
g75
ssg63
g516
sg56
(lp523
S'debugging'
p524
asbag49
(g70
g51
NtRp525
(dp526
g54
(dp527
g81
g82
ssg63
g516
sg56
(lp528
S':'
asbag49
(g70
g51
NtRp529
(dp530
g54
(dp531
sg63
g516
sg56
(lp532
g49
(g50
g51
NtRp533
(dp534
g54
(dp535
g62
I4
ssg63
g529
sg56
(lp536
g92
asbasbasbag49
(g65
g51
NtRp537
(dp538
g54
(dp539
sg63
g399
sg56
(lp540
g49
(g70
g51
NtRp541
(dp542
g54
(dp543
g74
g75
ssg63
g537
sg56
(lp544
S'gluon_parent'
p545
asbag49
(g70
g51
NtRp546
(dp547
g54
(dp548
g81
g82
ssg63
g537
sg56
(lp549
S':'
asbag49
(g70
g51
NtRp550
(dp551
g54
(dp552
sg63
g537
sg56
(lp553
g49
(g50
g51
NtRp554
(dp555
g54
(dp556
g62
I4
ssg63
g550
sg56
(lp557
S'D:\\Dise\xf1o Web\\Proyectos\\Parleyweb\\web2py'
p558
asbasbasbag49
(g65
g51
NtRp559
(dp560
g54
(dp561
sg63
g399
sg56
(lp562
g49
(g70
g51
NtRp563
(dp564
g54
(dp565
g74
g75
ssg63
g559
sg56
(lp566
S'http_accept'
p567
asbag49
(g70
g51
NtRp568
(dp569
g54
(dp570
g81
g82
ssg63
g559
sg56
(lp571
S':'
asbag49
(g70
g51
NtRp572
(dp573
g54
(dp574
sg63
g559
sg56
(lp575
g49
(g50
g51
NtRp576
(dp577
g54
(dp578
g62
I4
ssg63
g572
sg56
(lp579
S'text/html,application/xhtml+xml,application/xml;q=0.9,*/*;q=0.8'
p580
asbasbasbag49
(g65
g51
NtRp581
(dp582
g54
(dp583
sg63
g399
sg56
(lp584
g49
(g70
g51
NtRp585
(dp586
g54
(dp587
g74
g75
ssg63
g581
sg56
(lp588
S'http_accept_encoding'
p589
asbag49
(g70
g51
NtRp590
(dp591
g54
(dp592
g81
g82
ssg63
g581
sg56
(lp593
S':'
asbag49
(g70
g51
NtRp594
(dp595
g54
(dp596
sg63
g581
sg56
(lp597
g49
(g50
g51
NtRp598
(dp599
g54
(dp600
g62
I4
ssg63
g594
sg56
(lp601
S'gzip, deflate'
p602
asbasbasbag49
(g65
g51
NtRp603
(dp604
g54
(dp605
sg63
g399
sg56
(lp606
g49
(g70
g51
NtRp607
(dp608
g54
(dp609
g74
g75
ssg63
g603
sg56
(lp610
S'http_accept_language'
p611
asbag49
(g70
g51
NtRp612
(dp613
g54
(dp614
g81
g82
ssg63
g603
sg56
(lp615
S':'
asbag49
(g70
g51
NtRp616
(dp617
g54
(dp618
sg63
g603
sg56
(lp619
g49
(g50
g51
NtRp620
(dp621
g54
(dp622
g62
I4
ssg63
g616
sg56
(lp623
S'es-es,de-de;q=0.8,es;q=0.6,en-us;q=0.4,en;q=0.2'
p624
asbasbasbag49
(g65
g51
NtRp625
(dp626
g54
(dp627
sg63
g399
sg56
(lp628
g49
(g70
g51
NtRp629
(dp630
g54
(dp631
g74
g75
ssg63
g625
sg56
(lp632
S'http_connection'
p633
asbag49
(g70
g51
NtRp634
(dp635
g54
(dp636
g81
g82
ssg63
g625
sg56
(lp637
S':'
asbag49
(g70
g51
NtRp638
(dp639
g54
(dp640
sg63
g625
sg56
(lp641
g49
(g50
g51
NtRp642
(dp643
g54
(dp644
g62
I4
ssg63
g638
sg56
(lp645
S'keep-alive'
p646
asbasbasbag49
(g65
g51
NtRp647
(dp648
g54
(dp649
sg63
g399
sg56
(lp650
g49
(g70
g51
NtRp651
(dp652
g54
(dp653
g74
g75
ssg63
g647
sg56
(lp654
S'http_cookie'
p655
asbag49
(g70
g51
NtRp656
(dp657
g54
(dp658
g81
g82
ssg63
g647
sg56
(lp659
S':'
asbag49
(g70
g51
NtRp660
(dp661
g54
(dp662
sg63
g647
sg56
(lp663
g49
(g50
g51
NtRp664
(dp665
g54
(dp666
g62
I4
ssg63
g660
sg56
(lp667
S'__utma=96992031.26429765.1325029743.1325029743.1326549329.2; __utmz=96992031.1325029743.1.1.utmcsr=(direct)|utmccn=(direct)|utmcmd=(none); session_id_parleyweb=127.0.0.1-b9128f42-ceb9-46f0-9b29-84d3a40c4ca4'
p668
asbasbasbag49
(g65
g51
NtRp669
(dp670
g54
(dp671
sg63
g399
sg56
(lp672
g49
(g70
g51
NtRp673
(dp674
g54
(dp675
g74
g75
ssg63
g669
sg56
(lp676
S'http_host'
p677
asbag49
(g70
g51
NtRp678
(dp679
g54
(dp680
g81
g82
ssg63
g669
sg56
(lp681
S':'
asbag49
(g70
g51
NtRp682
(dp683
g54
(dp684
sg63
g669
sg56
(lp685
g49
(g50
g51
NtRp686
(dp687
g54
(dp688
g62
I4
ssg63
g682
sg56
(lp689
S'127.0.0.1:8000'
p690
asbasbasbag49
(g65
g51
NtRp691
(dp692
g54
(dp693
sg63
g399
sg56
(lp694
g49
(g70
g51
NtRp695
(dp696
g54
(dp697
g74
g75
ssg63
g691
sg56
(lp698
S'http_referer'
p699
asbag49
(g70
g51
NtRp700
(dp701
g54
(dp702
g81
g82
ssg63
g691
sg56
(lp703
S':'
asbag49
(g70
g51
NtRp704
(dp705
g54
(dp706
sg63
g691
sg56
(lp707
g49
(g50
g51
NtRp708
(dp709
g54
(dp710
g62
I4
ssg63
g704
sg56
(lp711
S'http://127.0.0.1:8000/parleyweb/admin/agregar_palabra'
p712
asbasbasbag49
(g65
g51
NtRp713
(dp714
g54
(dp715
sg63
g399
sg56
(lp716
g49
(g70
g51
NtRp717
(dp718
g54
(dp719
g74
g75
ssg63
g713
sg56
(lp720
S'http_user_agent'
p721
asbag49
(g70
g51
NtRp722
(dp723
g54
(dp724
g81
g82
ssg63
g713
sg56
(lp725
S':'
asbag49
(g70
g51
NtRp726
(dp727
g54
(dp728
sg63
g713
sg56
(lp729
g49
(g50
g51
NtRp730
(dp731
g54
(dp732
g62
I4
ssg63
g726
sg56
(lp733
S'Mozilla/5.0 (Windows NT 6.1; WOW64; rv:10.0.2) Gecko/20100101 Firefox/10.0.2'
p734
asbasbasbag49
(g65
g51
NtRp735
(dp736
g54
(dp737
sg63
g399
sg56
(lp738
g49
(g70
g51
NtRp739
(dp740
g54
(dp741
g74
g75
ssg63
g735
sg56
(lp742
S'is_jython'
p743
asbag49
(g70
g51
NtRp744
(dp745
g54
(dp746
g81
g82
ssg63
g735
sg56
(lp747
S':'
asbag49
(g70
g51
NtRp748
(dp749
g54
(dp750
sg63
g735
sg56
(lp751
g49
(g50
g51
NtRp752
(dp753
g54
(dp754
g62
I4
ssg63
g748
sg56
(lp755
g92
asbasbasbag49
(g65
g51
NtRp756
(dp757
g54
(dp758
sg63
g399
sg56
(lp759
g49
(g70
g51
NtRp760
(dp761
g54
(dp762
g74
g75
ssg63
g756
sg56
(lp763
S'is_pypy'
p764
asbag49
(g70
g51
NtRp765
(dp766
g54
(dp767
g81
g82
ssg63
g756
sg56
(lp768
S':'
asbag49
(g70
g51
NtRp769
(dp770
g54
(dp771
sg63
g756
sg56
(lp772
g49
(g50
g51
NtRp773
(dp774
g54
(dp775
g62
I4
ssg63
g769
sg56
(lp776
g92
asbasbasbag49
(g65
g51
NtRp777
(dp778
g54
(dp779
sg63
g399
sg56
(lp780
g49
(g70
g51
NtRp781
(dp782
g54
(dp783
g74
g75
ssg63
g777
sg56
(lp784
S'path_info'
p785
asbag49
(g70
g51
NtRp786
(dp787
g54
(dp788
g81
g82
ssg63
g777
sg56
(lp789
S':'
asbag49
(g70
g51
NtRp790
(dp791
g54
(dp792
sg63
g777
sg56
(lp793
g49
(g50
g51
NtRp794
(dp795
g54
(dp796
g62
I4
ssg63
g790
sg56
(lp797
S'/parleyweb/default/mostrar/71'
p798
asbasbasbag49
(g65
g51
NtRp799
(dp800
g54
(dp801
sg63
g399
sg56
(lp802
g49
(g70
g51
NtRp803
(dp804
g54
(dp805
g74
g75
ssg63
g799
sg56
(lp806
S'query_string'
p807
asbag49
(g70
g51
NtRp808
(dp809
g54
(dp810
g81
g82
ssg63
g799
sg56
(lp811
S':'
asbag49
(g70
g51
NtRp812
(dp813
g54
(dp814
sg63
g799
sg56
(lp815
g49
(g50
g51
NtRp816
(dp817
g54
(dp818
g62
I4
ssg63
g812
sg56
(lp819
S''
asbasbasbag49
(g65
g51
NtRp820
(dp821
g54
(dp822
sg63
g399
sg56
(lp823
g49
(g70
g51
NtRp824
(dp825
g54
(dp826
g74
g75
ssg63
g820
sg56
(lp827
S'remote_addr'
p828
asbag49
(g70
g51
NtRp829
(dp830
g54
(dp831
g81
g82
ssg63
g820
sg56
(lp832
S':'
asbag49
(g70
g51
NtRp833
(dp834
g54
(dp835
sg63
g820
sg56
(lp836
g49
(g50
g51
NtRp837
(dp838
g54
(dp839
g62
I4
ssg63
g833
sg56
(lp840
g158
asbasbasbag49
(g65
g51
NtRp841
(dp842
g54
(dp843
sg63
g399
sg56
(lp844
g49
(g70
g51
NtRp845
(dp846
g54
(dp847
g74
g75
ssg63
g841
sg56
(lp848
S'remote_port'
p849
asbag49
(g70
g51
NtRp850
(dp851
g54
(dp852
g81
g82
ssg63
g841
sg56
(lp853
S':'
asbag49
(g70
g51
NtRp854
(dp855
g54
(dp856
sg63
g841
sg56
(lp857
g49
(g50
g51
NtRp858
(dp859
g54
(dp860
g62
I4
ssg63
g854
sg56
(lp861
S'49657'
p862
asbasbasbag49
(g65
g51
NtRp863
(dp864
g54
(dp865
sg63
g399
sg56
(lp866
g49
(g70
g51
NtRp867
(dp868
g54
(dp869
g74
g75
ssg63
g863
sg56
(lp870
S'request_method'
p871
asbag49
(g70
g51
NtRp872
(dp873
g54
(dp874
g81
g82
ssg63
g863
sg56
(lp875
S':'
asbag49
(g70
g51
NtRp876
(dp877
g54
(dp878
sg63
g863
sg56
(lp879
g49
(g50
g51
NtRp880
(dp881
g54
(dp882
g62
I4
ssg63
g876
sg56
(lp883
S'GET'
p884
asbasbasbag49
(g65
g51
NtRp885
(dp886
g54
(dp887
sg63
g399
sg56
(lp888
g49
(g70
g51
NtRp889
(dp890
g54
(dp891
g74
g75
ssg63
g885
sg56
(lp892
S'request_uri'
p893
asbag49
(g70
g51
NtRp894
(dp895
g54
(dp896
g81
g82
ssg63
g885
sg56
(lp897
S':'
asbag49
(g70
g51
NtRp898
(dp899
g54
(dp900
sg63
g885
sg56
(lp901
g49
(g50
g51
NtRp902
(dp903
g54
(dp904
g62
I4
ssg63
g898
sg56
(lp905
g798
asbasbasbag49
(g65
g51
NtRp906
(dp907
g54
(dp908
sg63
g399
sg56
(lp909
g49
(g70
g51
NtRp910
(dp911
g54
(dp912
g74
g75
ssg63
g906
sg56
(lp913
S'script_name'
p914
asbag49
(g70
g51
NtRp915
(dp916
g54
(dp917
g81
g82
ssg63
g906
sg56
(lp918
S':'
asbag49
(g70
g51
NtRp919
(dp920
g54
(dp921
sg63
g906
sg56
(lp922
g49
(g50
g51
NtRp923
(dp924
g54
(dp925
g62
I4
ssg63
g919
sg56
(lp926
S''
asbasbasbag49
(g65
g51
NtRp927
(dp928
g54
(dp929
sg63
g399
sg56
(lp930
g49
(g70
g51
NtRp931
(dp932
g54
(dp933
g74
g75
ssg63
g927
sg56
(lp934
S'server_name'
p935
asbag49
(g70
g51
NtRp936
(dp937
g54
(dp938
g81
g82
ssg63
g927
sg56
(lp939
S':'
asbag49
(g70
g51
NtRp940
(dp941
g54
(dp942
sg63
g927
sg56
(lp943
g49
(g50
g51
NtRp944
(dp945
g54
(dp946
g62
I4
ssg63
g940
sg56
(lp947
S'craxsnet-PC'
p948
asbasbasbag49
(g65
g51
NtRp949
(dp950
g54
(dp951
sg63
g399
sg56
(lp952
g49
(g70
g51
NtRp953
(dp954
g54
(dp955
g74
g75
ssg63
g949
sg56
(lp956
S'server_port'
p957
asbag49
(g70
g51
NtRp958
(dp959
g54
(dp960
g81
g82
ssg63
g949
sg56
(lp961
S':'
asbag49
(g70
g51
NtRp962
(dp963
g54
(dp964
sg63
g949
sg56
(lp965
g49
(g50
g51
NtRp966
(dp967
g54
(dp968
g62
I4
ssg63
g962
sg56
(lp969
S'8000'
p970
asbasbasbag49
(g65
g51
NtRp971
(dp972
g54
(dp973
sg63
g399
sg56
(lp974
g49
(g70
g51
NtRp975
(dp976
g54
(dp977
g74
g75
ssg63
g971
sg56
(lp978
S'server_protocol'
p979
asbag49
(g70
g51
NtRp980
(dp981
g54
(dp982
g81
g82
ssg63
g971
sg56
(lp983
S':'
asbag49
(g70
g51
NtRp984
(dp985
g54
(dp986
sg63
g971
sg56
(lp987
g49
(g50
g51
NtRp988
(dp989
g54
(dp990
g62
I4
ssg63
g984
sg56
(lp991
S'HTTP/1.1'
p992
asbasbasbag49
(g65
g51
NtRp993
(dp994
g54
(dp995
sg63
g399
sg56
(lp996
g49
(g70
g51
NtRp997
(dp998
g54
(dp999
g74
g75
ssg63
g993
sg56
(lp1000
S'server_software'
p1001
asbag49
(g70
g51
NtRp1002
(dp1003
g54
(dp1004
g81
g82
ssg63
g993
sg56
(lp1005
S':'
asbag49
(g70
g51
NtRp1006
(dp1007
g54
(dp1008
sg63
g993
sg56
(lp1009
g49
(g50
g51
NtRp1010
(dp1011
g54
(dp1012
g62
I4
ssg63
g1006
sg56
(lp1013
S'Rocket 1.2.4'
p1014
asbasbasbag49
(g65
g51
NtRp1015
(dp1016
g54
(dp1017
sg63
g399
sg56
(lp1018
g49
(g70
g51
NtRp1019
(dp1020
g54
(dp1021
g74
g75
ssg63
g1015
sg56
(lp1022
S'web2py_crontype'
p1023
asbag49
(g70
g51
NtRp1024
(dp1025
g54
(dp1026
g81
g82
ssg63
g1015
sg56
(lp1027
S':'
asbag49
(g70
g51
NtRp1028
(dp1029
g54
(dp1030
sg63
g1015
sg56
(lp1031
g49
(g50
g51
NtRp1032
(dp1033
g54
(dp1034
g62
I4
ssg63
g1028
sg56
(lp1035
S'hard'
p1036
asbasbasbag49
(g65
g51
NtRp1037
(dp1038
g54
(dp1039
sg63
g399
sg56
(lp1040
g49
(g70
g51
NtRp1041
(dp1042
g54
(dp1043
g74
g75
ssg63
g1037
sg56
(lp1044
S'web2py_original_uri'
p1045
asbag49
(g70
g51
NtRp1046
(dp1047
g54
(dp1048
g81
g82
ssg63
g1037
sg56
(lp1049
S':'
asbag49
(g70
g51
NtRp1050
(dp1051
g54
(dp1052
sg63
g1037
sg56
(lp1053
g49
(g50
g51
NtRp1054
(dp1055
g54
(dp1056
g62
I4
ssg63
g1050
sg56
(lp1057
S'/parleyweb/default/mostrar/71'
p1058
asbasbasbag49
(g65
g51
NtRp1059
(dp1060
g54
(dp1061
sg63
g399
sg56
(lp1062
g49
(g70
g51
NtRp1063
(dp1064
g54
(dp1065
g74
g75
ssg63
g1059
sg56
(lp1066
S'web2py_path'
p1067
asbag49
(g70
g51
NtRp1068
(dp1069
g54
(dp1070
g81
g82
ssg63
g1059
sg56
(lp1071
S':'
asbag49
(g70
g51
NtRp1072
(dp1073
g54
(dp1074
sg63
g1059
sg56
(lp1075
g49
(g50
g51
NtRp1076
(dp1077
g54
(dp1078
g62
I4
ssg63
g1072
sg56
(lp1079
g446
asbasbasbag49
(g65
g51
NtRp1080
(dp1081
g54
(dp1082
sg63
g399
sg56
(lp1083
g49
(g70
g51
NtRp1084
(dp1085
g54
(dp1086
g74
g75
ssg63
g1080
sg56
(lp1087
S'web2py_version'
p1088
asbag49
(g70
g51
NtRp1089
(dp1090
g54
(dp1091
g81
g82
ssg63
g1080
sg56
(lp1092
S':'
asbag49
(g70
g51
NtRp1093
(dp1094
g54
(dp1095
sg63
g1080
sg56
(lp1096
g49
(g50
g51
NtRp1097
(dp1098
g54
(dp1099
g62
I4
ssg63
g1093
sg56
(lp1100
g49
(g58
g51
NtRp1101
(dp1102
g54
(dp1103
g62
I3
ssg63
Nsg56
(lp1104
g49
(g65
g51
NtRp1105
(dp1106
g54
(dp1107
sg63
g1101
sg56
(lp1108
g49
(g70
g51
NtRp1109
(dp1110
g54
(dp1111
sg63
g1105
sg56
(lp1112
g49
(g50
g51
NtRp1113
(dp1114
g54
(dp1115
g62
I3
ssg63
g1109
sg56
(lp1116
S'1'
asbasbasbag49
(g65
g51
NtRp1117
(dp1118
g54
(dp1119
sg63
g1101
sg56
(lp1120
g49
(g70
g51
NtRp1121
(dp1122
g54
(dp1123
sg63
g1117
sg56
(lp1124
g49
(g50
g51
NtRp1125
(dp1126
g54
(dp1127
g62
I3
ssg63
g1121
sg56
(lp1128
S'99'
p1129
asbasbasbag49
(g65
g51
NtRp1130
(dp1131
g54
(dp1132
sg63
g1101
sg56
(lp1133
g49
(g70
g51
NtRp1134
(dp1135
g54
(dp1136
sg63
g1130
sg56
(lp1137
g49
(g50
g51
NtRp1138
(dp1139
g54
(dp1140
g62
I3
ssg63
g1134
sg56
(lp1141
S'7'
asbasbasbag49
(g65
g51
NtRp1142
(dp1143
g54
(dp1144
sg63
g1101
sg56
(lp1145
g49
(g70
g51
NtRp1146
(dp1147
g54
(dp1148
sg63
g1142
sg56
(lp1149
g49
(g50
g51
NtRp1150
(dp1151
g54
(dp1152
g62
I3
ssg63
g1146
sg56
(lp1153
S'datetime.datetime(2012, 3, 4, 22, 12, 8)'
p1154
asbasbasbag49
(g65
g51
NtRp1155
(dp1156
g54
(dp1157
sg63
g1101
sg56
(lp1158
g49
(g70
g51
NtRp1159
(dp1160
g54
(dp1161
sg63
g1155
sg56
(lp1162
g49
(g50
g51
NtRp1163
(dp1164
g54
(dp1165
g62
I3
ssg63
g1159
sg56
(lp1166
S'stable'
p1167
asbasbasbasbasbasbasbag49
(g65
g51
NtRp1168
(dp1169
g54
(dp1170
sg63
g399
sg56
(lp1171
g49
(g70
g51
NtRp1172
(dp1173
g54
(dp1174
g74
g75
ssg63
g1168
sg56
(lp1175
S'wsgi_errors'
p1176
asbag49
(g70
g51
NtRp1177
(dp1178
g54
(dp1179
g81
g82
ssg63
g1168
sg56
(lp1180
S':'
asbag49
(g70
g51
NtRp1181
(dp1182
g54
(dp1183
sg63
g1168
sg56
(lp1184
g49
(g50
g51
NtRp1185
(dp1186
g54
(dp1187
g62
I4
ssg63
g1181
sg56
(lp1188
S"<open file '<stderr>', mode 'w' at 0x004900B0>"
p1189
asbasbasbag49
(g65
g51
NtRp1190
(dp1191
g54
(dp1192
sg63
g399
sg56
(lp1193
g49
(g70
g51
NtRp1194
(dp1195
g54
(dp1196
g74
g75
ssg63
g1190
sg56
(lp1197
S'wsgi_file_wrapper'
p1198
asbag49
(g70
g51
NtRp1199
(dp1200
g54
(dp1201
g81
g82
ssg63
g1190
sg56
(lp1202
S':'
asbag49
(g70
g51
NtRp1203
(dp1204
g54
(dp1205
sg63
g1190
sg56
(lp1206
g49
(g50
g51
NtRp1207
(dp1208
g54
(dp1209
g62
I4
ssg63
g1203
sg56
(lp1210
S'<class wsgiref.util.FileWrapper at 0x02EC5390>'
p1211
asbasbasbag49
(g65
g51
NtRp1212
(dp1213
g54
(dp1214
sg63
g399
sg56
(lp1215
g49
(g70
g51
NtRp1216
(dp1217
g54
(dp1218
g74
g75
ssg63
g1212
sg56
(lp1219
S'wsgi_input'
p1220
asbag49
(g70
g51
NtRp1221
(dp1222
g54
(dp1223
g81
g82
ssg63
g1212
sg56
(lp1224
S':'
asbag49
(g70
g51
NtRp1225
(dp1226
g54
(dp1227
sg63
g1212
sg56
(lp1228
g49
(g50
g51
NtRp1229
(dp1230
g54
(dp1231
g62
I4
ssg63
g1225
sg56
(lp1232
S'<socket._fileobject object at 0x032BCF70>'
p1233
asbasbasbag49
(g65
g51
NtRp1234
(dp1235
g54
(dp1236
sg63
g399
sg56
(lp1237
g49
(g70
g51
NtRp1238
(dp1239
g54
(dp1240
g74
g75
ssg63
g1234
sg56
(lp1241
S'wsgi_multiprocess'
p1242
asbag49
(g70
g51
NtRp1243
(dp1244
g54
(dp1245
g81
g82
ssg63
g1234
sg56
(lp1246
S':'
asbag49
(g70
g51
NtRp1247
(dp1248
g54
(dp1249
sg63
g1234
sg56
(lp1250
g49
(g50
g51
NtRp1251
(dp1252
g54
(dp1253
g62
I4
ssg63
g1247
sg56
(lp1254
g92
asbasbasbag49
(g65
g51
NtRp1255
(dp1256
g54
(dp1257
sg63
g399
sg56
(lp1258
g49
(g70
g51
NtRp1259
(dp1260
g54
(dp1261
g74
g75
ssg63
g1255
sg56
(lp1262
S'wsgi_multithread'
p1263
asbag49
(g70
g51
NtRp1264
(dp1265
g54
(dp1266
g81
g82
ssg63
g1255
sg56
(lp1267
S':'
asbag49
(g70
g51
NtRp1268
(dp1269
g54
(dp1270
sg63
g1255
sg56
(lp1271
g49
(g50
g51
NtRp1272
(dp1273
g54
(dp1274
g62
I4
ssg63
g1268
sg56
(lp1275
S'True'
p1276
asbasbasbag49
(g65
g51
NtRp1277
(dp1278
g54
(dp1279
sg63
g399
sg56
(lp1280
g49
(g70
g51
NtRp1281
(dp1282
g54
(dp1283
g74
g75
ssg63
g1277
sg56
(lp1284
S'wsgi_run_once'
p1285
asbag49
(g70
g51
NtRp1286
(dp1287
g54
(dp1288
g81
g82
ssg63
g1277
sg56
(lp1289
S':'
asbag49
(g70
g51
NtRp1290
(dp1291
g54
(dp1292
sg63
g1277
sg56
(lp1293
g49
(g50
g51
NtRp1294
(dp1295
g54
(dp1296
g62
I4
ssg63
g1290
sg56
(lp1297
g92
asbasbasbag49
(g65
g51
NtRp1298
(dp1299
g54
(dp1300
sg63
g399
sg56
(lp1301
g49
(g70
g51
NtRp1302
(dp1303
g54
(dp1304
g74
g75
ssg63
g1298
sg56
(lp1305
S'wsgi_url_scheme'
p1306
asbag49
(g70
g51
NtRp1307
(dp1308
g54
(dp1309
g81
g82
ssg63
g1298
sg56
(lp1310
S':'
asbag49
(g70
g51
NtRp1311
(dp1312
g54
(dp1313
sg63
g1298
sg56
(lp1314
g49
(g50
g51
NtRp1315
(dp1316
g54
(dp1317
g62
I4
ssg63
g1311
sg56
(lp1318
S'http'
p1319
asbasbasbag49
(g65
g51
NtRp1320
(dp1321
g54
(dp1322
sg63
g399
sg56
(lp1323
g49
(g70
g51
NtRp1324
(dp1325
g54
(dp1326
g74
g75
ssg63
g1320
sg56
(lp1327
S'wsgi_version'
p1328
asbag49
(g70
g51
NtRp1329
(dp1330
g54
(dp1331
g81
g82
ssg63
g1320
sg56
(lp1332
S':'
asbag49
(g70
g51
NtRp1333
(dp1334
g54
(dp1335
sg63
g1320
sg56
(lp1336
g49
(g50
g51
NtRp1337
(dp1338
g54
(dp1339
g62
I4
ssg63
g1333
sg56
(lp1340
g49
(g58
g51
NtRp1341
(dp1342
g54
(dp1343
g62
I3
ssg63
Nsg56
(lp1344
g49
(g65
g51
NtRp1345
(dp1346
g54
(dp1347
sg63
g1341
sg56
(lp1348
g49
(g70
g51
NtRp1349
(dp1350
g54
(dp1351
sg63
g1345
sg56
(lp1352
g49
(g50
g51
NtRp1353
(dp1354
g54
(dp1355
g62
I3
ssg63
g1349
sg56
(lp1356
S'1'
asbasbasbag49
(g65
g51
NtRp1357
(dp1358
g54
(dp1359
sg63
g1341
sg56
(lp1360
g49
(g70
g51
NtRp1361
(dp1362
g54
(dp1363
sg63
g1357
sg56
(lp1364
g49
(g50
g51
NtRp1365
(dp1366
g54
(dp1367
g62
I3
ssg63
g1361
sg56
(lp1368
S'0'
asbasbasbasbasbasbasbasbasbasbasbag49
(g65
g51
NtRp1369
(dp1370
g54
(dp1371
sg63
g59
sg56
(lp1372
g49
(g70
g51
NtRp1373
(dp1374
g54
(dp1375
g74
g75
ssg63
g1369
sg56
(lp1376
S'extension'
p1377
asbag49
(g70
g51
NtRp1378
(dp1379
g54
(dp1380
g81
g82
ssg63
g1369
sg56
(lp1381
S':'
asbag49
(g70
g51
NtRp1382
(dp1383
g54
(dp1384
sg63
g1369
sg56
(lp1385
g49
(g50
g51
NtRp1386
(dp1387
g54
(dp1388
g62
I5
ssg63
g1382
sg56
(lp1389
S'html'
p1390
asbasbasbag49
(g65
g51
NtRp1391
(dp1392
g54
(dp1393
sg63
g59
sg56
(lp1394
g49
(g70
g51
NtRp1395
(dp1396
g54
(dp1397
g74
g75
ssg63
g1391
sg56
(lp1398
S'folder'
p1399
asbag49
(g70
g51
NtRp1400
(dp1401
g54
(dp1402
g81
g82
ssg63
g1391
sg56
(lp1403
S':'
asbag49
(g70
g51
NtRp1404
(dp1405
g54
(dp1406
sg63
g1391
sg56
(lp1407
g49
(g50
g51
NtRp1408
(dp1409
g54
(dp1410
g62
I5
ssg63
g1404
sg56
(lp1411
S'D:\\Dise\xf1o Web\\Proyectos\\Parleyweb\\web2py\\applications\\parleyweb\\'
p1412
asbasbasbag49
(g65
g51
NtRp1413
(dp1414
g54
(dp1415
sg63
g59
sg56
(lp1416
g49
(g70
g51
NtRp1417
(dp1418
g54
(dp1419
g74
g75
ssg63
g1413
sg56
(lp1420
S'function'
p1421
asbag49
(g70
g51
NtRp1422
(dp1423
g54
(dp1424
g81
g82
ssg63
g1413
sg56
(lp1425
S':'
asbag49
(g70
g51
NtRp1426
(dp1427
g54
(dp1428
sg63
g1413
sg56
(lp1429
g49
(g50
g51
NtRp1430
(dp1431
g54
(dp1432
g62
I5
ssg63
g1426
sg56
(lp1433
S'mostrar'
p1434
asbasbasbag49
(g65
g51
NtRp1435
(dp1436
g54
(dp1437
sg63
g59
sg56
(lp1438
g49
(g70
g51
NtRp1439
(dp1440
g54
(dp1441
g74
g75
ssg63
g1435
sg56
(lp1442
S'get_vars'
p1443
asbag49
(g70
g51
NtRp1444
(dp1445
g54
(dp1446
g81
g82
ssg63
g1435
sg56
(lp1447
S':'
asbag49
(g70
g51
NtRp1448
(dp1449
g54
(dp1450
sg63
g1435
sg56
(lp1451
g49
(g50
g51
NtRp1452
(dp1453
g54
(dp1454
g62
I5
ssg63
g1448
sg56
(lp1455
g49
(g58
g51
NtRp1456
(dp1457
g54
(dp1458
g62
I4
ssg63
Nsg56
(lp1459
sbasbasbasbag49
(g65
g51
NtRp1460
(dp1461
g54
(dp1462
sg63
g59
sg56
(lp1463
g49
(g70
g51
NtRp1464
(dp1465
g54
(dp1466
g74
g75
ssg63
g1460
sg56
(lp1467
S'global_settings'
p1468
asbag49
(g70
g51
NtRp1469
(dp1470
g54
(dp1471
g81
g82
ssg63
g1460
sg56
(lp1472
S':'
asbag49
(g70
g51
NtRp1473
(dp1474
g54
(dp1475
sg63
g1460
sg56
(lp1476
g49
(g50
g51
NtRp1477
(dp1478
g54
(dp1479
g62
I5
ssg63
g1473
sg56
(lp1480
g49
(g58
g51
NtRp1481
(dp1482
g54
(dp1483
g62
I4
ssg63
Nsg56
(lp1484
g49
(g65
g51
NtRp1485
(dp1486
g54
(dp1487
sg63
g1481
sg56
(lp1488
g49
(g70
g51
NtRp1489
(dp1490
g54
(dp1491
g74
g75
ssg63
g1485
sg56
(lp1492
g411
asbag49
(g70
g51
NtRp1493
(dp1494
g54
(dp1495
g81
g82
ssg63
g1485
sg56
(lp1496
S':'
asbag49
(g70
g51
NtRp1497
(dp1498
g54
(dp1499
sg63
g1485
sg56
(lp1500
g49
(g50
g51
NtRp1501
(dp1502
g54
(dp1503
g62
I4
ssg63
g1497
sg56
(lp1504
S"set(['D:\\\\Dise\\xf1o Web\\\\Proyectos\\\\Parleyweb\\\\web2py\\\\applications\\\\parleyweb\\\\'])"
p1505
asbasbasbag49
(g65
g51
NtRp1506
(dp1507
g54
(dp1508
sg63
g1481
sg56
(lp1509
g49
(g70
g51
NtRp1510
(dp1511
g54
(dp1512
g74
g75
ssg63
g1506
sg56
(lp1513
g433
asbag49
(g70
g51
NtRp1514
(dp1515
g54
(dp1516
g81
g82
ssg63
g1506
sg56
(lp1517
S':'
asbag49
(g70
g51
NtRp1518
(dp1519
g54
(dp1520
sg63
g1506
sg56
(lp1521
g49
(g50
g51
NtRp1522
(dp1523
g54
(dp1524
g62
I4
ssg63
g1518
sg56
(lp1525
g446
asbasbasbag49
(g65
g51
NtRp1526
(dp1527
g54
(dp1528
sg63
g1481
sg56
(lp1529
g49
(g70
g51
NtRp1530
(dp1531
g54
(dp1532
g74
g75
ssg63
g1526
sg56
(lp1533
g455
asbag49
(g70
g51
NtRp1534
(dp1535
g54
(dp1536
g81
g82
ssg63
g1526
sg56
(lp1537
S':'
asbag49
(g70
g51
NtRp1538
(dp1539
g54
(dp1540
sg63
g1526
sg56
(lp1541
g49
(g50
g51
NtRp1542
(dp1543
g54
(dp1544
g62
I4
ssg63
g1538
sg56
(lp1545
g49
(g58
g51
NtRp1546
(dp1547
g54
(dp1548
g62
I3
ssg63
Nsg56
(lp1549
sbasbasbasbag49
(g65
g51
NtRp1550
(dp1551
g54
(dp1552
sg63
g1481
sg56
(lp1553
g49
(g70
g51
NtRp1554
(dp1555
g54
(dp1556
g74
g75
ssg63
g1550
sg56
(lp1557
g480
asbag49
(g70
g51
NtRp1558
(dp1559
g54
(dp1560
g81
g82
ssg63
g1550
sg56
(lp1561
S':'
asbag49
(g70
g51
NtRp1562
(dp1563
g54
(dp1564
sg63
g1550
sg56
(lp1565
g49
(g50
g51
NtRp1566
(dp1567
g54
(dp1568
g62
I4
ssg63
g1562
sg56
(lp1569
S"<Values at 0x30d4238: {'verbose': False, 'ip': '127.0.0.1', 'shutdown_timeout': 5, 'taskbar': False, 'nocron': False, 'pid_filename': 'httpserver.pid', 'maxthreads': None, 'softcron': False, 'server_name': 'craxsnet-PC', 'bpython': False, 'nogui': False, 'port': 8000, 'extcron': False, 'debuglevel': 30, 'test': None, 'folder': 'D:\\\\Dise\\xf1o Web\\\\Proyectos\\\\Parleyweb\\\\web2py', 'config': '', 'import_models': False, 'winservice': '', 'shell': None, 'run': '', 'log_filename': 'httpserver.log', 'args': [''], 'socket_timeout': 5, 'ssl_ca_certificate': None, 'scheduler': None, 'profiler_filename': None, 'ssl_private_key': '', 'password': '<ask>', 'request_queue_size': 5, 'ssl_certificate': '', 'cronjob': False, 'numthreads': None, 'quiet': False, 'interfaces': None, 'minthreads': None, 'timeout': 10, 'plain': False, 'nobanner': False}>"
p1570
asbasbasbag49
(g65
g51
NtRp1571
(dp1572
g54
(dp1573
sg63
g1481
sg56
(lp1574
g49
(g70
g51
NtRp1575
(dp1576
g54
(dp1577
g74
g75
ssg63
g1571
sg56
(lp1578
g502
asbag49
(g70
g51
NtRp1579
(dp1580
g54
(dp1581
g81
g82
ssg63
g1571
sg56
(lp1582
S':'
asbag49
(g70
g51
NtRp1583
(dp1584
g54
(dp1585
sg63
g1571
sg56
(lp1586
g49
(g50
g51
NtRp1587
(dp1588
g54
(dp1589
g62
I4
ssg63
g1583
sg56
(lp1590
S'set([])'
p1591
asbasbasbag49
(g65
g51
NtRp1592
(dp1593
g54
(dp1594
sg63
g1481
sg56
(lp1595
g49
(g70
g51
NtRp1596
(dp1597
g54
(dp1598
g74
g75
ssg63
g1592
sg56
(lp1599
g524
asbag49
(g70
g51
NtRp1600
(dp1601
g54
(dp1602
g81
g82
ssg63
g1592
sg56
(lp1603
S':'
asbag49
(g70
g51
NtRp1604
(dp1605
g54
(dp1606
sg63
g1592
sg56
(lp1607
g49
(g50
g51
NtRp1608
(dp1609
g54
(dp1610
g62
I4
ssg63
g1604
sg56
(lp1611
g92
asbasbasbag49
(g65
g51
NtRp1612
(dp1613
g54
(dp1614
sg63
g1481
sg56
(lp1615
g49
(g70
g51
NtRp1616
(dp1617
g54
(dp1618
g74
g75
ssg63
g1612
sg56
(lp1619
g545
asbag49
(g70
g51
NtRp1620
(dp1621
g54
(dp1622
g81
g82
ssg63
g1612
sg56
(lp1623
S':'
asbag49
(g70
g51
NtRp1624
(dp1625
g54
(dp1626
sg63
g1612
sg56
(lp1627
g49
(g50
g51
NtRp1628
(dp1629
g54
(dp1630
g62
I4
ssg63
g1624
sg56
(lp1631
g558
asbasbasbag49
(g65
g51
NtRp1632
(dp1633
g54
(dp1634
sg63
g1481
sg56
(lp1635
g49
(g70
g51
NtRp1636
(dp1637
g54
(dp1638
g74
g75
ssg63
g1632
sg56
(lp1639
g743
asbag49
(g70
g51
NtRp1640
(dp1641
g54
(dp1642
g81
g82
ssg63
g1632
sg56
(lp1643
S':'
asbag49
(g70
g51
NtRp1644
(dp1645
g54
(dp1646
sg63
g1632
sg56
(lp1647
g49
(g50
g51
NtRp1648
(dp1649
g54
(dp1650
g62
I4
ssg63
g1644
sg56
(lp1651
g92
asbasbasbag49
(g65
g51
NtRp1652
(dp1653
g54
(dp1654
sg63
g1481
sg56
(lp1655
g49
(g70
g51
NtRp1656
(dp1657
g54
(dp1658
g74
g75
ssg63
g1652
sg56
(lp1659
g764
asbag49
(g70
g51
NtRp1660
(dp1661
g54
(dp1662
g81
g82
ssg63
g1652
sg56
(lp1663
S':'
asbag49
(g70
g51
NtRp1664
(dp1665
g54
(dp1666
sg63
g1652
sg56
(lp1667
g49
(g50
g51
NtRp1668
(dp1669
g54
(dp1670
g62
I4
ssg63
g1664
sg56
(lp1671
g92
asbasbasbag49
(g65
g51
NtRp1672
(dp1673
g54
(dp1674
sg63
g1481
sg56
(lp1675
g49
(g70
g51
NtRp1676
(dp1677
g54
(dp1678
g74
g75
ssg63
g1672
sg56
(lp1679
g1023
asbag49
(g70
g51
NtRp1680
(dp1681
g54
(dp1682
g81
g82
ssg63
g1672
sg56
(lp1683
S':'
asbag49
(g70
g51
NtRp1684
(dp1685
g54
(dp1686
sg63
g1672
sg56
(lp1687
g49
(g50
g51
NtRp1688
(dp1689
g54
(dp1690
g62
I4
ssg63
g1684
sg56
(lp1691
g1036
asbasbasbag49
(g65
g51
NtRp1692
(dp1693
g54
(dp1694
sg63
g1481
sg56
(lp1695
g49
(g70
g51
NtRp1696
(dp1697
g54
(dp1698
g74
g75
ssg63
g1692
sg56
(lp1699
g1088
asbag49
(g70
g51
NtRp1700
(dp1701
g54
(dp1702
g81
g82
ssg63
g1692
sg56
(lp1703
S':'
asbag49
(g70
g51
NtRp1704
(dp1705
g54
(dp1706
sg63
g1692
sg56
(lp1707
g49
(g50
g51
NtRp1708
(dp1709
g54
(dp1710
g62
I4
ssg63
g1704
sg56
(lp1711
g49
(g58
g51
NtRp1712
(dp1713
g54
(dp1714
g62
I3
ssg63
Nsg56
(lp1715
g49
(g65
g51
NtRp1716
(dp1717
g54
(dp1718
sg63
g1712
sg56
(lp1719
g49
(g70
g51
NtRp1720
(dp1721
g54
(dp1722
sg63
g1716
sg56
(lp1723
g49
(g50
g51
NtRp1724
(dp1725
g54
(dp1726
g62
I3
ssg63
g1720
sg56
(lp1727
S'1'
asbasbasbag49
(g65
g51
NtRp1728
(dp1729
g54
(dp1730
sg63
g1712
sg56
(lp1731
g49
(g70
g51
NtRp1732
(dp1733
g54
(dp1734
sg63
g1728
sg56
(lp1735
g49
(g50
g51
NtRp1736
(dp1737
g54
(dp1738
g62
I3
ssg63
g1732
sg56
(lp1739
S'99'
p1740
asbasbasbag49
(g65
g51
NtRp1741
(dp1742
g54
(dp1743
sg63
g1712
sg56
(lp1744
g49
(g70
g51
NtRp1745
(dp1746
g54
(dp1747
sg63
g1741
sg56
(lp1748
g49
(g50
g51
NtRp1749
(dp1750
g54
(dp1751
g62
I3
ssg63
g1745
sg56
(lp1752
S'7'
asbasbasbag49
(g65
g51
NtRp1753
(dp1754
g54
(dp1755
sg63
g1712
sg56
(lp1756
g49
(g70
g51
NtRp1757
(dp1758
g54
(dp1759
sg63
g1753
sg56
(lp1760
g49
(g50
g51
NtRp1761
(dp1762
g54
(dp1763
g62
I3
ssg63
g1757
sg56
(lp1764
S'datetime.datetime(2012, 3, 4, 22, 12, 8)'
p1765
asbasbasbag49
(g65
g51
NtRp1766
(dp1767
g54
(dp1768
sg63
g1712
sg56
(lp1769
g49
(g70
g51
NtRp1770
(dp1771
g54
(dp1772
sg63
g1766
sg56
(lp1773
g49
(g50
g51
NtRp1774
(dp1775
g54
(dp1776
g62
I3
ssg63
g1770
sg56
(lp1777
g1167
asbasbasbasbasbasbasbasbasbasbasbag49
(g65
g51
NtRp1778
(dp1779
g54
(dp1780
sg63
g59
sg56
(lp1781
g49
(g70
g51
NtRp1782
(dp1783
g54
(dp1784
g74
g75
ssg63
g1778
sg56
(lp1785
S'is_https'
p1786
asbag49
(g70
g51
NtRp1787
(dp1788
g54
(dp1789
g81
g82
ssg63
g1778
sg56
(lp1790
S':'
asbag49
(g70
g51
NtRp1791
(dp1792
g54
(dp1793
sg63
g1778
sg56
(lp1794
g49
(g50
g51
NtRp1795
(dp1796
g54
(dp1797
g62
I5
ssg63
g1791
sg56
(lp1798
g92
asbasbasbag49
(g65
g51
NtRp1799
(dp1800
g54
(dp1801
sg63
g59
sg56
(lp1802
g49
(g70
g51
NtRp1803
(dp1804
g54
(dp1805
g74
g75
ssg63
g1799
sg56
(lp1806
S'is_local'
p1807
asbag49
(g70
g51
NtRp1808
(dp1809
g54
(dp1810
g81
g82
ssg63
g1799
sg56
(lp1811
S':'
asbag49
(g70
g51
NtRp1812
(dp1813
g54
(dp1814
sg63
g1799
sg56
(lp1815
g49
(g50
g51
NtRp1816
(dp1817
g54
(dp1818
g62
I5
ssg63
g1812
sg56
(lp1819
g1276
asbasbasbag49
(g65
g51
NtRp1820
(dp1821
g54
(dp1822
sg63
g59
sg56
(lp1823
g49
(g70
g51
NtRp1824
(dp1825
g54
(dp1826
g74
g75
ssg63
g1820
sg56
(lp1827
S'is_restful'
p1828
asbag49
(g70
g51
NtRp1829
(dp1830
g54
(dp1831
g81
g82
ssg63
g1820
sg56
(lp1832
S':'
asbag49
(g70
g51
NtRp1833
(dp1834
g54
(dp1835
sg63
g1820
sg56
(lp1836
g49
(g50
g51
NtRp1837
(dp1838
g54
(dp1839
g62
I5
ssg63
g1833
sg56
(lp1840
g92
asbasbasbag49
(g65
g51
NtRp1841
(dp1842
g54
(dp1843
sg63
g59
sg56
(lp1844
g49
(g70
g51
NtRp1845
(dp1846
g54
(dp1847
g74
g75
ssg63
g1841
sg56
(lp1848
S'now'
p1849
asbag49
(g70
g51
NtRp1850
(dp1851
g54
(dp1852
g81
g82
ssg63
g1841
sg56
(lp1853
S':'
asbag49
(g70
g51
NtRp1854
(dp1855
g54
(dp1856
sg63
g1841
sg56
(lp1857
g49
(g50
g51
NtRp1858
(dp1859
g54
(dp1860
g62
I5
ssg63
g1854
sg56
(lp1861
S'datetime.datetime(2012, 3, 13, 22, 47, 37, 944000)'
p1862
asbasbasbag49
(g65
g51
NtRp1863
(dp1864
g54
(dp1865
sg63
g59
sg56
(lp1866
g49
(g70
g51
NtRp1867
(dp1868
g54
(dp1869
g74
g75
ssg63
g1863
sg56
(lp1870
S'post_vars'
p1871
asbag49
(g70
g51
NtRp1872
(dp1873
g54
(dp1874
g81
g82
ssg63
g1863
sg56
(lp1875
S':'
asbag49
(g70
g51
NtRp1876
(dp1877
g54
(dp1878
sg63
g1863
sg56
(lp1879
g49
(g50
g51
NtRp1880
(dp1881
g54
(dp1882
g62
I5
ssg63
g1876
sg56
(lp1883
g49
(g58
g51
NtRp1884
(dp1885
g54
(dp1886
g62
I4
ssg63
Nsg56
(lp1887
sbasbasbasbag49
(g65
g51
NtRp1888
(dp1889
g54
(dp1890
sg63
g59
sg56
(lp1891
g49
(g70
g51
NtRp1892
(dp1893
g54
(dp1894
g74
g75
ssg63
g1888
sg56
(lp1895
S'raw_args'
p1896
asbag49
(g70
g51
NtRp1897
(dp1898
g54
(dp1899
g81
g82
ssg63
g1888
sg56
(lp1900
S':'
asbag49
(g70
g51
NtRp1901
(dp1902
g54
(dp1903
sg63
g1888
sg56
(lp1904
g49
(g50
g51
NtRp1905
(dp1906
g54
(dp1907
g62
I5
ssg63
g1901
sg56
(lp1908
S'71'
p1909
asbasbasbag49
(g65
g51
NtRp1910
(dp1911
g54
(dp1912
sg63
g59
sg56
(lp1913
g49
(g70
g51
NtRp1914
(dp1915
g54
(dp1916
g74
g75
ssg63
g1910
sg56
(lp1917
S'url'
p1918
asbag49
(g70
g51
NtRp1919
(dp1920
g54
(dp1921
g81
g82
ssg63
g1910
sg56
(lp1922
S':'
asbag49
(g70
g51
NtRp1923
(dp1924
g54
(dp1925
sg63
g1910
sg56
(lp1926
g49
(g50
g51
NtRp1927
(dp1928
g54
(dp1929
g62
I5
ssg63
g1923
sg56
(lp1930
S'/parleyweb/default/mostrar'
p1931
asbasbasbag49
(g65
g51
NtRp1932
(dp1933
g54
(dp1934
sg63
g59
sg56
(lp1935
g49
(g70
g51
NtRp1936
(dp1937
g54
(dp1938
g74
g75
ssg63
g1932
sg56
(lp1939
S'utcnow'
p1940
asbag49
(g70
g51
NtRp1941
(dp1942
g54
(dp1943
g81
g82
ssg63
g1932
sg56
(lp1944
S':'
asbag49
(g70
g51
NtRp1945
(dp1946
g54
(dp1947
sg63
g1932
sg56
(lp1948
g49
(g50
g51
NtRp1949
(dp1950
g54
(dp1951
g62
I5
ssg63
g1945
sg56
(lp1952
S'datetime.datetime(2012, 3, 13, 21, 47, 37, 944000)'
p1953
asbasbasbag49
(g65
g51
NtRp1954
(dp1955
g54
(dp1956
sg63
g59
sg56
(lp1957
g49
(g70
g51
NtRp1958
(dp1959
g54
(dp1960
g74
g75
ssg63
g1954
sg56
(lp1961
S'uuid'
p1962
asbag49
(g70
g51
NtRp1963
(dp1964
g54
(dp1965
g81
g82
ssg63
g1954
sg56
(lp1966
S':'
asbag49
(g70
g51
NtRp1967
(dp1968
g54
(dp1969
sg63
g1954
sg56
(lp1970
g49
(g50
g51
NtRp1971
(dp1972
g54
(dp1973
g62
I5
ssg63
g1967
sg56
(lp1974
S'parleyweb/127.0.0.1.2012-03-13.22-47-37.92d568bd-3901-4bae-99a3-62757802679d'
p1975
asbasbasbag49
(g65
g51
NtRp1976
(dp1977
g54
(dp1978
sg63
g59
sg56
(lp1979
g49
(g70
g51
NtRp1980
(dp1981
g54
(dp1982
g74
g75
ssg63
g1976
sg56
(lp1983
S'vars'
p1984
asbag49
(g70
g51
NtRp1985
(dp1986
g54
(dp1987
g81
g82
ssg63
g1976
sg56
(lp1988
S':'
asbag49
(g70
g51
NtRp1989
(dp1990
g54
(dp1991
sg63
g1976
sg56
(lp1992
g49
(g50
g51
NtRp1993
(dp1994
g54
(dp1995
g62
I5
ssg63
g1989
sg56
(lp1996
g49
(g58
g51
NtRp1997
(dp1998
g54
(dp1999
g62
I4
ssg63
Nsg56
(lp2000
sbasbasbasbag49
(g65
g51
NtRp2001
(dp2002
g54
(dp2003
sg63
g59
sg56
(lp2004
g49
(g70
g51
NtRp2005
(dp2006
g54
(dp2007
g74
g75
ssg63
g2001
sg56
(lp2008
S'wsgi'
p2009
asbag49
(g70
g51
NtRp2010
(dp2011
g54
(dp2012
g81
g82
ssg63
g2001
sg56
(lp2013
S':'
asbag49
(g70
g51
NtRp2014
(dp2015
g54
(dp2016
sg63
g2001
sg56
(lp2017
g49
(g50
g51
NtRp2018
(dp2019
g54
(dp2020
g62
I5
ssg63
g2014
sg56
(lp2021
g49
(g58
g51
NtRp2022
(dp2023
g54
(dp2024
g62
I4
ssg63
Nsg56
(lp2025
g49
(g65
g51
NtRp2026
(dp2027
g54
(dp2028
sg63
g2022
sg56
(lp2029
g49
(g70
g51
NtRp2030
(dp2031
g54
(dp2032
g74
g75
ssg63
g2026
sg56
(lp2033
S'environ'
p2034
asbag49
(g70
g51
NtRp2035
(dp2036
g54
(dp2037
g81
g82
ssg63
g2026
sg56
(lp2038
S':'
asbag49
(g70
g51
NtRp2039
(dp2040
g54
(dp2041
sg63
g2026
sg56
(lp2042
g49
(g50
g51
NtRp2043
(dp2044
g54
(dp2045
g62
I4
ssg63
g2039
sg56
(lp2046
g49
(g58
g51
NtRp2047
(dp2048
g54
(dp2049
g62
I3
ssg63
Nsg56
(lp2050
g49
(g65
g51
NtRp2051
(dp2052
g54
(dp2053
sg63
g2047
sg56
(lp2054
g49
(g70
g51
NtRp2055
(dp2056
g54
(dp2057
g74
g75
ssg63
g2051
sg56
(lp2058
S'HTTP_ACCEPT'
p2059
asbag49
(g70
g51
NtRp2060
(dp2061
g54
(dp2062
g81
g82
ssg63
g2051
sg56
(lp2063
S':'
asbag49
(g70
g51
NtRp2064
(dp2065
g54
(dp2066
sg63
g2051
sg56
(lp2067
g49
(g50
g51
NtRp2068
(dp2069
g54
(dp2070
g62
I3
ssg63
g2064
sg56
(lp2071
g580
asbasbasbag49
(g65
g51
NtRp2072
(dp2073
g54
(dp2074
sg63
g2047
sg56
(lp2075
g49
(g70
g51
NtRp2076
(dp2077
g54
(dp2078
g74
g75
ssg63
g2072
sg56
(lp2079
S'HTTP_ACCEPT_ENCODING'
p2080
asbag49
(g70
g51
NtRp2081
(dp2082
g54
(dp2083
g81
g82
ssg63
g2072
sg56
(lp2084
S':'
asbag49
(g70
g51
NtRp2085
(dp2086
g54
(dp2087
sg63
g2072
sg56
(lp2088
g49
(g50
g51
NtRp2089
(dp2090
g54
(dp2091
g62
I3
ssg63
g2085
sg56
(lp2092
g602
asbasbasbag49
(g65
g51
NtRp2093
(dp2094
g54
(dp2095
sg63
g2047
sg56
(lp2096
g49
(g70
g51
NtRp2097
(dp2098
g54
(dp2099
g74
g75
ssg63
g2093
sg56
(lp2100
S'HTTP_ACCEPT_LANGUAGE'
p2101
asbag49
(g70
g51
NtRp2102
(dp2103
g54
(dp2104
g81
g82
ssg63
g2093
sg56
(lp2105
S':'
asbag49
(g70
g51
NtRp2106
(dp2107
g54
(dp2108
sg63
g2093
sg56
(lp2109
g49
(g50
g51
NtRp2110
(dp2111
g54
(dp2112
g62
I3
ssg63
g2106
sg56
(lp2113
g624
asbasbasbag49
(g65
g51
NtRp2114
(dp2115
g54
(dp2116
sg63
g2047
sg56
(lp2117
g49
(g70
g51
NtRp2118
(dp2119
g54
(dp2120
g74
g75
ssg63
g2114
sg56
(lp2121
S'HTTP_CONNECTION'
p2122
asbag49
(g70
g51
NtRp2123
(dp2124
g54
(dp2125
g81
g82
ssg63
g2114
sg56
(lp2126
S':'
asbag49
(g70
g51
NtRp2127
(dp2128
g54
(dp2129
sg63
g2114
sg56
(lp2130
g49
(g50
g51
NtRp2131
(dp2132
g54
(dp2133
g62
I3
ssg63
g2127
sg56
(lp2134
g646
asbasbasbag49
(g65
g51
NtRp2135
(dp2136
g54
(dp2137
sg63
g2047
sg56
(lp2138
g49
(g70
g51
NtRp2139
(dp2140
g54
(dp2141
g74
g75
ssg63
g2135
sg56
(lp2142
S'HTTP_COOKIE'
p2143
asbag49
(g70
g51
NtRp2144
(dp2145
g54
(dp2146
g81
g82
ssg63
g2135
sg56
(lp2147
S':'
asbag49
(g70
g51
NtRp2148
(dp2149
g54
(dp2150
sg63
g2135
sg56
(lp2151
g49
(g50
g51
NtRp2152
(dp2153
g54
(dp2154
g62
I3
ssg63
g2148
sg56
(lp2155
g668
asbasbasbag49
(g65
g51
NtRp2156
(dp2157
g54
(dp2158
sg63
g2047
sg56
(lp2159
g49
(g70
g51
NtRp2160
(dp2161
g54
(dp2162
g74
g75
ssg63
g2156
sg56
(lp2163
S'HTTP_HOST'
p2164
asbag49
(g70
g51
NtRp2165
(dp2166
g54
(dp2167
g81
g82
ssg63
g2156
sg56
(lp2168
S':'
asbag49
(g70
g51
NtRp2169
(dp2170
g54
(dp2171
sg63
g2156
sg56
(lp2172
g49
(g50
g51
NtRp2173
(dp2174
g54
(dp2175
g62
I3
ssg63
g2169
sg56
(lp2176
g690
asbasbasbag49
(g65
g51
NtRp2177
(dp2178
g54
(dp2179
sg63
g2047
sg56
(lp2180
g49
(g70
g51
NtRp2181
(dp2182
g54
(dp2183
g74
g75
ssg63
g2177
sg56
(lp2184
S'HTTP_REFERER'
p2185
asbag49
(g70
g51
NtRp2186
(dp2187
g54
(dp2188
g81
g82
ssg63
g2177
sg56
(lp2189
S':'
asbag49
(g70
g51
NtRp2190
(dp2191
g54
(dp2192
sg63
g2177
sg56
(lp2193
g49
(g50
g51
NtRp2194
(dp2195
g54
(dp2196
g62
I3
ssg63
g2190
sg56
(lp2197
g712
asbasbasbag49
(g65
g51
NtRp2198
(dp2199
g54
(dp2200
sg63
g2047
sg56
(lp2201
g49
(g70
g51
NtRp2202
(dp2203
g54
(dp2204
g74
g75
ssg63
g2198
sg56
(lp2205
S'HTTP_USER_AGENT'
p2206
asbag49
(g70
g51
NtRp2207
(dp2208
g54
(dp2209
g81
g82
ssg63
g2198
sg56
(lp2210
S':'
asbag49
(g70
g51
NtRp2211
(dp2212
g54
(dp2213
sg63
g2198
sg56
(lp2214
g49
(g50
g51
NtRp2215
(dp2216
g54
(dp2217
g62
I3
ssg63
g2211
sg56
(lp2218
g734
asbasbasbag49
(g65
g51
NtRp2219
(dp2220
g54
(dp2221
sg63
g2047
sg56
(lp2222
g49
(g70
g51
NtRp2223
(dp2224
g54
(dp2225
g74
g75
ssg63
g2219
sg56
(lp2226
S'PATH_INFO'
p2227
asbag49
(g70
g51
NtRp2228
(dp2229
g54
(dp2230
g81
g82
ssg63
g2219
sg56
(lp2231
S':'
asbag49
(g70
g51
NtRp2232
(dp2233
g54
(dp2234
sg63
g2219
sg56
(lp2235
g49
(g50
g51
NtRp2236
(dp2237
g54
(dp2238
g62
I3
ssg63
g2232
sg56
(lp2239
g798
asbasbasbag49
(g65
g51
NtRp2240
(dp2241
g54
(dp2242
sg63
g2047
sg56
(lp2243
g49
(g70
g51
NtRp2244
(dp2245
g54
(dp2246
g74
g75
ssg63
g2240
sg56
(lp2247
S'QUERY_STRING'
p2248
asbag49
(g70
g51
NtRp2249
(dp2250
g54
(dp2251
g81
g82
ssg63
g2240
sg56
(lp2252
S':'
asbag49
(g70
g51
NtRp2253
(dp2254
g54
(dp2255
sg63
g2240
sg56
(lp2256
g49
(g50
g51
NtRp2257
(dp2258
g54
(dp2259
g62
I3
ssg63
g2253
sg56
(lp2260
S''
asbasbasbag49
(g65
g51
NtRp2261
(dp2262
g54
(dp2263
sg63
g2047
sg56
(lp2264
g49
(g70
g51
NtRp2265
(dp2266
g54
(dp2267
g74
g75
ssg63
g2261
sg56
(lp2268
S'REMOTE_ADDR'
p2269
asbag49
(g70
g51
NtRp2270
(dp2271
g54
(dp2272
g81
g82
ssg63
g2261
sg56
(lp2273
S':'
asbag49
(g70
g51
NtRp2274
(dp2275
g54
(dp2276
sg63
g2261
sg56
(lp2277
g49
(g50
g51
NtRp2278
(dp2279
g54
(dp2280
g62
I3
ssg63
g2274
sg56
(lp2281
g158
asbasbasbag49
(g65
g51
NtRp2282
(dp2283
g54
(dp2284
sg63
g2047
sg56
(lp2285
g49
(g70
g51
NtRp2286
(dp2287
g54
(dp2288
g74
g75
ssg63
g2282
sg56
(lp2289
S'REMOTE_PORT'
p2290
asbag49
(g70
g51
NtRp2291
(dp2292
g54
(dp2293
g81
g82
ssg63
g2282
sg56
(lp2294
S':'
asbag49
(g70
g51
NtRp2295
(dp2296
g54
(dp2297
sg63
g2282
sg56
(lp2298
g49
(g50
g51
NtRp2299
(dp2300
g54
(dp2301
g62
I3
ssg63
g2295
sg56
(lp2302
g862
asbasbasbag49
(g65
g51
NtRp2303
(dp2304
g54
(dp2305
sg63
g2047
sg56
(lp2306
g49
(g70
g51
NtRp2307
(dp2308
g54
(dp2309
g74
g75
ssg63
g2303
sg56
(lp2310
S'REQUEST_METHOD'
p2311
asbag49
(g70
g51
NtRp2312
(dp2313
g54
(dp2314
g81
g82
ssg63
g2303
sg56
(lp2315
S':'
asbag49
(g70
g51
NtRp2316
(dp2317
g54
(dp2318
sg63
g2303
sg56
(lp2319
g49
(g50
g51
NtRp2320
(dp2321
g54
(dp2322
g62
I3
ssg63
g2316
sg56
(lp2323
g884
asbasbasbag49
(g65
g51
NtRp2324
(dp2325
g54
(dp2326
sg63
g2047
sg56
(lp2327
g49
(g70
g51
NtRp2328
(dp2329
g54
(dp2330
g74
g75
ssg63
g2324
sg56
(lp2331
S'REQUEST_URI'
p2332
asbag49
(g70
g51
NtRp2333
(dp2334
g54
(dp2335
g81
g82
ssg63
g2324
sg56
(lp2336
S':'
asbag49
(g70
g51
NtRp2337
(dp2338
g54
(dp2339
sg63
g2324
sg56
(lp2340
g49
(g50
g51
NtRp2341
(dp2342
g54
(dp2343
g62
I3
ssg63
g2337
sg56
(lp2344
g798
asbasbasbag49
(g65
g51
NtRp2345
(dp2346
g54
(dp2347
sg63
g2047
sg56
(lp2348
g49
(g70
g51
NtRp2349
(dp2350
g54
(dp2351
g74
g75
ssg63
g2345
sg56
(lp2352
S'SCRIPT_NAME'
p2353
asbag49
(g70
g51
NtRp2354
(dp2355
g54
(dp2356
g81
g82
ssg63
g2345
sg56
(lp2357
S':'
asbag49
(g70
g51
NtRp2358
(dp2359
g54
(dp2360
sg63
g2345
sg56
(lp2361
g49
(g50
g51
NtRp2362
(dp2363
g54
(dp2364
g62
I3
ssg63
g2358
sg56
(lp2365
S''
asbasbasbag49
(g65
g51
NtRp2366
(dp2367
g54
(dp2368
sg63
g2047
sg56
(lp2369
g49
(g70
g51
NtRp2370
(dp2371
g54
(dp2372
g74
g75
ssg63
g2366
sg56
(lp2373
S'SERVER_NAME'
p2374
asbag49
(g70
g51
NtRp2375
(dp2376
g54
(dp2377
g81
g82
ssg63
g2366
sg56
(lp2378
S':'
asbag49
(g70
g51
NtRp2379
(dp2380
g54
(dp2381
sg63
g2366
sg56
(lp2382
g49
(g50
g51
NtRp2383
(dp2384
g54
(dp2385
g62
I3
ssg63
g2379
sg56
(lp2386
g948
asbasbasbag49
(g65
g51
NtRp2387
(dp2388
g54
(dp2389
sg63
g2047
sg56
(lp2390
g49
(g70
g51
NtRp2391
(dp2392
g54
(dp2393
g74
g75
ssg63
g2387
sg56
(lp2394
S'SERVER_PORT'
p2395
asbag49
(g70
g51
NtRp2396
(dp2397
g54
(dp2398
g81
g82
ssg63
g2387
sg56
(lp2399
S':'
asbag49
(g70
g51
NtRp2400
(dp2401
g54
(dp2402
sg63
g2387
sg56
(lp2403
g49
(g50
g51
NtRp2404
(dp2405
g54
(dp2406
g62
I3
ssg63
g2400
sg56
(lp2407
g970
asbasbasbag49
(g65
g51
NtRp2408
(dp2409
g54
(dp2410
sg63
g2047
sg56
(lp2411
g49
(g70
g51
NtRp2412
(dp2413
g54
(dp2414
g74
g75
ssg63
g2408
sg56
(lp2415
S'SERVER_PROTOCOL'
p2416
asbag49
(g70
g51
NtRp2417
(dp2418
g54
(dp2419
g81
g82
ssg63
g2408
sg56
(lp2420
S':'
asbag49
(g70
g51
NtRp2421
(dp2422
g54
(dp2423
sg63
g2408
sg56
(lp2424
g49
(g50
g51
NtRp2425
(dp2426
g54
(dp2427
g62
I3
ssg63
g2421
sg56
(lp2428
g992
asbasbasbag49
(g65
g51
NtRp2429
(dp2430
g54
(dp2431
sg63
g2047
sg56
(lp2432
g49
(g70
g51
NtRp2433
(dp2434
g54
(dp2435
g74
g75
ssg63
g2429
sg56
(lp2436
S'SERVER_SOFTWARE'
p2437
asbag49
(g70
g51
NtRp2438
(dp2439
g54
(dp2440
g81
g82
ssg63
g2429
sg56
(lp2441
S':'
asbag49
(g70
g51
NtRp2442
(dp2443
g54
(dp2444
sg63
g2429
sg56
(lp2445
g49
(g50
g51
NtRp2446
(dp2447
g54
(dp2448
g62
I3
ssg63
g2442
sg56
(lp2449
g1014
asbasbasbag49
(g65
g51
NtRp2450
(dp2451
g54
(dp2452
sg63
g2047
sg56
(lp2453
g49
(g70
g51
NtRp2454
(dp2455
g54
(dp2456
g74
g75
ssg63
g2450
sg56
(lp2457
S'WEB2PY_ORIGINAL_URI'
p2458
asbag49
(g70
g51
NtRp2459
(dp2460
g54
(dp2461
g81
g82
ssg63
g2450
sg56
(lp2462
S':'
asbag49
(g70
g51
NtRp2463
(dp2464
g54
(dp2465
sg63
g2450
sg56
(lp2466
g49
(g50
g51
NtRp2467
(dp2468
g54
(dp2469
g62
I3
ssg63
g2463
sg56
(lp2470
g1058
asbasbasbag49
(g65
g51
NtRp2471
(dp2472
g54
(dp2473
sg63
g2047
sg56
(lp2474
g49
(g70
g51
NtRp2475
(dp2476
g54
(dp2477
g74
g75
ssg63
g2471
sg56
(lp2478
S'wsgi.errors'
p2479
asbag49
(g70
g51
NtRp2480
(dp2481
g54
(dp2482
g81
g82
ssg63
g2471
sg56
(lp2483
S':'
asbag49
(g70
g51
NtRp2484
(dp2485
g54
(dp2486
sg63
g2471
sg56
(lp2487
g49
(g50
g51
NtRp2488
(dp2489
g54
(dp2490
g62
I3
ssg63
g2484
sg56
(lp2491
S"<open file '<stderr>', mode 'w' at 0x004900B0>"
p2492
asbasbasbag49
(g65
g51
NtRp2493
(dp2494
g54
(dp2495
sg63
g2047
sg56
(lp2496
g49
(g70
g51
NtRp2497
(dp2498
g54
(dp2499
g74
g75
ssg63
g2493
sg56
(lp2500
S'wsgi.file_wrapper'
p2501
asbag49
(g70
g51
NtRp2502
(dp2503
g54
(dp2504
g81
g82
ssg63
g2493
sg56
(lp2505
S':'
asbag49
(g70
g51
NtRp2506
(dp2507
g54
(dp2508
sg63
g2493
sg56
(lp2509
g49
(g50
g51
NtRp2510
(dp2511
g54
(dp2512
g62
I3
ssg63
g2506
sg56
(lp2513
S'<class wsgiref.util.FileWrapper at 0x02EC5390>'
p2514
asbasbasbag49
(g65
g51
NtRp2515
(dp2516
g54
(dp2517
sg63
g2047
sg56
(lp2518
g49
(g70
g51
NtRp2519
(dp2520
g54
(dp2521
g74
g75
ssg63
g2515
sg56
(lp2522
S'wsgi.input'
p2523
asbag49
(g70
g51
NtRp2524
(dp2525
g54
(dp2526
g81
g82
ssg63
g2515
sg56
(lp2527
S':'
asbag49
(g70
g51
NtRp2528
(dp2529
g54
(dp2530
sg63
g2515
sg56
(lp2531
g49
(g50
g51
NtRp2532
(dp2533
g54
(dp2534
g62
I3
ssg63
g2528
sg56
(lp2535
S'<cStringIO.StringO object at 0x0708FF40>'
p2536
asbasbasbag49
(g65
g51
NtRp2537
(dp2538
g54
(dp2539
sg63
g2047
sg56
(lp2540
g49
(g70
g51
NtRp2541
(dp2542
g54
(dp2543
g74
g75
ssg63
g2537
sg56
(lp2544
S'wsgi.multiprocess'
p2545
asbag49
(g70
g51
NtRp2546
(dp2547
g54
(dp2548
g81
g82
ssg63
g2537
sg56
(lp2549
S':'
asbag49
(g70
g51
NtRp2550
(dp2551
g54
(dp2552
sg63
g2537
sg56
(lp2553
g49
(g50
g51
NtRp2554
(dp2555
g54
(dp2556
g62
I3
ssg63
g2550
sg56
(lp2557
g92
asbasbasbag49
(g65
g51
NtRp2558
(dp2559
g54
(dp2560
sg63
g2047
sg56
(lp2561
g49
(g70
g51
NtRp2562
(dp2563
g54
(dp2564
g74
g75
ssg63
g2558
sg56
(lp2565
S'wsgi.multithread'
p2566
asbag49
(g70
g51
NtRp2567
(dp2568
g54
(dp2569
g81
g82
ssg63
g2558
sg56
(lp2570
S':'
asbag49
(g70
g51
NtRp2571
(dp2572
g54
(dp2573
sg63
g2558
sg56
(lp2574
g49
(g50
g51
NtRp2575
(dp2576
g54
(dp2577
g62
I3
ssg63
g2571
sg56
(lp2578
g1276
asbasbasbag49
(g65
g51
NtRp2579
(dp2580
g54
(dp2581
sg63
g2047
sg56
(lp2582
g49
(g70
g51
NtRp2583
(dp2584
g54
(dp2585
g74
g75
ssg63
g2579
sg56
(lp2586
S'wsgi.run_once'
p2587
asbag49
(g70
g51
NtRp2588
(dp2589
g54
(dp2590
g81
g82
ssg63
g2579
sg56
(lp2591
S':'
asbag49
(g70
g51
NtRp2592
(dp2593
g54
(dp2594
sg63
g2579
sg56
(lp2595
g49
(g50
g51
NtRp2596
(dp2597
g54
(dp2598
g62
I3
ssg63
g2592
sg56
(lp2599
g92
asbasbasbag49
(g65
g51
NtRp2600
(dp2601
g54
(dp2602
sg63
g2047
sg56
(lp2603
g49
(g70
g51
NtRp2604
(dp2605
g54
(dp2606
g74
g75
ssg63
g2600
sg56
(lp2607
S'wsgi.url_scheme'
p2608
asbag49
(g70
g51
NtRp2609
(dp2610
g54
(dp2611
g81
g82
ssg63
g2600
sg56
(lp2612
S':'
asbag49
(g70
g51
NtRp2613
(dp2614
g54
(dp2615
sg63
g2600
sg56
(lp2616
g49
(g50
g51
NtRp2617
(dp2618
g54
(dp2619
g62
I3
ssg63
g2613
sg56
(lp2620
g1319
asbasbasbag49
(g65
g51
NtRp2621
(dp2622
g54
(dp2623
sg63
g2047
sg56
(lp2624
g49
(g70
g51
NtRp2625
(dp2626
g54
(dp2627
g74
g75
ssg63
g2621
sg56
(lp2628
S'wsgi.version'
p2629
asbag49
(g70
g51
NtRp2630
(dp2631
g54
(dp2632
g81
g82
ssg63
g2621
sg56
(lp2633
S':'
asbag49
(g70
g51
NtRp2634
(dp2635
g54
(dp2636
sg63
g2621
sg56
(lp2637
g49
(g50
g51
NtRp2638
(dp2639
g54
(dp2640
g62
I3
ssg63
g2634
sg56
(lp2641
S'1'
asbasbasbasbasbasbasbasbasbasbasbasbasbsS'frames'
p2642
(lp2643
(dp2644
S'file'
p2645
S'D:\\Dise\xf1o Web\\Proyectos\\Parleyweb\\web2py\\gluon\\restricted.py'
p2646
sS'dump'
p2647
(dp2648
sS'lnum'
p2649
I205
sS'lines'
p2650
(dp2651
sS'call'
p2652
S"(code='# -*- coding: utf-8 -*-\\n# this file is released ...\\n\\n\\n\\n\\n\\n\\n\\nresponse._vars=response._caller(mostrar)\\n', environment={'A': <class 'gluon.html.A'>, 'Auth': <class 'gluon.tools.Auth'>, 'B': <class 'gluon.html.B'>, 'BEAUTIFY': <class 'gluon.html.BEAUTIFY'>, 'BODY': <class 'gluon.html.BODY'>, 'BR': <class 'gluon.html.BR'>, 'BUTTON': <class 'gluon.html.BUTTON'>, 'CAT': <class 'gluon.html.CAT'>, 'CENTER': <class 'gluon.html.CENTER'>, 'CLEANUP': <class 'gluon.validators.CLEANUP'>, ...}, layer='D:\\\\Dise\\xf1o Web\\\\Proyectos\\\\Parleyweb\\\\web2py\\\\applications\\\\parleyweb\\\\controllers/default.py')"
p2653
sS'func'
p2654
S'restricted'
p2655
sa(dp2656
g2645
S'D:\\Dise\xf1o Web\\Proyectos\\Parleyweb\\web2py\\applications\\parleyweb\\controllers\\default.py'
p2657
sg2647
(dp2658
sg2649
I116
sg2650
(dp2659
I105
S''
sI106
S''
sI107
S''
sI108
S''
sI109
S''
sI110
S''
sI111
S''
sI112
S''
sI113
S''
sI114
S''
ssg2652
S'()'
p2660
sg2654
S'<module>'
p2661
sa(dp2662
g2645
S'D:\\Dise\xf1o Web\\Proyectos\\Parleyweb\\web2py\\gluon\\globals.py'
p2663
sg2647
(dp2664
sg2649
I173
sg2650
(dp2665
sg2652
S'(f=<function mostrar at 0x07171DF0>)'
p2666
sg2654
S'<lambda>'
p2667
sa(dp2668
g2645
S'D:\\Dise\xf1o Web\\Proyectos\\Parleyweb\\web2py\\applications\\parleyweb\\controllers\\default.py'
p2669
sg2647
(dp2670
sg2649
I78
sg2650
(dp2671
I73
S"      LOAD('default','data.load',args='tables',ajax=True,user_signature=True)"
p2672
sI74
S'    """'
p2673
sI75
S'    return dict(form=crud())'
p2674
sI76
S''
sI77
S'def mostrar():'
p2675
sI78
S'    palabras = db((db.palabras.id==request.args(0))).select().first()'
p2676
sI79
S'    igualar = db((db.palabras.id==db.palabra_ejemplo.palabra)&(db.ejemplos.id==db.palabra_ejemplo.ejemplo))'
p2677
sI80
S'    ejemplos = igualar(db.palabras.id==request.args(0))'
p2678
sI81
S"   # prueba = ejemplos(db.ejemplos.tipo=='sustantivo').select(db.ejemplos.ALL)"
p2679
sI82
S''
ssg2652
S'()'
p2680
sg2654
S'mostrar'
p2681
sasS'pyver'
p2682
S'Python 2.5.4: D:\\Dise\xf1o Web\\Proyectos\\Parleyweb\\web2py\\web2py.exe'
p2683
sS'session'
p2684
g49
(g50
g51
NtRp2685
(dp2686
g54
(dp2687
sg56
(lp2688
g49
(g58
g51
NtRp2689
(dp2690
g54
(dp2691
g62
I5
ssg63
Nsg56
(lp2692
sbasbsS'etype'
p2693
S"<type 'exceptions.TypeError'>"
p2694
sS'date'
p2695
S'Tue Mar 13 22:47:38 2012'
p2696
sS'response'
p2697
g49
(g50
g51
NtRp2698
(dp2699
g54
(dp2700
sg56
(lp2701
g49
(g58
g51
NtRp2702
(dp2703
g54
(dp2704
g62
I5
ssg63
Nsg56
(lp2705
g49
(g65
g51
NtRp2706
(dp2707
g54
(dp2708
sg63
g2702
sg56
(lp2709
g49
(g70
g51
NtRp2710
(dp2711
g54
(dp2712
g74
g75
ssg63
g2706
sg56
(lp2713
g123
asbag49
(g70
g51
NtRp2714
(dp2715
g54
(dp2716
g81
g82
ssg63
g2706
sg56
(lp2717
S':'
asbag49
(g70
g51
NtRp2718
(dp2719
g54
(dp2720
sg63
g2706
sg56
(lp2721
g49
(g50
g51
NtRp2722
(dp2723
g54
(dp2724
g62
I5
ssg63
g2718
sg56
(lp2725
S'<cStringIO.StringO object at 0x070A8620>'
p2726
asbasbasbag49
(g65
g51
NtRp2727
(dp2728
g54
(dp2729
sg63
g2702
sg56
(lp2730
g49
(g70
g51
NtRp2731
(dp2732
g54
(dp2733
g74
g75
ssg63
g2727
sg56
(lp2734
g189
asbag49
(g70
g51
NtRp2735
(dp2736
g54
(dp2737
g81
g82
ssg63
g2727
sg56
(lp2738
S':'
asbag49
(g70
g51
NtRp2739
(dp2740
g54
(dp2741
sg63
g2727
sg56
(lp2742
g49
(g50
g51
NtRp2743
(dp2744
g54
(dp2745
g62
I5
ssg63
g2739
sg56
(lp2746
g49
(g58
g51
NtRp2747
(dp2748
g54
(dp2749
g62
I4
ssg63
Nsg56
(lp2750
g49
(g65
g51
NtRp2751
(dp2752
g54
(dp2753
sg63
g2747
sg56
(lp2754
g49
(g70
g51
NtRp2755
(dp2756
g54
(dp2757
g74
g75
ssg63
g2751
sg56
(lp2758
S'session_id_parleyweb'
p2759
asbag49
(g70
g51
NtRp2760
(dp2761
g54
(dp2762
g81
g82
ssg63
g2751
sg56
(lp2763
S':'
asbag49
(g70
g51
NtRp2764
(dp2765
g54
(dp2766
sg63
g2751
sg56
(lp2767
g49
(g50
g51
NtRp2768
(dp2769
g54
(dp2770
g62
I4
ssg63
g2764
sg56
(lp2771
g49
(g58
g51
NtRp2772
(dp2773
g54
(dp2774
g62
I3
ssg63
Nsg56
(lp2775
g49
(g65
g51
NtRp2776
(dp2777
g54
(dp2778
sg63
g2772
sg56
(lp2779
g49
(g70
g51
NtRp2780
(dp2781
g54
(dp2782
g74
g75
ssg63
g2776
sg56
(lp2783
g239
asbag49
(g70
g51
NtRp2784
(dp2785
g54
(dp2786
g81
g82
ssg63
g2776
sg56
(lp2787
S':'
asbag49
(g70
g51
NtRp2788
(dp2789
g54
(dp2790
sg63
g2776
sg56
(lp2791
g49
(g50
g51
NtRp2792
(dp2793
g54
(dp2794
g62
I3
ssg63
g2788
sg56
(lp2795
S''
asbasbasbag49
(g65
g51
NtRp2796
(dp2797
g54
(dp2798
sg63
g2772
sg56
(lp2799
g49
(g70
g51
NtRp2800
(dp2801
g54
(dp2802
g74
g75
ssg63
g2796
sg56
(lp2803
g260
asbag49
(g70
g51
NtRp2804
(dp2805
g54
(dp2806
g81
g82
ssg63
g2796
sg56
(lp2807
S':'
asbag49
(g70
g51
NtRp2808
(dp2809
g54
(dp2810
sg63
g2796
sg56
(lp2811
g49
(g50
g51
NtRp2812
(dp2813
g54
(dp2814
g62
I3
ssg63
g2808
sg56
(lp2815
S''
asbasbasbag49
(g65
g51
NtRp2816
(dp2817
g54
(dp2818
sg63
g2772
sg56
(lp2819
g49
(g70
g51
NtRp2820
(dp2821
g54
(dp2822
g74
g75
ssg63
g2816
sg56
(lp2823
g281
asbag49
(g70
g51
NtRp2824
(dp2825
g54
(dp2826
g81
g82
ssg63
g2816
sg56
(lp2827
S':'
asbag49
(g70
g51
NtRp2828
(dp2829
g54
(dp2830
sg63
g2816
sg56
(lp2831
g49
(g50
g51
NtRp2832
(dp2833
g54
(dp2834
g62
I3
ssg63
g2828
sg56
(lp2835
S''
asbasbasbag49
(g65
g51
NtRp2836
(dp2837
g54
(dp2838
sg63
g2772
sg56
(lp2839
g49
(g70
g51
NtRp2840
(dp2841
g54
(dp2842
g74
g75
ssg63
g2836
sg56
(lp2843
g302
asbag49
(g70
g51
NtRp2844
(dp2845
g54
(dp2846
g81
g82
ssg63
g2836
sg56
(lp2847
S':'
asbag49
(g70
g51
NtRp2848
(dp2849
g54
(dp2850
sg63
g2836
sg56
(lp2851
g49
(g50
g51
NtRp2852
(dp2853
g54
(dp2854
g62
I3
ssg63
g2848
sg56
(lp2855
S''
asbasbasbag49
(g65
g51
NtRp2856
(dp2857
g54
(dp2858
sg63
g2772
sg56
(lp2859
g49
(g70
g51
NtRp2860
(dp2861
g54
(dp2862
g74
g75
ssg63
g2856
sg56
(lp2863
g323
asbag49
(g70
g51
NtRp2864
(dp2865
g54
(dp2866
g81
g82
ssg63
g2856
sg56
(lp2867
S':'
asbag49
(g70
g51
NtRp2868
(dp2869
g54
(dp2870
sg63
g2856
sg56
(lp2871
g49
(g50
g51
NtRp2872
(dp2873
g54
(dp2874
g62
I3
ssg63
g2868
sg56
(lp2875
S'/'
asbasbasbag49
(g65
g51
NtRp2876
(dp2877
g54
(dp2878
sg63
g2772
sg56
(lp2879
g49
(g70
g51
NtRp2880
(dp2881
g54
(dp2882
g74
g75
ssg63
g2876
sg56
(lp2883
g344
asbag49
(g70
g51
NtRp2884
(dp2885
g54
(dp2886
g81
g82
ssg63
g2876
sg56
(lp2887
S':'
asbag49
(g70
g51
NtRp2888
(dp2889
g54
(dp2890
sg63
g2876
sg56
(lp2891
g49
(g50
g51
NtRp2892
(dp2893
g54
(dp2894
g62
I3
ssg63
g2888
sg56
(lp2895
S''
asbasbasbag49
(g65
g51
NtRp2896
(dp2897
g54
(dp2898
sg63
g2772
sg56
(lp2899
g49
(g70
g51
NtRp2900
(dp2901
g54
(dp2902
g74
g75
ssg63
g2896
sg56
(lp2903
g365
asbag49
(g70
g51
NtRp2904
(dp2905
g54
(dp2906
g81
g82
ssg63
g2896
sg56
(lp2907
S':'
asbag49
(g70
g51
NtRp2908
(dp2909
g54
(dp2910
sg63
g2896
sg56
(lp2911
g49
(g50
g51
NtRp2912
(dp2913
g54
(dp2914
g62
I3
ssg63
g2908
sg56
(lp2915
S''
asbasbasbasbasbasbasbasbasbasbasbag49
(g65
g51
NtRp2916
(dp2917
g54
(dp2918
sg63
g2702
sg56
(lp2919
g49
(g70
g51
NtRp2920
(dp2921
g54
(dp2922
g74
g75
ssg63
g2916
sg56
(lp2923
S'delimiters'
p2924
asbag49
(g70
g51
NtRp2925
(dp2926
g54
(dp2927
g81
g82
ssg63
g2916
sg56
(lp2928
S':'
asbag49
(g70
g51
NtRp2929
(dp2930
g54
(dp2931
sg63
g2916
sg56
(lp2932
g49
(g50
g51
NtRp2933
(dp2934
g54
(dp2935
g62
I5
ssg63
g2929
sg56
(lp2936
g49
(g58
g51
NtRp2937
(dp2938
g54
(dp2939
g62
I4
ssg63
Nsg56
(lp2940
g49
(g65
g51
NtRp2941
(dp2942
g54
(dp2943
sg63
g2937
sg56
(lp2944
g49
(g70
g51
NtRp2945
(dp2946
g54
(dp2947
sg63
g2941
sg56
(lp2948
g49
(g50
g51
NtRp2949
(dp2950
g54
(dp2951
g62
I4
ssg63
g2945
sg56
(lp2952
S'{{'
p2953
asbasbasbag49
(g65
g51
NtRp2954
(dp2955
g54
(dp2956
sg63
g2937
sg56
(lp2957
g49
(g70
g51
NtRp2958
(dp2959
g54
(dp2960
sg63
g2954
sg56
(lp2961
g49
(g50
g51
NtRp2962
(dp2963
g54
(dp2964
g62
I4
ssg63
g2958
sg56
(lp2965
S'}}'
p2966
asbasbasbasbasbasbasbag49
(g65
g51
NtRp2967
(dp2968
g54
(dp2969
sg63
g2702
sg56
(lp2970
g49
(g70
g51
NtRp2971
(dp2972
g54
(dp2973
g74
g75
ssg63
g2967
sg56
(lp2974
S'files'
p2975
asbag49
(g70
g51
NtRp2976
(dp2977
g54
(dp2978
g81
g82
ssg63
g2967
sg56
(lp2979
S':'
asbag49
(g70
g51
NtRp2980
(dp2981
g54
(dp2982
sg63
g2967
sg56
(lp2983
g49
(g50
g51
NtRp2984
(dp2985
g54
(dp2986
g62
I5
ssg63
g2980
sg56
(lp2987
g49
(g58
g51
NtRp2988
(dp2989
g54
(dp2990
g62
I4
ssg63
Nsg56
(lp2991
sbasbasbasbag49
(g65
g51
NtRp2992
(dp2993
g54
(dp2994
sg63
g2702
sg56
(lp2995
g49
(g70
g51
NtRp2996
(dp2997
g54
(dp2998
g74
g75
ssg63
g2992
sg56
(lp2999
S'flash'
p3000
asbag49
(g70
g51
NtRp3001
(dp3002
g54
(dp3003
g81
g82
ssg63
g2992
sg56
(lp3004
S':'
asbag49
(g70
g51
NtRp3005
(dp3006
g54
(dp3007
sg63
g2992
sg56
(lp3008
g49
(g50
g51
NtRp3009
(dp3010
g54
(dp3011
g62
I5
ssg63
g3005
sg56
(lp3012
S''
asbasbasbag49
(g65
g51
NtRp3013
(dp3014
g54
(dp3015
sg63
g2702
sg56
(lp3016
g49
(g70
g51
NtRp3017
(dp3018
g54
(dp3019
g74
g75
ssg63
g3013
sg56
(lp3020
S'generic_patterns'
p3021
asbag49
(g70
g51
NtRp3022
(dp3023
g54
(dp3024
g81
g82
ssg63
g3013
sg56
(lp3025
S':'
asbag49
(g70
g51
NtRp3026
(dp3027
g54
(dp3028
sg63
g3013
sg56
(lp3029
g49
(g50
g51
NtRp3030
(dp3031
g54
(dp3032
g62
I5
ssg63
g3026
sg56
(lp3033
g49
(g58
g51
NtRp3034
(dp3035
g54
(dp3036
g62
I4
ssg63
Nsg56
(lp3037
g49
(g65
g51
NtRp3038
(dp3039
g54
(dp3040
sg63
g3034
sg56
(lp3041
g49
(g70
g51
NtRp3042
(dp3043
g54
(dp3044
sg63
g3038
sg56
(lp3045
g49
(g50
g51
NtRp3046
(dp3047
g54
(dp3048
g62
I4
ssg63
g3042
sg56
(lp3049
S'*'
asbasbasbasbasbasbasbag49
(g65
g51
NtRp3050
(dp3051
g54
(dp3052
sg63
g2702
sg56
(lp3053
g49
(g70
g51
NtRp3054
(dp3055
g54
(dp3056
g74
g75
ssg63
g3050
sg56
(lp3057
S'headers'
p3058
asbag49
(g70
g51
NtRp3059
(dp3060
g54
(dp3061
g81
g82
ssg63
g3050
sg56
(lp3062
S':'
asbag49
(g70
g51
NtRp3063
(dp3064
g54
(dp3065
sg63
g3050
sg56
(lp3066
g49
(g50
g51
NtRp3067
(dp3068
g54
(dp3069
g62
I5
ssg63
g3063
sg56
(lp3070
g49
(g58
g51
NtRp3071
(dp3072
g54
(dp3073
g62
I4
ssg63
Nsg56
(lp3074
g49
(g65
g51
NtRp3075
(dp3076
g54
(dp3077
sg63
g3071
sg56
(lp3078
g49
(g70
g51
NtRp3079
(dp3080
g54
(dp3081
g74
g75
ssg63
g3075
sg56
(lp3082
S'Cache-Control'
p3083
asbag49
(g70
g51
NtRp3084
(dp3085
g54
(dp3086
g81
g82
ssg63
g3075
sg56
(lp3087
S':'
asbag49
(g70
g51
NtRp3088
(dp3089
g54
(dp3090
sg63
g3075
sg56
(lp3091
g49
(g50
g51
NtRp3092
(dp3093
g54
(dp3094
g62
I4
ssg63
g3088
sg56
(lp3095
S'no-store, no-cache, must-revalidate, post-check=0, pre-check=0'
p3096
asbasbasbag49
(g65
g51
NtRp3097
(dp3098
g54
(dp3099
sg63
g3071
sg56
(lp3100
g49
(g70
g51
NtRp3101
(dp3102
g54
(dp3103
g74
g75
ssg63
g3097
sg56
(lp3104
S'Content-Type'
p3105
asbag49
(g70
g51
NtRp3106
(dp3107
g54
(dp3108
g81
g82
ssg63
g3097
sg56
(lp3109
S':'
asbag49
(g70
g51
NtRp3110
(dp3111
g54
(dp3112
sg63
g3097
sg56
(lp3113
g49
(g50
g51
NtRp3114
(dp3115
g54
(dp3116
g62
I4
ssg63
g3110
sg56
(lp3117
S'text/html; charset=utf-8'
p3118
asbasbasbag49
(g65
g51
NtRp3119
(dp3120
g54
(dp3121
sg63
g3071
sg56
(lp3122
g49
(g70
g51
NtRp3123
(dp3124
g54
(dp3125
g74
g75
ssg63
g3119
sg56
(lp3126
S'Expires'
p3127
asbag49
(g70
g51
NtRp3128
(dp3129
g54
(dp3130
g81
g82
ssg63
g3119
sg56
(lp3131
S':'
asbag49
(g70
g51
NtRp3132
(dp3133
g54
(dp3134
sg63
g3119
sg56
(lp3135
g49
(g50
g51
NtRp3136
(dp3137
g54
(dp3138
g62
I4
ssg63
g3132
sg56
(lp3139
S'Tue, 13 Mar 2012 21:47:37 GMT'
p3140
asbasbasbag49
(g65
g51
NtRp3141
(dp3142
g54
(dp3143
sg63
g3071
sg56
(lp3144
g49
(g70
g51
NtRp3145
(dp3146
g54
(dp3147
g74
g75
ssg63
g3141
sg56
(lp3148
S'Pragma'
p3149
asbag49
(g70
g51
NtRp3150
(dp3151
g54
(dp3152
g81
g82
ssg63
g3141
sg56
(lp3153
S':'
asbag49
(g70
g51
NtRp3154
(dp3155
g54
(dp3156
sg63
g3141
sg56
(lp3157
g49
(g50
g51
NtRp3158
(dp3159
g54
(dp3160
g62
I4
ssg63
g3154
sg56
(lp3161
S'no-cache'
p3162
asbasbasbag49
(g65
g51
NtRp3163
(dp3164
g54
(dp3165
sg63
g3071
sg56
(lp3166
g49
(g70
g51
NtRp3167
(dp3168
g54
(dp3169
g74
g75
ssg63
g3163
sg56
(lp3170
S'X-Powered-By'
p3171
asbag49
(g70
g51
NtRp3172
(dp3173
g54
(dp3174
g81
g82
ssg63
g3163
sg56
(lp3175
S':'
asbag49
(g70
g51
NtRp3176
(dp3177
g54
(dp3178
sg63
g3163
sg56
(lp3179
g49
(g50
g51
NtRp3180
(dp3181
g54
(dp3182
g62
I4
ssg63
g3176
sg56
(lp3183
S'web2py'
p3184
asbasbasbasbasbasbasbag49
(g65
g51
NtRp3185
(dp3186
g54
(dp3187
sg63
g2702
sg56
(lp3188
g49
(g70
g51
NtRp3189
(dp3190
g54
(dp3191
g74
g75
ssg63
g3185
sg56
(lp3192
S'menu'
p3193
asbag49
(g70
g51
NtRp3194
(dp3195
g54
(dp3196
g81
g82
ssg63
g3185
sg56
(lp3197
S':'
asbag49
(g70
g51
NtRp3198
(dp3199
g54
(dp3200
sg63
g3185
sg56
(lp3201
g49
(g50
g51
NtRp3202
(dp3203
g54
(dp3204
g62
I5
ssg63
g3198
sg56
(lp3205
g49
(g58
g51
NtRp3206
(dp3207
g54
(dp3208
g62
I4
ssg63
Nsg56
(lp3209
g49
(g65
g51
NtRp3210
(dp3211
g54
(dp3212
sg63
g3206
sg56
(lp3213
g49
(g70
g51
NtRp3214
(dp3215
g54
(dp3216
sg63
g3210
sg56
(lp3217
g49
(g50
g51
NtRp3218
(dp3219
g54
(dp3220
g62
I4
ssg63
g3214
sg56
(lp3221
g49
(g58
g51
NtRp3222
(dp3223
g54
(dp3224
g62
I3
ssg63
Nsg56
(lp3225
g49
(g65
g51
NtRp3226
(dp3227
g54
(dp3228
sg63
g3222
sg56
(lp3229
g49
(g70
g51
NtRp3230
(dp3231
g54
(dp3232
sg63
g3226
sg56
(lp3233
g49
(g50
g51
NtRp3234
(dp3235
g54
(dp3236
g62
I3
ssg63
g3230
sg56
(lp3237
cgluon.languages
lazyT_unpickle
p3238
(S't\x04\x00\x00\x00Home'
tRp3239
asbasbasbag49
(g65
g51
NtRp3240
(dp3241
g54
(dp3242
sg63
g3222
sg56
(lp3243
g49
(g70
g51
NtRp3244
(dp3245
g54
(dp3246
sg63
g3240
sg56
(lp3247
g49
(g50
g51
NtRp3248
(dp3249
g54
(dp3250
g62
I3
ssg63
g3244
sg56
(lp3251
g92
asbasbasbag49
(g65
g51
NtRp3252
(dp3253
g54
(dp3254
sg63
g3222
sg56
(lp3255
g49
(g70
g51
NtRp3256
(dp3257
g54
(dp3258
sg63
g3252
sg56
(lp3259
g49
(g50
g51
NtRp3260
(dp3261
g54
(dp3262
g62
I3
ssg63
g3256
sg56
(lp3263
S'/parleyweb/default/index'
p3264
asbasbasbag49
(g65
g51
NtRp3265
(dp3266
g54
(dp3267
sg63
g3222
sg56
(lp3268
g49
(g70
g51
NtRp3269
(dp3270
g54
(dp3271
sg63
g3265
sg56
(lp3272
g49
(g50
g51
NtRp3273
(dp3274
g54
(dp3275
g62
I3
ssg63
g3269
sg56
(lp3276
g49
(g58
g51
NtRp3277
(dp3278
g54
(dp3279
g62
I2
ssg63
Nsg56
(lp3280
sbasbasbasbasbasbasbasbasbasbasbasbag49
(g65
g51
NtRp3281
(dp3282
g54
(dp3283
sg63
g2702
sg56
(lp3284
g49
(g70
g51
NtRp3285
(dp3286
g54
(dp3287
g74
g75
ssg63
g3281
sg56
(lp3288
S'meta'
p3289
asbag49
(g70
g51
NtRp3290
(dp3291
g54
(dp3292
g81
g82
ssg63
g3281
sg56
(lp3293
S':'
asbag49
(g70
g51
NtRp3294
(dp3295
g54
(dp3296
sg63
g3281
sg56
(lp3297
g49
(g50
g51
NtRp3298
(dp3299
g54
(dp3300
g62
I5
ssg63
g3294
sg56
(lp3301
g49
(g58
g51
NtRp3302
(dp3303
g54
(dp3304
g62
I4
ssg63
Nsg56
(lp3305
g49
(g65
g51
NtRp3306
(dp3307
g54
(dp3308
sg63
g3302
sg56
(lp3309
g49
(g70
g51
NtRp3310
(dp3311
g54
(dp3312
g74
g75
ssg63
g3306
sg56
(lp3313
S'author'
p3314
asbag49
(g70
g51
NtRp3315
(dp3316
g54
(dp3317
g81
g82
ssg63
g3306
sg56
(lp3318
S':'
asbag49
(g70
g51
NtRp3319
(dp3320
g54
(dp3321
sg63
g3306
sg56
(lp3322
g49
(g50
g51
NtRp3323
(dp3324
g54
(dp3325
g62
I4
ssg63
g3319
sg56
(lp3326
S'Your Name <you@example.com>'
p3327
asbasbasbag49
(g65
g51
NtRp3328
(dp3329
g54
(dp3330
sg63
g3302
sg56
(lp3331
g49
(g70
g51
NtRp3332
(dp3333
g54
(dp3334
g74
g75
ssg63
g3328
sg56
(lp3335
S'copyright'
p3336
asbag49
(g70
g51
NtRp3337
(dp3338
g54
(dp3339
g81
g82
ssg63
g3328
sg56
(lp3340
S':'
asbag49
(g70
g51
NtRp3341
(dp3342
g54
(dp3343
sg63
g3328
sg56
(lp3344
g49
(g50
g51
NtRp3345
(dp3346
g54
(dp3347
g62
I4
ssg63
g3341
sg56
(lp3348
S'Copyright 2011'
p3349
asbasbasbag49
(g65
g51
NtRp3350
(dp3351
g54
(dp3352
sg63
g3302
sg56
(lp3353
g49
(g70
g51
NtRp3354
(dp3355
g54
(dp3356
g74
g75
ssg63
g3350
sg56
(lp3357
S'description'
p3358
asbag49
(g70
g51
NtRp3359
(dp3360
g54
(dp3361
g81
g82
ssg63
g3350
sg56
(lp3362
S':'
asbag49
(g70
g51
NtRp3363
(dp3364
g54
(dp3365
sg63
g3350
sg56
(lp3366
g49
(g50
g51
NtRp3367
(dp3368
g54
(dp3369
g62
I4
ssg63
g3363
sg56
(lp3370
S'a cool new app'
p3371
asbasbasbag49
(g65
g51
NtRp3372
(dp3373
g54
(dp3374
sg63
g3302
sg56
(lp3375
g49
(g70
g51
NtRp3376
(dp3377
g54
(dp3378
g74
g75
ssg63
g3372
sg56
(lp3379
S'generator'
p3380
asbag49
(g70
g51
NtRp3381
(dp3382
g54
(dp3383
g81
g82
ssg63
g3372
sg56
(lp3384
S':'
asbag49
(g70
g51
NtRp3385
(dp3386
g54
(dp3387
sg63
g3372
sg56
(lp3388
g49
(g50
g51
NtRp3389
(dp3390
g54
(dp3391
g62
I4
ssg63
g3385
sg56
(lp3392
S'Web2py Web Framework'
p3393
asbasbasbag49
(g65
g51
NtRp3394
(dp3395
g54
(dp3396
sg63
g3302
sg56
(lp3397
g49
(g70
g51
NtRp3398
(dp3399
g54
(dp3400
g74
g75
ssg63
g3394
sg56
(lp3401
S'keywords'
p3402
asbag49
(g70
g51
NtRp3403
(dp3404
g54
(dp3405
g81
g82
ssg63
g3394
sg56
(lp3406
S':'
asbag49
(g70
g51
NtRp3407
(dp3408
g54
(dp3409
sg63
g3394
sg56
(lp3410
g49
(g50
g51
NtRp3411
(dp3412
g54
(dp3413
g62
I4
ssg63
g3407
sg56
(lp3414
S'web2py, python, framework'
p3415
asbasbasbasbasbasbasbag49
(g65
g51
NtRp3416
(dp3417
g54
(dp3418
sg63
g2702
sg56
(lp3419
g49
(g70
g51
NtRp3420
(dp3421
g54
(dp3422
g74
g75
ssg63
g3416
sg56
(lp3423
S'postprocessing'
p3424
asbag49
(g70
g51
NtRp3425
(dp3426
g54
(dp3427
g81
g82
ssg63
g3416
sg56
(lp3428
S':'
asbag49
(g70
g51
NtRp3429
(dp3430
g54
(dp3431
sg63
g3416
sg56
(lp3432
g49
(g50
g51
NtRp3433
(dp3434
g54
(dp3435
g62
I5
ssg63
g3429
sg56
(lp3436
g49
(g58
g51
NtRp3437
(dp3438
g54
(dp3439
g62
I4
ssg63
Nsg56
(lp3440
sbasbasbasbag49
(g65
g51
NtRp3441
(dp3442
g54
(dp3443
sg63
g2702
sg56
(lp3444
g49
(g70
g51
NtRp3445
(dp3446
g54
(dp3447
g74
g75
ssg63
g3441
sg56
(lp3448
S'session_file'
p3449
asbag49
(g70
g51
NtRp3450
(dp3451
g54
(dp3452
g81
g82
ssg63
g3441
sg56
(lp3453
S':'
asbag49
(g70
g51
NtRp3454
(dp3455
g54
(dp3456
sg63
g3441
sg56
(lp3457
g49
(g50
g51
NtRp3458
(dp3459
g54
(dp3460
g62
I5
ssg63
g3454
sg56
(lp3461
S"<open file 'D:\\Dise\xf1o Web\\Proyectos\\Parleyweb\\web2py\\applications\\parleyweb\\sessions\\127.0.0.1-b9128f42-ceb9-46f0-9b29-84d3a40c4ca4', mode 'rb+' at 0x07181BA8>"
p3462
asbasbasbag49
(g65
g51
NtRp3463
(dp3464
g54
(dp3465
sg63
g2702
sg56
(lp3466
g49
(g70
g51
NtRp3467
(dp3468
g54
(dp3469
g74
g75
ssg63
g3463
sg56
(lp3470
S'session_filename'
p3471
asbag49
(g70
g51
NtRp3472
(dp3473
g54
(dp3474
g81
g82
ssg63
g3463
sg56
(lp3475
S':'
asbag49
(g70
g51
NtRp3476
(dp3477
g54
(dp3478
sg63
g3463
sg56
(lp3479
g49
(g50
g51
NtRp3480
(dp3481
g54
(dp3482
g62
I5
ssg63
g3476
sg56
(lp3483
S'D:\\Dise\xf1o Web\\Proyectos\\Parleyweb\\web2py\\applications\\parleyweb\\sessions\\127.0.0.1-b9128f42-ceb9-46f0-9b29-84d3a40c4ca4'
p3484
asbasbasbag49
(g65
g51
NtRp3485
(dp3486
g54
(dp3487
sg63
g2702
sg56
(lp3488
g49
(g70
g51
NtRp3489
(dp3490
g54
(dp3491
g74
g75
ssg63
g3485
sg56
(lp3492
S'session_id'
p3493
asbag49
(g70
g51
NtRp3494
(dp3495
g54
(dp3496
g81
g82
ssg63
g3485
sg56
(lp3497
S':'
asbag49
(g70
g51
NtRp3498
(dp3499
g54
(dp3500
sg63
g3485
sg56
(lp3501
g49
(g50
g51
NtRp3502
(dp3503
g54
(dp3504
g62
I5
ssg63
g3498
sg56
(lp3505
S'127.0.0.1-b9128f42-ceb9-46f0-9b29-84d3a40c4ca4'
p3506
asbasbasbag49
(g65
g51
NtRp3507
(dp3508
g54
(dp3509
sg63
g2702
sg56
(lp3510
g49
(g70
g51
NtRp3511
(dp3512
g54
(dp3513
g74
g75
ssg63
g3507
sg56
(lp3514
S'session_id_name'
p3515
asbag49
(g70
g51
NtRp3516
(dp3517
g54
(dp3518
g81
g82
ssg63
g3507
sg56
(lp3519
S':'
asbag49
(g70
g51
NtRp3520
(dp3521
g54
(dp3522
sg63
g3507
sg56
(lp3523
g49
(g50
g51
NtRp3524
(dp3525
g54
(dp3526
g62
I5
ssg63
g3520
sg56
(lp3527
g2759
asbasbasbag49
(g65
g51
NtRp3528
(dp3529
g54
(dp3530
sg63
g2702
sg56
(lp3531
g49
(g70
g51
NtRp3532
(dp3533
g54
(dp3534
g74
g75
ssg63
g3528
sg56
(lp3535
S'session_locked'
p3536
asbag49
(g70
g51
NtRp3537
(dp3538
g54
(dp3539
g81
g82
ssg63
g3528
sg56
(lp3540
S':'
asbag49
(g70
g51
NtRp3541
(dp3542
g54
(dp3543
sg63
g3528
sg56
(lp3544
g49
(g50
g51
NtRp3545
(dp3546
g54
(dp3547
g62
I5
ssg63
g3541
sg56
(lp3548
g1276
asbasbasbag49
(g65
g51
NtRp3549
(dp3550
g54
(dp3551
sg63
g2702
sg56
(lp3552
g49
(g70
g51
NtRp3553
(dp3554
g54
(dp3555
g74
g75
ssg63
g3549
sg56
(lp3556
S'session_new'
p3557
asbag49
(g70
g51
NtRp3558
(dp3559
g54
(dp3560
g81
g82
ssg63
g3549
sg56
(lp3561
S':'
asbag49
(g70
g51
NtRp3562
(dp3563
g54
(dp3564
sg63
g3549
sg56
(lp3565
g49
(g50
g51
NtRp3566
(dp3567
g54
(dp3568
g62
I5
ssg63
g3562
sg56
(lp3569
g92
asbasbasbag49
(g65
g51
NtRp3570
(dp3571
g54
(dp3572
sg63
g2702
sg56
(lp3573
g49
(g70
g51
NtRp3574
(dp3575
g54
(dp3576
g74
g75
ssg63
g3570
sg56
(lp3577
S'status'
p3578
asbag49
(g70
g51
NtRp3579
(dp3580
g54
(dp3581
g81
g82
ssg63
g3570
sg56
(lp3582
S':'
asbag49
(g70
g51
NtRp3583
(dp3584
g54
(dp3585
sg63
g3570
sg56
(lp3586
g49
(g50
g51
NtRp3587
(dp3588
g54
(dp3589
g62
I5
ssg63
g3583
sg56
(lp3590
S'200'
p3591
asbasbasbag49
(g65
g51
NtRp3592
(dp3593
g54
(dp3594
sg63
g2702
sg56
(lp3595
g49
(g70
g51
NtRp3596
(dp3597
g54
(dp3598
g74
g75
ssg63
g3592
sg56
(lp3599
S'subtitle'
p3600
asbag49
(g70
g51
NtRp3601
(dp3602
g54
(dp3603
g81
g82
ssg63
g3592
sg56
(lp3604
S':'
asbag49
(g70
g51
NtRp3605
(dp3606
g54
(dp3607
sg63
g3592
sg56
(lp3608
g49
(g50
g51
NtRp3609
(dp3610
g54
(dp3611
g62
I5
ssg63
g3605
sg56
(lp3612
g3238
(S's\t\x00\x00\x00Adaptame!'
tRp3613
asbasbasbag49
(g65
g51
NtRp3614
(dp3615
g54
(dp3616
sg63
g2702
sg56
(lp3617
g49
(g70
g51
NtRp3618
(dp3619
g54
(dp3620
g74
g75
ssg63
g3614
sg56
(lp3621
S'title'
p3622
asbag49
(g70
g51
NtRp3623
(dp3624
g54
(dp3625
g81
g82
ssg63
g3614
sg56
(lp3626
S':'
asbag49
(g70
g51
NtRp3627
(dp3628
g54
(dp3629
sg63
g3614
sg56
(lp3630
g49
(g50
g51
NtRp3631
(dp3632
g54
(dp3633
g62
I5
ssg63
g3627
sg56
(lp3634
S'Parleyweb'
p3635
asbasbasbag49
(g65
g51
NtRp3636
(dp3637
g54
(dp3638
sg63
g2702
sg56
(lp3639
g49
(g70
g51
NtRp3640
(dp3641
g54
(dp3642
g74
g75
ssg63
g3636
sg56
(lp3643
g1962
asbag49
(g70
g51
NtRp3644
(dp3645
g54
(dp3646
g81
g82
ssg63
g3636
sg56
(lp3647
S':'
asbag49
(g70
g51
NtRp3648
(dp3649
g54
(dp3650
sg63
g3636
sg56
(lp3651
g49
(g50
g51
NtRp3652
(dp3653
g54
(dp3654
g62
I5
ssg63
g3648
sg56
(lp3655
g1975
asbasbasbag49
(g65
g51
NtRp3656
(dp3657
g54
(dp3658
sg63
g2702
sg56
(lp3659
g49
(g70
g51
NtRp3660
(dp3661
g54
(dp3662
g74
g75
ssg63
g3656
sg56
(lp3663
S'view'
p3664
asbag49
(g70
g51
NtRp3665
(dp3666
g54
(dp3667
g81
g82
ssg63
g3656
sg56
(lp3668
S':'
asbag49
(g70
g51
NtRp3669
(dp3670
g54
(dp3671
sg63
g3656
sg56
(lp3672
g49
(g50
g51
NtRp3673
(dp3674
g54
(dp3675
g62
I5
ssg63
g3669
sg56
(lp3676
S'default/mostrar.html'
p3677
asbasbasbasbasbsS'locals'
p3678
(dp3679
ssS'traceback'
p3680
S'Traceback (most recent call last):\n  File "gluon/restricted.py", line 205, in restricted\n  File "D:\\Dise\xf1o Web\\Proyectos\\Parleyweb\\web2py\\applications\\parleyweb\\controllers/default.py", line 116, in <module>\n  File "gluon/globals.py", line 173, in <lambda>\n  File "D:\\Dise\xf1o Web\\Proyectos\\Parleyweb\\web2py\\applications\\parleyweb\\controllers/default.py", line 78, in mostrar\nTypeError: \'NoneType\' object is not callable\n'
p3681
s.