(dp1
S'output'
p2
S"<type 'exceptions.KeyError'> 'tipo'"
p3
sS'layer'
p4
S'D:\\Dise\xf1o Web\\Proyectos\\Parleyweb\\web2py\\applications\\parleyweb\\views\\default/mostrar.html'
p5
sS'code'
p6
S'response.write(\'<!DOCTYPE html>\\n<!-- paulirish.com/2008/conditional-stylesheets-vs-css-hacks-answer-neither/ -->\\n<!--[if lt IE 7]><html class="ie ie6 ie-lte9 ie-lte8 ie-lte7 no-js" lang="\', escape=False)\nresponse.write(T.accepted_language or \'en\')\nresponse.write(\'"> <![endif]-->\\n<!--[if IE 7]><html class="ie ie7 ie-lte9 ie-lte8 ie-lte7 no-js" lang="\', escape=False)\nresponse.write(T.accepted_language or \'en\')\nresponse.write(\'"> <![endif]-->\\n<!--[if IE 8]><html class="ie ie8 ie-lte9 ie-lte8 no-js" lang="\', escape=False)\nresponse.write(T.accepted_language or \'en\')\nresponse.write(\'"> <![endif]-->\\n<!--[if IE 9]><html class="ie9 ie-lte9 no-js" lang="\', escape=False)\nresponse.write(T.accepted_language or \'en\')\nresponse.write(\'"> <![endif]-->\\n<!--[if (gt IE 9)|!(IE)]><!--> <html class="no-js" lang="\', escape=False)\nresponse.write(T.accepted_language or \'en\')\nresponse.write(\'"> <!--<![endif]-->\\n<head>\\n  <meta charset="utf-8" />\\n  <!-- www.phpied.com/conditional-comments-block-downloads/ -->\\n  <!-- Always force latest IE rendering engine\\n\\t   (even in intranet) & Chrome Frame\\n\\t   Remove this if you use the .htaccess -->\\n  <!--[if IE]>\\n    <meta http-equiv="X-UA-Compatible" content="IE=edge\', escape=False)\nresponse.write(not request.is_local and \',chrome=1\' or \'\')\nresponse.write(\'">\\n  <![endif]-->\\n  \\n  <title>\', escape=False)\nresponse.write(response.title or request.application)\nresponse.write(\'</title>\\n  \\n  <!-- http://dev.w3.org/html5/markup/meta.name.html -->\\n  <meta name="application-name" content="\', escape=False)\nresponse.write(request.application)\nresponse.write(\'" />\\n  \\n  <!-- Speaking of Google, don\\\'t forget to set your site up:\\n\\t   http://google.com/webmasters -->\\n  <meta name="google-site-verification" content="" />\\n\\n  <!--  Mobile Viewport Fix\\n\\t  j.mp/mobileviewport & davidbcalhoun.com/2010/viewport-metatag\\n\\t  device-width: Occupy full width of the screen in its current orientation\\n\\t  initial-scale = 1.0 retains dimensions instead of zooming out if page height > device height\\n\\t  user-scalable = yes allows the user to zoom in -->\\n  <meta name="viewport" content="width=device-width, initial-scale=1.0, user-scalable=yes">\\n  \\n  <!-- Place favicon.ico and apple-touch-icon.png in the root of your domain and delete these references -->\\n  <link rel="shortcut icon" href="\', escape=False)\nresponse.write(URL(\'static\',\'favicon.ico\'))\nresponse.write(\'" type="image/x-icon">\\n  <link rel="apple-touch-icon" href="\', escape=False)\nresponse.write(URL(\'static\',\'favicon.png\'))\nresponse.write(\'">\\n\\n  <!-- All JavaScript at the bottom, except for Modernizr which enables \\n\\t   HTML5 elements & feature detects -->\\n  <script src="\', escape=False)\nresponse.write(URL(\'static\',\'js/modernizr.custom.js\'))\nresponse.write(\'"></script>  \\n\\n  <!-- include stylesheets -->\\n  \', escape=False)\nresponse.files.append(URL(\'static\',\'css/bootstrap.css\'))\nresponse.files.append(URL(\'static\',\'js/bootstrap.js\'))\nresponse.files.append(URL(\'static\',\'css/parleyweb.css\'))\nresponse.files.append(URL(\'static\',\'css/jquery-ui-1.8.18.custom.css\'))\nresponse.files.append(URL(\'static\',\'js/parleyweb.js\'))\nresponse.files.append(URL(\'static\',\'js/jquery-ui-1.8.18.custom.min.js\'))\nresponse.write(\'\\n\\n  \', escape=False)\nresponse.write(\'<script type="text/javascript"><!--\\n    // These variables are used by the web2py_ajax_init function in web2py_ajax.js (which is loaded below).\\n    var w2p_ajax_confirm_message = "\', escape=False)\nresponse.write(T(\'Are you sure you want to delete this object?\'))\nresponse.write(\'";\\n    var w2p_ajax_date_format = "\', escape=False)\nresponse.write(T(\'%Y-%m-%d\'))\nresponse.write(\'";\\n    var w2p_ajax_datetime_format = "\', escape=False)\nresponse.write(T(\'%Y-%m-%d %H:%M:%S\'))\nresponse.write(\'";\\n    //--></script>\\n\', escape=False)\nresponse.files.insert(0,URL(\'static\',\'js/jquery.js\'))\nresponse.files.insert(1,URL(\'static\',\'css/calendar.css\'))\nresponse.files.insert(2,URL(\'static\',\'js/calendar.js\'))\nresponse.files.insert(3,URL(\'static\',\'js/web2py.js\'))\nresponse.include_meta()\nresponse.include_files()\nresponse.write(\'\\n\', escape=False)\nresponse.write(\'\\n\\n  \\n\\n  \', escape=False)\n# using sidebars need to know what sidebar you want to use\nleft_sidebar_enabled = globals().get(\'left_sidebar_enabled\',False)\nright_sidebar_enabled = globals().get(\'right_sidebar_enabled\',False)\nmiddle_columns = {0:\'sixteen\',1:\'twelve\',2:\'eight\'}[\n(left_sidebar_enabled and 1 or 0)+(right_sidebar_enabled and 1 or 0)]\nresponse.write(\'\\n\\n  <!-- uncomment here to load jquery-ui\\n  <link rel="stylesheet" href="http://ajax.googleapis.com/ajax/libs/jqueryui/1.8.16/themes/base/jquery-ui.css" type="text/css" media="all" />\\n  <script src="http://ajax.googleapis.com/ajax/libs/jqueryui/1.8.16/jquery-ui.min.js" type="text/javascript"></script>\\n  uncomment to load jquery-ui //-->\\n</head>\\n <body>\\n\\n    <div class="navbar navbar-fixed-top">\\n      <div class="navbar-inner">\\n        <div class="container-fluid">\\n          <a class="btn btn-navbar" data-toggle="collapse" data-target=".nav-collapse">\\n            <span class="icon-bar"></span>\\n            <span class="icon-bar"></span>\\n            <span class="icon-bar"></span>\\n          </a>\\n          <a class="brand" href="#">Parleyweb</a>\\n          <div class="nav-collapse">\\n\\t    \', escape=False)\n#=MENU(response.menu, _class="nav active")\nresponse.write(\'\\n            <ul class="nav">\\n              <li>\', escape=False)\nresponse.write(A(T(\'Administracion\'), _href=URL(\'admin\', \'index\')))\nresponse.write(\'</li>\\n            </ul>\\n\\t    \\n            <p class="navbar-text pull-right">\', escape=False)\nresponse.write(\'auth\' in globals() and auth.navbar(separators=(\' \',\' | \',\'\')))\nresponse.write(\'</p>\\n          </div><!--/.nav-collapse -->\\n        </div>\\n      </div>\\n    </div>\\n    <div class="flash alert alert-info"></i>\', escape=False)\nresponse.write(response.flash or \'\')\nresponse.write(\'</div>\\n    <div class="container-fluid">\\n      <div class="row-fluid">\\n        <div class="span3">\\n          <div class="well sidebar-nav">\\n            <ul class="nav nav-list">\\n              <li class="nav-header">\', escape=False)\nresponse.write(T(\'Buscar\'))\nresponse.write(\'</li>\\n            </ul>\\n          </div><!--/.well -->\\n        </div><!--/span-->\\n        <div class="span9">\\n\\t  \', escape=False)\nresponse.write(\'\\n\\t    \', escape=False)\nresponse.write(\'\\n\\n   \', escape=False)\nif palabras:\n    response.write(\'                                                             <!-- INICIO IF PALABRAS -->\\n   \\n        \\n        \\n       <h3 class="h3_redondo">\', escape=False)\n    response.write(palabras.palabra.capitalize())\n    response.write(\'</h3>\\n       \\n                                                                                <!-- SI LA PALABRA ES UN VERBO Y SUSTANTIVO A LA VEZ -->\\n       \\n        \', escape=False)\n    if palabras.sustantivo==True and palabras.verbo==True:\n        response.write(\'  <!-- 1 -->\\n        <div class="btn-group botones_mostrar" data-toggle="buttons-checkbox">\\n           <!-- <button class="btn btn-info " onclick=\\\'$("#toggle1-mostrar").slideToggle(200);\\\'>Mostrar como sustantivo</button> -->\\n            <button class="btn btn-info toggle-mostrar-verbo">\\n                <span class="mostrar-verbo"><i class="icon-plus-sign icon-white"></i> Mostrar verbo</span>\\n                <span class="ocultar-verbo hide"><i class="icon-minus-sign icon-white"></i> Ocultar</span>\\n            </button>\\n            <!--<button class="btn btn-info">Ambos</button> -->\\n            <button class="btn btn-info toggle-mostrar-sustantivo">\\n                <span class="mostrar-sustantivo"><i class="icon-plus-sign icon-white"></i> Mostrar sustantivo</span>\\n                <span class="ocultar-sustantivo hide"><i class="icon-minus-sign icon-white"></i> Ocultar</span>\\n            </button>\\n        </div>\\n        <div id="toggle-mostrar-verbo" class="hide">                            <!-- INICIO DIV OCULTO PARA MOSTRAR EL VERBO -->\\n            <div class="toggle-mostrar"><h4>Verbo</h4></div>\\n            <div class="wellparley2">\\n                <h4 class="h4-mostrar">Ejemplos</h4>\\n                <table class="table table-striped table-bordered">\\n                    <thead>\\n                        <tr>\\n                            <th>\', escape=False)\n        response.write(IMG(_src=URL(\'static\', \'images/germany.gif\')))\n        response.write(\'</th>\\n                            <th>\', escape=False)\n        response.write(IMG(_src=URL(\'static\', \'images/spain.gif\')))\n        response.write(\'</th>\\n                            <th>Fuente</th>\\n                        </tr>\\n                    </thead>\\n                    <tbody>\\n                       \\n                        \', escape=False)\n        for registro in ejemplos(db.ejemplos.verbo==True).select(db.ejemplos.ALL):\n            response.write(\'\\n                           \\n                        <tr>\\n                            <td>\\n                                \', escape=False)\n            response.write(registro.ejemplo_de)\n            response.write(\'\\n                            </td>\\n                            <td>\\n                                \', escape=False)\n            response.write(registro.ejemplo_es)\n            response.write(\'\\n                               \\n                            </td>\\n                               \\n                            <td>\\n                                 \', escape=False)\n            if registro.fuente:\n                response.write(\'\\n                                    \', escape=False)\n                response.write(registro.fuente.nombre)\n                response.write(\'\\n                                \', escape=False)\n                pass\n            response.write(\'\\n                            </td>\\n                        </tr>\\n                        \', escape=False)\n            pass\n        response.write(\'\\n                    </tbody>\\n                </table>\\n                \\n            </div>\\n        </div>                                                                  <!-- FIN DIV OCULTO PARA MOSTRAR EL VERBO -->\\n        \\n        \\n        <div id="toggle-mostrar-sustantivo" class="hide">                       <!-- INICIO DIV OCULTO PARA MOSTRAR EL SUSTANTIVO -->\\n            <div class="toggle-mostrar">\\n                <h4>Sustantivo</h4>\\n                <a href="#" class="tip" rel="tooltip" \', escape=False)\n        if palabras.articulo==\'Die\':\n            response.write(\'\\n                                                            title="Femenino"\\n                                                        \', escape=False)\n        elif palabras.articulo==\'Der\':\n            response.write(\'\\n                                                            title="Masculino"\\n                                                        \', escape=False)\n        elif palabras.articulo==\'Das\':\n            response.write(\'\\n                                                            title="Neutro"\\n                                                        \', escape=False)\n        else:\n            response.write(\'\\n                                                            title="No hay"\\n                                                        \', escape=False)\n            pass\n        response.write(\'>\\n                    \', escape=False)\n        response.write(palabras.articulo.capitalize())\n        response.write(\'\\n                </a>\\n                <span>\', escape=False)\n        response.write(palabras.palabra.capitalize())\n        response.write(\'</span>\\n                <span>-</span>\\n                <a href="#" class="tip" rel="tooltip" title="Plural">(\', escape=False)\n        response.write(palabras.plural)\n        response.write(\')</a>\\n                <a href="#" class="float_right tip img ocultar-tip"  rel="tooltip" title="Mostrar"><i class="icon-camera icon-white"></i></a>\\n                <a href="#" class="float_right tip img mostrar-tip" id="ocultar-tip" rel="tooltip" title="Ocultar"><i class="icon-camera icon-white"></i></a>\\n            </div>\\n            <div class="wellparley2">\\n                <div id="imagen-sustantivo" class="hide"> \\n                    \', escape=False)\n        if not palabras.imagen:\n            response.write(\'\\n                        <p>No hay imagen</p>\\n                    \', escape=False)\n        else:\n            response.write(\'\\n                        <img class="img-sustantivo" src="\', escape=False)\n            response.write(URL(\'download\', args=palabras.imagen))\n            response.write(\'" />\\n                    \', escape=False)\n            pass\n        response.write(\'\\n                </div>\\n                <h4 class="h4-mostrar">Ejemplos</h4>\\n                <table class="table table-striped table-bordered">\\n                    <thead>\\n                        <tr>\\n                            <th>\', escape=False)\n        response.write(IMG(_src=URL(\'static\', \'images/germany.gif\')))\n        response.write(\'</th>\\n                            <th>\', escape=False)\n        response.write(IMG(_src=URL(\'static\', \'images/spain.gif\')))\n        response.write(\'</th>\\n                            <th>Fuente</th>\\n                        </tr>\\n                    </thead>\\n                    <tbody>\\n                        \', escape=False)\n        for registro in ejemplos(db.ejemplos.tipo==\'sustantivo\').select(db.ejemplos.ALL):\n            response.write(\'\\n                        <tr>\\n                            <td>\\n                                \', escape=False)\n            response.write(registro.ejemplo_de)\n            response.write(\'\\n                            </td>\\n                            <td>\\n                                \', escape=False)\n            response.write(registro.ejemplo_es)\n            response.write(\'\\n                            </td>\\n                               \\n                            <td>\\n                                 \', escape=False)\n            if registro.fuente:\n                response.write(\'\\n                                    \', escape=False)\n                response.write(registro.fuente.nombre)\n                response.write(\'\\n                                \', escape=False)\n                pass\n            response.write(\'\\n                            </td>\\n                        </tr>\\n                        \', escape=False)\n            pass\n        response.write(\'\\n                    </tbody>\\n                </table>\\n            </div>\\n        </div>                                                                  <!-- FIN DIV OCULTO PARA MOSTRAR EL SUSTANTIVO -->\\n        \\n                                                                                <!-- FIN SI LA PALABRA ES UN SUSTANTIVO Y VERBO A LA VEZ -->\\n                        \\n                                                                                 <!-- SIN  LA PALABRA ES SOLO UN SUSTANTIVO -->\\n        \\n        \', escape=False)\n    elif palabras.sustantivo==True:\n        response.write(\' <!-- 2 -->\\n            <div class="toggle-mostrar">\\n                <h4>Sustantivo</h4>\\n                <a href="#" class="tip" rel="tooltip" \', escape=False)\n        if palabras.articulo==\'Die\':\n            response.write(\'\\n                                                            title="Femenino"\\n                                                        \', escape=False)\n        elif palabras.articulo==\'Der\':\n            response.write(\'\\n                                                            title="Masculino"\\n                                                        \', escape=False)\n        elif palabras.articulo==\'Das\':\n            response.write(\'\\n                                                            title="Neutro"\\n                                                        \', escape=False)\n        else:\n            response.write(\'\\n                                                            title="No hay"\\n                                                        \', escape=False)\n            pass\n        response.write(\'>\\n                    \', escape=False)\n        response.write(palabras.articulo.capitalize())\n        response.write(\'\\n                </a>\\n                <span>\', escape=False)\n        response.write(palabras.palabra.capitalize())\n        response.write(\'</span>\\n                <span>-</span>\\n                <a href="#" class="tip" rel="tooltip" title="Plural">(\', escape=False)\n        response.write(palabras.plural)\n        response.write(\')</a>\\n                <a href="#" class="float_right tip img ocultar-tip"  rel="tooltip" title="Mostrar"><i class="icon-camera icon-white"></i></a>\\n                <a href="#" class="float_right tip img mostrar-tip" id="ocultar-tip" rel="tooltip" title="Ocultar"><i class="icon-camera icon-white"></i></a>\\n            </div>\\n            <div class="wellparley2">\\n                <div id="imagen-sustantivo" class="hide"> \\n                    \', escape=False)\n        if not palabras.imagen:\n            response.write(\'\\n                        <p>No hay imagen</p>\\n                    \', escape=False)\n        else:\n            response.write(\'\\n                        <img class="img-sustantivo" src="\', escape=False)\n            response.write(URL(\'download\', args=palabras.imagen))\n            response.write(\'" />\\n                    \', escape=False)\n            pass\n        response.write(\'\\n                </div>\\n                <h4 class="h4-mostrar">Ejemplos</h4>\\n                <table class="table table-striped table-bordered">\\n                    <tbody>\\n                        <thead>\\n                        <tr>\\n                            <th>\', escape=False)\n        response.write(IMG(_src=URL(\'static\', \'images/germany.gif\')))\n        response.write(\'</th>\\n                            <th>\', escape=False)\n        response.write(IMG(_src=URL(\'static\', \'images/spain.gif\')))\n        response.write(\'</th>\\n                            <th>Fuente</th>\\n                        </tr>\\n                    </thead>\\n                          \', escape=False)\n        for registro in ejemplos(db.ejemplos.tipo==\'sustantivo\').select(db.ejemplos.ALL):\n            response.write(\'\\n                        <tr>\\n                            <td>\\n                                \', escape=False)\n            response.write(registro.ejemplo_de)\n            response.write(\'\\n                            </td>\\n                            <td>\\n                                \', escape=False)\n            response.write(registro.ejemplo_es)\n            response.write(\'\\n                            </td>\\n                               \\n                            <td>\\n                                 \', escape=False)\n            if registro.fuente:\n                response.write(\'\\n                                    \', escape=False)\n                response.write(registro.fuente.nombre)\n                response.write(\'\\n                                \', escape=False)\n                pass\n            response.write(\'\\n                            </td>\\n                        </tr>\\n                        \', escape=False)\n            pass\n        response.write(\'\\n                    </tbody>\\n                </table>\\n            </div>\\n            \\n        \', escape=False)\n    elif palabras.adjetivo==True and palabras.adverbio==True:\n        response.write(\'           <!-- SI LA PALABRAS ES UN ADJETIVO Y UN ADVERBIO -->\\n            <div class="btn-group botones_mostrar" data-toggle="buttons-checkbox">\\n           <!-- <button class="btn btn-info " onclick=\\\'$("#toggle1-mostrar").slideToggle(200);\\\'>Mostrar como sustantivo</button> -->\\n            <button class="btn btn-info toggle-mostrar-verbo">\\n                <span class="mostrar-verbo"><i class="icon-plus-sign icon-white"></i> Mostrar Adverbio</span>\\n                <span class="ocultar-verbo hide"><i class="icon-minus-sign icon-white"></i> Ocultar</span>\\n            </button>\\n            <!--<button class="btn btn-info">Ambos</button> -->\\n            <button class="btn btn-info toggle-mostrar-sustantivo">\\n                <span class="mostrar-sustantivo"><i class="icon-plus-sign icon-white"></i> Mostrar Adjetivo</span>\\n                <span class="ocultar-sustantivo hide"><i class="icon-minus-sign icon-white"></i> Ocultar</span>\\n            </button>\\n        </div>\\n        <div id="toggle-mostrar-verbo" class="hide">                            <!-- INICIO DIV OCULTO PARA MOSTRAR EL ADVERBIO -->\\n            <div class="toggle-mostrar"><h4>Adverbio</h4></div>\\n            <div class="wellparley2">\\n                <h4 class="h4-mostrar">Ejemplos</h4>\\n                <table class="table table-striped table-bordered">\\n                    <thead>\\n                        <tr>\\n                            <th>\', escape=False)\n        response.write(IMG(_src=URL(\'static\', \'images/germany.gif\')))\n        response.write(\'</th>\\n                            <th>\', escape=False)\n        response.write(IMG(_src=URL(\'static\', \'images/spain.gif\')))\n        response.write(\'</th>\\n                            <th>Fuente</th>\\n                        </tr>\\n                    </thead>\\n                    <tbody>\\n                        \', escape=False)\n        for registro in ejemplos(db.ejemplos.tipo==\'adverbio\').select(db.ejemplos.ALL):\n            response.write(\'\\n                        <tr>\\n                            <td>\\n                                \', escape=False)\n            response.write(registro.ejemplo_de)\n            response.write(\'\\n                            </td>\\n                            <td>\\n                                \', escape=False)\n            response.write(registro.ejemplo_es)\n            response.write(\'\\n                            </td>\\n                               \\n                            <td>\\n                                 \', escape=False)\n            if registro.fuente:\n                response.write(\'\\n                                    \', escape=False)\n                response.write(registro.fuente.nombre)\n                response.write(\'\\n                                \', escape=False)\n                pass\n            response.write(\'\\n                            </td>\\n                        </tr>\\n                        \', escape=False)\n            pass\n        response.write(\'\\n                    </tbody>\\n                </table>\\n                \\n            </div>\\n        </div>                                                                  <!-- FIN DIV OCULTO PARA MOSTRAR EL ADVERBIO -->\\n        \\n        \\n        <div id="toggle-mostrar-sustantivo" class="hide">                       <!-- INICIO DIV OCULTO PARA MOSTRAR EL ADJETIVO -->\\n            <div class="toggle-mostrar">\\n                <h4>Adjetivo</h4>\\n            </div>\\n            <div class="wellparley2">\\n                <h4 class="h4-mostrar">Ejemplos</h4>\\n                <table class="table table-striped table-bordered">\\n                    <thead>\\n                        <tr>\\n                            <th>\', escape=False)\n        response.write(IMG(_src=URL(\'static\', \'images/germany.gif\')))\n        response.write(\'</th>\\n                            <th>\', escape=False)\n        response.write(IMG(_src=URL(\'static\', \'images/spain.gif\')))\n        response.write(\'</th>\\n                            <th>Fuente</th>\\n                        </tr>\\n                    </thead>\\n                    <tbody>\\n                        \', escape=False)\n        for registro in ejemplos(db.ejemplos.tipo==\'adjetivo\').select(db.ejemplos.ALL):\n            response.write(\'\\n                        <tr>\\n                            <td>\\n                                \', escape=False)\n            response.write(registro.ejemplo_de)\n            response.write(\'\\n                            </td>\\n                            <td>\\n                                \', escape=False)\n            response.write(registro.ejemplo_es)\n            response.write(\'\\n                            </td>\\n                               \\n                            <td>\\n                                 \', escape=False)\n            if registro.fuente:\n                response.write(\'\\n                                    \', escape=False)\n                response.write(registro.fuente.nombre)\n                response.write(\'\\n                                \', escape=False)\n                pass\n            response.write(\'\\n                            </td>\\n                        </tr>\\n                        \', escape=False)\n            pass\n        response.write(\'\\n                    </tbody>\\n                </table>\\n            </div>\\n        </div>                                                                  <!-- FIN DIV OCULTO PARA MOSTRAR EL ADJETIVO -->\\n        \\n                                                                                <!-- FIN SI LA PALABRA ES UN ADVERVIO Y ADJETIVO -->\\n            \\n        \', escape=False)\n    elif palabras.adjetivo==True:\n        response.write(\'                                       <!-- SI LA PALABRAS ES UN ADJETIVO  -->\\n            <div class="toggle-mostrar">\\n                <h4>Adjetivo</h4>\\n            </div>\\n            <div class="wellparley2">\\n                <h4 class="h4-mostrar">Ejemplos</h4>\\n                <table class="table table-striped table-bordered">\\n                    <tbody>\\n                        <thead>\\n                        <tr>\\n                            <th>\', escape=False)\n        response.write(IMG(_src=URL(\'static\', \'images/germany.gif\')))\n        response.write(\'</th>\\n                            <th>\', escape=False)\n        response.write(IMG(_src=URL(\'static\', \'images/spain.gif\')))\n        response.write(\'</th>\\n                            <th>Fuente</th>\\n                        </tr>\\n                    </thead>\\n                          \', escape=False)\n        for registro in ejemplos(db.ejemplos.tipo==\'adjetivo\').select():\n            response.write(\'\\n                        <tr>\\n                            <td>\\n                                \', escape=False)\n            response.write(registro.ejemplo_de)\n            response.write(\'\\n                            </td>\\n                            <td>\\n                                \', escape=False)\n            response.write(registro.ejemplo_es)\n            response.write(\'\\n                            </td>\\n                               \\n                            <td>\\n                                \', escape=False)\n            if registro.fuente:\n                response.write(\'\\n                                    \', escape=False)\n                response.write(registro.fuente.nombre)\n                response.write(\'\\n                                \', escape=False)\n                pass\n            response.write(\'\\n                            </td>\\n                        </tr>\\n                        \', escape=False)\n            pass\n        response.write(\'\\n                    </tbody>\\n                </table>\\n            </div>\\n            \\n        \', escape=False)\n    elif palabras.adverbio==True:\n        response.write(\'           <!-- SI LA PALABRAS ES UN ADVERVIO  -->\\n            <div class="toggle-mostrar">\\n                <h4>Adverbio</h4>\\n            </div>\\n            <div class="wellparley2">\\n                <h4 class="h4-mostrar">Ejemplos</h4>\\n                <table class="table table-striped table-bordered">\\n                    <tbody>\\n                        <thead>\\n                        <tr>\\n                            <th>\', escape=False)\n        response.write(IMG(_src=URL(\'static\', \'images/germany.gif\')))\n        response.write(\'</th>\\n                            <th>\', escape=False)\n        response.write(IMG(_src=URL(\'static\', \'images/spain.gif\')))\n        response.write(\'</th>\\n                            <th>Fuente</th>\\n                        </tr>\\n                    </thead>\\n                          \', escape=False)\n        for registro in ejemplos(db.ejemplos.tipo==\'adverbio\').select():\n            response.write(\'\\n                        <tr>\\n                            <td>\\n                                \', escape=False)\n            response.write(registro.ejemplo_de)\n            response.write(\'\\n                            </td>\\n                            <td>\\n                                \', escape=False)\n            response.write(registro.ejemplo_es)\n            response.write(\'\\n                            </td>\\n                               \\n                            <td>\\n                                \', escape=False)\n            if registro.fuente:\n                response.write(\'\\n                                    \', escape=False)\n                response.write(registro.fuente.nombre)\n                response.write(\'\\n                                \', escape=False)\n                pass\n            response.write(\'\\n                            </td>\\n                        </tr>\\n                        \', escape=False)\n            pass\n        response.write(\'\\n                    </tbody>\\n                </table>\\n            </div>\\n            \\n            \\n        \', escape=False)\n        pass\n    response.write(\'                                                                <!-- FIN SEGUNDO IF CASOS QUE SE PUEDEN DAR CON LAS PALABRAS -->\\n        \\n    \', escape=False)\n    pass\nresponse.write(\'                                                                    <!-- FIN IF PALABRAS -->\\n \\n\', escape=False)\nresponse.write(\'\\n\\t  \', escape=False)\nresponse.write("\\n          \\n        </div><!--/span-->\\n      </div><!--/row-->\\n\\n      <hr>\\n\\n      <footer>\\n        <p>\\xc2\\xa9 Company 2012</p>\\n      </footer>\\n\\n    </div><!--/.fluid-container-->\\n    \\n    <!-- Le javascript\\n    ================================================== -->\\n    <!-- Placed at the end of the document so the pages load faster \\n    <script>\\n      $(function () {\\n      $(\'.tabs a:last\').tab(\'show\')\\n      })\\n    </script>-->\\n   \\n\\n \\n\\n</body>\\n</html>\\n", escape=False)'
p7
sS'snapshot'
p8
(dp9
S'exception'
p10
(dp11
S'__hash__'
p12
S"<method-wrapper '__hash__' of exceptions.KeyError object at 0x06E20F30>"
p13
sS'__setattr__'
p14
S"<method-wrapper '__setattr__' of exceptions.KeyError object at 0x06E20F30>"
p15
sS'__reduce_ex__'
p16
S'<built-in method __reduce_ex__ of exceptions.KeyError object at 0x06E20F30>'
p17
sS'__getslice__'
p18
S"<method-wrapper '__getslice__' of exceptions.KeyError object at 0x06E20F30>"
p19
sS'__getitem__'
p20
S"<method-wrapper '__getitem__' of exceptions.KeyError object at 0x06E20F30>"
p21
sS'__setstate__'
p22
S'<built-in method __setstate__ of exceptions.KeyError object at 0x06E20F30>'
p23
sS'__reduce__'
p24
S'<built-in method __reduce__ of exceptions.KeyError object at 0x06E20F30>'
p25
sS'__str__'
p26
S"<method-wrapper '__str__' of exceptions.KeyError object at 0x06E20F30>"
p27
sS'args'
p28
S"('tipo',)"
p29
sS'__getattribute__'
p30
S"<method-wrapper '__getattribute__' of exceptions.KeyError object at 0x06E20F30>"
p31
sS'__class__'
p32
S"<type 'exceptions.KeyError'>"
p33
sS'__delattr__'
p34
S"<method-wrapper '__delattr__' of exceptions.KeyError object at 0x06E20F30>"
p35
sS'__repr__'
p36
S"<method-wrapper '__repr__' of exceptions.KeyError object at 0x06E20F30>"
p37
sS'__dict__'
p38
S'{}'
p39
sS'__doc__'
p40
S"'Mapping key not found.'"
p41
sS'__init__'
p42
S"<method-wrapper '__init__' of exceptions.KeyError object at 0x06E20F30>"
p43
sS'__new__'
p44
S'<built-in method __new__ of type object at 0x1E1CDFB8>'
p45
ssS'evalue'
p46
S"'tipo'"
p47
sS'request'
p48
ccopy_reg
_reconstructor
p49
(cgluon.html
BEAUTIFY
p50
c__builtin__
object
p51
NtRp52
(dp53
S'attributes'
p54
(dp55
sS'components'
p56
(lp57
g49
(cgluon.html
TABLE
p58
g51
NtRp59
(dp60
g54
(dp61
S'level'
p62
I5
ssS'parent'
p63
Nsg56
(lp64
g49
(cgluon.html
TR
p65
g51
NtRp66
(dp67
g54
(dp68
sg63
g59
sg56
(lp69
g49
(cgluon.html
TD
p70
g51
NtRp71
(dp72
g54
(dp73
S'_style'
p74
S'font-weight:bold;vertical-align:top'
p75
ssg63
g66
sg56
(lp76
S'ajax'
p77
asbag49
(g70
g51
NtRp78
(dp79
g54
(dp80
S'_valign'
p81
S'top'
p82
ssg63
g66
sg56
(lp83
S':'
asbag49
(g70
g51
NtRp84
(dp85
g54
(dp86
sg63
g66
sg56
(lp87
g49
(g50
g51
NtRp88
(dp89
g54
(dp90
g62
I5
ssg63
g84
sg56
(lp91
S'False'
p92
asbasbasbag49
(g65
g51
NtRp93
(dp94
g54
(dp95
sg63
g59
sg56
(lp96
g49
(g70
g51
NtRp97
(dp98
g54
(dp99
g74
g75
ssg63
g93
sg56
(lp100
S'application'
p101
asbag49
(g70
g51
NtRp102
(dp103
g54
(dp104
g81
g82
ssg63
g93
sg56
(lp105
S':'
asbag49
(g70
g51
NtRp106
(dp107
g54
(dp108
sg63
g93
sg56
(lp109
g49
(g50
g51
NtRp110
(dp111
g54
(dp112
g62
I5
ssg63
g106
sg56
(lp113
S'parleyweb'
p114
asbasbasbag49
(g65
g51
NtRp115
(dp116
g54
(dp117
sg63
g59
sg56
(lp118
g49
(g70
g51
NtRp119
(dp120
g54
(dp121
g74
g75
ssg63
g115
sg56
(lp122
S'body'
p123
asbag49
(g70
g51
NtRp124
(dp125
g54
(dp126
g81
g82
ssg63
g115
sg56
(lp127
S':'
asbag49
(g70
g51
NtRp128
(dp129
g54
(dp130
sg63
g115
sg56
(lp131
g49
(g50
g51
NtRp132
(dp133
g54
(dp134
g62
I5
ssg63
g128
sg56
(lp135
S'<cStringIO.StringO object at 0x076EA200>'
p136
asbasbasbag49
(g65
g51
NtRp137
(dp138
g54
(dp139
sg63
g59
sg56
(lp140
g49
(g70
g51
NtRp141
(dp142
g54
(dp143
g74
g75
ssg63
g137
sg56
(lp144
S'client'
p145
asbag49
(g70
g51
NtRp146
(dp147
g54
(dp148
g81
g82
ssg63
g137
sg56
(lp149
S':'
asbag49
(g70
g51
NtRp150
(dp151
g54
(dp152
sg63
g137
sg56
(lp153
g49
(g50
g51
NtRp154
(dp155
g54
(dp156
g62
I5
ssg63
g150
sg56
(lp157
S'127.0.0.1'
p158
asbasbasbag49
(g65
g51
NtRp159
(dp160
g54
(dp161
sg63
g59
sg56
(lp162
g49
(g70
g51
NtRp163
(dp164
g54
(dp165
g74
g75
ssg63
g159
sg56
(lp166
S'controller'
p167
asbag49
(g70
g51
NtRp168
(dp169
g54
(dp170
g81
g82
ssg63
g159
sg56
(lp171
S':'
asbag49
(g70
g51
NtRp172
(dp173
g54
(dp174
sg63
g159
sg56
(lp175
g49
(g50
g51
NtRp176
(dp177
g54
(dp178
g62
I5
ssg63
g172
sg56
(lp179
S'default'
p180
asbasbasbag49
(g65
g51
NtRp181
(dp182
g54
(dp183
sg63
g59
sg56
(lp184
g49
(g70
g51
NtRp185
(dp186
g54
(dp187
g74
g75
ssg63
g181
sg56
(lp188
S'cookies'
p189
asbag49
(g70
g51
NtRp190
(dp191
g54
(dp192
g81
g82
ssg63
g181
sg56
(lp193
S':'
asbag49
(g70
g51
NtRp194
(dp195
g54
(dp196
sg63
g181
sg56
(lp197
g49
(g50
g51
NtRp198
(dp199
g54
(dp200
g62
I5
ssg63
g194
sg56
(lp201
g49
(g58
g51
NtRp202
(dp203
g54
(dp204
g62
I4
ssg63
Nsg56
(lp205
g49
(g65
g51
NtRp206
(dp207
g54
(dp208
sg63
g202
sg56
(lp209
g49
(g70
g51
NtRp210
(dp211
g54
(dp212
g74
g75
ssg63
g206
sg56
(lp213
S'session_id_admin'
p214
asbag49
(g70
g51
NtRp215
(dp216
g54
(dp217
g81
g82
ssg63
g206
sg56
(lp218
S':'
asbag49
(g70
g51
NtRp219
(dp220
g54
(dp221
sg63
g206
sg56
(lp222
g49
(g50
g51
NtRp223
(dp224
g54
(dp225
g62
I4
ssg63
g219
sg56
(lp226
g49
(g58
g51
NtRp227
(dp228
g54
(dp229
g62
I3
ssg63
Nsg56
(lp230
g49
(g65
g51
NtRp231
(dp232
g54
(dp233
sg63
g227
sg56
(lp234
g49
(g70
g51
NtRp235
(dp236
g54
(dp237
g74
g75
ssg63
g231
sg56
(lp238
S'comment'
p239
asbag49
(g70
g51
NtRp240
(dp241
g54
(dp242
g81
g82
ssg63
g231
sg56
(lp243
S':'
asbag49
(g70
g51
NtRp244
(dp245
g54
(dp246
sg63
g231
sg56
(lp247
g49
(g50
g51
NtRp248
(dp249
g54
(dp250
g62
I3
ssg63
g244
sg56
(lp251
S''
asbasbasbag49
(g65
g51
NtRp252
(dp253
g54
(dp254
sg63
g227
sg56
(lp255
g49
(g70
g51
NtRp256
(dp257
g54
(dp258
g74
g75
ssg63
g252
sg56
(lp259
S'domain'
p260
asbag49
(g70
g51
NtRp261
(dp262
g54
(dp263
g81
g82
ssg63
g252
sg56
(lp264
S':'
asbag49
(g70
g51
NtRp265
(dp266
g54
(dp267
sg63
g252
sg56
(lp268
g49
(g50
g51
NtRp269
(dp270
g54
(dp271
g62
I3
ssg63
g265
sg56
(lp272
S''
asbasbasbag49
(g65
g51
NtRp273
(dp274
g54
(dp275
sg63
g227
sg56
(lp276
g49
(g70
g51
NtRp277
(dp278
g54
(dp279
g74
g75
ssg63
g273
sg56
(lp280
S'expires'
p281
asbag49
(g70
g51
NtRp282
(dp283
g54
(dp284
g81
g82
ssg63
g273
sg56
(lp285
S':'
asbag49
(g70
g51
NtRp286
(dp287
g54
(dp288
sg63
g273
sg56
(lp289
g49
(g50
g51
NtRp290
(dp291
g54
(dp292
g62
I3
ssg63
g286
sg56
(lp293
S''
asbasbasbag49
(g65
g51
NtRp294
(dp295
g54
(dp296
sg63
g227
sg56
(lp297
g49
(g70
g51
NtRp298
(dp299
g54
(dp300
g74
g75
ssg63
g294
sg56
(lp301
S'max-age'
p302
asbag49
(g70
g51
NtRp303
(dp304
g54
(dp305
g81
g82
ssg63
g294
sg56
(lp306
S':'
asbag49
(g70
g51
NtRp307
(dp308
g54
(dp309
sg63
g294
sg56
(lp310
g49
(g50
g51
NtRp311
(dp312
g54
(dp313
g62
I3
ssg63
g307
sg56
(lp314
S''
asbasbasbag49
(g65
g51
NtRp315
(dp316
g54
(dp317
sg63
g227
sg56
(lp318
g49
(g70
g51
NtRp319
(dp320
g54
(dp321
g74
g75
ssg63
g315
sg56
(lp322
S'path'
p323
asbag49
(g70
g51
NtRp324
(dp325
g54
(dp326
g81
g82
ssg63
g315
sg56
(lp327
S':'
asbag49
(g70
g51
NtRp328
(dp329
g54
(dp330
sg63
g315
sg56
(lp331
g49
(g50
g51
NtRp332
(dp333
g54
(dp334
g62
I3
ssg63
g328
sg56
(lp335
S''
asbasbasbag49
(g65
g51
NtRp336
(dp337
g54
(dp338
sg63
g227
sg56
(lp339
g49
(g70
g51
NtRp340
(dp341
g54
(dp342
g74
g75
ssg63
g336
sg56
(lp343
S'secure'
p344
asbag49
(g70
g51
NtRp345
(dp346
g54
(dp347
g81
g82
ssg63
g336
sg56
(lp348
S':'
asbag49
(g70
g51
NtRp349
(dp350
g54
(dp351
sg63
g336
sg56
(lp352
g49
(g50
g51
NtRp353
(dp354
g54
(dp355
g62
I3
ssg63
g349
sg56
(lp356
S''
asbasbasbag49
(g65
g51
NtRp357
(dp358
g54
(dp359
sg63
g227
sg56
(lp360
g49
(g70
g51
NtRp361
(dp362
g54
(dp363
g74
g75
ssg63
g357
sg56
(lp364
S'version'
p365
asbag49
(g70
g51
NtRp366
(dp367
g54
(dp368
g81
g82
ssg63
g357
sg56
(lp369
S':'
asbag49
(g70
g51
NtRp370
(dp371
g54
(dp372
sg63
g357
sg56
(lp373
g49
(g50
g51
NtRp374
(dp375
g54
(dp376
g62
I3
ssg63
g370
sg56
(lp377
S''
asbasbasbasbasbasbasbag49
(g65
g51
NtRp378
(dp379
g54
(dp380
sg63
g202
sg56
(lp381
g49
(g70
g51
NtRp382
(dp383
g54
(dp384
g74
g75
ssg63
g378
sg56
(lp385
S'session_id_parleyweb'
p386
asbag49
(g70
g51
NtRp387
(dp388
g54
(dp389
g81
g82
ssg63
g378
sg56
(lp390
S':'
asbag49
(g70
g51
NtRp391
(dp392
g54
(dp393
sg63
g378
sg56
(lp394
g49
(g50
g51
NtRp395
(dp396
g54
(dp397
g62
I4
ssg63
g391
sg56
(lp398
g49
(g58
g51
NtRp399
(dp400
g54
(dp401
g62
I3
ssg63
Nsg56
(lp402
g49
(g65
g51
NtRp403
(dp404
g54
(dp405
sg63
g399
sg56
(lp406
g49
(g70
g51
NtRp407
(dp408
g54
(dp409
g74
g75
ssg63
g403
sg56
(lp410
g239
asbag49
(g70
g51
NtRp411
(dp412
g54
(dp413
g81
g82
ssg63
g403
sg56
(lp414
S':'
asbag49
(g70
g51
NtRp415
(dp416
g54
(dp417
sg63
g403
sg56
(lp418
g49
(g50
g51
NtRp419
(dp420
g54
(dp421
g62
I3
ssg63
g415
sg56
(lp422
S''
asbasbasbag49
(g65
g51
NtRp423
(dp424
g54
(dp425
sg63
g399
sg56
(lp426
g49
(g70
g51
NtRp427
(dp428
g54
(dp429
g74
g75
ssg63
g423
sg56
(lp430
g260
asbag49
(g70
g51
NtRp431
(dp432
g54
(dp433
g81
g82
ssg63
g423
sg56
(lp434
S':'
asbag49
(g70
g51
NtRp435
(dp436
g54
(dp437
sg63
g423
sg56
(lp438
g49
(g50
g51
NtRp439
(dp440
g54
(dp441
g62
I3
ssg63
g435
sg56
(lp442
S''
asbasbasbag49
(g65
g51
NtRp443
(dp444
g54
(dp445
sg63
g399
sg56
(lp446
g49
(g70
g51
NtRp447
(dp448
g54
(dp449
g74
g75
ssg63
g443
sg56
(lp450
g281
asbag49
(g70
g51
NtRp451
(dp452
g54
(dp453
g81
g82
ssg63
g443
sg56
(lp454
S':'
asbag49
(g70
g51
NtRp455
(dp456
g54
(dp457
sg63
g443
sg56
(lp458
g49
(g50
g51
NtRp459
(dp460
g54
(dp461
g62
I3
ssg63
g455
sg56
(lp462
S''
asbasbasbag49
(g65
g51
NtRp463
(dp464
g54
(dp465
sg63
g399
sg56
(lp466
g49
(g70
g51
NtRp467
(dp468
g54
(dp469
g74
g75
ssg63
g463
sg56
(lp470
g302
asbag49
(g70
g51
NtRp471
(dp472
g54
(dp473
g81
g82
ssg63
g463
sg56
(lp474
S':'
asbag49
(g70
g51
NtRp475
(dp476
g54
(dp477
sg63
g463
sg56
(lp478
g49
(g50
g51
NtRp479
(dp480
g54
(dp481
g62
I3
ssg63
g475
sg56
(lp482
S''
asbasbasbag49
(g65
g51
NtRp483
(dp484
g54
(dp485
sg63
g399
sg56
(lp486
g49
(g70
g51
NtRp487
(dp488
g54
(dp489
g74
g75
ssg63
g483
sg56
(lp490
g323
asbag49
(g70
g51
NtRp491
(dp492
g54
(dp493
g81
g82
ssg63
g483
sg56
(lp494
S':'
asbag49
(g70
g51
NtRp495
(dp496
g54
(dp497
sg63
g483
sg56
(lp498
g49
(g50
g51
NtRp499
(dp500
g54
(dp501
g62
I3
ssg63
g495
sg56
(lp502
S''
asbasbasbag49
(g65
g51
NtRp503
(dp504
g54
(dp505
sg63
g399
sg56
(lp506
g49
(g70
g51
NtRp507
(dp508
g54
(dp509
g74
g75
ssg63
g503
sg56
(lp510
g344
asbag49
(g70
g51
NtRp511
(dp512
g54
(dp513
g81
g82
ssg63
g503
sg56
(lp514
S':'
asbag49
(g70
g51
NtRp515
(dp516
g54
(dp517
sg63
g503
sg56
(lp518
g49
(g50
g51
NtRp519
(dp520
g54
(dp521
g62
I3
ssg63
g515
sg56
(lp522
S''
asbasbasbag49
(g65
g51
NtRp523
(dp524
g54
(dp525
sg63
g399
sg56
(lp526
g49
(g70
g51
NtRp527
(dp528
g54
(dp529
g74
g75
ssg63
g523
sg56
(lp530
g365
asbag49
(g70
g51
NtRp531
(dp532
g54
(dp533
g81
g82
ssg63
g523
sg56
(lp534
S':'
asbag49
(g70
g51
NtRp535
(dp536
g54
(dp537
sg63
g523
sg56
(lp538
g49
(g50
g51
NtRp539
(dp540
g54
(dp541
g62
I3
ssg63
g535
sg56
(lp542
S''
asbasbasbasbasbasbasbasbasbasbasbag49
(g65
g51
NtRp543
(dp544
g54
(dp545
sg63
g59
sg56
(lp546
g49
(g70
g51
NtRp547
(dp548
g54
(dp549
g74
g75
ssg63
g543
sg56
(lp550
S'env'
p551
asbag49
(g70
g51
NtRp552
(dp553
g54
(dp554
g81
g82
ssg63
g543
sg56
(lp555
S':'
asbag49
(g70
g51
NtRp556
(dp557
g54
(dp558
sg63
g543
sg56
(lp559
g49
(g50
g51
NtRp560
(dp561
g54
(dp562
g62
I5
ssg63
g556
sg56
(lp563
g49
(g58
g51
NtRp564
(dp565
g54
(dp566
g62
I4
ssg63
Nsg56
(lp567
g49
(g65
g51
NtRp568
(dp569
g54
(dp570
sg63
g564
sg56
(lp571
g49
(g70
g51
NtRp572
(dp573
g54
(dp574
g74
g75
ssg63
g568
sg56
(lp575
S'app_folders'
p576
asbag49
(g70
g51
NtRp577
(dp578
g54
(dp579
g81
g82
ssg63
g568
sg56
(lp580
S':'
asbag49
(g70
g51
NtRp581
(dp582
g54
(dp583
sg63
g568
sg56
(lp584
g49
(g50
g51
NtRp585
(dp586
g54
(dp587
g62
I4
ssg63
g581
sg56
(lp588
S"set(['D:\\\\Dise\\xf1o Web\\\\Proyectos\\\\Parleyweb\\\\web2py\\\\applications\\\\parleyweb\\\\', 'D:\\\\Dise\\xf1o Web\\\\Proyectos\\\\Parleyweb\\\\web2py\\\\applications\\\\admin\\\\'])"
p589
asbasbasbag49
(g65
g51
NtRp590
(dp591
g54
(dp592
sg63
g564
sg56
(lp593
g49
(g70
g51
NtRp594
(dp595
g54
(dp596
g74
g75
ssg63
g590
sg56
(lp597
S'applications_parent'
p598
asbag49
(g70
g51
NtRp599
(dp600
g54
(dp601
g81
g82
ssg63
g590
sg56
(lp602
S':'
asbag49
(g70
g51
NtRp603
(dp604
g54
(dp605
sg63
g590
sg56
(lp606
g49
(g50
g51
NtRp607
(dp608
g54
(dp609
g62
I4
ssg63
g603
sg56
(lp610
S'D:\\Dise\xf1o Web\\Proyectos\\Parleyweb\\web2py'
p611
asbasbasbag49
(g65
g51
NtRp612
(dp613
g54
(dp614
sg63
g564
sg56
(lp615
g49
(g70
g51
NtRp616
(dp617
g54
(dp618
g74
g75
ssg63
g612
sg56
(lp619
S'cmd_args'
p620
asbag49
(g70
g51
NtRp621
(dp622
g54
(dp623
g81
g82
ssg63
g612
sg56
(lp624
S':'
asbag49
(g70
g51
NtRp625
(dp626
g54
(dp627
sg63
g612
sg56
(lp628
g49
(g50
g51
NtRp629
(dp630
g54
(dp631
g62
I4
ssg63
g625
sg56
(lp632
g49
(g58
g51
NtRp633
(dp634
g54
(dp635
g62
I3
ssg63
Nsg56
(lp636
sbasbasbasbag49
(g65
g51
NtRp637
(dp638
g54
(dp639
sg63
g564
sg56
(lp640
g49
(g70
g51
NtRp641
(dp642
g54
(dp643
g74
g75
ssg63
g637
sg56
(lp644
S'cmd_options'
p645
asbag49
(g70
g51
NtRp646
(dp647
g54
(dp648
g81
g82
ssg63
g637
sg56
(lp649
S':'
asbag49
(g70
g51
NtRp650
(dp651
g54
(dp652
sg63
g637
sg56
(lp653
g49
(g50
g51
NtRp654
(dp655
g54
(dp656
g62
I4
ssg63
g650
sg56
(lp657
S"<Values at 0x3185238: {'verbose': False, 'ip': '127.0.0.1', 'shutdown_timeout': 5, 'taskbar': False, 'nocron': False, 'pid_filename': 'httpserver.pid', 'maxthreads': None, 'softcron': False, 'server_name': 'craxsnet-PC', 'bpython': False, 'nogui': False, 'port': 8000, 'extcron': False, 'debuglevel': 30, 'test': None, 'folder': 'D:\\\\Dise\\xf1o Web\\\\Proyectos\\\\Parleyweb\\\\web2py', 'config': '', 'import_models': False, 'winservice': '', 'shell': None, 'run': '', 'log_filename': 'httpserver.log', 'args': [''], 'socket_timeout': 5, 'ssl_ca_certificate': None, 'scheduler': None, 'profiler_filename': None, 'ssl_private_key': '', 'password': '<ask>', 'request_queue_size': 5, 'ssl_certificate': '', 'cronjob': False, 'numthreads': None, 'quiet': False, 'interfaces': None, 'minthreads': None, 'timeout': 10, 'plain': False, 'nobanner': False}>"
p658
asbasbasbag49
(g65
g51
NtRp659
(dp660
g54
(dp661
sg63
g564
sg56
(lp662
g49
(g70
g51
NtRp663
(dp664
g54
(dp665
g74
g75
ssg63
g659
sg56
(lp666
S'db_sessions'
p667
asbag49
(g70
g51
NtRp668
(dp669
g54
(dp670
g81
g82
ssg63
g659
sg56
(lp671
S':'
asbag49
(g70
g51
NtRp672
(dp673
g54
(dp674
sg63
g659
sg56
(lp675
g49
(g50
g51
NtRp676
(dp677
g54
(dp678
g62
I4
ssg63
g672
sg56
(lp679
S'set([])'
p680
asbasbasbag49
(g65
g51
NtRp681
(dp682
g54
(dp683
sg63
g564
sg56
(lp684
g49
(g70
g51
NtRp685
(dp686
g54
(dp687
g74
g75
ssg63
g681
sg56
(lp688
S'debugging'
p689
asbag49
(g70
g51
NtRp690
(dp691
g54
(dp692
g81
g82
ssg63
g681
sg56
(lp693
S':'
asbag49
(g70
g51
NtRp694
(dp695
g54
(dp696
sg63
g681
sg56
(lp697
g49
(g50
g51
NtRp698
(dp699
g54
(dp700
g62
I4
ssg63
g694
sg56
(lp701
g92
asbasbasbag49
(g65
g51
NtRp702
(dp703
g54
(dp704
sg63
g564
sg56
(lp705
g49
(g70
g51
NtRp706
(dp707
g54
(dp708
g74
g75
ssg63
g702
sg56
(lp709
S'gluon_parent'
p710
asbag49
(g70
g51
NtRp711
(dp712
g54
(dp713
g81
g82
ssg63
g702
sg56
(lp714
S':'
asbag49
(g70
g51
NtRp715
(dp716
g54
(dp717
sg63
g702
sg56
(lp718
g49
(g50
g51
NtRp719
(dp720
g54
(dp721
g62
I4
ssg63
g715
sg56
(lp722
S'D:\\Dise\xf1o Web\\Proyectos\\Parleyweb\\web2py'
p723
asbasbasbag49
(g65
g51
NtRp724
(dp725
g54
(dp726
sg63
g564
sg56
(lp727
g49
(g70
g51
NtRp728
(dp729
g54
(dp730
g74
g75
ssg63
g724
sg56
(lp731
S'http_accept'
p732
asbag49
(g70
g51
NtRp733
(dp734
g54
(dp735
g81
g82
ssg63
g724
sg56
(lp736
S':'
asbag49
(g70
g51
NtRp737
(dp738
g54
(dp739
sg63
g724
sg56
(lp740
g49
(g50
g51
NtRp741
(dp742
g54
(dp743
g62
I4
ssg63
g737
sg56
(lp744
S'text/html,application/xhtml+xml,application/xml;q=0.9,*/*;q=0.8'
p745
asbasbasbag49
(g65
g51
NtRp746
(dp747
g54
(dp748
sg63
g564
sg56
(lp749
g49
(g70
g51
NtRp750
(dp751
g54
(dp752
g74
g75
ssg63
g746
sg56
(lp753
S'http_accept_encoding'
p754
asbag49
(g70
g51
NtRp755
(dp756
g54
(dp757
g81
g82
ssg63
g746
sg56
(lp758
S':'
asbag49
(g70
g51
NtRp759
(dp760
g54
(dp761
sg63
g746
sg56
(lp762
g49
(g50
g51
NtRp763
(dp764
g54
(dp765
g62
I4
ssg63
g759
sg56
(lp766
S'gzip, deflate'
p767
asbasbasbag49
(g65
g51
NtRp768
(dp769
g54
(dp770
sg63
g564
sg56
(lp771
g49
(g70
g51
NtRp772
(dp773
g54
(dp774
g74
g75
ssg63
g768
sg56
(lp775
S'http_accept_language'
p776
asbag49
(g70
g51
NtRp777
(dp778
g54
(dp779
g81
g82
ssg63
g768
sg56
(lp780
S':'
asbag49
(g70
g51
NtRp781
(dp782
g54
(dp783
sg63
g768
sg56
(lp784
g49
(g50
g51
NtRp785
(dp786
g54
(dp787
g62
I4
ssg63
g781
sg56
(lp788
S'es-es,de-de;q=0.8,es;q=0.6,en-us;q=0.4,en;q=0.2'
p789
asbasbasbag49
(g65
g51
NtRp790
(dp791
g54
(dp792
sg63
g564
sg56
(lp793
g49
(g70
g51
NtRp794
(dp795
g54
(dp796
g74
g75
ssg63
g790
sg56
(lp797
S'http_connection'
p798
asbag49
(g70
g51
NtRp799
(dp800
g54
(dp801
g81
g82
ssg63
g790
sg56
(lp802
S':'
asbag49
(g70
g51
NtRp803
(dp804
g54
(dp805
sg63
g790
sg56
(lp806
g49
(g50
g51
NtRp807
(dp808
g54
(dp809
g62
I4
ssg63
g803
sg56
(lp810
S'keep-alive'
p811
asbasbasbag49
(g65
g51
NtRp812
(dp813
g54
(dp814
sg63
g564
sg56
(lp815
g49
(g70
g51
NtRp816
(dp817
g54
(dp818
g74
g75
ssg63
g812
sg56
(lp819
S'http_cookie'
p820
asbag49
(g70
g51
NtRp821
(dp822
g54
(dp823
g81
g82
ssg63
g812
sg56
(lp824
S':'
asbag49
(g70
g51
NtRp825
(dp826
g54
(dp827
sg63
g812
sg56
(lp828
g49
(g50
g51
NtRp829
(dp830
g54
(dp831
g62
I4
ssg63
g825
sg56
(lp832
S'__utma=96992031.26429765.1325029743.1325029743.1326549329.2; __utmz=96992031.1325029743.1.1.utmcsr=(direct)|utmccn=(direct)|utmcmd=(none); session_id_parleyweb=127.0.0.1-8bc0d624-a7ac-4822-aaf0-ed4b06ce8341; session_id_admin=127.0.0.1-eddd88b7-6525-4662-ad3e-796276cded35'
p833
asbasbasbag49
(g65
g51
NtRp834
(dp835
g54
(dp836
sg63
g564
sg56
(lp837
g49
(g70
g51
NtRp838
(dp839
g54
(dp840
g74
g75
ssg63
g834
sg56
(lp841
S'http_host'
p842
asbag49
(g70
g51
NtRp843
(dp844
g54
(dp845
g81
g82
ssg63
g834
sg56
(lp846
S':'
asbag49
(g70
g51
NtRp847
(dp848
g54
(dp849
sg63
g834
sg56
(lp850
g49
(g50
g51
NtRp851
(dp852
g54
(dp853
g62
I4
ssg63
g847
sg56
(lp854
S'127.0.0.1:8000'
p855
asbasbasbag49
(g65
g51
NtRp856
(dp857
g54
(dp858
sg63
g564
sg56
(lp859
g49
(g70
g51
NtRp860
(dp861
g54
(dp862
g74
g75
ssg63
g856
sg56
(lp863
S'http_referer'
p864
asbag49
(g70
g51
NtRp865
(dp866
g54
(dp867
g81
g82
ssg63
g856
sg56
(lp868
S':'
asbag49
(g70
g51
NtRp869
(dp870
g54
(dp871
sg63
g856
sg56
(lp872
g49
(g50
g51
NtRp873
(dp874
g54
(dp875
g62
I4
ssg63
g869
sg56
(lp876
S'http://127.0.0.1:8000/parleyweb/admin/agregar_palabra'
p877
asbasbasbag49
(g65
g51
NtRp878
(dp879
g54
(dp880
sg63
g564
sg56
(lp881
g49
(g70
g51
NtRp882
(dp883
g54
(dp884
g74
g75
ssg63
g878
sg56
(lp885
S'http_user_agent'
p886
asbag49
(g70
g51
NtRp887
(dp888
g54
(dp889
g81
g82
ssg63
g878
sg56
(lp890
S':'
asbag49
(g70
g51
NtRp891
(dp892
g54
(dp893
sg63
g878
sg56
(lp894
g49
(g50
g51
NtRp895
(dp896
g54
(dp897
g62
I4
ssg63
g891
sg56
(lp898
S'Mozilla/5.0 (Windows NT 6.1; WOW64; rv:10.0.2) Gecko/20100101 Firefox/10.0.2'
p899
asbasbasbag49
(g65
g51
NtRp900
(dp901
g54
(dp902
sg63
g564
sg56
(lp903
g49
(g70
g51
NtRp904
(dp905
g54
(dp906
g74
g75
ssg63
g900
sg56
(lp907
S'is_jython'
p908
asbag49
(g70
g51
NtRp909
(dp910
g54
(dp911
g81
g82
ssg63
g900
sg56
(lp912
S':'
asbag49
(g70
g51
NtRp913
(dp914
g54
(dp915
sg63
g900
sg56
(lp916
g49
(g50
g51
NtRp917
(dp918
g54
(dp919
g62
I4
ssg63
g913
sg56
(lp920
g92
asbasbasbag49
(g65
g51
NtRp921
(dp922
g54
(dp923
sg63
g564
sg56
(lp924
g49
(g70
g51
NtRp925
(dp926
g54
(dp927
g74
g75
ssg63
g921
sg56
(lp928
S'is_pypy'
p929
asbag49
(g70
g51
NtRp930
(dp931
g54
(dp932
g81
g82
ssg63
g921
sg56
(lp933
S':'
asbag49
(g70
g51
NtRp934
(dp935
g54
(dp936
sg63
g921
sg56
(lp937
g49
(g50
g51
NtRp938
(dp939
g54
(dp940
g62
I4
ssg63
g934
sg56
(lp941
g92
asbasbasbag49
(g65
g51
NtRp942
(dp943
g54
(dp944
sg63
g564
sg56
(lp945
g49
(g70
g51
NtRp946
(dp947
g54
(dp948
g74
g75
ssg63
g942
sg56
(lp949
S'path_info'
p950
asbag49
(g70
g51
NtRp951
(dp952
g54
(dp953
g81
g82
ssg63
g942
sg56
(lp954
S':'
asbag49
(g70
g51
NtRp955
(dp956
g54
(dp957
sg63
g942
sg56
(lp958
g49
(g50
g51
NtRp959
(dp960
g54
(dp961
g62
I4
ssg63
g955
sg56
(lp962
S'/parleyweb/default/mostrar/82'
p963
asbasbasbag49
(g65
g51
NtRp964
(dp965
g54
(dp966
sg63
g564
sg56
(lp967
g49
(g70
g51
NtRp968
(dp969
g54
(dp970
g74
g75
ssg63
g964
sg56
(lp971
S'query_string'
p972
asbag49
(g70
g51
NtRp973
(dp974
g54
(dp975
g81
g82
ssg63
g964
sg56
(lp976
S':'
asbag49
(g70
g51
NtRp977
(dp978
g54
(dp979
sg63
g964
sg56
(lp980
g49
(g50
g51
NtRp981
(dp982
g54
(dp983
g62
I4
ssg63
g977
sg56
(lp984
S''
asbasbasbag49
(g65
g51
NtRp985
(dp986
g54
(dp987
sg63
g564
sg56
(lp988
g49
(g70
g51
NtRp989
(dp990
g54
(dp991
g74
g75
ssg63
g985
sg56
(lp992
S'remote_addr'
p993
asbag49
(g70
g51
NtRp994
(dp995
g54
(dp996
g81
g82
ssg63
g985
sg56
(lp997
S':'
asbag49
(g70
g51
NtRp998
(dp999
g54
(dp1000
sg63
g985
sg56
(lp1001
g49
(g50
g51
NtRp1002
(dp1003
g54
(dp1004
g62
I4
ssg63
g998
sg56
(lp1005
g158
asbasbasbag49
(g65
g51
NtRp1006
(dp1007
g54
(dp1008
sg63
g564
sg56
(lp1009
g49
(g70
g51
NtRp1010
(dp1011
g54
(dp1012
g74
g75
ssg63
g1006
sg56
(lp1013
S'remote_port'
p1014
asbag49
(g70
g51
NtRp1015
(dp1016
g54
(dp1017
g81
g82
ssg63
g1006
sg56
(lp1018
S':'
asbag49
(g70
g51
NtRp1019
(dp1020
g54
(dp1021
sg63
g1006
sg56
(lp1022
g49
(g50
g51
NtRp1023
(dp1024
g54
(dp1025
g62
I4
ssg63
g1019
sg56
(lp1026
S'53328'
p1027
asbasbasbag49
(g65
g51
NtRp1028
(dp1029
g54
(dp1030
sg63
g564
sg56
(lp1031
g49
(g70
g51
NtRp1032
(dp1033
g54
(dp1034
g74
g75
ssg63
g1028
sg56
(lp1035
S'request_method'
p1036
asbag49
(g70
g51
NtRp1037
(dp1038
g54
(dp1039
g81
g82
ssg63
g1028
sg56
(lp1040
S':'
asbag49
(g70
g51
NtRp1041
(dp1042
g54
(dp1043
sg63
g1028
sg56
(lp1044
g49
(g50
g51
NtRp1045
(dp1046
g54
(dp1047
g62
I4
ssg63
g1041
sg56
(lp1048
S'GET'
p1049
asbasbasbag49
(g65
g51
NtRp1050
(dp1051
g54
(dp1052
sg63
g564
sg56
(lp1053
g49
(g70
g51
NtRp1054
(dp1055
g54
(dp1056
g74
g75
ssg63
g1050
sg56
(lp1057
S'request_uri'
p1058
asbag49
(g70
g51
NtRp1059
(dp1060
g54
(dp1061
g81
g82
ssg63
g1050
sg56
(lp1062
S':'
asbag49
(g70
g51
NtRp1063
(dp1064
g54
(dp1065
sg63
g1050
sg56
(lp1066
g49
(g50
g51
NtRp1067
(dp1068
g54
(dp1069
g62
I4
ssg63
g1063
sg56
(lp1070
g963
asbasbasbag49
(g65
g51
NtRp1071
(dp1072
g54
(dp1073
sg63
g564
sg56
(lp1074
g49
(g70
g51
NtRp1075
(dp1076
g54
(dp1077
g74
g75
ssg63
g1071
sg56
(lp1078
S'script_name'
p1079
asbag49
(g70
g51
NtRp1080
(dp1081
g54
(dp1082
g81
g82
ssg63
g1071
sg56
(lp1083
S':'
asbag49
(g70
g51
NtRp1084
(dp1085
g54
(dp1086
sg63
g1071
sg56
(lp1087
g49
(g50
g51
NtRp1088
(dp1089
g54
(dp1090
g62
I4
ssg63
g1084
sg56
(lp1091
S''
asbasbasbag49
(g65
g51
NtRp1092
(dp1093
g54
(dp1094
sg63
g564
sg56
(lp1095
g49
(g70
g51
NtRp1096
(dp1097
g54
(dp1098
g74
g75
ssg63
g1092
sg56
(lp1099
S'server_name'
p1100
asbag49
(g70
g51
NtRp1101
(dp1102
g54
(dp1103
g81
g82
ssg63
g1092
sg56
(lp1104
S':'
asbag49
(g70
g51
NtRp1105
(dp1106
g54
(dp1107
sg63
g1092
sg56
(lp1108
g49
(g50
g51
NtRp1109
(dp1110
g54
(dp1111
g62
I4
ssg63
g1105
sg56
(lp1112
S'craxsnet-PC'
p1113
asbasbasbag49
(g65
g51
NtRp1114
(dp1115
g54
(dp1116
sg63
g564
sg56
(lp1117
g49
(g70
g51
NtRp1118
(dp1119
g54
(dp1120
g74
g75
ssg63
g1114
sg56
(lp1121
S'server_port'
p1122
asbag49
(g70
g51
NtRp1123
(dp1124
g54
(dp1125
g81
g82
ssg63
g1114
sg56
(lp1126
S':'
asbag49
(g70
g51
NtRp1127
(dp1128
g54
(dp1129
sg63
g1114
sg56
(lp1130
g49
(g50
g51
NtRp1131
(dp1132
g54
(dp1133
g62
I4
ssg63
g1127
sg56
(lp1134
S'8000'
p1135
asbasbasbag49
(g65
g51
NtRp1136
(dp1137
g54
(dp1138
sg63
g564
sg56
(lp1139
g49
(g70
g51
NtRp1140
(dp1141
g54
(dp1142
g74
g75
ssg63
g1136
sg56
(lp1143
S'server_protocol'
p1144
asbag49
(g70
g51
NtRp1145
(dp1146
g54
(dp1147
g81
g82
ssg63
g1136
sg56
(lp1148
S':'
asbag49
(g70
g51
NtRp1149
(dp1150
g54
(dp1151
sg63
g1136
sg56
(lp1152
g49
(g50
g51
NtRp1153
(dp1154
g54
(dp1155
g62
I4
ssg63
g1149
sg56
(lp1156
S'HTTP/1.1'
p1157
asbasbasbag49
(g65
g51
NtRp1158
(dp1159
g54
(dp1160
sg63
g564
sg56
(lp1161
g49
(g70
g51
NtRp1162
(dp1163
g54
(dp1164
g74
g75
ssg63
g1158
sg56
(lp1165
S'server_software'
p1166
asbag49
(g70
g51
NtRp1167
(dp1168
g54
(dp1169
g81
g82
ssg63
g1158
sg56
(lp1170
S':'
asbag49
(g70
g51
NtRp1171
(dp1172
g54
(dp1173
sg63
g1158
sg56
(lp1174
g49
(g50
g51
NtRp1175
(dp1176
g54
(dp1177
g62
I4
ssg63
g1171
sg56
(lp1178
S'Rocket 1.2.4'
p1179
asbasbasbag49
(g65
g51
NtRp1180
(dp1181
g54
(dp1182
sg63
g564
sg56
(lp1183
g49
(g70
g51
NtRp1184
(dp1185
g54
(dp1186
g74
g75
ssg63
g1180
sg56
(lp1187
S'web2py_crontype'
p1188
asbag49
(g70
g51
NtRp1189
(dp1190
g54
(dp1191
g81
g82
ssg63
g1180
sg56
(lp1192
S':'
asbag49
(g70
g51
NtRp1193
(dp1194
g54
(dp1195
sg63
g1180
sg56
(lp1196
g49
(g50
g51
NtRp1197
(dp1198
g54
(dp1199
g62
I4
ssg63
g1193
sg56
(lp1200
S'hard'
p1201
asbasbasbag49
(g65
g51
NtRp1202
(dp1203
g54
(dp1204
sg63
g564
sg56
(lp1205
g49
(g70
g51
NtRp1206
(dp1207
g54
(dp1208
g74
g75
ssg63
g1202
sg56
(lp1209
S'web2py_original_uri'
p1210
asbag49
(g70
g51
NtRp1211
(dp1212
g54
(dp1213
g81
g82
ssg63
g1202
sg56
(lp1214
S':'
asbag49
(g70
g51
NtRp1215
(dp1216
g54
(dp1217
sg63
g1202
sg56
(lp1218
g49
(g50
g51
NtRp1219
(dp1220
g54
(dp1221
g62
I4
ssg63
g1215
sg56
(lp1222
S'/parleyweb/default/mostrar/82'
p1223
asbasbasbag49
(g65
g51
NtRp1224
(dp1225
g54
(dp1226
sg63
g564
sg56
(lp1227
g49
(g70
g51
NtRp1228
(dp1229
g54
(dp1230
g74
g75
ssg63
g1224
sg56
(lp1231
S'web2py_path'
p1232
asbag49
(g70
g51
NtRp1233
(dp1234
g54
(dp1235
g81
g82
ssg63
g1224
sg56
(lp1236
S':'
asbag49
(g70
g51
NtRp1237
(dp1238
g54
(dp1239
sg63
g1224
sg56
(lp1240
g49
(g50
g51
NtRp1241
(dp1242
g54
(dp1243
g62
I4
ssg63
g1237
sg56
(lp1244
g611
asbasbasbag49
(g65
g51
NtRp1245
(dp1246
g54
(dp1247
sg63
g564
sg56
(lp1248
g49
(g70
g51
NtRp1249
(dp1250
g54
(dp1251
g74
g75
ssg63
g1245
sg56
(lp1252
S'web2py_version'
p1253
asbag49
(g70
g51
NtRp1254
(dp1255
g54
(dp1256
g81
g82
ssg63
g1245
sg56
(lp1257
S':'
asbag49
(g70
g51
NtRp1258
(dp1259
g54
(dp1260
sg63
g1245
sg56
(lp1261
g49
(g50
g51
NtRp1262
(dp1263
g54
(dp1264
g62
I4
ssg63
g1258
sg56
(lp1265
g49
(g58
g51
NtRp1266
(dp1267
g54
(dp1268
g62
I3
ssg63
Nsg56
(lp1269
g49
(g65
g51
NtRp1270
(dp1271
g54
(dp1272
sg63
g1266
sg56
(lp1273
g49
(g70
g51
NtRp1274
(dp1275
g54
(dp1276
sg63
g1270
sg56
(lp1277
g49
(g50
g51
NtRp1278
(dp1279
g54
(dp1280
g62
I3
ssg63
g1274
sg56
(lp1281
S'1'
asbasbasbag49
(g65
g51
NtRp1282
(dp1283
g54
(dp1284
sg63
g1266
sg56
(lp1285
g49
(g70
g51
NtRp1286
(dp1287
g54
(dp1288
sg63
g1282
sg56
(lp1289
g49
(g50
g51
NtRp1290
(dp1291
g54
(dp1292
g62
I3
ssg63
g1286
sg56
(lp1293
S'99'
p1294
asbasbasbag49
(g65
g51
NtRp1295
(dp1296
g54
(dp1297
sg63
g1266
sg56
(lp1298
g49
(g70
g51
NtRp1299
(dp1300
g54
(dp1301
sg63
g1295
sg56
(lp1302
g49
(g50
g51
NtRp1303
(dp1304
g54
(dp1305
g62
I3
ssg63
g1299
sg56
(lp1306
S'7'
asbasbasbag49
(g65
g51
NtRp1307
(dp1308
g54
(dp1309
sg63
g1266
sg56
(lp1310
g49
(g70
g51
NtRp1311
(dp1312
g54
(dp1313
sg63
g1307
sg56
(lp1314
g49
(g50
g51
NtRp1315
(dp1316
g54
(dp1317
g62
I3
ssg63
g1311
sg56
(lp1318
S'datetime.datetime(2012, 3, 4, 22, 12, 8)'
p1319
asbasbasbag49
(g65
g51
NtRp1320
(dp1321
g54
(dp1322
sg63
g1266
sg56
(lp1323
g49
(g70
g51
NtRp1324
(dp1325
g54
(dp1326
sg63
g1320
sg56
(lp1327
g49
(g50
g51
NtRp1328
(dp1329
g54
(dp1330
g62
I3
ssg63
g1324
sg56
(lp1331
S'stable'
p1332
asbasbasbasbasbasbasbag49
(g65
g51
NtRp1333
(dp1334
g54
(dp1335
sg63
g564
sg56
(lp1336
g49
(g70
g51
NtRp1337
(dp1338
g54
(dp1339
g74
g75
ssg63
g1333
sg56
(lp1340
S'wsgi_errors'
p1341
asbag49
(g70
g51
NtRp1342
(dp1343
g54
(dp1344
g81
g82
ssg63
g1333
sg56
(lp1345
S':'
asbag49
(g70
g51
NtRp1346
(dp1347
g54
(dp1348
sg63
g1333
sg56
(lp1349
g49
(g50
g51
NtRp1350
(dp1351
g54
(dp1352
g62
I4
ssg63
g1346
sg56
(lp1353
S"<open file '<stderr>', mode 'w' at 0x004200B0>"
p1354
asbasbasbag49
(g65
g51
NtRp1355
(dp1356
g54
(dp1357
sg63
g564
sg56
(lp1358
g49
(g70
g51
NtRp1359
(dp1360
g54
(dp1361
g74
g75
ssg63
g1355
sg56
(lp1362
S'wsgi_file_wrapper'
p1363
asbag49
(g70
g51
NtRp1364
(dp1365
g54
(dp1366
g81
g82
ssg63
g1355
sg56
(lp1367
S':'
asbag49
(g70
g51
NtRp1368
(dp1369
g54
(dp1370
sg63
g1355
sg56
(lp1371
g49
(g50
g51
NtRp1372
(dp1373
g54
(dp1374
g62
I4
ssg63
g1368
sg56
(lp1375
S'<class wsgiref.util.FileWrapper at 0x02FC6390>'
p1376
asbasbasbag49
(g65
g51
NtRp1377
(dp1378
g54
(dp1379
sg63
g564
sg56
(lp1380
g49
(g70
g51
NtRp1381
(dp1382
g54
(dp1383
g74
g75
ssg63
g1377
sg56
(lp1384
S'wsgi_input'
p1385
asbag49
(g70
g51
NtRp1386
(dp1387
g54
(dp1388
g81
g82
ssg63
g1377
sg56
(lp1389
S':'
asbag49
(g70
g51
NtRp1390
(dp1391
g54
(dp1392
sg63
g1377
sg56
(lp1393
g49
(g50
g51
NtRp1394
(dp1395
g54
(dp1396
g62
I4
ssg63
g1390
sg56
(lp1397
S'<socket._fileobject object at 0x07587170>'
p1398
asbasbasbag49
(g65
g51
NtRp1399
(dp1400
g54
(dp1401
sg63
g564
sg56
(lp1402
g49
(g70
g51
NtRp1403
(dp1404
g54
(dp1405
g74
g75
ssg63
g1399
sg56
(lp1406
S'wsgi_multiprocess'
p1407
asbag49
(g70
g51
NtRp1408
(dp1409
g54
(dp1410
g81
g82
ssg63
g1399
sg56
(lp1411
S':'
asbag49
(g70
g51
NtRp1412
(dp1413
g54
(dp1414
sg63
g1399
sg56
(lp1415
g49
(g50
g51
NtRp1416
(dp1417
g54
(dp1418
g62
I4
ssg63
g1412
sg56
(lp1419
g92
asbasbasbag49
(g65
g51
NtRp1420
(dp1421
g54
(dp1422
sg63
g564
sg56
(lp1423
g49
(g70
g51
NtRp1424
(dp1425
g54
(dp1426
g74
g75
ssg63
g1420
sg56
(lp1427
S'wsgi_multithread'
p1428
asbag49
(g70
g51
NtRp1429
(dp1430
g54
(dp1431
g81
g82
ssg63
g1420
sg56
(lp1432
S':'
asbag49
(g70
g51
NtRp1433
(dp1434
g54
(dp1435
sg63
g1420
sg56
(lp1436
g49
(g50
g51
NtRp1437
(dp1438
g54
(dp1439
g62
I4
ssg63
g1433
sg56
(lp1440
S'True'
p1441
asbasbasbag49
(g65
g51
NtRp1442
(dp1443
g54
(dp1444
sg63
g564
sg56
(lp1445
g49
(g70
g51
NtRp1446
(dp1447
g54
(dp1448
g74
g75
ssg63
g1442
sg56
(lp1449
S'wsgi_run_once'
p1450
asbag49
(g70
g51
NtRp1451
(dp1452
g54
(dp1453
g81
g82
ssg63
g1442
sg56
(lp1454
S':'
asbag49
(g70
g51
NtRp1455
(dp1456
g54
(dp1457
sg63
g1442
sg56
(lp1458
g49
(g50
g51
NtRp1459
(dp1460
g54
(dp1461
g62
I4
ssg63
g1455
sg56
(lp1462
g92
asbasbasbag49
(g65
g51
NtRp1463
(dp1464
g54
(dp1465
sg63
g564
sg56
(lp1466
g49
(g70
g51
NtRp1467
(dp1468
g54
(dp1469
g74
g75
ssg63
g1463
sg56
(lp1470
S'wsgi_url_scheme'
p1471
asbag49
(g70
g51
NtRp1472
(dp1473
g54
(dp1474
g81
g82
ssg63
g1463
sg56
(lp1475
S':'
asbag49
(g70
g51
NtRp1476
(dp1477
g54
(dp1478
sg63
g1463
sg56
(lp1479
g49
(g50
g51
NtRp1480
(dp1481
g54
(dp1482
g62
I4
ssg63
g1476
sg56
(lp1483
S'http'
p1484
asbasbasbag49
(g65
g51
NtRp1485
(dp1486
g54
(dp1487
sg63
g564
sg56
(lp1488
g49
(g70
g51
NtRp1489
(dp1490
g54
(dp1491
g74
g75
ssg63
g1485
sg56
(lp1492
S'wsgi_version'
p1493
asbag49
(g70
g51
NtRp1494
(dp1495
g54
(dp1496
g81
g82
ssg63
g1485
sg56
(lp1497
S':'
asbag49
(g70
g51
NtRp1498
(dp1499
g54
(dp1500
sg63
g1485
sg56
(lp1501
g49
(g50
g51
NtRp1502
(dp1503
g54
(dp1504
g62
I4
ssg63
g1498
sg56
(lp1505
g49
(g58
g51
NtRp1506
(dp1507
g54
(dp1508
g62
I3
ssg63
Nsg56
(lp1509
g49
(g65
g51
NtRp1510
(dp1511
g54
(dp1512
sg63
g1506
sg56
(lp1513
g49
(g70
g51
NtRp1514
(dp1515
g54
(dp1516
sg63
g1510
sg56
(lp1517
g49
(g50
g51
NtRp1518
(dp1519
g54
(dp1520
g62
I3
ssg63
g1514
sg56
(lp1521
S'1'
asbasbasbag49
(g65
g51
NtRp1522
(dp1523
g54
(dp1524
sg63
g1506
sg56
(lp1525
g49
(g70
g51
NtRp1526
(dp1527
g54
(dp1528
sg63
g1522
sg56
(lp1529
g49
(g50
g51
NtRp1530
(dp1531
g54
(dp1532
g62
I3
ssg63
g1526
sg56
(lp1533
S'0'
asbasbasbasbasbasbasbasbasbasbasbag49
(g65
g51
NtRp1534
(dp1535
g54
(dp1536
sg63
g59
sg56
(lp1537
g49
(g70
g51
NtRp1538
(dp1539
g54
(dp1540
g74
g75
ssg63
g1534
sg56
(lp1541
S'extension'
p1542
asbag49
(g70
g51
NtRp1543
(dp1544
g54
(dp1545
g81
g82
ssg63
g1534
sg56
(lp1546
S':'
asbag49
(g70
g51
NtRp1547
(dp1548
g54
(dp1549
sg63
g1534
sg56
(lp1550
g49
(g50
g51
NtRp1551
(dp1552
g54
(dp1553
g62
I5
ssg63
g1547
sg56
(lp1554
S'html'
p1555
asbasbasbag49
(g65
g51
NtRp1556
(dp1557
g54
(dp1558
sg63
g59
sg56
(lp1559
g49
(g70
g51
NtRp1560
(dp1561
g54
(dp1562
g74
g75
ssg63
g1556
sg56
(lp1563
S'folder'
p1564
asbag49
(g70
g51
NtRp1565
(dp1566
g54
(dp1567
g81
g82
ssg63
g1556
sg56
(lp1568
S':'
asbag49
(g70
g51
NtRp1569
(dp1570
g54
(dp1571
sg63
g1556
sg56
(lp1572
g49
(g50
g51
NtRp1573
(dp1574
g54
(dp1575
g62
I5
ssg63
g1569
sg56
(lp1576
S'D:\\Dise\xf1o Web\\Proyectos\\Parleyweb\\web2py\\applications\\parleyweb\\'
p1577
asbasbasbag49
(g65
g51
NtRp1578
(dp1579
g54
(dp1580
sg63
g59
sg56
(lp1581
g49
(g70
g51
NtRp1582
(dp1583
g54
(dp1584
g74
g75
ssg63
g1578
sg56
(lp1585
S'function'
p1586
asbag49
(g70
g51
NtRp1587
(dp1588
g54
(dp1589
g81
g82
ssg63
g1578
sg56
(lp1590
S':'
asbag49
(g70
g51
NtRp1591
(dp1592
g54
(dp1593
sg63
g1578
sg56
(lp1594
g49
(g50
g51
NtRp1595
(dp1596
g54
(dp1597
g62
I5
ssg63
g1591
sg56
(lp1598
S'mostrar'
p1599
asbasbasbag49
(g65
g51
NtRp1600
(dp1601
g54
(dp1602
sg63
g59
sg56
(lp1603
g49
(g70
g51
NtRp1604
(dp1605
g54
(dp1606
g74
g75
ssg63
g1600
sg56
(lp1607
S'get_vars'
p1608
asbag49
(g70
g51
NtRp1609
(dp1610
g54
(dp1611
g81
g82
ssg63
g1600
sg56
(lp1612
S':'
asbag49
(g70
g51
NtRp1613
(dp1614
g54
(dp1615
sg63
g1600
sg56
(lp1616
g49
(g50
g51
NtRp1617
(dp1618
g54
(dp1619
g62
I5
ssg63
g1613
sg56
(lp1620
g49
(g58
g51
NtRp1621
(dp1622
g54
(dp1623
g62
I4
ssg63
Nsg56
(lp1624
sbasbasbasbag49
(g65
g51
NtRp1625
(dp1626
g54
(dp1627
sg63
g59
sg56
(lp1628
g49
(g70
g51
NtRp1629
(dp1630
g54
(dp1631
g74
g75
ssg63
g1625
sg56
(lp1632
S'global_settings'
p1633
asbag49
(g70
g51
NtRp1634
(dp1635
g54
(dp1636
g81
g82
ssg63
g1625
sg56
(lp1637
S':'
asbag49
(g70
g51
NtRp1638
(dp1639
g54
(dp1640
sg63
g1625
sg56
(lp1641
g49
(g50
g51
NtRp1642
(dp1643
g54
(dp1644
g62
I5
ssg63
g1638
sg56
(lp1645
g49
(g58
g51
NtRp1646
(dp1647
g54
(dp1648
g62
I4
ssg63
Nsg56
(lp1649
g49
(g65
g51
NtRp1650
(dp1651
g54
(dp1652
sg63
g1646
sg56
(lp1653
g49
(g70
g51
NtRp1654
(dp1655
g54
(dp1656
g74
g75
ssg63
g1650
sg56
(lp1657
g576
asbag49
(g70
g51
NtRp1658
(dp1659
g54
(dp1660
g81
g82
ssg63
g1650
sg56
(lp1661
S':'
asbag49
(g70
g51
NtRp1662
(dp1663
g54
(dp1664
sg63
g1650
sg56
(lp1665
g49
(g50
g51
NtRp1666
(dp1667
g54
(dp1668
g62
I4
ssg63
g1662
sg56
(lp1669
S"set(['D:\\\\Dise\\xf1o Web\\\\Proyectos\\\\Parleyweb\\\\web2py\\\\applications\\\\parleyweb\\\\', 'D:\\\\Dise\\xf1o Web\\\\Proyectos\\\\Parleyweb\\\\web2py\\\\applications\\\\admin\\\\'])"
p1670
asbasbasbag49
(g65
g51
NtRp1671
(dp1672
g54
(dp1673
sg63
g1646
sg56
(lp1674
g49
(g70
g51
NtRp1675
(dp1676
g54
(dp1677
g74
g75
ssg63
g1671
sg56
(lp1678
g598
asbag49
(g70
g51
NtRp1679
(dp1680
g54
(dp1681
g81
g82
ssg63
g1671
sg56
(lp1682
S':'
asbag49
(g70
g51
NtRp1683
(dp1684
g54
(dp1685
sg63
g1671
sg56
(lp1686
g49
(g50
g51
NtRp1687
(dp1688
g54
(dp1689
g62
I4
ssg63
g1683
sg56
(lp1690
g611
asbasbasbag49
(g65
g51
NtRp1691
(dp1692
g54
(dp1693
sg63
g1646
sg56
(lp1694
g49
(g70
g51
NtRp1695
(dp1696
g54
(dp1697
g74
g75
ssg63
g1691
sg56
(lp1698
g620
asbag49
(g70
g51
NtRp1699
(dp1700
g54
(dp1701
g81
g82
ssg63
g1691
sg56
(lp1702
S':'
asbag49
(g70
g51
NtRp1703
(dp1704
g54
(dp1705
sg63
g1691
sg56
(lp1706
g49
(g50
g51
NtRp1707
(dp1708
g54
(dp1709
g62
I4
ssg63
g1703
sg56
(lp1710
g49
(g58
g51
NtRp1711
(dp1712
g54
(dp1713
g62
I3
ssg63
Nsg56
(lp1714
sbasbasbasbag49
(g65
g51
NtRp1715
(dp1716
g54
(dp1717
sg63
g1646
sg56
(lp1718
g49
(g70
g51
NtRp1719
(dp1720
g54
(dp1721
g74
g75
ssg63
g1715
sg56
(lp1722
g645
asbag49
(g70
g51
NtRp1723
(dp1724
g54
(dp1725
g81
g82
ssg63
g1715
sg56
(lp1726
S':'
asbag49
(g70
g51
NtRp1727
(dp1728
g54
(dp1729
sg63
g1715
sg56
(lp1730
g49
(g50
g51
NtRp1731
(dp1732
g54
(dp1733
g62
I4
ssg63
g1727
sg56
(lp1734
S"<Values at 0x3185238: {'verbose': False, 'ip': '127.0.0.1', 'shutdown_timeout': 5, 'taskbar': False, 'nocron': False, 'pid_filename': 'httpserver.pid', 'maxthreads': None, 'softcron': False, 'server_name': 'craxsnet-PC', 'bpython': False, 'nogui': False, 'port': 8000, 'extcron': False, 'debuglevel': 30, 'test': None, 'folder': 'D:\\\\Dise\\xf1o Web\\\\Proyectos\\\\Parleyweb\\\\web2py', 'config': '', 'import_models': False, 'winservice': '', 'shell': None, 'run': '', 'log_filename': 'httpserver.log', 'args': [''], 'socket_timeout': 5, 'ssl_ca_certificate': None, 'scheduler': None, 'profiler_filename': None, 'ssl_private_key': '', 'password': '<ask>', 'request_queue_size': 5, 'ssl_certificate': '', 'cronjob': False, 'numthreads': None, 'quiet': False, 'interfaces': None, 'minthreads': None, 'timeout': 10, 'plain': False, 'nobanner': False}>"
p1735
asbasbasbag49
(g65
g51
NtRp1736
(dp1737
g54
(dp1738
sg63
g1646
sg56
(lp1739
g49
(g70
g51
NtRp1740
(dp1741
g54
(dp1742
g74
g75
ssg63
g1736
sg56
(lp1743
g667
asbag49
(g70
g51
NtRp1744
(dp1745
g54
(dp1746
g81
g82
ssg63
g1736
sg56
(lp1747
S':'
asbag49
(g70
g51
NtRp1748
(dp1749
g54
(dp1750
sg63
g1736
sg56
(lp1751
g49
(g50
g51
NtRp1752
(dp1753
g54
(dp1754
g62
I4
ssg63
g1748
sg56
(lp1755
S'set([])'
p1756
asbasbasbag49
(g65
g51
NtRp1757
(dp1758
g54
(dp1759
sg63
g1646
sg56
(lp1760
g49
(g70
g51
NtRp1761
(dp1762
g54
(dp1763
g74
g75
ssg63
g1757
sg56
(lp1764
g689
asbag49
(g70
g51
NtRp1765
(dp1766
g54
(dp1767
g81
g82
ssg63
g1757
sg56
(lp1768
S':'
asbag49
(g70
g51
NtRp1769
(dp1770
g54
(dp1771
sg63
g1757
sg56
(lp1772
g49
(g50
g51
NtRp1773
(dp1774
g54
(dp1775
g62
I4
ssg63
g1769
sg56
(lp1776
g92
asbasbasbag49
(g65
g51
NtRp1777
(dp1778
g54
(dp1779
sg63
g1646
sg56
(lp1780
g49
(g70
g51
NtRp1781
(dp1782
g54
(dp1783
g74
g75
ssg63
g1777
sg56
(lp1784
g710
asbag49
(g70
g51
NtRp1785
(dp1786
g54
(dp1787
g81
g82
ssg63
g1777
sg56
(lp1788
S':'
asbag49
(g70
g51
NtRp1789
(dp1790
g54
(dp1791
sg63
g1777
sg56
(lp1792
g49
(g50
g51
NtRp1793
(dp1794
g54
(dp1795
g62
I4
ssg63
g1789
sg56
(lp1796
g723
asbasbasbag49
(g65
g51
NtRp1797
(dp1798
g54
(dp1799
sg63
g1646
sg56
(lp1800
g49
(g70
g51
NtRp1801
(dp1802
g54
(dp1803
g74
g75
ssg63
g1797
sg56
(lp1804
g908
asbag49
(g70
g51
NtRp1805
(dp1806
g54
(dp1807
g81
g82
ssg63
g1797
sg56
(lp1808
S':'
asbag49
(g70
g51
NtRp1809
(dp1810
g54
(dp1811
sg63
g1797
sg56
(lp1812
g49
(g50
g51
NtRp1813
(dp1814
g54
(dp1815
g62
I4
ssg63
g1809
sg56
(lp1816
g92
asbasbasbag49
(g65
g51
NtRp1817
(dp1818
g54
(dp1819
sg63
g1646
sg56
(lp1820
g49
(g70
g51
NtRp1821
(dp1822
g54
(dp1823
g74
g75
ssg63
g1817
sg56
(lp1824
g929
asbag49
(g70
g51
NtRp1825
(dp1826
g54
(dp1827
g81
g82
ssg63
g1817
sg56
(lp1828
S':'
asbag49
(g70
g51
NtRp1829
(dp1830
g54
(dp1831
sg63
g1817
sg56
(lp1832
g49
(g50
g51
NtRp1833
(dp1834
g54
(dp1835
g62
I4
ssg63
g1829
sg56
(lp1836
g92
asbasbasbag49
(g65
g51
NtRp1837
(dp1838
g54
(dp1839
sg63
g1646
sg56
(lp1840
g49
(g70
g51
NtRp1841
(dp1842
g54
(dp1843
g74
g75
ssg63
g1837
sg56
(lp1844
g1188
asbag49
(g70
g51
NtRp1845
(dp1846
g54
(dp1847
g81
g82
ssg63
g1837
sg56
(lp1848
S':'
asbag49
(g70
g51
NtRp1849
(dp1850
g54
(dp1851
sg63
g1837
sg56
(lp1852
g49
(g50
g51
NtRp1853
(dp1854
g54
(dp1855
g62
I4
ssg63
g1849
sg56
(lp1856
g1201
asbasbasbag49
(g65
g51
NtRp1857
(dp1858
g54
(dp1859
sg63
g1646
sg56
(lp1860
g49
(g70
g51
NtRp1861
(dp1862
g54
(dp1863
g74
g75
ssg63
g1857
sg56
(lp1864
g1253
asbag49
(g70
g51
NtRp1865
(dp1866
g54
(dp1867
g81
g82
ssg63
g1857
sg56
(lp1868
S':'
asbag49
(g70
g51
NtRp1869
(dp1870
g54
(dp1871
sg63
g1857
sg56
(lp1872
g49
(g50
g51
NtRp1873
(dp1874
g54
(dp1875
g62
I4
ssg63
g1869
sg56
(lp1876
g49
(g58
g51
NtRp1877
(dp1878
g54
(dp1879
g62
I3
ssg63
Nsg56
(lp1880
g49
(g65
g51
NtRp1881
(dp1882
g54
(dp1883
sg63
g1877
sg56
(lp1884
g49
(g70
g51
NtRp1885
(dp1886
g54
(dp1887
sg63
g1881
sg56
(lp1888
g49
(g50
g51
NtRp1889
(dp1890
g54
(dp1891
g62
I3
ssg63
g1885
sg56
(lp1892
S'1'
asbasbasbag49
(g65
g51
NtRp1893
(dp1894
g54
(dp1895
sg63
g1877
sg56
(lp1896
g49
(g70
g51
NtRp1897
(dp1898
g54
(dp1899
sg63
g1893
sg56
(lp1900
g49
(g50
g51
NtRp1901
(dp1902
g54
(dp1903
g62
I3
ssg63
g1897
sg56
(lp1904
S'99'
p1905
asbasbasbag49
(g65
g51
NtRp1906
(dp1907
g54
(dp1908
sg63
g1877
sg56
(lp1909
g49
(g70
g51
NtRp1910
(dp1911
g54
(dp1912
sg63
g1906
sg56
(lp1913
g49
(g50
g51
NtRp1914
(dp1915
g54
(dp1916
g62
I3
ssg63
g1910
sg56
(lp1917
S'7'
asbasbasbag49
(g65
g51
NtRp1918
(dp1919
g54
(dp1920
sg63
g1877
sg56
(lp1921
g49
(g70
g51
NtRp1922
(dp1923
g54
(dp1924
sg63
g1918
sg56
(lp1925
g49
(g50
g51
NtRp1926
(dp1927
g54
(dp1928
g62
I3
ssg63
g1922
sg56
(lp1929
S'datetime.datetime(2012, 3, 4, 22, 12, 8)'
p1930
asbasbasbag49
(g65
g51
NtRp1931
(dp1932
g54
(dp1933
sg63
g1877
sg56
(lp1934
g49
(g70
g51
NtRp1935
(dp1936
g54
(dp1937
sg63
g1931
sg56
(lp1938
g49
(g50
g51
NtRp1939
(dp1940
g54
(dp1941
g62
I3
ssg63
g1935
sg56
(lp1942
g1332
asbasbasbasbasbasbasbasbasbasbasbag49
(g65
g51
NtRp1943
(dp1944
g54
(dp1945
sg63
g59
sg56
(lp1946
g49
(g70
g51
NtRp1947
(dp1948
g54
(dp1949
g74
g75
ssg63
g1943
sg56
(lp1950
S'is_https'
p1951
asbag49
(g70
g51
NtRp1952
(dp1953
g54
(dp1954
g81
g82
ssg63
g1943
sg56
(lp1955
S':'
asbag49
(g70
g51
NtRp1956
(dp1957
g54
(dp1958
sg63
g1943
sg56
(lp1959
g49
(g50
g51
NtRp1960
(dp1961
g54
(dp1962
g62
I5
ssg63
g1956
sg56
(lp1963
g92
asbasbasbag49
(g65
g51
NtRp1964
(dp1965
g54
(dp1966
sg63
g59
sg56
(lp1967
g49
(g70
g51
NtRp1968
(dp1969
g54
(dp1970
g74
g75
ssg63
g1964
sg56
(lp1971
S'is_local'
p1972
asbag49
(g70
g51
NtRp1973
(dp1974
g54
(dp1975
g81
g82
ssg63
g1964
sg56
(lp1976
S':'
asbag49
(g70
g51
NtRp1977
(dp1978
g54
(dp1979
sg63
g1964
sg56
(lp1980
g49
(g50
g51
NtRp1981
(dp1982
g54
(dp1983
g62
I5
ssg63
g1977
sg56
(lp1984
g1441
asbasbasbag49
(g65
g51
NtRp1985
(dp1986
g54
(dp1987
sg63
g59
sg56
(lp1988
g49
(g70
g51
NtRp1989
(dp1990
g54
(dp1991
g74
g75
ssg63
g1985
sg56
(lp1992
S'is_restful'
p1993
asbag49
(g70
g51
NtRp1994
(dp1995
g54
(dp1996
g81
g82
ssg63
g1985
sg56
(lp1997
S':'
asbag49
(g70
g51
NtRp1998
(dp1999
g54
(dp2000
sg63
g1985
sg56
(lp2001
g49
(g50
g51
NtRp2002
(dp2003
g54
(dp2004
g62
I5
ssg63
g1998
sg56
(lp2005
g92
asbasbasbag49
(g65
g51
NtRp2006
(dp2007
g54
(dp2008
sg63
g59
sg56
(lp2009
g49
(g70
g51
NtRp2010
(dp2011
g54
(dp2012
g74
g75
ssg63
g2006
sg56
(lp2013
S'now'
p2014
asbag49
(g70
g51
NtRp2015
(dp2016
g54
(dp2017
g81
g82
ssg63
g2006
sg56
(lp2018
S':'
asbag49
(g70
g51
NtRp2019
(dp2020
g54
(dp2021
sg63
g2006
sg56
(lp2022
g49
(g50
g51
NtRp2023
(dp2024
g54
(dp2025
g62
I5
ssg63
g2019
sg56
(lp2026
S'datetime.datetime(2012, 3, 16, 14, 9, 23, 500000)'
p2027
asbasbasbag49
(g65
g51
NtRp2028
(dp2029
g54
(dp2030
sg63
g59
sg56
(lp2031
g49
(g70
g51
NtRp2032
(dp2033
g54
(dp2034
g74
g75
ssg63
g2028
sg56
(lp2035
S'post_vars'
p2036
asbag49
(g70
g51
NtRp2037
(dp2038
g54
(dp2039
g81
g82
ssg63
g2028
sg56
(lp2040
S':'
asbag49
(g70
g51
NtRp2041
(dp2042
g54
(dp2043
sg63
g2028
sg56
(lp2044
g49
(g50
g51
NtRp2045
(dp2046
g54
(dp2047
g62
I5
ssg63
g2041
sg56
(lp2048
g49
(g58
g51
NtRp2049
(dp2050
g54
(dp2051
g62
I4
ssg63
Nsg56
(lp2052
sbasbasbasbag49
(g65
g51
NtRp2053
(dp2054
g54
(dp2055
sg63
g59
sg56
(lp2056
g49
(g70
g51
NtRp2057
(dp2058
g54
(dp2059
g74
g75
ssg63
g2053
sg56
(lp2060
S'raw_args'
p2061
asbag49
(g70
g51
NtRp2062
(dp2063
g54
(dp2064
g81
g82
ssg63
g2053
sg56
(lp2065
S':'
asbag49
(g70
g51
NtRp2066
(dp2067
g54
(dp2068
sg63
g2053
sg56
(lp2069
g49
(g50
g51
NtRp2070
(dp2071
g54
(dp2072
g62
I5
ssg63
g2066
sg56
(lp2073
S'82'
p2074
asbasbasbag49
(g65
g51
NtRp2075
(dp2076
g54
(dp2077
sg63
g59
sg56
(lp2078
g49
(g70
g51
NtRp2079
(dp2080
g54
(dp2081
g74
g75
ssg63
g2075
sg56
(lp2082
S'url'
p2083
asbag49
(g70
g51
NtRp2084
(dp2085
g54
(dp2086
g81
g82
ssg63
g2075
sg56
(lp2087
S':'
asbag49
(g70
g51
NtRp2088
(dp2089
g54
(dp2090
sg63
g2075
sg56
(lp2091
g49
(g50
g51
NtRp2092
(dp2093
g54
(dp2094
g62
I5
ssg63
g2088
sg56
(lp2095
S'/parleyweb/default/mostrar'
p2096
asbasbasbag49
(g65
g51
NtRp2097
(dp2098
g54
(dp2099
sg63
g59
sg56
(lp2100
g49
(g70
g51
NtRp2101
(dp2102
g54
(dp2103
g74
g75
ssg63
g2097
sg56
(lp2104
S'utcnow'
p2105
asbag49
(g70
g51
NtRp2106
(dp2107
g54
(dp2108
g81
g82
ssg63
g2097
sg56
(lp2109
S':'
asbag49
(g70
g51
NtRp2110
(dp2111
g54
(dp2112
sg63
g2097
sg56
(lp2113
g49
(g50
g51
NtRp2114
(dp2115
g54
(dp2116
g62
I5
ssg63
g2110
sg56
(lp2117
S'datetime.datetime(2012, 3, 16, 13, 9, 23, 500000)'
p2118
asbasbasbag49
(g65
g51
NtRp2119
(dp2120
g54
(dp2121
sg63
g59
sg56
(lp2122
g49
(g70
g51
NtRp2123
(dp2124
g54
(dp2125
g74
g75
ssg63
g2119
sg56
(lp2126
S'uuid'
p2127
asbag49
(g70
g51
NtRp2128
(dp2129
g54
(dp2130
g81
g82
ssg63
g2119
sg56
(lp2131
S':'
asbag49
(g70
g51
NtRp2132
(dp2133
g54
(dp2134
sg63
g2119
sg56
(lp2135
g49
(g50
g51
NtRp2136
(dp2137
g54
(dp2138
g62
I5
ssg63
g2132
sg56
(lp2139
S'parleyweb/127.0.0.1.2012-03-16.14-09-23.f7bfd643-6806-4ba7-9dd3-26f7cefda2ac'
p2140
asbasbasbag49
(g65
g51
NtRp2141
(dp2142
g54
(dp2143
sg63
g59
sg56
(lp2144
g49
(g70
g51
NtRp2145
(dp2146
g54
(dp2147
g74
g75
ssg63
g2141
sg56
(lp2148
S'vars'
p2149
asbag49
(g70
g51
NtRp2150
(dp2151
g54
(dp2152
g81
g82
ssg63
g2141
sg56
(lp2153
S':'
asbag49
(g70
g51
NtRp2154
(dp2155
g54
(dp2156
sg63
g2141
sg56
(lp2157
g49
(g50
g51
NtRp2158
(dp2159
g54
(dp2160
g62
I5
ssg63
g2154
sg56
(lp2161
g49
(g58
g51
NtRp2162
(dp2163
g54
(dp2164
g62
I4
ssg63
Nsg56
(lp2165
sbasbasbasbag49
(g65
g51
NtRp2166
(dp2167
g54
(dp2168
sg63
g59
sg56
(lp2169
g49
(g70
g51
NtRp2170
(dp2171
g54
(dp2172
g74
g75
ssg63
g2166
sg56
(lp2173
S'wsgi'
p2174
asbag49
(g70
g51
NtRp2175
(dp2176
g54
(dp2177
g81
g82
ssg63
g2166
sg56
(lp2178
S':'
asbag49
(g70
g51
NtRp2179
(dp2180
g54
(dp2181
sg63
g2166
sg56
(lp2182
g49
(g50
g51
NtRp2183
(dp2184
g54
(dp2185
g62
I5
ssg63
g2179
sg56
(lp2186
g49
(g58
g51
NtRp2187
(dp2188
g54
(dp2189
g62
I4
ssg63
Nsg56
(lp2190
g49
(g65
g51
NtRp2191
(dp2192
g54
(dp2193
sg63
g2187
sg56
(lp2194
g49
(g70
g51
NtRp2195
(dp2196
g54
(dp2197
g74
g75
ssg63
g2191
sg56
(lp2198
S'environ'
p2199
asbag49
(g70
g51
NtRp2200
(dp2201
g54
(dp2202
g81
g82
ssg63
g2191
sg56
(lp2203
S':'
asbag49
(g70
g51
NtRp2204
(dp2205
g54
(dp2206
sg63
g2191
sg56
(lp2207
g49
(g50
g51
NtRp2208
(dp2209
g54
(dp2210
g62
I4
ssg63
g2204
sg56
(lp2211
g49
(g58
g51
NtRp2212
(dp2213
g54
(dp2214
g62
I3
ssg63
Nsg56
(lp2215
g49
(g65
g51
NtRp2216
(dp2217
g54
(dp2218
sg63
g2212
sg56
(lp2219
g49
(g70
g51
NtRp2220
(dp2221
g54
(dp2222
g74
g75
ssg63
g2216
sg56
(lp2223
S'HTTP_ACCEPT'
p2224
asbag49
(g70
g51
NtRp2225
(dp2226
g54
(dp2227
g81
g82
ssg63
g2216
sg56
(lp2228
S':'
asbag49
(g70
g51
NtRp2229
(dp2230
g54
(dp2231
sg63
g2216
sg56
(lp2232
g49
(g50
g51
NtRp2233
(dp2234
g54
(dp2235
g62
I3
ssg63
g2229
sg56
(lp2236
g745
asbasbasbag49
(g65
g51
NtRp2237
(dp2238
g54
(dp2239
sg63
g2212
sg56
(lp2240
g49
(g70
g51
NtRp2241
(dp2242
g54
(dp2243
g74
g75
ssg63
g2237
sg56
(lp2244
S'HTTP_ACCEPT_ENCODING'
p2245
asbag49
(g70
g51
NtRp2246
(dp2247
g54
(dp2248
g81
g82
ssg63
g2237
sg56
(lp2249
S':'
asbag49
(g70
g51
NtRp2250
(dp2251
g54
(dp2252
sg63
g2237
sg56
(lp2253
g49
(g50
g51
NtRp2254
(dp2255
g54
(dp2256
g62
I3
ssg63
g2250
sg56
(lp2257
g767
asbasbasbag49
(g65
g51
NtRp2258
(dp2259
g54
(dp2260
sg63
g2212
sg56
(lp2261
g49
(g70
g51
NtRp2262
(dp2263
g54
(dp2264
g74
g75
ssg63
g2258
sg56
(lp2265
S'HTTP_ACCEPT_LANGUAGE'
p2266
asbag49
(g70
g51
NtRp2267
(dp2268
g54
(dp2269
g81
g82
ssg63
g2258
sg56
(lp2270
S':'
asbag49
(g70
g51
NtRp2271
(dp2272
g54
(dp2273
sg63
g2258
sg56
(lp2274
g49
(g50
g51
NtRp2275
(dp2276
g54
(dp2277
g62
I3
ssg63
g2271
sg56
(lp2278
g789
asbasbasbag49
(g65
g51
NtRp2279
(dp2280
g54
(dp2281
sg63
g2212
sg56
(lp2282
g49
(g70
g51
NtRp2283
(dp2284
g54
(dp2285
g74
g75
ssg63
g2279
sg56
(lp2286
S'HTTP_CONNECTION'
p2287
asbag49
(g70
g51
NtRp2288
(dp2289
g54
(dp2290
g81
g82
ssg63
g2279
sg56
(lp2291
S':'
asbag49
(g70
g51
NtRp2292
(dp2293
g54
(dp2294
sg63
g2279
sg56
(lp2295
g49
(g50
g51
NtRp2296
(dp2297
g54
(dp2298
g62
I3
ssg63
g2292
sg56
(lp2299
g811
asbasbasbag49
(g65
g51
NtRp2300
(dp2301
g54
(dp2302
sg63
g2212
sg56
(lp2303
g49
(g70
g51
NtRp2304
(dp2305
g54
(dp2306
g74
g75
ssg63
g2300
sg56
(lp2307
S'HTTP_COOKIE'
p2308
asbag49
(g70
g51
NtRp2309
(dp2310
g54
(dp2311
g81
g82
ssg63
g2300
sg56
(lp2312
S':'
asbag49
(g70
g51
NtRp2313
(dp2314
g54
(dp2315
sg63
g2300
sg56
(lp2316
g49
(g50
g51
NtRp2317
(dp2318
g54
(dp2319
g62
I3
ssg63
g2313
sg56
(lp2320
g833
asbasbasbag49
(g65
g51
NtRp2321
(dp2322
g54
(dp2323
sg63
g2212
sg56
(lp2324
g49
(g70
g51
NtRp2325
(dp2326
g54
(dp2327
g74
g75
ssg63
g2321
sg56
(lp2328
S'HTTP_HOST'
p2329
asbag49
(g70
g51
NtRp2330
(dp2331
g54
(dp2332
g81
g82
ssg63
g2321
sg56
(lp2333
S':'
asbag49
(g70
g51
NtRp2334
(dp2335
g54
(dp2336
sg63
g2321
sg56
(lp2337
g49
(g50
g51
NtRp2338
(dp2339
g54
(dp2340
g62
I3
ssg63
g2334
sg56
(lp2341
g855
asbasbasbag49
(g65
g51
NtRp2342
(dp2343
g54
(dp2344
sg63
g2212
sg56
(lp2345
g49
(g70
g51
NtRp2346
(dp2347
g54
(dp2348
g74
g75
ssg63
g2342
sg56
(lp2349
S'HTTP_REFERER'
p2350
asbag49
(g70
g51
NtRp2351
(dp2352
g54
(dp2353
g81
g82
ssg63
g2342
sg56
(lp2354
S':'
asbag49
(g70
g51
NtRp2355
(dp2356
g54
(dp2357
sg63
g2342
sg56
(lp2358
g49
(g50
g51
NtRp2359
(dp2360
g54
(dp2361
g62
I3
ssg63
g2355
sg56
(lp2362
g877
asbasbasbag49
(g65
g51
NtRp2363
(dp2364
g54
(dp2365
sg63
g2212
sg56
(lp2366
g49
(g70
g51
NtRp2367
(dp2368
g54
(dp2369
g74
g75
ssg63
g2363
sg56
(lp2370
S'HTTP_USER_AGENT'
p2371
asbag49
(g70
g51
NtRp2372
(dp2373
g54
(dp2374
g81
g82
ssg63
g2363
sg56
(lp2375
S':'
asbag49
(g70
g51
NtRp2376
(dp2377
g54
(dp2378
sg63
g2363
sg56
(lp2379
g49
(g50
g51
NtRp2380
(dp2381
g54
(dp2382
g62
I3
ssg63
g2376
sg56
(lp2383
g899
asbasbasbag49
(g65
g51
NtRp2384
(dp2385
g54
(dp2386
sg63
g2212
sg56
(lp2387
g49
(g70
g51
NtRp2388
(dp2389
g54
(dp2390
g74
g75
ssg63
g2384
sg56
(lp2391
S'PATH_INFO'
p2392
asbag49
(g70
g51
NtRp2393
(dp2394
g54
(dp2395
g81
g82
ssg63
g2384
sg56
(lp2396
S':'
asbag49
(g70
g51
NtRp2397
(dp2398
g54
(dp2399
sg63
g2384
sg56
(lp2400
g49
(g50
g51
NtRp2401
(dp2402
g54
(dp2403
g62
I3
ssg63
g2397
sg56
(lp2404
g963
asbasbasbag49
(g65
g51
NtRp2405
(dp2406
g54
(dp2407
sg63
g2212
sg56
(lp2408
g49
(g70
g51
NtRp2409
(dp2410
g54
(dp2411
g74
g75
ssg63
g2405
sg56
(lp2412
S'QUERY_STRING'
p2413
asbag49
(g70
g51
NtRp2414
(dp2415
g54
(dp2416
g81
g82
ssg63
g2405
sg56
(lp2417
S':'
asbag49
(g70
g51
NtRp2418
(dp2419
g54
(dp2420
sg63
g2405
sg56
(lp2421
g49
(g50
g51
NtRp2422
(dp2423
g54
(dp2424
g62
I3
ssg63
g2418
sg56
(lp2425
S''
asbasbasbag49
(g65
g51
NtRp2426
(dp2427
g54
(dp2428
sg63
g2212
sg56
(lp2429
g49
(g70
g51
NtRp2430
(dp2431
g54
(dp2432
g74
g75
ssg63
g2426
sg56
(lp2433
S'REMOTE_ADDR'
p2434
asbag49
(g70
g51
NtRp2435
(dp2436
g54
(dp2437
g81
g82
ssg63
g2426
sg56
(lp2438
S':'
asbag49
(g70
g51
NtRp2439
(dp2440
g54
(dp2441
sg63
g2426
sg56
(lp2442
g49
(g50
g51
NtRp2443
(dp2444
g54
(dp2445
g62
I3
ssg63
g2439
sg56
(lp2446
g158
asbasbasbag49
(g65
g51
NtRp2447
(dp2448
g54
(dp2449
sg63
g2212
sg56
(lp2450
g49
(g70
g51
NtRp2451
(dp2452
g54
(dp2453
g74
g75
ssg63
g2447
sg56
(lp2454
S'REMOTE_PORT'
p2455
asbag49
(g70
g51
NtRp2456
(dp2457
g54
(dp2458
g81
g82
ssg63
g2447
sg56
(lp2459
S':'
asbag49
(g70
g51
NtRp2460
(dp2461
g54
(dp2462
sg63
g2447
sg56
(lp2463
g49
(g50
g51
NtRp2464
(dp2465
g54
(dp2466
g62
I3
ssg63
g2460
sg56
(lp2467
g1027
asbasbasbag49
(g65
g51
NtRp2468
(dp2469
g54
(dp2470
sg63
g2212
sg56
(lp2471
g49
(g70
g51
NtRp2472
(dp2473
g54
(dp2474
g74
g75
ssg63
g2468
sg56
(lp2475
S'REQUEST_METHOD'
p2476
asbag49
(g70
g51
NtRp2477
(dp2478
g54
(dp2479
g81
g82
ssg63
g2468
sg56
(lp2480
S':'
asbag49
(g70
g51
NtRp2481
(dp2482
g54
(dp2483
sg63
g2468
sg56
(lp2484
g49
(g50
g51
NtRp2485
(dp2486
g54
(dp2487
g62
I3
ssg63
g2481
sg56
(lp2488
g1049
asbasbasbag49
(g65
g51
NtRp2489
(dp2490
g54
(dp2491
sg63
g2212
sg56
(lp2492
g49
(g70
g51
NtRp2493
(dp2494
g54
(dp2495
g74
g75
ssg63
g2489
sg56
(lp2496
S'REQUEST_URI'
p2497
asbag49
(g70
g51
NtRp2498
(dp2499
g54
(dp2500
g81
g82
ssg63
g2489
sg56
(lp2501
S':'
asbag49
(g70
g51
NtRp2502
(dp2503
g54
(dp2504
sg63
g2489
sg56
(lp2505
g49
(g50
g51
NtRp2506
(dp2507
g54
(dp2508
g62
I3
ssg63
g2502
sg56
(lp2509
g963
asbasbasbag49
(g65
g51
NtRp2510
(dp2511
g54
(dp2512
sg63
g2212
sg56
(lp2513
g49
(g70
g51
NtRp2514
(dp2515
g54
(dp2516
g74
g75
ssg63
g2510
sg56
(lp2517
S'SCRIPT_NAME'
p2518
asbag49
(g70
g51
NtRp2519
(dp2520
g54
(dp2521
g81
g82
ssg63
g2510
sg56
(lp2522
S':'
asbag49
(g70
g51
NtRp2523
(dp2524
g54
(dp2525
sg63
g2510
sg56
(lp2526
g49
(g50
g51
NtRp2527
(dp2528
g54
(dp2529
g62
I3
ssg63
g2523
sg56
(lp2530
S''
asbasbasbag49
(g65
g51
NtRp2531
(dp2532
g54
(dp2533
sg63
g2212
sg56
(lp2534
g49
(g70
g51
NtRp2535
(dp2536
g54
(dp2537
g74
g75
ssg63
g2531
sg56
(lp2538
S'SERVER_NAME'
p2539
asbag49
(g70
g51
NtRp2540
(dp2541
g54
(dp2542
g81
g82
ssg63
g2531
sg56
(lp2543
S':'
asbag49
(g70
g51
NtRp2544
(dp2545
g54
(dp2546
sg63
g2531
sg56
(lp2547
g49
(g50
g51
NtRp2548
(dp2549
g54
(dp2550
g62
I3
ssg63
g2544
sg56
(lp2551
g1113
asbasbasbag49
(g65
g51
NtRp2552
(dp2553
g54
(dp2554
sg63
g2212
sg56
(lp2555
g49
(g70
g51
NtRp2556
(dp2557
g54
(dp2558
g74
g75
ssg63
g2552
sg56
(lp2559
S'SERVER_PORT'
p2560
asbag49
(g70
g51
NtRp2561
(dp2562
g54
(dp2563
g81
g82
ssg63
g2552
sg56
(lp2564
S':'
asbag49
(g70
g51
NtRp2565
(dp2566
g54
(dp2567
sg63
g2552
sg56
(lp2568
g49
(g50
g51
NtRp2569
(dp2570
g54
(dp2571
g62
I3
ssg63
g2565
sg56
(lp2572
g1135
asbasbasbag49
(g65
g51
NtRp2573
(dp2574
g54
(dp2575
sg63
g2212
sg56
(lp2576
g49
(g70
g51
NtRp2577
(dp2578
g54
(dp2579
g74
g75
ssg63
g2573
sg56
(lp2580
S'SERVER_PROTOCOL'
p2581
asbag49
(g70
g51
NtRp2582
(dp2583
g54
(dp2584
g81
g82
ssg63
g2573
sg56
(lp2585
S':'
asbag49
(g70
g51
NtRp2586
(dp2587
g54
(dp2588
sg63
g2573
sg56
(lp2589
g49
(g50
g51
NtRp2590
(dp2591
g54
(dp2592
g62
I3
ssg63
g2586
sg56
(lp2593
g1157
asbasbasbag49
(g65
g51
NtRp2594
(dp2595
g54
(dp2596
sg63
g2212
sg56
(lp2597
g49
(g70
g51
NtRp2598
(dp2599
g54
(dp2600
g74
g75
ssg63
g2594
sg56
(lp2601
S'SERVER_SOFTWARE'
p2602
asbag49
(g70
g51
NtRp2603
(dp2604
g54
(dp2605
g81
g82
ssg63
g2594
sg56
(lp2606
S':'
asbag49
(g70
g51
NtRp2607
(dp2608
g54
(dp2609
sg63
g2594
sg56
(lp2610
g49
(g50
g51
NtRp2611
(dp2612
g54
(dp2613
g62
I3
ssg63
g2607
sg56
(lp2614
g1179
asbasbasbag49
(g65
g51
NtRp2615
(dp2616
g54
(dp2617
sg63
g2212
sg56
(lp2618
g49
(g70
g51
NtRp2619
(dp2620
g54
(dp2621
g74
g75
ssg63
g2615
sg56
(lp2622
S'WEB2PY_ORIGINAL_URI'
p2623
asbag49
(g70
g51
NtRp2624
(dp2625
g54
(dp2626
g81
g82
ssg63
g2615
sg56
(lp2627
S':'
asbag49
(g70
g51
NtRp2628
(dp2629
g54
(dp2630
sg63
g2615
sg56
(lp2631
g49
(g50
g51
NtRp2632
(dp2633
g54
(dp2634
g62
I3
ssg63
g2628
sg56
(lp2635
g1223
asbasbasbag49
(g65
g51
NtRp2636
(dp2637
g54
(dp2638
sg63
g2212
sg56
(lp2639
g49
(g70
g51
NtRp2640
(dp2641
g54
(dp2642
g74
g75
ssg63
g2636
sg56
(lp2643
S'wsgi.errors'
p2644
asbag49
(g70
g51
NtRp2645
(dp2646
g54
(dp2647
g81
g82
ssg63
g2636
sg56
(lp2648
S':'
asbag49
(g70
g51
NtRp2649
(dp2650
g54
(dp2651
sg63
g2636
sg56
(lp2652
g49
(g50
g51
NtRp2653
(dp2654
g54
(dp2655
g62
I3
ssg63
g2649
sg56
(lp2656
S"<open file '<stderr>', mode 'w' at 0x004200B0>"
p2657
asbasbasbag49
(g65
g51
NtRp2658
(dp2659
g54
(dp2660
sg63
g2212
sg56
(lp2661
g49
(g70
g51
NtRp2662
(dp2663
g54
(dp2664
g74
g75
ssg63
g2658
sg56
(lp2665
S'wsgi.file_wrapper'
p2666
asbag49
(g70
g51
NtRp2667
(dp2668
g54
(dp2669
g81
g82
ssg63
g2658
sg56
(lp2670
S':'
asbag49
(g70
g51
NtRp2671
(dp2672
g54
(dp2673
sg63
g2658
sg56
(lp2674
g49
(g50
g51
NtRp2675
(dp2676
g54
(dp2677
g62
I3
ssg63
g2671
sg56
(lp2678
S'<class wsgiref.util.FileWrapper at 0x02FC6390>'
p2679
asbasbasbag49
(g65
g51
NtRp2680
(dp2681
g54
(dp2682
sg63
g2212
sg56
(lp2683
g49
(g70
g51
NtRp2684
(dp2685
g54
(dp2686
g74
g75
ssg63
g2680
sg56
(lp2687
S'wsgi.input'
p2688
asbag49
(g70
g51
NtRp2689
(dp2690
g54
(dp2691
g81
g82
ssg63
g2680
sg56
(lp2692
S':'
asbag49
(g70
g51
NtRp2693
(dp2694
g54
(dp2695
sg63
g2680
sg56
(lp2696
g49
(g50
g51
NtRp2697
(dp2698
g54
(dp2699
g62
I3
ssg63
g2693
sg56
(lp2700
S'<cStringIO.StringO object at 0x076EA200>'
p2701
asbasbasbag49
(g65
g51
NtRp2702
(dp2703
g54
(dp2704
sg63
g2212
sg56
(lp2705
g49
(g70
g51
NtRp2706
(dp2707
g54
(dp2708
g74
g75
ssg63
g2702
sg56
(lp2709
S'wsgi.multiprocess'
p2710
asbag49
(g70
g51
NtRp2711
(dp2712
g54
(dp2713
g81
g82
ssg63
g2702
sg56
(lp2714
S':'
asbag49
(g70
g51
NtRp2715
(dp2716
g54
(dp2717
sg63
g2702
sg56
(lp2718
g49
(g50
g51
NtRp2719
(dp2720
g54
(dp2721
g62
I3
ssg63
g2715
sg56
(lp2722
g92
asbasbasbag49
(g65
g51
NtRp2723
(dp2724
g54
(dp2725
sg63
g2212
sg56
(lp2726
g49
(g70
g51
NtRp2727
(dp2728
g54
(dp2729
g74
g75
ssg63
g2723
sg56
(lp2730
S'wsgi.multithread'
p2731
asbag49
(g70
g51
NtRp2732
(dp2733
g54
(dp2734
g81
g82
ssg63
g2723
sg56
(lp2735
S':'
asbag49
(g70
g51
NtRp2736
(dp2737
g54
(dp2738
sg63
g2723
sg56
(lp2739
g49
(g50
g51
NtRp2740
(dp2741
g54
(dp2742
g62
I3
ssg63
g2736
sg56
(lp2743
g1441
asbasbasbag49
(g65
g51
NtRp2744
(dp2745
g54
(dp2746
sg63
g2212
sg56
(lp2747
g49
(g70
g51
NtRp2748
(dp2749
g54
(dp2750
g74
g75
ssg63
g2744
sg56
(lp2751
S'wsgi.run_once'
p2752
asbag49
(g70
g51
NtRp2753
(dp2754
g54
(dp2755
g81
g82
ssg63
g2744
sg56
(lp2756
S':'
asbag49
(g70
g51
NtRp2757
(dp2758
g54
(dp2759
sg63
g2744
sg56
(lp2760
g49
(g50
g51
NtRp2761
(dp2762
g54
(dp2763
g62
I3
ssg63
g2757
sg56
(lp2764
g92
asbasbasbag49
(g65
g51
NtRp2765
(dp2766
g54
(dp2767
sg63
g2212
sg56
(lp2768
g49
(g70
g51
NtRp2769
(dp2770
g54
(dp2771
g74
g75
ssg63
g2765
sg56
(lp2772
S'wsgi.url_scheme'
p2773
asbag49
(g70
g51
NtRp2774
(dp2775
g54
(dp2776
g81
g82
ssg63
g2765
sg56
(lp2777
S':'
asbag49
(g70
g51
NtRp2778
(dp2779
g54
(dp2780
sg63
g2765
sg56
(lp2781
g49
(g50
g51
NtRp2782
(dp2783
g54
(dp2784
g62
I3
ssg63
g2778
sg56
(lp2785
g1484
asbasbasbag49
(g65
g51
NtRp2786
(dp2787
g54
(dp2788
sg63
g2212
sg56
(lp2789
g49
(g70
g51
NtRp2790
(dp2791
g54
(dp2792
g74
g75
ssg63
g2786
sg56
(lp2793
S'wsgi.version'
p2794
asbag49
(g70
g51
NtRp2795
(dp2796
g54
(dp2797
g81
g82
ssg63
g2786
sg56
(lp2798
S':'
asbag49
(g70
g51
NtRp2799
(dp2800
g54
(dp2801
sg63
g2786
sg56
(lp2802
g49
(g50
g51
NtRp2803
(dp2804
g54
(dp2805
g62
I3
ssg63
g2799
sg56
(lp2806
S'1'
asbasbasbasbasbasbasbasbasbasbasbasbasbsS'frames'
p2807
(lp2808
(dp2809
S'file'
p2810
S'D:\\Dise\xf1o Web\\Proyectos\\Parleyweb\\web2py\\gluon\\restricted.py'
p2811
sS'dump'
p2812
(dp2813
sS'lnum'
p2814
I205
sS'lines'
p2815
(dp2816
sS'call'
p2817
S'(code=\'response.write(\\\'<!DOCTYPE html>\\\\n<!-- paulirish....>\\\\n   \\\\n\\\\n \\\\n\\\\n</body>\\\\n</html>\\\\n", escape=False)\', environment={\'A\': <class \'gluon.html.A\'>, \'Auth\': <class \'gluon.tools.Auth\'>, \'B\': <class \'gluon.html.B\'>, \'BEAUTIFY\': <class \'gluon.html.BEAUTIFY\'>, \'BODY\': <class \'gluon.html.BODY\'>, \'BR\': <class \'gluon.html.BR\'>, \'BUTTON\': <class \'gluon.html.BUTTON\'>, \'CAT\': <class \'gluon.html.CAT\'>, \'CENTER\': <class \'gluon.html.CENTER\'>, \'CLEANUP\': <class \'gluon.validators.CLEANUP\'>, ...}, layer=\'D:\\\\Dise\\xf1o Web\\\\Proyectos\\\\Parleyweb\\\\web2py\\\\applications\\\\parleyweb\\\\views\\\\default/mostrar.html\')'
p2818
sS'func'
p2819
S'restricted'
p2820
sa(dp2821
g2810
S'D:\\Dise\xf1o Web\\Proyectos\\Parleyweb\\web2py\\applications\\parleyweb\\views\\default\\mostrar.html'
p2822
sg2812
(dp2823
sg2814
I116
sg2815
(dp2824
I107
S'            response.write(\'\\n                        <img class="img-sustantivo" src="\', escape=False)'
p2825
sI108
S"            response.write(URL('download', args=palabras.imagen))"
p2826
sI109
S'            response.write(\'" />\\n                    \', escape=False)'
p2827
sI110
S'            pass'
p2828
sI111
S'        response.write(\'\\n                </div>\\n                <h4 class="h4-mostrar">Ejemplos</h4>\\n                <table class="table table-striped table-bordered">\\n                    <thead>\\n                        <tr>\\n                            <th>\', escape=False)'
p2829
sI112
S"        response.write(IMG(_src=URL('static', 'images/germany.gif')))"
p2830
sI113
S"        response.write('</th>\\n                            <th>', escape=False)"
p2831
sI114
S"        response.write(IMG(_src=URL('static', 'images/spain.gif')))"
p2832
sI115
S"        response.write('</th>\\n                            <th>Fuente</th>\\n                        </tr>\\n                    </thead>\\n                    <tbody>\\n                        ', escape=False)"
p2833
sI116
S"        for registro in ejemplos(db.ejemplos.tipo=='sustantivo').select(db.ejemplos.ALL):"
p2834
sI117
S"            response.write('\\n                        <tr>\\n                            <td>\\n                                ', escape=False)"
p2835
sI118
S'            response.write(registro.ejemplo_de)'
p2836
sI119
S"            response.write('\\n                            </td>\\n                            <td>\\n                                ', escape=False)"
p2837
sI120
S'            response.write(registro.ejemplo_es)'
p2838
sI121
S"            response.write('\\n                            </td>\\n                               \\n                            <td>\\n                                 ', escape=False)"
p2839
sI122
S'            if registro.fuente:'
p2840
sI123
S"                response.write('\\n                                    ', escape=False)"
p2841
sI124
S'                response.write(registro.fuente.nombre)'
p2842
sI125
S"                response.write('\\n                                ', escape=False)"
p2843
sI126
S'                pass'
p2844
ssg2817
S'()'
p2845
sg2819
S'<module>'
p2846
sa(dp2847
g2810
S'D:\\Dise\xf1o Web\\Proyectos\\Parleyweb\\web2py\\gluon\\dal.py'
p2848
sg2812
(dp2849
sg2814
I6774
sg2815
(dp2850
sg2817
S"(self=<Table {'sustantivo': <gluon.dal.Field object at..., '_id': <gluon.dal.Field object at 0x06E48650>}>, key='tipo')"
p2851
sg2819
S'__getattr__'
p2852
sa(dp2853
g2810
S'D:\\Dise\xf1o Web\\Proyectos\\Parleyweb\\web2py\\gluon\\dal.py'
p2854
sg2812
(dp2855
sg2814
I6714
sg2815
(dp2856
sg2817
S"(self=<Table {'sustantivo': <gluon.dal.Field object at..., '_id': <gluon.dal.Field object at 0x06E48650>}>, key='tipo')"
p2857
sg2819
g20
sasS'pyver'
p2858
S'Python 2.5.4: D:\\Dise\xf1o Web\\Proyectos\\Parleyweb\\web2py\\web2py.exe'
p2859
sS'session'
p2860
g49
(g50
g51
NtRp2861
(dp2862
g54
(dp2863
sg56
(lp2864
g49
(g58
g51
NtRp2865
(dp2866
g54
(dp2867
g62
I5
ssg63
Nsg56
(lp2868
sbasbsS'etype'
p2869
S"<type 'exceptions.KeyError'>"
p2870
sS'date'
p2871
S'Fri Mar 16 14:09:23 2012'
p2872
sS'response'
p2873
g49
(g50
g51
NtRp2874
(dp2875
g54
(dp2876
sg56
(lp2877
g49
(g58
g51
NtRp2878
(dp2879
g54
(dp2880
g62
I5
ssg63
Nsg56
(lp2881
g49
(g65
g51
NtRp2882
(dp2883
g54
(dp2884
sg63
g2878
sg56
(lp2885
g49
(g70
g51
NtRp2886
(dp2887
g54
(dp2888
g74
g75
ssg63
g2882
sg56
(lp2889
g123
asbag49
(g70
g51
NtRp2890
(dp2891
g54
(dp2892
g81
g82
ssg63
g2882
sg56
(lp2893
S':'
asbag49
(g70
g51
NtRp2894
(dp2895
g54
(dp2896
sg63
g2882
sg56
(lp2897
g49
(g50
g51
NtRp2898
(dp2899
g54
(dp2900
g62
I5
ssg63
g2894
sg56
(lp2901
S'<cStringIO.StringO object at 0x07706EE0>'
p2902
asbasbasbag49
(g65
g51
NtRp2903
(dp2904
g54
(dp2905
sg63
g2878
sg56
(lp2906
g49
(g70
g51
NtRp2907
(dp2908
g54
(dp2909
g74
g75
ssg63
g2903
sg56
(lp2910
g189
asbag49
(g70
g51
NtRp2911
(dp2912
g54
(dp2913
g81
g82
ssg63
g2903
sg56
(lp2914
S':'
asbag49
(g70
g51
NtRp2915
(dp2916
g54
(dp2917
sg63
g2903
sg56
(lp2918
g49
(g50
g51
NtRp2919
(dp2920
g54
(dp2921
g62
I5
ssg63
g2915
sg56
(lp2922
g49
(g58
g51
NtRp2923
(dp2924
g54
(dp2925
g62
I4
ssg63
Nsg56
(lp2926
g49
(g65
g51
NtRp2927
(dp2928
g54
(dp2929
sg63
g2923
sg56
(lp2930
g49
(g70
g51
NtRp2931
(dp2932
g54
(dp2933
g74
g75
ssg63
g2927
sg56
(lp2934
S'session_id_parleyweb'
p2935
asbag49
(g70
g51
NtRp2936
(dp2937
g54
(dp2938
g81
g82
ssg63
g2927
sg56
(lp2939
S':'
asbag49
(g70
g51
NtRp2940
(dp2941
g54
(dp2942
sg63
g2927
sg56
(lp2943
g49
(g50
g51
NtRp2944
(dp2945
g54
(dp2946
g62
I4
ssg63
g2940
sg56
(lp2947
g49
(g58
g51
NtRp2948
(dp2949
g54
(dp2950
g62
I3
ssg63
Nsg56
(lp2951
g49
(g65
g51
NtRp2952
(dp2953
g54
(dp2954
sg63
g2948
sg56
(lp2955
g49
(g70
g51
NtRp2956
(dp2957
g54
(dp2958
g74
g75
ssg63
g2952
sg56
(lp2959
g239
asbag49
(g70
g51
NtRp2960
(dp2961
g54
(dp2962
g81
g82
ssg63
g2952
sg56
(lp2963
S':'
asbag49
(g70
g51
NtRp2964
(dp2965
g54
(dp2966
sg63
g2952
sg56
(lp2967
g49
(g50
g51
NtRp2968
(dp2969
g54
(dp2970
g62
I3
ssg63
g2964
sg56
(lp2971
S''
asbasbasbag49
(g65
g51
NtRp2972
(dp2973
g54
(dp2974
sg63
g2948
sg56
(lp2975
g49
(g70
g51
NtRp2976
(dp2977
g54
(dp2978
g74
g75
ssg63
g2972
sg56
(lp2979
g260
asbag49
(g70
g51
NtRp2980
(dp2981
g54
(dp2982
g81
g82
ssg63
g2972
sg56
(lp2983
S':'
asbag49
(g70
g51
NtRp2984
(dp2985
g54
(dp2986
sg63
g2972
sg56
(lp2987
g49
(g50
g51
NtRp2988
(dp2989
g54
(dp2990
g62
I3
ssg63
g2984
sg56
(lp2991
S''
asbasbasbag49
(g65
g51
NtRp2992
(dp2993
g54
(dp2994
sg63
g2948
sg56
(lp2995
g49
(g70
g51
NtRp2996
(dp2997
g54
(dp2998
g74
g75
ssg63
g2992
sg56
(lp2999
g281
asbag49
(g70
g51
NtRp3000
(dp3001
g54
(dp3002
g81
g82
ssg63
g2992
sg56
(lp3003
S':'
asbag49
(g70
g51
NtRp3004
(dp3005
g54
(dp3006
sg63
g2992
sg56
(lp3007
g49
(g50
g51
NtRp3008
(dp3009
g54
(dp3010
g62
I3
ssg63
g3004
sg56
(lp3011
S''
asbasbasbag49
(g65
g51
NtRp3012
(dp3013
g54
(dp3014
sg63
g2948
sg56
(lp3015
g49
(g70
g51
NtRp3016
(dp3017
g54
(dp3018
g74
g75
ssg63
g3012
sg56
(lp3019
g302
asbag49
(g70
g51
NtRp3020
(dp3021
g54
(dp3022
g81
g82
ssg63
g3012
sg56
(lp3023
S':'
asbag49
(g70
g51
NtRp3024
(dp3025
g54
(dp3026
sg63
g3012
sg56
(lp3027
g49
(g50
g51
NtRp3028
(dp3029
g54
(dp3030
g62
I3
ssg63
g3024
sg56
(lp3031
S''
asbasbasbag49
(g65
g51
NtRp3032
(dp3033
g54
(dp3034
sg63
g2948
sg56
(lp3035
g49
(g70
g51
NtRp3036
(dp3037
g54
(dp3038
g74
g75
ssg63
g3032
sg56
(lp3039
g323
asbag49
(g70
g51
NtRp3040
(dp3041
g54
(dp3042
g81
g82
ssg63
g3032
sg56
(lp3043
S':'
asbag49
(g70
g51
NtRp3044
(dp3045
g54
(dp3046
sg63
g3032
sg56
(lp3047
g49
(g50
g51
NtRp3048
(dp3049
g54
(dp3050
g62
I3
ssg63
g3044
sg56
(lp3051
S'/'
asbasbasbag49
(g65
g51
NtRp3052
(dp3053
g54
(dp3054
sg63
g2948
sg56
(lp3055
g49
(g70
g51
NtRp3056
(dp3057
g54
(dp3058
g74
g75
ssg63
g3052
sg56
(lp3059
g344
asbag49
(g70
g51
NtRp3060
(dp3061
g54
(dp3062
g81
g82
ssg63
g3052
sg56
(lp3063
S':'
asbag49
(g70
g51
NtRp3064
(dp3065
g54
(dp3066
sg63
g3052
sg56
(lp3067
g49
(g50
g51
NtRp3068
(dp3069
g54
(dp3070
g62
I3
ssg63
g3064
sg56
(lp3071
S''
asbasbasbag49
(g65
g51
NtRp3072
(dp3073
g54
(dp3074
sg63
g2948
sg56
(lp3075
g49
(g70
g51
NtRp3076
(dp3077
g54
(dp3078
g74
g75
ssg63
g3072
sg56
(lp3079
g365
asbag49
(g70
g51
NtRp3080
(dp3081
g54
(dp3082
g81
g82
ssg63
g3072
sg56
(lp3083
S':'
asbag49
(g70
g51
NtRp3084
(dp3085
g54
(dp3086
sg63
g3072
sg56
(lp3087
g49
(g50
g51
NtRp3088
(dp3089
g54
(dp3090
g62
I3
ssg63
g3084
sg56
(lp3091
S''
asbasbasbasbasbasbasbasbasbasbasbag49
(g65
g51
NtRp3092
(dp3093
g54
(dp3094
sg63
g2878
sg56
(lp3095
g49
(g70
g51
NtRp3096
(dp3097
g54
(dp3098
g74
g75
ssg63
g3092
sg56
(lp3099
S'delimiters'
p3100
asbag49
(g70
g51
NtRp3101
(dp3102
g54
(dp3103
g81
g82
ssg63
g3092
sg56
(lp3104
S':'
asbag49
(g70
g51
NtRp3105
(dp3106
g54
(dp3107
sg63
g3092
sg56
(lp3108
g49
(g50
g51
NtRp3109
(dp3110
g54
(dp3111
g62
I5
ssg63
g3105
sg56
(lp3112
g49
(g58
g51
NtRp3113
(dp3114
g54
(dp3115
g62
I4
ssg63
Nsg56
(lp3116
g49
(g65
g51
NtRp3117
(dp3118
g54
(dp3119
sg63
g3113
sg56
(lp3120
g49
(g70
g51
NtRp3121
(dp3122
g54
(dp3123
sg63
g3117
sg56
(lp3124
g49
(g50
g51
NtRp3125
(dp3126
g54
(dp3127
g62
I4
ssg63
g3121
sg56
(lp3128
S'{{'
p3129
asbasbasbag49
(g65
g51
NtRp3130
(dp3131
g54
(dp3132
sg63
g3113
sg56
(lp3133
g49
(g70
g51
NtRp3134
(dp3135
g54
(dp3136
sg63
g3130
sg56
(lp3137
g49
(g50
g51
NtRp3138
(dp3139
g54
(dp3140
g62
I4
ssg63
g3134
sg56
(lp3141
S'}}'
p3142
asbasbasbasbasbasbasbag49
(g65
g51
NtRp3143
(dp3144
g54
(dp3145
sg63
g2878
sg56
(lp3146
g49
(g70
g51
NtRp3147
(dp3148
g54
(dp3149
g74
g75
ssg63
g3143
sg56
(lp3150
S'files'
p3151
asbag49
(g70
g51
NtRp3152
(dp3153
g54
(dp3154
g81
g82
ssg63
g3143
sg56
(lp3155
S':'
asbag49
(g70
g51
NtRp3156
(dp3157
g54
(dp3158
sg63
g3143
sg56
(lp3159
g49
(g50
g51
NtRp3160
(dp3161
g54
(dp3162
g62
I5
ssg63
g3156
sg56
(lp3163
g49
(g58
g51
NtRp3164
(dp3165
g54
(dp3166
g62
I4
ssg63
Nsg56
(lp3167
g49
(g65
g51
NtRp3168
(dp3169
g54
(dp3170
sg63
g3164
sg56
(lp3171
g49
(g70
g51
NtRp3172
(dp3173
g54
(dp3174
sg63
g3168
sg56
(lp3175
g49
(g50
g51
NtRp3176
(dp3177
g54
(dp3178
g62
I4
ssg63
g3172
sg56
(lp3179
S'/parleyweb/static/js/jquery.js'
p3180
asbasbasbag49
(g65
g51
NtRp3181
(dp3182
g54
(dp3183
sg63
g3164
sg56
(lp3184
g49
(g70
g51
NtRp3185
(dp3186
g54
(dp3187
sg63
g3181
sg56
(lp3188
g49
(g50
g51
NtRp3189
(dp3190
g54
(dp3191
g62
I4
ssg63
g3185
sg56
(lp3192
S'/parleyweb/static/css/calendar.css'
p3193
asbasbasbag49
(g65
g51
NtRp3194
(dp3195
g54
(dp3196
sg63
g3164
sg56
(lp3197
g49
(g70
g51
NtRp3198
(dp3199
g54
(dp3200
sg63
g3194
sg56
(lp3201
g49
(g50
g51
NtRp3202
(dp3203
g54
(dp3204
g62
I4
ssg63
g3198
sg56
(lp3205
S'/parleyweb/static/js/calendar.js'
p3206
asbasbasbag49
(g65
g51
NtRp3207
(dp3208
g54
(dp3209
sg63
g3164
sg56
(lp3210
g49
(g70
g51
NtRp3211
(dp3212
g54
(dp3213
sg63
g3207
sg56
(lp3214
g49
(g50
g51
NtRp3215
(dp3216
g54
(dp3217
g62
I4
ssg63
g3211
sg56
(lp3218
S'/parleyweb/static/js/web2py.js'
p3219
asbasbasbag49
(g65
g51
NtRp3220
(dp3221
g54
(dp3222
sg63
g3164
sg56
(lp3223
g49
(g70
g51
NtRp3224
(dp3225
g54
(dp3226
sg63
g3220
sg56
(lp3227
g49
(g50
g51
NtRp3228
(dp3229
g54
(dp3230
g62
I4
ssg63
g3224
sg56
(lp3231
S'/parleyweb/static/css/bootstrap.css'
p3232
asbasbasbag49
(g65
g51
NtRp3233
(dp3234
g54
(dp3235
sg63
g3164
sg56
(lp3236
g49
(g70
g51
NtRp3237
(dp3238
g54
(dp3239
sg63
g3233
sg56
(lp3240
g49
(g50
g51
NtRp3241
(dp3242
g54
(dp3243
g62
I4
ssg63
g3237
sg56
(lp3244
S'/parleyweb/static/js/bootstrap.js'
p3245
asbasbasbag49
(g65
g51
NtRp3246
(dp3247
g54
(dp3248
sg63
g3164
sg56
(lp3249
g49
(g70
g51
NtRp3250
(dp3251
g54
(dp3252
sg63
g3246
sg56
(lp3253
g49
(g50
g51
NtRp3254
(dp3255
g54
(dp3256
g62
I4
ssg63
g3250
sg56
(lp3257
S'/parleyweb/static/css/parleyweb.css'
p3258
asbasbasbag49
(g65
g51
NtRp3259
(dp3260
g54
(dp3261
sg63
g3164
sg56
(lp3262
g49
(g70
g51
NtRp3263
(dp3264
g54
(dp3265
sg63
g3259
sg56
(lp3266
g49
(g50
g51
NtRp3267
(dp3268
g54
(dp3269
g62
I4
ssg63
g3263
sg56
(lp3270
S'/parleyweb/static/css/jquery-ui-1.8.18.custom.css'
p3271
asbasbasbag49
(g65
g51
NtRp3272
(dp3273
g54
(dp3274
sg63
g3164
sg56
(lp3275
g49
(g70
g51
NtRp3276
(dp3277
g54
(dp3278
sg63
g3272
sg56
(lp3279
g49
(g50
g51
NtRp3280
(dp3281
g54
(dp3282
g62
I4
ssg63
g3276
sg56
(lp3283
S'/parleyweb/static/js/parleyweb.js'
p3284
asbasbasbag49
(g65
g51
NtRp3285
(dp3286
g54
(dp3287
sg63
g3164
sg56
(lp3288
g49
(g70
g51
NtRp3289
(dp3290
g54
(dp3291
sg63
g3285
sg56
(lp3292
g49
(g50
g51
NtRp3293
(dp3294
g54
(dp3295
g62
I4
ssg63
g3289
sg56
(lp3296
S'/parleyweb/static/js/jquery-ui-1.8.18.custom.min.js'
p3297
asbasbasbasbasbasbasbag49
(g65
g51
NtRp3298
(dp3299
g54
(dp3300
sg63
g2878
sg56
(lp3301
g49
(g70
g51
NtRp3302
(dp3303
g54
(dp3304
g74
g75
ssg63
g3298
sg56
(lp3305
S'flash'
p3306
asbag49
(g70
g51
NtRp3307
(dp3308
g54
(dp3309
g81
g82
ssg63
g3298
sg56
(lp3310
S':'
asbag49
(g70
g51
NtRp3311
(dp3312
g54
(dp3313
sg63
g3298
sg56
(lp3314
g49
(g50
g51
NtRp3315
(dp3316
g54
(dp3317
g62
I5
ssg63
g3311
sg56
(lp3318
S''
asbasbasbag49
(g65
g51
NtRp3319
(dp3320
g54
(dp3321
sg63
g2878
sg56
(lp3322
g49
(g70
g51
NtRp3323
(dp3324
g54
(dp3325
g74
g75
ssg63
g3319
sg56
(lp3326
S'generic_patterns'
p3327
asbag49
(g70
g51
NtRp3328
(dp3329
g54
(dp3330
g81
g82
ssg63
g3319
sg56
(lp3331
S':'
asbag49
(g70
g51
NtRp3332
(dp3333
g54
(dp3334
sg63
g3319
sg56
(lp3335
g49
(g50
g51
NtRp3336
(dp3337
g54
(dp3338
g62
I5
ssg63
g3332
sg56
(lp3339
g49
(g58
g51
NtRp3340
(dp3341
g54
(dp3342
g62
I4
ssg63
Nsg56
(lp3343
g49
(g65
g51
NtRp3344
(dp3345
g54
(dp3346
sg63
g3340
sg56
(lp3347
g49
(g70
g51
NtRp3348
(dp3349
g54
(dp3350
sg63
g3344
sg56
(lp3351
g49
(g50
g51
NtRp3352
(dp3353
g54
(dp3354
g62
I4
ssg63
g3348
sg56
(lp3355
S'*'
asbasbasbasbasbasbasbag49
(g65
g51
NtRp3356
(dp3357
g54
(dp3358
sg63
g2878
sg56
(lp3359
g49
(g70
g51
NtRp3360
(dp3361
g54
(dp3362
g74
g75
ssg63
g3356
sg56
(lp3363
S'headers'
p3364
asbag49
(g70
g51
NtRp3365
(dp3366
g54
(dp3367
g81
g82
ssg63
g3356
sg56
(lp3368
S':'
asbag49
(g70
g51
NtRp3369
(dp3370
g54
(dp3371
sg63
g3356
sg56
(lp3372
g49
(g50
g51
NtRp3373
(dp3374
g54
(dp3375
g62
I5
ssg63
g3369
sg56
(lp3376
g49
(g58
g51
NtRp3377
(dp3378
g54
(dp3379
g62
I4
ssg63
Nsg56
(lp3380
g49
(g65
g51
NtRp3381
(dp3382
g54
(dp3383
sg63
g3377
sg56
(lp3384
g49
(g70
g51
NtRp3385
(dp3386
g54
(dp3387
g74
g75
ssg63
g3381
sg56
(lp3388
S'Cache-Control'
p3389
asbag49
(g70
g51
NtRp3390
(dp3391
g54
(dp3392
g81
g82
ssg63
g3381
sg56
(lp3393
S':'
asbag49
(g70
g51
NtRp3394
(dp3395
g54
(dp3396
sg63
g3381
sg56
(lp3397
g49
(g50
g51
NtRp3398
(dp3399
g54
(dp3400
g62
I4
ssg63
g3394
sg56
(lp3401
S'no-store, no-cache, must-revalidate, post-check=0, pre-check=0'
p3402
asbasbasbag49
(g65
g51
NtRp3403
(dp3404
g54
(dp3405
sg63
g3377
sg56
(lp3406
g49
(g70
g51
NtRp3407
(dp3408
g54
(dp3409
g74
g75
ssg63
g3403
sg56
(lp3410
S'Content-Type'
p3411
asbag49
(g70
g51
NtRp3412
(dp3413
g54
(dp3414
g81
g82
ssg63
g3403
sg56
(lp3415
S':'
asbag49
(g70
g51
NtRp3416
(dp3417
g54
(dp3418
sg63
g3403
sg56
(lp3419
g49
(g50
g51
NtRp3420
(dp3421
g54
(dp3422
g62
I4
ssg63
g3416
sg56
(lp3423
S'text/html; charset=utf-8'
p3424
asbasbasbag49
(g65
g51
NtRp3425
(dp3426
g54
(dp3427
sg63
g3377
sg56
(lp3428
g49
(g70
g51
NtRp3429
(dp3430
g54
(dp3431
g74
g75
ssg63
g3425
sg56
(lp3432
S'Expires'
p3433
asbag49
(g70
g51
NtRp3434
(dp3435
g54
(dp3436
g81
g82
ssg63
g3425
sg56
(lp3437
S':'
asbag49
(g70
g51
NtRp3438
(dp3439
g54
(dp3440
sg63
g3425
sg56
(lp3441
g49
(g50
g51
NtRp3442
(dp3443
g54
(dp3444
g62
I4
ssg63
g3438
sg56
(lp3445
S'Fri, 16 Mar 2012 13:09:23 GMT'
p3446
asbasbasbag49
(g65
g51
NtRp3447
(dp3448
g54
(dp3449
sg63
g3377
sg56
(lp3450
g49
(g70
g51
NtRp3451
(dp3452
g54
(dp3453
g74
g75
ssg63
g3447
sg56
(lp3454
S'Pragma'
p3455
asbag49
(g70
g51
NtRp3456
(dp3457
g54
(dp3458
g81
g82
ssg63
g3447
sg56
(lp3459
S':'
asbag49
(g70
g51
NtRp3460
(dp3461
g54
(dp3462
sg63
g3447
sg56
(lp3463
g49
(g50
g51
NtRp3464
(dp3465
g54
(dp3466
g62
I4
ssg63
g3460
sg56
(lp3467
S'no-cache'
p3468
asbasbasbag49
(g65
g51
NtRp3469
(dp3470
g54
(dp3471
sg63
g3377
sg56
(lp3472
g49
(g70
g51
NtRp3473
(dp3474
g54
(dp3475
g74
g75
ssg63
g3469
sg56
(lp3476
S'X-Powered-By'
p3477
asbag49
(g70
g51
NtRp3478
(dp3479
g54
(dp3480
g81
g82
ssg63
g3469
sg56
(lp3481
S':'
asbag49
(g70
g51
NtRp3482
(dp3483
g54
(dp3484
sg63
g3469
sg56
(lp3485
g49
(g50
g51
NtRp3486
(dp3487
g54
(dp3488
g62
I4
ssg63
g3482
sg56
(lp3489
S'web2py'
p3490
asbasbasbasbasbasbasbag49
(g65
g51
NtRp3491
(dp3492
g54
(dp3493
sg63
g2878
sg56
(lp3494
g49
(g70
g51
NtRp3495
(dp3496
g54
(dp3497
g74
g75
ssg63
g3491
sg56
(lp3498
S'menu'
p3499
asbag49
(g70
g51
NtRp3500
(dp3501
g54
(dp3502
g81
g82
ssg63
g3491
sg56
(lp3503
S':'
asbag49
(g70
g51
NtRp3504
(dp3505
g54
(dp3506
sg63
g3491
sg56
(lp3507
g49
(g50
g51
NtRp3508
(dp3509
g54
(dp3510
g62
I5
ssg63
g3504
sg56
(lp3511
g49
(g58
g51
NtRp3512
(dp3513
g54
(dp3514
g62
I4
ssg63
Nsg56
(lp3515
g49
(g65
g51
NtRp3516
(dp3517
g54
(dp3518
sg63
g3512
sg56
(lp3519
g49
(g70
g51
NtRp3520
(dp3521
g54
(dp3522
sg63
g3516
sg56
(lp3523
g49
(g50
g51
NtRp3524
(dp3525
g54
(dp3526
g62
I4
ssg63
g3520
sg56
(lp3527
g49
(g58
g51
NtRp3528
(dp3529
g54
(dp3530
g62
I3
ssg63
Nsg56
(lp3531
g49
(g65
g51
NtRp3532
(dp3533
g54
(dp3534
sg63
g3528
sg56
(lp3535
g49
(g70
g51
NtRp3536
(dp3537
g54
(dp3538
sg63
g3532
sg56
(lp3539
g49
(g50
g51
NtRp3540
(dp3541
g54
(dp3542
g62
I3
ssg63
g3536
sg56
(lp3543
cgluon.languages
lazyT_unpickle
p3544
(S't\x04\x00\x00\x00Home'
tRp3545
asbasbasbag49
(g65
g51
NtRp3546
(dp3547
g54
(dp3548
sg63
g3528
sg56
(lp3549
g49
(g70
g51
NtRp3550
(dp3551
g54
(dp3552
sg63
g3546
sg56
(lp3553
g49
(g50
g51
NtRp3554
(dp3555
g54
(dp3556
g62
I3
ssg63
g3550
sg56
(lp3557
g92
asbasbasbag49
(g65
g51
NtRp3558
(dp3559
g54
(dp3560
sg63
g3528
sg56
(lp3561
g49
(g70
g51
NtRp3562
(dp3563
g54
(dp3564
sg63
g3558
sg56
(lp3565
g49
(g50
g51
NtRp3566
(dp3567
g54
(dp3568
g62
I3
ssg63
g3562
sg56
(lp3569
S'/parleyweb/default/index'
p3570
asbasbasbag49
(g65
g51
NtRp3571
(dp3572
g54
(dp3573
sg63
g3528
sg56
(lp3574
g49
(g70
g51
NtRp3575
(dp3576
g54
(dp3577
sg63
g3571
sg56
(lp3578
g49
(g50
g51
NtRp3579
(dp3580
g54
(dp3581
g62
I3
ssg63
g3575
sg56
(lp3582
g49
(g58
g51
NtRp3583
(dp3584
g54
(dp3585
g62
I2
ssg63
Nsg56
(lp3586
sbasbasbasbasbasbasbasbasbasbasbasbag49
(g65
g51
NtRp3587
(dp3588
g54
(dp3589
sg63
g2878
sg56
(lp3590
g49
(g70
g51
NtRp3591
(dp3592
g54
(dp3593
g74
g75
ssg63
g3587
sg56
(lp3594
S'meta'
p3595
asbag49
(g70
g51
NtRp3596
(dp3597
g54
(dp3598
g81
g82
ssg63
g3587
sg56
(lp3599
S':'
asbag49
(g70
g51
NtRp3600
(dp3601
g54
(dp3602
sg63
g3587
sg56
(lp3603
g49
(g50
g51
NtRp3604
(dp3605
g54
(dp3606
g62
I5
ssg63
g3600
sg56
(lp3607
g49
(g58
g51
NtRp3608
(dp3609
g54
(dp3610
g62
I4
ssg63
Nsg56
(lp3611
g49
(g65
g51
NtRp3612
(dp3613
g54
(dp3614
sg63
g3608
sg56
(lp3615
g49
(g70
g51
NtRp3616
(dp3617
g54
(dp3618
g74
g75
ssg63
g3612
sg56
(lp3619
S'author'
p3620
asbag49
(g70
g51
NtRp3621
(dp3622
g54
(dp3623
g81
g82
ssg63
g3612
sg56
(lp3624
S':'
asbag49
(g70
g51
NtRp3625
(dp3626
g54
(dp3627
sg63
g3612
sg56
(lp3628
g49
(g50
g51
NtRp3629
(dp3630
g54
(dp3631
g62
I4
ssg63
g3625
sg56
(lp3632
S'Your Name <you@example.com>'
p3633
asbasbasbag49
(g65
g51
NtRp3634
(dp3635
g54
(dp3636
sg63
g3608
sg56
(lp3637
g49
(g70
g51
NtRp3638
(dp3639
g54
(dp3640
g74
g75
ssg63
g3634
sg56
(lp3641
S'copyright'
p3642
asbag49
(g70
g51
NtRp3643
(dp3644
g54
(dp3645
g81
g82
ssg63
g3634
sg56
(lp3646
S':'
asbag49
(g70
g51
NtRp3647
(dp3648
g54
(dp3649
sg63
g3634
sg56
(lp3650
g49
(g50
g51
NtRp3651
(dp3652
g54
(dp3653
g62
I4
ssg63
g3647
sg56
(lp3654
S'Copyright 2011'
p3655
asbasbasbag49
(g65
g51
NtRp3656
(dp3657
g54
(dp3658
sg63
g3608
sg56
(lp3659
g49
(g70
g51
NtRp3660
(dp3661
g54
(dp3662
g74
g75
ssg63
g3656
sg56
(lp3663
S'description'
p3664
asbag49
(g70
g51
NtRp3665
(dp3666
g54
(dp3667
g81
g82
ssg63
g3656
sg56
(lp3668
S':'
asbag49
(g70
g51
NtRp3669
(dp3670
g54
(dp3671
sg63
g3656
sg56
(lp3672
g49
(g50
g51
NtRp3673
(dp3674
g54
(dp3675
g62
I4
ssg63
g3669
sg56
(lp3676
S'a cool new app'
p3677
asbasbasbag49
(g65
g51
NtRp3678
(dp3679
g54
(dp3680
sg63
g3608
sg56
(lp3681
g49
(g70
g51
NtRp3682
(dp3683
g54
(dp3684
g74
g75
ssg63
g3678
sg56
(lp3685
S'generator'
p3686
asbag49
(g70
g51
NtRp3687
(dp3688
g54
(dp3689
g81
g82
ssg63
g3678
sg56
(lp3690
S':'
asbag49
(g70
g51
NtRp3691
(dp3692
g54
(dp3693
sg63
g3678
sg56
(lp3694
g49
(g50
g51
NtRp3695
(dp3696
g54
(dp3697
g62
I4
ssg63
g3691
sg56
(lp3698
S'Web2py Web Framework'
p3699
asbasbasbag49
(g65
g51
NtRp3700
(dp3701
g54
(dp3702
sg63
g3608
sg56
(lp3703
g49
(g70
g51
NtRp3704
(dp3705
g54
(dp3706
g74
g75
ssg63
g3700
sg56
(lp3707
S'keywords'
p3708
asbag49
(g70
g51
NtRp3709
(dp3710
g54
(dp3711
g81
g82
ssg63
g3700
sg56
(lp3712
S':'
asbag49
(g70
g51
NtRp3713
(dp3714
g54
(dp3715
sg63
g3700
sg56
(lp3716
g49
(g50
g51
NtRp3717
(dp3718
g54
(dp3719
g62
I4
ssg63
g3713
sg56
(lp3720
S'web2py, python, framework'
p3721
asbasbasbasbasbasbasbag49
(g65
g51
NtRp3722
(dp3723
g54
(dp3724
sg63
g2878
sg56
(lp3725
g49
(g70
g51
NtRp3726
(dp3727
g54
(dp3728
g74
g75
ssg63
g3722
sg56
(lp3729
S'postprocessing'
p3730
asbag49
(g70
g51
NtRp3731
(dp3732
g54
(dp3733
g81
g82
ssg63
g3722
sg56
(lp3734
S':'
asbag49
(g70
g51
NtRp3735
(dp3736
g54
(dp3737
sg63
g3722
sg56
(lp3738
g49
(g50
g51
NtRp3739
(dp3740
g54
(dp3741
g62
I5
ssg63
g3735
sg56
(lp3742
g49
(g58
g51
NtRp3743
(dp3744
g54
(dp3745
g62
I4
ssg63
Nsg56
(lp3746
sbasbasbasbag49
(g65
g51
NtRp3747
(dp3748
g54
(dp3749
sg63
g2878
sg56
(lp3750
g49
(g70
g51
NtRp3751
(dp3752
g54
(dp3753
g74
g75
ssg63
g3747
sg56
(lp3754
S'session_file'
p3755
asbag49
(g70
g51
NtRp3756
(dp3757
g54
(dp3758
g81
g82
ssg63
g3747
sg56
(lp3759
S':'
asbag49
(g70
g51
NtRp3760
(dp3761
g54
(dp3762
sg63
g3747
sg56
(lp3763
g49
(g50
g51
NtRp3764
(dp3765
g54
(dp3766
g62
I5
ssg63
g3760
sg56
(lp3767
S"<open file 'D:\\Dise\xf1o Web\\Proyectos\\Parleyweb\\web2py\\applications\\parleyweb\\sessions\\127.0.0.1-8bc0d624-a7ac-4822-aaf0-ed4b06ce8341', mode 'rb+' at 0x06ADD0F8>"
p3768
asbasbasbag49
(g65
g51
NtRp3769
(dp3770
g54
(dp3771
sg63
g2878
sg56
(lp3772
g49
(g70
g51
NtRp3773
(dp3774
g54
(dp3775
g74
g75
ssg63
g3769
sg56
(lp3776
S'session_filename'
p3777
asbag49
(g70
g51
NtRp3778
(dp3779
g54
(dp3780
g81
g82
ssg63
g3769
sg56
(lp3781
S':'
asbag49
(g70
g51
NtRp3782
(dp3783
g54
(dp3784
sg63
g3769
sg56
(lp3785
g49
(g50
g51
NtRp3786
(dp3787
g54
(dp3788
g62
I5
ssg63
g3782
sg56
(lp3789
S'D:\\Dise\xf1o Web\\Proyectos\\Parleyweb\\web2py\\applications\\parleyweb\\sessions\\127.0.0.1-8bc0d624-a7ac-4822-aaf0-ed4b06ce8341'
p3790
asbasbasbag49
(g65
g51
NtRp3791
(dp3792
g54
(dp3793
sg63
g2878
sg56
(lp3794
g49
(g70
g51
NtRp3795
(dp3796
g54
(dp3797
g74
g75
ssg63
g3791
sg56
(lp3798
S'session_id'
p3799
asbag49
(g70
g51
NtRp3800
(dp3801
g54
(dp3802
g81
g82
ssg63
g3791
sg56
(lp3803
S':'
asbag49
(g70
g51
NtRp3804
(dp3805
g54
(dp3806
sg63
g3791
sg56
(lp3807
g49
(g50
g51
NtRp3808
(dp3809
g54
(dp3810
g62
I5
ssg63
g3804
sg56
(lp3811
S'127.0.0.1-8bc0d624-a7ac-4822-aaf0-ed4b06ce8341'
p3812
asbasbasbag49
(g65
g51
NtRp3813
(dp3814
g54
(dp3815
sg63
g2878
sg56
(lp3816
g49
(g70
g51
NtRp3817
(dp3818
g54
(dp3819
g74
g75
ssg63
g3813
sg56
(lp3820
S'session_id_name'
p3821
asbag49
(g70
g51
NtRp3822
(dp3823
g54
(dp3824
g81
g82
ssg63
g3813
sg56
(lp3825
S':'
asbag49
(g70
g51
NtRp3826
(dp3827
g54
(dp3828
sg63
g3813
sg56
(lp3829
g49
(g50
g51
NtRp3830
(dp3831
g54
(dp3832
g62
I5
ssg63
g3826
sg56
(lp3833
g2935
asbasbasbag49
(g65
g51
NtRp3834
(dp3835
g54
(dp3836
sg63
g2878
sg56
(lp3837
g49
(g70
g51
NtRp3838
(dp3839
g54
(dp3840
g74
g75
ssg63
g3834
sg56
(lp3841
S'session_locked'
p3842
asbag49
(g70
g51
NtRp3843
(dp3844
g54
(dp3845
g81
g82
ssg63
g3834
sg56
(lp3846
S':'
asbag49
(g70
g51
NtRp3847
(dp3848
g54
(dp3849
sg63
g3834
sg56
(lp3850
g49
(g50
g51
NtRp3851
(dp3852
g54
(dp3853
g62
I5
ssg63
g3847
sg56
(lp3854
g1441
asbasbasbag49
(g65
g51
NtRp3855
(dp3856
g54
(dp3857
sg63
g2878
sg56
(lp3858
g49
(g70
g51
NtRp3859
(dp3860
g54
(dp3861
g74
g75
ssg63
g3855
sg56
(lp3862
S'session_new'
p3863
asbag49
(g70
g51
NtRp3864
(dp3865
g54
(dp3866
g81
g82
ssg63
g3855
sg56
(lp3867
S':'
asbag49
(g70
g51
NtRp3868
(dp3869
g54
(dp3870
sg63
g3855
sg56
(lp3871
g49
(g50
g51
NtRp3872
(dp3873
g54
(dp3874
g62
I5
ssg63
g3868
sg56
(lp3875
g92
asbasbasbag49
(g65
g51
NtRp3876
(dp3877
g54
(dp3878
sg63
g2878
sg56
(lp3879
g49
(g70
g51
NtRp3880
(dp3881
g54
(dp3882
g74
g75
ssg63
g3876
sg56
(lp3883
S'status'
p3884
asbag49
(g70
g51
NtRp3885
(dp3886
g54
(dp3887
g81
g82
ssg63
g3876
sg56
(lp3888
S':'
asbag49
(g70
g51
NtRp3889
(dp3890
g54
(dp3891
sg63
g3876
sg56
(lp3892
g49
(g50
g51
NtRp3893
(dp3894
g54
(dp3895
g62
I5
ssg63
g3889
sg56
(lp3896
S'200'
p3897
asbasbasbag49
(g65
g51
NtRp3898
(dp3899
g54
(dp3900
sg63
g2878
sg56
(lp3901
g49
(g70
g51
NtRp3902
(dp3903
g54
(dp3904
g74
g75
ssg63
g3898
sg56
(lp3905
S'subtitle'
p3906
asbag49
(g70
g51
NtRp3907
(dp3908
g54
(dp3909
g81
g82
ssg63
g3898
sg56
(lp3910
S':'
asbag49
(g70
g51
NtRp3911
(dp3912
g54
(dp3913
sg63
g3898
sg56
(lp3914
g49
(g50
g51
NtRp3915
(dp3916
g54
(dp3917
g62
I5
ssg63
g3911
sg56
(lp3918
g3544
(S's\t\x00\x00\x00Adaptame!'
tRp3919
asbasbasbag49
(g65
g51
NtRp3920
(dp3921
g54
(dp3922
sg63
g2878
sg56
(lp3923
g49
(g70
g51
NtRp3924
(dp3925
g54
(dp3926
g74
g75
ssg63
g3920
sg56
(lp3927
S'title'
p3928
asbag49
(g70
g51
NtRp3929
(dp3930
g54
(dp3931
g81
g82
ssg63
g3920
sg56
(lp3932
S':'
asbag49
(g70
g51
NtRp3933
(dp3934
g54
(dp3935
sg63
g3920
sg56
(lp3936
g49
(g50
g51
NtRp3937
(dp3938
g54
(dp3939
g62
I5
ssg63
g3933
sg56
(lp3940
S'Parleyweb'
p3941
asbasbasbag49
(g65
g51
NtRp3942
(dp3943
g54
(dp3944
sg63
g2878
sg56
(lp3945
g49
(g70
g51
NtRp3946
(dp3947
g54
(dp3948
g74
g75
ssg63
g3942
sg56
(lp3949
g2127
asbag49
(g70
g51
NtRp3950
(dp3951
g54
(dp3952
g81
g82
ssg63
g3942
sg56
(lp3953
S':'
asbag49
(g70
g51
NtRp3954
(dp3955
g54
(dp3956
sg63
g3942
sg56
(lp3957
g49
(g50
g51
NtRp3958
(dp3959
g54
(dp3960
g62
I5
ssg63
g3954
sg56
(lp3961
g2140
asbasbasbag49
(g65
g51
NtRp3962
(dp3963
g54
(dp3964
sg63
g2878
sg56
(lp3965
g49
(g70
g51
NtRp3966
(dp3967
g54
(dp3968
g74
g75
ssg63
g3962
sg56
(lp3969
S'view'
p3970
asbag49
(g70
g51
NtRp3971
(dp3972
g54
(dp3973
g81
g82
ssg63
g3962
sg56
(lp3974
S':'
asbag49
(g70
g51
NtRp3975
(dp3976
g54
(dp3977
sg63
g3962
sg56
(lp3978
g49
(g50
g51
NtRp3979
(dp3980
g54
(dp3981
g62
I5
ssg63
g3975
sg56
(lp3982
S'default/mostrar.html'
p3983
asbasbasbasbasbsS'locals'
p3984
(dp3985
S'self'
p3986
S"<Table {'sustantivo': <gluon.dal.Field object at..., '_id': <gluon.dal.Field object at 0x06E48650>}>"
p3987
sS'key'
p3988
S"'tipo'"
p3989
sssS'traceback'
p3990
S'Traceback (most recent call last):\n  File "gluon/restricted.py", line 205, in restricted\n  File "D:\\Dise\xf1o Web\\Proyectos\\Parleyweb\\web2py\\applications\\parleyweb\\views\\default/mostrar.html", line 116, in <module>\n  File "gluon/dal.py", line 6774, in __getattr__\n  File "gluon/dal.py", line 6714, in __getitem__\nKeyError: \'tipo\'\n'
p3991
s.