(dp1
S'output'
p2
S"<type 'exceptions.KeyError'> 'tipo'"
p3
sS'layer'
p4
S'D:\\Dise\xf1o Web\\Proyectos\\Parleyweb\\web2py\\applications\\parleyweb\\views\\admin/agregar_ejemplo.html'
p5
sS'code'
p6
S'response.write(\'<!DOCTYPE html>\\n<!-- paulirish.com/2008/conditional-stylesheets-vs-css-hacks-answer-neither/ -->\\n<!--[if lt IE 7]><html class="ie ie6 ie-lte9 ie-lte8 ie-lte7 no-js" lang="\', escape=False)\nresponse.write(T.accepted_language or \'en\')\nresponse.write(\'"> <![endif]-->\\n<!--[if IE 7]><html class="ie ie7 ie-lte9 ie-lte8 ie-lte7 no-js" lang="\', escape=False)\nresponse.write(T.accepted_language or \'en\')\nresponse.write(\'"> <![endif]-->\\n<!--[if IE 8]><html class="ie ie8 ie-lte9 ie-lte8 no-js" lang="\', escape=False)\nresponse.write(T.accepted_language or \'en\')\nresponse.write(\'"> <![endif]-->\\n<!--[if IE 9]><html class="ie9 ie-lte9 no-js" lang="\', escape=False)\nresponse.write(T.accepted_language or \'en\')\nresponse.write(\'"> <![endif]-->\\n<!--[if (gt IE 9)|!(IE)]><!--> <html class="no-js" lang="\', escape=False)\nresponse.write(T.accepted_language or \'en\')\nresponse.write(\'"> <!--<![endif]-->\\n<head>\\n  <meta charset="utf-8" />\\n  <!-- www.phpied.com/conditional-comments-block-downloads/ -->\\n  <!-- Always force latest IE rendering engine\\n\\t   (even in intranet) & Chrome Frame\\n\\t   Remove this if you use the .htaccess -->\\n  <!--[if IE]>\\n    <meta http-equiv="X-UA-Compatible" content="IE=edge\', escape=False)\nresponse.write(not request.is_local and \',chrome=1\' or \'\')\nresponse.write(\'">\\n  <![endif]-->\\n  \\n  <title>\', escape=False)\nresponse.write(response.title or request.application)\nresponse.write(\'</title>\\n  \\n  <!-- http://dev.w3.org/html5/markup/meta.name.html -->\\n  <meta name="application-name" content="\', escape=False)\nresponse.write(request.application)\nresponse.write(\'" />\\n  \\n  <!-- Speaking of Google, don\\\'t forget to set your site up:\\n\\t   http://google.com/webmasters -->\\n  <meta name="google-site-verification" content="" />\\n\\n  <!--  Mobile Viewport Fix\\n\\t  j.mp/mobileviewport & davidbcalhoun.com/2010/viewport-metatag\\n\\t  device-width: Occupy full width of the screen in its current orientation\\n\\t  initial-scale = 1.0 retains dimensions instead of zooming out if page height > device height\\n\\t  user-scalable = yes allows the user to zoom in -->\\n  <meta name="viewport" content="width=device-width, initial-scale=1.0, user-scalable=yes">\\n  \\n  <!-- Place favicon.ico and apple-touch-icon.png in the root of your domain and delete these references -->\\n  <link rel="shortcut icon" href="\', escape=False)\nresponse.write(URL(\'static\',\'favicon.ico\'))\nresponse.write(\'" type="image/x-icon">\\n  <link rel="apple-touch-icon" href="\', escape=False)\nresponse.write(URL(\'static\',\'favicon.png\'))\nresponse.write(\'">\\n\\n  <!-- All JavaScript at the bottom, except for Modernizr which enables \\n\\t   HTML5 elements & feature detects -->\\n  <script src="\', escape=False)\nresponse.write(URL(\'static\',\'js/modernizr.custom.js\'))\nresponse.write(\'"></script>  \\n\\n  <!-- include stylesheets -->\\n  \', escape=False)\nresponse.files.append(URL(\'static\',\'css/bootstrap.css\'))\nresponse.files.append(URL(\'static\',\'js/bootstrap.js\'))\nresponse.files.append(URL(\'static\',\'js/jquery.tokeninput.js\'))\nresponse.files.append(URL(\'static\',\'css/parleyweb.css\'))\nresponse.files.append(URL(\'static\',\'css/jqtransform.css\'))\nresponse.files.append(URL(\'static\',\'js/parleyweb.js\'))\nresponse.files.append(URL(\'static\',\'js/jquery.jqtransform.js\'))\nresponse.write(\'\\n\\n  \', escape=False)\nresponse.write(\'<script type="text/javascript"><!--\\n    // These variables are used by the web2py_ajax_init function in web2py_ajax.js (which is loaded below).\\n    var w2p_ajax_confirm_message = "\', escape=False)\nresponse.write(T(\'Are you sure you want to delete this object?\'))\nresponse.write(\'";\\n    var w2p_ajax_date_format = "\', escape=False)\nresponse.write(T(\'%Y-%m-%d\'))\nresponse.write(\'";\\n    var w2p_ajax_datetime_format = "\', escape=False)\nresponse.write(T(\'%Y-%m-%d %H:%M:%S\'))\nresponse.write(\'";\\n    //--></script>\\n\', escape=False)\nresponse.files.insert(0,URL(\'static\',\'js/jquery.js\'))\nresponse.files.insert(1,URL(\'static\',\'css/calendar.css\'))\nresponse.files.insert(2,URL(\'static\',\'js/calendar.js\'))\nresponse.files.insert(3,URL(\'static\',\'js/web2py.js\'))\nresponse.include_meta()\nresponse.include_files()\nresponse.write(\'\\n\', escape=False)\nresponse.write(\'\\n\\n  \\n\\n  \', escape=False)\n# using sidebars need to know what sidebar you want to use\nleft_sidebar_enabled = globals().get(\'left_sidebar_enabled\',False)\nright_sidebar_enabled = globals().get(\'right_sidebar_enabled\',False)\nmiddle_columns = {0:\'sixteen\',1:\'twelve\',2:\'eight\'}[\n(left_sidebar_enabled and 1 or 0)+(right_sidebar_enabled and 1 or 0)]\nresponse.write(\'\\n\\n  <!-- uncomment here to load jquery-ui\\n  <link rel="stylesheet" href="http://ajax.googleapis.com/ajax/libs/jqueryui/1.8.16/themes/base/jquery-ui.css" type="text/css" media="all" />\\n  <script src="http://ajax.googleapis.com/ajax/libs/jqueryui/1.8.16/jquery-ui.min.js" type="text/javascript"></script>\\n  uncomment to load jquery-ui //-->\\n</head>\\n <body>\\n\\n    <div class="navbar navbar-fixed-top">\\n      <div class="navbar-inner">\\n        <div class="container-fluid">\\n          <a class="btn btn-navbar" data-toggle="collapse" data-target=".nav-collapse">\\n            <span class="icon-bar"></span>\\n            <span class="icon-bar"></span>\\n            <span class="icon-bar"></span>\\n          </a>\\n          <a class="brand" href=\', escape=False)\nresponse.write(URL(\'index\'))\nresponse.write(\'>Administracion</a>\\n          <div class="nav-collapse">\\n\\t    \', escape=False)\n#=MENU(response.menu, _class="nav active")\nresponse.write(\'\\n            <ul class="nav">\\n\\t      <li>\', escape=False)\nresponse.write(A(T(\'Parleyweb\'), _href=URL(\'default\',\'index\')))\nresponse.write(\'</li>\\n\\t      <!--<li class="dropdown" id="menu2">\\n\\t\\t<a class="dropdown-toggle" data-toggle="dropdown" href="web2py-utilidades"}}>\\n\\t\\t\', escape=False)\nresponse.write(T(\'Web2py utilidades\'))\nresponse.write(\'\\n\\t\\t<b class="caret"></b>\\n\\t\\t</a>\\n\\t\\t<ul class="dropdown-menu">\\n\\t\\t<li>\', escape=False)\nresponse.write(A(T(\'Sqlgrid palabra\'), _href=URL(\'admin\',\'agregar_palabra_grid\')))\nresponse.write(\'</li>\\n\\t\\t</ul>\\n\\t      </li> -->\\n            </ul> \\n\\t    \\n            <p class="navbar-text pull-right">\', escape=False)\nresponse.write(\'auth\' in globals() and auth.navbar(separators=(\' \',\' | \',\'\')))\nresponse.write(\'</p>\\n          </div><!--/.nav-collapse -->\\n        </div>\\n      </div>\\n    </div>\\n    <div class="flash alert alert-info"></i>\', escape=False)\nresponse.write(response.flash or \'\')\nresponse.write(\'</div>\\n    <div class="container-fluid">\\n      <div class="row-fluid">\\n\\t\\n        <div class="span3">\\n\\t  \\n          <div class="well sidebar-nav">\\n            <ul class="nav nav-list">\\n              <li class="nav-header">Agregar</li>\\n              <li>\', escape=False)\nresponse.write(A(T(\'Palabra\'), _href=URL(\'admin\',\'agregar_palabra\')))\nresponse.write(\'</li>\\n\\t      <li>\', escape=False)\nresponse.write(A(T(\'Ejemplo\'), _href=URL(\'admin\',\'agregar_ejemplo\')))\nresponse.write(\'</li>\\n\\t      <li>\', escape=False)\nresponse.write(A(T(\'Fuente\'), _href=URL(\'admin\',\'agregar_fuente\')))\nresponse.write(\'</li>\\n\\t      <li>\', escape=False)\nresponse.write(A(T(\'Glosario\'), _href=URL(\'admin\',\'agregar_glosario\')))\nresponse.write(\'</li>\\n\\t      \', escape=False)\nresponse.write(\'\\n\\t      \', escape=False)\nresponse.write(\'\\n              <li class="nav-header">Estadisticas</li>\\n\\t      \', escape=False)\nresponse.write(\'\\n    \\n      <table class="table table-striped table-bordered" id="estadisticas">\\n        <tbody>\\n            <tr>\\n                <td><h4>Total ejemplos</h4></td>\\n                <td class="text_center"><span class="label label-success estadisticas" >\', escape=False)\nresponse.write(contador2)\nresponse.write(\'</span></td>\\n            </tr>\\n        </tbody>\\n      </table>\\n    \', escape=False)\nresponse.write(\'\\n    \\n            </ul>\\n          </div><!--/.well -->\\n\\t \\n        </div><!--/span-->\\n\\t\\n\\t \\n\\t\\n        <div class="span9">\\n\\t  \', escape=False)\nresponse.write(\'\\n\\t  \\n           \\n\\t   \', escape=False)\nresponse.write(\'\\n            \\n    \', escape=False)\nresponse.write(\'\\n\\n    <div class="opciones">\\n        <h3><i></i>Agregar ejemplo</h3>\\n        \\n        <div class="wellparley">\\n            \', escape=False)\nresponse.write(agregar_ejemplo)\nresponse.write(\'\\n        </div>    \\n        <h3>Ultimos ejemplos</h3>\\n        <div class="wellparley">\\n            <table class="table table-striped table-bordered" id="tabla_ultimos_ejemplos">\\n                    <thead>\\n                        <tr>\\n                            <th>ID</th>\\n                            <th>Ejemplo DE</th>\\n                            <th>Traduccion ES</th>\\n                            <th>Fuente</th>\\n                            <th>tipo</th>\\n                            <th>Opciones</th>\\n                            <th>Info</th>\\n                            <th>Palabras</th>\\n                           \\n                        </tr>\\n                    </thead>\\n                    <tbody>\\n                        \', escape=False)\nfor i in consulta_ejemplos:\n    response.write(\'\\n                        <tr>\\n                            <td><span class="label label-info">\', escape=False)\n    response.write(i.id)\n    response.write(\'</span></td>\\n                            <td><p>\', escape=False)\n    response.write(i.ejemplo_de)\n    response.write(\'</p></td>\\n                            <td><p>\', escape=False)\n    response.write(i.ejemplo_es)\n    response.write(\'</p></td>\\n                             <td><p>\\n                             \', escape=False)\n    for n in nombre_fuente:\n        response.write(\'\\n                                \', escape=False)\n        if n.id==i.fuente:\n            response.write(\'\\n                                    \', escape=False)\n            response.write(n.nombre)\n            response.write(\'\\n                                \', escape=False)\n            pass\n        response.write(\'\\n                             \', escape=False)\n        pass\n    response.write(\'\\n                             </p></td>\\n                             <td><p>\', escape=False)\n    response.write(i.tipo)\n    response.write(\'</p></td>\\n                            <td><a data-toggle="modal" href=\', escape=False)\n    response.write(URL(\'editar_ejemplo\', args=i.id))\n    response.write(\'><i class="icon-pencil"></i>Editar</a>\\n                            <a data-toggle="modal"  href=\', escape=False)\n    response.write(URL(\'borrar_ejemplo\', args=i.id))\n    response.write(\'><i class="icon-trash"></i>Borrar</a>\\n                            <a data-toggle="modal"  href=\', escape=False)\n    response.write(URL(\'relacionar_palabra\', args=i.id))\n    response.write(\'><i class="icon-plus-sign"></i>Relacionar Palabra</a>\\n                            <a data-toggle="modal"  href=\', escape=False)\n    response.write(URL(\'default\',\'mostrar\', args=[i.id,i.ejemplo_de]))\n    response.write(\'><i class="icon-eye-open"></i>Ver ejemplo</a>\\n                            </td>\\n                            <td>\\n                            \', escape=False)\n    conta=0\n    response.write(\'    \\n                            \', escape=False)\n    for cont in contador_palabra:\n        response.write(\'\\n                                \', escape=False)\n        if cont.ejemplo==i.id:\n            response.write(\'\\n                                    \', escape=False)\n            conta= conta +1\n            response.write(\'\\n                                \', escape=False)\n            pass\n        response.write(\' \\n                            \', escape=False)\n        pass\n    response.write(\'\\n                            <span class="label label-info"><b class="margen-derecho">\', escape=False)\n    response.write(conta)\n    response.write(\'</b>Palabras</span>\\n                            </td>\\n                            <td>\', escape=False)\n    for p in ejemplos(db.palabra_ejemplo.ejemplo==i.id).select():\n        response.write(A(T(p.palabras.palabra), _href=URL(\'admin\',\'mostrar_palabra\', args=p.palabras.id)))\n        pass\n    response.write(\'</td>\\n                        </tr>\\n                        \', escape=False)\n    pass\nresponse.write(\'\\n                        \\n                </table>\\n        </div>            \\n        \\n        \\n        \', escape=False)\nresponse.write(response.toolbar())\nresponse.write(\'\\n    </div>\\n\\n\', escape=False)\nresponse.write(\'\\n\\t  \\n\\t  \\n\\t  \', escape=False)\nresponse.write(\'\\n        </div>\\n          \\n          \\n        </div><!--/span-->\\n      </div><!--/row-->\\n\\n      <hr>\\n\\n      <footer>\\n        <p>\\xc2\\xa9 Company 2012</p>\\n      </footer>\\n\\n    </div><!--/.fluid-container-->\\n    \\n    <!-- Le javascript\\n    ================================================== -->\\n    <!-- Placed at the end of the document so the pages load faster \\n    <script>\\n      $(function () {\\n      $(\\\'.tabs a:last\\\').tab(\\\'show\\\')\\n      })\\n    </script>-->\\n    <script>\\n      $(\\\'#borrar_palabra\\\').modal(\\\'show\\\')\\n    </script>\\n    <script>\\n      $(\\\'#editar_palabra\\\').modal(\\\'show\\\')\\n    </script>\\n    <script>\\n      $(\\\'#borrar_ejemplo\\\').modal(\\\'show\\\')\\n    </script>\\n    <script>\\n      $(\\\'#editar-ejemplo\\\').modal(\\\'show\\\')\\n    </script>\\n    <script>\\n      $(\\\'#borrar_fuente\\\').modal(\\\'show\\\')\\n    </script>\\n    <script>\\n      $(\\\'#editar-fuente\\\').modal(\\\'show\\\')\\n    </script>\\n    <script type="text/javascript">\\n      $(function() {\\n\\t  //find all form with class jqtransform and apply the plugin\\n\\t  $("form.jqtransform").jqTransform();\\n      });\\n</script>\\n    \\n\\n \\n\\n</body>\\n</html>\\n\', escape=False)'
p7
sS'snapshot'
p8
(dp9
S'exception'
p10
(dp11
S'__hash__'
p12
S"<method-wrapper '__hash__' of exceptions.KeyError object at 0x07FA8300>"
p13
sS'__setattr__'
p14
S"<method-wrapper '__setattr__' of exceptions.KeyError object at 0x07FA8300>"
p15
sS'__reduce_ex__'
p16
S'<built-in method __reduce_ex__ of exceptions.KeyError object at 0x07FA8300>'
p17
sS'__getslice__'
p18
S"<method-wrapper '__getslice__' of exceptions.KeyError object at 0x07FA8300>"
p19
sS'__getitem__'
p20
S"<method-wrapper '__getitem__' of exceptions.KeyError object at 0x07FA8300>"
p21
sS'__setstate__'
p22
S'<built-in method __setstate__ of exceptions.KeyError object at 0x07FA8300>'
p23
sS'__reduce__'
p24
S'<built-in method __reduce__ of exceptions.KeyError object at 0x07FA8300>'
p25
sS'__str__'
p26
S"<method-wrapper '__str__' of exceptions.KeyError object at 0x07FA8300>"
p27
sS'args'
p28
S"('tipo',)"
p29
sS'__getattribute__'
p30
S"<method-wrapper '__getattribute__' of exceptions.KeyError object at 0x07FA8300>"
p31
sS'__class__'
p32
S"<type 'exceptions.KeyError'>"
p33
sS'__delattr__'
p34
S"<method-wrapper '__delattr__' of exceptions.KeyError object at 0x07FA8300>"
p35
sS'__repr__'
p36
S"<method-wrapper '__repr__' of exceptions.KeyError object at 0x07FA8300>"
p37
sS'__dict__'
p38
S'{}'
p39
sS'__doc__'
p40
S"'Mapping key not found.'"
p41
sS'__init__'
p42
S"<method-wrapper '__init__' of exceptions.KeyError object at 0x07FA8300>"
p43
sS'__new__'
p44
S'<built-in method __new__ of type object at 0x1E1CDFB8>'
p45
ssS'evalue'
p46
S"'tipo'"
p47
sS'request'
p48
ccopy_reg
_reconstructor
p49
(cgluon.html
BEAUTIFY
p50
c__builtin__
object
p51
NtRp52
(dp53
S'attributes'
p54
(dp55
sS'components'
p56
(lp57
g49
(cgluon.html
TABLE
p58
g51
NtRp59
(dp60
g54
(dp61
S'level'
p62
I5
ssS'parent'
p63
Nsg56
(lp64
g49
(cgluon.html
TR
p65
g51
NtRp66
(dp67
g54
(dp68
sg63
g59
sg56
(lp69
g49
(cgluon.html
TD
p70
g51
NtRp71
(dp72
g54
(dp73
S'_style'
p74
S'font-weight:bold;vertical-align:top'
p75
ssg63
g66
sg56
(lp76
S'ajax'
p77
asbag49
(g70
g51
NtRp78
(dp79
g54
(dp80
S'_valign'
p81
S'top'
p82
ssg63
g66
sg56
(lp83
S':'
asbag49
(g70
g51
NtRp84
(dp85
g54
(dp86
sg63
g66
sg56
(lp87
g49
(g50
g51
NtRp88
(dp89
g54
(dp90
g62
I5
ssg63
g84
sg56
(lp91
S'False'
p92
asbasbasbag49
(g65
g51
NtRp93
(dp94
g54
(dp95
sg63
g59
sg56
(lp96
g49
(g70
g51
NtRp97
(dp98
g54
(dp99
g74
g75
ssg63
g93
sg56
(lp100
S'application'
p101
asbag49
(g70
g51
NtRp102
(dp103
g54
(dp104
g81
g82
ssg63
g93
sg56
(lp105
S':'
asbag49
(g70
g51
NtRp106
(dp107
g54
(dp108
sg63
g93
sg56
(lp109
g49
(g50
g51
NtRp110
(dp111
g54
(dp112
g62
I5
ssg63
g106
sg56
(lp113
S'parleyweb'
p114
asbasbasbag49
(g65
g51
NtRp115
(dp116
g54
(dp117
sg63
g59
sg56
(lp118
g49
(g70
g51
NtRp119
(dp120
g54
(dp121
g74
g75
ssg63
g115
sg56
(lp122
g28
asbag49
(g70
g51
NtRp123
(dp124
g54
(dp125
g81
g82
ssg63
g115
sg56
(lp126
S':'
asbag49
(g70
g51
NtRp127
(dp128
g54
(dp129
sg63
g115
sg56
(lp130
g49
(g50
g51
NtRp131
(dp132
g54
(dp133
g62
I5
ssg63
g127
sg56
(lp134
g49
(g58
g51
NtRp135
(dp136
g54
(dp137
g62
I4
ssg63
Nsg56
(lp138
sbasbasbasbag49
(g65
g51
NtRp139
(dp140
g54
(dp141
sg63
g59
sg56
(lp142
g49
(g70
g51
NtRp143
(dp144
g54
(dp145
g74
g75
ssg63
g139
sg56
(lp146
S'body'
p147
asbag49
(g70
g51
NtRp148
(dp149
g54
(dp150
g81
g82
ssg63
g139
sg56
(lp151
S':'
asbag49
(g70
g51
NtRp152
(dp153
g54
(dp154
sg63
g139
sg56
(lp155
g49
(g50
g51
NtRp156
(dp157
g54
(dp158
g62
I5
ssg63
g152
sg56
(lp159
S'<cStringIO.StringO object at 0x07787960>'
p160
asbasbasbag49
(g65
g51
NtRp161
(dp162
g54
(dp163
sg63
g59
sg56
(lp164
g49
(g70
g51
NtRp165
(dp166
g54
(dp167
g74
g75
ssg63
g161
sg56
(lp168
S'client'
p169
asbag49
(g70
g51
NtRp170
(dp171
g54
(dp172
g81
g82
ssg63
g161
sg56
(lp173
S':'
asbag49
(g70
g51
NtRp174
(dp175
g54
(dp176
sg63
g161
sg56
(lp177
g49
(g50
g51
NtRp178
(dp179
g54
(dp180
g62
I5
ssg63
g174
sg56
(lp181
S'127.0.0.1'
p182
asbasbasbag49
(g65
g51
NtRp183
(dp184
g54
(dp185
sg63
g59
sg56
(lp186
g49
(g70
g51
NtRp187
(dp188
g54
(dp189
g74
g75
ssg63
g183
sg56
(lp190
S'controller'
p191
asbag49
(g70
g51
NtRp192
(dp193
g54
(dp194
g81
g82
ssg63
g183
sg56
(lp195
S':'
asbag49
(g70
g51
NtRp196
(dp197
g54
(dp198
sg63
g183
sg56
(lp199
g49
(g50
g51
NtRp200
(dp201
g54
(dp202
g62
I5
ssg63
g196
sg56
(lp203
S'admin'
p204
asbasbasbag49
(g65
g51
NtRp205
(dp206
g54
(dp207
sg63
g59
sg56
(lp208
g49
(g70
g51
NtRp209
(dp210
g54
(dp211
g74
g75
ssg63
g205
sg56
(lp212
S'cookies'
p213
asbag49
(g70
g51
NtRp214
(dp215
g54
(dp216
g81
g82
ssg63
g205
sg56
(lp217
S':'
asbag49
(g70
g51
NtRp218
(dp219
g54
(dp220
sg63
g205
sg56
(lp221
g49
(g50
g51
NtRp222
(dp223
g54
(dp224
g62
I5
ssg63
g218
sg56
(lp225
g49
(g58
g51
NtRp226
(dp227
g54
(dp228
g62
I4
ssg63
Nsg56
(lp229
g49
(g65
g51
NtRp230
(dp231
g54
(dp232
sg63
g226
sg56
(lp233
g49
(g70
g51
NtRp234
(dp235
g54
(dp236
g74
g75
ssg63
g230
sg56
(lp237
S'session_id_admin'
p238
asbag49
(g70
g51
NtRp239
(dp240
g54
(dp241
g81
g82
ssg63
g230
sg56
(lp242
S':'
asbag49
(g70
g51
NtRp243
(dp244
g54
(dp245
sg63
g230
sg56
(lp246
g49
(g50
g51
NtRp247
(dp248
g54
(dp249
g62
I4
ssg63
g243
sg56
(lp250
g49
(g58
g51
NtRp251
(dp252
g54
(dp253
g62
I3
ssg63
Nsg56
(lp254
g49
(g65
g51
NtRp255
(dp256
g54
(dp257
sg63
g251
sg56
(lp258
g49
(g70
g51
NtRp259
(dp260
g54
(dp261
g74
g75
ssg63
g255
sg56
(lp262
S'comment'
p263
asbag49
(g70
g51
NtRp264
(dp265
g54
(dp266
g81
g82
ssg63
g255
sg56
(lp267
S':'
asbag49
(g70
g51
NtRp268
(dp269
g54
(dp270
sg63
g255
sg56
(lp271
g49
(g50
g51
NtRp272
(dp273
g54
(dp274
g62
I3
ssg63
g268
sg56
(lp275
S''
asbasbasbag49
(g65
g51
NtRp276
(dp277
g54
(dp278
sg63
g251
sg56
(lp279
g49
(g70
g51
NtRp280
(dp281
g54
(dp282
g74
g75
ssg63
g276
sg56
(lp283
S'domain'
p284
asbag49
(g70
g51
NtRp285
(dp286
g54
(dp287
g81
g82
ssg63
g276
sg56
(lp288
S':'
asbag49
(g70
g51
NtRp289
(dp290
g54
(dp291
sg63
g276
sg56
(lp292
g49
(g50
g51
NtRp293
(dp294
g54
(dp295
g62
I3
ssg63
g289
sg56
(lp296
S''
asbasbasbag49
(g65
g51
NtRp297
(dp298
g54
(dp299
sg63
g251
sg56
(lp300
g49
(g70
g51
NtRp301
(dp302
g54
(dp303
g74
g75
ssg63
g297
sg56
(lp304
S'expires'
p305
asbag49
(g70
g51
NtRp306
(dp307
g54
(dp308
g81
g82
ssg63
g297
sg56
(lp309
S':'
asbag49
(g70
g51
NtRp310
(dp311
g54
(dp312
sg63
g297
sg56
(lp313
g49
(g50
g51
NtRp314
(dp315
g54
(dp316
g62
I3
ssg63
g310
sg56
(lp317
S''
asbasbasbag49
(g65
g51
NtRp318
(dp319
g54
(dp320
sg63
g251
sg56
(lp321
g49
(g70
g51
NtRp322
(dp323
g54
(dp324
g74
g75
ssg63
g318
sg56
(lp325
S'max-age'
p326
asbag49
(g70
g51
NtRp327
(dp328
g54
(dp329
g81
g82
ssg63
g318
sg56
(lp330
S':'
asbag49
(g70
g51
NtRp331
(dp332
g54
(dp333
sg63
g318
sg56
(lp334
g49
(g50
g51
NtRp335
(dp336
g54
(dp337
g62
I3
ssg63
g331
sg56
(lp338
S''
asbasbasbag49
(g65
g51
NtRp339
(dp340
g54
(dp341
sg63
g251
sg56
(lp342
g49
(g70
g51
NtRp343
(dp344
g54
(dp345
g74
g75
ssg63
g339
sg56
(lp346
S'path'
p347
asbag49
(g70
g51
NtRp348
(dp349
g54
(dp350
g81
g82
ssg63
g339
sg56
(lp351
S':'
asbag49
(g70
g51
NtRp352
(dp353
g54
(dp354
sg63
g339
sg56
(lp355
g49
(g50
g51
NtRp356
(dp357
g54
(dp358
g62
I3
ssg63
g352
sg56
(lp359
S''
asbasbasbag49
(g65
g51
NtRp360
(dp361
g54
(dp362
sg63
g251
sg56
(lp363
g49
(g70
g51
NtRp364
(dp365
g54
(dp366
g74
g75
ssg63
g360
sg56
(lp367
S'secure'
p368
asbag49
(g70
g51
NtRp369
(dp370
g54
(dp371
g81
g82
ssg63
g360
sg56
(lp372
S':'
asbag49
(g70
g51
NtRp373
(dp374
g54
(dp375
sg63
g360
sg56
(lp376
g49
(g50
g51
NtRp377
(dp378
g54
(dp379
g62
I3
ssg63
g373
sg56
(lp380
S''
asbasbasbag49
(g65
g51
NtRp381
(dp382
g54
(dp383
sg63
g251
sg56
(lp384
g49
(g70
g51
NtRp385
(dp386
g54
(dp387
g74
g75
ssg63
g381
sg56
(lp388
S'version'
p389
asbag49
(g70
g51
NtRp390
(dp391
g54
(dp392
g81
g82
ssg63
g381
sg56
(lp393
S':'
asbag49
(g70
g51
NtRp394
(dp395
g54
(dp396
sg63
g381
sg56
(lp397
g49
(g50
g51
NtRp398
(dp399
g54
(dp400
g62
I3
ssg63
g394
sg56
(lp401
S''
asbasbasbasbasbasbasbag49
(g65
g51
NtRp402
(dp403
g54
(dp404
sg63
g226
sg56
(lp405
g49
(g70
g51
NtRp406
(dp407
g54
(dp408
g74
g75
ssg63
g402
sg56
(lp409
S'session_id_klaas'
p410
asbag49
(g70
g51
NtRp411
(dp412
g54
(dp413
g81
g82
ssg63
g402
sg56
(lp414
S':'
asbag49
(g70
g51
NtRp415
(dp416
g54
(dp417
sg63
g402
sg56
(lp418
g49
(g50
g51
NtRp419
(dp420
g54
(dp421
g62
I4
ssg63
g415
sg56
(lp422
g49
(g58
g51
NtRp423
(dp424
g54
(dp425
g62
I3
ssg63
Nsg56
(lp426
g49
(g65
g51
NtRp427
(dp428
g54
(dp429
sg63
g423
sg56
(lp430
g49
(g70
g51
NtRp431
(dp432
g54
(dp433
g74
g75
ssg63
g427
sg56
(lp434
g263
asbag49
(g70
g51
NtRp435
(dp436
g54
(dp437
g81
g82
ssg63
g427
sg56
(lp438
S':'
asbag49
(g70
g51
NtRp439
(dp440
g54
(dp441
sg63
g427
sg56
(lp442
g49
(g50
g51
NtRp443
(dp444
g54
(dp445
g62
I3
ssg63
g439
sg56
(lp446
S''
asbasbasbag49
(g65
g51
NtRp447
(dp448
g54
(dp449
sg63
g423
sg56
(lp450
g49
(g70
g51
NtRp451
(dp452
g54
(dp453
g74
g75
ssg63
g447
sg56
(lp454
g284
asbag49
(g70
g51
NtRp455
(dp456
g54
(dp457
g81
g82
ssg63
g447
sg56
(lp458
S':'
asbag49
(g70
g51
NtRp459
(dp460
g54
(dp461
sg63
g447
sg56
(lp462
g49
(g50
g51
NtRp463
(dp464
g54
(dp465
g62
I3
ssg63
g459
sg56
(lp466
S''
asbasbasbag49
(g65
g51
NtRp467
(dp468
g54
(dp469
sg63
g423
sg56
(lp470
g49
(g70
g51
NtRp471
(dp472
g54
(dp473
g74
g75
ssg63
g467
sg56
(lp474
g305
asbag49
(g70
g51
NtRp475
(dp476
g54
(dp477
g81
g82
ssg63
g467
sg56
(lp478
S':'
asbag49
(g70
g51
NtRp479
(dp480
g54
(dp481
sg63
g467
sg56
(lp482
g49
(g50
g51
NtRp483
(dp484
g54
(dp485
g62
I3
ssg63
g479
sg56
(lp486
S''
asbasbasbag49
(g65
g51
NtRp487
(dp488
g54
(dp489
sg63
g423
sg56
(lp490
g49
(g70
g51
NtRp491
(dp492
g54
(dp493
g74
g75
ssg63
g487
sg56
(lp494
g326
asbag49
(g70
g51
NtRp495
(dp496
g54
(dp497
g81
g82
ssg63
g487
sg56
(lp498
S':'
asbag49
(g70
g51
NtRp499
(dp500
g54
(dp501
sg63
g487
sg56
(lp502
g49
(g50
g51
NtRp503
(dp504
g54
(dp505
g62
I3
ssg63
g499
sg56
(lp506
S''
asbasbasbag49
(g65
g51
NtRp507
(dp508
g54
(dp509
sg63
g423
sg56
(lp510
g49
(g70
g51
NtRp511
(dp512
g54
(dp513
g74
g75
ssg63
g507
sg56
(lp514
g347
asbag49
(g70
g51
NtRp515
(dp516
g54
(dp517
g81
g82
ssg63
g507
sg56
(lp518
S':'
asbag49
(g70
g51
NtRp519
(dp520
g54
(dp521
sg63
g507
sg56
(lp522
g49
(g50
g51
NtRp523
(dp524
g54
(dp525
g62
I3
ssg63
g519
sg56
(lp526
S''
asbasbasbag49
(g65
g51
NtRp527
(dp528
g54
(dp529
sg63
g423
sg56
(lp530
g49
(g70
g51
NtRp531
(dp532
g54
(dp533
g74
g75
ssg63
g527
sg56
(lp534
g368
asbag49
(g70
g51
NtRp535
(dp536
g54
(dp537
g81
g82
ssg63
g527
sg56
(lp538
S':'
asbag49
(g70
g51
NtRp539
(dp540
g54
(dp541
sg63
g527
sg56
(lp542
g49
(g50
g51
NtRp543
(dp544
g54
(dp545
g62
I3
ssg63
g539
sg56
(lp546
S''
asbasbasbag49
(g65
g51
NtRp547
(dp548
g54
(dp549
sg63
g423
sg56
(lp550
g49
(g70
g51
NtRp551
(dp552
g54
(dp553
g74
g75
ssg63
g547
sg56
(lp554
g389
asbag49
(g70
g51
NtRp555
(dp556
g54
(dp557
g81
g82
ssg63
g547
sg56
(lp558
S':'
asbag49
(g70
g51
NtRp559
(dp560
g54
(dp561
sg63
g547
sg56
(lp562
g49
(g50
g51
NtRp563
(dp564
g54
(dp565
g62
I3
ssg63
g559
sg56
(lp566
S''
asbasbasbasbasbasbasbag49
(g65
g51
NtRp567
(dp568
g54
(dp569
sg63
g226
sg56
(lp570
g49
(g70
g51
NtRp571
(dp572
g54
(dp573
g74
g75
ssg63
g567
sg56
(lp574
S'session_id_parleyweb'
p575
asbag49
(g70
g51
NtRp576
(dp577
g54
(dp578
g81
g82
ssg63
g567
sg56
(lp579
S':'
asbag49
(g70
g51
NtRp580
(dp581
g54
(dp582
sg63
g567
sg56
(lp583
g49
(g50
g51
NtRp584
(dp585
g54
(dp586
g62
I4
ssg63
g580
sg56
(lp587
g49
(g58
g51
NtRp588
(dp589
g54
(dp590
g62
I3
ssg63
Nsg56
(lp591
g49
(g65
g51
NtRp592
(dp593
g54
(dp594
sg63
g588
sg56
(lp595
g49
(g70
g51
NtRp596
(dp597
g54
(dp598
g74
g75
ssg63
g592
sg56
(lp599
g263
asbag49
(g70
g51
NtRp600
(dp601
g54
(dp602
g81
g82
ssg63
g592
sg56
(lp603
S':'
asbag49
(g70
g51
NtRp604
(dp605
g54
(dp606
sg63
g592
sg56
(lp607
g49
(g50
g51
NtRp608
(dp609
g54
(dp610
g62
I3
ssg63
g604
sg56
(lp611
S''
asbasbasbag49
(g65
g51
NtRp612
(dp613
g54
(dp614
sg63
g588
sg56
(lp615
g49
(g70
g51
NtRp616
(dp617
g54
(dp618
g74
g75
ssg63
g612
sg56
(lp619
g284
asbag49
(g70
g51
NtRp620
(dp621
g54
(dp622
g81
g82
ssg63
g612
sg56
(lp623
S':'
asbag49
(g70
g51
NtRp624
(dp625
g54
(dp626
sg63
g612
sg56
(lp627
g49
(g50
g51
NtRp628
(dp629
g54
(dp630
g62
I3
ssg63
g624
sg56
(lp631
S''
asbasbasbag49
(g65
g51
NtRp632
(dp633
g54
(dp634
sg63
g588
sg56
(lp635
g49
(g70
g51
NtRp636
(dp637
g54
(dp638
g74
g75
ssg63
g632
sg56
(lp639
g305
asbag49
(g70
g51
NtRp640
(dp641
g54
(dp642
g81
g82
ssg63
g632
sg56
(lp643
S':'
asbag49
(g70
g51
NtRp644
(dp645
g54
(dp646
sg63
g632
sg56
(lp647
g49
(g50
g51
NtRp648
(dp649
g54
(dp650
g62
I3
ssg63
g644
sg56
(lp651
S''
asbasbasbag49
(g65
g51
NtRp652
(dp653
g54
(dp654
sg63
g588
sg56
(lp655
g49
(g70
g51
NtRp656
(dp657
g54
(dp658
g74
g75
ssg63
g652
sg56
(lp659
g326
asbag49
(g70
g51
NtRp660
(dp661
g54
(dp662
g81
g82
ssg63
g652
sg56
(lp663
S':'
asbag49
(g70
g51
NtRp664
(dp665
g54
(dp666
sg63
g652
sg56
(lp667
g49
(g50
g51
NtRp668
(dp669
g54
(dp670
g62
I3
ssg63
g664
sg56
(lp671
S''
asbasbasbag49
(g65
g51
NtRp672
(dp673
g54
(dp674
sg63
g588
sg56
(lp675
g49
(g70
g51
NtRp676
(dp677
g54
(dp678
g74
g75
ssg63
g672
sg56
(lp679
g347
asbag49
(g70
g51
NtRp680
(dp681
g54
(dp682
g81
g82
ssg63
g672
sg56
(lp683
S':'
asbag49
(g70
g51
NtRp684
(dp685
g54
(dp686
sg63
g672
sg56
(lp687
g49
(g50
g51
NtRp688
(dp689
g54
(dp690
g62
I3
ssg63
g684
sg56
(lp691
S''
asbasbasbag49
(g65
g51
NtRp692
(dp693
g54
(dp694
sg63
g588
sg56
(lp695
g49
(g70
g51
NtRp696
(dp697
g54
(dp698
g74
g75
ssg63
g692
sg56
(lp699
g368
asbag49
(g70
g51
NtRp700
(dp701
g54
(dp702
g81
g82
ssg63
g692
sg56
(lp703
S':'
asbag49
(g70
g51
NtRp704
(dp705
g54
(dp706
sg63
g692
sg56
(lp707
g49
(g50
g51
NtRp708
(dp709
g54
(dp710
g62
I3
ssg63
g704
sg56
(lp711
S''
asbasbasbag49
(g65
g51
NtRp712
(dp713
g54
(dp714
sg63
g588
sg56
(lp715
g49
(g70
g51
NtRp716
(dp717
g54
(dp718
g74
g75
ssg63
g712
sg56
(lp719
g389
asbag49
(g70
g51
NtRp720
(dp721
g54
(dp722
g81
g82
ssg63
g712
sg56
(lp723
S':'
asbag49
(g70
g51
NtRp724
(dp725
g54
(dp726
sg63
g712
sg56
(lp727
g49
(g50
g51
NtRp728
(dp729
g54
(dp730
g62
I3
ssg63
g724
sg56
(lp731
S''
asbasbasbasbasbasbasbag49
(g65
g51
NtRp732
(dp733
g54
(dp734
sg63
g226
sg56
(lp735
g49
(g70
g51
NtRp736
(dp737
g54
(dp738
g74
g75
ssg63
g732
sg56
(lp739
S'session_id_welcome'
p740
asbag49
(g70
g51
NtRp741
(dp742
g54
(dp743
g81
g82
ssg63
g732
sg56
(lp744
S':'
asbag49
(g70
g51
NtRp745
(dp746
g54
(dp747
sg63
g732
sg56
(lp748
g49
(g50
g51
NtRp749
(dp750
g54
(dp751
g62
I4
ssg63
g745
sg56
(lp752
g49
(g58
g51
NtRp753
(dp754
g54
(dp755
g62
I3
ssg63
Nsg56
(lp756
g49
(g65
g51
NtRp757
(dp758
g54
(dp759
sg63
g753
sg56
(lp760
g49
(g70
g51
NtRp761
(dp762
g54
(dp763
g74
g75
ssg63
g757
sg56
(lp764
g263
asbag49
(g70
g51
NtRp765
(dp766
g54
(dp767
g81
g82
ssg63
g757
sg56
(lp768
S':'
asbag49
(g70
g51
NtRp769
(dp770
g54
(dp771
sg63
g757
sg56
(lp772
g49
(g50
g51
NtRp773
(dp774
g54
(dp775
g62
I3
ssg63
g769
sg56
(lp776
S''
asbasbasbag49
(g65
g51
NtRp777
(dp778
g54
(dp779
sg63
g753
sg56
(lp780
g49
(g70
g51
NtRp781
(dp782
g54
(dp783
g74
g75
ssg63
g777
sg56
(lp784
g284
asbag49
(g70
g51
NtRp785
(dp786
g54
(dp787
g81
g82
ssg63
g777
sg56
(lp788
S':'
asbag49
(g70
g51
NtRp789
(dp790
g54
(dp791
sg63
g777
sg56
(lp792
g49
(g50
g51
NtRp793
(dp794
g54
(dp795
g62
I3
ssg63
g789
sg56
(lp796
S''
asbasbasbag49
(g65
g51
NtRp797
(dp798
g54
(dp799
sg63
g753
sg56
(lp800
g49
(g70
g51
NtRp801
(dp802
g54
(dp803
g74
g75
ssg63
g797
sg56
(lp804
g305
asbag49
(g70
g51
NtRp805
(dp806
g54
(dp807
g81
g82
ssg63
g797
sg56
(lp808
S':'
asbag49
(g70
g51
NtRp809
(dp810
g54
(dp811
sg63
g797
sg56
(lp812
g49
(g50
g51
NtRp813
(dp814
g54
(dp815
g62
I3
ssg63
g809
sg56
(lp816
S''
asbasbasbag49
(g65
g51
NtRp817
(dp818
g54
(dp819
sg63
g753
sg56
(lp820
g49
(g70
g51
NtRp821
(dp822
g54
(dp823
g74
g75
ssg63
g817
sg56
(lp824
g326
asbag49
(g70
g51
NtRp825
(dp826
g54
(dp827
g81
g82
ssg63
g817
sg56
(lp828
S':'
asbag49
(g70
g51
NtRp829
(dp830
g54
(dp831
sg63
g817
sg56
(lp832
g49
(g50
g51
NtRp833
(dp834
g54
(dp835
g62
I3
ssg63
g829
sg56
(lp836
S''
asbasbasbag49
(g65
g51
NtRp837
(dp838
g54
(dp839
sg63
g753
sg56
(lp840
g49
(g70
g51
NtRp841
(dp842
g54
(dp843
g74
g75
ssg63
g837
sg56
(lp844
g347
asbag49
(g70
g51
NtRp845
(dp846
g54
(dp847
g81
g82
ssg63
g837
sg56
(lp848
S':'
asbag49
(g70
g51
NtRp849
(dp850
g54
(dp851
sg63
g837
sg56
(lp852
g49
(g50
g51
NtRp853
(dp854
g54
(dp855
g62
I3
ssg63
g849
sg56
(lp856
S''
asbasbasbag49
(g65
g51
NtRp857
(dp858
g54
(dp859
sg63
g753
sg56
(lp860
g49
(g70
g51
NtRp861
(dp862
g54
(dp863
g74
g75
ssg63
g857
sg56
(lp864
g368
asbag49
(g70
g51
NtRp865
(dp866
g54
(dp867
g81
g82
ssg63
g857
sg56
(lp868
S':'
asbag49
(g70
g51
NtRp869
(dp870
g54
(dp871
sg63
g857
sg56
(lp872
g49
(g50
g51
NtRp873
(dp874
g54
(dp875
g62
I3
ssg63
g869
sg56
(lp876
S''
asbasbasbag49
(g65
g51
NtRp877
(dp878
g54
(dp879
sg63
g753
sg56
(lp880
g49
(g70
g51
NtRp881
(dp882
g54
(dp883
g74
g75
ssg63
g877
sg56
(lp884
g389
asbag49
(g70
g51
NtRp885
(dp886
g54
(dp887
g81
g82
ssg63
g877
sg56
(lp888
S':'
asbag49
(g70
g51
NtRp889
(dp890
g54
(dp891
sg63
g877
sg56
(lp892
g49
(g50
g51
NtRp893
(dp894
g54
(dp895
g62
I3
ssg63
g889
sg56
(lp896
S''
asbasbasbasbasbasbasbasbasbasbasbag49
(g65
g51
NtRp897
(dp898
g54
(dp899
sg63
g59
sg56
(lp900
g49
(g70
g51
NtRp901
(dp902
g54
(dp903
g74
g75
ssg63
g897
sg56
(lp904
S'env'
p905
asbag49
(g70
g51
NtRp906
(dp907
g54
(dp908
g81
g82
ssg63
g897
sg56
(lp909
S':'
asbag49
(g70
g51
NtRp910
(dp911
g54
(dp912
sg63
g897
sg56
(lp913
g49
(g50
g51
NtRp914
(dp915
g54
(dp916
g62
I5
ssg63
g910
sg56
(lp917
g49
(g58
g51
NtRp918
(dp919
g54
(dp920
g62
I4
ssg63
Nsg56
(lp921
g49
(g65
g51
NtRp922
(dp923
g54
(dp924
sg63
g918
sg56
(lp925
g49
(g70
g51
NtRp926
(dp927
g54
(dp928
g74
g75
ssg63
g922
sg56
(lp929
S'app_folders'
p930
asbag49
(g70
g51
NtRp931
(dp932
g54
(dp933
g81
g82
ssg63
g922
sg56
(lp934
S':'
asbag49
(g70
g51
NtRp935
(dp936
g54
(dp937
sg63
g922
sg56
(lp938
g49
(g50
g51
NtRp939
(dp940
g54
(dp941
g62
I4
ssg63
g935
sg56
(lp942
S"set(['D:\\\\Dise\\xf1o Web\\\\Proyectos\\\\Parleyweb\\\\web2py\\\\applications\\\\parleyweb\\\\', 'D:\\\\Dise\\xf1o Web\\\\Proyectos\\\\Parleyweb\\\\web2py\\\\applications\\\\welcome\\\\', 'D:\\\\Dise\\xf1o Web\\\\Proyectos\\\\Parleyweb\\\\web2py\\\\applications\\\\admin\\\\'])"
p943
asbasbasbag49
(g65
g51
NtRp944
(dp945
g54
(dp946
sg63
g918
sg56
(lp947
g49
(g70
g51
NtRp948
(dp949
g54
(dp950
g74
g75
ssg63
g944
sg56
(lp951
S'applications_parent'
p952
asbag49
(g70
g51
NtRp953
(dp954
g54
(dp955
g81
g82
ssg63
g944
sg56
(lp956
S':'
asbag49
(g70
g51
NtRp957
(dp958
g54
(dp959
sg63
g944
sg56
(lp960
g49
(g50
g51
NtRp961
(dp962
g54
(dp963
g62
I4
ssg63
g957
sg56
(lp964
S'D:\\Dise\xf1o Web\\Proyectos\\Parleyweb\\web2py'
p965
asbasbasbag49
(g65
g51
NtRp966
(dp967
g54
(dp968
sg63
g918
sg56
(lp969
g49
(g70
g51
NtRp970
(dp971
g54
(dp972
g74
g75
ssg63
g966
sg56
(lp973
S'cmd_args'
p974
asbag49
(g70
g51
NtRp975
(dp976
g54
(dp977
g81
g82
ssg63
g966
sg56
(lp978
S':'
asbag49
(g70
g51
NtRp979
(dp980
g54
(dp981
sg63
g966
sg56
(lp982
g49
(g50
g51
NtRp983
(dp984
g54
(dp985
g62
I4
ssg63
g979
sg56
(lp986
g49
(g58
g51
NtRp987
(dp988
g54
(dp989
g62
I3
ssg63
Nsg56
(lp990
sbasbasbasbag49
(g65
g51
NtRp991
(dp992
g54
(dp993
sg63
g918
sg56
(lp994
g49
(g70
g51
NtRp995
(dp996
g54
(dp997
g74
g75
ssg63
g991
sg56
(lp998
S'cmd_options'
p999
asbag49
(g70
g51
NtRp1000
(dp1001
g54
(dp1002
g81
g82
ssg63
g991
sg56
(lp1003
S':'
asbag49
(g70
g51
NtRp1004
(dp1005
g54
(dp1006
sg63
g991
sg56
(lp1007
g49
(g50
g51
NtRp1008
(dp1009
g54
(dp1010
g62
I4
ssg63
g1004
sg56
(lp1011
S"<Values at 0x331ff30: {'verbose': False, 'ip': '127.0.0.1', 'shutdown_timeout': 5, 'taskbar': False, 'nocron': False, 'pid_filename': 'httpserver.pid', 'maxthreads': None, 'softcron': False, 'server_name': 'craxsnet-PC', 'bpython': False, 'nogui': False, 'port': 8000, 'extcron': False, 'debuglevel': 30, 'test': None, 'folder': 'D:\\\\Dise\\xf1o Web\\\\Proyectos\\\\Parleyweb\\\\web2py', 'config': '', 'import_models': False, 'winservice': '', 'shell': None, 'run': '', 'log_filename': 'httpserver.log', 'args': [''], 'socket_timeout': 5, 'ssl_ca_certificate': None, 'scheduler': None, 'profiler_filename': None, 'ssl_private_key': '', 'password': '<ask>', 'request_queue_size': 5, 'ssl_certificate': '', 'cronjob': False, 'numthreads': None, 'quiet': False, 'interfaces': None, 'minthreads': None, 'timeout': 10, 'plain': False, 'nobanner': False}>"
p1012
asbasbasbag49
(g65
g51
NtRp1013
(dp1014
g54
(dp1015
sg63
g918
sg56
(lp1016
g49
(g70
g51
NtRp1017
(dp1018
g54
(dp1019
g74
g75
ssg63
g1013
sg56
(lp1020
S'db_sessions'
p1021
asbag49
(g70
g51
NtRp1022
(dp1023
g54
(dp1024
g81
g82
ssg63
g1013
sg56
(lp1025
S':'
asbag49
(g70
g51
NtRp1026
(dp1027
g54
(dp1028
sg63
g1013
sg56
(lp1029
g49
(g50
g51
NtRp1030
(dp1031
g54
(dp1032
g62
I4
ssg63
g1026
sg56
(lp1033
S'set([])'
p1034
asbasbasbag49
(g65
g51
NtRp1035
(dp1036
g54
(dp1037
sg63
g918
sg56
(lp1038
g49
(g70
g51
NtRp1039
(dp1040
g54
(dp1041
g74
g75
ssg63
g1035
sg56
(lp1042
S'debugging'
p1043
asbag49
(g70
g51
NtRp1044
(dp1045
g54
(dp1046
g81
g82
ssg63
g1035
sg56
(lp1047
S':'
asbag49
(g70
g51
NtRp1048
(dp1049
g54
(dp1050
sg63
g1035
sg56
(lp1051
g49
(g50
g51
NtRp1052
(dp1053
g54
(dp1054
g62
I4
ssg63
g1048
sg56
(lp1055
g92
asbasbasbag49
(g65
g51
NtRp1056
(dp1057
g54
(dp1058
sg63
g918
sg56
(lp1059
g49
(g70
g51
NtRp1060
(dp1061
g54
(dp1062
g74
g75
ssg63
g1056
sg56
(lp1063
S'gluon_parent'
p1064
asbag49
(g70
g51
NtRp1065
(dp1066
g54
(dp1067
g81
g82
ssg63
g1056
sg56
(lp1068
S':'
asbag49
(g70
g51
NtRp1069
(dp1070
g54
(dp1071
sg63
g1056
sg56
(lp1072
g49
(g50
g51
NtRp1073
(dp1074
g54
(dp1075
g62
I4
ssg63
g1069
sg56
(lp1076
S'D:\\Dise\xf1o Web\\Proyectos\\Parleyweb\\web2py'
p1077
asbasbasbag49
(g65
g51
NtRp1078
(dp1079
g54
(dp1080
sg63
g918
sg56
(lp1081
g49
(g70
g51
NtRp1082
(dp1083
g54
(dp1084
g74
g75
ssg63
g1078
sg56
(lp1085
S'http_accept'
p1086
asbag49
(g70
g51
NtRp1087
(dp1088
g54
(dp1089
g81
g82
ssg63
g1078
sg56
(lp1090
S':'
asbag49
(g70
g51
NtRp1091
(dp1092
g54
(dp1093
sg63
g1078
sg56
(lp1094
g49
(g50
g51
NtRp1095
(dp1096
g54
(dp1097
g62
I4
ssg63
g1091
sg56
(lp1098
S'text/html,application/xhtml+xml,application/xml;q=0.9,*/*;q=0.8'
p1099
asbasbasbag49
(g65
g51
NtRp1100
(dp1101
g54
(dp1102
sg63
g918
sg56
(lp1103
g49
(g70
g51
NtRp1104
(dp1105
g54
(dp1106
g74
g75
ssg63
g1100
sg56
(lp1107
S'http_accept_encoding'
p1108
asbag49
(g70
g51
NtRp1109
(dp1110
g54
(dp1111
g81
g82
ssg63
g1100
sg56
(lp1112
S':'
asbag49
(g70
g51
NtRp1113
(dp1114
g54
(dp1115
sg63
g1100
sg56
(lp1116
g49
(g50
g51
NtRp1117
(dp1118
g54
(dp1119
g62
I4
ssg63
g1113
sg56
(lp1120
S'gzip, deflate'
p1121
asbasbasbag49
(g65
g51
NtRp1122
(dp1123
g54
(dp1124
sg63
g918
sg56
(lp1125
g49
(g70
g51
NtRp1126
(dp1127
g54
(dp1128
g74
g75
ssg63
g1122
sg56
(lp1129
S'http_accept_language'
p1130
asbag49
(g70
g51
NtRp1131
(dp1132
g54
(dp1133
g81
g82
ssg63
g1122
sg56
(lp1134
S':'
asbag49
(g70
g51
NtRp1135
(dp1136
g54
(dp1137
sg63
g1122
sg56
(lp1138
g49
(g50
g51
NtRp1139
(dp1140
g54
(dp1141
g62
I4
ssg63
g1135
sg56
(lp1142
S'es-es,de-de;q=0.8,es;q=0.6,en-us;q=0.4,en;q=0.2'
p1143
asbasbasbag49
(g65
g51
NtRp1144
(dp1145
g54
(dp1146
sg63
g918
sg56
(lp1147
g49
(g70
g51
NtRp1148
(dp1149
g54
(dp1150
g74
g75
ssg63
g1144
sg56
(lp1151
S'http_connection'
p1152
asbag49
(g70
g51
NtRp1153
(dp1154
g54
(dp1155
g81
g82
ssg63
g1144
sg56
(lp1156
S':'
asbag49
(g70
g51
NtRp1157
(dp1158
g54
(dp1159
sg63
g1144
sg56
(lp1160
g49
(g50
g51
NtRp1161
(dp1162
g54
(dp1163
g62
I4
ssg63
g1157
sg56
(lp1164
S'keep-alive'
p1165
asbasbasbag49
(g65
g51
NtRp1166
(dp1167
g54
(dp1168
sg63
g918
sg56
(lp1169
g49
(g70
g51
NtRp1170
(dp1171
g54
(dp1172
g74
g75
ssg63
g1166
sg56
(lp1173
S'http_cookie'
p1174
asbag49
(g70
g51
NtRp1175
(dp1176
g54
(dp1177
g81
g82
ssg63
g1166
sg56
(lp1178
S':'
asbag49
(g70
g51
NtRp1179
(dp1180
g54
(dp1181
sg63
g1166
sg56
(lp1182
g49
(g50
g51
NtRp1183
(dp1184
g54
(dp1185
g62
I4
ssg63
g1179
sg56
(lp1186
S'__utma=96992031.26429765.1325029743.1325029743.1326549329.2; __utmz=96992031.1325029743.1.1.utmcsr=(direct)|utmccn=(direct)|utmcmd=(none); session_id_klaas=127.0.0.1-22979940-8cc3-49bc-9f44-0623615d817e; session_id_welcome=127.0.0.1-8cf99883-574c-4d14-bcc4-fd47a1240754; session_id_parleyweb=127.0.0.1-2049810e-c086-402c-857f-06991c56216c; session_id_admin=127.0.0.1-6e3f8ed3-268b-4a90-be40-5289f7e1d539'
p1187
asbasbasbag49
(g65
g51
NtRp1188
(dp1189
g54
(dp1190
sg63
g918
sg56
(lp1191
g49
(g70
g51
NtRp1192
(dp1193
g54
(dp1194
g74
g75
ssg63
g1188
sg56
(lp1195
S'http_host'
p1196
asbag49
(g70
g51
NtRp1197
(dp1198
g54
(dp1199
g81
g82
ssg63
g1188
sg56
(lp1200
S':'
asbag49
(g70
g51
NtRp1201
(dp1202
g54
(dp1203
sg63
g1188
sg56
(lp1204
g49
(g50
g51
NtRp1205
(dp1206
g54
(dp1207
g62
I4
ssg63
g1201
sg56
(lp1208
S'127.0.0.1:8000'
p1209
asbasbasbag49
(g65
g51
NtRp1210
(dp1211
g54
(dp1212
sg63
g918
sg56
(lp1213
g49
(g70
g51
NtRp1214
(dp1215
g54
(dp1216
g74
g75
ssg63
g1210
sg56
(lp1217
S'http_referer'
p1218
asbag49
(g70
g51
NtRp1219
(dp1220
g54
(dp1221
g81
g82
ssg63
g1210
sg56
(lp1222
S':'
asbag49
(g70
g51
NtRp1223
(dp1224
g54
(dp1225
sg63
g1210
sg56
(lp1226
g49
(g50
g51
NtRp1227
(dp1228
g54
(dp1229
g62
I4
ssg63
g1223
sg56
(lp1230
S'http://127.0.0.1:8000/parleyweb/admin'
p1231
asbasbasbag49
(g65
g51
NtRp1232
(dp1233
g54
(dp1234
sg63
g918
sg56
(lp1235
g49
(g70
g51
NtRp1236
(dp1237
g54
(dp1238
g74
g75
ssg63
g1232
sg56
(lp1239
S'http_user_agent'
p1240
asbag49
(g70
g51
NtRp1241
(dp1242
g54
(dp1243
g81
g82
ssg63
g1232
sg56
(lp1244
S':'
asbag49
(g70
g51
NtRp1245
(dp1246
g54
(dp1247
sg63
g1232
sg56
(lp1248
g49
(g50
g51
NtRp1249
(dp1250
g54
(dp1251
g62
I4
ssg63
g1245
sg56
(lp1252
S'Mozilla/5.0 (Windows NT 6.1; WOW64; rv:10.0.2) Gecko/20100101 Firefox/10.0.2'
p1253
asbasbasbag49
(g65
g51
NtRp1254
(dp1255
g54
(dp1256
sg63
g918
sg56
(lp1257
g49
(g70
g51
NtRp1258
(dp1259
g54
(dp1260
g74
g75
ssg63
g1254
sg56
(lp1261
S'is_jython'
p1262
asbag49
(g70
g51
NtRp1263
(dp1264
g54
(dp1265
g81
g82
ssg63
g1254
sg56
(lp1266
S':'
asbag49
(g70
g51
NtRp1267
(dp1268
g54
(dp1269
sg63
g1254
sg56
(lp1270
g49
(g50
g51
NtRp1271
(dp1272
g54
(dp1273
g62
I4
ssg63
g1267
sg56
(lp1274
g92
asbasbasbag49
(g65
g51
NtRp1275
(dp1276
g54
(dp1277
sg63
g918
sg56
(lp1278
g49
(g70
g51
NtRp1279
(dp1280
g54
(dp1281
g74
g75
ssg63
g1275
sg56
(lp1282
S'is_pypy'
p1283
asbag49
(g70
g51
NtRp1284
(dp1285
g54
(dp1286
g81
g82
ssg63
g1275
sg56
(lp1287
S':'
asbag49
(g70
g51
NtRp1288
(dp1289
g54
(dp1290
sg63
g1275
sg56
(lp1291
g49
(g50
g51
NtRp1292
(dp1293
g54
(dp1294
g62
I4
ssg63
g1288
sg56
(lp1295
g92
asbasbasbag49
(g65
g51
NtRp1296
(dp1297
g54
(dp1298
sg63
g918
sg56
(lp1299
g49
(g70
g51
NtRp1300
(dp1301
g54
(dp1302
g74
g75
ssg63
g1296
sg56
(lp1303
S'path_info'
p1304
asbag49
(g70
g51
NtRp1305
(dp1306
g54
(dp1307
g81
g82
ssg63
g1296
sg56
(lp1308
S':'
asbag49
(g70
g51
NtRp1309
(dp1310
g54
(dp1311
sg63
g1296
sg56
(lp1312
g49
(g50
g51
NtRp1313
(dp1314
g54
(dp1315
g62
I4
ssg63
g1309
sg56
(lp1316
S'/parleyweb/admin/agregar_ejemplo'
p1317
asbasbasbag49
(g65
g51
NtRp1318
(dp1319
g54
(dp1320
sg63
g918
sg56
(lp1321
g49
(g70
g51
NtRp1322
(dp1323
g54
(dp1324
g74
g75
ssg63
g1318
sg56
(lp1325
S'query_string'
p1326
asbag49
(g70
g51
NtRp1327
(dp1328
g54
(dp1329
g81
g82
ssg63
g1318
sg56
(lp1330
S':'
asbag49
(g70
g51
NtRp1331
(dp1332
g54
(dp1333
sg63
g1318
sg56
(lp1334
g49
(g50
g51
NtRp1335
(dp1336
g54
(dp1337
g62
I4
ssg63
g1331
sg56
(lp1338
S''
asbasbasbag49
(g65
g51
NtRp1339
(dp1340
g54
(dp1341
sg63
g918
sg56
(lp1342
g49
(g70
g51
NtRp1343
(dp1344
g54
(dp1345
g74
g75
ssg63
g1339
sg56
(lp1346
S'remote_addr'
p1347
asbag49
(g70
g51
NtRp1348
(dp1349
g54
(dp1350
g81
g82
ssg63
g1339
sg56
(lp1351
S':'
asbag49
(g70
g51
NtRp1352
(dp1353
g54
(dp1354
sg63
g1339
sg56
(lp1355
g49
(g50
g51
NtRp1356
(dp1357
g54
(dp1358
g62
I4
ssg63
g1352
sg56
(lp1359
g182
asbasbasbag49
(g65
g51
NtRp1360
(dp1361
g54
(dp1362
sg63
g918
sg56
(lp1363
g49
(g70
g51
NtRp1364
(dp1365
g54
(dp1366
g74
g75
ssg63
g1360
sg56
(lp1367
S'remote_port'
p1368
asbag49
(g70
g51
NtRp1369
(dp1370
g54
(dp1371
g81
g82
ssg63
g1360
sg56
(lp1372
S':'
asbag49
(g70
g51
NtRp1373
(dp1374
g54
(dp1375
sg63
g1360
sg56
(lp1376
g49
(g50
g51
NtRp1377
(dp1378
g54
(dp1379
g62
I4
ssg63
g1373
sg56
(lp1380
S'51575'
p1381
asbasbasbag49
(g65
g51
NtRp1382
(dp1383
g54
(dp1384
sg63
g918
sg56
(lp1385
g49
(g70
g51
NtRp1386
(dp1387
g54
(dp1388
g74
g75
ssg63
g1382
sg56
(lp1389
S'request_method'
p1390
asbag49
(g70
g51
NtRp1391
(dp1392
g54
(dp1393
g81
g82
ssg63
g1382
sg56
(lp1394
S':'
asbag49
(g70
g51
NtRp1395
(dp1396
g54
(dp1397
sg63
g1382
sg56
(lp1398
g49
(g50
g51
NtRp1399
(dp1400
g54
(dp1401
g62
I4
ssg63
g1395
sg56
(lp1402
S'GET'
p1403
asbasbasbag49
(g65
g51
NtRp1404
(dp1405
g54
(dp1406
sg63
g918
sg56
(lp1407
g49
(g70
g51
NtRp1408
(dp1409
g54
(dp1410
g74
g75
ssg63
g1404
sg56
(lp1411
S'script_name'
p1412
asbag49
(g70
g51
NtRp1413
(dp1414
g54
(dp1415
g81
g82
ssg63
g1404
sg56
(lp1416
S':'
asbag49
(g70
g51
NtRp1417
(dp1418
g54
(dp1419
sg63
g1404
sg56
(lp1420
g49
(g50
g51
NtRp1421
(dp1422
g54
(dp1423
g62
I4
ssg63
g1417
sg56
(lp1424
S''
asbasbasbag49
(g65
g51
NtRp1425
(dp1426
g54
(dp1427
sg63
g918
sg56
(lp1428
g49
(g70
g51
NtRp1429
(dp1430
g54
(dp1431
g74
g75
ssg63
g1425
sg56
(lp1432
S'server_name'
p1433
asbag49
(g70
g51
NtRp1434
(dp1435
g54
(dp1436
g81
g82
ssg63
g1425
sg56
(lp1437
S':'
asbag49
(g70
g51
NtRp1438
(dp1439
g54
(dp1440
sg63
g1425
sg56
(lp1441
g49
(g50
g51
NtRp1442
(dp1443
g54
(dp1444
g62
I4
ssg63
g1438
sg56
(lp1445
S'craxsnet-PC'
p1446
asbasbasbag49
(g65
g51
NtRp1447
(dp1448
g54
(dp1449
sg63
g918
sg56
(lp1450
g49
(g70
g51
NtRp1451
(dp1452
g54
(dp1453
g74
g75
ssg63
g1447
sg56
(lp1454
S'server_port'
p1455
asbag49
(g70
g51
NtRp1456
(dp1457
g54
(dp1458
g81
g82
ssg63
g1447
sg56
(lp1459
S':'
asbag49
(g70
g51
NtRp1460
(dp1461
g54
(dp1462
sg63
g1447
sg56
(lp1463
g49
(g50
g51
NtRp1464
(dp1465
g54
(dp1466
g62
I4
ssg63
g1460
sg56
(lp1467
S'8000'
p1468
asbasbasbag49
(g65
g51
NtRp1469
(dp1470
g54
(dp1471
sg63
g918
sg56
(lp1472
g49
(g70
g51
NtRp1473
(dp1474
g54
(dp1475
g74
g75
ssg63
g1469
sg56
(lp1476
S'server_protocol'
p1477
asbag49
(g70
g51
NtRp1478
(dp1479
g54
(dp1480
g81
g82
ssg63
g1469
sg56
(lp1481
S':'
asbag49
(g70
g51
NtRp1482
(dp1483
g54
(dp1484
sg63
g1469
sg56
(lp1485
g49
(g50
g51
NtRp1486
(dp1487
g54
(dp1488
g62
I4
ssg63
g1482
sg56
(lp1489
S'HTTP/1.1'
p1490
asbasbasbag49
(g65
g51
NtRp1491
(dp1492
g54
(dp1493
sg63
g918
sg56
(lp1494
g49
(g70
g51
NtRp1495
(dp1496
g54
(dp1497
g74
g75
ssg63
g1491
sg56
(lp1498
S'server_software'
p1499
asbag49
(g70
g51
NtRp1500
(dp1501
g54
(dp1502
g81
g82
ssg63
g1491
sg56
(lp1503
S':'
asbag49
(g70
g51
NtRp1504
(dp1505
g54
(dp1506
sg63
g1491
sg56
(lp1507
g49
(g50
g51
NtRp1508
(dp1509
g54
(dp1510
g62
I4
ssg63
g1504
sg56
(lp1511
S'Rocket 1.2.4'
p1512
asbasbasbag49
(g65
g51
NtRp1513
(dp1514
g54
(dp1515
sg63
g918
sg56
(lp1516
g49
(g70
g51
NtRp1517
(dp1518
g54
(dp1519
g74
g75
ssg63
g1513
sg56
(lp1520
S'web2py_crontype'
p1521
asbag49
(g70
g51
NtRp1522
(dp1523
g54
(dp1524
g81
g82
ssg63
g1513
sg56
(lp1525
S':'
asbag49
(g70
g51
NtRp1526
(dp1527
g54
(dp1528
sg63
g1513
sg56
(lp1529
g49
(g50
g51
NtRp1530
(dp1531
g54
(dp1532
g62
I4
ssg63
g1526
sg56
(lp1533
S'hard'
p1534
asbasbasbag49
(g65
g51
NtRp1535
(dp1536
g54
(dp1537
sg63
g918
sg56
(lp1538
g49
(g70
g51
NtRp1539
(dp1540
g54
(dp1541
g74
g75
ssg63
g1535
sg56
(lp1542
S'web2py_path'
p1543
asbag49
(g70
g51
NtRp1544
(dp1545
g54
(dp1546
g81
g82
ssg63
g1535
sg56
(lp1547
S':'
asbag49
(g70
g51
NtRp1548
(dp1549
g54
(dp1550
sg63
g1535
sg56
(lp1551
g49
(g50
g51
NtRp1552
(dp1553
g54
(dp1554
g62
I4
ssg63
g1548
sg56
(lp1555
g965
asbasbasbag49
(g65
g51
NtRp1556
(dp1557
g54
(dp1558
sg63
g918
sg56
(lp1559
g49
(g70
g51
NtRp1560
(dp1561
g54
(dp1562
g74
g75
ssg63
g1556
sg56
(lp1563
S'web2py_version'
p1564
asbag49
(g70
g51
NtRp1565
(dp1566
g54
(dp1567
g81
g82
ssg63
g1556
sg56
(lp1568
S':'
asbag49
(g70
g51
NtRp1569
(dp1570
g54
(dp1571
sg63
g1556
sg56
(lp1572
g49
(g50
g51
NtRp1573
(dp1574
g54
(dp1575
g62
I4
ssg63
g1569
sg56
(lp1576
g49
(g58
g51
NtRp1577
(dp1578
g54
(dp1579
g62
I3
ssg63
Nsg56
(lp1580
g49
(g65
g51
NtRp1581
(dp1582
g54
(dp1583
sg63
g1577
sg56
(lp1584
g49
(g70
g51
NtRp1585
(dp1586
g54
(dp1587
sg63
g1581
sg56
(lp1588
g49
(g50
g51
NtRp1589
(dp1590
g54
(dp1591
g62
I3
ssg63
g1585
sg56
(lp1592
S'1'
asbasbasbag49
(g65
g51
NtRp1593
(dp1594
g54
(dp1595
sg63
g1577
sg56
(lp1596
g49
(g70
g51
NtRp1597
(dp1598
g54
(dp1599
sg63
g1593
sg56
(lp1600
g49
(g50
g51
NtRp1601
(dp1602
g54
(dp1603
g62
I3
ssg63
g1597
sg56
(lp1604
S'99'
p1605
asbasbasbag49
(g65
g51
NtRp1606
(dp1607
g54
(dp1608
sg63
g1577
sg56
(lp1609
g49
(g70
g51
NtRp1610
(dp1611
g54
(dp1612
sg63
g1606
sg56
(lp1613
g49
(g50
g51
NtRp1614
(dp1615
g54
(dp1616
g62
I3
ssg63
g1610
sg56
(lp1617
S'7'
asbasbasbag49
(g65
g51
NtRp1618
(dp1619
g54
(dp1620
sg63
g1577
sg56
(lp1621
g49
(g70
g51
NtRp1622
(dp1623
g54
(dp1624
sg63
g1618
sg56
(lp1625
g49
(g50
g51
NtRp1626
(dp1627
g54
(dp1628
g62
I3
ssg63
g1622
sg56
(lp1629
S'datetime.datetime(2012, 3, 4, 22, 12, 8)'
p1630
asbasbasbag49
(g65
g51
NtRp1631
(dp1632
g54
(dp1633
sg63
g1577
sg56
(lp1634
g49
(g70
g51
NtRp1635
(dp1636
g54
(dp1637
sg63
g1631
sg56
(lp1638
g49
(g50
g51
NtRp1639
(dp1640
g54
(dp1641
g62
I3
ssg63
g1635
sg56
(lp1642
S'stable'
p1643
asbasbasbasbasbasbasbag49
(g65
g51
NtRp1644
(dp1645
g54
(dp1646
sg63
g918
sg56
(lp1647
g49
(g70
g51
NtRp1648
(dp1649
g54
(dp1650
g74
g75
ssg63
g1644
sg56
(lp1651
S'wsgi_errors'
p1652
asbag49
(g70
g51
NtRp1653
(dp1654
g54
(dp1655
g81
g82
ssg63
g1644
sg56
(lp1656
S':'
asbag49
(g70
g51
NtRp1657
(dp1658
g54
(dp1659
sg63
g1644
sg56
(lp1660
g49
(g50
g51
NtRp1661
(dp1662
g54
(dp1663
g62
I4
ssg63
g1657
sg56
(lp1664
S"<open file '<stderr>', mode 'w' at 0x004200B0>"
p1665
asbasbasbag49
(g65
g51
NtRp1666
(dp1667
g54
(dp1668
sg63
g918
sg56
(lp1669
g49
(g70
g51
NtRp1670
(dp1671
g54
(dp1672
g74
g75
ssg63
g1666
sg56
(lp1673
S'wsgi_file_wrapper'
p1674
asbag49
(g70
g51
NtRp1675
(dp1676
g54
(dp1677
g81
g82
ssg63
g1666
sg56
(lp1678
S':'
asbag49
(g70
g51
NtRp1679
(dp1680
g54
(dp1681
sg63
g1666
sg56
(lp1682
g49
(g50
g51
NtRp1683
(dp1684
g54
(dp1685
g62
I4
ssg63
g1679
sg56
(lp1686
S'<class wsgiref.util.FileWrapper at 0x03115390>'
p1687
asbasbasbag49
(g65
g51
NtRp1688
(dp1689
g54
(dp1690
sg63
g918
sg56
(lp1691
g49
(g70
g51
NtRp1692
(dp1693
g54
(dp1694
g74
g75
ssg63
g1688
sg56
(lp1695
S'wsgi_input'
p1696
asbag49
(g70
g51
NtRp1697
(dp1698
g54
(dp1699
g81
g82
ssg63
g1688
sg56
(lp1700
S':'
asbag49
(g70
g51
NtRp1701
(dp1702
g54
(dp1703
sg63
g1688
sg56
(lp1704
g49
(g50
g51
NtRp1705
(dp1706
g54
(dp1707
g62
I4
ssg63
g1701
sg56
(lp1708
S'<socket._fileobject object at 0x071414B0>'
p1709
asbasbasbag49
(g65
g51
NtRp1710
(dp1711
g54
(dp1712
sg63
g918
sg56
(lp1713
g49
(g70
g51
NtRp1714
(dp1715
g54
(dp1716
g74
g75
ssg63
g1710
sg56
(lp1717
S'wsgi_multiprocess'
p1718
asbag49
(g70
g51
NtRp1719
(dp1720
g54
(dp1721
g81
g82
ssg63
g1710
sg56
(lp1722
S':'
asbag49
(g70
g51
NtRp1723
(dp1724
g54
(dp1725
sg63
g1710
sg56
(lp1726
g49
(g50
g51
NtRp1727
(dp1728
g54
(dp1729
g62
I4
ssg63
g1723
sg56
(lp1730
g92
asbasbasbag49
(g65
g51
NtRp1731
(dp1732
g54
(dp1733
sg63
g918
sg56
(lp1734
g49
(g70
g51
NtRp1735
(dp1736
g54
(dp1737
g74
g75
ssg63
g1731
sg56
(lp1738
S'wsgi_multithread'
p1739
asbag49
(g70
g51
NtRp1740
(dp1741
g54
(dp1742
g81
g82
ssg63
g1731
sg56
(lp1743
S':'
asbag49
(g70
g51
NtRp1744
(dp1745
g54
(dp1746
sg63
g1731
sg56
(lp1747
g49
(g50
g51
NtRp1748
(dp1749
g54
(dp1750
g62
I4
ssg63
g1744
sg56
(lp1751
S'True'
p1752
asbasbasbag49
(g65
g51
NtRp1753
(dp1754
g54
(dp1755
sg63
g918
sg56
(lp1756
g49
(g70
g51
NtRp1757
(dp1758
g54
(dp1759
g74
g75
ssg63
g1753
sg56
(lp1760
S'wsgi_run_once'
p1761
asbag49
(g70
g51
NtRp1762
(dp1763
g54
(dp1764
g81
g82
ssg63
g1753
sg56
(lp1765
S':'
asbag49
(g70
g51
NtRp1766
(dp1767
g54
(dp1768
sg63
g1753
sg56
(lp1769
g49
(g50
g51
NtRp1770
(dp1771
g54
(dp1772
g62
I4
ssg63
g1766
sg56
(lp1773
g92
asbasbasbag49
(g65
g51
NtRp1774
(dp1775
g54
(dp1776
sg63
g918
sg56
(lp1777
g49
(g70
g51
NtRp1778
(dp1779
g54
(dp1780
g74
g75
ssg63
g1774
sg56
(lp1781
S'wsgi_url_scheme'
p1782
asbag49
(g70
g51
NtRp1783
(dp1784
g54
(dp1785
g81
g82
ssg63
g1774
sg56
(lp1786
S':'
asbag49
(g70
g51
NtRp1787
(dp1788
g54
(dp1789
sg63
g1774
sg56
(lp1790
g49
(g50
g51
NtRp1791
(dp1792
g54
(dp1793
g62
I4
ssg63
g1787
sg56
(lp1794
S'http'
p1795
asbasbasbag49
(g65
g51
NtRp1796
(dp1797
g54
(dp1798
sg63
g918
sg56
(lp1799
g49
(g70
g51
NtRp1800
(dp1801
g54
(dp1802
g74
g75
ssg63
g1796
sg56
(lp1803
S'wsgi_version'
p1804
asbag49
(g70
g51
NtRp1805
(dp1806
g54
(dp1807
g81
g82
ssg63
g1796
sg56
(lp1808
S':'
asbag49
(g70
g51
NtRp1809
(dp1810
g54
(dp1811
sg63
g1796
sg56
(lp1812
g49
(g50
g51
NtRp1813
(dp1814
g54
(dp1815
g62
I4
ssg63
g1809
sg56
(lp1816
g49
(g58
g51
NtRp1817
(dp1818
g54
(dp1819
g62
I3
ssg63
Nsg56
(lp1820
g49
(g65
g51
NtRp1821
(dp1822
g54
(dp1823
sg63
g1817
sg56
(lp1824
g49
(g70
g51
NtRp1825
(dp1826
g54
(dp1827
sg63
g1821
sg56
(lp1828
g49
(g50
g51
NtRp1829
(dp1830
g54
(dp1831
g62
I3
ssg63
g1825
sg56
(lp1832
S'1'
asbasbasbag49
(g65
g51
NtRp1833
(dp1834
g54
(dp1835
sg63
g1817
sg56
(lp1836
g49
(g70
g51
NtRp1837
(dp1838
g54
(dp1839
sg63
g1833
sg56
(lp1840
g49
(g50
g51
NtRp1841
(dp1842
g54
(dp1843
g62
I3
ssg63
g1837
sg56
(lp1844
S'0'
asbasbasbasbasbasbasbasbasbasbasbag49
(g65
g51
NtRp1845
(dp1846
g54
(dp1847
sg63
g59
sg56
(lp1848
g49
(g70
g51
NtRp1849
(dp1850
g54
(dp1851
g74
g75
ssg63
g1845
sg56
(lp1852
S'extension'
p1853
asbag49
(g70
g51
NtRp1854
(dp1855
g54
(dp1856
g81
g82
ssg63
g1845
sg56
(lp1857
S':'
asbag49
(g70
g51
NtRp1858
(dp1859
g54
(dp1860
sg63
g1845
sg56
(lp1861
g49
(g50
g51
NtRp1862
(dp1863
g54
(dp1864
g62
I5
ssg63
g1858
sg56
(lp1865
S'html'
p1866
asbasbasbag49
(g65
g51
NtRp1867
(dp1868
g54
(dp1869
sg63
g59
sg56
(lp1870
g49
(g70
g51
NtRp1871
(dp1872
g54
(dp1873
g74
g75
ssg63
g1867
sg56
(lp1874
S'folder'
p1875
asbag49
(g70
g51
NtRp1876
(dp1877
g54
(dp1878
g81
g82
ssg63
g1867
sg56
(lp1879
S':'
asbag49
(g70
g51
NtRp1880
(dp1881
g54
(dp1882
sg63
g1867
sg56
(lp1883
g49
(g50
g51
NtRp1884
(dp1885
g54
(dp1886
g62
I5
ssg63
g1880
sg56
(lp1887
S'D:\\Dise\xf1o Web\\Proyectos\\Parleyweb\\web2py\\applications\\parleyweb\\'
p1888
asbasbasbag49
(g65
g51
NtRp1889
(dp1890
g54
(dp1891
sg63
g59
sg56
(lp1892
g49
(g70
g51
NtRp1893
(dp1894
g54
(dp1895
g74
g75
ssg63
g1889
sg56
(lp1896
S'function'
p1897
asbag49
(g70
g51
NtRp1898
(dp1899
g54
(dp1900
g81
g82
ssg63
g1889
sg56
(lp1901
S':'
asbag49
(g70
g51
NtRp1902
(dp1903
g54
(dp1904
sg63
g1889
sg56
(lp1905
g49
(g50
g51
NtRp1906
(dp1907
g54
(dp1908
g62
I5
ssg63
g1902
sg56
(lp1909
S'agregar_ejemplo'
p1910
asbasbasbag49
(g65
g51
NtRp1911
(dp1912
g54
(dp1913
sg63
g59
sg56
(lp1914
g49
(g70
g51
NtRp1915
(dp1916
g54
(dp1917
g74
g75
ssg63
g1911
sg56
(lp1918
S'get_vars'
p1919
asbag49
(g70
g51
NtRp1920
(dp1921
g54
(dp1922
g81
g82
ssg63
g1911
sg56
(lp1923
S':'
asbag49
(g70
g51
NtRp1924
(dp1925
g54
(dp1926
sg63
g1911
sg56
(lp1927
g49
(g50
g51
NtRp1928
(dp1929
g54
(dp1930
g62
I5
ssg63
g1924
sg56
(lp1931
g49
(g58
g51
NtRp1932
(dp1933
g54
(dp1934
g62
I4
ssg63
Nsg56
(lp1935
sbasbasbasbag49
(g65
g51
NtRp1936
(dp1937
g54
(dp1938
sg63
g59
sg56
(lp1939
g49
(g70
g51
NtRp1940
(dp1941
g54
(dp1942
g74
g75
ssg63
g1936
sg56
(lp1943
S'global_settings'
p1944
asbag49
(g70
g51
NtRp1945
(dp1946
g54
(dp1947
g81
g82
ssg63
g1936
sg56
(lp1948
S':'
asbag49
(g70
g51
NtRp1949
(dp1950
g54
(dp1951
sg63
g1936
sg56
(lp1952
g49
(g50
g51
NtRp1953
(dp1954
g54
(dp1955
g62
I5
ssg63
g1949
sg56
(lp1956
g49
(g58
g51
NtRp1957
(dp1958
g54
(dp1959
g62
I4
ssg63
Nsg56
(lp1960
g49
(g65
g51
NtRp1961
(dp1962
g54
(dp1963
sg63
g1957
sg56
(lp1964
g49
(g70
g51
NtRp1965
(dp1966
g54
(dp1967
g74
g75
ssg63
g1961
sg56
(lp1968
g930
asbag49
(g70
g51
NtRp1969
(dp1970
g54
(dp1971
g81
g82
ssg63
g1961
sg56
(lp1972
S':'
asbag49
(g70
g51
NtRp1973
(dp1974
g54
(dp1975
sg63
g1961
sg56
(lp1976
g49
(g50
g51
NtRp1977
(dp1978
g54
(dp1979
g62
I4
ssg63
g1973
sg56
(lp1980
S"set(['D:\\\\Dise\\xf1o Web\\\\Proyectos\\\\Parleyweb\\\\web2py\\\\applications\\\\parleyweb\\\\', 'D:\\\\Dise\\xf1o Web\\\\Proyectos\\\\Parleyweb\\\\web2py\\\\applications\\\\welcome\\\\', 'D:\\\\Dise\\xf1o Web\\\\Proyectos\\\\Parleyweb\\\\web2py\\\\applications\\\\admin\\\\'])"
p1981
asbasbasbag49
(g65
g51
NtRp1982
(dp1983
g54
(dp1984
sg63
g1957
sg56
(lp1985
g49
(g70
g51
NtRp1986
(dp1987
g54
(dp1988
g74
g75
ssg63
g1982
sg56
(lp1989
g952
asbag49
(g70
g51
NtRp1990
(dp1991
g54
(dp1992
g81
g82
ssg63
g1982
sg56
(lp1993
S':'
asbag49
(g70
g51
NtRp1994
(dp1995
g54
(dp1996
sg63
g1982
sg56
(lp1997
g49
(g50
g51
NtRp1998
(dp1999
g54
(dp2000
g62
I4
ssg63
g1994
sg56
(lp2001
g965
asbasbasbag49
(g65
g51
NtRp2002
(dp2003
g54
(dp2004
sg63
g1957
sg56
(lp2005
g49
(g70
g51
NtRp2006
(dp2007
g54
(dp2008
g74
g75
ssg63
g2002
sg56
(lp2009
g974
asbag49
(g70
g51
NtRp2010
(dp2011
g54
(dp2012
g81
g82
ssg63
g2002
sg56
(lp2013
S':'
asbag49
(g70
g51
NtRp2014
(dp2015
g54
(dp2016
sg63
g2002
sg56
(lp2017
g49
(g50
g51
NtRp2018
(dp2019
g54
(dp2020
g62
I4
ssg63
g2014
sg56
(lp2021
g49
(g58
g51
NtRp2022
(dp2023
g54
(dp2024
g62
I3
ssg63
Nsg56
(lp2025
sbasbasbasbag49
(g65
g51
NtRp2026
(dp2027
g54
(dp2028
sg63
g1957
sg56
(lp2029
g49
(g70
g51
NtRp2030
(dp2031
g54
(dp2032
g74
g75
ssg63
g2026
sg56
(lp2033
g999
asbag49
(g70
g51
NtRp2034
(dp2035
g54
(dp2036
g81
g82
ssg63
g2026
sg56
(lp2037
S':'
asbag49
(g70
g51
NtRp2038
(dp2039
g54
(dp2040
sg63
g2026
sg56
(lp2041
g49
(g50
g51
NtRp2042
(dp2043
g54
(dp2044
g62
I4
ssg63
g2038
sg56
(lp2045
S"<Values at 0x331ff30: {'verbose': False, 'ip': '127.0.0.1', 'shutdown_timeout': 5, 'taskbar': False, 'nocron': False, 'pid_filename': 'httpserver.pid', 'maxthreads': None, 'softcron': False, 'server_name': 'craxsnet-PC', 'bpython': False, 'nogui': False, 'port': 8000, 'extcron': False, 'debuglevel': 30, 'test': None, 'folder': 'D:\\\\Dise\\xf1o Web\\\\Proyectos\\\\Parleyweb\\\\web2py', 'config': '', 'import_models': False, 'winservice': '', 'shell': None, 'run': '', 'log_filename': 'httpserver.log', 'args': [''], 'socket_timeout': 5, 'ssl_ca_certificate': None, 'scheduler': None, 'profiler_filename': None, 'ssl_private_key': '', 'password': '<ask>', 'request_queue_size': 5, 'ssl_certificate': '', 'cronjob': False, 'numthreads': None, 'quiet': False, 'interfaces': None, 'minthreads': None, 'timeout': 10, 'plain': False, 'nobanner': False}>"
p2046
asbasbasbag49
(g65
g51
NtRp2047
(dp2048
g54
(dp2049
sg63
g1957
sg56
(lp2050
g49
(g70
g51
NtRp2051
(dp2052
g54
(dp2053
g74
g75
ssg63
g2047
sg56
(lp2054
g1021
asbag49
(g70
g51
NtRp2055
(dp2056
g54
(dp2057
g81
g82
ssg63
g2047
sg56
(lp2058
S':'
asbag49
(g70
g51
NtRp2059
(dp2060
g54
(dp2061
sg63
g2047
sg56
(lp2062
g49
(g50
g51
NtRp2063
(dp2064
g54
(dp2065
g62
I4
ssg63
g2059
sg56
(lp2066
S'set([])'
p2067
asbasbasbag49
(g65
g51
NtRp2068
(dp2069
g54
(dp2070
sg63
g1957
sg56
(lp2071
g49
(g70
g51
NtRp2072
(dp2073
g54
(dp2074
g74
g75
ssg63
g2068
sg56
(lp2075
g1043
asbag49
(g70
g51
NtRp2076
(dp2077
g54
(dp2078
g81
g82
ssg63
g2068
sg56
(lp2079
S':'
asbag49
(g70
g51
NtRp2080
(dp2081
g54
(dp2082
sg63
g2068
sg56
(lp2083
g49
(g50
g51
NtRp2084
(dp2085
g54
(dp2086
g62
I4
ssg63
g2080
sg56
(lp2087
g92
asbasbasbag49
(g65
g51
NtRp2088
(dp2089
g54
(dp2090
sg63
g1957
sg56
(lp2091
g49
(g70
g51
NtRp2092
(dp2093
g54
(dp2094
g74
g75
ssg63
g2088
sg56
(lp2095
g1064
asbag49
(g70
g51
NtRp2096
(dp2097
g54
(dp2098
g81
g82
ssg63
g2088
sg56
(lp2099
S':'
asbag49
(g70
g51
NtRp2100
(dp2101
g54
(dp2102
sg63
g2088
sg56
(lp2103
g49
(g50
g51
NtRp2104
(dp2105
g54
(dp2106
g62
I4
ssg63
g2100
sg56
(lp2107
g1077
asbasbasbag49
(g65
g51
NtRp2108
(dp2109
g54
(dp2110
sg63
g1957
sg56
(lp2111
g49
(g70
g51
NtRp2112
(dp2113
g54
(dp2114
g74
g75
ssg63
g2108
sg56
(lp2115
g1262
asbag49
(g70
g51
NtRp2116
(dp2117
g54
(dp2118
g81
g82
ssg63
g2108
sg56
(lp2119
S':'
asbag49
(g70
g51
NtRp2120
(dp2121
g54
(dp2122
sg63
g2108
sg56
(lp2123
g49
(g50
g51
NtRp2124
(dp2125
g54
(dp2126
g62
I4
ssg63
g2120
sg56
(lp2127
g92
asbasbasbag49
(g65
g51
NtRp2128
(dp2129
g54
(dp2130
sg63
g1957
sg56
(lp2131
g49
(g70
g51
NtRp2132
(dp2133
g54
(dp2134
g74
g75
ssg63
g2128
sg56
(lp2135
g1283
asbag49
(g70
g51
NtRp2136
(dp2137
g54
(dp2138
g81
g82
ssg63
g2128
sg56
(lp2139
S':'
asbag49
(g70
g51
NtRp2140
(dp2141
g54
(dp2142
sg63
g2128
sg56
(lp2143
g49
(g50
g51
NtRp2144
(dp2145
g54
(dp2146
g62
I4
ssg63
g2140
sg56
(lp2147
g92
asbasbasbag49
(g65
g51
NtRp2148
(dp2149
g54
(dp2150
sg63
g1957
sg56
(lp2151
g49
(g70
g51
NtRp2152
(dp2153
g54
(dp2154
g74
g75
ssg63
g2148
sg56
(lp2155
g1521
asbag49
(g70
g51
NtRp2156
(dp2157
g54
(dp2158
g81
g82
ssg63
g2148
sg56
(lp2159
S':'
asbag49
(g70
g51
NtRp2160
(dp2161
g54
(dp2162
sg63
g2148
sg56
(lp2163
g49
(g50
g51
NtRp2164
(dp2165
g54
(dp2166
g62
I4
ssg63
g2160
sg56
(lp2167
g1534
asbasbasbag49
(g65
g51
NtRp2168
(dp2169
g54
(dp2170
sg63
g1957
sg56
(lp2171
g49
(g70
g51
NtRp2172
(dp2173
g54
(dp2174
g74
g75
ssg63
g2168
sg56
(lp2175
g1564
asbag49
(g70
g51
NtRp2176
(dp2177
g54
(dp2178
g81
g82
ssg63
g2168
sg56
(lp2179
S':'
asbag49
(g70
g51
NtRp2180
(dp2181
g54
(dp2182
sg63
g2168
sg56
(lp2183
g49
(g50
g51
NtRp2184
(dp2185
g54
(dp2186
g62
I4
ssg63
g2180
sg56
(lp2187
g49
(g58
g51
NtRp2188
(dp2189
g54
(dp2190
g62
I3
ssg63
Nsg56
(lp2191
g49
(g65
g51
NtRp2192
(dp2193
g54
(dp2194
sg63
g2188
sg56
(lp2195
g49
(g70
g51
NtRp2196
(dp2197
g54
(dp2198
sg63
g2192
sg56
(lp2199
g49
(g50
g51
NtRp2200
(dp2201
g54
(dp2202
g62
I3
ssg63
g2196
sg56
(lp2203
S'1'
asbasbasbag49
(g65
g51
NtRp2204
(dp2205
g54
(dp2206
sg63
g2188
sg56
(lp2207
g49
(g70
g51
NtRp2208
(dp2209
g54
(dp2210
sg63
g2204
sg56
(lp2211
g49
(g50
g51
NtRp2212
(dp2213
g54
(dp2214
g62
I3
ssg63
g2208
sg56
(lp2215
S'99'
p2216
asbasbasbag49
(g65
g51
NtRp2217
(dp2218
g54
(dp2219
sg63
g2188
sg56
(lp2220
g49
(g70
g51
NtRp2221
(dp2222
g54
(dp2223
sg63
g2217
sg56
(lp2224
g49
(g50
g51
NtRp2225
(dp2226
g54
(dp2227
g62
I3
ssg63
g2221
sg56
(lp2228
S'7'
asbasbasbag49
(g65
g51
NtRp2229
(dp2230
g54
(dp2231
sg63
g2188
sg56
(lp2232
g49
(g70
g51
NtRp2233
(dp2234
g54
(dp2235
sg63
g2229
sg56
(lp2236
g49
(g50
g51
NtRp2237
(dp2238
g54
(dp2239
g62
I3
ssg63
g2233
sg56
(lp2240
S'datetime.datetime(2012, 3, 4, 22, 12, 8)'
p2241
asbasbasbag49
(g65
g51
NtRp2242
(dp2243
g54
(dp2244
sg63
g2188
sg56
(lp2245
g49
(g70
g51
NtRp2246
(dp2247
g54
(dp2248
sg63
g2242
sg56
(lp2249
g49
(g50
g51
NtRp2250
(dp2251
g54
(dp2252
g62
I3
ssg63
g2246
sg56
(lp2253
g1643
asbasbasbasbasbasbasbasbasbasbasbag49
(g65
g51
NtRp2254
(dp2255
g54
(dp2256
sg63
g59
sg56
(lp2257
g49
(g70
g51
NtRp2258
(dp2259
g54
(dp2260
g74
g75
ssg63
g2254
sg56
(lp2261
S'is_https'
p2262
asbag49
(g70
g51
NtRp2263
(dp2264
g54
(dp2265
g81
g82
ssg63
g2254
sg56
(lp2266
S':'
asbag49
(g70
g51
NtRp2267
(dp2268
g54
(dp2269
sg63
g2254
sg56
(lp2270
g49
(g50
g51
NtRp2271
(dp2272
g54
(dp2273
g62
I5
ssg63
g2267
sg56
(lp2274
g92
asbasbasbag49
(g65
g51
NtRp2275
(dp2276
g54
(dp2277
sg63
g59
sg56
(lp2278
g49
(g70
g51
NtRp2279
(dp2280
g54
(dp2281
g74
g75
ssg63
g2275
sg56
(lp2282
S'is_local'
p2283
asbag49
(g70
g51
NtRp2284
(dp2285
g54
(dp2286
g81
g82
ssg63
g2275
sg56
(lp2287
S':'
asbag49
(g70
g51
NtRp2288
(dp2289
g54
(dp2290
sg63
g2275
sg56
(lp2291
g49
(g50
g51
NtRp2292
(dp2293
g54
(dp2294
g62
I5
ssg63
g2288
sg56
(lp2295
g1752
asbasbasbag49
(g65
g51
NtRp2296
(dp2297
g54
(dp2298
sg63
g59
sg56
(lp2299
g49
(g70
g51
NtRp2300
(dp2301
g54
(dp2302
g74
g75
ssg63
g2296
sg56
(lp2303
S'is_restful'
p2304
asbag49
(g70
g51
NtRp2305
(dp2306
g54
(dp2307
g81
g82
ssg63
g2296
sg56
(lp2308
S':'
asbag49
(g70
g51
NtRp2309
(dp2310
g54
(dp2311
sg63
g2296
sg56
(lp2312
g49
(g50
g51
NtRp2313
(dp2314
g54
(dp2315
g62
I5
ssg63
g2309
sg56
(lp2316
g92
asbasbasbag49
(g65
g51
NtRp2317
(dp2318
g54
(dp2319
sg63
g59
sg56
(lp2320
g49
(g70
g51
NtRp2321
(dp2322
g54
(dp2323
g74
g75
ssg63
g2317
sg56
(lp2324
S'now'
p2325
asbag49
(g70
g51
NtRp2326
(dp2327
g54
(dp2328
g81
g82
ssg63
g2317
sg56
(lp2329
S':'
asbag49
(g70
g51
NtRp2330
(dp2331
g54
(dp2332
sg63
g2317
sg56
(lp2333
g49
(g50
g51
NtRp2334
(dp2335
g54
(dp2336
g62
I5
ssg63
g2330
sg56
(lp2337
S'datetime.datetime(2012, 3, 12, 18, 58, 3, 456000)'
p2338
asbasbasbag49
(g65
g51
NtRp2339
(dp2340
g54
(dp2341
sg63
g59
sg56
(lp2342
g49
(g70
g51
NtRp2343
(dp2344
g54
(dp2345
g74
g75
ssg63
g2339
sg56
(lp2346
S'post_vars'
p2347
asbag49
(g70
g51
NtRp2348
(dp2349
g54
(dp2350
g81
g82
ssg63
g2339
sg56
(lp2351
S':'
asbag49
(g70
g51
NtRp2352
(dp2353
g54
(dp2354
sg63
g2339
sg56
(lp2355
g49
(g50
g51
NtRp2356
(dp2357
g54
(dp2358
g62
I5
ssg63
g2352
sg56
(lp2359
g49
(g58
g51
NtRp2360
(dp2361
g54
(dp2362
g62
I4
ssg63
Nsg56
(lp2363
sbasbasbasbag49
(g65
g51
NtRp2364
(dp2365
g54
(dp2366
sg63
g59
sg56
(lp2367
g49
(g70
g51
NtRp2368
(dp2369
g54
(dp2370
g74
g75
ssg63
g2364
sg56
(lp2371
S'url'
p2372
asbag49
(g70
g51
NtRp2373
(dp2374
g54
(dp2375
g81
g82
ssg63
g2364
sg56
(lp2376
S':'
asbag49
(g70
g51
NtRp2377
(dp2378
g54
(dp2379
sg63
g2364
sg56
(lp2380
g49
(g50
g51
NtRp2381
(dp2382
g54
(dp2383
g62
I5
ssg63
g2377
sg56
(lp2384
S'/parleyweb/admin/agregar_ejemplo'
p2385
asbasbasbag49
(g65
g51
NtRp2386
(dp2387
g54
(dp2388
sg63
g59
sg56
(lp2389
g49
(g70
g51
NtRp2390
(dp2391
g54
(dp2392
g74
g75
ssg63
g2386
sg56
(lp2393
S'utcnow'
p2394
asbag49
(g70
g51
NtRp2395
(dp2396
g54
(dp2397
g81
g82
ssg63
g2386
sg56
(lp2398
S':'
asbag49
(g70
g51
NtRp2399
(dp2400
g54
(dp2401
sg63
g2386
sg56
(lp2402
g49
(g50
g51
NtRp2403
(dp2404
g54
(dp2405
g62
I5
ssg63
g2399
sg56
(lp2406
S'datetime.datetime(2012, 3, 12, 17, 58, 3, 456000)'
p2407
asbasbasbag49
(g65
g51
NtRp2408
(dp2409
g54
(dp2410
sg63
g59
sg56
(lp2411
g49
(g70
g51
NtRp2412
(dp2413
g54
(dp2414
g74
g75
ssg63
g2408
sg56
(lp2415
S'uuid'
p2416
asbag49
(g70
g51
NtRp2417
(dp2418
g54
(dp2419
g81
g82
ssg63
g2408
sg56
(lp2420
S':'
asbag49
(g70
g51
NtRp2421
(dp2422
g54
(dp2423
sg63
g2408
sg56
(lp2424
g49
(g50
g51
NtRp2425
(dp2426
g54
(dp2427
g62
I5
ssg63
g2421
sg56
(lp2428
S'parleyweb/127.0.0.1.2012-03-12.18-58-03.1ddf52df-5adf-4945-815a-09248c46f582'
p2429
asbasbasbag49
(g65
g51
NtRp2430
(dp2431
g54
(dp2432
sg63
g59
sg56
(lp2433
g49
(g70
g51
NtRp2434
(dp2435
g54
(dp2436
g74
g75
ssg63
g2430
sg56
(lp2437
S'vars'
p2438
asbag49
(g70
g51
NtRp2439
(dp2440
g54
(dp2441
g81
g82
ssg63
g2430
sg56
(lp2442
S':'
asbag49
(g70
g51
NtRp2443
(dp2444
g54
(dp2445
sg63
g2430
sg56
(lp2446
g49
(g50
g51
NtRp2447
(dp2448
g54
(dp2449
g62
I5
ssg63
g2443
sg56
(lp2450
g49
(g58
g51
NtRp2451
(dp2452
g54
(dp2453
g62
I4
ssg63
Nsg56
(lp2454
sbasbasbasbag49
(g65
g51
NtRp2455
(dp2456
g54
(dp2457
sg63
g59
sg56
(lp2458
g49
(g70
g51
NtRp2459
(dp2460
g54
(dp2461
g74
g75
ssg63
g2455
sg56
(lp2462
S'wsgi'
p2463
asbag49
(g70
g51
NtRp2464
(dp2465
g54
(dp2466
g81
g82
ssg63
g2455
sg56
(lp2467
S':'
asbag49
(g70
g51
NtRp2468
(dp2469
g54
(dp2470
sg63
g2455
sg56
(lp2471
g49
(g50
g51
NtRp2472
(dp2473
g54
(dp2474
g62
I5
ssg63
g2468
sg56
(lp2475
g49
(g58
g51
NtRp2476
(dp2477
g54
(dp2478
g62
I4
ssg63
Nsg56
(lp2479
g49
(g65
g51
NtRp2480
(dp2481
g54
(dp2482
sg63
g2476
sg56
(lp2483
g49
(g70
g51
NtRp2484
(dp2485
g54
(dp2486
g74
g75
ssg63
g2480
sg56
(lp2487
S'environ'
p2488
asbag49
(g70
g51
NtRp2489
(dp2490
g54
(dp2491
g81
g82
ssg63
g2480
sg56
(lp2492
S':'
asbag49
(g70
g51
NtRp2493
(dp2494
g54
(dp2495
sg63
g2480
sg56
(lp2496
g49
(g50
g51
NtRp2497
(dp2498
g54
(dp2499
g62
I4
ssg63
g2493
sg56
(lp2500
g49
(g58
g51
NtRp2501
(dp2502
g54
(dp2503
g62
I3
ssg63
Nsg56
(lp2504
g49
(g65
g51
NtRp2505
(dp2506
g54
(dp2507
sg63
g2501
sg56
(lp2508
g49
(g70
g51
NtRp2509
(dp2510
g54
(dp2511
g74
g75
ssg63
g2505
sg56
(lp2512
S'HTTP_ACCEPT'
p2513
asbag49
(g70
g51
NtRp2514
(dp2515
g54
(dp2516
g81
g82
ssg63
g2505
sg56
(lp2517
S':'
asbag49
(g70
g51
NtRp2518
(dp2519
g54
(dp2520
sg63
g2505
sg56
(lp2521
g49
(g50
g51
NtRp2522
(dp2523
g54
(dp2524
g62
I3
ssg63
g2518
sg56
(lp2525
g1099
asbasbasbag49
(g65
g51
NtRp2526
(dp2527
g54
(dp2528
sg63
g2501
sg56
(lp2529
g49
(g70
g51
NtRp2530
(dp2531
g54
(dp2532
g74
g75
ssg63
g2526
sg56
(lp2533
S'HTTP_ACCEPT_ENCODING'
p2534
asbag49
(g70
g51
NtRp2535
(dp2536
g54
(dp2537
g81
g82
ssg63
g2526
sg56
(lp2538
S':'
asbag49
(g70
g51
NtRp2539
(dp2540
g54
(dp2541
sg63
g2526
sg56
(lp2542
g49
(g50
g51
NtRp2543
(dp2544
g54
(dp2545
g62
I3
ssg63
g2539
sg56
(lp2546
g1121
asbasbasbag49
(g65
g51
NtRp2547
(dp2548
g54
(dp2549
sg63
g2501
sg56
(lp2550
g49
(g70
g51
NtRp2551
(dp2552
g54
(dp2553
g74
g75
ssg63
g2547
sg56
(lp2554
S'HTTP_ACCEPT_LANGUAGE'
p2555
asbag49
(g70
g51
NtRp2556
(dp2557
g54
(dp2558
g81
g82
ssg63
g2547
sg56
(lp2559
S':'
asbag49
(g70
g51
NtRp2560
(dp2561
g54
(dp2562
sg63
g2547
sg56
(lp2563
g49
(g50
g51
NtRp2564
(dp2565
g54
(dp2566
g62
I3
ssg63
g2560
sg56
(lp2567
g1143
asbasbasbag49
(g65
g51
NtRp2568
(dp2569
g54
(dp2570
sg63
g2501
sg56
(lp2571
g49
(g70
g51
NtRp2572
(dp2573
g54
(dp2574
g74
g75
ssg63
g2568
sg56
(lp2575
S'HTTP_CONNECTION'
p2576
asbag49
(g70
g51
NtRp2577
(dp2578
g54
(dp2579
g81
g82
ssg63
g2568
sg56
(lp2580
S':'
asbag49
(g70
g51
NtRp2581
(dp2582
g54
(dp2583
sg63
g2568
sg56
(lp2584
g49
(g50
g51
NtRp2585
(dp2586
g54
(dp2587
g62
I3
ssg63
g2581
sg56
(lp2588
g1165
asbasbasbag49
(g65
g51
NtRp2589
(dp2590
g54
(dp2591
sg63
g2501
sg56
(lp2592
g49
(g70
g51
NtRp2593
(dp2594
g54
(dp2595
g74
g75
ssg63
g2589
sg56
(lp2596
S'HTTP_COOKIE'
p2597
asbag49
(g70
g51
NtRp2598
(dp2599
g54
(dp2600
g81
g82
ssg63
g2589
sg56
(lp2601
S':'
asbag49
(g70
g51
NtRp2602
(dp2603
g54
(dp2604
sg63
g2589
sg56
(lp2605
g49
(g50
g51
NtRp2606
(dp2607
g54
(dp2608
g62
I3
ssg63
g2602
sg56
(lp2609
g1187
asbasbasbag49
(g65
g51
NtRp2610
(dp2611
g54
(dp2612
sg63
g2501
sg56
(lp2613
g49
(g70
g51
NtRp2614
(dp2615
g54
(dp2616
g74
g75
ssg63
g2610
sg56
(lp2617
S'HTTP_HOST'
p2618
asbag49
(g70
g51
NtRp2619
(dp2620
g54
(dp2621
g81
g82
ssg63
g2610
sg56
(lp2622
S':'
asbag49
(g70
g51
NtRp2623
(dp2624
g54
(dp2625
sg63
g2610
sg56
(lp2626
g49
(g50
g51
NtRp2627
(dp2628
g54
(dp2629
g62
I3
ssg63
g2623
sg56
(lp2630
g1209
asbasbasbag49
(g65
g51
NtRp2631
(dp2632
g54
(dp2633
sg63
g2501
sg56
(lp2634
g49
(g70
g51
NtRp2635
(dp2636
g54
(dp2637
g74
g75
ssg63
g2631
sg56
(lp2638
S'HTTP_REFERER'
p2639
asbag49
(g70
g51
NtRp2640
(dp2641
g54
(dp2642
g81
g82
ssg63
g2631
sg56
(lp2643
S':'
asbag49
(g70
g51
NtRp2644
(dp2645
g54
(dp2646
sg63
g2631
sg56
(lp2647
g49
(g50
g51
NtRp2648
(dp2649
g54
(dp2650
g62
I3
ssg63
g2644
sg56
(lp2651
g1231
asbasbasbag49
(g65
g51
NtRp2652
(dp2653
g54
(dp2654
sg63
g2501
sg56
(lp2655
g49
(g70
g51
NtRp2656
(dp2657
g54
(dp2658
g74
g75
ssg63
g2652
sg56
(lp2659
S'HTTP_USER_AGENT'
p2660
asbag49
(g70
g51
NtRp2661
(dp2662
g54
(dp2663
g81
g82
ssg63
g2652
sg56
(lp2664
S':'
asbag49
(g70
g51
NtRp2665
(dp2666
g54
(dp2667
sg63
g2652
sg56
(lp2668
g49
(g50
g51
NtRp2669
(dp2670
g54
(dp2671
g62
I3
ssg63
g2665
sg56
(lp2672
g1253
asbasbasbag49
(g65
g51
NtRp2673
(dp2674
g54
(dp2675
sg63
g2501
sg56
(lp2676
g49
(g70
g51
NtRp2677
(dp2678
g54
(dp2679
g74
g75
ssg63
g2673
sg56
(lp2680
S'PATH_INFO'
p2681
asbag49
(g70
g51
NtRp2682
(dp2683
g54
(dp2684
g81
g82
ssg63
g2673
sg56
(lp2685
S':'
asbag49
(g70
g51
NtRp2686
(dp2687
g54
(dp2688
sg63
g2673
sg56
(lp2689
g49
(g50
g51
NtRp2690
(dp2691
g54
(dp2692
g62
I3
ssg63
g2686
sg56
(lp2693
g1317
asbasbasbag49
(g65
g51
NtRp2694
(dp2695
g54
(dp2696
sg63
g2501
sg56
(lp2697
g49
(g70
g51
NtRp2698
(dp2699
g54
(dp2700
g74
g75
ssg63
g2694
sg56
(lp2701
S'QUERY_STRING'
p2702
asbag49
(g70
g51
NtRp2703
(dp2704
g54
(dp2705
g81
g82
ssg63
g2694
sg56
(lp2706
S':'
asbag49
(g70
g51
NtRp2707
(dp2708
g54
(dp2709
sg63
g2694
sg56
(lp2710
g49
(g50
g51
NtRp2711
(dp2712
g54
(dp2713
g62
I3
ssg63
g2707
sg56
(lp2714
S''
asbasbasbag49
(g65
g51
NtRp2715
(dp2716
g54
(dp2717
sg63
g2501
sg56
(lp2718
g49
(g70
g51
NtRp2719
(dp2720
g54
(dp2721
g74
g75
ssg63
g2715
sg56
(lp2722
S'REMOTE_ADDR'
p2723
asbag49
(g70
g51
NtRp2724
(dp2725
g54
(dp2726
g81
g82
ssg63
g2715
sg56
(lp2727
S':'
asbag49
(g70
g51
NtRp2728
(dp2729
g54
(dp2730
sg63
g2715
sg56
(lp2731
g49
(g50
g51
NtRp2732
(dp2733
g54
(dp2734
g62
I3
ssg63
g2728
sg56
(lp2735
g182
asbasbasbag49
(g65
g51
NtRp2736
(dp2737
g54
(dp2738
sg63
g2501
sg56
(lp2739
g49
(g70
g51
NtRp2740
(dp2741
g54
(dp2742
g74
g75
ssg63
g2736
sg56
(lp2743
S'REMOTE_PORT'
p2744
asbag49
(g70
g51
NtRp2745
(dp2746
g54
(dp2747
g81
g82
ssg63
g2736
sg56
(lp2748
S':'
asbag49
(g70
g51
NtRp2749
(dp2750
g54
(dp2751
sg63
g2736
sg56
(lp2752
g49
(g50
g51
NtRp2753
(dp2754
g54
(dp2755
g62
I3
ssg63
g2749
sg56
(lp2756
g1381
asbasbasbag49
(g65
g51
NtRp2757
(dp2758
g54
(dp2759
sg63
g2501
sg56
(lp2760
g49
(g70
g51
NtRp2761
(dp2762
g54
(dp2763
g74
g75
ssg63
g2757
sg56
(lp2764
S'REQUEST_METHOD'
p2765
asbag49
(g70
g51
NtRp2766
(dp2767
g54
(dp2768
g81
g82
ssg63
g2757
sg56
(lp2769
S':'
asbag49
(g70
g51
NtRp2770
(dp2771
g54
(dp2772
sg63
g2757
sg56
(lp2773
g49
(g50
g51
NtRp2774
(dp2775
g54
(dp2776
g62
I3
ssg63
g2770
sg56
(lp2777
g1403
asbasbasbag49
(g65
g51
NtRp2778
(dp2779
g54
(dp2780
sg63
g2501
sg56
(lp2781
g49
(g70
g51
NtRp2782
(dp2783
g54
(dp2784
g74
g75
ssg63
g2778
sg56
(lp2785
S'SCRIPT_NAME'
p2786
asbag49
(g70
g51
NtRp2787
(dp2788
g54
(dp2789
g81
g82
ssg63
g2778
sg56
(lp2790
S':'
asbag49
(g70
g51
NtRp2791
(dp2792
g54
(dp2793
sg63
g2778
sg56
(lp2794
g49
(g50
g51
NtRp2795
(dp2796
g54
(dp2797
g62
I3
ssg63
g2791
sg56
(lp2798
S''
asbasbasbag49
(g65
g51
NtRp2799
(dp2800
g54
(dp2801
sg63
g2501
sg56
(lp2802
g49
(g70
g51
NtRp2803
(dp2804
g54
(dp2805
g74
g75
ssg63
g2799
sg56
(lp2806
S'SERVER_NAME'
p2807
asbag49
(g70
g51
NtRp2808
(dp2809
g54
(dp2810
g81
g82
ssg63
g2799
sg56
(lp2811
S':'
asbag49
(g70
g51
NtRp2812
(dp2813
g54
(dp2814
sg63
g2799
sg56
(lp2815
g49
(g50
g51
NtRp2816
(dp2817
g54
(dp2818
g62
I3
ssg63
g2812
sg56
(lp2819
g1446
asbasbasbag49
(g65
g51
NtRp2820
(dp2821
g54
(dp2822
sg63
g2501
sg56
(lp2823
g49
(g70
g51
NtRp2824
(dp2825
g54
(dp2826
g74
g75
ssg63
g2820
sg56
(lp2827
S'SERVER_PORT'
p2828
asbag49
(g70
g51
NtRp2829
(dp2830
g54
(dp2831
g81
g82
ssg63
g2820
sg56
(lp2832
S':'
asbag49
(g70
g51
NtRp2833
(dp2834
g54
(dp2835
sg63
g2820
sg56
(lp2836
g49
(g50
g51
NtRp2837
(dp2838
g54
(dp2839
g62
I3
ssg63
g2833
sg56
(lp2840
g1468
asbasbasbag49
(g65
g51
NtRp2841
(dp2842
g54
(dp2843
sg63
g2501
sg56
(lp2844
g49
(g70
g51
NtRp2845
(dp2846
g54
(dp2847
g74
g75
ssg63
g2841
sg56
(lp2848
S'SERVER_PROTOCOL'
p2849
asbag49
(g70
g51
NtRp2850
(dp2851
g54
(dp2852
g81
g82
ssg63
g2841
sg56
(lp2853
S':'
asbag49
(g70
g51
NtRp2854
(dp2855
g54
(dp2856
sg63
g2841
sg56
(lp2857
g49
(g50
g51
NtRp2858
(dp2859
g54
(dp2860
g62
I3
ssg63
g2854
sg56
(lp2861
g1490
asbasbasbag49
(g65
g51
NtRp2862
(dp2863
g54
(dp2864
sg63
g2501
sg56
(lp2865
g49
(g70
g51
NtRp2866
(dp2867
g54
(dp2868
g74
g75
ssg63
g2862
sg56
(lp2869
S'SERVER_SOFTWARE'
p2870
asbag49
(g70
g51
NtRp2871
(dp2872
g54
(dp2873
g81
g82
ssg63
g2862
sg56
(lp2874
S':'
asbag49
(g70
g51
NtRp2875
(dp2876
g54
(dp2877
sg63
g2862
sg56
(lp2878
g49
(g50
g51
NtRp2879
(dp2880
g54
(dp2881
g62
I3
ssg63
g2875
sg56
(lp2882
g1512
asbasbasbag49
(g65
g51
NtRp2883
(dp2884
g54
(dp2885
sg63
g2501
sg56
(lp2886
g49
(g70
g51
NtRp2887
(dp2888
g54
(dp2889
g74
g75
ssg63
g2883
sg56
(lp2890
S'wsgi.errors'
p2891
asbag49
(g70
g51
NtRp2892
(dp2893
g54
(dp2894
g81
g82
ssg63
g2883
sg56
(lp2895
S':'
asbag49
(g70
g51
NtRp2896
(dp2897
g54
(dp2898
sg63
g2883
sg56
(lp2899
g49
(g50
g51
NtRp2900
(dp2901
g54
(dp2902
g62
I3
ssg63
g2896
sg56
(lp2903
S"<open file '<stderr>', mode 'w' at 0x004200B0>"
p2904
asbasbasbag49
(g65
g51
NtRp2905
(dp2906
g54
(dp2907
sg63
g2501
sg56
(lp2908
g49
(g70
g51
NtRp2909
(dp2910
g54
(dp2911
g74
g75
ssg63
g2905
sg56
(lp2912
S'wsgi.file_wrapper'
p2913
asbag49
(g70
g51
NtRp2914
(dp2915
g54
(dp2916
g81
g82
ssg63
g2905
sg56
(lp2917
S':'
asbag49
(g70
g51
NtRp2918
(dp2919
g54
(dp2920
sg63
g2905
sg56
(lp2921
g49
(g50
g51
NtRp2922
(dp2923
g54
(dp2924
g62
I3
ssg63
g2918
sg56
(lp2925
S'<class wsgiref.util.FileWrapper at 0x03115390>'
p2926
asbasbasbag49
(g65
g51
NtRp2927
(dp2928
g54
(dp2929
sg63
g2501
sg56
(lp2930
g49
(g70
g51
NtRp2931
(dp2932
g54
(dp2933
g74
g75
ssg63
g2927
sg56
(lp2934
S'wsgi.input'
p2935
asbag49
(g70
g51
NtRp2936
(dp2937
g54
(dp2938
g81
g82
ssg63
g2927
sg56
(lp2939
S':'
asbag49
(g70
g51
NtRp2940
(dp2941
g54
(dp2942
sg63
g2927
sg56
(lp2943
g49
(g50
g51
NtRp2944
(dp2945
g54
(dp2946
g62
I3
ssg63
g2940
sg56
(lp2947
S'<cStringIO.StringO object at 0x07787960>'
p2948
asbasbasbag49
(g65
g51
NtRp2949
(dp2950
g54
(dp2951
sg63
g2501
sg56
(lp2952
g49
(g70
g51
NtRp2953
(dp2954
g54
(dp2955
g74
g75
ssg63
g2949
sg56
(lp2956
S'wsgi.multiprocess'
p2957
asbag49
(g70
g51
NtRp2958
(dp2959
g54
(dp2960
g81
g82
ssg63
g2949
sg56
(lp2961
S':'
asbag49
(g70
g51
NtRp2962
(dp2963
g54
(dp2964
sg63
g2949
sg56
(lp2965
g49
(g50
g51
NtRp2966
(dp2967
g54
(dp2968
g62
I3
ssg63
g2962
sg56
(lp2969
g92
asbasbasbag49
(g65
g51
NtRp2970
(dp2971
g54
(dp2972
sg63
g2501
sg56
(lp2973
g49
(g70
g51
NtRp2974
(dp2975
g54
(dp2976
g74
g75
ssg63
g2970
sg56
(lp2977
S'wsgi.multithread'
p2978
asbag49
(g70
g51
NtRp2979
(dp2980
g54
(dp2981
g81
g82
ssg63
g2970
sg56
(lp2982
S':'
asbag49
(g70
g51
NtRp2983
(dp2984
g54
(dp2985
sg63
g2970
sg56
(lp2986
g49
(g50
g51
NtRp2987
(dp2988
g54
(dp2989
g62
I3
ssg63
g2983
sg56
(lp2990
g1752
asbasbasbag49
(g65
g51
NtRp2991
(dp2992
g54
(dp2993
sg63
g2501
sg56
(lp2994
g49
(g70
g51
NtRp2995
(dp2996
g54
(dp2997
g74
g75
ssg63
g2991
sg56
(lp2998
S'wsgi.run_once'
p2999
asbag49
(g70
g51
NtRp3000
(dp3001
g54
(dp3002
g81
g82
ssg63
g2991
sg56
(lp3003
S':'
asbag49
(g70
g51
NtRp3004
(dp3005
g54
(dp3006
sg63
g2991
sg56
(lp3007
g49
(g50
g51
NtRp3008
(dp3009
g54
(dp3010
g62
I3
ssg63
g3004
sg56
(lp3011
g92
asbasbasbag49
(g65
g51
NtRp3012
(dp3013
g54
(dp3014
sg63
g2501
sg56
(lp3015
g49
(g70
g51
NtRp3016
(dp3017
g54
(dp3018
g74
g75
ssg63
g3012
sg56
(lp3019
S'wsgi.url_scheme'
p3020
asbag49
(g70
g51
NtRp3021
(dp3022
g54
(dp3023
g81
g82
ssg63
g3012
sg56
(lp3024
S':'
asbag49
(g70
g51
NtRp3025
(dp3026
g54
(dp3027
sg63
g3012
sg56
(lp3028
g49
(g50
g51
NtRp3029
(dp3030
g54
(dp3031
g62
I3
ssg63
g3025
sg56
(lp3032
g1795
asbasbasbag49
(g65
g51
NtRp3033
(dp3034
g54
(dp3035
sg63
g2501
sg56
(lp3036
g49
(g70
g51
NtRp3037
(dp3038
g54
(dp3039
g74
g75
ssg63
g3033
sg56
(lp3040
S'wsgi.version'
p3041
asbag49
(g70
g51
NtRp3042
(dp3043
g54
(dp3044
g81
g82
ssg63
g3033
sg56
(lp3045
S':'
asbag49
(g70
g51
NtRp3046
(dp3047
g54
(dp3048
sg63
g3033
sg56
(lp3049
g49
(g50
g51
NtRp3050
(dp3051
g54
(dp3052
g62
I3
ssg63
g3046
sg56
(lp3053
S'1'
asbasbasbasbasbasbasbasbasbasbasbasbasbsS'frames'
p3054
(lp3055
(dp3056
S'file'
p3057
S'D:\\Dise\xf1o Web\\Proyectos\\Parleyweb\\web2py\\gluon\\restricted.py'
p3058
sS'dump'
p3059
(dp3060
sS'lnum'
p3061
I205
sS'lines'
p3062
(dp3063
sS'call'
p3064
S'(code=r"response.write(\'<!DOCTYPE html>\\n<!-- paulirish....\\n    \\n\\n \\n\\n</body>\\n</html>\\n\', escape=False)", environment={\'A\': <class \'gluon.html.A\'>, \'Auth\': <class \'gluon.tools.Auth\'>, \'B\': <class \'gluon.html.B\'>, \'BEAUTIFY\': <class \'gluon.html.BEAUTIFY\'>, \'BODY\': <class \'gluon.html.BODY\'>, \'BR\': <class \'gluon.html.BR\'>, \'BUTTON\': <class \'gluon.html.BUTTON\'>, \'CAT\': <class \'gluon.html.CAT\'>, \'CENTER\': <class \'gluon.html.CENTER\'>, \'CLEANUP\': <class \'gluon.validators.CLEANUP\'>, ...}, layer=\'D:\\\\Dise\\xf1o Web\\\\Proyectos\\\\Parleyweb\\\\web2py\\\\applications\\\\parleyweb\\\\views\\\\admin/agregar_ejemplo.html\')'
p3065
sS'func'
p3066
S'restricted'
p3067
sa(dp3068
g3057
S'D:\\Dise\xf1o Web\\Proyectos\\Parleyweb\\web2py\\applications\\parleyweb\\views\\admin\\agregar_ejemplo.html'
p3069
sg3059
(dp3070
sg3061
I104
sg3062
(dp3071
I96
S'        if n.id==i.fuente:'
p3072
sI97
S"            response.write('\\n                                    ', escape=False)"
p3073
sI98
S'            response.write(n.nombre)'
p3074
sI99
S"            response.write('\\n                                ', escape=False)"
p3075
sI100
S'            pass'
p3076
sI101
S"        response.write('\\n                             ', escape=False)"
p3077
sI102
S'        pass'
p3078
sI103
S"    response.write('\\n                             </p></td>\\n                             <td><p>', escape=False)"
p3079
sI104
S'    response.write(i.tipo)'
p3080
sI105
S'    response.write(\'</p></td>\\n                            <td><a data-toggle="modal" href=\', escape=False)'
p3081
sI106
S"    response.write(URL('editar_ejemplo', args=i.id))"
p3082
sI107
S'    response.write(\'><i class="icon-pencil"></i>Editar</a>\\n                            <a data-toggle="modal"  href=\', escape=False)'
p3083
sI108
S"    response.write(URL('borrar_ejemplo', args=i.id))"
p3084
sI109
S'    response.write(\'><i class="icon-trash"></i>Borrar</a>\\n                            <a data-toggle="modal"  href=\', escape=False)'
p3085
sI110
S"    response.write(URL('relacionar_palabra', args=i.id))"
p3086
sI111
S'    response.write(\'><i class="icon-plus-sign"></i>Relacionar Palabra</a>\\n                            <a data-toggle="modal"  href=\', escape=False)'
p3087
sI112
S"    response.write(URL('default','mostrar', args=[i.id,i.ejemplo_de]))"
p3088
sI113
S'    response.write(\'><i class="icon-eye-open"></i>Ver ejemplo</a>\\n                            </td>\\n                            <td>\\n                            \', escape=False)'
p3089
sI114
S'    conta=0'
p3090
sI95
S"        response.write('\\n                                ', escape=False)"
p3091
ssg3064
S'()'
p3092
sg3066
S'<module>'
p3093
sa(dp3094
g3057
S'D:\\Dise\xf1o Web\\Proyectos\\Parleyweb\\web2py\\gluon\\dal.py'
p3095
sg3059
(dp3096
sg3061
I5657
sg3062
(dp3097
sg3064
S"(self=<Row {'adjetivo': None, 'sustantivo': None, 'upd...lete_record': <function <lambda> at 0x06C9E5B0>}>, key='tipo')"
p3098
sg3066
S'__getattr__'
p3099
sa(dp3100
g3057
S'D:\\Dise\xf1o Web\\Proyectos\\Parleyweb\\web2py\\gluon\\dal.py'
p3101
sg3059
(dp3102
sg3061
I5648
sg3062
(dp3103
sg3064
S"(self=<Row {'adjetivo': None, 'sustantivo': None, 'upd...lete_record': <function <lambda> at 0x06C9E5B0>}>, key='tipo')"
p3104
sg3066
g20
sasS'pyver'
p3105
S'Python 2.5.4: D:\\Dise\xf1o Web\\Proyectos\\Parleyweb\\web2py\\web2py.exe'
p3106
sS'session'
p3107
g49
(g50
g51
NtRp3108
(dp3109
g54
(dp3110
sg56
(lp3111
g49
(g58
g51
NtRp3112
(dp3113
g54
(dp3114
g62
I5
ssg63
Nsg56
(lp3115
g49
(g65
g51
NtRp3116
(dp3117
g54
(dp3118
sg63
g3112
sg56
(lp3119
g49
(g70
g51
NtRp3120
(dp3121
g54
(dp3122
g74
g75
ssg63
g3116
sg56
(lp3123
S'last_query'
p3124
asbag49
(g70
g51
NtRp3125
(dp3126
g54
(dp3127
g81
g82
ssg63
g3116
sg56
(lp3128
S':'
asbag49
(g70
g51
NtRp3129
(dp3130
g54
(dp3131
sg63
g3116
sg56
(lp3132
g49
(g50
g51
NtRp3133
(dp3134
g54
(dp3135
g62
I5
ssg63
g3129
sg56
(lp3136
S'db.palabra_ejemplo.id>0'
p3137
asbasbasbasbasbsS'etype'
p3138
S"<type 'exceptions.KeyError'>"
p3139
sS'date'
p3140
S'Mon Mar 12 18:58:03 2012'
p3141
sS'response'
p3142
g49
(g50
g51
NtRp3143
(dp3144
g54
(dp3145
sg56
(lp3146
g49
(g58
g51
NtRp3147
(dp3148
g54
(dp3149
g62
I5
ssg63
Nsg56
(lp3150
g49
(g65
g51
NtRp3151
(dp3152
g54
(dp3153
sg63
g3147
sg56
(lp3154
g49
(g70
g51
NtRp3155
(dp3156
g54
(dp3157
g74
g75
ssg63
g3151
sg56
(lp3158
g147
asbag49
(g70
g51
NtRp3159
(dp3160
g54
(dp3161
g81
g82
ssg63
g3151
sg56
(lp3162
S':'
asbag49
(g70
g51
NtRp3163
(dp3164
g54
(dp3165
sg63
g3151
sg56
(lp3166
g49
(g50
g51
NtRp3167
(dp3168
g54
(dp3169
g62
I5
ssg63
g3163
sg56
(lp3170
S'<cStringIO.StringO object at 0x06BFCBC0>'
p3171
asbasbasbag49
(g65
g51
NtRp3172
(dp3173
g54
(dp3174
sg63
g3147
sg56
(lp3175
g49
(g70
g51
NtRp3176
(dp3177
g54
(dp3178
g74
g75
ssg63
g3172
sg56
(lp3179
g213
asbag49
(g70
g51
NtRp3180
(dp3181
g54
(dp3182
g81
g82
ssg63
g3172
sg56
(lp3183
S':'
asbag49
(g70
g51
NtRp3184
(dp3185
g54
(dp3186
sg63
g3172
sg56
(lp3187
g49
(g50
g51
NtRp3188
(dp3189
g54
(dp3190
g62
I5
ssg63
g3184
sg56
(lp3191
g49
(g58
g51
NtRp3192
(dp3193
g54
(dp3194
g62
I4
ssg63
Nsg56
(lp3195
g49
(g65
g51
NtRp3196
(dp3197
g54
(dp3198
sg63
g3192
sg56
(lp3199
g49
(g70
g51
NtRp3200
(dp3201
g54
(dp3202
g74
g75
ssg63
g3196
sg56
(lp3203
S'session_id_parleyweb'
p3204
asbag49
(g70
g51
NtRp3205
(dp3206
g54
(dp3207
g81
g82
ssg63
g3196
sg56
(lp3208
S':'
asbag49
(g70
g51
NtRp3209
(dp3210
g54
(dp3211
sg63
g3196
sg56
(lp3212
g49
(g50
g51
NtRp3213
(dp3214
g54
(dp3215
g62
I4
ssg63
g3209
sg56
(lp3216
g49
(g58
g51
NtRp3217
(dp3218
g54
(dp3219
g62
I3
ssg63
Nsg56
(lp3220
g49
(g65
g51
NtRp3221
(dp3222
g54
(dp3223
sg63
g3217
sg56
(lp3224
g49
(g70
g51
NtRp3225
(dp3226
g54
(dp3227
g74
g75
ssg63
g3221
sg56
(lp3228
g263
asbag49
(g70
g51
NtRp3229
(dp3230
g54
(dp3231
g81
g82
ssg63
g3221
sg56
(lp3232
S':'
asbag49
(g70
g51
NtRp3233
(dp3234
g54
(dp3235
sg63
g3221
sg56
(lp3236
g49
(g50
g51
NtRp3237
(dp3238
g54
(dp3239
g62
I3
ssg63
g3233
sg56
(lp3240
S''
asbasbasbag49
(g65
g51
NtRp3241
(dp3242
g54
(dp3243
sg63
g3217
sg56
(lp3244
g49
(g70
g51
NtRp3245
(dp3246
g54
(dp3247
g74
g75
ssg63
g3241
sg56
(lp3248
g284
asbag49
(g70
g51
NtRp3249
(dp3250
g54
(dp3251
g81
g82
ssg63
g3241
sg56
(lp3252
S':'
asbag49
(g70
g51
NtRp3253
(dp3254
g54
(dp3255
sg63
g3241
sg56
(lp3256
g49
(g50
g51
NtRp3257
(dp3258
g54
(dp3259
g62
I3
ssg63
g3253
sg56
(lp3260
S''
asbasbasbag49
(g65
g51
NtRp3261
(dp3262
g54
(dp3263
sg63
g3217
sg56
(lp3264
g49
(g70
g51
NtRp3265
(dp3266
g54
(dp3267
g74
g75
ssg63
g3261
sg56
(lp3268
g305
asbag49
(g70
g51
NtRp3269
(dp3270
g54
(dp3271
g81
g82
ssg63
g3261
sg56
(lp3272
S':'
asbag49
(g70
g51
NtRp3273
(dp3274
g54
(dp3275
sg63
g3261
sg56
(lp3276
g49
(g50
g51
NtRp3277
(dp3278
g54
(dp3279
g62
I3
ssg63
g3273
sg56
(lp3280
S''
asbasbasbag49
(g65
g51
NtRp3281
(dp3282
g54
(dp3283
sg63
g3217
sg56
(lp3284
g49
(g70
g51
NtRp3285
(dp3286
g54
(dp3287
g74
g75
ssg63
g3281
sg56
(lp3288
g326
asbag49
(g70
g51
NtRp3289
(dp3290
g54
(dp3291
g81
g82
ssg63
g3281
sg56
(lp3292
S':'
asbag49
(g70
g51
NtRp3293
(dp3294
g54
(dp3295
sg63
g3281
sg56
(lp3296
g49
(g50
g51
NtRp3297
(dp3298
g54
(dp3299
g62
I3
ssg63
g3293
sg56
(lp3300
S''
asbasbasbag49
(g65
g51
NtRp3301
(dp3302
g54
(dp3303
sg63
g3217
sg56
(lp3304
g49
(g70
g51
NtRp3305
(dp3306
g54
(dp3307
g74
g75
ssg63
g3301
sg56
(lp3308
g347
asbag49
(g70
g51
NtRp3309
(dp3310
g54
(dp3311
g81
g82
ssg63
g3301
sg56
(lp3312
S':'
asbag49
(g70
g51
NtRp3313
(dp3314
g54
(dp3315
sg63
g3301
sg56
(lp3316
g49
(g50
g51
NtRp3317
(dp3318
g54
(dp3319
g62
I3
ssg63
g3313
sg56
(lp3320
S'/'
asbasbasbag49
(g65
g51
NtRp3321
(dp3322
g54
(dp3323
sg63
g3217
sg56
(lp3324
g49
(g70
g51
NtRp3325
(dp3326
g54
(dp3327
g74
g75
ssg63
g3321
sg56
(lp3328
g368
asbag49
(g70
g51
NtRp3329
(dp3330
g54
(dp3331
g81
g82
ssg63
g3321
sg56
(lp3332
S':'
asbag49
(g70
g51
NtRp3333
(dp3334
g54
(dp3335
sg63
g3321
sg56
(lp3336
g49
(g50
g51
NtRp3337
(dp3338
g54
(dp3339
g62
I3
ssg63
g3333
sg56
(lp3340
S''
asbasbasbag49
(g65
g51
NtRp3341
(dp3342
g54
(dp3343
sg63
g3217
sg56
(lp3344
g49
(g70
g51
NtRp3345
(dp3346
g54
(dp3347
g74
g75
ssg63
g3341
sg56
(lp3348
g389
asbag49
(g70
g51
NtRp3349
(dp3350
g54
(dp3351
g81
g82
ssg63
g3341
sg56
(lp3352
S':'
asbag49
(g70
g51
NtRp3353
(dp3354
g54
(dp3355
sg63
g3341
sg56
(lp3356
g49
(g50
g51
NtRp3357
(dp3358
g54
(dp3359
g62
I3
ssg63
g3353
sg56
(lp3360
S''
asbasbasbasbasbasbasbasbasbasbasbag49
(g65
g51
NtRp3361
(dp3362
g54
(dp3363
sg63
g3147
sg56
(lp3364
g49
(g70
g51
NtRp3365
(dp3366
g54
(dp3367
g74
g75
ssg63
g3361
sg56
(lp3368
S'delimiters'
p3369
asbag49
(g70
g51
NtRp3370
(dp3371
g54
(dp3372
g81
g82
ssg63
g3361
sg56
(lp3373
S':'
asbag49
(g70
g51
NtRp3374
(dp3375
g54
(dp3376
sg63
g3361
sg56
(lp3377
g49
(g50
g51
NtRp3378
(dp3379
g54
(dp3380
g62
I5
ssg63
g3374
sg56
(lp3381
g49
(g58
g51
NtRp3382
(dp3383
g54
(dp3384
g62
I4
ssg63
Nsg56
(lp3385
g49
(g65
g51
NtRp3386
(dp3387
g54
(dp3388
sg63
g3382
sg56
(lp3389
g49
(g70
g51
NtRp3390
(dp3391
g54
(dp3392
sg63
g3386
sg56
(lp3393
g49
(g50
g51
NtRp3394
(dp3395
g54
(dp3396
g62
I4
ssg63
g3390
sg56
(lp3397
S'{{'
p3398
asbasbasbag49
(g65
g51
NtRp3399
(dp3400
g54
(dp3401
sg63
g3382
sg56
(lp3402
g49
(g70
g51
NtRp3403
(dp3404
g54
(dp3405
sg63
g3399
sg56
(lp3406
g49
(g50
g51
NtRp3407
(dp3408
g54
(dp3409
g62
I4
ssg63
g3403
sg56
(lp3410
S'}}'
p3411
asbasbasbasbasbasbasbag49
(g65
g51
NtRp3412
(dp3413
g54
(dp3414
sg63
g3147
sg56
(lp3415
g49
(g70
g51
NtRp3416
(dp3417
g54
(dp3418
g74
g75
ssg63
g3412
sg56
(lp3419
S'files'
p3420
asbag49
(g70
g51
NtRp3421
(dp3422
g54
(dp3423
g81
g82
ssg63
g3412
sg56
(lp3424
S':'
asbag49
(g70
g51
NtRp3425
(dp3426
g54
(dp3427
sg63
g3412
sg56
(lp3428
g49
(g50
g51
NtRp3429
(dp3430
g54
(dp3431
g62
I5
ssg63
g3425
sg56
(lp3432
g49
(g58
g51
NtRp3433
(dp3434
g54
(dp3435
g62
I4
ssg63
Nsg56
(lp3436
g49
(g65
g51
NtRp3437
(dp3438
g54
(dp3439
sg63
g3433
sg56
(lp3440
g49
(g70
g51
NtRp3441
(dp3442
g54
(dp3443
sg63
g3437
sg56
(lp3444
g49
(g50
g51
NtRp3445
(dp3446
g54
(dp3447
g62
I4
ssg63
g3441
sg56
(lp3448
S'/parleyweb/static/js/jquery.js'
p3449
asbasbasbag49
(g65
g51
NtRp3450
(dp3451
g54
(dp3452
sg63
g3433
sg56
(lp3453
g49
(g70
g51
NtRp3454
(dp3455
g54
(dp3456
sg63
g3450
sg56
(lp3457
g49
(g50
g51
NtRp3458
(dp3459
g54
(dp3460
g62
I4
ssg63
g3454
sg56
(lp3461
S'/parleyweb/static/css/calendar.css'
p3462
asbasbasbag49
(g65
g51
NtRp3463
(dp3464
g54
(dp3465
sg63
g3433
sg56
(lp3466
g49
(g70
g51
NtRp3467
(dp3468
g54
(dp3469
sg63
g3463
sg56
(lp3470
g49
(g50
g51
NtRp3471
(dp3472
g54
(dp3473
g62
I4
ssg63
g3467
sg56
(lp3474
S'/parleyweb/static/js/calendar.js'
p3475
asbasbasbag49
(g65
g51
NtRp3476
(dp3477
g54
(dp3478
sg63
g3433
sg56
(lp3479
g49
(g70
g51
NtRp3480
(dp3481
g54
(dp3482
sg63
g3476
sg56
(lp3483
g49
(g50
g51
NtRp3484
(dp3485
g54
(dp3486
g62
I4
ssg63
g3480
sg56
(lp3487
S'/parleyweb/static/js/web2py.js'
p3488
asbasbasbag49
(g65
g51
NtRp3489
(dp3490
g54
(dp3491
sg63
g3433
sg56
(lp3492
g49
(g70
g51
NtRp3493
(dp3494
g54
(dp3495
sg63
g3489
sg56
(lp3496
g49
(g50
g51
NtRp3497
(dp3498
g54
(dp3499
g62
I4
ssg63
g3493
sg56
(lp3500
S'/parleyweb/static/css/bootstrap.css'
p3501
asbasbasbag49
(g65
g51
NtRp3502
(dp3503
g54
(dp3504
sg63
g3433
sg56
(lp3505
g49
(g70
g51
NtRp3506
(dp3507
g54
(dp3508
sg63
g3502
sg56
(lp3509
g49
(g50
g51
NtRp3510
(dp3511
g54
(dp3512
g62
I4
ssg63
g3506
sg56
(lp3513
S'/parleyweb/static/js/bootstrap.js'
p3514
asbasbasbag49
(g65
g51
NtRp3515
(dp3516
g54
(dp3517
sg63
g3433
sg56
(lp3518
g49
(g70
g51
NtRp3519
(dp3520
g54
(dp3521
sg63
g3515
sg56
(lp3522
g49
(g50
g51
NtRp3523
(dp3524
g54
(dp3525
g62
I4
ssg63
g3519
sg56
(lp3526
S'/parleyweb/static/js/jquery.tokeninput.js'
p3527
asbasbasbag49
(g65
g51
NtRp3528
(dp3529
g54
(dp3530
sg63
g3433
sg56
(lp3531
g49
(g70
g51
NtRp3532
(dp3533
g54
(dp3534
sg63
g3528
sg56
(lp3535
g49
(g50
g51
NtRp3536
(dp3537
g54
(dp3538
g62
I4
ssg63
g3532
sg56
(lp3539
S'/parleyweb/static/css/parleyweb.css'
p3540
asbasbasbag49
(g65
g51
NtRp3541
(dp3542
g54
(dp3543
sg63
g3433
sg56
(lp3544
g49
(g70
g51
NtRp3545
(dp3546
g54
(dp3547
sg63
g3541
sg56
(lp3548
g49
(g50
g51
NtRp3549
(dp3550
g54
(dp3551
g62
I4
ssg63
g3545
sg56
(lp3552
S'/parleyweb/static/css/jqtransform.css'
p3553
asbasbasbag49
(g65
g51
NtRp3554
(dp3555
g54
(dp3556
sg63
g3433
sg56
(lp3557
g49
(g70
g51
NtRp3558
(dp3559
g54
(dp3560
sg63
g3554
sg56
(lp3561
g49
(g50
g51
NtRp3562
(dp3563
g54
(dp3564
g62
I4
ssg63
g3558
sg56
(lp3565
S'/parleyweb/static/js/parleyweb.js'
p3566
asbasbasbag49
(g65
g51
NtRp3567
(dp3568
g54
(dp3569
sg63
g3433
sg56
(lp3570
g49
(g70
g51
NtRp3571
(dp3572
g54
(dp3573
sg63
g3567
sg56
(lp3574
g49
(g50
g51
NtRp3575
(dp3576
g54
(dp3577
g62
I4
ssg63
g3571
sg56
(lp3578
S'/parleyweb/static/js/jquery.jqtransform.js'
p3579
asbasbasbasbasbasbasbag49
(g65
g51
NtRp3580
(dp3581
g54
(dp3582
sg63
g3147
sg56
(lp3583
g49
(g70
g51
NtRp3584
(dp3585
g54
(dp3586
g74
g75
ssg63
g3580
sg56
(lp3587
S'flash'
p3588
asbag49
(g70
g51
NtRp3589
(dp3590
g54
(dp3591
g81
g82
ssg63
g3580
sg56
(lp3592
S':'
asbag49
(g70
g51
NtRp3593
(dp3594
g54
(dp3595
sg63
g3580
sg56
(lp3596
g49
(g50
g51
NtRp3597
(dp3598
g54
(dp3599
g62
I5
ssg63
g3593
sg56
(lp3600
S''
asbasbasbag49
(g65
g51
NtRp3601
(dp3602
g54
(dp3603
sg63
g3147
sg56
(lp3604
g49
(g70
g51
NtRp3605
(dp3606
g54
(dp3607
g74
g75
ssg63
g3601
sg56
(lp3608
S'generic_patterns'
p3609
asbag49
(g70
g51
NtRp3610
(dp3611
g54
(dp3612
g81
g82
ssg63
g3601
sg56
(lp3613
S':'
asbag49
(g70
g51
NtRp3614
(dp3615
g54
(dp3616
sg63
g3601
sg56
(lp3617
g49
(g50
g51
NtRp3618
(dp3619
g54
(dp3620
g62
I5
ssg63
g3614
sg56
(lp3621
g49
(g58
g51
NtRp3622
(dp3623
g54
(dp3624
g62
I4
ssg63
Nsg56
(lp3625
g49
(g65
g51
NtRp3626
(dp3627
g54
(dp3628
sg63
g3622
sg56
(lp3629
g49
(g70
g51
NtRp3630
(dp3631
g54
(dp3632
sg63
g3626
sg56
(lp3633
g49
(g50
g51
NtRp3634
(dp3635
g54
(dp3636
g62
I4
ssg63
g3630
sg56
(lp3637
S'*'
asbasbasbasbasbasbasbag49
(g65
g51
NtRp3638
(dp3639
g54
(dp3640
sg63
g3147
sg56
(lp3641
g49
(g70
g51
NtRp3642
(dp3643
g54
(dp3644
g74
g75
ssg63
g3638
sg56
(lp3645
S'headers'
p3646
asbag49
(g70
g51
NtRp3647
(dp3648
g54
(dp3649
g81
g82
ssg63
g3638
sg56
(lp3650
S':'
asbag49
(g70
g51
NtRp3651
(dp3652
g54
(dp3653
sg63
g3638
sg56
(lp3654
g49
(g50
g51
NtRp3655
(dp3656
g54
(dp3657
g62
I5
ssg63
g3651
sg56
(lp3658
g49
(g58
g51
NtRp3659
(dp3660
g54
(dp3661
g62
I4
ssg63
Nsg56
(lp3662
g49
(g65
g51
NtRp3663
(dp3664
g54
(dp3665
sg63
g3659
sg56
(lp3666
g49
(g70
g51
NtRp3667
(dp3668
g54
(dp3669
g74
g75
ssg63
g3663
sg56
(lp3670
S'Cache-Control'
p3671
asbag49
(g70
g51
NtRp3672
(dp3673
g54
(dp3674
g81
g82
ssg63
g3663
sg56
(lp3675
S':'
asbag49
(g70
g51
NtRp3676
(dp3677
g54
(dp3678
sg63
g3663
sg56
(lp3679
g49
(g50
g51
NtRp3680
(dp3681
g54
(dp3682
g62
I4
ssg63
g3676
sg56
(lp3683
S'no-store, no-cache, must-revalidate, post-check=0, pre-check=0'
p3684
asbasbasbag49
(g65
g51
NtRp3685
(dp3686
g54
(dp3687
sg63
g3659
sg56
(lp3688
g49
(g70
g51
NtRp3689
(dp3690
g54
(dp3691
g74
g75
ssg63
g3685
sg56
(lp3692
S'Content-Type'
p3693
asbag49
(g70
g51
NtRp3694
(dp3695
g54
(dp3696
g81
g82
ssg63
g3685
sg56
(lp3697
S':'
asbag49
(g70
g51
NtRp3698
(dp3699
g54
(dp3700
sg63
g3685
sg56
(lp3701
g49
(g50
g51
NtRp3702
(dp3703
g54
(dp3704
g62
I4
ssg63
g3698
sg56
(lp3705
S'text/html; charset=utf-8'
p3706
asbasbasbag49
(g65
g51
NtRp3707
(dp3708
g54
(dp3709
sg63
g3659
sg56
(lp3710
g49
(g70
g51
NtRp3711
(dp3712
g54
(dp3713
g74
g75
ssg63
g3707
sg56
(lp3714
S'Expires'
p3715
asbag49
(g70
g51
NtRp3716
(dp3717
g54
(dp3718
g81
g82
ssg63
g3707
sg56
(lp3719
S':'
asbag49
(g70
g51
NtRp3720
(dp3721
g54
(dp3722
sg63
g3707
sg56
(lp3723
g49
(g50
g51
NtRp3724
(dp3725
g54
(dp3726
g62
I4
ssg63
g3720
sg56
(lp3727
S'Mon, 12 Mar 2012 17:58:03 GMT'
p3728
asbasbasbag49
(g65
g51
NtRp3729
(dp3730
g54
(dp3731
sg63
g3659
sg56
(lp3732
g49
(g70
g51
NtRp3733
(dp3734
g54
(dp3735
g74
g75
ssg63
g3729
sg56
(lp3736
S'Pragma'
p3737
asbag49
(g70
g51
NtRp3738
(dp3739
g54
(dp3740
g81
g82
ssg63
g3729
sg56
(lp3741
S':'
asbag49
(g70
g51
NtRp3742
(dp3743
g54
(dp3744
sg63
g3729
sg56
(lp3745
g49
(g50
g51
NtRp3746
(dp3747
g54
(dp3748
g62
I4
ssg63
g3742
sg56
(lp3749
S'no-cache'
p3750
asbasbasbag49
(g65
g51
NtRp3751
(dp3752
g54
(dp3753
sg63
g3659
sg56
(lp3754
g49
(g70
g51
NtRp3755
(dp3756
g54
(dp3757
g74
g75
ssg63
g3751
sg56
(lp3758
S'X-Powered-By'
p3759
asbag49
(g70
g51
NtRp3760
(dp3761
g54
(dp3762
g81
g82
ssg63
g3751
sg56
(lp3763
S':'
asbag49
(g70
g51
NtRp3764
(dp3765
g54
(dp3766
sg63
g3751
sg56
(lp3767
g49
(g50
g51
NtRp3768
(dp3769
g54
(dp3770
g62
I4
ssg63
g3764
sg56
(lp3771
S'web2py'
p3772
asbasbasbasbasbasbasbag49
(g65
g51
NtRp3773
(dp3774
g54
(dp3775
sg63
g3147
sg56
(lp3776
g49
(g70
g51
NtRp3777
(dp3778
g54
(dp3779
g74
g75
ssg63
g3773
sg56
(lp3780
S'menu'
p3781
asbag49
(g70
g51
NtRp3782
(dp3783
g54
(dp3784
g81
g82
ssg63
g3773
sg56
(lp3785
S':'
asbag49
(g70
g51
NtRp3786
(dp3787
g54
(dp3788
sg63
g3773
sg56
(lp3789
g49
(g50
g51
NtRp3790
(dp3791
g54
(dp3792
g62
I5
ssg63
g3786
sg56
(lp3793
g49
(g58
g51
NtRp3794
(dp3795
g54
(dp3796
g62
I4
ssg63
Nsg56
(lp3797
g49
(g65
g51
NtRp3798
(dp3799
g54
(dp3800
sg63
g3794
sg56
(lp3801
g49
(g70
g51
NtRp3802
(dp3803
g54
(dp3804
sg63
g3798
sg56
(lp3805
g49
(g50
g51
NtRp3806
(dp3807
g54
(dp3808
g62
I4
ssg63
g3802
sg56
(lp3809
g49
(g58
g51
NtRp3810
(dp3811
g54
(dp3812
g62
I3
ssg63
Nsg56
(lp3813
g49
(g65
g51
NtRp3814
(dp3815
g54
(dp3816
sg63
g3810
sg56
(lp3817
g49
(g70
g51
NtRp3818
(dp3819
g54
(dp3820
sg63
g3814
sg56
(lp3821
g49
(g50
g51
NtRp3822
(dp3823
g54
(dp3824
g62
I3
ssg63
g3818
sg56
(lp3825
cgluon.languages
lazyT_unpickle
p3826
(S't\x04\x00\x00\x00Home'
tRp3827
asbasbasbag49
(g65
g51
NtRp3828
(dp3829
g54
(dp3830
sg63
g3810
sg56
(lp3831
g49
(g70
g51
NtRp3832
(dp3833
g54
(dp3834
sg63
g3828
sg56
(lp3835
g49
(g50
g51
NtRp3836
(dp3837
g54
(dp3838
g62
I3
ssg63
g3832
sg56
(lp3839
g92
asbasbasbag49
(g65
g51
NtRp3840
(dp3841
g54
(dp3842
sg63
g3810
sg56
(lp3843
g49
(g70
g51
NtRp3844
(dp3845
g54
(dp3846
sg63
g3840
sg56
(lp3847
g49
(g50
g51
NtRp3848
(dp3849
g54
(dp3850
g62
I3
ssg63
g3844
sg56
(lp3851
S'/parleyweb/default/index'
p3852
asbasbasbag49
(g65
g51
NtRp3853
(dp3854
g54
(dp3855
sg63
g3810
sg56
(lp3856
g49
(g70
g51
NtRp3857
(dp3858
g54
(dp3859
sg63
g3853
sg56
(lp3860
g49
(g50
g51
NtRp3861
(dp3862
g54
(dp3863
g62
I3
ssg63
g3857
sg56
(lp3864
g49
(g58
g51
NtRp3865
(dp3866
g54
(dp3867
g62
I2
ssg63
Nsg56
(lp3868
sbasbasbasbasbasbasbasbasbasbasbasbag49
(g65
g51
NtRp3869
(dp3870
g54
(dp3871
sg63
g3147
sg56
(lp3872
g49
(g70
g51
NtRp3873
(dp3874
g54
(dp3875
g74
g75
ssg63
g3869
sg56
(lp3876
S'meta'
p3877
asbag49
(g70
g51
NtRp3878
(dp3879
g54
(dp3880
g81
g82
ssg63
g3869
sg56
(lp3881
S':'
asbag49
(g70
g51
NtRp3882
(dp3883
g54
(dp3884
sg63
g3869
sg56
(lp3885
g49
(g50
g51
NtRp3886
(dp3887
g54
(dp3888
g62
I5
ssg63
g3882
sg56
(lp3889
g49
(g58
g51
NtRp3890
(dp3891
g54
(dp3892
g62
I4
ssg63
Nsg56
(lp3893
g49
(g65
g51
NtRp3894
(dp3895
g54
(dp3896
sg63
g3890
sg56
(lp3897
g49
(g70
g51
NtRp3898
(dp3899
g54
(dp3900
g74
g75
ssg63
g3894
sg56
(lp3901
S'author'
p3902
asbag49
(g70
g51
NtRp3903
(dp3904
g54
(dp3905
g81
g82
ssg63
g3894
sg56
(lp3906
S':'
asbag49
(g70
g51
NtRp3907
(dp3908
g54
(dp3909
sg63
g3894
sg56
(lp3910
g49
(g50
g51
NtRp3911
(dp3912
g54
(dp3913
g62
I4
ssg63
g3907
sg56
(lp3914
S'Your Name <you@example.com>'
p3915
asbasbasbag49
(g65
g51
NtRp3916
(dp3917
g54
(dp3918
sg63
g3890
sg56
(lp3919
g49
(g70
g51
NtRp3920
(dp3921
g54
(dp3922
g74
g75
ssg63
g3916
sg56
(lp3923
S'copyright'
p3924
asbag49
(g70
g51
NtRp3925
(dp3926
g54
(dp3927
g81
g82
ssg63
g3916
sg56
(lp3928
S':'
asbag49
(g70
g51
NtRp3929
(dp3930
g54
(dp3931
sg63
g3916
sg56
(lp3932
g49
(g50
g51
NtRp3933
(dp3934
g54
(dp3935
g62
I4
ssg63
g3929
sg56
(lp3936
S'Copyright 2011'
p3937
asbasbasbag49
(g65
g51
NtRp3938
(dp3939
g54
(dp3940
sg63
g3890
sg56
(lp3941
g49
(g70
g51
NtRp3942
(dp3943
g54
(dp3944
g74
g75
ssg63
g3938
sg56
(lp3945
S'description'
p3946
asbag49
(g70
g51
NtRp3947
(dp3948
g54
(dp3949
g81
g82
ssg63
g3938
sg56
(lp3950
S':'
asbag49
(g70
g51
NtRp3951
(dp3952
g54
(dp3953
sg63
g3938
sg56
(lp3954
g49
(g50
g51
NtRp3955
(dp3956
g54
(dp3957
g62
I4
ssg63
g3951
sg56
(lp3958
S'a cool new app'
p3959
asbasbasbag49
(g65
g51
NtRp3960
(dp3961
g54
(dp3962
sg63
g3890
sg56
(lp3963
g49
(g70
g51
NtRp3964
(dp3965
g54
(dp3966
g74
g75
ssg63
g3960
sg56
(lp3967
S'generator'
p3968
asbag49
(g70
g51
NtRp3969
(dp3970
g54
(dp3971
g81
g82
ssg63
g3960
sg56
(lp3972
S':'
asbag49
(g70
g51
NtRp3973
(dp3974
g54
(dp3975
sg63
g3960
sg56
(lp3976
g49
(g50
g51
NtRp3977
(dp3978
g54
(dp3979
g62
I4
ssg63
g3973
sg56
(lp3980
S'Web2py Web Framework'
p3981
asbasbasbag49
(g65
g51
NtRp3982
(dp3983
g54
(dp3984
sg63
g3890
sg56
(lp3985
g49
(g70
g51
NtRp3986
(dp3987
g54
(dp3988
g74
g75
ssg63
g3982
sg56
(lp3989
S'keywords'
p3990
asbag49
(g70
g51
NtRp3991
(dp3992
g54
(dp3993
g81
g82
ssg63
g3982
sg56
(lp3994
S':'
asbag49
(g70
g51
NtRp3995
(dp3996
g54
(dp3997
sg63
g3982
sg56
(lp3998
g49
(g50
g51
NtRp3999
(dp4000
g54
(dp4001
g62
I4
ssg63
g3995
sg56
(lp4002
S'web2py, python, framework'
p4003
asbasbasbasbasbasbasbag49
(g65
g51
NtRp4004
(dp4005
g54
(dp4006
sg63
g3147
sg56
(lp4007
g49
(g70
g51
NtRp4008
(dp4009
g54
(dp4010
g74
g75
ssg63
g4004
sg56
(lp4011
S'postprocessing'
p4012
asbag49
(g70
g51
NtRp4013
(dp4014
g54
(dp4015
g81
g82
ssg63
g4004
sg56
(lp4016
S':'
asbag49
(g70
g51
NtRp4017
(dp4018
g54
(dp4019
sg63
g4004
sg56
(lp4020
g49
(g50
g51
NtRp4021
(dp4022
g54
(dp4023
g62
I5
ssg63
g4017
sg56
(lp4024
g49
(g58
g51
NtRp4025
(dp4026
g54
(dp4027
g62
I4
ssg63
Nsg56
(lp4028
sbasbasbasbag49
(g65
g51
NtRp4029
(dp4030
g54
(dp4031
sg63
g3147
sg56
(lp4032
g49
(g70
g51
NtRp4033
(dp4034
g54
(dp4035
g74
g75
ssg63
g4029
sg56
(lp4036
S'session_file'
p4037
asbag49
(g70
g51
NtRp4038
(dp4039
g54
(dp4040
g81
g82
ssg63
g4029
sg56
(lp4041
S':'
asbag49
(g70
g51
NtRp4042
(dp4043
g54
(dp4044
sg63
g4029
sg56
(lp4045
g49
(g50
g51
NtRp4046
(dp4047
g54
(dp4048
g62
I5
ssg63
g4042
sg56
(lp4049
S"<open file 'D:\\Dise\xf1o Web\\Proyectos\\Parleyweb\\web2py\\applications\\parleyweb\\sessions\\127.0.0.1-2049810e-c086-402c-857f-06991c56216c', mode 'rb+' at 0x06C36A88>"
p4050
asbasbasbag49
(g65
g51
NtRp4051
(dp4052
g54
(dp4053
sg63
g3147
sg56
(lp4054
g49
(g70
g51
NtRp4055
(dp4056
g54
(dp4057
g74
g75
ssg63
g4051
sg56
(lp4058
S'session_filename'
p4059
asbag49
(g70
g51
NtRp4060
(dp4061
g54
(dp4062
g81
g82
ssg63
g4051
sg56
(lp4063
S':'
asbag49
(g70
g51
NtRp4064
(dp4065
g54
(dp4066
sg63
g4051
sg56
(lp4067
g49
(g50
g51
NtRp4068
(dp4069
g54
(dp4070
g62
I5
ssg63
g4064
sg56
(lp4071
S'D:\\Dise\xf1o Web\\Proyectos\\Parleyweb\\web2py\\applications\\parleyweb\\sessions\\127.0.0.1-2049810e-c086-402c-857f-06991c56216c'
p4072
asbasbasbag49
(g65
g51
NtRp4073
(dp4074
g54
(dp4075
sg63
g3147
sg56
(lp4076
g49
(g70
g51
NtRp4077
(dp4078
g54
(dp4079
g74
g75
ssg63
g4073
sg56
(lp4080
S'session_id'
p4081
asbag49
(g70
g51
NtRp4082
(dp4083
g54
(dp4084
g81
g82
ssg63
g4073
sg56
(lp4085
S':'
asbag49
(g70
g51
NtRp4086
(dp4087
g54
(dp4088
sg63
g4073
sg56
(lp4089
g49
(g50
g51
NtRp4090
(dp4091
g54
(dp4092
g62
I5
ssg63
g4086
sg56
(lp4093
S'127.0.0.1-2049810e-c086-402c-857f-06991c56216c'
p4094
asbasbasbag49
(g65
g51
NtRp4095
(dp4096
g54
(dp4097
sg63
g3147
sg56
(lp4098
g49
(g70
g51
NtRp4099
(dp4100
g54
(dp4101
g74
g75
ssg63
g4095
sg56
(lp4102
S'session_id_name'
p4103
asbag49
(g70
g51
NtRp4104
(dp4105
g54
(dp4106
g81
g82
ssg63
g4095
sg56
(lp4107
S':'
asbag49
(g70
g51
NtRp4108
(dp4109
g54
(dp4110
sg63
g4095
sg56
(lp4111
g49
(g50
g51
NtRp4112
(dp4113
g54
(dp4114
g62
I5
ssg63
g4108
sg56
(lp4115
g3204
asbasbasbag49
(g65
g51
NtRp4116
(dp4117
g54
(dp4118
sg63
g3147
sg56
(lp4119
g49
(g70
g51
NtRp4120
(dp4121
g54
(dp4122
g74
g75
ssg63
g4116
sg56
(lp4123
S'session_locked'
p4124
asbag49
(g70
g51
NtRp4125
(dp4126
g54
(dp4127
g81
g82
ssg63
g4116
sg56
(lp4128
S':'
asbag49
(g70
g51
NtRp4129
(dp4130
g54
(dp4131
sg63
g4116
sg56
(lp4132
g49
(g50
g51
NtRp4133
(dp4134
g54
(dp4135
g62
I5
ssg63
g4129
sg56
(lp4136
g1752
asbasbasbag49
(g65
g51
NtRp4137
(dp4138
g54
(dp4139
sg63
g3147
sg56
(lp4140
g49
(g70
g51
NtRp4141
(dp4142
g54
(dp4143
g74
g75
ssg63
g4137
sg56
(lp4144
S'session_new'
p4145
asbag49
(g70
g51
NtRp4146
(dp4147
g54
(dp4148
g81
g82
ssg63
g4137
sg56
(lp4149
S':'
asbag49
(g70
g51
NtRp4150
(dp4151
g54
(dp4152
sg63
g4137
sg56
(lp4153
g49
(g50
g51
NtRp4154
(dp4155
g54
(dp4156
g62
I5
ssg63
g4150
sg56
(lp4157
g92
asbasbasbag49
(g65
g51
NtRp4158
(dp4159
g54
(dp4160
sg63
g3147
sg56
(lp4161
g49
(g70
g51
NtRp4162
(dp4163
g54
(dp4164
g74
g75
ssg63
g4158
sg56
(lp4165
S'status'
p4166
asbag49
(g70
g51
NtRp4167
(dp4168
g54
(dp4169
g81
g82
ssg63
g4158
sg56
(lp4170
S':'
asbag49
(g70
g51
NtRp4171
(dp4172
g54
(dp4173
sg63
g4158
sg56
(lp4174
g49
(g50
g51
NtRp4175
(dp4176
g54
(dp4177
g62
I5
ssg63
g4171
sg56
(lp4178
S'200'
p4179
asbasbasbag49
(g65
g51
NtRp4180
(dp4181
g54
(dp4182
sg63
g3147
sg56
(lp4183
g49
(g70
g51
NtRp4184
(dp4185
g54
(dp4186
g74
g75
ssg63
g4180
sg56
(lp4187
S'subtitle'
p4188
asbag49
(g70
g51
NtRp4189
(dp4190
g54
(dp4191
g81
g82
ssg63
g4180
sg56
(lp4192
S':'
asbag49
(g70
g51
NtRp4193
(dp4194
g54
(dp4195
sg63
g4180
sg56
(lp4196
g49
(g50
g51
NtRp4197
(dp4198
g54
(dp4199
g62
I5
ssg63
g4193
sg56
(lp4200
g3826
(S's\t\x00\x00\x00Adaptame!'
tRp4201
asbasbasbag49
(g65
g51
NtRp4202
(dp4203
g54
(dp4204
sg63
g3147
sg56
(lp4205
g49
(g70
g51
NtRp4206
(dp4207
g54
(dp4208
g74
g75
ssg63
g4202
sg56
(lp4209
S'title'
p4210
asbag49
(g70
g51
NtRp4211
(dp4212
g54
(dp4213
g81
g82
ssg63
g4202
sg56
(lp4214
S':'
asbag49
(g70
g51
NtRp4215
(dp4216
g54
(dp4217
sg63
g4202
sg56
(lp4218
g49
(g50
g51
NtRp4219
(dp4220
g54
(dp4221
g62
I5
ssg63
g4215
sg56
(lp4222
S'Parleyweb'
p4223
asbasbasbag49
(g65
g51
NtRp4224
(dp4225
g54
(dp4226
sg63
g3147
sg56
(lp4227
g49
(g70
g51
NtRp4228
(dp4229
g54
(dp4230
g74
g75
ssg63
g4224
sg56
(lp4231
g2416
asbag49
(g70
g51
NtRp4232
(dp4233
g54
(dp4234
g81
g82
ssg63
g4224
sg56
(lp4235
S':'
asbag49
(g70
g51
NtRp4236
(dp4237
g54
(dp4238
sg63
g4224
sg56
(lp4239
g49
(g50
g51
NtRp4240
(dp4241
g54
(dp4242
g62
I5
ssg63
g4236
sg56
(lp4243
g2429
asbasbasbag49
(g65
g51
NtRp4244
(dp4245
g54
(dp4246
sg63
g3147
sg56
(lp4247
g49
(g70
g51
NtRp4248
(dp4249
g54
(dp4250
g74
g75
ssg63
g4244
sg56
(lp4251
S'view'
p4252
asbag49
(g70
g51
NtRp4253
(dp4254
g54
(dp4255
g81
g82
ssg63
g4244
sg56
(lp4256
S':'
asbag49
(g70
g51
NtRp4257
(dp4258
g54
(dp4259
sg63
g4244
sg56
(lp4260
g49
(g50
g51
NtRp4261
(dp4262
g54
(dp4263
g62
I5
ssg63
g4257
sg56
(lp4264
S'admin/agregar_ejemplo.html'
p4265
asbasbasbasbasbsS'locals'
p4266
(dp4267
S'self'
p4268
S"<Row {'adjetivo': None, 'sustantivo': None, 'upd...lete_record': <function <lambda> at 0x06C9E5B0>}>"
p4269
sS'm'
S'None'
p4270
sS'key'
p4271
S"'tipo'"
p4272
sssS'traceback'
p4273
S'Traceback (most recent call last):\n  File "gluon/restricted.py", line 205, in restricted\n  File "D:\\Dise\xf1o Web\\Proyectos\\Parleyweb\\web2py\\applications\\parleyweb\\views\\admin/agregar_ejemplo.html", line 104, in <module>\n  File "gluon/dal.py", line 5657, in __getattr__\n  File "gluon/dal.py", line 5648, in __getitem__\nKeyError: \'tipo\'\n'
p4274
s.