(dp1
S'output'
p2
S"<class 'sqlite3.OperationalError'> no such column: False"
p3
sS'layer'
p4
S'D:\\Dise\xf1o Web\\Proyectos\\Parleyweb\\web2py\\applications\\parleyweb\\controllers/admin.py'
p5
sS'code'
p6
S'# coding: utf8\n# intente algo como\ndef index():\n    """\n    Pagina principal de la administracion \n    """\n    form = SQLFORM(db.busqueda, formstyle=\'divs\', _id="buscar_palabra_admin", submit_button=\'Enviar\')\n    if form.accepts(request.vars, session, dbio=False): # metodo para validar las entradas del formulario, dbio=False no guarda en la bases de datos\n        a = db(db.palabras.palabra==request.post_vars.buscar_palabra).select()\n        if not a:\n            session.flash = \'Ingresa nueva palabra\'\n            redirect(URL(\'agregar_palabra\', args=request.post_vars.buscar_palabra))\n            \n        else:\n            response.flash = \'Palabra encontrada\'\n        #if not request.post_vars.buscar_palabra:\n        #response.flash = \'Palabra no encontrada\'\n    #id_palabra = request.vars.buscar_palabra # el id de la palabra cuando se envia el formulario #borrar\n    #palabra_ejemplo = db(db.palabras.id==id_palabra).select(db.palabras.palabra).first()         #borrar\n    ejemplos = db((db.palabras.id==db.palabra_ejemplo.palabra)&(db.ejemplos.id==db.palabra_ejemplo.ejemplo)) # asi se igualan las tablas para las relaciones muchos a muchos\n    return dict(form=form, ejemplos=ejemplos) # llama a la vista con el nombre de la funcion las variables\n        \ndef agregar_palabra():\n    """\n    Se agregan  palabras y se muestran los ultimos 10 registros insertados con los cuales\n    se pueden hacer distintas operaciones\n    """\n    if request.raw_args:\n        db.palabras.palabra.default = request.raw_args\n    db.palabras.palabra.requires = IS_NOT_IN_DB(db,\'palabras.palabra\') # Validacion para  la palabra que se inserte no puede estar ya en la DB\n    agregar = SQLFORM(db.palabras, formstyle="divs", _id="form-agregar", submit_button="Enviar" , _autocomplete="off") # se genera el formulario para la tabla palabras\n    if agregar.accepts(request.vars, session): #metodo para validar las entradas del formulario\n       redirect(URL(\'buscar_ejemplos\', args=request.post_vars.palabra))\n       #response.flash = \'Registro insertado\' # mensajes del sistema\n    elif agregar.errors:  # Metodo usado para cuando se producen errores\n       response.flash = \'Hay un error\'\n    contador_ejemplo = db().select(db.palabra_ejemplo.ALL) # selecionar todos los registro de la tabla palabra_ejemplo para luego contarlos\n    consulta = db().select(db.palabras.ALL, orderby=~db.palabras.id , limitby=(0,9)) # muestra los 10 ultimos registros insertados\n    contador = db(db.palabras.id > 0).count() # cuenta cuantos registros hay en la DB\n    return dict(agregar=agregar, consulta=consulta, contador=contador, contador_ejemplo=contador_ejemplo)\n    \ndef buscar_ejemplos():\n    return dict()\n    \ndef buscar_ejemplos2():\n    id = db(db.palabras.palabra==request.raw_args).select().first()\n    buscar = db(db.ejemplos.ejemplo_de.contains(request.raw_args)).select()\n    return dict(buscar=buscar, id=id)\n\n\ndef agregar_ejemplo():\n    """\n    Se agregan los ejemplos y se muestran los ultimos 10 registros insertados con los cuales\n    se pueden hacer distintas operaciones\n    """\n    agregar_ejemplo = SQLFORM(db.ejemplos, formstyle="divs", _id="form-ejemplo", labels={\'ejemplo_de\':\'\', \'ejemplo_es\':\'\'} )\n    if agregar_ejemplo.accepts(request.vars, session):\n        response.flash = \'Ejemplo agregado\'\n        redirect(URL(\'agregar_ejemplo\'))\n    elif agregar_ejemplo.errors:\n        response.flash="Hay algun error"\n    nombre_fuente = db().select(db.fuentes.ALL)\n    contador_palabra = db().select(db.palabra_ejemplo.ALL) # selecionar todos los registro de la tabla palabra_ejemplo para luego contarlos\n    consulta_ejemplos = db().select(db.ejemplos.ALL, orderby=~db.ejemplos.id, limitby=(0,9)) # muestra los 10 ultimos registros insertados\n    contador2 = db(db.ejemplos.id > 0).count() # cuenta cuantos registros hay en la DB\n    ejemplos = db((db.palabras.id==db.palabra_ejemplo.palabra)&(db.ejemplos.id==db.palabra_ejemplo.ejemplo))\n    #palabras = db(db.palabra_ejemplo.palabra==db.palabras.id)\n    return dict(ejemplos=ejemplos, consulta_ejemplos=consulta_ejemplos, agregar_ejemplo=agregar_ejemplo, contador2=contador2, contador_palabra=contador_palabra, nombre_fuente=nombre_fuente)\ndef agregar_fuente():\n    agregar_fuente = SQLFORM(db.fuentes, formstyle="divs", _id="form-fuentes" )\n    if agregar_fuente.accepts(request.vars, session):\n       response.flash = \'Fuente insertado\'\n    elif agregar_fuente.errors:\n       response.flash = \'Hay un error\'\n    consulta = db().select(db.fuentes.ALL, orderby=~db.fuentes.id , limitby=(0,9)) # muestra los 10 ultimos registros insertados\n    contador = db(db.fuentes.id > 0).count() # cuenta cuantos registros hay en la DB\n    return dict(agregar_fuente=agregar_fuente, consulta=consulta, contador=contador)\n    \ndef agregar_glosario():\n    agregar_glosario = SQLFORM(db.glosario, formstyle="divs", _id="form-glsoario" )\n    if agregar_glosario.accepts(request.vars, session):\n       response.flash = \'Fuente insertado\'\n    elif agregar_glosario.errors:\n       response.flash = \'Hay un error\'\n    consulta = db().select(db.glosario.ALL, orderby=~db.glosario.id , limitby=(0,9)) # muestra los 10 ultimos registros insertados\n    contador = db(db.glosario.id > 0).count() # cuenta cuantos registros hay en la DB\n    return dict(agregar_glosario=agregar_glosario, consulta=consulta, contador=contador)\n    \ndef agregar_palabra_grid():\n    """\n    El grid propocionado por web2py, utilizado para administracion\n    """\n    agregar = SQLFORM.grid(db.worte, _class="table margin-top table-striped")\n    return dict(agregar=agregar)\n\ndef borrar_palabra():# \n    """\n    simplemente carga la vista para ejecutar el Modal\n    """\n    return dict()\n\ndef borrar_palabra2():\n    """\n    Es la accion que borra la palabra y redirecciona al index de admin\n    """\n    db(db.palabras.id == request.raw_args).delete() # borra la palabra de la DB\n    session.flash=\'Registro borrado\' # se usa cuando se redirecciona a otra, y se quiere mostrar el mensaje del sistema\n    redirect(URL(\'agregar_palabra\'))\n \ndef borrar_ejemplo(): \n    """\n    simplemente carga la vista para ejecutar el Modal\n    """\n    return dict()\n\ndef borrar_ejemplo2():\n    """\n    realiza la accion de borrar y redirecciona\n    """\n    db(db.ejemplos.id == request.args(0)).delete() # borra la palabra de la DB\n    session.flash=\'Ejemplo borrado\'\n    redirect(URL(\'agregar_ejemplo\'))\n    \ndef borrar_fuente():# \n    """\n    simplemente carga la vista para ejecutar el Modal\n    """\n    return dict()\n    \ndef borrar_fuente2():\n    """\n    realiza la accion de borrar y redirecciona\n    """\n    db(db.fuentes.id == request.args(0)).delete() # borra la palabra de la DB\n    session.flash=\'Fuente borrada\'\n    redirect(URL(\'agregar_fuente\'))\n\ndef editar_palabra():\n    """\n    Se carga el formulario para editar el registro\n    """\n    record = db.palabras(request.args(0)) # Seleciona el registro de la DB con el primer argumentro pasado\n    form = SQLFORM(db.palabras, record, formstyle=\'divs\', _class=\'form-inline wellparley\', _id=\'form-editar\') # formulario para actualizar hay que pasarle el registro que se quiere actualizar\n    if form.accepts(request.vars, session):\n       session.flash=\'Palabra editada\' \n       redirect(URL(\'agregar_palabra\'))\n    elif form.errors:\n     response.flash = \'El formulario tiene errores\'\n    return dict(form=form)\n    \n\n    \ndef editar_ejemplo():\n    """\n    carga el formulario para la edicion de el ejemplo, valida y redirecciona\n    """\n    record = db.ejemplos(request.args(0)) # Seleciona el registro de la DB con el primer argumentro pasado\n    form = SQLFORM(db.ejemplos, record, formstyle=\'divs\', _class=\'form-inline wellparley\', _id=\'form-editar-ejemplo\')\n    if form.accepts(request.vars):\n       session.flash=\'Ejemplo editado\' \n       redirect(URL(\'agregar_ejemplo\'))\n    elif form.errors:\n       response.flash = \'El formulario tiene errores\'\n    return dict(form=form)\n    \ndef editar_fuente():\n    """\n    carga el formulario para la edicion de el ejemplo, valida y redirecciona\n    """\n    record = db.fuentes(request.args(0)) # Seleciona el registro de la DB con el primer argumentro pasado\n    form = SQLFORM(db.fuentes, record, formstyle=\'divs\', _class=\'form-inline wellparley\', _id=\'form-editar-fuente\')\n    if form.accepts(request.vars):\n       session.flash=\'Fuente editada\' \n       redirect(URL(\'agregar_fuente\'))\n    elif form.errors:\n       response.flash = \'form has errors\'\n    return dict(form=form)\n    \ndef relacionar_ejemplo():\n    """\n    Recibe el id de la palabra para guardarlo en\n    DB junto al ejemplo a relacionar, quiere decir que tengo que cargar el un formulario\n    con los campos de la tabla ejemplo, meter las id en variables y luego guardarlas en las tablas\n    correspondiente\n    """\n    id_palabra = request.args(0) # Mete en una variable el valor de request.args(0), no es necesario\n    palabra = db(db.palabras.id==id_palabra).select().first() # selecciona el primer registro que se igual al id de la palabra\n    form = SQLFORM(db.ejemplos, labels={\'ejemplo_de\':\'\', \'ejemplo_es\':\'\'}) # para ingresar en la db debe tener el metodo form.accepts\n    if form.accepts(request.vars, session):\n        id_ejemplo = db(db.ejemplos.ejemplo_de==request.vars.ejemplo_de).select().first() # mete la consulta en una variable\n        db.palabra_ejemplo.insert(palabra=id_palabra, ejemplo=id_ejemplo.id) # inserta en la DB los id de los registro selecionados, estos es para las relaciones muchos a muschos\n        session.flash = \'Ejemplo Relacionado\'\n        redirect(URL(\'agregar_palabra\'))\n    elif form.errors:\n        response.flash = \'Mira otra vez\'\n    return dict(palabra=palabra, form=form,)\n    \ndef relacionar_palabra(): #Redisenar \n    """\n    Recibe el id de el ejemplo para guardarlo en\n    DB junto a la palabra a relacionar, quiere decir que tengo que cargar el un formulario\n    con los campos de la tabla palabra, meter las id en variables y luego guardarlas en las tablas\n    correspondiente *********importante cuando se relacione la palabra hay que traer todos los campos de ingresar palabra cuando la palabra no se encuentra en DB\n    *********** redisenar no sirve este codigo\n    """\n    id_ejemplo = request.args(0)\n    #form=FORM(\'Palabra:\',\n              #INPUT(_name=\'palabra\', requires=IS_NOT_EMPTY()),\n              #INPUT(_type=\'submit\'))\n    ejemplo = db(db.ejemplos.id==id_ejemplo).select().first()\n    form = SQLFORM(db.autocompletar_palabra, _autocomplete="off")\n    if form.accepts(request.vars, session, dbio=False):\n        consulta = db(db.palabras.palabra==request.vars.palabra).select().first() # se busca si la palabra ya esta en la DB\n        #igualar = db((db.palabras.id==db.palabra_ejemplo.palabra)&(db.ejemplos.id==db.palabra_ejemplo.ejemplo))\n        #selecionar = igualar(db.palabras.palabra==request.vars.palabra).select(db.palabra_ejemplo.ALL)\n        #consulta = selecionar\n        if consulta: # si la palabra esta ya en la db, solo hay que ingresar ambos id de la palabra y el ejemplo en la tabla palabra_ejemplo\n            consulta_id_palabra = db((db.palabra_ejemplo.palabra==consulta.id)&(db.palabra_ejemplo.ejemplo==request.args(0))).select().first() # consulta si el id de la palabra ya se encuentra en la db\n            if consulta_id_palabra:\n                session.flash="Palabra ya relacionada con el ejemplo"\n                redirect(URL(\'admin\', \'agregar_ejemplo\'))\n            else:\n                db.palabra_ejemplo.insert(palabra=consulta.id, ejemplo=request.args(0))\n                session.flash = \'Palabra relacionada\'\n                redirect(URL(\'admin\', \'agregar_ejemplo\'))\n        else:\n            db.palabras.insert(palabra=request.vars.palabra)\n            ultimo_registro = db(db.palabras.id > 0).select().last()\n            db.palabra_ejemplo.insert(palabra=ultimo_registro.id, ejemplo=request.args(0))\n            session.flash = \'Palabra relacionada y agregada\'\n            redirect(URL(\'admin\', \'agregar_ejemplo\'))\n            \n    elif form.errors:\n        response.flash = \'Mira otra vez\'\n    return dict(ejemplo=ejemplo, form=form)    \n    \ndef relacionar():\n    for i in request.post_vars.relacionar:\n        db.palabra_ejemplo.insert(palabra=request.post_vars.id_palabra, ejemplo=i)\n    db((db.palabra_ejemplo.ejemplo==0) | (db.palabra_ejemplo==None)).delete()\n    tabla = crud.select(db.palabra_ejemplo)\n    return dict(tabla=tabla)\n    \n   \n    \n    \n    \n    \n    \n    \n    \n    \n    \n    \n    \n    \n    \n    \n    \n\nresponse._vars=response._caller(relacionar)\n'
p7
sS'snapshot'
p8
(dp9
S'exception'
p10
(dp11
S'__hash__'
p12
S"<method-wrapper '__hash__' of OperationalError object at 0x0727E788>"
p13
sS'__module__'
p14
S"'sqlite3'"
p15
sS'__reduce_ex__'
p16
S'<built-in method __reduce_ex__ of OperationalError object at 0x0727E788>'
p17
sS'__getslice__'
p18
S"<method-wrapper '__getslice__' of OperationalError object at 0x0727E788>"
p19
sS'__getitem__'
p20
S"<method-wrapper '__getitem__' of OperationalError object at 0x0727E788>"
p21
sS'__setstate__'
p22
S'<built-in method __setstate__ of OperationalError object at 0x0727E788>'
p23
sS'__reduce__'
p24
S'<built-in method __reduce__ of OperationalError object at 0x0727E788>'
p25
sS'__str__'
p26
S"<method-wrapper '__str__' of OperationalError object at 0x0727E788>"
p27
sS'args'
p28
S"('no such column: False',)"
p29
sS'__getattribute__'
p30
S"<method-wrapper '__getattribute__' of OperationalError object at 0x0727E788>"
p31
sS'__class__'
p32
S"<class 'sqlite3.OperationalError'>"
p33
sS'__delattr__'
p34
S"<method-wrapper '__delattr__' of OperationalError object at 0x0727E788>"
p35
sS'__repr__'
p36
S"<method-wrapper '__repr__' of OperationalError object at 0x0727E788>"
p37
sS'__setattr__'
p38
S"<method-wrapper '__setattr__' of OperationalError object at 0x0727E788>"
p39
sS'__dict__'
p40
S'{}'
p41
sS'__weakref__'
p42
S'None'
p43
sS'__doc__'
p44
S'None'
p45
sS'__init__'
p46
S"<method-wrapper '__init__' of OperationalError object at 0x0727E788>"
p47
sS'__new__'
p48
S'<built-in method __new__ of type object at 0x1E1CCCB0>'
p49
ssS'evalue'
p50
S'no such column: False'
p51
sS'request'
p52
ccopy_reg
_reconstructor
p53
(cgluon.html
BEAUTIFY
p54
c__builtin__
object
p55
NtRp56
(dp57
S'attributes'
p58
(dp59
sS'components'
p60
(lp61
g53
(cgluon.html
TABLE
p62
g55
NtRp63
(dp64
g58
(dp65
S'level'
p66
I5
ssS'parent'
p67
Nsg60
(lp68
g53
(cgluon.html
TR
p69
g55
NtRp70
(dp71
g58
(dp72
sg67
g63
sg60
(lp73
g53
(cgluon.html
TD
p74
g55
NtRp75
(dp76
g58
(dp77
S'_style'
p78
S'font-weight:bold;vertical-align:top'
p79
ssg67
g70
sg60
(lp80
S'ajax'
p81
asbag53
(g74
g55
NtRp82
(dp83
g58
(dp84
S'_valign'
p85
S'top'
p86
ssg67
g70
sg60
(lp87
S':'
asbag53
(g74
g55
NtRp88
(dp89
g58
(dp90
sg67
g70
sg60
(lp91
g53
(g54
g55
NtRp92
(dp93
g58
(dp94
g66
I5
ssg67
g88
sg60
(lp95
S'False'
p96
asbasbasbag53
(g69
g55
NtRp97
(dp98
g58
(dp99
sg67
g63
sg60
(lp100
g53
(g74
g55
NtRp101
(dp102
g58
(dp103
g78
g79
ssg67
g97
sg60
(lp104
S'application'
p105
asbag53
(g74
g55
NtRp106
(dp107
g58
(dp108
g85
g86
ssg67
g97
sg60
(lp109
S':'
asbag53
(g74
g55
NtRp110
(dp111
g58
(dp112
sg67
g97
sg60
(lp113
g53
(g54
g55
NtRp114
(dp115
g58
(dp116
g66
I5
ssg67
g110
sg60
(lp117
S'parleyweb'
p118
asbasbasbag53
(g69
g55
NtRp119
(dp120
g58
(dp121
sg67
g63
sg60
(lp122
g53
(g74
g55
NtRp123
(dp124
g58
(dp125
g78
g79
ssg67
g119
sg60
(lp126
S'body'
p127
asbag53
(g74
g55
NtRp128
(dp129
g58
(dp130
g85
g86
ssg67
g119
sg60
(lp131
S':'
asbag53
(g74
g55
NtRp132
(dp133
g58
(dp134
sg67
g119
sg60
(lp135
g53
(g54
g55
NtRp136
(dp137
g58
(dp138
g66
I5
ssg67
g132
sg60
(lp139
S"<open file '<fdopen>', mode 'w+b' at 0x0739D2A8>"
p140
asbasbasbag53
(g69
g55
NtRp141
(dp142
g58
(dp143
sg67
g63
sg60
(lp144
g53
(g74
g55
NtRp145
(dp146
g58
(dp147
g78
g79
ssg67
g141
sg60
(lp148
S'client'
p149
asbag53
(g74
g55
NtRp150
(dp151
g58
(dp152
g85
g86
ssg67
g141
sg60
(lp153
S':'
asbag53
(g74
g55
NtRp154
(dp155
g58
(dp156
sg67
g141
sg60
(lp157
g53
(g54
g55
NtRp158
(dp159
g58
(dp160
g66
I5
ssg67
g154
sg60
(lp161
S'127.0.0.1'
p162
asbasbasbag53
(g69
g55
NtRp163
(dp164
g58
(dp165
sg67
g63
sg60
(lp166
g53
(g74
g55
NtRp167
(dp168
g58
(dp169
g78
g79
ssg67
g163
sg60
(lp170
S'controller'
p171
asbag53
(g74
g55
NtRp172
(dp173
g58
(dp174
g85
g86
ssg67
g163
sg60
(lp175
S':'
asbag53
(g74
g55
NtRp176
(dp177
g58
(dp178
sg67
g163
sg60
(lp179
g53
(g54
g55
NtRp180
(dp181
g58
(dp182
g66
I5
ssg67
g176
sg60
(lp183
S'admin'
p184
asbasbasbag53
(g69
g55
NtRp185
(dp186
g58
(dp187
sg67
g63
sg60
(lp188
g53
(g74
g55
NtRp189
(dp190
g58
(dp191
g78
g79
ssg67
g185
sg60
(lp192
S'cookies'
p193
asbag53
(g74
g55
NtRp194
(dp195
g58
(dp196
g85
g86
ssg67
g185
sg60
(lp197
S':'
asbag53
(g74
g55
NtRp198
(dp199
g58
(dp200
sg67
g185
sg60
(lp201
g53
(g54
g55
NtRp202
(dp203
g58
(dp204
g66
I5
ssg67
g198
sg60
(lp205
g53
(g62
g55
NtRp206
(dp207
g58
(dp208
g66
I4
ssg67
Nsg60
(lp209
g53
(g69
g55
NtRp210
(dp211
g58
(dp212
sg67
g206
sg60
(lp213
g53
(g74
g55
NtRp214
(dp215
g58
(dp216
g78
g79
ssg67
g210
sg60
(lp217
S'session_id_admin'
p218
asbag53
(g74
g55
NtRp219
(dp220
g58
(dp221
g85
g86
ssg67
g210
sg60
(lp222
S':'
asbag53
(g74
g55
NtRp223
(dp224
g58
(dp225
sg67
g210
sg60
(lp226
g53
(g54
g55
NtRp227
(dp228
g58
(dp229
g66
I4
ssg67
g223
sg60
(lp230
g53
(g62
g55
NtRp231
(dp232
g58
(dp233
g66
I3
ssg67
Nsg60
(lp234
g53
(g69
g55
NtRp235
(dp236
g58
(dp237
sg67
g231
sg60
(lp238
g53
(g74
g55
NtRp239
(dp240
g58
(dp241
g78
g79
ssg67
g235
sg60
(lp242
S'comment'
p243
asbag53
(g74
g55
NtRp244
(dp245
g58
(dp246
g85
g86
ssg67
g235
sg60
(lp247
S':'
asbag53
(g74
g55
NtRp248
(dp249
g58
(dp250
sg67
g235
sg60
(lp251
g53
(g54
g55
NtRp252
(dp253
g58
(dp254
g66
I3
ssg67
g248
sg60
(lp255
S''
asbasbasbag53
(g69
g55
NtRp256
(dp257
g58
(dp258
sg67
g231
sg60
(lp259
g53
(g74
g55
NtRp260
(dp261
g58
(dp262
g78
g79
ssg67
g256
sg60
(lp263
S'domain'
p264
asbag53
(g74
g55
NtRp265
(dp266
g58
(dp267
g85
g86
ssg67
g256
sg60
(lp268
S':'
asbag53
(g74
g55
NtRp269
(dp270
g58
(dp271
sg67
g256
sg60
(lp272
g53
(g54
g55
NtRp273
(dp274
g58
(dp275
g66
I3
ssg67
g269
sg60
(lp276
S''
asbasbasbag53
(g69
g55
NtRp277
(dp278
g58
(dp279
sg67
g231
sg60
(lp280
g53
(g74
g55
NtRp281
(dp282
g58
(dp283
g78
g79
ssg67
g277
sg60
(lp284
S'expires'
p285
asbag53
(g74
g55
NtRp286
(dp287
g58
(dp288
g85
g86
ssg67
g277
sg60
(lp289
S':'
asbag53
(g74
g55
NtRp290
(dp291
g58
(dp292
sg67
g277
sg60
(lp293
g53
(g54
g55
NtRp294
(dp295
g58
(dp296
g66
I3
ssg67
g290
sg60
(lp297
S''
asbasbasbag53
(g69
g55
NtRp298
(dp299
g58
(dp300
sg67
g231
sg60
(lp301
g53
(g74
g55
NtRp302
(dp303
g58
(dp304
g78
g79
ssg67
g298
sg60
(lp305
S'max-age'
p306
asbag53
(g74
g55
NtRp307
(dp308
g58
(dp309
g85
g86
ssg67
g298
sg60
(lp310
S':'
asbag53
(g74
g55
NtRp311
(dp312
g58
(dp313
sg67
g298
sg60
(lp314
g53
(g54
g55
NtRp315
(dp316
g58
(dp317
g66
I3
ssg67
g311
sg60
(lp318
S''
asbasbasbag53
(g69
g55
NtRp319
(dp320
g58
(dp321
sg67
g231
sg60
(lp322
g53
(g74
g55
NtRp323
(dp324
g58
(dp325
g78
g79
ssg67
g319
sg60
(lp326
S'path'
p327
asbag53
(g74
g55
NtRp328
(dp329
g58
(dp330
g85
g86
ssg67
g319
sg60
(lp331
S':'
asbag53
(g74
g55
NtRp332
(dp333
g58
(dp334
sg67
g319
sg60
(lp335
g53
(g54
g55
NtRp336
(dp337
g58
(dp338
g66
I3
ssg67
g332
sg60
(lp339
S''
asbasbasbag53
(g69
g55
NtRp340
(dp341
g58
(dp342
sg67
g231
sg60
(lp343
g53
(g74
g55
NtRp344
(dp345
g58
(dp346
g78
g79
ssg67
g340
sg60
(lp347
S'secure'
p348
asbag53
(g74
g55
NtRp349
(dp350
g58
(dp351
g85
g86
ssg67
g340
sg60
(lp352
S':'
asbag53
(g74
g55
NtRp353
(dp354
g58
(dp355
sg67
g340
sg60
(lp356
g53
(g54
g55
NtRp357
(dp358
g58
(dp359
g66
I3
ssg67
g353
sg60
(lp360
S''
asbasbasbag53
(g69
g55
NtRp361
(dp362
g58
(dp363
sg67
g231
sg60
(lp364
g53
(g74
g55
NtRp365
(dp366
g58
(dp367
g78
g79
ssg67
g361
sg60
(lp368
S'version'
p369
asbag53
(g74
g55
NtRp370
(dp371
g58
(dp372
g85
g86
ssg67
g361
sg60
(lp373
S':'
asbag53
(g74
g55
NtRp374
(dp375
g58
(dp376
sg67
g361
sg60
(lp377
g53
(g54
g55
NtRp378
(dp379
g58
(dp380
g66
I3
ssg67
g374
sg60
(lp381
S''
asbasbasbasbasbasbasbag53
(g69
g55
NtRp382
(dp383
g58
(dp384
sg67
g206
sg60
(lp385
g53
(g74
g55
NtRp386
(dp387
g58
(dp388
g78
g79
ssg67
g382
sg60
(lp389
S'session_id_parleyweb'
p390
asbag53
(g74
g55
NtRp391
(dp392
g58
(dp393
g85
g86
ssg67
g382
sg60
(lp394
S':'
asbag53
(g74
g55
NtRp395
(dp396
g58
(dp397
sg67
g382
sg60
(lp398
g53
(g54
g55
NtRp399
(dp400
g58
(dp401
g66
I4
ssg67
g395
sg60
(lp402
g53
(g62
g55
NtRp403
(dp404
g58
(dp405
g66
I3
ssg67
Nsg60
(lp406
g53
(g69
g55
NtRp407
(dp408
g58
(dp409
sg67
g403
sg60
(lp410
g53
(g74
g55
NtRp411
(dp412
g58
(dp413
g78
g79
ssg67
g407
sg60
(lp414
g243
asbag53
(g74
g55
NtRp415
(dp416
g58
(dp417
g85
g86
ssg67
g407
sg60
(lp418
S':'
asbag53
(g74
g55
NtRp419
(dp420
g58
(dp421
sg67
g407
sg60
(lp422
g53
(g54
g55
NtRp423
(dp424
g58
(dp425
g66
I3
ssg67
g419
sg60
(lp426
S''
asbasbasbag53
(g69
g55
NtRp427
(dp428
g58
(dp429
sg67
g403
sg60
(lp430
g53
(g74
g55
NtRp431
(dp432
g58
(dp433
g78
g79
ssg67
g427
sg60
(lp434
g264
asbag53
(g74
g55
NtRp435
(dp436
g58
(dp437
g85
g86
ssg67
g427
sg60
(lp438
S':'
asbag53
(g74
g55
NtRp439
(dp440
g58
(dp441
sg67
g427
sg60
(lp442
g53
(g54
g55
NtRp443
(dp444
g58
(dp445
g66
I3
ssg67
g439
sg60
(lp446
S''
asbasbasbag53
(g69
g55
NtRp447
(dp448
g58
(dp449
sg67
g403
sg60
(lp450
g53
(g74
g55
NtRp451
(dp452
g58
(dp453
g78
g79
ssg67
g447
sg60
(lp454
g285
asbag53
(g74
g55
NtRp455
(dp456
g58
(dp457
g85
g86
ssg67
g447
sg60
(lp458
S':'
asbag53
(g74
g55
NtRp459
(dp460
g58
(dp461
sg67
g447
sg60
(lp462
g53
(g54
g55
NtRp463
(dp464
g58
(dp465
g66
I3
ssg67
g459
sg60
(lp466
S''
asbasbasbag53
(g69
g55
NtRp467
(dp468
g58
(dp469
sg67
g403
sg60
(lp470
g53
(g74
g55
NtRp471
(dp472
g58
(dp473
g78
g79
ssg67
g467
sg60
(lp474
g306
asbag53
(g74
g55
NtRp475
(dp476
g58
(dp477
g85
g86
ssg67
g467
sg60
(lp478
S':'
asbag53
(g74
g55
NtRp479
(dp480
g58
(dp481
sg67
g467
sg60
(lp482
g53
(g54
g55
NtRp483
(dp484
g58
(dp485
g66
I3
ssg67
g479
sg60
(lp486
S''
asbasbasbag53
(g69
g55
NtRp487
(dp488
g58
(dp489
sg67
g403
sg60
(lp490
g53
(g74
g55
NtRp491
(dp492
g58
(dp493
g78
g79
ssg67
g487
sg60
(lp494
g327
asbag53
(g74
g55
NtRp495
(dp496
g58
(dp497
g85
g86
ssg67
g487
sg60
(lp498
S':'
asbag53
(g74
g55
NtRp499
(dp500
g58
(dp501
sg67
g487
sg60
(lp502
g53
(g54
g55
NtRp503
(dp504
g58
(dp505
g66
I3
ssg67
g499
sg60
(lp506
S''
asbasbasbag53
(g69
g55
NtRp507
(dp508
g58
(dp509
sg67
g403
sg60
(lp510
g53
(g74
g55
NtRp511
(dp512
g58
(dp513
g78
g79
ssg67
g507
sg60
(lp514
g348
asbag53
(g74
g55
NtRp515
(dp516
g58
(dp517
g85
g86
ssg67
g507
sg60
(lp518
S':'
asbag53
(g74
g55
NtRp519
(dp520
g58
(dp521
sg67
g507
sg60
(lp522
g53
(g54
g55
NtRp523
(dp524
g58
(dp525
g66
I3
ssg67
g519
sg60
(lp526
S''
asbasbasbag53
(g69
g55
NtRp527
(dp528
g58
(dp529
sg67
g403
sg60
(lp530
g53
(g74
g55
NtRp531
(dp532
g58
(dp533
g78
g79
ssg67
g527
sg60
(lp534
g369
asbag53
(g74
g55
NtRp535
(dp536
g58
(dp537
g85
g86
ssg67
g527
sg60
(lp538
S':'
asbag53
(g74
g55
NtRp539
(dp540
g58
(dp541
sg67
g527
sg60
(lp542
g53
(g54
g55
NtRp543
(dp544
g58
(dp545
g66
I3
ssg67
g539
sg60
(lp546
S''
asbasbasbasbasbasbasbasbasbasbasbag53
(g69
g55
NtRp547
(dp548
g58
(dp549
sg67
g63
sg60
(lp550
g53
(g74
g55
NtRp551
(dp552
g58
(dp553
g78
g79
ssg67
g547
sg60
(lp554
S'env'
p555
asbag53
(g74
g55
NtRp556
(dp557
g58
(dp558
g85
g86
ssg67
g547
sg60
(lp559
S':'
asbag53
(g74
g55
NtRp560
(dp561
g58
(dp562
sg67
g547
sg60
(lp563
g53
(g54
g55
NtRp564
(dp565
g58
(dp566
g66
I5
ssg67
g560
sg60
(lp567
g53
(g62
g55
NtRp568
(dp569
g58
(dp570
g66
I4
ssg67
Nsg60
(lp571
g53
(g69
g55
NtRp572
(dp573
g58
(dp574
sg67
g568
sg60
(lp575
g53
(g74
g55
NtRp576
(dp577
g58
(dp578
g78
g79
ssg67
g572
sg60
(lp579
S'app_folders'
p580
asbag53
(g74
g55
NtRp581
(dp582
g58
(dp583
g85
g86
ssg67
g572
sg60
(lp584
S':'
asbag53
(g74
g55
NtRp585
(dp586
g58
(dp587
sg67
g572
sg60
(lp588
g53
(g54
g55
NtRp589
(dp590
g58
(dp591
g66
I4
ssg67
g585
sg60
(lp592
S"set(['D:\\\\Dise\\xf1o Web\\\\Proyectos\\\\Parleyweb\\\\web2py\\\\applications\\\\parleyweb\\\\', 'D:\\\\Dise\\xf1o Web\\\\Proyectos\\\\Parleyweb\\\\web2py\\\\applications\\\\admin\\\\'])"
p593
asbasbasbag53
(g69
g55
NtRp594
(dp595
g58
(dp596
sg67
g568
sg60
(lp597
g53
(g74
g55
NtRp598
(dp599
g58
(dp600
g78
g79
ssg67
g594
sg60
(lp601
S'applications_parent'
p602
asbag53
(g74
g55
NtRp603
(dp604
g58
(dp605
g85
g86
ssg67
g594
sg60
(lp606
S':'
asbag53
(g74
g55
NtRp607
(dp608
g58
(dp609
sg67
g594
sg60
(lp610
g53
(g54
g55
NtRp611
(dp612
g58
(dp613
g66
I4
ssg67
g607
sg60
(lp614
S'D:\\Dise\xf1o Web\\Proyectos\\Parleyweb\\web2py'
p615
asbasbasbag53
(g69
g55
NtRp616
(dp617
g58
(dp618
sg67
g568
sg60
(lp619
g53
(g74
g55
NtRp620
(dp621
g58
(dp622
g78
g79
ssg67
g616
sg60
(lp623
S'cmd_args'
p624
asbag53
(g74
g55
NtRp625
(dp626
g58
(dp627
g85
g86
ssg67
g616
sg60
(lp628
S':'
asbag53
(g74
g55
NtRp629
(dp630
g58
(dp631
sg67
g616
sg60
(lp632
g53
(g54
g55
NtRp633
(dp634
g58
(dp635
g66
I4
ssg67
g629
sg60
(lp636
g53
(g62
g55
NtRp637
(dp638
g58
(dp639
g66
I3
ssg67
Nsg60
(lp640
sbasbasbasbag53
(g69
g55
NtRp641
(dp642
g58
(dp643
sg67
g568
sg60
(lp644
g53
(g74
g55
NtRp645
(dp646
g58
(dp647
g78
g79
ssg67
g641
sg60
(lp648
S'cmd_options'
p649
asbag53
(g74
g55
NtRp650
(dp651
g58
(dp652
g85
g86
ssg67
g641
sg60
(lp653
S':'
asbag53
(g74
g55
NtRp654
(dp655
g58
(dp656
sg67
g641
sg60
(lp657
g53
(g54
g55
NtRp658
(dp659
g58
(dp660
g66
I4
ssg67
g654
sg60
(lp661
S"<Values at 0x3185238: {'verbose': False, 'ip': '127.0.0.1', 'shutdown_timeout': 5, 'taskbar': False, 'nocron': False, 'pid_filename': 'httpserver.pid', 'maxthreads': None, 'softcron': False, 'server_name': 'craxsnet-PC', 'bpython': False, 'nogui': False, 'port': 8000, 'extcron': False, 'debuglevel': 30, 'test': None, 'folder': 'D:\\\\Dise\\xf1o Web\\\\Proyectos\\\\Parleyweb\\\\web2py', 'config': '', 'import_models': False, 'winservice': '', 'shell': None, 'run': '', 'log_filename': 'httpserver.log', 'args': [''], 'socket_timeout': 5, 'ssl_ca_certificate': None, 'scheduler': None, 'profiler_filename': None, 'ssl_private_key': '', 'password': '<ask>', 'request_queue_size': 5, 'ssl_certificate': '', 'cronjob': False, 'numthreads': None, 'quiet': False, 'interfaces': None, 'minthreads': None, 'timeout': 10, 'plain': False, 'nobanner': False}>"
p662
asbasbasbag53
(g69
g55
NtRp663
(dp664
g58
(dp665
sg67
g568
sg60
(lp666
g53
(g74
g55
NtRp667
(dp668
g58
(dp669
g78
g79
ssg67
g663
sg60
(lp670
S'content_length'
p671
asbag53
(g74
g55
NtRp672
(dp673
g58
(dp674
g85
g86
ssg67
g663
sg60
(lp675
S':'
asbag53
(g74
g55
NtRp676
(dp677
g58
(dp678
sg67
g663
sg60
(lp679
g53
(g54
g55
NtRp680
(dp681
g58
(dp682
g66
I4
ssg67
g676
sg60
(lp683
S'255'
p684
asbasbasbag53
(g69
g55
NtRp685
(dp686
g58
(dp687
sg67
g568
sg60
(lp688
g53
(g74
g55
NtRp689
(dp690
g58
(dp691
g78
g79
ssg67
g685
sg60
(lp692
S'content_type'
p693
asbag53
(g74
g55
NtRp694
(dp695
g58
(dp696
g85
g86
ssg67
g685
sg60
(lp697
S':'
asbag53
(g74
g55
NtRp698
(dp699
g58
(dp700
sg67
g685
sg60
(lp701
g53
(g54
g55
NtRp702
(dp703
g58
(dp704
g66
I4
ssg67
g698
sg60
(lp705
S'multipart/form-data; boundary=---------------------------276242053721548'
p706
asbasbasbag53
(g69
g55
NtRp707
(dp708
g58
(dp709
sg67
g568
sg60
(lp710
g53
(g74
g55
NtRp711
(dp712
g58
(dp713
g78
g79
ssg67
g707
sg60
(lp714
S'db_sessions'
p715
asbag53
(g74
g55
NtRp716
(dp717
g58
(dp718
g85
g86
ssg67
g707
sg60
(lp719
S':'
asbag53
(g74
g55
NtRp720
(dp721
g58
(dp722
sg67
g707
sg60
(lp723
g53
(g54
g55
NtRp724
(dp725
g58
(dp726
g66
I4
ssg67
g720
sg60
(lp727
S'set([])'
p728
asbasbasbag53
(g69
g55
NtRp729
(dp730
g58
(dp731
sg67
g568
sg60
(lp732
g53
(g74
g55
NtRp733
(dp734
g58
(dp735
g78
g79
ssg67
g729
sg60
(lp736
S'debugging'
p737
asbag53
(g74
g55
NtRp738
(dp739
g58
(dp740
g85
g86
ssg67
g729
sg60
(lp741
S':'
asbag53
(g74
g55
NtRp742
(dp743
g58
(dp744
sg67
g729
sg60
(lp745
g53
(g54
g55
NtRp746
(dp747
g58
(dp748
g66
I4
ssg67
g742
sg60
(lp749
g96
asbasbasbag53
(g69
g55
NtRp750
(dp751
g58
(dp752
sg67
g568
sg60
(lp753
g53
(g74
g55
NtRp754
(dp755
g58
(dp756
g78
g79
ssg67
g750
sg60
(lp757
S'gluon_parent'
p758
asbag53
(g74
g55
NtRp759
(dp760
g58
(dp761
g85
g86
ssg67
g750
sg60
(lp762
S':'
asbag53
(g74
g55
NtRp763
(dp764
g58
(dp765
sg67
g750
sg60
(lp766
g53
(g54
g55
NtRp767
(dp768
g58
(dp769
g66
I4
ssg67
g763
sg60
(lp770
S'D:\\Dise\xf1o Web\\Proyectos\\Parleyweb\\web2py'
p771
asbasbasbag53
(g69
g55
NtRp772
(dp773
g58
(dp774
sg67
g568
sg60
(lp775
g53
(g74
g55
NtRp776
(dp777
g58
(dp778
g78
g79
ssg67
g772
sg60
(lp779
S'http_accept'
p780
asbag53
(g74
g55
NtRp781
(dp782
g58
(dp783
g85
g86
ssg67
g772
sg60
(lp784
S':'
asbag53
(g74
g55
NtRp785
(dp786
g58
(dp787
sg67
g772
sg60
(lp788
g53
(g54
g55
NtRp789
(dp790
g58
(dp791
g66
I4
ssg67
g785
sg60
(lp792
S'text/html,application/xhtml+xml,application/xml;q=0.9,*/*;q=0.8'
p793
asbasbasbag53
(g69
g55
NtRp794
(dp795
g58
(dp796
sg67
g568
sg60
(lp797
g53
(g74
g55
NtRp798
(dp799
g58
(dp800
g78
g79
ssg67
g794
sg60
(lp801
S'http_accept_encoding'
p802
asbag53
(g74
g55
NtRp803
(dp804
g58
(dp805
g85
g86
ssg67
g794
sg60
(lp806
S':'
asbag53
(g74
g55
NtRp807
(dp808
g58
(dp809
sg67
g794
sg60
(lp810
g53
(g54
g55
NtRp811
(dp812
g58
(dp813
g66
I4
ssg67
g807
sg60
(lp814
S'gzip, deflate'
p815
asbasbasbag53
(g69
g55
NtRp816
(dp817
g58
(dp818
sg67
g568
sg60
(lp819
g53
(g74
g55
NtRp820
(dp821
g58
(dp822
g78
g79
ssg67
g816
sg60
(lp823
S'http_accept_language'
p824
asbag53
(g74
g55
NtRp825
(dp826
g58
(dp827
g85
g86
ssg67
g816
sg60
(lp828
S':'
asbag53
(g74
g55
NtRp829
(dp830
g58
(dp831
sg67
g816
sg60
(lp832
g53
(g54
g55
NtRp833
(dp834
g58
(dp835
g66
I4
ssg67
g829
sg60
(lp836
S'es-es,de-de;q=0.8,es;q=0.6,en-us;q=0.4,en;q=0.2'
p837
asbasbasbag53
(g69
g55
NtRp838
(dp839
g58
(dp840
sg67
g568
sg60
(lp841
g53
(g74
g55
NtRp842
(dp843
g58
(dp844
g78
g79
ssg67
g838
sg60
(lp845
S'http_cache_control'
p846
asbag53
(g74
g55
NtRp847
(dp848
g58
(dp849
g85
g86
ssg67
g838
sg60
(lp850
S':'
asbag53
(g74
g55
NtRp851
(dp852
g58
(dp853
sg67
g838
sg60
(lp854
g53
(g54
g55
NtRp855
(dp856
g58
(dp857
g66
I4
ssg67
g851
sg60
(lp858
S'max-age=0'
p859
asbasbasbag53
(g69
g55
NtRp860
(dp861
g58
(dp862
sg67
g568
sg60
(lp863
g53
(g74
g55
NtRp864
(dp865
g58
(dp866
g78
g79
ssg67
g860
sg60
(lp867
S'http_connection'
p868
asbag53
(g74
g55
NtRp869
(dp870
g58
(dp871
g85
g86
ssg67
g860
sg60
(lp872
S':'
asbag53
(g74
g55
NtRp873
(dp874
g58
(dp875
sg67
g860
sg60
(lp876
g53
(g54
g55
NtRp877
(dp878
g58
(dp879
g66
I4
ssg67
g873
sg60
(lp880
S'keep-alive'
p881
asbasbasbag53
(g69
g55
NtRp882
(dp883
g58
(dp884
sg67
g568
sg60
(lp885
g53
(g74
g55
NtRp886
(dp887
g58
(dp888
g78
g79
ssg67
g882
sg60
(lp889
S'http_content_length'
p890
asbag53
(g74
g55
NtRp891
(dp892
g58
(dp893
g85
g86
ssg67
g882
sg60
(lp894
S':'
asbag53
(g74
g55
NtRp895
(dp896
g58
(dp897
sg67
g882
sg60
(lp898
g53
(g54
g55
NtRp899
(dp900
g58
(dp901
g66
I4
ssg67
g895
sg60
(lp902
g684
asbasbasbag53
(g69
g55
NtRp903
(dp904
g58
(dp905
sg67
g568
sg60
(lp906
g53
(g74
g55
NtRp907
(dp908
g58
(dp909
g78
g79
ssg67
g903
sg60
(lp910
S'http_content_type'
p911
asbag53
(g74
g55
NtRp912
(dp913
g58
(dp914
g85
g86
ssg67
g903
sg60
(lp915
S':'
asbag53
(g74
g55
NtRp916
(dp917
g58
(dp918
sg67
g903
sg60
(lp919
g53
(g54
g55
NtRp920
(dp921
g58
(dp922
g66
I4
ssg67
g916
sg60
(lp923
g706
asbasbasbag53
(g69
g55
NtRp924
(dp925
g58
(dp926
sg67
g568
sg60
(lp927
g53
(g74
g55
NtRp928
(dp929
g58
(dp930
g78
g79
ssg67
g924
sg60
(lp931
S'http_cookie'
p932
asbag53
(g74
g55
NtRp933
(dp934
g58
(dp935
g85
g86
ssg67
g924
sg60
(lp936
S':'
asbag53
(g74
g55
NtRp937
(dp938
g58
(dp939
sg67
g924
sg60
(lp940
g53
(g54
g55
NtRp941
(dp942
g58
(dp943
g66
I4
ssg67
g937
sg60
(lp944
S'__utma=96992031.26429765.1325029743.1325029743.1326549329.2; __utmz=96992031.1325029743.1.1.utmcsr=(direct)|utmccn=(direct)|utmcmd=(none); session_id_parleyweb=127.0.0.1-8bc0d624-a7ac-4822-aaf0-ed4b06ce8341; session_id_admin=127.0.0.1-fca687a4-73c3-45ca-8b8b-3788208a9c53'
p945
asbasbasbag53
(g69
g55
NtRp946
(dp947
g58
(dp948
sg67
g568
sg60
(lp949
g53
(g74
g55
NtRp950
(dp951
g58
(dp952
g78
g79
ssg67
g946
sg60
(lp953
S'http_host'
p954
asbag53
(g74
g55
NtRp955
(dp956
g58
(dp957
g85
g86
ssg67
g946
sg60
(lp958
S':'
asbag53
(g74
g55
NtRp959
(dp960
g58
(dp961
sg67
g946
sg60
(lp962
g53
(g54
g55
NtRp963
(dp964
g58
(dp965
g66
I4
ssg67
g959
sg60
(lp966
S'127.0.0.1:8000'
p967
asbasbasbag53
(g69
g55
NtRp968
(dp969
g58
(dp970
sg67
g568
sg60
(lp971
g53
(g74
g55
NtRp972
(dp973
g58
(dp974
g78
g79
ssg67
g968
sg60
(lp975
S'http_referer'
p976
asbag53
(g74
g55
NtRp977
(dp978
g58
(dp979
g85
g86
ssg67
g968
sg60
(lp980
S':'
asbag53
(g74
g55
NtRp981
(dp982
g58
(dp983
sg67
g968
sg60
(lp984
g53
(g54
g55
NtRp985
(dp986
g58
(dp987
g66
I4
ssg67
g981
sg60
(lp988
S'http://127.0.0.1:8000/parleyweb/admin/buscar_ejemplos2/%C3%B6'
p989
asbasbasbag53
(g69
g55
NtRp990
(dp991
g58
(dp992
sg67
g568
sg60
(lp993
g53
(g74
g55
NtRp994
(dp995
g58
(dp996
g78
g79
ssg67
g990
sg60
(lp997
S'http_user_agent'
p998
asbag53
(g74
g55
NtRp999
(dp1000
g58
(dp1001
g85
g86
ssg67
g990
sg60
(lp1002
S':'
asbag53
(g74
g55
NtRp1003
(dp1004
g58
(dp1005
sg67
g990
sg60
(lp1006
g53
(g54
g55
NtRp1007
(dp1008
g58
(dp1009
g66
I4
ssg67
g1003
sg60
(lp1010
S'Mozilla/5.0 (Windows NT 6.1; WOW64; rv:10.0.2) Gecko/20100101 Firefox/10.0.2'
p1011
asbasbasbag53
(g69
g55
NtRp1012
(dp1013
g58
(dp1014
sg67
g568
sg60
(lp1015
g53
(g74
g55
NtRp1016
(dp1017
g58
(dp1018
g78
g79
ssg67
g1012
sg60
(lp1019
S'is_jython'
p1020
asbag53
(g74
g55
NtRp1021
(dp1022
g58
(dp1023
g85
g86
ssg67
g1012
sg60
(lp1024
S':'
asbag53
(g74
g55
NtRp1025
(dp1026
g58
(dp1027
sg67
g1012
sg60
(lp1028
g53
(g54
g55
NtRp1029
(dp1030
g58
(dp1031
g66
I4
ssg67
g1025
sg60
(lp1032
g96
asbasbasbag53
(g69
g55
NtRp1033
(dp1034
g58
(dp1035
sg67
g568
sg60
(lp1036
g53
(g74
g55
NtRp1037
(dp1038
g58
(dp1039
g78
g79
ssg67
g1033
sg60
(lp1040
S'is_pypy'
p1041
asbag53
(g74
g55
NtRp1042
(dp1043
g58
(dp1044
g85
g86
ssg67
g1033
sg60
(lp1045
S':'
asbag53
(g74
g55
NtRp1046
(dp1047
g58
(dp1048
sg67
g1033
sg60
(lp1049
g53
(g54
g55
NtRp1050
(dp1051
g58
(dp1052
g66
I4
ssg67
g1046
sg60
(lp1053
g96
asbasbasbag53
(g69
g55
NtRp1054
(dp1055
g58
(dp1056
sg67
g568
sg60
(lp1057
g53
(g74
g55
NtRp1058
(dp1059
g58
(dp1060
g78
g79
ssg67
g1054
sg60
(lp1061
S'path_info'
p1062
asbag53
(g74
g55
NtRp1063
(dp1064
g58
(dp1065
g85
g86
ssg67
g1054
sg60
(lp1066
S':'
asbag53
(g74
g55
NtRp1067
(dp1068
g58
(dp1069
sg67
g1054
sg60
(lp1070
g53
(g54
g55
NtRp1071
(dp1072
g58
(dp1073
g66
I4
ssg67
g1067
sg60
(lp1074
S'/parleyweb/admin/relacionar'
p1075
asbasbasbag53
(g69
g55
NtRp1076
(dp1077
g58
(dp1078
sg67
g568
sg60
(lp1079
g53
(g74
g55
NtRp1080
(dp1081
g58
(dp1082
g78
g79
ssg67
g1076
sg60
(lp1083
S'query_string'
p1084
asbag53
(g74
g55
NtRp1085
(dp1086
g58
(dp1087
g85
g86
ssg67
g1076
sg60
(lp1088
S':'
asbag53
(g74
g55
NtRp1089
(dp1090
g58
(dp1091
sg67
g1076
sg60
(lp1092
g53
(g54
g55
NtRp1093
(dp1094
g58
(dp1095
g66
I4
ssg67
g1089
sg60
(lp1096
S''
asbasbasbag53
(g69
g55
NtRp1097
(dp1098
g58
(dp1099
sg67
g568
sg60
(lp1100
g53
(g74
g55
NtRp1101
(dp1102
g58
(dp1103
g78
g79
ssg67
g1097
sg60
(lp1104
S'remote_addr'
p1105
asbag53
(g74
g55
NtRp1106
(dp1107
g58
(dp1108
g85
g86
ssg67
g1097
sg60
(lp1109
S':'
asbag53
(g74
g55
NtRp1110
(dp1111
g58
(dp1112
sg67
g1097
sg60
(lp1113
g53
(g54
g55
NtRp1114
(dp1115
g58
(dp1116
g66
I4
ssg67
g1110
sg60
(lp1117
g162
asbasbasbag53
(g69
g55
NtRp1118
(dp1119
g58
(dp1120
sg67
g568
sg60
(lp1121
g53
(g74
g55
NtRp1122
(dp1123
g58
(dp1124
g78
g79
ssg67
g1118
sg60
(lp1125
S'remote_port'
p1126
asbag53
(g74
g55
NtRp1127
(dp1128
g58
(dp1129
g85
g86
ssg67
g1118
sg60
(lp1130
S':'
asbag53
(g74
g55
NtRp1131
(dp1132
g58
(dp1133
sg67
g1118
sg60
(lp1134
g53
(g54
g55
NtRp1135
(dp1136
g58
(dp1137
g66
I4
ssg67
g1131
sg60
(lp1138
S'50060'
p1139
asbasbasbag53
(g69
g55
NtRp1140
(dp1141
g58
(dp1142
sg67
g568
sg60
(lp1143
g53
(g74
g55
NtRp1144
(dp1145
g58
(dp1146
g78
g79
ssg67
g1140
sg60
(lp1147
S'request_method'
p1148
asbag53
(g74
g55
NtRp1149
(dp1150
g58
(dp1151
g85
g86
ssg67
g1140
sg60
(lp1152
S':'
asbag53
(g74
g55
NtRp1153
(dp1154
g58
(dp1155
sg67
g1140
sg60
(lp1156
g53
(g54
g55
NtRp1157
(dp1158
g58
(dp1159
g66
I4
ssg67
g1153
sg60
(lp1160
S'POST'
p1161
asbasbasbag53
(g69
g55
NtRp1162
(dp1163
g58
(dp1164
sg67
g568
sg60
(lp1165
g53
(g74
g55
NtRp1166
(dp1167
g58
(dp1168
g78
g79
ssg67
g1162
sg60
(lp1169
S'request_uri'
p1170
asbag53
(g74
g55
NtRp1171
(dp1172
g58
(dp1173
g85
g86
ssg67
g1162
sg60
(lp1174
S':'
asbag53
(g74
g55
NtRp1175
(dp1176
g58
(dp1177
sg67
g1162
sg60
(lp1178
g53
(g54
g55
NtRp1179
(dp1180
g58
(dp1181
g66
I4
ssg67
g1175
sg60
(lp1182
g1075
asbasbasbag53
(g69
g55
NtRp1183
(dp1184
g58
(dp1185
sg67
g568
sg60
(lp1186
g53
(g74
g55
NtRp1187
(dp1188
g58
(dp1189
g78
g79
ssg67
g1183
sg60
(lp1190
S'script_name'
p1191
asbag53
(g74
g55
NtRp1192
(dp1193
g58
(dp1194
g85
g86
ssg67
g1183
sg60
(lp1195
S':'
asbag53
(g74
g55
NtRp1196
(dp1197
g58
(dp1198
sg67
g1183
sg60
(lp1199
g53
(g54
g55
NtRp1200
(dp1201
g58
(dp1202
g66
I4
ssg67
g1196
sg60
(lp1203
S''
asbasbasbag53
(g69
g55
NtRp1204
(dp1205
g58
(dp1206
sg67
g568
sg60
(lp1207
g53
(g74
g55
NtRp1208
(dp1209
g58
(dp1210
g78
g79
ssg67
g1204
sg60
(lp1211
S'server_name'
p1212
asbag53
(g74
g55
NtRp1213
(dp1214
g58
(dp1215
g85
g86
ssg67
g1204
sg60
(lp1216
S':'
asbag53
(g74
g55
NtRp1217
(dp1218
g58
(dp1219
sg67
g1204
sg60
(lp1220
g53
(g54
g55
NtRp1221
(dp1222
g58
(dp1223
g66
I4
ssg67
g1217
sg60
(lp1224
S'craxsnet-PC'
p1225
asbasbasbag53
(g69
g55
NtRp1226
(dp1227
g58
(dp1228
sg67
g568
sg60
(lp1229
g53
(g74
g55
NtRp1230
(dp1231
g58
(dp1232
g78
g79
ssg67
g1226
sg60
(lp1233
S'server_port'
p1234
asbag53
(g74
g55
NtRp1235
(dp1236
g58
(dp1237
g85
g86
ssg67
g1226
sg60
(lp1238
S':'
asbag53
(g74
g55
NtRp1239
(dp1240
g58
(dp1241
sg67
g1226
sg60
(lp1242
g53
(g54
g55
NtRp1243
(dp1244
g58
(dp1245
g66
I4
ssg67
g1239
sg60
(lp1246
S'8000'
p1247
asbasbasbag53
(g69
g55
NtRp1248
(dp1249
g58
(dp1250
sg67
g568
sg60
(lp1251
g53
(g74
g55
NtRp1252
(dp1253
g58
(dp1254
g78
g79
ssg67
g1248
sg60
(lp1255
S'server_protocol'
p1256
asbag53
(g74
g55
NtRp1257
(dp1258
g58
(dp1259
g85
g86
ssg67
g1248
sg60
(lp1260
S':'
asbag53
(g74
g55
NtRp1261
(dp1262
g58
(dp1263
sg67
g1248
sg60
(lp1264
g53
(g54
g55
NtRp1265
(dp1266
g58
(dp1267
g66
I4
ssg67
g1261
sg60
(lp1268
S'HTTP/1.1'
p1269
asbasbasbag53
(g69
g55
NtRp1270
(dp1271
g58
(dp1272
sg67
g568
sg60
(lp1273
g53
(g74
g55
NtRp1274
(dp1275
g58
(dp1276
g78
g79
ssg67
g1270
sg60
(lp1277
S'server_software'
p1278
asbag53
(g74
g55
NtRp1279
(dp1280
g58
(dp1281
g85
g86
ssg67
g1270
sg60
(lp1282
S':'
asbag53
(g74
g55
NtRp1283
(dp1284
g58
(dp1285
sg67
g1270
sg60
(lp1286
g53
(g54
g55
NtRp1287
(dp1288
g58
(dp1289
g66
I4
ssg67
g1283
sg60
(lp1290
S'Rocket 1.2.4'
p1291
asbasbasbag53
(g69
g55
NtRp1292
(dp1293
g58
(dp1294
sg67
g568
sg60
(lp1295
g53
(g74
g55
NtRp1296
(dp1297
g58
(dp1298
g78
g79
ssg67
g1292
sg60
(lp1299
S'web2py_crontype'
p1300
asbag53
(g74
g55
NtRp1301
(dp1302
g58
(dp1303
g85
g86
ssg67
g1292
sg60
(lp1304
S':'
asbag53
(g74
g55
NtRp1305
(dp1306
g58
(dp1307
sg67
g1292
sg60
(lp1308
g53
(g54
g55
NtRp1309
(dp1310
g58
(dp1311
g66
I4
ssg67
g1305
sg60
(lp1312
S'hard'
p1313
asbasbasbag53
(g69
g55
NtRp1314
(dp1315
g58
(dp1316
sg67
g568
sg60
(lp1317
g53
(g74
g55
NtRp1318
(dp1319
g58
(dp1320
g78
g79
ssg67
g1314
sg60
(lp1321
S'web2py_original_uri'
p1322
asbag53
(g74
g55
NtRp1323
(dp1324
g58
(dp1325
g85
g86
ssg67
g1314
sg60
(lp1326
S':'
asbag53
(g74
g55
NtRp1327
(dp1328
g58
(dp1329
sg67
g1314
sg60
(lp1330
g53
(g54
g55
NtRp1331
(dp1332
g58
(dp1333
g66
I4
ssg67
g1327
sg60
(lp1334
S'/parleyweb/admin/relacionar'
p1335
asbasbasbag53
(g69
g55
NtRp1336
(dp1337
g58
(dp1338
sg67
g568
sg60
(lp1339
g53
(g74
g55
NtRp1340
(dp1341
g58
(dp1342
g78
g79
ssg67
g1336
sg60
(lp1343
S'web2py_path'
p1344
asbag53
(g74
g55
NtRp1345
(dp1346
g58
(dp1347
g85
g86
ssg67
g1336
sg60
(lp1348
S':'
asbag53
(g74
g55
NtRp1349
(dp1350
g58
(dp1351
sg67
g1336
sg60
(lp1352
g53
(g54
g55
NtRp1353
(dp1354
g58
(dp1355
g66
I4
ssg67
g1349
sg60
(lp1356
g615
asbasbasbag53
(g69
g55
NtRp1357
(dp1358
g58
(dp1359
sg67
g568
sg60
(lp1360
g53
(g74
g55
NtRp1361
(dp1362
g58
(dp1363
g78
g79
ssg67
g1357
sg60
(lp1364
S'web2py_version'
p1365
asbag53
(g74
g55
NtRp1366
(dp1367
g58
(dp1368
g85
g86
ssg67
g1357
sg60
(lp1369
S':'
asbag53
(g74
g55
NtRp1370
(dp1371
g58
(dp1372
sg67
g1357
sg60
(lp1373
g53
(g54
g55
NtRp1374
(dp1375
g58
(dp1376
g66
I4
ssg67
g1370
sg60
(lp1377
g53
(g62
g55
NtRp1378
(dp1379
g58
(dp1380
g66
I3
ssg67
Nsg60
(lp1381
g53
(g69
g55
NtRp1382
(dp1383
g58
(dp1384
sg67
g1378
sg60
(lp1385
g53
(g74
g55
NtRp1386
(dp1387
g58
(dp1388
sg67
g1382
sg60
(lp1389
g53
(g54
g55
NtRp1390
(dp1391
g58
(dp1392
g66
I3
ssg67
g1386
sg60
(lp1393
S'1'
asbasbasbag53
(g69
g55
NtRp1394
(dp1395
g58
(dp1396
sg67
g1378
sg60
(lp1397
g53
(g74
g55
NtRp1398
(dp1399
g58
(dp1400
sg67
g1394
sg60
(lp1401
g53
(g54
g55
NtRp1402
(dp1403
g58
(dp1404
g66
I3
ssg67
g1398
sg60
(lp1405
S'99'
p1406
asbasbasbag53
(g69
g55
NtRp1407
(dp1408
g58
(dp1409
sg67
g1378
sg60
(lp1410
g53
(g74
g55
NtRp1411
(dp1412
g58
(dp1413
sg67
g1407
sg60
(lp1414
g53
(g54
g55
NtRp1415
(dp1416
g58
(dp1417
g66
I3
ssg67
g1411
sg60
(lp1418
S'7'
asbasbasbag53
(g69
g55
NtRp1419
(dp1420
g58
(dp1421
sg67
g1378
sg60
(lp1422
g53
(g74
g55
NtRp1423
(dp1424
g58
(dp1425
sg67
g1419
sg60
(lp1426
g53
(g54
g55
NtRp1427
(dp1428
g58
(dp1429
g66
I3
ssg67
g1423
sg60
(lp1430
S'datetime.datetime(2012, 3, 4, 22, 12, 8)'
p1431
asbasbasbag53
(g69
g55
NtRp1432
(dp1433
g58
(dp1434
sg67
g1378
sg60
(lp1435
g53
(g74
g55
NtRp1436
(dp1437
g58
(dp1438
sg67
g1432
sg60
(lp1439
g53
(g54
g55
NtRp1440
(dp1441
g58
(dp1442
g66
I3
ssg67
g1436
sg60
(lp1443
S'stable'
p1444
asbasbasbasbasbasbasbag53
(g69
g55
NtRp1445
(dp1446
g58
(dp1447
sg67
g568
sg60
(lp1448
g53
(g74
g55
NtRp1449
(dp1450
g58
(dp1451
g78
g79
ssg67
g1445
sg60
(lp1452
S'wsgi_errors'
p1453
asbag53
(g74
g55
NtRp1454
(dp1455
g58
(dp1456
g85
g86
ssg67
g1445
sg60
(lp1457
S':'
asbag53
(g74
g55
NtRp1458
(dp1459
g58
(dp1460
sg67
g1445
sg60
(lp1461
g53
(g54
g55
NtRp1462
(dp1463
g58
(dp1464
g66
I4
ssg67
g1458
sg60
(lp1465
S"<open file '<stderr>', mode 'w' at 0x004200B0>"
p1466
asbasbasbag53
(g69
g55
NtRp1467
(dp1468
g58
(dp1469
sg67
g568
sg60
(lp1470
g53
(g74
g55
NtRp1471
(dp1472
g58
(dp1473
g78
g79
ssg67
g1467
sg60
(lp1474
S'wsgi_file_wrapper'
p1475
asbag53
(g74
g55
NtRp1476
(dp1477
g58
(dp1478
g85
g86
ssg67
g1467
sg60
(lp1479
S':'
asbag53
(g74
g55
NtRp1480
(dp1481
g58
(dp1482
sg67
g1467
sg60
(lp1483
g53
(g54
g55
NtRp1484
(dp1485
g58
(dp1486
g66
I4
ssg67
g1480
sg60
(lp1487
S'<class wsgiref.util.FileWrapper at 0x02FC6390>'
p1488
asbasbasbag53
(g69
g55
NtRp1489
(dp1490
g58
(dp1491
sg67
g568
sg60
(lp1492
g53
(g74
g55
NtRp1493
(dp1494
g58
(dp1495
g78
g79
ssg67
g1489
sg60
(lp1496
S'wsgi_input'
p1497
asbag53
(g74
g55
NtRp1498
(dp1499
g58
(dp1500
g85
g86
ssg67
g1489
sg60
(lp1501
S':'
asbag53
(g74
g55
NtRp1502
(dp1503
g58
(dp1504
sg67
g1489
sg60
(lp1505
g53
(g54
g55
NtRp1506
(dp1507
g58
(dp1508
g66
I4
ssg67
g1502
sg60
(lp1509
S'<socket._fileobject object at 0x067D9BB0>'
p1510
asbasbasbag53
(g69
g55
NtRp1511
(dp1512
g58
(dp1513
sg67
g568
sg60
(lp1514
g53
(g74
g55
NtRp1515
(dp1516
g58
(dp1517
g78
g79
ssg67
g1511
sg60
(lp1518
S'wsgi_multiprocess'
p1519
asbag53
(g74
g55
NtRp1520
(dp1521
g58
(dp1522
g85
g86
ssg67
g1511
sg60
(lp1523
S':'
asbag53
(g74
g55
NtRp1524
(dp1525
g58
(dp1526
sg67
g1511
sg60
(lp1527
g53
(g54
g55
NtRp1528
(dp1529
g58
(dp1530
g66
I4
ssg67
g1524
sg60
(lp1531
g96
asbasbasbag53
(g69
g55
NtRp1532
(dp1533
g58
(dp1534
sg67
g568
sg60
(lp1535
g53
(g74
g55
NtRp1536
(dp1537
g58
(dp1538
g78
g79
ssg67
g1532
sg60
(lp1539
S'wsgi_multithread'
p1540
asbag53
(g74
g55
NtRp1541
(dp1542
g58
(dp1543
g85
g86
ssg67
g1532
sg60
(lp1544
S':'
asbag53
(g74
g55
NtRp1545
(dp1546
g58
(dp1547
sg67
g1532
sg60
(lp1548
g53
(g54
g55
NtRp1549
(dp1550
g58
(dp1551
g66
I4
ssg67
g1545
sg60
(lp1552
S'True'
p1553
asbasbasbag53
(g69
g55
NtRp1554
(dp1555
g58
(dp1556
sg67
g568
sg60
(lp1557
g53
(g74
g55
NtRp1558
(dp1559
g58
(dp1560
g78
g79
ssg67
g1554
sg60
(lp1561
S'wsgi_run_once'
p1562
asbag53
(g74
g55
NtRp1563
(dp1564
g58
(dp1565
g85
g86
ssg67
g1554
sg60
(lp1566
S':'
asbag53
(g74
g55
NtRp1567
(dp1568
g58
(dp1569
sg67
g1554
sg60
(lp1570
g53
(g54
g55
NtRp1571
(dp1572
g58
(dp1573
g66
I4
ssg67
g1567
sg60
(lp1574
g96
asbasbasbag53
(g69
g55
NtRp1575
(dp1576
g58
(dp1577
sg67
g568
sg60
(lp1578
g53
(g74
g55
NtRp1579
(dp1580
g58
(dp1581
g78
g79
ssg67
g1575
sg60
(lp1582
S'wsgi_url_scheme'
p1583
asbag53
(g74
g55
NtRp1584
(dp1585
g58
(dp1586
g85
g86
ssg67
g1575
sg60
(lp1587
S':'
asbag53
(g74
g55
NtRp1588
(dp1589
g58
(dp1590
sg67
g1575
sg60
(lp1591
g53
(g54
g55
NtRp1592
(dp1593
g58
(dp1594
g66
I4
ssg67
g1588
sg60
(lp1595
S'http'
p1596
asbasbasbag53
(g69
g55
NtRp1597
(dp1598
g58
(dp1599
sg67
g568
sg60
(lp1600
g53
(g74
g55
NtRp1601
(dp1602
g58
(dp1603
g78
g79
ssg67
g1597
sg60
(lp1604
S'wsgi_version'
p1605
asbag53
(g74
g55
NtRp1606
(dp1607
g58
(dp1608
g85
g86
ssg67
g1597
sg60
(lp1609
S':'
asbag53
(g74
g55
NtRp1610
(dp1611
g58
(dp1612
sg67
g1597
sg60
(lp1613
g53
(g54
g55
NtRp1614
(dp1615
g58
(dp1616
g66
I4
ssg67
g1610
sg60
(lp1617
g53
(g62
g55
NtRp1618
(dp1619
g58
(dp1620
g66
I3
ssg67
Nsg60
(lp1621
g53
(g69
g55
NtRp1622
(dp1623
g58
(dp1624
sg67
g1618
sg60
(lp1625
g53
(g74
g55
NtRp1626
(dp1627
g58
(dp1628
sg67
g1622
sg60
(lp1629
g53
(g54
g55
NtRp1630
(dp1631
g58
(dp1632
g66
I3
ssg67
g1626
sg60
(lp1633
S'1'
asbasbasbag53
(g69
g55
NtRp1634
(dp1635
g58
(dp1636
sg67
g1618
sg60
(lp1637
g53
(g74
g55
NtRp1638
(dp1639
g58
(dp1640
sg67
g1634
sg60
(lp1641
g53
(g54
g55
NtRp1642
(dp1643
g58
(dp1644
g66
I3
ssg67
g1638
sg60
(lp1645
S'0'
asbasbasbasbasbasbasbasbasbasbasbag53
(g69
g55
NtRp1646
(dp1647
g58
(dp1648
sg67
g63
sg60
(lp1649
g53
(g74
g55
NtRp1650
(dp1651
g58
(dp1652
g78
g79
ssg67
g1646
sg60
(lp1653
S'extension'
p1654
asbag53
(g74
g55
NtRp1655
(dp1656
g58
(dp1657
g85
g86
ssg67
g1646
sg60
(lp1658
S':'
asbag53
(g74
g55
NtRp1659
(dp1660
g58
(dp1661
sg67
g1646
sg60
(lp1662
g53
(g54
g55
NtRp1663
(dp1664
g58
(dp1665
g66
I5
ssg67
g1659
sg60
(lp1666
S'html'
p1667
asbasbasbag53
(g69
g55
NtRp1668
(dp1669
g58
(dp1670
sg67
g63
sg60
(lp1671
g53
(g74
g55
NtRp1672
(dp1673
g58
(dp1674
g78
g79
ssg67
g1668
sg60
(lp1675
S'folder'
p1676
asbag53
(g74
g55
NtRp1677
(dp1678
g58
(dp1679
g85
g86
ssg67
g1668
sg60
(lp1680
S':'
asbag53
(g74
g55
NtRp1681
(dp1682
g58
(dp1683
sg67
g1668
sg60
(lp1684
g53
(g54
g55
NtRp1685
(dp1686
g58
(dp1687
g66
I5
ssg67
g1681
sg60
(lp1688
S'D:\\Dise\xf1o Web\\Proyectos\\Parleyweb\\web2py\\applications\\parleyweb\\'
p1689
asbasbasbag53
(g69
g55
NtRp1690
(dp1691
g58
(dp1692
sg67
g63
sg60
(lp1693
g53
(g74
g55
NtRp1694
(dp1695
g58
(dp1696
g78
g79
ssg67
g1690
sg60
(lp1697
S'function'
p1698
asbag53
(g74
g55
NtRp1699
(dp1700
g58
(dp1701
g85
g86
ssg67
g1690
sg60
(lp1702
S':'
asbag53
(g74
g55
NtRp1703
(dp1704
g58
(dp1705
sg67
g1690
sg60
(lp1706
g53
(g54
g55
NtRp1707
(dp1708
g58
(dp1709
g66
I5
ssg67
g1703
sg60
(lp1710
S'relacionar'
p1711
asbasbasbag53
(g69
g55
NtRp1712
(dp1713
g58
(dp1714
sg67
g63
sg60
(lp1715
g53
(g74
g55
NtRp1716
(dp1717
g58
(dp1718
g78
g79
ssg67
g1712
sg60
(lp1719
S'get_vars'
p1720
asbag53
(g74
g55
NtRp1721
(dp1722
g58
(dp1723
g85
g86
ssg67
g1712
sg60
(lp1724
S':'
asbag53
(g74
g55
NtRp1725
(dp1726
g58
(dp1727
sg67
g1712
sg60
(lp1728
g53
(g54
g55
NtRp1729
(dp1730
g58
(dp1731
g66
I5
ssg67
g1725
sg60
(lp1732
g53
(g62
g55
NtRp1733
(dp1734
g58
(dp1735
g66
I4
ssg67
Nsg60
(lp1736
sbasbasbasbag53
(g69
g55
NtRp1737
(dp1738
g58
(dp1739
sg67
g63
sg60
(lp1740
g53
(g74
g55
NtRp1741
(dp1742
g58
(dp1743
g78
g79
ssg67
g1737
sg60
(lp1744
S'global_settings'
p1745
asbag53
(g74
g55
NtRp1746
(dp1747
g58
(dp1748
g85
g86
ssg67
g1737
sg60
(lp1749
S':'
asbag53
(g74
g55
NtRp1750
(dp1751
g58
(dp1752
sg67
g1737
sg60
(lp1753
g53
(g54
g55
NtRp1754
(dp1755
g58
(dp1756
g66
I5
ssg67
g1750
sg60
(lp1757
g53
(g62
g55
NtRp1758
(dp1759
g58
(dp1760
g66
I4
ssg67
Nsg60
(lp1761
g53
(g69
g55
NtRp1762
(dp1763
g58
(dp1764
sg67
g1758
sg60
(lp1765
g53
(g74
g55
NtRp1766
(dp1767
g58
(dp1768
g78
g79
ssg67
g1762
sg60
(lp1769
g580
asbag53
(g74
g55
NtRp1770
(dp1771
g58
(dp1772
g85
g86
ssg67
g1762
sg60
(lp1773
S':'
asbag53
(g74
g55
NtRp1774
(dp1775
g58
(dp1776
sg67
g1762
sg60
(lp1777
g53
(g54
g55
NtRp1778
(dp1779
g58
(dp1780
g66
I4
ssg67
g1774
sg60
(lp1781
S"set(['D:\\\\Dise\\xf1o Web\\\\Proyectos\\\\Parleyweb\\\\web2py\\\\applications\\\\parleyweb\\\\', 'D:\\\\Dise\\xf1o Web\\\\Proyectos\\\\Parleyweb\\\\web2py\\\\applications\\\\admin\\\\'])"
p1782
asbasbasbag53
(g69
g55
NtRp1783
(dp1784
g58
(dp1785
sg67
g1758
sg60
(lp1786
g53
(g74
g55
NtRp1787
(dp1788
g58
(dp1789
g78
g79
ssg67
g1783
sg60
(lp1790
g602
asbag53
(g74
g55
NtRp1791
(dp1792
g58
(dp1793
g85
g86
ssg67
g1783
sg60
(lp1794
S':'
asbag53
(g74
g55
NtRp1795
(dp1796
g58
(dp1797
sg67
g1783
sg60
(lp1798
g53
(g54
g55
NtRp1799
(dp1800
g58
(dp1801
g66
I4
ssg67
g1795
sg60
(lp1802
g615
asbasbasbag53
(g69
g55
NtRp1803
(dp1804
g58
(dp1805
sg67
g1758
sg60
(lp1806
g53
(g74
g55
NtRp1807
(dp1808
g58
(dp1809
g78
g79
ssg67
g1803
sg60
(lp1810
g624
asbag53
(g74
g55
NtRp1811
(dp1812
g58
(dp1813
g85
g86
ssg67
g1803
sg60
(lp1814
S':'
asbag53
(g74
g55
NtRp1815
(dp1816
g58
(dp1817
sg67
g1803
sg60
(lp1818
g53
(g54
g55
NtRp1819
(dp1820
g58
(dp1821
g66
I4
ssg67
g1815
sg60
(lp1822
g53
(g62
g55
NtRp1823
(dp1824
g58
(dp1825
g66
I3
ssg67
Nsg60
(lp1826
sbasbasbasbag53
(g69
g55
NtRp1827
(dp1828
g58
(dp1829
sg67
g1758
sg60
(lp1830
g53
(g74
g55
NtRp1831
(dp1832
g58
(dp1833
g78
g79
ssg67
g1827
sg60
(lp1834
g649
asbag53
(g74
g55
NtRp1835
(dp1836
g58
(dp1837
g85
g86
ssg67
g1827
sg60
(lp1838
S':'
asbag53
(g74
g55
NtRp1839
(dp1840
g58
(dp1841
sg67
g1827
sg60
(lp1842
g53
(g54
g55
NtRp1843
(dp1844
g58
(dp1845
g66
I4
ssg67
g1839
sg60
(lp1846
S"<Values at 0x3185238: {'verbose': False, 'ip': '127.0.0.1', 'shutdown_timeout': 5, 'taskbar': False, 'nocron': False, 'pid_filename': 'httpserver.pid', 'maxthreads': None, 'softcron': False, 'server_name': 'craxsnet-PC', 'bpython': False, 'nogui': False, 'port': 8000, 'extcron': False, 'debuglevel': 30, 'test': None, 'folder': 'D:\\\\Dise\\xf1o Web\\\\Proyectos\\\\Parleyweb\\\\web2py', 'config': '', 'import_models': False, 'winservice': '', 'shell': None, 'run': '', 'log_filename': 'httpserver.log', 'args': [''], 'socket_timeout': 5, 'ssl_ca_certificate': None, 'scheduler': None, 'profiler_filename': None, 'ssl_private_key': '', 'password': '<ask>', 'request_queue_size': 5, 'ssl_certificate': '', 'cronjob': False, 'numthreads': None, 'quiet': False, 'interfaces': None, 'minthreads': None, 'timeout': 10, 'plain': False, 'nobanner': False}>"
p1847
asbasbasbag53
(g69
g55
NtRp1848
(dp1849
g58
(dp1850
sg67
g1758
sg60
(lp1851
g53
(g74
g55
NtRp1852
(dp1853
g58
(dp1854
g78
g79
ssg67
g1848
sg60
(lp1855
g715
asbag53
(g74
g55
NtRp1856
(dp1857
g58
(dp1858
g85
g86
ssg67
g1848
sg60
(lp1859
S':'
asbag53
(g74
g55
NtRp1860
(dp1861
g58
(dp1862
sg67
g1848
sg60
(lp1863
g53
(g54
g55
NtRp1864
(dp1865
g58
(dp1866
g66
I4
ssg67
g1860
sg60
(lp1867
S'set([])'
p1868
asbasbasbag53
(g69
g55
NtRp1869
(dp1870
g58
(dp1871
sg67
g1758
sg60
(lp1872
g53
(g74
g55
NtRp1873
(dp1874
g58
(dp1875
g78
g79
ssg67
g1869
sg60
(lp1876
g737
asbag53
(g74
g55
NtRp1877
(dp1878
g58
(dp1879
g85
g86
ssg67
g1869
sg60
(lp1880
S':'
asbag53
(g74
g55
NtRp1881
(dp1882
g58
(dp1883
sg67
g1869
sg60
(lp1884
g53
(g54
g55
NtRp1885
(dp1886
g58
(dp1887
g66
I4
ssg67
g1881
sg60
(lp1888
g96
asbasbasbag53
(g69
g55
NtRp1889
(dp1890
g58
(dp1891
sg67
g1758
sg60
(lp1892
g53
(g74
g55
NtRp1893
(dp1894
g58
(dp1895
g78
g79
ssg67
g1889
sg60
(lp1896
g758
asbag53
(g74
g55
NtRp1897
(dp1898
g58
(dp1899
g85
g86
ssg67
g1889
sg60
(lp1900
S':'
asbag53
(g74
g55
NtRp1901
(dp1902
g58
(dp1903
sg67
g1889
sg60
(lp1904
g53
(g54
g55
NtRp1905
(dp1906
g58
(dp1907
g66
I4
ssg67
g1901
sg60
(lp1908
g771
asbasbasbag53
(g69
g55
NtRp1909
(dp1910
g58
(dp1911
sg67
g1758
sg60
(lp1912
g53
(g74
g55
NtRp1913
(dp1914
g58
(dp1915
g78
g79
ssg67
g1909
sg60
(lp1916
g1020
asbag53
(g74
g55
NtRp1917
(dp1918
g58
(dp1919
g85
g86
ssg67
g1909
sg60
(lp1920
S':'
asbag53
(g74
g55
NtRp1921
(dp1922
g58
(dp1923
sg67
g1909
sg60
(lp1924
g53
(g54
g55
NtRp1925
(dp1926
g58
(dp1927
g66
I4
ssg67
g1921
sg60
(lp1928
g96
asbasbasbag53
(g69
g55
NtRp1929
(dp1930
g58
(dp1931
sg67
g1758
sg60
(lp1932
g53
(g74
g55
NtRp1933
(dp1934
g58
(dp1935
g78
g79
ssg67
g1929
sg60
(lp1936
g1041
asbag53
(g74
g55
NtRp1937
(dp1938
g58
(dp1939
g85
g86
ssg67
g1929
sg60
(lp1940
S':'
asbag53
(g74
g55
NtRp1941
(dp1942
g58
(dp1943
sg67
g1929
sg60
(lp1944
g53
(g54
g55
NtRp1945
(dp1946
g58
(dp1947
g66
I4
ssg67
g1941
sg60
(lp1948
g96
asbasbasbag53
(g69
g55
NtRp1949
(dp1950
g58
(dp1951
sg67
g1758
sg60
(lp1952
g53
(g74
g55
NtRp1953
(dp1954
g58
(dp1955
g78
g79
ssg67
g1949
sg60
(lp1956
g1300
asbag53
(g74
g55
NtRp1957
(dp1958
g58
(dp1959
g85
g86
ssg67
g1949
sg60
(lp1960
S':'
asbag53
(g74
g55
NtRp1961
(dp1962
g58
(dp1963
sg67
g1949
sg60
(lp1964
g53
(g54
g55
NtRp1965
(dp1966
g58
(dp1967
g66
I4
ssg67
g1961
sg60
(lp1968
g1313
asbasbasbag53
(g69
g55
NtRp1969
(dp1970
g58
(dp1971
sg67
g1758
sg60
(lp1972
g53
(g74
g55
NtRp1973
(dp1974
g58
(dp1975
g78
g79
ssg67
g1969
sg60
(lp1976
g1365
asbag53
(g74
g55
NtRp1977
(dp1978
g58
(dp1979
g85
g86
ssg67
g1969
sg60
(lp1980
S':'
asbag53
(g74
g55
NtRp1981
(dp1982
g58
(dp1983
sg67
g1969
sg60
(lp1984
g53
(g54
g55
NtRp1985
(dp1986
g58
(dp1987
g66
I4
ssg67
g1981
sg60
(lp1988
g53
(g62
g55
NtRp1989
(dp1990
g58
(dp1991
g66
I3
ssg67
Nsg60
(lp1992
g53
(g69
g55
NtRp1993
(dp1994
g58
(dp1995
sg67
g1989
sg60
(lp1996
g53
(g74
g55
NtRp1997
(dp1998
g58
(dp1999
sg67
g1993
sg60
(lp2000
g53
(g54
g55
NtRp2001
(dp2002
g58
(dp2003
g66
I3
ssg67
g1997
sg60
(lp2004
S'1'
asbasbasbag53
(g69
g55
NtRp2005
(dp2006
g58
(dp2007
sg67
g1989
sg60
(lp2008
g53
(g74
g55
NtRp2009
(dp2010
g58
(dp2011
sg67
g2005
sg60
(lp2012
g53
(g54
g55
NtRp2013
(dp2014
g58
(dp2015
g66
I3
ssg67
g2009
sg60
(lp2016
S'99'
p2017
asbasbasbag53
(g69
g55
NtRp2018
(dp2019
g58
(dp2020
sg67
g1989
sg60
(lp2021
g53
(g74
g55
NtRp2022
(dp2023
g58
(dp2024
sg67
g2018
sg60
(lp2025
g53
(g54
g55
NtRp2026
(dp2027
g58
(dp2028
g66
I3
ssg67
g2022
sg60
(lp2029
S'7'
asbasbasbag53
(g69
g55
NtRp2030
(dp2031
g58
(dp2032
sg67
g1989
sg60
(lp2033
g53
(g74
g55
NtRp2034
(dp2035
g58
(dp2036
sg67
g2030
sg60
(lp2037
g53
(g54
g55
NtRp2038
(dp2039
g58
(dp2040
g66
I3
ssg67
g2034
sg60
(lp2041
S'datetime.datetime(2012, 3, 4, 22, 12, 8)'
p2042
asbasbasbag53
(g69
g55
NtRp2043
(dp2044
g58
(dp2045
sg67
g1989
sg60
(lp2046
g53
(g74
g55
NtRp2047
(dp2048
g58
(dp2049
sg67
g2043
sg60
(lp2050
g53
(g54
g55
NtRp2051
(dp2052
g58
(dp2053
g66
I3
ssg67
g2047
sg60
(lp2054
g1444
asbasbasbasbasbasbasbasbasbasbasbag53
(g69
g55
NtRp2055
(dp2056
g58
(dp2057
sg67
g63
sg60
(lp2058
g53
(g74
g55
NtRp2059
(dp2060
g58
(dp2061
g78
g79
ssg67
g2055
sg60
(lp2062
S'is_https'
p2063
asbag53
(g74
g55
NtRp2064
(dp2065
g58
(dp2066
g85
g86
ssg67
g2055
sg60
(lp2067
S':'
asbag53
(g74
g55
NtRp2068
(dp2069
g58
(dp2070
sg67
g2055
sg60
(lp2071
g53
(g54
g55
NtRp2072
(dp2073
g58
(dp2074
g66
I5
ssg67
g2068
sg60
(lp2075
g96
asbasbasbag53
(g69
g55
NtRp2076
(dp2077
g58
(dp2078
sg67
g63
sg60
(lp2079
g53
(g74
g55
NtRp2080
(dp2081
g58
(dp2082
g78
g79
ssg67
g2076
sg60
(lp2083
S'is_local'
p2084
asbag53
(g74
g55
NtRp2085
(dp2086
g58
(dp2087
g85
g86
ssg67
g2076
sg60
(lp2088
S':'
asbag53
(g74
g55
NtRp2089
(dp2090
g58
(dp2091
sg67
g2076
sg60
(lp2092
g53
(g54
g55
NtRp2093
(dp2094
g58
(dp2095
g66
I5
ssg67
g2089
sg60
(lp2096
g1553
asbasbasbag53
(g69
g55
NtRp2097
(dp2098
g58
(dp2099
sg67
g63
sg60
(lp2100
g53
(g74
g55
NtRp2101
(dp2102
g58
(dp2103
g78
g79
ssg67
g2097
sg60
(lp2104
S'is_restful'
p2105
asbag53
(g74
g55
NtRp2106
(dp2107
g58
(dp2108
g85
g86
ssg67
g2097
sg60
(lp2109
S':'
asbag53
(g74
g55
NtRp2110
(dp2111
g58
(dp2112
sg67
g2097
sg60
(lp2113
g53
(g54
g55
NtRp2114
(dp2115
g58
(dp2116
g66
I5
ssg67
g2110
sg60
(lp2117
g96
asbasbasbag53
(g69
g55
NtRp2118
(dp2119
g58
(dp2120
sg67
g63
sg60
(lp2121
g53
(g74
g55
NtRp2122
(dp2123
g58
(dp2124
g78
g79
ssg67
g2118
sg60
(lp2125
S'now'
p2126
asbag53
(g74
g55
NtRp2127
(dp2128
g58
(dp2129
g85
g86
ssg67
g2118
sg60
(lp2130
S':'
asbag53
(g74
g55
NtRp2131
(dp2132
g58
(dp2133
sg67
g2118
sg60
(lp2134
g53
(g54
g55
NtRp2135
(dp2136
g58
(dp2137
g66
I5
ssg67
g2131
sg60
(lp2138
S'datetime.datetime(2012, 3, 15, 14, 54, 51, 767000)'
p2139
asbasbasbag53
(g69
g55
NtRp2140
(dp2141
g58
(dp2142
sg67
g63
sg60
(lp2143
g53
(g74
g55
NtRp2144
(dp2145
g58
(dp2146
g78
g79
ssg67
g2140
sg60
(lp2147
S'post_vars'
p2148
asbag53
(g74
g55
NtRp2149
(dp2150
g58
(dp2151
g85
g86
ssg67
g2140
sg60
(lp2152
S':'
asbag53
(g74
g55
NtRp2153
(dp2154
g58
(dp2155
sg67
g2140
sg60
(lp2156
g53
(g54
g55
NtRp2157
(dp2158
g58
(dp2159
g66
I5
ssg67
g2153
sg60
(lp2160
g53
(g62
g55
NtRp2161
(dp2162
g58
(dp2163
g66
I4
ssg67
Nsg60
(lp2164
g53
(g69
g55
NtRp2165
(dp2166
g58
(dp2167
sg67
g2161
sg60
(lp2168
g53
(g74
g55
NtRp2169
(dp2170
g58
(dp2171
g78
g79
ssg67
g2165
sg60
(lp2172
S'id_palabra'
p2173
asbag53
(g74
g55
NtRp2174
(dp2175
g58
(dp2176
g85
g86
ssg67
g2165
sg60
(lp2177
S':'
asbag53
(g74
g55
NtRp2178
(dp2179
g58
(dp2180
sg67
g2165
sg60
(lp2181
g53
(g54
g55
NtRp2182
(dp2183
g58
(dp2184
g66
I4
ssg67
g2178
sg60
(lp2185
S'149'
p2186
asbasbasbag53
(g69
g55
NtRp2187
(dp2188
g58
(dp2189
sg67
g2161
sg60
(lp2190
g53
(g74
g55
NtRp2191
(dp2192
g58
(dp2193
g78
g79
ssg67
g2187
sg60
(lp2194
S'relacionar'
p2195
asbag53
(g74
g55
NtRp2196
(dp2197
g58
(dp2198
g85
g86
ssg67
g2187
sg60
(lp2199
S':'
asbag53
(g74
g55
NtRp2200
(dp2201
g58
(dp2202
sg67
g2187
sg60
(lp2203
g53
(g54
g55
NtRp2204
(dp2205
g58
(dp2206
g66
I4
ssg67
g2200
sg60
(lp2207
S'30'
p2208
asbasbasbasbasbasbasbag53
(g69
g55
NtRp2209
(dp2210
g58
(dp2211
sg67
g63
sg60
(lp2212
g53
(g74
g55
NtRp2213
(dp2214
g58
(dp2215
g78
g79
ssg67
g2209
sg60
(lp2216
S'url'
p2217
asbag53
(g74
g55
NtRp2218
(dp2219
g58
(dp2220
g85
g86
ssg67
g2209
sg60
(lp2221
S':'
asbag53
(g74
g55
NtRp2222
(dp2223
g58
(dp2224
sg67
g2209
sg60
(lp2225
g53
(g54
g55
NtRp2226
(dp2227
g58
(dp2228
g66
I5
ssg67
g2222
sg60
(lp2229
S'/parleyweb/admin/relacionar'
p2230
asbasbasbag53
(g69
g55
NtRp2231
(dp2232
g58
(dp2233
sg67
g63
sg60
(lp2234
g53
(g74
g55
NtRp2235
(dp2236
g58
(dp2237
g78
g79
ssg67
g2231
sg60
(lp2238
S'utcnow'
p2239
asbag53
(g74
g55
NtRp2240
(dp2241
g58
(dp2242
g85
g86
ssg67
g2231
sg60
(lp2243
S':'
asbag53
(g74
g55
NtRp2244
(dp2245
g58
(dp2246
sg67
g2231
sg60
(lp2247
g53
(g54
g55
NtRp2248
(dp2249
g58
(dp2250
g66
I5
ssg67
g2244
sg60
(lp2251
S'datetime.datetime(2012, 3, 15, 13, 54, 51, 767000)'
p2252
asbasbasbag53
(g69
g55
NtRp2253
(dp2254
g58
(dp2255
sg67
g63
sg60
(lp2256
g53
(g74
g55
NtRp2257
(dp2258
g58
(dp2259
g78
g79
ssg67
g2253
sg60
(lp2260
S'uuid'
p2261
asbag53
(g74
g55
NtRp2262
(dp2263
g58
(dp2264
g85
g86
ssg67
g2253
sg60
(lp2265
S':'
asbag53
(g74
g55
NtRp2266
(dp2267
g58
(dp2268
sg67
g2253
sg60
(lp2269
g53
(g54
g55
NtRp2270
(dp2271
g58
(dp2272
g66
I5
ssg67
g2266
sg60
(lp2273
S'parleyweb/127.0.0.1.2012-03-15.14-54-51.f13ef9a7-581f-4616-9887-015013d7d145'
p2274
asbasbasbag53
(g69
g55
NtRp2275
(dp2276
g58
(dp2277
sg67
g63
sg60
(lp2278
g53
(g74
g55
NtRp2279
(dp2280
g58
(dp2281
g78
g79
ssg67
g2275
sg60
(lp2282
S'vars'
p2283
asbag53
(g74
g55
NtRp2284
(dp2285
g58
(dp2286
g85
g86
ssg67
g2275
sg60
(lp2287
S':'
asbag53
(g74
g55
NtRp2288
(dp2289
g58
(dp2290
sg67
g2275
sg60
(lp2291
g53
(g54
g55
NtRp2292
(dp2293
g58
(dp2294
g66
I5
ssg67
g2288
sg60
(lp2295
g53
(g62
g55
NtRp2296
(dp2297
g58
(dp2298
g66
I4
ssg67
Nsg60
(lp2299
g53
(g69
g55
NtRp2300
(dp2301
g58
(dp2302
sg67
g2296
sg60
(lp2303
g53
(g74
g55
NtRp2304
(dp2305
g58
(dp2306
g78
g79
ssg67
g2300
sg60
(lp2307
g2173
asbag53
(g74
g55
NtRp2308
(dp2309
g58
(dp2310
g85
g86
ssg67
g2300
sg60
(lp2311
S':'
asbag53
(g74
g55
NtRp2312
(dp2313
g58
(dp2314
sg67
g2300
sg60
(lp2315
g53
(g54
g55
NtRp2316
(dp2317
g58
(dp2318
g66
I4
ssg67
g2312
sg60
(lp2319
g2186
asbasbasbag53
(g69
g55
NtRp2320
(dp2321
g58
(dp2322
sg67
g2296
sg60
(lp2323
g53
(g74
g55
NtRp2324
(dp2325
g58
(dp2326
g78
g79
ssg67
g2320
sg60
(lp2327
g2195
asbag53
(g74
g55
NtRp2328
(dp2329
g58
(dp2330
g85
g86
ssg67
g2320
sg60
(lp2331
S':'
asbag53
(g74
g55
NtRp2332
(dp2333
g58
(dp2334
sg67
g2320
sg60
(lp2335
g53
(g54
g55
NtRp2336
(dp2337
g58
(dp2338
g66
I4
ssg67
g2332
sg60
(lp2339
g2208
asbasbasbasbasbasbasbag53
(g69
g55
NtRp2340
(dp2341
g58
(dp2342
sg67
g63
sg60
(lp2343
g53
(g74
g55
NtRp2344
(dp2345
g58
(dp2346
g78
g79
ssg67
g2340
sg60
(lp2347
S'wsgi'
p2348
asbag53
(g74
g55
NtRp2349
(dp2350
g58
(dp2351
g85
g86
ssg67
g2340
sg60
(lp2352
S':'
asbag53
(g74
g55
NtRp2353
(dp2354
g58
(dp2355
sg67
g2340
sg60
(lp2356
g53
(g54
g55
NtRp2357
(dp2358
g58
(dp2359
g66
I5
ssg67
g2353
sg60
(lp2360
g53
(g62
g55
NtRp2361
(dp2362
g58
(dp2363
g66
I4
ssg67
Nsg60
(lp2364
g53
(g69
g55
NtRp2365
(dp2366
g58
(dp2367
sg67
g2361
sg60
(lp2368
g53
(g74
g55
NtRp2369
(dp2370
g58
(dp2371
g78
g79
ssg67
g2365
sg60
(lp2372
S'environ'
p2373
asbag53
(g74
g55
NtRp2374
(dp2375
g58
(dp2376
g85
g86
ssg67
g2365
sg60
(lp2377
S':'
asbag53
(g74
g55
NtRp2378
(dp2379
g58
(dp2380
sg67
g2365
sg60
(lp2381
g53
(g54
g55
NtRp2382
(dp2383
g58
(dp2384
g66
I4
ssg67
g2378
sg60
(lp2385
g53
(g62
g55
NtRp2386
(dp2387
g58
(dp2388
g66
I3
ssg67
Nsg60
(lp2389
g53
(g69
g55
NtRp2390
(dp2391
g58
(dp2392
sg67
g2386
sg60
(lp2393
g53
(g74
g55
NtRp2394
(dp2395
g58
(dp2396
g78
g79
ssg67
g2390
sg60
(lp2397
S'CONTENT_LENGTH'
p2398
asbag53
(g74
g55
NtRp2399
(dp2400
g58
(dp2401
g85
g86
ssg67
g2390
sg60
(lp2402
S':'
asbag53
(g74
g55
NtRp2403
(dp2404
g58
(dp2405
sg67
g2390
sg60
(lp2406
g53
(g54
g55
NtRp2407
(dp2408
g58
(dp2409
g66
I3
ssg67
g2403
sg60
(lp2410
g684
asbasbasbag53
(g69
g55
NtRp2411
(dp2412
g58
(dp2413
sg67
g2386
sg60
(lp2414
g53
(g74
g55
NtRp2415
(dp2416
g58
(dp2417
g78
g79
ssg67
g2411
sg60
(lp2418
S'CONTENT_TYPE'
p2419
asbag53
(g74
g55
NtRp2420
(dp2421
g58
(dp2422
g85
g86
ssg67
g2411
sg60
(lp2423
S':'
asbag53
(g74
g55
NtRp2424
(dp2425
g58
(dp2426
sg67
g2411
sg60
(lp2427
g53
(g54
g55
NtRp2428
(dp2429
g58
(dp2430
g66
I3
ssg67
g2424
sg60
(lp2431
g706
asbasbasbag53
(g69
g55
NtRp2432
(dp2433
g58
(dp2434
sg67
g2386
sg60
(lp2435
g53
(g74
g55
NtRp2436
(dp2437
g58
(dp2438
g78
g79
ssg67
g2432
sg60
(lp2439
S'HTTP_ACCEPT'
p2440
asbag53
(g74
g55
NtRp2441
(dp2442
g58
(dp2443
g85
g86
ssg67
g2432
sg60
(lp2444
S':'
asbag53
(g74
g55
NtRp2445
(dp2446
g58
(dp2447
sg67
g2432
sg60
(lp2448
g53
(g54
g55
NtRp2449
(dp2450
g58
(dp2451
g66
I3
ssg67
g2445
sg60
(lp2452
g793
asbasbasbag53
(g69
g55
NtRp2453
(dp2454
g58
(dp2455
sg67
g2386
sg60
(lp2456
g53
(g74
g55
NtRp2457
(dp2458
g58
(dp2459
g78
g79
ssg67
g2453
sg60
(lp2460
S'HTTP_ACCEPT_ENCODING'
p2461
asbag53
(g74
g55
NtRp2462
(dp2463
g58
(dp2464
g85
g86
ssg67
g2453
sg60
(lp2465
S':'
asbag53
(g74
g55
NtRp2466
(dp2467
g58
(dp2468
sg67
g2453
sg60
(lp2469
g53
(g54
g55
NtRp2470
(dp2471
g58
(dp2472
g66
I3
ssg67
g2466
sg60
(lp2473
g815
asbasbasbag53
(g69
g55
NtRp2474
(dp2475
g58
(dp2476
sg67
g2386
sg60
(lp2477
g53
(g74
g55
NtRp2478
(dp2479
g58
(dp2480
g78
g79
ssg67
g2474
sg60
(lp2481
S'HTTP_ACCEPT_LANGUAGE'
p2482
asbag53
(g74
g55
NtRp2483
(dp2484
g58
(dp2485
g85
g86
ssg67
g2474
sg60
(lp2486
S':'
asbag53
(g74
g55
NtRp2487
(dp2488
g58
(dp2489
sg67
g2474
sg60
(lp2490
g53
(g54
g55
NtRp2491
(dp2492
g58
(dp2493
g66
I3
ssg67
g2487
sg60
(lp2494
g837
asbasbasbag53
(g69
g55
NtRp2495
(dp2496
g58
(dp2497
sg67
g2386
sg60
(lp2498
g53
(g74
g55
NtRp2499
(dp2500
g58
(dp2501
g78
g79
ssg67
g2495
sg60
(lp2502
S'HTTP_CACHE_CONTROL'
p2503
asbag53
(g74
g55
NtRp2504
(dp2505
g58
(dp2506
g85
g86
ssg67
g2495
sg60
(lp2507
S':'
asbag53
(g74
g55
NtRp2508
(dp2509
g58
(dp2510
sg67
g2495
sg60
(lp2511
g53
(g54
g55
NtRp2512
(dp2513
g58
(dp2514
g66
I3
ssg67
g2508
sg60
(lp2515
g859
asbasbasbag53
(g69
g55
NtRp2516
(dp2517
g58
(dp2518
sg67
g2386
sg60
(lp2519
g53
(g74
g55
NtRp2520
(dp2521
g58
(dp2522
g78
g79
ssg67
g2516
sg60
(lp2523
S'HTTP_CONNECTION'
p2524
asbag53
(g74
g55
NtRp2525
(dp2526
g58
(dp2527
g85
g86
ssg67
g2516
sg60
(lp2528
S':'
asbag53
(g74
g55
NtRp2529
(dp2530
g58
(dp2531
sg67
g2516
sg60
(lp2532
g53
(g54
g55
NtRp2533
(dp2534
g58
(dp2535
g66
I3
ssg67
g2529
sg60
(lp2536
g881
asbasbasbag53
(g69
g55
NtRp2537
(dp2538
g58
(dp2539
sg67
g2386
sg60
(lp2540
g53
(g74
g55
NtRp2541
(dp2542
g58
(dp2543
g78
g79
ssg67
g2537
sg60
(lp2544
S'HTTP_CONTENT_LENGTH'
p2545
asbag53
(g74
g55
NtRp2546
(dp2547
g58
(dp2548
g85
g86
ssg67
g2537
sg60
(lp2549
S':'
asbag53
(g74
g55
NtRp2550
(dp2551
g58
(dp2552
sg67
g2537
sg60
(lp2553
g53
(g54
g55
NtRp2554
(dp2555
g58
(dp2556
g66
I3
ssg67
g2550
sg60
(lp2557
g684
asbasbasbag53
(g69
g55
NtRp2558
(dp2559
g58
(dp2560
sg67
g2386
sg60
(lp2561
g53
(g74
g55
NtRp2562
(dp2563
g58
(dp2564
g78
g79
ssg67
g2558
sg60
(lp2565
S'HTTP_CONTENT_TYPE'
p2566
asbag53
(g74
g55
NtRp2567
(dp2568
g58
(dp2569
g85
g86
ssg67
g2558
sg60
(lp2570
S':'
asbag53
(g74
g55
NtRp2571
(dp2572
g58
(dp2573
sg67
g2558
sg60
(lp2574
g53
(g54
g55
NtRp2575
(dp2576
g58
(dp2577
g66
I3
ssg67
g2571
sg60
(lp2578
g706
asbasbasbag53
(g69
g55
NtRp2579
(dp2580
g58
(dp2581
sg67
g2386
sg60
(lp2582
g53
(g74
g55
NtRp2583
(dp2584
g58
(dp2585
g78
g79
ssg67
g2579
sg60
(lp2586
S'HTTP_COOKIE'
p2587
asbag53
(g74
g55
NtRp2588
(dp2589
g58
(dp2590
g85
g86
ssg67
g2579
sg60
(lp2591
S':'
asbag53
(g74
g55
NtRp2592
(dp2593
g58
(dp2594
sg67
g2579
sg60
(lp2595
g53
(g54
g55
NtRp2596
(dp2597
g58
(dp2598
g66
I3
ssg67
g2592
sg60
(lp2599
g945
asbasbasbag53
(g69
g55
NtRp2600
(dp2601
g58
(dp2602
sg67
g2386
sg60
(lp2603
g53
(g74
g55
NtRp2604
(dp2605
g58
(dp2606
g78
g79
ssg67
g2600
sg60
(lp2607
S'HTTP_HOST'
p2608
asbag53
(g74
g55
NtRp2609
(dp2610
g58
(dp2611
g85
g86
ssg67
g2600
sg60
(lp2612
S':'
asbag53
(g74
g55
NtRp2613
(dp2614
g58
(dp2615
sg67
g2600
sg60
(lp2616
g53
(g54
g55
NtRp2617
(dp2618
g58
(dp2619
g66
I3
ssg67
g2613
sg60
(lp2620
g967
asbasbasbag53
(g69
g55
NtRp2621
(dp2622
g58
(dp2623
sg67
g2386
sg60
(lp2624
g53
(g74
g55
NtRp2625
(dp2626
g58
(dp2627
g78
g79
ssg67
g2621
sg60
(lp2628
S'HTTP_REFERER'
p2629
asbag53
(g74
g55
NtRp2630
(dp2631
g58
(dp2632
g85
g86
ssg67
g2621
sg60
(lp2633
S':'
asbag53
(g74
g55
NtRp2634
(dp2635
g58
(dp2636
sg67
g2621
sg60
(lp2637
g53
(g54
g55
NtRp2638
(dp2639
g58
(dp2640
g66
I3
ssg67
g2634
sg60
(lp2641
g989
asbasbasbag53
(g69
g55
NtRp2642
(dp2643
g58
(dp2644
sg67
g2386
sg60
(lp2645
g53
(g74
g55
NtRp2646
(dp2647
g58
(dp2648
g78
g79
ssg67
g2642
sg60
(lp2649
S'HTTP_USER_AGENT'
p2650
asbag53
(g74
g55
NtRp2651
(dp2652
g58
(dp2653
g85
g86
ssg67
g2642
sg60
(lp2654
S':'
asbag53
(g74
g55
NtRp2655
(dp2656
g58
(dp2657
sg67
g2642
sg60
(lp2658
g53
(g54
g55
NtRp2659
(dp2660
g58
(dp2661
g66
I3
ssg67
g2655
sg60
(lp2662
g1011
asbasbasbag53
(g69
g55
NtRp2663
(dp2664
g58
(dp2665
sg67
g2386
sg60
(lp2666
g53
(g74
g55
NtRp2667
(dp2668
g58
(dp2669
g78
g79
ssg67
g2663
sg60
(lp2670
S'PATH_INFO'
p2671
asbag53
(g74
g55
NtRp2672
(dp2673
g58
(dp2674
g85
g86
ssg67
g2663
sg60
(lp2675
S':'
asbag53
(g74
g55
NtRp2676
(dp2677
g58
(dp2678
sg67
g2663
sg60
(lp2679
g53
(g54
g55
NtRp2680
(dp2681
g58
(dp2682
g66
I3
ssg67
g2676
sg60
(lp2683
g1075
asbasbasbag53
(g69
g55
NtRp2684
(dp2685
g58
(dp2686
sg67
g2386
sg60
(lp2687
g53
(g74
g55
NtRp2688
(dp2689
g58
(dp2690
g78
g79
ssg67
g2684
sg60
(lp2691
S'QUERY_STRING'
p2692
asbag53
(g74
g55
NtRp2693
(dp2694
g58
(dp2695
g85
g86
ssg67
g2684
sg60
(lp2696
S':'
asbag53
(g74
g55
NtRp2697
(dp2698
g58
(dp2699
sg67
g2684
sg60
(lp2700
g53
(g54
g55
NtRp2701
(dp2702
g58
(dp2703
g66
I3
ssg67
g2697
sg60
(lp2704
S''
asbasbasbag53
(g69
g55
NtRp2705
(dp2706
g58
(dp2707
sg67
g2386
sg60
(lp2708
g53
(g74
g55
NtRp2709
(dp2710
g58
(dp2711
g78
g79
ssg67
g2705
sg60
(lp2712
S'REMOTE_ADDR'
p2713
asbag53
(g74
g55
NtRp2714
(dp2715
g58
(dp2716
g85
g86
ssg67
g2705
sg60
(lp2717
S':'
asbag53
(g74
g55
NtRp2718
(dp2719
g58
(dp2720
sg67
g2705
sg60
(lp2721
g53
(g54
g55
NtRp2722
(dp2723
g58
(dp2724
g66
I3
ssg67
g2718
sg60
(lp2725
g162
asbasbasbag53
(g69
g55
NtRp2726
(dp2727
g58
(dp2728
sg67
g2386
sg60
(lp2729
g53
(g74
g55
NtRp2730
(dp2731
g58
(dp2732
g78
g79
ssg67
g2726
sg60
(lp2733
S'REMOTE_PORT'
p2734
asbag53
(g74
g55
NtRp2735
(dp2736
g58
(dp2737
g85
g86
ssg67
g2726
sg60
(lp2738
S':'
asbag53
(g74
g55
NtRp2739
(dp2740
g58
(dp2741
sg67
g2726
sg60
(lp2742
g53
(g54
g55
NtRp2743
(dp2744
g58
(dp2745
g66
I3
ssg67
g2739
sg60
(lp2746
g1139
asbasbasbag53
(g69
g55
NtRp2747
(dp2748
g58
(dp2749
sg67
g2386
sg60
(lp2750
g53
(g74
g55
NtRp2751
(dp2752
g58
(dp2753
g78
g79
ssg67
g2747
sg60
(lp2754
S'REQUEST_METHOD'
p2755
asbag53
(g74
g55
NtRp2756
(dp2757
g58
(dp2758
g85
g86
ssg67
g2747
sg60
(lp2759
S':'
asbag53
(g74
g55
NtRp2760
(dp2761
g58
(dp2762
sg67
g2747
sg60
(lp2763
g53
(g54
g55
NtRp2764
(dp2765
g58
(dp2766
g66
I3
ssg67
g2760
sg60
(lp2767
g1161
asbasbasbag53
(g69
g55
NtRp2768
(dp2769
g58
(dp2770
sg67
g2386
sg60
(lp2771
g53
(g74
g55
NtRp2772
(dp2773
g58
(dp2774
g78
g79
ssg67
g2768
sg60
(lp2775
S'REQUEST_URI'
p2776
asbag53
(g74
g55
NtRp2777
(dp2778
g58
(dp2779
g85
g86
ssg67
g2768
sg60
(lp2780
S':'
asbag53
(g74
g55
NtRp2781
(dp2782
g58
(dp2783
sg67
g2768
sg60
(lp2784
g53
(g54
g55
NtRp2785
(dp2786
g58
(dp2787
g66
I3
ssg67
g2781
sg60
(lp2788
g1075
asbasbasbag53
(g69
g55
NtRp2789
(dp2790
g58
(dp2791
sg67
g2386
sg60
(lp2792
g53
(g74
g55
NtRp2793
(dp2794
g58
(dp2795
g78
g79
ssg67
g2789
sg60
(lp2796
S'SCRIPT_NAME'
p2797
asbag53
(g74
g55
NtRp2798
(dp2799
g58
(dp2800
g85
g86
ssg67
g2789
sg60
(lp2801
S':'
asbag53
(g74
g55
NtRp2802
(dp2803
g58
(dp2804
sg67
g2789
sg60
(lp2805
g53
(g54
g55
NtRp2806
(dp2807
g58
(dp2808
g66
I3
ssg67
g2802
sg60
(lp2809
S''
asbasbasbag53
(g69
g55
NtRp2810
(dp2811
g58
(dp2812
sg67
g2386
sg60
(lp2813
g53
(g74
g55
NtRp2814
(dp2815
g58
(dp2816
g78
g79
ssg67
g2810
sg60
(lp2817
S'SERVER_NAME'
p2818
asbag53
(g74
g55
NtRp2819
(dp2820
g58
(dp2821
g85
g86
ssg67
g2810
sg60
(lp2822
S':'
asbag53
(g74
g55
NtRp2823
(dp2824
g58
(dp2825
sg67
g2810
sg60
(lp2826
g53
(g54
g55
NtRp2827
(dp2828
g58
(dp2829
g66
I3
ssg67
g2823
sg60
(lp2830
g1225
asbasbasbag53
(g69
g55
NtRp2831
(dp2832
g58
(dp2833
sg67
g2386
sg60
(lp2834
g53
(g74
g55
NtRp2835
(dp2836
g58
(dp2837
g78
g79
ssg67
g2831
sg60
(lp2838
S'SERVER_PORT'
p2839
asbag53
(g74
g55
NtRp2840
(dp2841
g58
(dp2842
g85
g86
ssg67
g2831
sg60
(lp2843
S':'
asbag53
(g74
g55
NtRp2844
(dp2845
g58
(dp2846
sg67
g2831
sg60
(lp2847
g53
(g54
g55
NtRp2848
(dp2849
g58
(dp2850
g66
I3
ssg67
g2844
sg60
(lp2851
g1247
asbasbasbag53
(g69
g55
NtRp2852
(dp2853
g58
(dp2854
sg67
g2386
sg60
(lp2855
g53
(g74
g55
NtRp2856
(dp2857
g58
(dp2858
g78
g79
ssg67
g2852
sg60
(lp2859
S'SERVER_PROTOCOL'
p2860
asbag53
(g74
g55
NtRp2861
(dp2862
g58
(dp2863
g85
g86
ssg67
g2852
sg60
(lp2864
S':'
asbag53
(g74
g55
NtRp2865
(dp2866
g58
(dp2867
sg67
g2852
sg60
(lp2868
g53
(g54
g55
NtRp2869
(dp2870
g58
(dp2871
g66
I3
ssg67
g2865
sg60
(lp2872
g1269
asbasbasbag53
(g69
g55
NtRp2873
(dp2874
g58
(dp2875
sg67
g2386
sg60
(lp2876
g53
(g74
g55
NtRp2877
(dp2878
g58
(dp2879
g78
g79
ssg67
g2873
sg60
(lp2880
S'SERVER_SOFTWARE'
p2881
asbag53
(g74
g55
NtRp2882
(dp2883
g58
(dp2884
g85
g86
ssg67
g2873
sg60
(lp2885
S':'
asbag53
(g74
g55
NtRp2886
(dp2887
g58
(dp2888
sg67
g2873
sg60
(lp2889
g53
(g54
g55
NtRp2890
(dp2891
g58
(dp2892
g66
I3
ssg67
g2886
sg60
(lp2893
g1291
asbasbasbag53
(g69
g55
NtRp2894
(dp2895
g58
(dp2896
sg67
g2386
sg60
(lp2897
g53
(g74
g55
NtRp2898
(dp2899
g58
(dp2900
g78
g79
ssg67
g2894
sg60
(lp2901
S'WEB2PY_ORIGINAL_URI'
p2902
asbag53
(g74
g55
NtRp2903
(dp2904
g58
(dp2905
g85
g86
ssg67
g2894
sg60
(lp2906
S':'
asbag53
(g74
g55
NtRp2907
(dp2908
g58
(dp2909
sg67
g2894
sg60
(lp2910
g53
(g54
g55
NtRp2911
(dp2912
g58
(dp2913
g66
I3
ssg67
g2907
sg60
(lp2914
g1335
asbasbasbag53
(g69
g55
NtRp2915
(dp2916
g58
(dp2917
sg67
g2386
sg60
(lp2918
g53
(g74
g55
NtRp2919
(dp2920
g58
(dp2921
g78
g79
ssg67
g2915
sg60
(lp2922
S'wsgi.errors'
p2923
asbag53
(g74
g55
NtRp2924
(dp2925
g58
(dp2926
g85
g86
ssg67
g2915
sg60
(lp2927
S':'
asbag53
(g74
g55
NtRp2928
(dp2929
g58
(dp2930
sg67
g2915
sg60
(lp2931
g53
(g54
g55
NtRp2932
(dp2933
g58
(dp2934
g66
I3
ssg67
g2928
sg60
(lp2935
S"<open file '<stderr>', mode 'w' at 0x004200B0>"
p2936
asbasbasbag53
(g69
g55
NtRp2937
(dp2938
g58
(dp2939
sg67
g2386
sg60
(lp2940
g53
(g74
g55
NtRp2941
(dp2942
g58
(dp2943
g78
g79
ssg67
g2937
sg60
(lp2944
S'wsgi.file_wrapper'
p2945
asbag53
(g74
g55
NtRp2946
(dp2947
g58
(dp2948
g85
g86
ssg67
g2937
sg60
(lp2949
S':'
asbag53
(g74
g55
NtRp2950
(dp2951
g58
(dp2952
sg67
g2937
sg60
(lp2953
g53
(g54
g55
NtRp2954
(dp2955
g58
(dp2956
g66
I3
ssg67
g2950
sg60
(lp2957
S'<class wsgiref.util.FileWrapper at 0x02FC6390>'
p2958
asbasbasbag53
(g69
g55
NtRp2959
(dp2960
g58
(dp2961
sg67
g2386
sg60
(lp2962
g53
(g74
g55
NtRp2963
(dp2964
g58
(dp2965
g78
g79
ssg67
g2959
sg60
(lp2966
S'wsgi.input'
p2967
asbag53
(g74
g55
NtRp2968
(dp2969
g58
(dp2970
g85
g86
ssg67
g2959
sg60
(lp2971
S':'
asbag53
(g74
g55
NtRp2972
(dp2973
g58
(dp2974
sg67
g2959
sg60
(lp2975
g53
(g54
g55
NtRp2976
(dp2977
g58
(dp2978
g66
I3
ssg67
g2972
sg60
(lp2979
S"<open file '<fdopen>', mode 'w+b' at 0x0739D2A8>"
p2980
asbasbasbag53
(g69
g55
NtRp2981
(dp2982
g58
(dp2983
sg67
g2386
sg60
(lp2984
g53
(g74
g55
NtRp2985
(dp2986
g58
(dp2987
g78
g79
ssg67
g2981
sg60
(lp2988
S'wsgi.multiprocess'
p2989
asbag53
(g74
g55
NtRp2990
(dp2991
g58
(dp2992
g85
g86
ssg67
g2981
sg60
(lp2993
S':'
asbag53
(g74
g55
NtRp2994
(dp2995
g58
(dp2996
sg67
g2981
sg60
(lp2997
g53
(g54
g55
NtRp2998
(dp2999
g58
(dp3000
g66
I3
ssg67
g2994
sg60
(lp3001
g96
asbasbasbag53
(g69
g55
NtRp3002
(dp3003
g58
(dp3004
sg67
g2386
sg60
(lp3005
g53
(g74
g55
NtRp3006
(dp3007
g58
(dp3008
g78
g79
ssg67
g3002
sg60
(lp3009
S'wsgi.multithread'
p3010
asbag53
(g74
g55
NtRp3011
(dp3012
g58
(dp3013
g85
g86
ssg67
g3002
sg60
(lp3014
S':'
asbag53
(g74
g55
NtRp3015
(dp3016
g58
(dp3017
sg67
g3002
sg60
(lp3018
g53
(g54
g55
NtRp3019
(dp3020
g58
(dp3021
g66
I3
ssg67
g3015
sg60
(lp3022
g1553
asbasbasbag53
(g69
g55
NtRp3023
(dp3024
g58
(dp3025
sg67
g2386
sg60
(lp3026
g53
(g74
g55
NtRp3027
(dp3028
g58
(dp3029
g78
g79
ssg67
g3023
sg60
(lp3030
S'wsgi.run_once'
p3031
asbag53
(g74
g55
NtRp3032
(dp3033
g58
(dp3034
g85
g86
ssg67
g3023
sg60
(lp3035
S':'
asbag53
(g74
g55
NtRp3036
(dp3037
g58
(dp3038
sg67
g3023
sg60
(lp3039
g53
(g54
g55
NtRp3040
(dp3041
g58
(dp3042
g66
I3
ssg67
g3036
sg60
(lp3043
g96
asbasbasbag53
(g69
g55
NtRp3044
(dp3045
g58
(dp3046
sg67
g2386
sg60
(lp3047
g53
(g74
g55
NtRp3048
(dp3049
g58
(dp3050
g78
g79
ssg67
g3044
sg60
(lp3051
S'wsgi.url_scheme'
p3052
asbag53
(g74
g55
NtRp3053
(dp3054
g58
(dp3055
g85
g86
ssg67
g3044
sg60
(lp3056
S':'
asbag53
(g74
g55
NtRp3057
(dp3058
g58
(dp3059
sg67
g3044
sg60
(lp3060
g53
(g54
g55
NtRp3061
(dp3062
g58
(dp3063
g66
I3
ssg67
g3057
sg60
(lp3064
g1596
asbasbasbag53
(g69
g55
NtRp3065
(dp3066
g58
(dp3067
sg67
g2386
sg60
(lp3068
g53
(g74
g55
NtRp3069
(dp3070
g58
(dp3071
g78
g79
ssg67
g3065
sg60
(lp3072
S'wsgi.version'
p3073
asbag53
(g74
g55
NtRp3074
(dp3075
g58
(dp3076
g85
g86
ssg67
g3065
sg60
(lp3077
S':'
asbag53
(g74
g55
NtRp3078
(dp3079
g58
(dp3080
sg67
g3065
sg60
(lp3081
g53
(g54
g55
NtRp3082
(dp3083
g58
(dp3084
g66
I3
ssg67
g3078
sg60
(lp3085
S'1'
asbasbasbasbasbasbasbasbasbasbasbasbasbsS'frames'
p3086
(lp3087
(dp3088
S'file'
p3089
S'D:\\Dise\xf1o Web\\Proyectos\\Parleyweb\\web2py\\gluon\\restricted.py'
p3090
sS'dump'
p3091
(dp3092
sS'lnum'
p3093
I205
sS'lines'
p3094
(dp3095
sS'call'
p3096
S"(code='# coding: utf8\\n# intente algo como\\ndef index():\\n...   \\n\\nresponse._vars=response._caller(relacionar)\\n', environment={'A': <class 'gluon.html.A'>, 'Auth': <class 'gluon.tools.Auth'>, 'B': <class 'gluon.html.B'>, 'BEAUTIFY': <class 'gluon.html.BEAUTIFY'>, 'BODY': <class 'gluon.html.BODY'>, 'BR': <class 'gluon.html.BR'>, 'BUTTON': <class 'gluon.html.BUTTON'>, 'CAT': <class 'gluon.html.CAT'>, 'CENTER': <class 'gluon.html.CENTER'>, 'CLEANUP': <class 'gluon.validators.CLEANUP'>, ...}, layer='D:\\\\Dise\\xf1o Web\\\\Proyectos\\\\Parleyweb\\\\web2py\\\\applications\\\\parleyweb\\\\controllers/admin.py')"
p3097
sS'func'
p3098
S'restricted'
p3099
sa(dp3100
g3089
S'D:\\Dise\xf1o Web\\Proyectos\\Parleyweb\\web2py\\applications\\parleyweb\\controllers\\admin.py'
p3101
sg3091
(dp3102
sg3093
I261
sg3094
(dp3103
I256
S''
sI257
S''
sI258
S''
sI259
S''
sI250
S''
sI251
S''
sI252
S''
sI253
S''
sI254
S''
sI255
S''
ssg3096
S'()'
p3104
sg3098
S'<module>'
p3105
sa(dp3106
g3089
S'D:\\Dise\xf1o Web\\Proyectos\\Parleyweb\\web2py\\gluon\\globals.py'
p3107
sg3091
(dp3108
sg3093
I173
sg3094
(dp3109
sg3096
S'(f=<function relacionar at 0x06648FB0>)'
p3110
sg3098
S'<lambda>'
p3111
sa(dp3112
g3089
S'D:\\Dise\xf1o Web\\Proyectos\\Parleyweb\\web2py\\applications\\parleyweb\\controllers\\admin.py'
p3113
sg3091
(dp3114
sg3093
I240
sg3094
(dp3115
I235
S'    return dict(ejemplo=ejemplo, form=form)'
p3116
sI236
S''
sI237
S'def relacionar():'
p3117
sI238
S'    for i in request.post_vars.relacionar:'
p3118
sI239
S'        db.palabra_ejemplo.insert(palabra=request.post_vars.id_palabra, ejemplo=i)'
p3119
sI240
S'    db((db.palabra_ejemplo.ejemplo==0) | (db.palabra_ejemplo==None)).delete()'
p3120
sI241
S'    tabla = crud.select(db.palabra_ejemplo)'
p3121
sI242
S'    return dict(tabla=tabla)'
p3122
sI243
S''
sI244
S''
ssg3096
S'()'
p3123
sg3098
S'relacionar'
p3124
sa(dp3125
g3089
S'D:\\Dise\xf1o Web\\Proyectos\\Parleyweb\\web2py\\gluon\\dal.py'
p3126
sg3091
(dp3127
sg3093
I7583
sg3094
(dp3128
sg3096
S'(self=<gluon.dal.Set object at 0x06D64550>)'
p3129
sg3098
S'delete'
p3130
sa(dp3131
g3089
S'D:\\Dise\xf1o Web\\Proyectos\\Parleyweb\\web2py\\gluon\\dal.py'
p3132
sg3091
(dp3133
sg3093
I1139
sg3094
(dp3134
sg3096
S"(self=<gluon.dal.SQLiteAdapter object at 0x06FB1830>, tablename='palabra_ejemplo', query=<gluon.dal.Query object at 0x06D64BB0>)"
p3135
sg3098
g3130
sa(dp3136
g3089
S'D:\\Dise\xf1o Web\\Proyectos\\Parleyweb\\web2py\\gluon\\dal.py'
p3137
sg3091
(dp3138
sg3093
I1392
sg3094
(dp3139
sg3096
S"(self=<gluon.dal.SQLiteAdapter object at 0x06FB1830>, *a=('DELETE FROM palabra_ejemplo WHERE ((palabra_ejemplo.ejemplo = 0) OR False);',), **b={})"
p3140
sg3098
S'execute'
p3141
sa(dp3142
g3089
S'D:\\Dise\xf1o Web\\Proyectos\\Parleyweb\\web2py\\gluon\\dal.py'
p3143
sg3091
(dp3144
sg3093
I1386
sg3094
(dp3145
sg3096
S"(self=<gluon.dal.SQLiteAdapter object at 0x06FB1830>, *a=('DELETE FROM palabra_ejemplo WHERE ((palabra_ejemplo.ejemplo = 0) OR False);',), **b={})"
p3146
sg3098
S'log_execute'
p3147
sasS'pyver'
p3148
S'Python 2.5.4: D:\\Dise\xf1o Web\\Proyectos\\Parleyweb\\web2py\\web2py.exe'
p3149
sS'session'
p3150
g53
(g54
g55
NtRp3151
(dp3152
g58
(dp3153
sg60
(lp3154
g53
(g62
g55
NtRp3155
(dp3156
g58
(dp3157
g66
I5
ssg67
Nsg60
(lp3158
sbasbsS'etype'
p3159
S"<class 'sqlite3.OperationalError'>"
p3160
sS'date'
p3161
S'Thu Mar 15 14:54:51 2012'
p3162
sS'response'
p3163
g53
(g54
g55
NtRp3164
(dp3165
g58
(dp3166
sg60
(lp3167
g53
(g62
g55
NtRp3168
(dp3169
g58
(dp3170
g66
I5
ssg67
Nsg60
(lp3171
g53
(g69
g55
NtRp3172
(dp3173
g58
(dp3174
sg67
g3168
sg60
(lp3175
g53
(g74
g55
NtRp3176
(dp3177
g58
(dp3178
g78
g79
ssg67
g3172
sg60
(lp3179
g127
asbag53
(g74
g55
NtRp3180
(dp3181
g58
(dp3182
g85
g86
ssg67
g3172
sg60
(lp3183
S':'
asbag53
(g74
g55
NtRp3184
(dp3185
g58
(dp3186
sg67
g3172
sg60
(lp3187
g53
(g54
g55
NtRp3188
(dp3189
g58
(dp3190
g66
I5
ssg67
g3184
sg60
(lp3191
S'<cStringIO.StringO object at 0x0663CBA0>'
p3192
asbasbasbag53
(g69
g55
NtRp3193
(dp3194
g58
(dp3195
sg67
g3168
sg60
(lp3196
g53
(g74
g55
NtRp3197
(dp3198
g58
(dp3199
g78
g79
ssg67
g3193
sg60
(lp3200
g193
asbag53
(g74
g55
NtRp3201
(dp3202
g58
(dp3203
g85
g86
ssg67
g3193
sg60
(lp3204
S':'
asbag53
(g74
g55
NtRp3205
(dp3206
g58
(dp3207
sg67
g3193
sg60
(lp3208
g53
(g54
g55
NtRp3209
(dp3210
g58
(dp3211
g66
I5
ssg67
g3205
sg60
(lp3212
g53
(g62
g55
NtRp3213
(dp3214
g58
(dp3215
g66
I4
ssg67
Nsg60
(lp3216
g53
(g69
g55
NtRp3217
(dp3218
g58
(dp3219
sg67
g3213
sg60
(lp3220
g53
(g74
g55
NtRp3221
(dp3222
g58
(dp3223
g78
g79
ssg67
g3217
sg60
(lp3224
S'session_id_parleyweb'
p3225
asbag53
(g74
g55
NtRp3226
(dp3227
g58
(dp3228
g85
g86
ssg67
g3217
sg60
(lp3229
S':'
asbag53
(g74
g55
NtRp3230
(dp3231
g58
(dp3232
sg67
g3217
sg60
(lp3233
g53
(g54
g55
NtRp3234
(dp3235
g58
(dp3236
g66
I4
ssg67
g3230
sg60
(lp3237
g53
(g62
g55
NtRp3238
(dp3239
g58
(dp3240
g66
I3
ssg67
Nsg60
(lp3241
g53
(g69
g55
NtRp3242
(dp3243
g58
(dp3244
sg67
g3238
sg60
(lp3245
g53
(g74
g55
NtRp3246
(dp3247
g58
(dp3248
g78
g79
ssg67
g3242
sg60
(lp3249
g243
asbag53
(g74
g55
NtRp3250
(dp3251
g58
(dp3252
g85
g86
ssg67
g3242
sg60
(lp3253
S':'
asbag53
(g74
g55
NtRp3254
(dp3255
g58
(dp3256
sg67
g3242
sg60
(lp3257
g53
(g54
g55
NtRp3258
(dp3259
g58
(dp3260
g66
I3
ssg67
g3254
sg60
(lp3261
S''
asbasbasbag53
(g69
g55
NtRp3262
(dp3263
g58
(dp3264
sg67
g3238
sg60
(lp3265
g53
(g74
g55
NtRp3266
(dp3267
g58
(dp3268
g78
g79
ssg67
g3262
sg60
(lp3269
g264
asbag53
(g74
g55
NtRp3270
(dp3271
g58
(dp3272
g85
g86
ssg67
g3262
sg60
(lp3273
S':'
asbag53
(g74
g55
NtRp3274
(dp3275
g58
(dp3276
sg67
g3262
sg60
(lp3277
g53
(g54
g55
NtRp3278
(dp3279
g58
(dp3280
g66
I3
ssg67
g3274
sg60
(lp3281
S''
asbasbasbag53
(g69
g55
NtRp3282
(dp3283
g58
(dp3284
sg67
g3238
sg60
(lp3285
g53
(g74
g55
NtRp3286
(dp3287
g58
(dp3288
g78
g79
ssg67
g3282
sg60
(lp3289
g285
asbag53
(g74
g55
NtRp3290
(dp3291
g58
(dp3292
g85
g86
ssg67
g3282
sg60
(lp3293
S':'
asbag53
(g74
g55
NtRp3294
(dp3295
g58
(dp3296
sg67
g3282
sg60
(lp3297
g53
(g54
g55
NtRp3298
(dp3299
g58
(dp3300
g66
I3
ssg67
g3294
sg60
(lp3301
S''
asbasbasbag53
(g69
g55
NtRp3302
(dp3303
g58
(dp3304
sg67
g3238
sg60
(lp3305
g53
(g74
g55
NtRp3306
(dp3307
g58
(dp3308
g78
g79
ssg67
g3302
sg60
(lp3309
g306
asbag53
(g74
g55
NtRp3310
(dp3311
g58
(dp3312
g85
g86
ssg67
g3302
sg60
(lp3313
S':'
asbag53
(g74
g55
NtRp3314
(dp3315
g58
(dp3316
sg67
g3302
sg60
(lp3317
g53
(g54
g55
NtRp3318
(dp3319
g58
(dp3320
g66
I3
ssg67
g3314
sg60
(lp3321
S''
asbasbasbag53
(g69
g55
NtRp3322
(dp3323
g58
(dp3324
sg67
g3238
sg60
(lp3325
g53
(g74
g55
NtRp3326
(dp3327
g58
(dp3328
g78
g79
ssg67
g3322
sg60
(lp3329
g327
asbag53
(g74
g55
NtRp3330
(dp3331
g58
(dp3332
g85
g86
ssg67
g3322
sg60
(lp3333
S':'
asbag53
(g74
g55
NtRp3334
(dp3335
g58
(dp3336
sg67
g3322
sg60
(lp3337
g53
(g54
g55
NtRp3338
(dp3339
g58
(dp3340
g66
I3
ssg67
g3334
sg60
(lp3341
S'/'
asbasbasbag53
(g69
g55
NtRp3342
(dp3343
g58
(dp3344
sg67
g3238
sg60
(lp3345
g53
(g74
g55
NtRp3346
(dp3347
g58
(dp3348
g78
g79
ssg67
g3342
sg60
(lp3349
g348
asbag53
(g74
g55
NtRp3350
(dp3351
g58
(dp3352
g85
g86
ssg67
g3342
sg60
(lp3353
S':'
asbag53
(g74
g55
NtRp3354
(dp3355
g58
(dp3356
sg67
g3342
sg60
(lp3357
g53
(g54
g55
NtRp3358
(dp3359
g58
(dp3360
g66
I3
ssg67
g3354
sg60
(lp3361
S''
asbasbasbag53
(g69
g55
NtRp3362
(dp3363
g58
(dp3364
sg67
g3238
sg60
(lp3365
g53
(g74
g55
NtRp3366
(dp3367
g58
(dp3368
g78
g79
ssg67
g3362
sg60
(lp3369
g369
asbag53
(g74
g55
NtRp3370
(dp3371
g58
(dp3372
g85
g86
ssg67
g3362
sg60
(lp3373
S':'
asbag53
(g74
g55
NtRp3374
(dp3375
g58
(dp3376
sg67
g3362
sg60
(lp3377
g53
(g54
g55
NtRp3378
(dp3379
g58
(dp3380
g66
I3
ssg67
g3374
sg60
(lp3381
S''
asbasbasbasbasbasbasbasbasbasbasbag53
(g69
g55
NtRp3382
(dp3383
g58
(dp3384
sg67
g3168
sg60
(lp3385
g53
(g74
g55
NtRp3386
(dp3387
g58
(dp3388
g78
g79
ssg67
g3382
sg60
(lp3389
S'delimiters'
p3390
asbag53
(g74
g55
NtRp3391
(dp3392
g58
(dp3393
g85
g86
ssg67
g3382
sg60
(lp3394
S':'
asbag53
(g74
g55
NtRp3395
(dp3396
g58
(dp3397
sg67
g3382
sg60
(lp3398
g53
(g54
g55
NtRp3399
(dp3400
g58
(dp3401
g66
I5
ssg67
g3395
sg60
(lp3402
g53
(g62
g55
NtRp3403
(dp3404
g58
(dp3405
g66
I4
ssg67
Nsg60
(lp3406
g53
(g69
g55
NtRp3407
(dp3408
g58
(dp3409
sg67
g3403
sg60
(lp3410
g53
(g74
g55
NtRp3411
(dp3412
g58
(dp3413
sg67
g3407
sg60
(lp3414
g53
(g54
g55
NtRp3415
(dp3416
g58
(dp3417
g66
I4
ssg67
g3411
sg60
(lp3418
S'{{'
p3419
asbasbasbag53
(g69
g55
NtRp3420
(dp3421
g58
(dp3422
sg67
g3403
sg60
(lp3423
g53
(g74
g55
NtRp3424
(dp3425
g58
(dp3426
sg67
g3420
sg60
(lp3427
g53
(g54
g55
NtRp3428
(dp3429
g58
(dp3430
g66
I4
ssg67
g3424
sg60
(lp3431
S'}}'
p3432
asbasbasbasbasbasbasbag53
(g69
g55
NtRp3433
(dp3434
g58
(dp3435
sg67
g3168
sg60
(lp3436
g53
(g74
g55
NtRp3437
(dp3438
g58
(dp3439
g78
g79
ssg67
g3433
sg60
(lp3440
S'files'
p3441
asbag53
(g74
g55
NtRp3442
(dp3443
g58
(dp3444
g85
g86
ssg67
g3433
sg60
(lp3445
S':'
asbag53
(g74
g55
NtRp3446
(dp3447
g58
(dp3448
sg67
g3433
sg60
(lp3449
g53
(g54
g55
NtRp3450
(dp3451
g58
(dp3452
g66
I5
ssg67
g3446
sg60
(lp3453
g53
(g62
g55
NtRp3454
(dp3455
g58
(dp3456
g66
I4
ssg67
Nsg60
(lp3457
sbasbasbasbag53
(g69
g55
NtRp3458
(dp3459
g58
(dp3460
sg67
g3168
sg60
(lp3461
g53
(g74
g55
NtRp3462
(dp3463
g58
(dp3464
g78
g79
ssg67
g3458
sg60
(lp3465
S'flash'
p3466
asbag53
(g74
g55
NtRp3467
(dp3468
g58
(dp3469
g85
g86
ssg67
g3458
sg60
(lp3470
S':'
asbag53
(g74
g55
NtRp3471
(dp3472
g58
(dp3473
sg67
g3458
sg60
(lp3474
g53
(g54
g55
NtRp3475
(dp3476
g58
(dp3477
g66
I5
ssg67
g3471
sg60
(lp3478
S''
asbasbasbag53
(g69
g55
NtRp3479
(dp3480
g58
(dp3481
sg67
g3168
sg60
(lp3482
g53
(g74
g55
NtRp3483
(dp3484
g58
(dp3485
g78
g79
ssg67
g3479
sg60
(lp3486
S'generic_patterns'
p3487
asbag53
(g74
g55
NtRp3488
(dp3489
g58
(dp3490
g85
g86
ssg67
g3479
sg60
(lp3491
S':'
asbag53
(g74
g55
NtRp3492
(dp3493
g58
(dp3494
sg67
g3479
sg60
(lp3495
g53
(g54
g55
NtRp3496
(dp3497
g58
(dp3498
g66
I5
ssg67
g3492
sg60
(lp3499
g53
(g62
g55
NtRp3500
(dp3501
g58
(dp3502
g66
I4
ssg67
Nsg60
(lp3503
g53
(g69
g55
NtRp3504
(dp3505
g58
(dp3506
sg67
g3500
sg60
(lp3507
g53
(g74
g55
NtRp3508
(dp3509
g58
(dp3510
sg67
g3504
sg60
(lp3511
g53
(g54
g55
NtRp3512
(dp3513
g58
(dp3514
g66
I4
ssg67
g3508
sg60
(lp3515
S'*'
asbasbasbasbasbasbasbag53
(g69
g55
NtRp3516
(dp3517
g58
(dp3518
sg67
g3168
sg60
(lp3519
g53
(g74
g55
NtRp3520
(dp3521
g58
(dp3522
g78
g79
ssg67
g3516
sg60
(lp3523
S'headers'
p3524
asbag53
(g74
g55
NtRp3525
(dp3526
g58
(dp3527
g85
g86
ssg67
g3516
sg60
(lp3528
S':'
asbag53
(g74
g55
NtRp3529
(dp3530
g58
(dp3531
sg67
g3516
sg60
(lp3532
g53
(g54
g55
NtRp3533
(dp3534
g58
(dp3535
g66
I5
ssg67
g3529
sg60
(lp3536
g53
(g62
g55
NtRp3537
(dp3538
g58
(dp3539
g66
I4
ssg67
Nsg60
(lp3540
g53
(g69
g55
NtRp3541
(dp3542
g58
(dp3543
sg67
g3537
sg60
(lp3544
g53
(g74
g55
NtRp3545
(dp3546
g58
(dp3547
g78
g79
ssg67
g3541
sg60
(lp3548
S'Cache-Control'
p3549
asbag53
(g74
g55
NtRp3550
(dp3551
g58
(dp3552
g85
g86
ssg67
g3541
sg60
(lp3553
S':'
asbag53
(g74
g55
NtRp3554
(dp3555
g58
(dp3556
sg67
g3541
sg60
(lp3557
g53
(g54
g55
NtRp3558
(dp3559
g58
(dp3560
g66
I4
ssg67
g3554
sg60
(lp3561
S'no-store, no-cache, must-revalidate, post-check=0, pre-check=0'
p3562
asbasbasbag53
(g69
g55
NtRp3563
(dp3564
g58
(dp3565
sg67
g3537
sg60
(lp3566
g53
(g74
g55
NtRp3567
(dp3568
g58
(dp3569
g78
g79
ssg67
g3563
sg60
(lp3570
S'Content-Type'
p3571
asbag53
(g74
g55
NtRp3572
(dp3573
g58
(dp3574
g85
g86
ssg67
g3563
sg60
(lp3575
S':'
asbag53
(g74
g55
NtRp3576
(dp3577
g58
(dp3578
sg67
g3563
sg60
(lp3579
g53
(g54
g55
NtRp3580
(dp3581
g58
(dp3582
g66
I4
ssg67
g3576
sg60
(lp3583
S'text/html; charset=utf-8'
p3584
asbasbasbag53
(g69
g55
NtRp3585
(dp3586
g58
(dp3587
sg67
g3537
sg60
(lp3588
g53
(g74
g55
NtRp3589
(dp3590
g58
(dp3591
g78
g79
ssg67
g3585
sg60
(lp3592
S'Expires'
p3593
asbag53
(g74
g55
NtRp3594
(dp3595
g58
(dp3596
g85
g86
ssg67
g3585
sg60
(lp3597
S':'
asbag53
(g74
g55
NtRp3598
(dp3599
g58
(dp3600
sg67
g3585
sg60
(lp3601
g53
(g54
g55
NtRp3602
(dp3603
g58
(dp3604
g66
I4
ssg67
g3598
sg60
(lp3605
S'Thu, 15 Mar 2012 13:54:51 GMT'
p3606
asbasbasbag53
(g69
g55
NtRp3607
(dp3608
g58
(dp3609
sg67
g3537
sg60
(lp3610
g53
(g74
g55
NtRp3611
(dp3612
g58
(dp3613
g78
g79
ssg67
g3607
sg60
(lp3614
S'Pragma'
p3615
asbag53
(g74
g55
NtRp3616
(dp3617
g58
(dp3618
g85
g86
ssg67
g3607
sg60
(lp3619
S':'
asbag53
(g74
g55
NtRp3620
(dp3621
g58
(dp3622
sg67
g3607
sg60
(lp3623
g53
(g54
g55
NtRp3624
(dp3625
g58
(dp3626
g66
I4
ssg67
g3620
sg60
(lp3627
S'no-cache'
p3628
asbasbasbag53
(g69
g55
NtRp3629
(dp3630
g58
(dp3631
sg67
g3537
sg60
(lp3632
g53
(g74
g55
NtRp3633
(dp3634
g58
(dp3635
g78
g79
ssg67
g3629
sg60
(lp3636
S'X-Powered-By'
p3637
asbag53
(g74
g55
NtRp3638
(dp3639
g58
(dp3640
g85
g86
ssg67
g3629
sg60
(lp3641
S':'
asbag53
(g74
g55
NtRp3642
(dp3643
g58
(dp3644
sg67
g3629
sg60
(lp3645
g53
(g54
g55
NtRp3646
(dp3647
g58
(dp3648
g66
I4
ssg67
g3642
sg60
(lp3649
S'web2py'
p3650
asbasbasbasbasbasbasbag53
(g69
g55
NtRp3651
(dp3652
g58
(dp3653
sg67
g3168
sg60
(lp3654
g53
(g74
g55
NtRp3655
(dp3656
g58
(dp3657
g78
g79
ssg67
g3651
sg60
(lp3658
S'menu'
p3659
asbag53
(g74
g55
NtRp3660
(dp3661
g58
(dp3662
g85
g86
ssg67
g3651
sg60
(lp3663
S':'
asbag53
(g74
g55
NtRp3664
(dp3665
g58
(dp3666
sg67
g3651
sg60
(lp3667
g53
(g54
g55
NtRp3668
(dp3669
g58
(dp3670
g66
I5
ssg67
g3664
sg60
(lp3671
g53
(g62
g55
NtRp3672
(dp3673
g58
(dp3674
g66
I4
ssg67
Nsg60
(lp3675
g53
(g69
g55
NtRp3676
(dp3677
g58
(dp3678
sg67
g3672
sg60
(lp3679
g53
(g74
g55
NtRp3680
(dp3681
g58
(dp3682
sg67
g3676
sg60
(lp3683
g53
(g54
g55
NtRp3684
(dp3685
g58
(dp3686
g66
I4
ssg67
g3680
sg60
(lp3687
g53
(g62
g55
NtRp3688
(dp3689
g58
(dp3690
g66
I3
ssg67
Nsg60
(lp3691
g53
(g69
g55
NtRp3692
(dp3693
g58
(dp3694
sg67
g3688
sg60
(lp3695
g53
(g74
g55
NtRp3696
(dp3697
g58
(dp3698
sg67
g3692
sg60
(lp3699
g53
(g54
g55
NtRp3700
(dp3701
g58
(dp3702
g66
I3
ssg67
g3696
sg60
(lp3703
cgluon.languages
lazyT_unpickle
p3704
(S't\x04\x00\x00\x00Home'
tRp3705
asbasbasbag53
(g69
g55
NtRp3706
(dp3707
g58
(dp3708
sg67
g3688
sg60
(lp3709
g53
(g74
g55
NtRp3710
(dp3711
g58
(dp3712
sg67
g3706
sg60
(lp3713
g53
(g54
g55
NtRp3714
(dp3715
g58
(dp3716
g66
I3
ssg67
g3710
sg60
(lp3717
g96
asbasbasbag53
(g69
g55
NtRp3718
(dp3719
g58
(dp3720
sg67
g3688
sg60
(lp3721
g53
(g74
g55
NtRp3722
(dp3723
g58
(dp3724
sg67
g3718
sg60
(lp3725
g53
(g54
g55
NtRp3726
(dp3727
g58
(dp3728
g66
I3
ssg67
g3722
sg60
(lp3729
S'/parleyweb/default/index'
p3730
asbasbasbag53
(g69
g55
NtRp3731
(dp3732
g58
(dp3733
sg67
g3688
sg60
(lp3734
g53
(g74
g55
NtRp3735
(dp3736
g58
(dp3737
sg67
g3731
sg60
(lp3738
g53
(g54
g55
NtRp3739
(dp3740
g58
(dp3741
g66
I3
ssg67
g3735
sg60
(lp3742
g53
(g62
g55
NtRp3743
(dp3744
g58
(dp3745
g66
I2
ssg67
Nsg60
(lp3746
sbasbasbasbasbasbasbasbasbasbasbasbag53
(g69
g55
NtRp3747
(dp3748
g58
(dp3749
sg67
g3168
sg60
(lp3750
g53
(g74
g55
NtRp3751
(dp3752
g58
(dp3753
g78
g79
ssg67
g3747
sg60
(lp3754
S'meta'
p3755
asbag53
(g74
g55
NtRp3756
(dp3757
g58
(dp3758
g85
g86
ssg67
g3747
sg60
(lp3759
S':'
asbag53
(g74
g55
NtRp3760
(dp3761
g58
(dp3762
sg67
g3747
sg60
(lp3763
g53
(g54
g55
NtRp3764
(dp3765
g58
(dp3766
g66
I5
ssg67
g3760
sg60
(lp3767
g53
(g62
g55
NtRp3768
(dp3769
g58
(dp3770
g66
I4
ssg67
Nsg60
(lp3771
g53
(g69
g55
NtRp3772
(dp3773
g58
(dp3774
sg67
g3768
sg60
(lp3775
g53
(g74
g55
NtRp3776
(dp3777
g58
(dp3778
g78
g79
ssg67
g3772
sg60
(lp3779
S'author'
p3780
asbag53
(g74
g55
NtRp3781
(dp3782
g58
(dp3783
g85
g86
ssg67
g3772
sg60
(lp3784
S':'
asbag53
(g74
g55
NtRp3785
(dp3786
g58
(dp3787
sg67
g3772
sg60
(lp3788
g53
(g54
g55
NtRp3789
(dp3790
g58
(dp3791
g66
I4
ssg67
g3785
sg60
(lp3792
S'Your Name <you@example.com>'
p3793
asbasbasbag53
(g69
g55
NtRp3794
(dp3795
g58
(dp3796
sg67
g3768
sg60
(lp3797
g53
(g74
g55
NtRp3798
(dp3799
g58
(dp3800
g78
g79
ssg67
g3794
sg60
(lp3801
S'copyright'
p3802
asbag53
(g74
g55
NtRp3803
(dp3804
g58
(dp3805
g85
g86
ssg67
g3794
sg60
(lp3806
S':'
asbag53
(g74
g55
NtRp3807
(dp3808
g58
(dp3809
sg67
g3794
sg60
(lp3810
g53
(g54
g55
NtRp3811
(dp3812
g58
(dp3813
g66
I4
ssg67
g3807
sg60
(lp3814
S'Copyright 2011'
p3815
asbasbasbag53
(g69
g55
NtRp3816
(dp3817
g58
(dp3818
sg67
g3768
sg60
(lp3819
g53
(g74
g55
NtRp3820
(dp3821
g58
(dp3822
g78
g79
ssg67
g3816
sg60
(lp3823
S'description'
p3824
asbag53
(g74
g55
NtRp3825
(dp3826
g58
(dp3827
g85
g86
ssg67
g3816
sg60
(lp3828
S':'
asbag53
(g74
g55
NtRp3829
(dp3830
g58
(dp3831
sg67
g3816
sg60
(lp3832
g53
(g54
g55
NtRp3833
(dp3834
g58
(dp3835
g66
I4
ssg67
g3829
sg60
(lp3836
S'a cool new app'
p3837
asbasbasbag53
(g69
g55
NtRp3838
(dp3839
g58
(dp3840
sg67
g3768
sg60
(lp3841
g53
(g74
g55
NtRp3842
(dp3843
g58
(dp3844
g78
g79
ssg67
g3838
sg60
(lp3845
S'generator'
p3846
asbag53
(g74
g55
NtRp3847
(dp3848
g58
(dp3849
g85
g86
ssg67
g3838
sg60
(lp3850
S':'
asbag53
(g74
g55
NtRp3851
(dp3852
g58
(dp3853
sg67
g3838
sg60
(lp3854
g53
(g54
g55
NtRp3855
(dp3856
g58
(dp3857
g66
I4
ssg67
g3851
sg60
(lp3858
S'Web2py Web Framework'
p3859
asbasbasbag53
(g69
g55
NtRp3860
(dp3861
g58
(dp3862
sg67
g3768
sg60
(lp3863
g53
(g74
g55
NtRp3864
(dp3865
g58
(dp3866
g78
g79
ssg67
g3860
sg60
(lp3867
S'keywords'
p3868
asbag53
(g74
g55
NtRp3869
(dp3870
g58
(dp3871
g85
g86
ssg67
g3860
sg60
(lp3872
S':'
asbag53
(g74
g55
NtRp3873
(dp3874
g58
(dp3875
sg67
g3860
sg60
(lp3876
g53
(g54
g55
NtRp3877
(dp3878
g58
(dp3879
g66
I4
ssg67
g3873
sg60
(lp3880
S'web2py, python, framework'
p3881
asbasbasbasbasbasbasbag53
(g69
g55
NtRp3882
(dp3883
g58
(dp3884
sg67
g3168
sg60
(lp3885
g53
(g74
g55
NtRp3886
(dp3887
g58
(dp3888
g78
g79
ssg67
g3882
sg60
(lp3889
S'postprocessing'
p3890
asbag53
(g74
g55
NtRp3891
(dp3892
g58
(dp3893
g85
g86
ssg67
g3882
sg60
(lp3894
S':'
asbag53
(g74
g55
NtRp3895
(dp3896
g58
(dp3897
sg67
g3882
sg60
(lp3898
g53
(g54
g55
NtRp3899
(dp3900
g58
(dp3901
g66
I5
ssg67
g3895
sg60
(lp3902
g53
(g62
g55
NtRp3903
(dp3904
g58
(dp3905
g66
I4
ssg67
Nsg60
(lp3906
sbasbasbasbag53
(g69
g55
NtRp3907
(dp3908
g58
(dp3909
sg67
g3168
sg60
(lp3910
g53
(g74
g55
NtRp3911
(dp3912
g58
(dp3913
g78
g79
ssg67
g3907
sg60
(lp3914
S'session_file'
p3915
asbag53
(g74
g55
NtRp3916
(dp3917
g58
(dp3918
g85
g86
ssg67
g3907
sg60
(lp3919
S':'
asbag53
(g74
g55
NtRp3920
(dp3921
g58
(dp3922
sg67
g3907
sg60
(lp3923
g53
(g54
g55
NtRp3924
(dp3925
g58
(dp3926
g66
I5
ssg67
g3920
sg60
(lp3927
S"<open file 'D:\\Dise\xf1o Web\\Proyectos\\Parleyweb\\web2py\\applications\\parleyweb\\sessions\\127.0.0.1-8bc0d624-a7ac-4822-aaf0-ed4b06ce8341', mode 'rb+' at 0x0739D920>"
p3928
asbasbasbag53
(g69
g55
NtRp3929
(dp3930
g58
(dp3931
sg67
g3168
sg60
(lp3932
g53
(g74
g55
NtRp3933
(dp3934
g58
(dp3935
g78
g79
ssg67
g3929
sg60
(lp3936
S'session_filename'
p3937
asbag53
(g74
g55
NtRp3938
(dp3939
g58
(dp3940
g85
g86
ssg67
g3929
sg60
(lp3941
S':'
asbag53
(g74
g55
NtRp3942
(dp3943
g58
(dp3944
sg67
g3929
sg60
(lp3945
g53
(g54
g55
NtRp3946
(dp3947
g58
(dp3948
g66
I5
ssg67
g3942
sg60
(lp3949
S'D:\\Dise\xf1o Web\\Proyectos\\Parleyweb\\web2py\\applications\\parleyweb\\sessions\\127.0.0.1-8bc0d624-a7ac-4822-aaf0-ed4b06ce8341'
p3950
asbasbasbag53
(g69
g55
NtRp3951
(dp3952
g58
(dp3953
sg67
g3168
sg60
(lp3954
g53
(g74
g55
NtRp3955
(dp3956
g58
(dp3957
g78
g79
ssg67
g3951
sg60
(lp3958
S'session_id'
p3959
asbag53
(g74
g55
NtRp3960
(dp3961
g58
(dp3962
g85
g86
ssg67
g3951
sg60
(lp3963
S':'
asbag53
(g74
g55
NtRp3964
(dp3965
g58
(dp3966
sg67
g3951
sg60
(lp3967
g53
(g54
g55
NtRp3968
(dp3969
g58
(dp3970
g66
I5
ssg67
g3964
sg60
(lp3971
S'127.0.0.1-8bc0d624-a7ac-4822-aaf0-ed4b06ce8341'
p3972
asbasbasbag53
(g69
g55
NtRp3973
(dp3974
g58
(dp3975
sg67
g3168
sg60
(lp3976
g53
(g74
g55
NtRp3977
(dp3978
g58
(dp3979
g78
g79
ssg67
g3973
sg60
(lp3980
S'session_id_name'
p3981
asbag53
(g74
g55
NtRp3982
(dp3983
g58
(dp3984
g85
g86
ssg67
g3973
sg60
(lp3985
S':'
asbag53
(g74
g55
NtRp3986
(dp3987
g58
(dp3988
sg67
g3973
sg60
(lp3989
g53
(g54
g55
NtRp3990
(dp3991
g58
(dp3992
g66
I5
ssg67
g3986
sg60
(lp3993
g3225
asbasbasbag53
(g69
g55
NtRp3994
(dp3995
g58
(dp3996
sg67
g3168
sg60
(lp3997
g53
(g74
g55
NtRp3998
(dp3999
g58
(dp4000
g78
g79
ssg67
g3994
sg60
(lp4001
S'session_locked'
p4002
asbag53
(g74
g55
NtRp4003
(dp4004
g58
(dp4005
g85
g86
ssg67
g3994
sg60
(lp4006
S':'
asbag53
(g74
g55
NtRp4007
(dp4008
g58
(dp4009
sg67
g3994
sg60
(lp4010
g53
(g54
g55
NtRp4011
(dp4012
g58
(dp4013
g66
I5
ssg67
g4007
sg60
(lp4014
g1553
asbasbasbag53
(g69
g55
NtRp4015
(dp4016
g58
(dp4017
sg67
g3168
sg60
(lp4018
g53
(g74
g55
NtRp4019
(dp4020
g58
(dp4021
g78
g79
ssg67
g4015
sg60
(lp4022
S'session_new'
p4023
asbag53
(g74
g55
NtRp4024
(dp4025
g58
(dp4026
g85
g86
ssg67
g4015
sg60
(lp4027
S':'
asbag53
(g74
g55
NtRp4028
(dp4029
g58
(dp4030
sg67
g4015
sg60
(lp4031
g53
(g54
g55
NtRp4032
(dp4033
g58
(dp4034
g66
I5
ssg67
g4028
sg60
(lp4035
g96
asbasbasbag53
(g69
g55
NtRp4036
(dp4037
g58
(dp4038
sg67
g3168
sg60
(lp4039
g53
(g74
g55
NtRp4040
(dp4041
g58
(dp4042
g78
g79
ssg67
g4036
sg60
(lp4043
S'status'
p4044
asbag53
(g74
g55
NtRp4045
(dp4046
g58
(dp4047
g85
g86
ssg67
g4036
sg60
(lp4048
S':'
asbag53
(g74
g55
NtRp4049
(dp4050
g58
(dp4051
sg67
g4036
sg60
(lp4052
g53
(g54
g55
NtRp4053
(dp4054
g58
(dp4055
g66
I5
ssg67
g4049
sg60
(lp4056
S'200'
p4057
asbasbasbag53
(g69
g55
NtRp4058
(dp4059
g58
(dp4060
sg67
g3168
sg60
(lp4061
g53
(g74
g55
NtRp4062
(dp4063
g58
(dp4064
g78
g79
ssg67
g4058
sg60
(lp4065
S'subtitle'
p4066
asbag53
(g74
g55
NtRp4067
(dp4068
g58
(dp4069
g85
g86
ssg67
g4058
sg60
(lp4070
S':'
asbag53
(g74
g55
NtRp4071
(dp4072
g58
(dp4073
sg67
g4058
sg60
(lp4074
g53
(g54
g55
NtRp4075
(dp4076
g58
(dp4077
g66
I5
ssg67
g4071
sg60
(lp4078
g3704
(S's\t\x00\x00\x00Adaptame!'
tRp4079
asbasbasbag53
(g69
g55
NtRp4080
(dp4081
g58
(dp4082
sg67
g3168
sg60
(lp4083
g53
(g74
g55
NtRp4084
(dp4085
g58
(dp4086
g78
g79
ssg67
g4080
sg60
(lp4087
S'title'
p4088
asbag53
(g74
g55
NtRp4089
(dp4090
g58
(dp4091
g85
g86
ssg67
g4080
sg60
(lp4092
S':'
asbag53
(g74
g55
NtRp4093
(dp4094
g58
(dp4095
sg67
g4080
sg60
(lp4096
g53
(g54
g55
NtRp4097
(dp4098
g58
(dp4099
g66
I5
ssg67
g4093
sg60
(lp4100
S'Parleyweb'
p4101
asbasbasbag53
(g69
g55
NtRp4102
(dp4103
g58
(dp4104
sg67
g3168
sg60
(lp4105
g53
(g74
g55
NtRp4106
(dp4107
g58
(dp4108
g78
g79
ssg67
g4102
sg60
(lp4109
g2261
asbag53
(g74
g55
NtRp4110
(dp4111
g58
(dp4112
g85
g86
ssg67
g4102
sg60
(lp4113
S':'
asbag53
(g74
g55
NtRp4114
(dp4115
g58
(dp4116
sg67
g4102
sg60
(lp4117
g53
(g54
g55
NtRp4118
(dp4119
g58
(dp4120
g66
I5
ssg67
g4114
sg60
(lp4121
g2274
asbasbasbag53
(g69
g55
NtRp4122
(dp4123
g58
(dp4124
sg67
g3168
sg60
(lp4125
g53
(g74
g55
NtRp4126
(dp4127
g58
(dp4128
g78
g79
ssg67
g4122
sg60
(lp4129
S'view'
p4130
asbag53
(g74
g55
NtRp4131
(dp4132
g58
(dp4133
g85
g86
ssg67
g4122
sg60
(lp4134
S':'
asbag53
(g74
g55
NtRp4135
(dp4136
g58
(dp4137
sg67
g4122
sg60
(lp4138
g53
(g54
g55
NtRp4139
(dp4140
g58
(dp4141
g66
I5
ssg67
g4135
sg60
(lp4142
S'admin/relacionar.html'
p4143
asbasbasbasbasbsS'locals'
p4144
(dp4145
S'a'
S"('DELETE FROM palabra_ejemplo WHERE ((palabra_ejemplo.ejemplo = 0) OR False);',)"
p4146
sS'self'
p4147
S'<gluon.dal.SQLiteAdapter object at 0x06FB1830>'
p4148
sS'b'
g41
sS't0'
p4149
S'1331819691.8210001'
p4150
sssS'traceback'
p4151
S'Traceback (most recent call last):\n  File "gluon/restricted.py", line 205, in restricted\n  File "D:\\Dise\xf1o Web\\Proyectos\\Parleyweb\\web2py\\applications\\parleyweb\\controllers/admin.py", line 261, in <module>\n  File "gluon/globals.py", line 173, in <lambda>\n  File "D:\\Dise\xf1o Web\\Proyectos\\Parleyweb\\web2py\\applications\\parleyweb\\controllers/admin.py", line 240, in relacionar\n  File "gluon/dal.py", line 7583, in delete\n  File "gluon/dal.py", line 1139, in delete\n  File "gluon/dal.py", line 1392, in execute\n  File "gluon/dal.py", line 1386, in log_execute\nOperationalError: no such column: False\n'
p4152
s.