(dp1
S'output'
p2
S"<type 'exceptions.TypeError'> 'str' object is not callable"
p3
sS'layer'
p4
S'D:\\Dise\xf1o Web\\Proyectos\\Parleyweb\\web2py\\applications\\parleyweb\\views\\admin/relacionar.html'
p5
sS'code'
p6
S'response.write(\'\\r\\n\', escape=False)\nresponse.write(\'<!DOCTYPE html>\\n<!-- paulirish.com/2008/conditional-stylesheets-vs-css-hacks-answer-neither/ -->\\n<!--[if lt IE 7]><html class="ie ie6 ie-lte9 ie-lte8 ie-lte7 no-js" lang="\', escape=False)\nresponse.write(T.accepted_language or \'en\')\nresponse.write(\'"> <![endif]-->\\n<!--[if IE 7]><html class="ie ie7 ie-lte9 ie-lte8 ie-lte7 no-js" lang="\', escape=False)\nresponse.write(T.accepted_language or \'en\')\nresponse.write(\'"> <![endif]-->\\n<!--[if IE 8]><html class="ie ie8 ie-lte9 ie-lte8 no-js" lang="\', escape=False)\nresponse.write(T.accepted_language or \'en\')\nresponse.write(\'"> <![endif]-->\\n<!--[if IE 9]><html class="ie9 ie-lte9 no-js" lang="\', escape=False)\nresponse.write(T.accepted_language or \'en\')\nresponse.write(\'"> <![endif]-->\\n<!--[if (gt IE 9)|!(IE)]><!--> <html class="no-js" lang="\', escape=False)\nresponse.write(T.accepted_language or \'en\')\nresponse.write(\'"> <!--<![endif]-->\\n<head>\\n  <meta charset="utf-8" />\\n  <!-- www.phpied.com/conditional-comments-block-downloads/ -->\\n  <!-- Always force latest IE rendering engine\\n\\t   (even in intranet) & Chrome Frame\\n\\t   Remove this if you use the .htaccess -->\\n  <!--[if IE]>\\n    <meta http-equiv="X-UA-Compatible" content="IE=edge\', escape=False)\nresponse.write(not request.is_local and \',chrome=1\' or \'\')\nresponse.write(\'">\\n  <![endif]-->\\n  \\n  <title>\', escape=False)\nresponse.write(response.title or request.application)\nresponse.write(\'</title>\\n  \\n  <!-- http://dev.w3.org/html5/markup/meta.name.html -->\\n  <meta name="application-name" content="\', escape=False)\nresponse.write(request.application)\nresponse.write(\'" />\\n  \\n  <!-- Speaking of Google, don\\\'t forget to set your site up:\\n\\t   http://google.com/webmasters -->\\n  <meta name="google-site-verification" content="" />\\n\\n  <!--  Mobile Viewport Fix\\n\\t  j.mp/mobileviewport & davidbcalhoun.com/2010/viewport-metatag\\n\\t  device-width: Occupy full width of the screen in its current orientation\\n\\t  initial-scale = 1.0 retains dimensions instead of zooming out if page height > device height\\n\\t  user-scalable = yes allows the user to zoom in -->\\n  <meta name="viewport" content="width=device-width, initial-scale=1.0, user-scalable=yes">\\n  \\n  <!-- Place favicon.ico and apple-touch-icon.png in the root of your domain and delete these references -->\\n  <link rel="shortcut icon" href="\', escape=False)\nresponse.write(URL(\'static\',\'favicon.ico\'))\nresponse.write(\'" type="image/x-icon">\\n  <link rel="apple-touch-icon" href="\', escape=False)\nresponse.write(URL(\'static\',\'favicon.png\'))\nresponse.write(\'">\\n\\n  <!-- All JavaScript at the bottom, except for Modernizr which enables \\n\\t   HTML5 elements & feature detects -->\\n  <script src="\', escape=False)\nresponse.write(URL(\'static\',\'js/modernizr.custom.js\'))\nresponse.write(\'"></script>  \\n\\n  <!-- include stylesheets -->\\n  \', escape=False)\nresponse.files.append(URL(\'static\',\'css/bootstrap.css\'))\nresponse.files.append(URL(\'static\',\'js/bootstrap.js\'))\nresponse.files.append(URL(\'static\',\'css/parleyweb.css\'))\nresponse.files.append(URL(\'static\',\'css/jquery-ui-1.8.18.custom.css\'))\nresponse.files.append(URL(\'static\',\'js/parleyweb.js\'))\nresponse.files.append(URL(\'static\',\'js/jquery-ui-1.8.18.custom.min.js\'))\nresponse.write(\'\\n\\n  \', escape=False)\nresponse.write(\'<script type="text/javascript"><!--\\n    // These variables are used by the web2py_ajax_init function in web2py_ajax.js (which is loaded below).\\n    var w2p_ajax_confirm_message = "\', escape=False)\nresponse.write(T(\'Are you sure you want to delete this object?\'))\nresponse.write(\'";\\n    var w2p_ajax_date_format = "\', escape=False)\nresponse.write(T(\'%Y-%m-%d\'))\nresponse.write(\'";\\n    var w2p_ajax_datetime_format = "\', escape=False)\nresponse.write(T(\'%Y-%m-%d %H:%M:%S\'))\nresponse.write(\'";\\n    //--></script>\\n\', escape=False)\nresponse.files.insert(0,URL(\'static\',\'js/jquery.js\'))\nresponse.files.insert(1,URL(\'static\',\'css/calendar.css\'))\nresponse.files.insert(2,URL(\'static\',\'js/calendar.js\'))\nresponse.files.insert(3,URL(\'static\',\'js/web2py.js\'))\nresponse.include_meta()\nresponse.include_files()\nresponse.write(\'\\n\', escape=False)\nresponse.write(\'\\n\\n  \\n\\n  \', escape=False)\n# using sidebars need to know what sidebar you want to use\nleft_sidebar_enabled = globals().get(\'left_sidebar_enabled\',False)\nright_sidebar_enabled = globals().get(\'right_sidebar_enabled\',False)\nmiddle_columns = {0:\'sixteen\',1:\'twelve\',2:\'eight\'}[\n(left_sidebar_enabled and 1 or 0)+(right_sidebar_enabled and 1 or 0)]\nresponse.write(\'\\n\\n  <!-- uncomment here to load jquery-ui\\n  <link rel="stylesheet" href="http://ajax.googleapis.com/ajax/libs/jqueryui/1.8.16/themes/base/jquery-ui.css" type="text/css" media="all" />\\n  <script src="http://ajax.googleapis.com/ajax/libs/jqueryui/1.8.16/jquery-ui.min.js" type="text/javascript"></script>\\n  uncomment to load jquery-ui //-->\\n</head>\\n <body>\\n\\n    <div class="navbar navbar-fixed-top">\\n      <div class="navbar-inner">\\n        <div class="container-fluid">\\n          <a class="btn btn-navbar" data-toggle="collapse" data-target=".nav-collapse">\\n            <span class="icon-bar"></span>\\n            <span class="icon-bar"></span>\\n            <span class="icon-bar"></span>\\n          </a>\\n          <a class="brand" href="#">Parleyweb</a>\\n          <div class="nav-collapse">\\n\\t    \', escape=False)\n#=MENU(response.menu, _class="nav active")\nresponse.write(\'\\n            <ul class="nav">\\n              <li>\', escape=False)\nresponse.write(A(T(\'Administracion\'), _href=URL(\'admin\', \'index\')))\nresponse.write(\'</li>\\n            </ul>\\n\\t    \\n            <p class="navbar-text pull-right">\', escape=False)\nresponse.write(\'auth\' in globals() and auth.navbar(separators=(\' \',\' | \',\'\')))\nresponse.write(\'</p>\\n          </div><!--/.nav-collapse -->\\n        </div>\\n      </div>\\n    </div>\\n    <div class="flash alert alert-info"></i>\', escape=False)\nresponse.write(response.flash or \'\')\nresponse.write(\'</div>\\n    <div class="container-fluid">\\n      <div class="row-fluid">\\n        <div class="span3">\\n          <div class="well sidebar-nav">\\n            <ul class="nav nav-list">\\n              <li class="nav-header">\', escape=False)\nresponse.write(T(\'Buscar\'))\nresponse.write(\'</li>\\n            </ul>\\n          </div><!--/.well -->\\n        </div><!--/span-->\\n        <div class="span9">\\n\\t  \', escape=False)\nresponse.write(\'\\n\\t    \', escape=False)\nresponse.write(\'\\r\\n<h1>Esta es la plantilla admin/relacionar.html</h1>\\r\\n\\r\\n\', escape=False)\nresponse.write(request.vars.relacionar(0))\nresponse.write(\'\\r\\n\', escape=False)\nresponse.write(len(a))\nresponse.write(\'\\r\\n\', escape=False)\nresponse.write(tabla)\nresponse.write(\'\\r\\n\', escape=False)\nresponse.write(response.toolbar())\nresponse.write(\'\\r\\n\\r\\n\', escape=False)\nresponse.write(\'\\n\\t  \', escape=False)\nresponse.write("\\n          \\n        </div><!--/span-->\\n      </div><!--/row-->\\n\\n      <hr>\\n\\n      <footer>\\n        <p>\\xc2\\xa9 Company 2012</p>\\n      </footer>\\n\\n    </div><!--/.fluid-container-->\\n    \\n    <!-- Le javascript\\n    ================================================== -->\\n    <!-- Placed at the end of the document so the pages load faster \\n    <script>\\n      $(function () {\\n      $(\'.tabs a:last\').tab(\'show\')\\n      })\\n    </script>-->\\n   \\n\\n \\n\\n</body>\\n</html>\\n", escape=False)'
p7
sS'snapshot'
p8
(dp9
S'exception'
p10
(dp11
S'__hash__'
p12
S"<method-wrapper '__hash__' of exceptions.TypeError object at 0x0727B058>"
p13
sS'__setattr__'
p14
S"<method-wrapper '__setattr__' of exceptions.TypeError object at 0x0727B058>"
p15
sS'__reduce_ex__'
p16
S'<built-in method __reduce_ex__ of exceptions.TypeError object at 0x0727B058>'
p17
sS'__getslice__'
p18
S"<method-wrapper '__getslice__' of exceptions.TypeError object at 0x0727B058>"
p19
sS'__getitem__'
p20
S"<method-wrapper '__getitem__' of exceptions.TypeError object at 0x0727B058>"
p21
sS'__setstate__'
p22
S'<built-in method __setstate__ of exceptions.TypeError object at 0x0727B058>'
p23
sS'__reduce__'
p24
S'<built-in method __reduce__ of exceptions.TypeError object at 0x0727B058>'
p25
sS'__str__'
p26
S"<method-wrapper '__str__' of exceptions.TypeError object at 0x0727B058>"
p27
sS'args'
p28
S'("\'str\' object is not callable",)'
p29
sS'__getattribute__'
p30
S"<method-wrapper '__getattribute__' of exceptions.TypeError object at 0x0727B058>"
p31
sS'__class__'
p32
S"<type 'exceptions.TypeError'>"
p33
sS'__delattr__'
p34
S"<method-wrapper '__delattr__' of exceptions.TypeError object at 0x0727B058>"
p35
sS'__repr__'
p36
S"<method-wrapper '__repr__' of exceptions.TypeError object at 0x0727B058>"
p37
sS'__dict__'
p38
S'{}'
p39
sS'__doc__'
p40
S"'Inappropriate argument type.'"
p41
sS'__init__'
p42
S"<method-wrapper '__init__' of exceptions.TypeError object at 0x0727B058>"
p43
sS'__new__'
p44
S'<built-in method __new__ of type object at 0x1E1CCD78>'
p45
ssS'evalue'
p46
S"'str' object is not callable"
p47
sS'request'
p48
ccopy_reg
_reconstructor
p49
(cgluon.html
BEAUTIFY
p50
c__builtin__
object
p51
NtRp52
(dp53
S'attributes'
p54
(dp55
sS'components'
p56
(lp57
g49
(cgluon.html
TABLE
p58
g51
NtRp59
(dp60
g54
(dp61
S'level'
p62
I5
ssS'parent'
p63
Nsg56
(lp64
g49
(cgluon.html
TR
p65
g51
NtRp66
(dp67
g54
(dp68
sg63
g59
sg56
(lp69
g49
(cgluon.html
TD
p70
g51
NtRp71
(dp72
g54
(dp73
S'_style'
p74
S'font-weight:bold;vertical-align:top'
p75
ssg63
g66
sg56
(lp76
S'ajax'
p77
asbag49
(g70
g51
NtRp78
(dp79
g54
(dp80
S'_valign'
p81
S'top'
p82
ssg63
g66
sg56
(lp83
S':'
asbag49
(g70
g51
NtRp84
(dp85
g54
(dp86
sg63
g66
sg56
(lp87
g49
(g50
g51
NtRp88
(dp89
g54
(dp90
g62
I5
ssg63
g84
sg56
(lp91
S'False'
p92
asbasbasbag49
(g65
g51
NtRp93
(dp94
g54
(dp95
sg63
g59
sg56
(lp96
g49
(g70
g51
NtRp97
(dp98
g54
(dp99
g74
g75
ssg63
g93
sg56
(lp100
S'application'
p101
asbag49
(g70
g51
NtRp102
(dp103
g54
(dp104
g81
g82
ssg63
g93
sg56
(lp105
S':'
asbag49
(g70
g51
NtRp106
(dp107
g54
(dp108
sg63
g93
sg56
(lp109
g49
(g50
g51
NtRp110
(dp111
g54
(dp112
g62
I5
ssg63
g106
sg56
(lp113
S'parleyweb'
p114
asbasbasbag49
(g65
g51
NtRp115
(dp116
g54
(dp117
sg63
g59
sg56
(lp118
g49
(g70
g51
NtRp119
(dp120
g54
(dp121
g74
g75
ssg63
g115
sg56
(lp122
S'body'
p123
asbag49
(g70
g51
NtRp124
(dp125
g54
(dp126
g81
g82
ssg63
g115
sg56
(lp127
S':'
asbag49
(g70
g51
NtRp128
(dp129
g54
(dp130
sg63
g115
sg56
(lp131
g49
(g50
g51
NtRp132
(dp133
g54
(dp134
g62
I5
ssg63
g128
sg56
(lp135
S"<open file '<fdopen>', mode 'w+b' at 0x067EB2F0>"
p136
asbasbasbag49
(g65
g51
NtRp137
(dp138
g54
(dp139
sg63
g59
sg56
(lp140
g49
(g70
g51
NtRp141
(dp142
g54
(dp143
g74
g75
ssg63
g137
sg56
(lp144
S'client'
p145
asbag49
(g70
g51
NtRp146
(dp147
g54
(dp148
g81
g82
ssg63
g137
sg56
(lp149
S':'
asbag49
(g70
g51
NtRp150
(dp151
g54
(dp152
sg63
g137
sg56
(lp153
g49
(g50
g51
NtRp154
(dp155
g54
(dp156
g62
I5
ssg63
g150
sg56
(lp157
S'127.0.0.1'
p158
asbasbasbag49
(g65
g51
NtRp159
(dp160
g54
(dp161
sg63
g59
sg56
(lp162
g49
(g70
g51
NtRp163
(dp164
g54
(dp165
g74
g75
ssg63
g159
sg56
(lp166
S'controller'
p167
asbag49
(g70
g51
NtRp168
(dp169
g54
(dp170
g81
g82
ssg63
g159
sg56
(lp171
S':'
asbag49
(g70
g51
NtRp172
(dp173
g54
(dp174
sg63
g159
sg56
(lp175
g49
(g50
g51
NtRp176
(dp177
g54
(dp178
g62
I5
ssg63
g172
sg56
(lp179
S'admin'
p180
asbasbasbag49
(g65
g51
NtRp181
(dp182
g54
(dp183
sg63
g59
sg56
(lp184
g49
(g70
g51
NtRp185
(dp186
g54
(dp187
g74
g75
ssg63
g181
sg56
(lp188
S'cookies'
p189
asbag49
(g70
g51
NtRp190
(dp191
g54
(dp192
g81
g82
ssg63
g181
sg56
(lp193
S':'
asbag49
(g70
g51
NtRp194
(dp195
g54
(dp196
sg63
g181
sg56
(lp197
g49
(g50
g51
NtRp198
(dp199
g54
(dp200
g62
I5
ssg63
g194
sg56
(lp201
g49
(g58
g51
NtRp202
(dp203
g54
(dp204
g62
I4
ssg63
Nsg56
(lp205
g49
(g65
g51
NtRp206
(dp207
g54
(dp208
sg63
g202
sg56
(lp209
g49
(g70
g51
NtRp210
(dp211
g54
(dp212
g74
g75
ssg63
g206
sg56
(lp213
S'session_id_admin'
p214
asbag49
(g70
g51
NtRp215
(dp216
g54
(dp217
g81
g82
ssg63
g206
sg56
(lp218
S':'
asbag49
(g70
g51
NtRp219
(dp220
g54
(dp221
sg63
g206
sg56
(lp222
g49
(g50
g51
NtRp223
(dp224
g54
(dp225
g62
I4
ssg63
g219
sg56
(lp226
g49
(g58
g51
NtRp227
(dp228
g54
(dp229
g62
I3
ssg63
Nsg56
(lp230
g49
(g65
g51
NtRp231
(dp232
g54
(dp233
sg63
g227
sg56
(lp234
g49
(g70
g51
NtRp235
(dp236
g54
(dp237
g74
g75
ssg63
g231
sg56
(lp238
S'comment'
p239
asbag49
(g70
g51
NtRp240
(dp241
g54
(dp242
g81
g82
ssg63
g231
sg56
(lp243
S':'
asbag49
(g70
g51
NtRp244
(dp245
g54
(dp246
sg63
g231
sg56
(lp247
g49
(g50
g51
NtRp248
(dp249
g54
(dp250
g62
I3
ssg63
g244
sg56
(lp251
S''
asbasbasbag49
(g65
g51
NtRp252
(dp253
g54
(dp254
sg63
g227
sg56
(lp255
g49
(g70
g51
NtRp256
(dp257
g54
(dp258
g74
g75
ssg63
g252
sg56
(lp259
S'domain'
p260
asbag49
(g70
g51
NtRp261
(dp262
g54
(dp263
g81
g82
ssg63
g252
sg56
(lp264
S':'
asbag49
(g70
g51
NtRp265
(dp266
g54
(dp267
sg63
g252
sg56
(lp268
g49
(g50
g51
NtRp269
(dp270
g54
(dp271
g62
I3
ssg63
g265
sg56
(lp272
S''
asbasbasbag49
(g65
g51
NtRp273
(dp274
g54
(dp275
sg63
g227
sg56
(lp276
g49
(g70
g51
NtRp277
(dp278
g54
(dp279
g74
g75
ssg63
g273
sg56
(lp280
S'expires'
p281
asbag49
(g70
g51
NtRp282
(dp283
g54
(dp284
g81
g82
ssg63
g273
sg56
(lp285
S':'
asbag49
(g70
g51
NtRp286
(dp287
g54
(dp288
sg63
g273
sg56
(lp289
g49
(g50
g51
NtRp290
(dp291
g54
(dp292
g62
I3
ssg63
g286
sg56
(lp293
S''
asbasbasbag49
(g65
g51
NtRp294
(dp295
g54
(dp296
sg63
g227
sg56
(lp297
g49
(g70
g51
NtRp298
(dp299
g54
(dp300
g74
g75
ssg63
g294
sg56
(lp301
S'max-age'
p302
asbag49
(g70
g51
NtRp303
(dp304
g54
(dp305
g81
g82
ssg63
g294
sg56
(lp306
S':'
asbag49
(g70
g51
NtRp307
(dp308
g54
(dp309
sg63
g294
sg56
(lp310
g49
(g50
g51
NtRp311
(dp312
g54
(dp313
g62
I3
ssg63
g307
sg56
(lp314
S''
asbasbasbag49
(g65
g51
NtRp315
(dp316
g54
(dp317
sg63
g227
sg56
(lp318
g49
(g70
g51
NtRp319
(dp320
g54
(dp321
g74
g75
ssg63
g315
sg56
(lp322
S'path'
p323
asbag49
(g70
g51
NtRp324
(dp325
g54
(dp326
g81
g82
ssg63
g315
sg56
(lp327
S':'
asbag49
(g70
g51
NtRp328
(dp329
g54
(dp330
sg63
g315
sg56
(lp331
g49
(g50
g51
NtRp332
(dp333
g54
(dp334
g62
I3
ssg63
g328
sg56
(lp335
S''
asbasbasbag49
(g65
g51
NtRp336
(dp337
g54
(dp338
sg63
g227
sg56
(lp339
g49
(g70
g51
NtRp340
(dp341
g54
(dp342
g74
g75
ssg63
g336
sg56
(lp343
S'secure'
p344
asbag49
(g70
g51
NtRp345
(dp346
g54
(dp347
g81
g82
ssg63
g336
sg56
(lp348
S':'
asbag49
(g70
g51
NtRp349
(dp350
g54
(dp351
sg63
g336
sg56
(lp352
g49
(g50
g51
NtRp353
(dp354
g54
(dp355
g62
I3
ssg63
g349
sg56
(lp356
S''
asbasbasbag49
(g65
g51
NtRp357
(dp358
g54
(dp359
sg63
g227
sg56
(lp360
g49
(g70
g51
NtRp361
(dp362
g54
(dp363
g74
g75
ssg63
g357
sg56
(lp364
S'version'
p365
asbag49
(g70
g51
NtRp366
(dp367
g54
(dp368
g81
g82
ssg63
g357
sg56
(lp369
S':'
asbag49
(g70
g51
NtRp370
(dp371
g54
(dp372
sg63
g357
sg56
(lp373
g49
(g50
g51
NtRp374
(dp375
g54
(dp376
g62
I3
ssg63
g370
sg56
(lp377
S''
asbasbasbasbasbasbasbag49
(g65
g51
NtRp378
(dp379
g54
(dp380
sg63
g202
sg56
(lp381
g49
(g70
g51
NtRp382
(dp383
g54
(dp384
g74
g75
ssg63
g378
sg56
(lp385
S'session_id_parleyweb'
p386
asbag49
(g70
g51
NtRp387
(dp388
g54
(dp389
g81
g82
ssg63
g378
sg56
(lp390
S':'
asbag49
(g70
g51
NtRp391
(dp392
g54
(dp393
sg63
g378
sg56
(lp394
g49
(g50
g51
NtRp395
(dp396
g54
(dp397
g62
I4
ssg63
g391
sg56
(lp398
g49
(g58
g51
NtRp399
(dp400
g54
(dp401
g62
I3
ssg63
Nsg56
(lp402
g49
(g65
g51
NtRp403
(dp404
g54
(dp405
sg63
g399
sg56
(lp406
g49
(g70
g51
NtRp407
(dp408
g54
(dp409
g74
g75
ssg63
g403
sg56
(lp410
g239
asbag49
(g70
g51
NtRp411
(dp412
g54
(dp413
g81
g82
ssg63
g403
sg56
(lp414
S':'
asbag49
(g70
g51
NtRp415
(dp416
g54
(dp417
sg63
g403
sg56
(lp418
g49
(g50
g51
NtRp419
(dp420
g54
(dp421
g62
I3
ssg63
g415
sg56
(lp422
S''
asbasbasbag49
(g65
g51
NtRp423
(dp424
g54
(dp425
sg63
g399
sg56
(lp426
g49
(g70
g51
NtRp427
(dp428
g54
(dp429
g74
g75
ssg63
g423
sg56
(lp430
g260
asbag49
(g70
g51
NtRp431
(dp432
g54
(dp433
g81
g82
ssg63
g423
sg56
(lp434
S':'
asbag49
(g70
g51
NtRp435
(dp436
g54
(dp437
sg63
g423
sg56
(lp438
g49
(g50
g51
NtRp439
(dp440
g54
(dp441
g62
I3
ssg63
g435
sg56
(lp442
S''
asbasbasbag49
(g65
g51
NtRp443
(dp444
g54
(dp445
sg63
g399
sg56
(lp446
g49
(g70
g51
NtRp447
(dp448
g54
(dp449
g74
g75
ssg63
g443
sg56
(lp450
g281
asbag49
(g70
g51
NtRp451
(dp452
g54
(dp453
g81
g82
ssg63
g443
sg56
(lp454
S':'
asbag49
(g70
g51
NtRp455
(dp456
g54
(dp457
sg63
g443
sg56
(lp458
g49
(g50
g51
NtRp459
(dp460
g54
(dp461
g62
I3
ssg63
g455
sg56
(lp462
S''
asbasbasbag49
(g65
g51
NtRp463
(dp464
g54
(dp465
sg63
g399
sg56
(lp466
g49
(g70
g51
NtRp467
(dp468
g54
(dp469
g74
g75
ssg63
g463
sg56
(lp470
g302
asbag49
(g70
g51
NtRp471
(dp472
g54
(dp473
g81
g82
ssg63
g463
sg56
(lp474
S':'
asbag49
(g70
g51
NtRp475
(dp476
g54
(dp477
sg63
g463
sg56
(lp478
g49
(g50
g51
NtRp479
(dp480
g54
(dp481
g62
I3
ssg63
g475
sg56
(lp482
S''
asbasbasbag49
(g65
g51
NtRp483
(dp484
g54
(dp485
sg63
g399
sg56
(lp486
g49
(g70
g51
NtRp487
(dp488
g54
(dp489
g74
g75
ssg63
g483
sg56
(lp490
g323
asbag49
(g70
g51
NtRp491
(dp492
g54
(dp493
g81
g82
ssg63
g483
sg56
(lp494
S':'
asbag49
(g70
g51
NtRp495
(dp496
g54
(dp497
sg63
g483
sg56
(lp498
g49
(g50
g51
NtRp499
(dp500
g54
(dp501
g62
I3
ssg63
g495
sg56
(lp502
S''
asbasbasbag49
(g65
g51
NtRp503
(dp504
g54
(dp505
sg63
g399
sg56
(lp506
g49
(g70
g51
NtRp507
(dp508
g54
(dp509
g74
g75
ssg63
g503
sg56
(lp510
g344
asbag49
(g70
g51
NtRp511
(dp512
g54
(dp513
g81
g82
ssg63
g503
sg56
(lp514
S':'
asbag49
(g70
g51
NtRp515
(dp516
g54
(dp517
sg63
g503
sg56
(lp518
g49
(g50
g51
NtRp519
(dp520
g54
(dp521
g62
I3
ssg63
g515
sg56
(lp522
S''
asbasbasbag49
(g65
g51
NtRp523
(dp524
g54
(dp525
sg63
g399
sg56
(lp526
g49
(g70
g51
NtRp527
(dp528
g54
(dp529
g74
g75
ssg63
g523
sg56
(lp530
g365
asbag49
(g70
g51
NtRp531
(dp532
g54
(dp533
g81
g82
ssg63
g523
sg56
(lp534
S':'
asbag49
(g70
g51
NtRp535
(dp536
g54
(dp537
sg63
g523
sg56
(lp538
g49
(g50
g51
NtRp539
(dp540
g54
(dp541
g62
I3
ssg63
g535
sg56
(lp542
S''
asbasbasbasbasbasbasbasbasbasbasbag49
(g65
g51
NtRp543
(dp544
g54
(dp545
sg63
g59
sg56
(lp546
g49
(g70
g51
NtRp547
(dp548
g54
(dp549
g74
g75
ssg63
g543
sg56
(lp550
S'env'
p551
asbag49
(g70
g51
NtRp552
(dp553
g54
(dp554
g81
g82
ssg63
g543
sg56
(lp555
S':'
asbag49
(g70
g51
NtRp556
(dp557
g54
(dp558
sg63
g543
sg56
(lp559
g49
(g50
g51
NtRp560
(dp561
g54
(dp562
g62
I5
ssg63
g556
sg56
(lp563
g49
(g58
g51
NtRp564
(dp565
g54
(dp566
g62
I4
ssg63
Nsg56
(lp567
g49
(g65
g51
NtRp568
(dp569
g54
(dp570
sg63
g564
sg56
(lp571
g49
(g70
g51
NtRp572
(dp573
g54
(dp574
g74
g75
ssg63
g568
sg56
(lp575
S'app_folders'
p576
asbag49
(g70
g51
NtRp577
(dp578
g54
(dp579
g81
g82
ssg63
g568
sg56
(lp580
S':'
asbag49
(g70
g51
NtRp581
(dp582
g54
(dp583
sg63
g568
sg56
(lp584
g49
(g50
g51
NtRp585
(dp586
g54
(dp587
g62
I4
ssg63
g581
sg56
(lp588
S"set(['D:\\\\Dise\\xf1o Web\\\\Proyectos\\\\Parleyweb\\\\web2py\\\\applications\\\\parleyweb\\\\', 'D:\\\\Dise\\xf1o Web\\\\Proyectos\\\\Parleyweb\\\\web2py\\\\applications\\\\admin\\\\'])"
p589
asbasbasbag49
(g65
g51
NtRp590
(dp591
g54
(dp592
sg63
g564
sg56
(lp593
g49
(g70
g51
NtRp594
(dp595
g54
(dp596
g74
g75
ssg63
g590
sg56
(lp597
S'applications_parent'
p598
asbag49
(g70
g51
NtRp599
(dp600
g54
(dp601
g81
g82
ssg63
g590
sg56
(lp602
S':'
asbag49
(g70
g51
NtRp603
(dp604
g54
(dp605
sg63
g590
sg56
(lp606
g49
(g50
g51
NtRp607
(dp608
g54
(dp609
g62
I4
ssg63
g603
sg56
(lp610
S'D:\\Dise\xf1o Web\\Proyectos\\Parleyweb\\web2py'
p611
asbasbasbag49
(g65
g51
NtRp612
(dp613
g54
(dp614
sg63
g564
sg56
(lp615
g49
(g70
g51
NtRp616
(dp617
g54
(dp618
g74
g75
ssg63
g612
sg56
(lp619
S'cmd_args'
p620
asbag49
(g70
g51
NtRp621
(dp622
g54
(dp623
g81
g82
ssg63
g612
sg56
(lp624
S':'
asbag49
(g70
g51
NtRp625
(dp626
g54
(dp627
sg63
g612
sg56
(lp628
g49
(g50
g51
NtRp629
(dp630
g54
(dp631
g62
I4
ssg63
g625
sg56
(lp632
g49
(g58
g51
NtRp633
(dp634
g54
(dp635
g62
I3
ssg63
Nsg56
(lp636
sbasbasbasbag49
(g65
g51
NtRp637
(dp638
g54
(dp639
sg63
g564
sg56
(lp640
g49
(g70
g51
NtRp641
(dp642
g54
(dp643
g74
g75
ssg63
g637
sg56
(lp644
S'cmd_options'
p645
asbag49
(g70
g51
NtRp646
(dp647
g54
(dp648
g81
g82
ssg63
g637
sg56
(lp649
S':'
asbag49
(g70
g51
NtRp650
(dp651
g54
(dp652
sg63
g637
sg56
(lp653
g49
(g50
g51
NtRp654
(dp655
g54
(dp656
g62
I4
ssg63
g650
sg56
(lp657
S"<Values at 0x3185238: {'verbose': False, 'ip': '127.0.0.1', 'shutdown_timeout': 5, 'taskbar': False, 'nocron': False, 'pid_filename': 'httpserver.pid', 'maxthreads': None, 'softcron': False, 'server_name': 'craxsnet-PC', 'bpython': False, 'nogui': False, 'port': 8000, 'extcron': False, 'debuglevel': 30, 'test': None, 'folder': 'D:\\\\Dise\\xf1o Web\\\\Proyectos\\\\Parleyweb\\\\web2py', 'config': '', 'import_models': False, 'winservice': '', 'shell': None, 'run': '', 'log_filename': 'httpserver.log', 'args': [''], 'socket_timeout': 5, 'ssl_ca_certificate': None, 'scheduler': None, 'profiler_filename': None, 'ssl_private_key': '', 'password': '<ask>', 'request_queue_size': 5, 'ssl_certificate': '', 'cronjob': False, 'numthreads': None, 'quiet': False, 'interfaces': None, 'minthreads': None, 'timeout': 10, 'plain': False, 'nobanner': False}>"
p658
asbasbasbag49
(g65
g51
NtRp659
(dp660
g54
(dp661
sg63
g564
sg56
(lp662
g49
(g70
g51
NtRp663
(dp664
g54
(dp665
g74
g75
ssg63
g659
sg56
(lp666
S'content_length'
p667
asbag49
(g70
g51
NtRp668
(dp669
g54
(dp670
g81
g82
ssg63
g659
sg56
(lp671
S':'
asbag49
(g70
g51
NtRp672
(dp673
g54
(dp674
sg63
g659
sg56
(lp675
g49
(g50
g51
NtRp676
(dp677
g54
(dp678
g62
I4
ssg63
g672
sg56
(lp679
S'255'
p680
asbasbasbag49
(g65
g51
NtRp681
(dp682
g54
(dp683
sg63
g564
sg56
(lp684
g49
(g70
g51
NtRp685
(dp686
g54
(dp687
g74
g75
ssg63
g681
sg56
(lp688
S'content_type'
p689
asbag49
(g70
g51
NtRp690
(dp691
g54
(dp692
g81
g82
ssg63
g681
sg56
(lp693
S':'
asbag49
(g70
g51
NtRp694
(dp695
g54
(dp696
sg63
g681
sg56
(lp697
g49
(g50
g51
NtRp698
(dp699
g54
(dp700
g62
I4
ssg63
g694
sg56
(lp701
S'multipart/form-data; boundary=---------------------------315562279830303'
p702
asbasbasbag49
(g65
g51
NtRp703
(dp704
g54
(dp705
sg63
g564
sg56
(lp706
g49
(g70
g51
NtRp707
(dp708
g54
(dp709
g74
g75
ssg63
g703
sg56
(lp710
S'db_sessions'
p711
asbag49
(g70
g51
NtRp712
(dp713
g54
(dp714
g81
g82
ssg63
g703
sg56
(lp715
S':'
asbag49
(g70
g51
NtRp716
(dp717
g54
(dp718
sg63
g703
sg56
(lp719
g49
(g50
g51
NtRp720
(dp721
g54
(dp722
g62
I4
ssg63
g716
sg56
(lp723
S'set([])'
p724
asbasbasbag49
(g65
g51
NtRp725
(dp726
g54
(dp727
sg63
g564
sg56
(lp728
g49
(g70
g51
NtRp729
(dp730
g54
(dp731
g74
g75
ssg63
g725
sg56
(lp732
S'debugging'
p733
asbag49
(g70
g51
NtRp734
(dp735
g54
(dp736
g81
g82
ssg63
g725
sg56
(lp737
S':'
asbag49
(g70
g51
NtRp738
(dp739
g54
(dp740
sg63
g725
sg56
(lp741
g49
(g50
g51
NtRp742
(dp743
g54
(dp744
g62
I4
ssg63
g738
sg56
(lp745
g92
asbasbasbag49
(g65
g51
NtRp746
(dp747
g54
(dp748
sg63
g564
sg56
(lp749
g49
(g70
g51
NtRp750
(dp751
g54
(dp752
g74
g75
ssg63
g746
sg56
(lp753
S'gluon_parent'
p754
asbag49
(g70
g51
NtRp755
(dp756
g54
(dp757
g81
g82
ssg63
g746
sg56
(lp758
S':'
asbag49
(g70
g51
NtRp759
(dp760
g54
(dp761
sg63
g746
sg56
(lp762
g49
(g50
g51
NtRp763
(dp764
g54
(dp765
g62
I4
ssg63
g759
sg56
(lp766
S'D:\\Dise\xf1o Web\\Proyectos\\Parleyweb\\web2py'
p767
asbasbasbag49
(g65
g51
NtRp768
(dp769
g54
(dp770
sg63
g564
sg56
(lp771
g49
(g70
g51
NtRp772
(dp773
g54
(dp774
g74
g75
ssg63
g768
sg56
(lp775
S'http_accept'
p776
asbag49
(g70
g51
NtRp777
(dp778
g54
(dp779
g81
g82
ssg63
g768
sg56
(lp780
S':'
asbag49
(g70
g51
NtRp781
(dp782
g54
(dp783
sg63
g768
sg56
(lp784
g49
(g50
g51
NtRp785
(dp786
g54
(dp787
g62
I4
ssg63
g781
sg56
(lp788
S'text/html,application/xhtml+xml,application/xml;q=0.9,*/*;q=0.8'
p789
asbasbasbag49
(g65
g51
NtRp790
(dp791
g54
(dp792
sg63
g564
sg56
(lp793
g49
(g70
g51
NtRp794
(dp795
g54
(dp796
g74
g75
ssg63
g790
sg56
(lp797
S'http_accept_encoding'
p798
asbag49
(g70
g51
NtRp799
(dp800
g54
(dp801
g81
g82
ssg63
g790
sg56
(lp802
S':'
asbag49
(g70
g51
NtRp803
(dp804
g54
(dp805
sg63
g790
sg56
(lp806
g49
(g50
g51
NtRp807
(dp808
g54
(dp809
g62
I4
ssg63
g803
sg56
(lp810
S'gzip, deflate'
p811
asbasbasbag49
(g65
g51
NtRp812
(dp813
g54
(dp814
sg63
g564
sg56
(lp815
g49
(g70
g51
NtRp816
(dp817
g54
(dp818
g74
g75
ssg63
g812
sg56
(lp819
S'http_accept_language'
p820
asbag49
(g70
g51
NtRp821
(dp822
g54
(dp823
g81
g82
ssg63
g812
sg56
(lp824
S':'
asbag49
(g70
g51
NtRp825
(dp826
g54
(dp827
sg63
g812
sg56
(lp828
g49
(g50
g51
NtRp829
(dp830
g54
(dp831
g62
I4
ssg63
g825
sg56
(lp832
S'es-es,de-de;q=0.8,es;q=0.6,en-us;q=0.4,en;q=0.2'
p833
asbasbasbag49
(g65
g51
NtRp834
(dp835
g54
(dp836
sg63
g564
sg56
(lp837
g49
(g70
g51
NtRp838
(dp839
g54
(dp840
g74
g75
ssg63
g834
sg56
(lp841
S'http_cache_control'
p842
asbag49
(g70
g51
NtRp843
(dp844
g54
(dp845
g81
g82
ssg63
g834
sg56
(lp846
S':'
asbag49
(g70
g51
NtRp847
(dp848
g54
(dp849
sg63
g834
sg56
(lp850
g49
(g50
g51
NtRp851
(dp852
g54
(dp853
g62
I4
ssg63
g847
sg56
(lp854
S'max-age=0'
p855
asbasbasbag49
(g65
g51
NtRp856
(dp857
g54
(dp858
sg63
g564
sg56
(lp859
g49
(g70
g51
NtRp860
(dp861
g54
(dp862
g74
g75
ssg63
g856
sg56
(lp863
S'http_connection'
p864
asbag49
(g70
g51
NtRp865
(dp866
g54
(dp867
g81
g82
ssg63
g856
sg56
(lp868
S':'
asbag49
(g70
g51
NtRp869
(dp870
g54
(dp871
sg63
g856
sg56
(lp872
g49
(g50
g51
NtRp873
(dp874
g54
(dp875
g62
I4
ssg63
g869
sg56
(lp876
S'keep-alive'
p877
asbasbasbag49
(g65
g51
NtRp878
(dp879
g54
(dp880
sg63
g564
sg56
(lp881
g49
(g70
g51
NtRp882
(dp883
g54
(dp884
g74
g75
ssg63
g878
sg56
(lp885
S'http_content_length'
p886
asbag49
(g70
g51
NtRp887
(dp888
g54
(dp889
g81
g82
ssg63
g878
sg56
(lp890
S':'
asbag49
(g70
g51
NtRp891
(dp892
g54
(dp893
sg63
g878
sg56
(lp894
g49
(g50
g51
NtRp895
(dp896
g54
(dp897
g62
I4
ssg63
g891
sg56
(lp898
g680
asbasbasbag49
(g65
g51
NtRp899
(dp900
g54
(dp901
sg63
g564
sg56
(lp902
g49
(g70
g51
NtRp903
(dp904
g54
(dp905
g74
g75
ssg63
g899
sg56
(lp906
S'http_content_type'
p907
asbag49
(g70
g51
NtRp908
(dp909
g54
(dp910
g81
g82
ssg63
g899
sg56
(lp911
S':'
asbag49
(g70
g51
NtRp912
(dp913
g54
(dp914
sg63
g899
sg56
(lp915
g49
(g50
g51
NtRp916
(dp917
g54
(dp918
g62
I4
ssg63
g912
sg56
(lp919
g702
asbasbasbag49
(g65
g51
NtRp920
(dp921
g54
(dp922
sg63
g564
sg56
(lp923
g49
(g70
g51
NtRp924
(dp925
g54
(dp926
g74
g75
ssg63
g920
sg56
(lp927
S'http_cookie'
p928
asbag49
(g70
g51
NtRp929
(dp930
g54
(dp931
g81
g82
ssg63
g920
sg56
(lp932
S':'
asbag49
(g70
g51
NtRp933
(dp934
g54
(dp935
sg63
g920
sg56
(lp936
g49
(g50
g51
NtRp937
(dp938
g54
(dp939
g62
I4
ssg63
g933
sg56
(lp940
S'__utma=96992031.26429765.1325029743.1325029743.1326549329.2; __utmz=96992031.1325029743.1.1.utmcsr=(direct)|utmccn=(direct)|utmcmd=(none); session_id_parleyweb=127.0.0.1-8bc0d624-a7ac-4822-aaf0-ed4b06ce8341; session_id_admin=127.0.0.1-fca687a4-73c3-45ca-8b8b-3788208a9c53'
p941
asbasbasbag49
(g65
g51
NtRp942
(dp943
g54
(dp944
sg63
g564
sg56
(lp945
g49
(g70
g51
NtRp946
(dp947
g54
(dp948
g74
g75
ssg63
g942
sg56
(lp949
S'http_host'
p950
asbag49
(g70
g51
NtRp951
(dp952
g54
(dp953
g81
g82
ssg63
g942
sg56
(lp954
S':'
asbag49
(g70
g51
NtRp955
(dp956
g54
(dp957
sg63
g942
sg56
(lp958
g49
(g50
g51
NtRp959
(dp960
g54
(dp961
g62
I4
ssg63
g955
sg56
(lp962
S'127.0.0.1:8000'
p963
asbasbasbag49
(g65
g51
NtRp964
(dp965
g54
(dp966
sg63
g564
sg56
(lp967
g49
(g70
g51
NtRp968
(dp969
g54
(dp970
g74
g75
ssg63
g964
sg56
(lp971
S'http_referer'
p972
asbag49
(g70
g51
NtRp973
(dp974
g54
(dp975
g81
g82
ssg63
g964
sg56
(lp976
S':'
asbag49
(g70
g51
NtRp977
(dp978
g54
(dp979
sg63
g964
sg56
(lp980
g49
(g50
g51
NtRp981
(dp982
g54
(dp983
g62
I4
ssg63
g977
sg56
(lp984
S'http://127.0.0.1:8000/parleyweb/admin/buscar_ejemplos2/a'
p985
asbasbasbag49
(g65
g51
NtRp986
(dp987
g54
(dp988
sg63
g564
sg56
(lp989
g49
(g70
g51
NtRp990
(dp991
g54
(dp992
g74
g75
ssg63
g986
sg56
(lp993
S'http_user_agent'
p994
asbag49
(g70
g51
NtRp995
(dp996
g54
(dp997
g81
g82
ssg63
g986
sg56
(lp998
S':'
asbag49
(g70
g51
NtRp999
(dp1000
g54
(dp1001
sg63
g986
sg56
(lp1002
g49
(g50
g51
NtRp1003
(dp1004
g54
(dp1005
g62
I4
ssg63
g999
sg56
(lp1006
S'Mozilla/5.0 (Windows NT 6.1; WOW64; rv:10.0.2) Gecko/20100101 Firefox/10.0.2'
p1007
asbasbasbag49
(g65
g51
NtRp1008
(dp1009
g54
(dp1010
sg63
g564
sg56
(lp1011
g49
(g70
g51
NtRp1012
(dp1013
g54
(dp1014
g74
g75
ssg63
g1008
sg56
(lp1015
S'is_jython'
p1016
asbag49
(g70
g51
NtRp1017
(dp1018
g54
(dp1019
g81
g82
ssg63
g1008
sg56
(lp1020
S':'
asbag49
(g70
g51
NtRp1021
(dp1022
g54
(dp1023
sg63
g1008
sg56
(lp1024
g49
(g50
g51
NtRp1025
(dp1026
g54
(dp1027
g62
I4
ssg63
g1021
sg56
(lp1028
g92
asbasbasbag49
(g65
g51
NtRp1029
(dp1030
g54
(dp1031
sg63
g564
sg56
(lp1032
g49
(g70
g51
NtRp1033
(dp1034
g54
(dp1035
g74
g75
ssg63
g1029
sg56
(lp1036
S'is_pypy'
p1037
asbag49
(g70
g51
NtRp1038
(dp1039
g54
(dp1040
g81
g82
ssg63
g1029
sg56
(lp1041
S':'
asbag49
(g70
g51
NtRp1042
(dp1043
g54
(dp1044
sg63
g1029
sg56
(lp1045
g49
(g50
g51
NtRp1046
(dp1047
g54
(dp1048
g62
I4
ssg63
g1042
sg56
(lp1049
g92
asbasbasbag49
(g65
g51
NtRp1050
(dp1051
g54
(dp1052
sg63
g564
sg56
(lp1053
g49
(g70
g51
NtRp1054
(dp1055
g54
(dp1056
g74
g75
ssg63
g1050
sg56
(lp1057
S'path_info'
p1058
asbag49
(g70
g51
NtRp1059
(dp1060
g54
(dp1061
g81
g82
ssg63
g1050
sg56
(lp1062
S':'
asbag49
(g70
g51
NtRp1063
(dp1064
g54
(dp1065
sg63
g1050
sg56
(lp1066
g49
(g50
g51
NtRp1067
(dp1068
g54
(dp1069
g62
I4
ssg63
g1063
sg56
(lp1070
S'/parleyweb/admin/relacionar'
p1071
asbasbasbag49
(g65
g51
NtRp1072
(dp1073
g54
(dp1074
sg63
g564
sg56
(lp1075
g49
(g70
g51
NtRp1076
(dp1077
g54
(dp1078
g74
g75
ssg63
g1072
sg56
(lp1079
S'query_string'
p1080
asbag49
(g70
g51
NtRp1081
(dp1082
g54
(dp1083
g81
g82
ssg63
g1072
sg56
(lp1084
S':'
asbag49
(g70
g51
NtRp1085
(dp1086
g54
(dp1087
sg63
g1072
sg56
(lp1088
g49
(g50
g51
NtRp1089
(dp1090
g54
(dp1091
g62
I4
ssg63
g1085
sg56
(lp1092
S''
asbasbasbag49
(g65
g51
NtRp1093
(dp1094
g54
(dp1095
sg63
g564
sg56
(lp1096
g49
(g70
g51
NtRp1097
(dp1098
g54
(dp1099
g74
g75
ssg63
g1093
sg56
(lp1100
S'remote_addr'
p1101
asbag49
(g70
g51
NtRp1102
(dp1103
g54
(dp1104
g81
g82
ssg63
g1093
sg56
(lp1105
S':'
asbag49
(g70
g51
NtRp1106
(dp1107
g54
(dp1108
sg63
g1093
sg56
(lp1109
g49
(g50
g51
NtRp1110
(dp1111
g54
(dp1112
g62
I4
ssg63
g1106
sg56
(lp1113
g158
asbasbasbag49
(g65
g51
NtRp1114
(dp1115
g54
(dp1116
sg63
g564
sg56
(lp1117
g49
(g70
g51
NtRp1118
(dp1119
g54
(dp1120
g74
g75
ssg63
g1114
sg56
(lp1121
S'remote_port'
p1122
asbag49
(g70
g51
NtRp1123
(dp1124
g54
(dp1125
g81
g82
ssg63
g1114
sg56
(lp1126
S':'
asbag49
(g70
g51
NtRp1127
(dp1128
g54
(dp1129
sg63
g1114
sg56
(lp1130
g49
(g50
g51
NtRp1131
(dp1132
g54
(dp1133
g62
I4
ssg63
g1127
sg56
(lp1134
S'50088'
p1135
asbasbasbag49
(g65
g51
NtRp1136
(dp1137
g54
(dp1138
sg63
g564
sg56
(lp1139
g49
(g70
g51
NtRp1140
(dp1141
g54
(dp1142
g74
g75
ssg63
g1136
sg56
(lp1143
S'request_method'
p1144
asbag49
(g70
g51
NtRp1145
(dp1146
g54
(dp1147
g81
g82
ssg63
g1136
sg56
(lp1148
S':'
asbag49
(g70
g51
NtRp1149
(dp1150
g54
(dp1151
sg63
g1136
sg56
(lp1152
g49
(g50
g51
NtRp1153
(dp1154
g54
(dp1155
g62
I4
ssg63
g1149
sg56
(lp1156
S'POST'
p1157
asbasbasbag49
(g65
g51
NtRp1158
(dp1159
g54
(dp1160
sg63
g564
sg56
(lp1161
g49
(g70
g51
NtRp1162
(dp1163
g54
(dp1164
g74
g75
ssg63
g1158
sg56
(lp1165
S'request_uri'
p1166
asbag49
(g70
g51
NtRp1167
(dp1168
g54
(dp1169
g81
g82
ssg63
g1158
sg56
(lp1170
S':'
asbag49
(g70
g51
NtRp1171
(dp1172
g54
(dp1173
sg63
g1158
sg56
(lp1174
g49
(g50
g51
NtRp1175
(dp1176
g54
(dp1177
g62
I4
ssg63
g1171
sg56
(lp1178
g1071
asbasbasbag49
(g65
g51
NtRp1179
(dp1180
g54
(dp1181
sg63
g564
sg56
(lp1182
g49
(g70
g51
NtRp1183
(dp1184
g54
(dp1185
g74
g75
ssg63
g1179
sg56
(lp1186
S'script_name'
p1187
asbag49
(g70
g51
NtRp1188
(dp1189
g54
(dp1190
g81
g82
ssg63
g1179
sg56
(lp1191
S':'
asbag49
(g70
g51
NtRp1192
(dp1193
g54
(dp1194
sg63
g1179
sg56
(lp1195
g49
(g50
g51
NtRp1196
(dp1197
g54
(dp1198
g62
I4
ssg63
g1192
sg56
(lp1199
S''
asbasbasbag49
(g65
g51
NtRp1200
(dp1201
g54
(dp1202
sg63
g564
sg56
(lp1203
g49
(g70
g51
NtRp1204
(dp1205
g54
(dp1206
g74
g75
ssg63
g1200
sg56
(lp1207
S'server_name'
p1208
asbag49
(g70
g51
NtRp1209
(dp1210
g54
(dp1211
g81
g82
ssg63
g1200
sg56
(lp1212
S':'
asbag49
(g70
g51
NtRp1213
(dp1214
g54
(dp1215
sg63
g1200
sg56
(lp1216
g49
(g50
g51
NtRp1217
(dp1218
g54
(dp1219
g62
I4
ssg63
g1213
sg56
(lp1220
S'craxsnet-PC'
p1221
asbasbasbag49
(g65
g51
NtRp1222
(dp1223
g54
(dp1224
sg63
g564
sg56
(lp1225
g49
(g70
g51
NtRp1226
(dp1227
g54
(dp1228
g74
g75
ssg63
g1222
sg56
(lp1229
S'server_port'
p1230
asbag49
(g70
g51
NtRp1231
(dp1232
g54
(dp1233
g81
g82
ssg63
g1222
sg56
(lp1234
S':'
asbag49
(g70
g51
NtRp1235
(dp1236
g54
(dp1237
sg63
g1222
sg56
(lp1238
g49
(g50
g51
NtRp1239
(dp1240
g54
(dp1241
g62
I4
ssg63
g1235
sg56
(lp1242
S'8000'
p1243
asbasbasbag49
(g65
g51
NtRp1244
(dp1245
g54
(dp1246
sg63
g564
sg56
(lp1247
g49
(g70
g51
NtRp1248
(dp1249
g54
(dp1250
g74
g75
ssg63
g1244
sg56
(lp1251
S'server_protocol'
p1252
asbag49
(g70
g51
NtRp1253
(dp1254
g54
(dp1255
g81
g82
ssg63
g1244
sg56
(lp1256
S':'
asbag49
(g70
g51
NtRp1257
(dp1258
g54
(dp1259
sg63
g1244
sg56
(lp1260
g49
(g50
g51
NtRp1261
(dp1262
g54
(dp1263
g62
I4
ssg63
g1257
sg56
(lp1264
S'HTTP/1.1'
p1265
asbasbasbag49
(g65
g51
NtRp1266
(dp1267
g54
(dp1268
sg63
g564
sg56
(lp1269
g49
(g70
g51
NtRp1270
(dp1271
g54
(dp1272
g74
g75
ssg63
g1266
sg56
(lp1273
S'server_software'
p1274
asbag49
(g70
g51
NtRp1275
(dp1276
g54
(dp1277
g81
g82
ssg63
g1266
sg56
(lp1278
S':'
asbag49
(g70
g51
NtRp1279
(dp1280
g54
(dp1281
sg63
g1266
sg56
(lp1282
g49
(g50
g51
NtRp1283
(dp1284
g54
(dp1285
g62
I4
ssg63
g1279
sg56
(lp1286
S'Rocket 1.2.4'
p1287
asbasbasbag49
(g65
g51
NtRp1288
(dp1289
g54
(dp1290
sg63
g564
sg56
(lp1291
g49
(g70
g51
NtRp1292
(dp1293
g54
(dp1294
g74
g75
ssg63
g1288
sg56
(lp1295
S'web2py_crontype'
p1296
asbag49
(g70
g51
NtRp1297
(dp1298
g54
(dp1299
g81
g82
ssg63
g1288
sg56
(lp1300
S':'
asbag49
(g70
g51
NtRp1301
(dp1302
g54
(dp1303
sg63
g1288
sg56
(lp1304
g49
(g50
g51
NtRp1305
(dp1306
g54
(dp1307
g62
I4
ssg63
g1301
sg56
(lp1308
S'hard'
p1309
asbasbasbag49
(g65
g51
NtRp1310
(dp1311
g54
(dp1312
sg63
g564
sg56
(lp1313
g49
(g70
g51
NtRp1314
(dp1315
g54
(dp1316
g74
g75
ssg63
g1310
sg56
(lp1317
S'web2py_original_uri'
p1318
asbag49
(g70
g51
NtRp1319
(dp1320
g54
(dp1321
g81
g82
ssg63
g1310
sg56
(lp1322
S':'
asbag49
(g70
g51
NtRp1323
(dp1324
g54
(dp1325
sg63
g1310
sg56
(lp1326
g49
(g50
g51
NtRp1327
(dp1328
g54
(dp1329
g62
I4
ssg63
g1323
sg56
(lp1330
S'/parleyweb/admin/relacionar'
p1331
asbasbasbag49
(g65
g51
NtRp1332
(dp1333
g54
(dp1334
sg63
g564
sg56
(lp1335
g49
(g70
g51
NtRp1336
(dp1337
g54
(dp1338
g74
g75
ssg63
g1332
sg56
(lp1339
S'web2py_path'
p1340
asbag49
(g70
g51
NtRp1341
(dp1342
g54
(dp1343
g81
g82
ssg63
g1332
sg56
(lp1344
S':'
asbag49
(g70
g51
NtRp1345
(dp1346
g54
(dp1347
sg63
g1332
sg56
(lp1348
g49
(g50
g51
NtRp1349
(dp1350
g54
(dp1351
g62
I4
ssg63
g1345
sg56
(lp1352
g611
asbasbasbag49
(g65
g51
NtRp1353
(dp1354
g54
(dp1355
sg63
g564
sg56
(lp1356
g49
(g70
g51
NtRp1357
(dp1358
g54
(dp1359
g74
g75
ssg63
g1353
sg56
(lp1360
S'web2py_version'
p1361
asbag49
(g70
g51
NtRp1362
(dp1363
g54
(dp1364
g81
g82
ssg63
g1353
sg56
(lp1365
S':'
asbag49
(g70
g51
NtRp1366
(dp1367
g54
(dp1368
sg63
g1353
sg56
(lp1369
g49
(g50
g51
NtRp1370
(dp1371
g54
(dp1372
g62
I4
ssg63
g1366
sg56
(lp1373
g49
(g58
g51
NtRp1374
(dp1375
g54
(dp1376
g62
I3
ssg63
Nsg56
(lp1377
g49
(g65
g51
NtRp1378
(dp1379
g54
(dp1380
sg63
g1374
sg56
(lp1381
g49
(g70
g51
NtRp1382
(dp1383
g54
(dp1384
sg63
g1378
sg56
(lp1385
g49
(g50
g51
NtRp1386
(dp1387
g54
(dp1388
g62
I3
ssg63
g1382
sg56
(lp1389
S'1'
asbasbasbag49
(g65
g51
NtRp1390
(dp1391
g54
(dp1392
sg63
g1374
sg56
(lp1393
g49
(g70
g51
NtRp1394
(dp1395
g54
(dp1396
sg63
g1390
sg56
(lp1397
g49
(g50
g51
NtRp1398
(dp1399
g54
(dp1400
g62
I3
ssg63
g1394
sg56
(lp1401
S'99'
p1402
asbasbasbag49
(g65
g51
NtRp1403
(dp1404
g54
(dp1405
sg63
g1374
sg56
(lp1406
g49
(g70
g51
NtRp1407
(dp1408
g54
(dp1409
sg63
g1403
sg56
(lp1410
g49
(g50
g51
NtRp1411
(dp1412
g54
(dp1413
g62
I3
ssg63
g1407
sg56
(lp1414
S'7'
asbasbasbag49
(g65
g51
NtRp1415
(dp1416
g54
(dp1417
sg63
g1374
sg56
(lp1418
g49
(g70
g51
NtRp1419
(dp1420
g54
(dp1421
sg63
g1415
sg56
(lp1422
g49
(g50
g51
NtRp1423
(dp1424
g54
(dp1425
g62
I3
ssg63
g1419
sg56
(lp1426
S'datetime.datetime(2012, 3, 4, 22, 12, 8)'
p1427
asbasbasbag49
(g65
g51
NtRp1428
(dp1429
g54
(dp1430
sg63
g1374
sg56
(lp1431
g49
(g70
g51
NtRp1432
(dp1433
g54
(dp1434
sg63
g1428
sg56
(lp1435
g49
(g50
g51
NtRp1436
(dp1437
g54
(dp1438
g62
I3
ssg63
g1432
sg56
(lp1439
S'stable'
p1440
asbasbasbasbasbasbasbag49
(g65
g51
NtRp1441
(dp1442
g54
(dp1443
sg63
g564
sg56
(lp1444
g49
(g70
g51
NtRp1445
(dp1446
g54
(dp1447
g74
g75
ssg63
g1441
sg56
(lp1448
S'wsgi_errors'
p1449
asbag49
(g70
g51
NtRp1450
(dp1451
g54
(dp1452
g81
g82
ssg63
g1441
sg56
(lp1453
S':'
asbag49
(g70
g51
NtRp1454
(dp1455
g54
(dp1456
sg63
g1441
sg56
(lp1457
g49
(g50
g51
NtRp1458
(dp1459
g54
(dp1460
g62
I4
ssg63
g1454
sg56
(lp1461
S"<open file '<stderr>', mode 'w' at 0x004200B0>"
p1462
asbasbasbag49
(g65
g51
NtRp1463
(dp1464
g54
(dp1465
sg63
g564
sg56
(lp1466
g49
(g70
g51
NtRp1467
(dp1468
g54
(dp1469
g74
g75
ssg63
g1463
sg56
(lp1470
S'wsgi_file_wrapper'
p1471
asbag49
(g70
g51
NtRp1472
(dp1473
g54
(dp1474
g81
g82
ssg63
g1463
sg56
(lp1475
S':'
asbag49
(g70
g51
NtRp1476
(dp1477
g54
(dp1478
sg63
g1463
sg56
(lp1479
g49
(g50
g51
NtRp1480
(dp1481
g54
(dp1482
g62
I4
ssg63
g1476
sg56
(lp1483
S'<class wsgiref.util.FileWrapper at 0x02FC6390>'
p1484
asbasbasbag49
(g65
g51
NtRp1485
(dp1486
g54
(dp1487
sg63
g564
sg56
(lp1488
g49
(g70
g51
NtRp1489
(dp1490
g54
(dp1491
g74
g75
ssg63
g1485
sg56
(lp1492
S'wsgi_input'
p1493
asbag49
(g70
g51
NtRp1494
(dp1495
g54
(dp1496
g81
g82
ssg63
g1485
sg56
(lp1497
S':'
asbag49
(g70
g51
NtRp1498
(dp1499
g54
(dp1500
sg63
g1485
sg56
(lp1501
g49
(g50
g51
NtRp1502
(dp1503
g54
(dp1504
g62
I4
ssg63
g1498
sg56
(lp1505
S'<socket._fileobject object at 0x0336CC30>'
p1506
asbasbasbag49
(g65
g51
NtRp1507
(dp1508
g54
(dp1509
sg63
g564
sg56
(lp1510
g49
(g70
g51
NtRp1511
(dp1512
g54
(dp1513
g74
g75
ssg63
g1507
sg56
(lp1514
S'wsgi_multiprocess'
p1515
asbag49
(g70
g51
NtRp1516
(dp1517
g54
(dp1518
g81
g82
ssg63
g1507
sg56
(lp1519
S':'
asbag49
(g70
g51
NtRp1520
(dp1521
g54
(dp1522
sg63
g1507
sg56
(lp1523
g49
(g50
g51
NtRp1524
(dp1525
g54
(dp1526
g62
I4
ssg63
g1520
sg56
(lp1527
g92
asbasbasbag49
(g65
g51
NtRp1528
(dp1529
g54
(dp1530
sg63
g564
sg56
(lp1531
g49
(g70
g51
NtRp1532
(dp1533
g54
(dp1534
g74
g75
ssg63
g1528
sg56
(lp1535
S'wsgi_multithread'
p1536
asbag49
(g70
g51
NtRp1537
(dp1538
g54
(dp1539
g81
g82
ssg63
g1528
sg56
(lp1540
S':'
asbag49
(g70
g51
NtRp1541
(dp1542
g54
(dp1543
sg63
g1528
sg56
(lp1544
g49
(g50
g51
NtRp1545
(dp1546
g54
(dp1547
g62
I4
ssg63
g1541
sg56
(lp1548
S'True'
p1549
asbasbasbag49
(g65
g51
NtRp1550
(dp1551
g54
(dp1552
sg63
g564
sg56
(lp1553
g49
(g70
g51
NtRp1554
(dp1555
g54
(dp1556
g74
g75
ssg63
g1550
sg56
(lp1557
S'wsgi_run_once'
p1558
asbag49
(g70
g51
NtRp1559
(dp1560
g54
(dp1561
g81
g82
ssg63
g1550
sg56
(lp1562
S':'
asbag49
(g70
g51
NtRp1563
(dp1564
g54
(dp1565
sg63
g1550
sg56
(lp1566
g49
(g50
g51
NtRp1567
(dp1568
g54
(dp1569
g62
I4
ssg63
g1563
sg56
(lp1570
g92
asbasbasbag49
(g65
g51
NtRp1571
(dp1572
g54
(dp1573
sg63
g564
sg56
(lp1574
g49
(g70
g51
NtRp1575
(dp1576
g54
(dp1577
g74
g75
ssg63
g1571
sg56
(lp1578
S'wsgi_url_scheme'
p1579
asbag49
(g70
g51
NtRp1580
(dp1581
g54
(dp1582
g81
g82
ssg63
g1571
sg56
(lp1583
S':'
asbag49
(g70
g51
NtRp1584
(dp1585
g54
(dp1586
sg63
g1571
sg56
(lp1587
g49
(g50
g51
NtRp1588
(dp1589
g54
(dp1590
g62
I4
ssg63
g1584
sg56
(lp1591
S'http'
p1592
asbasbasbag49
(g65
g51
NtRp1593
(dp1594
g54
(dp1595
sg63
g564
sg56
(lp1596
g49
(g70
g51
NtRp1597
(dp1598
g54
(dp1599
g74
g75
ssg63
g1593
sg56
(lp1600
S'wsgi_version'
p1601
asbag49
(g70
g51
NtRp1602
(dp1603
g54
(dp1604
g81
g82
ssg63
g1593
sg56
(lp1605
S':'
asbag49
(g70
g51
NtRp1606
(dp1607
g54
(dp1608
sg63
g1593
sg56
(lp1609
g49
(g50
g51
NtRp1610
(dp1611
g54
(dp1612
g62
I4
ssg63
g1606
sg56
(lp1613
g49
(g58
g51
NtRp1614
(dp1615
g54
(dp1616
g62
I3
ssg63
Nsg56
(lp1617
g49
(g65
g51
NtRp1618
(dp1619
g54
(dp1620
sg63
g1614
sg56
(lp1621
g49
(g70
g51
NtRp1622
(dp1623
g54
(dp1624
sg63
g1618
sg56
(lp1625
g49
(g50
g51
NtRp1626
(dp1627
g54
(dp1628
g62
I3
ssg63
g1622
sg56
(lp1629
S'1'
asbasbasbag49
(g65
g51
NtRp1630
(dp1631
g54
(dp1632
sg63
g1614
sg56
(lp1633
g49
(g70
g51
NtRp1634
(dp1635
g54
(dp1636
sg63
g1630
sg56
(lp1637
g49
(g50
g51
NtRp1638
(dp1639
g54
(dp1640
g62
I3
ssg63
g1634
sg56
(lp1641
S'0'
asbasbasbasbasbasbasbasbasbasbasbag49
(g65
g51
NtRp1642
(dp1643
g54
(dp1644
sg63
g59
sg56
(lp1645
g49
(g70
g51
NtRp1646
(dp1647
g54
(dp1648
g74
g75
ssg63
g1642
sg56
(lp1649
S'extension'
p1650
asbag49
(g70
g51
NtRp1651
(dp1652
g54
(dp1653
g81
g82
ssg63
g1642
sg56
(lp1654
S':'
asbag49
(g70
g51
NtRp1655
(dp1656
g54
(dp1657
sg63
g1642
sg56
(lp1658
g49
(g50
g51
NtRp1659
(dp1660
g54
(dp1661
g62
I5
ssg63
g1655
sg56
(lp1662
S'html'
p1663
asbasbasbag49
(g65
g51
NtRp1664
(dp1665
g54
(dp1666
sg63
g59
sg56
(lp1667
g49
(g70
g51
NtRp1668
(dp1669
g54
(dp1670
g74
g75
ssg63
g1664
sg56
(lp1671
S'folder'
p1672
asbag49
(g70
g51
NtRp1673
(dp1674
g54
(dp1675
g81
g82
ssg63
g1664
sg56
(lp1676
S':'
asbag49
(g70
g51
NtRp1677
(dp1678
g54
(dp1679
sg63
g1664
sg56
(lp1680
g49
(g50
g51
NtRp1681
(dp1682
g54
(dp1683
g62
I5
ssg63
g1677
sg56
(lp1684
S'D:\\Dise\xf1o Web\\Proyectos\\Parleyweb\\web2py\\applications\\parleyweb\\'
p1685
asbasbasbag49
(g65
g51
NtRp1686
(dp1687
g54
(dp1688
sg63
g59
sg56
(lp1689
g49
(g70
g51
NtRp1690
(dp1691
g54
(dp1692
g74
g75
ssg63
g1686
sg56
(lp1693
S'function'
p1694
asbag49
(g70
g51
NtRp1695
(dp1696
g54
(dp1697
g81
g82
ssg63
g1686
sg56
(lp1698
S':'
asbag49
(g70
g51
NtRp1699
(dp1700
g54
(dp1701
sg63
g1686
sg56
(lp1702
g49
(g50
g51
NtRp1703
(dp1704
g54
(dp1705
g62
I5
ssg63
g1699
sg56
(lp1706
S'relacionar'
p1707
asbasbasbag49
(g65
g51
NtRp1708
(dp1709
g54
(dp1710
sg63
g59
sg56
(lp1711
g49
(g70
g51
NtRp1712
(dp1713
g54
(dp1714
g74
g75
ssg63
g1708
sg56
(lp1715
S'get_vars'
p1716
asbag49
(g70
g51
NtRp1717
(dp1718
g54
(dp1719
g81
g82
ssg63
g1708
sg56
(lp1720
S':'
asbag49
(g70
g51
NtRp1721
(dp1722
g54
(dp1723
sg63
g1708
sg56
(lp1724
g49
(g50
g51
NtRp1725
(dp1726
g54
(dp1727
g62
I5
ssg63
g1721
sg56
(lp1728
g49
(g58
g51
NtRp1729
(dp1730
g54
(dp1731
g62
I4
ssg63
Nsg56
(lp1732
sbasbasbasbag49
(g65
g51
NtRp1733
(dp1734
g54
(dp1735
sg63
g59
sg56
(lp1736
g49
(g70
g51
NtRp1737
(dp1738
g54
(dp1739
g74
g75
ssg63
g1733
sg56
(lp1740
S'global_settings'
p1741
asbag49
(g70
g51
NtRp1742
(dp1743
g54
(dp1744
g81
g82
ssg63
g1733
sg56
(lp1745
S':'
asbag49
(g70
g51
NtRp1746
(dp1747
g54
(dp1748
sg63
g1733
sg56
(lp1749
g49
(g50
g51
NtRp1750
(dp1751
g54
(dp1752
g62
I5
ssg63
g1746
sg56
(lp1753
g49
(g58
g51
NtRp1754
(dp1755
g54
(dp1756
g62
I4
ssg63
Nsg56
(lp1757
g49
(g65
g51
NtRp1758
(dp1759
g54
(dp1760
sg63
g1754
sg56
(lp1761
g49
(g70
g51
NtRp1762
(dp1763
g54
(dp1764
g74
g75
ssg63
g1758
sg56
(lp1765
g576
asbag49
(g70
g51
NtRp1766
(dp1767
g54
(dp1768
g81
g82
ssg63
g1758
sg56
(lp1769
S':'
asbag49
(g70
g51
NtRp1770
(dp1771
g54
(dp1772
sg63
g1758
sg56
(lp1773
g49
(g50
g51
NtRp1774
(dp1775
g54
(dp1776
g62
I4
ssg63
g1770
sg56
(lp1777
S"set(['D:\\\\Dise\\xf1o Web\\\\Proyectos\\\\Parleyweb\\\\web2py\\\\applications\\\\parleyweb\\\\', 'D:\\\\Dise\\xf1o Web\\\\Proyectos\\\\Parleyweb\\\\web2py\\\\applications\\\\admin\\\\'])"
p1778
asbasbasbag49
(g65
g51
NtRp1779
(dp1780
g54
(dp1781
sg63
g1754
sg56
(lp1782
g49
(g70
g51
NtRp1783
(dp1784
g54
(dp1785
g74
g75
ssg63
g1779
sg56
(lp1786
g598
asbag49
(g70
g51
NtRp1787
(dp1788
g54
(dp1789
g81
g82
ssg63
g1779
sg56
(lp1790
S':'
asbag49
(g70
g51
NtRp1791
(dp1792
g54
(dp1793
sg63
g1779
sg56
(lp1794
g49
(g50
g51
NtRp1795
(dp1796
g54
(dp1797
g62
I4
ssg63
g1791
sg56
(lp1798
g611
asbasbasbag49
(g65
g51
NtRp1799
(dp1800
g54
(dp1801
sg63
g1754
sg56
(lp1802
g49
(g70
g51
NtRp1803
(dp1804
g54
(dp1805
g74
g75
ssg63
g1799
sg56
(lp1806
g620
asbag49
(g70
g51
NtRp1807
(dp1808
g54
(dp1809
g81
g82
ssg63
g1799
sg56
(lp1810
S':'
asbag49
(g70
g51
NtRp1811
(dp1812
g54
(dp1813
sg63
g1799
sg56
(lp1814
g49
(g50
g51
NtRp1815
(dp1816
g54
(dp1817
g62
I4
ssg63
g1811
sg56
(lp1818
g49
(g58
g51
NtRp1819
(dp1820
g54
(dp1821
g62
I3
ssg63
Nsg56
(lp1822
sbasbasbasbag49
(g65
g51
NtRp1823
(dp1824
g54
(dp1825
sg63
g1754
sg56
(lp1826
g49
(g70
g51
NtRp1827
(dp1828
g54
(dp1829
g74
g75
ssg63
g1823
sg56
(lp1830
g645
asbag49
(g70
g51
NtRp1831
(dp1832
g54
(dp1833
g81
g82
ssg63
g1823
sg56
(lp1834
S':'
asbag49
(g70
g51
NtRp1835
(dp1836
g54
(dp1837
sg63
g1823
sg56
(lp1838
g49
(g50
g51
NtRp1839
(dp1840
g54
(dp1841
g62
I4
ssg63
g1835
sg56
(lp1842
S"<Values at 0x3185238: {'verbose': False, 'ip': '127.0.0.1', 'shutdown_timeout': 5, 'taskbar': False, 'nocron': False, 'pid_filename': 'httpserver.pid', 'maxthreads': None, 'softcron': False, 'server_name': 'craxsnet-PC', 'bpython': False, 'nogui': False, 'port': 8000, 'extcron': False, 'debuglevel': 30, 'test': None, 'folder': 'D:\\\\Dise\\xf1o Web\\\\Proyectos\\\\Parleyweb\\\\web2py', 'config': '', 'import_models': False, 'winservice': '', 'shell': None, 'run': '', 'log_filename': 'httpserver.log', 'args': [''], 'socket_timeout': 5, 'ssl_ca_certificate': None, 'scheduler': None, 'profiler_filename': None, 'ssl_private_key': '', 'password': '<ask>', 'request_queue_size': 5, 'ssl_certificate': '', 'cronjob': False, 'numthreads': None, 'quiet': False, 'interfaces': None, 'minthreads': None, 'timeout': 10, 'plain': False, 'nobanner': False}>"
p1843
asbasbasbag49
(g65
g51
NtRp1844
(dp1845
g54
(dp1846
sg63
g1754
sg56
(lp1847
g49
(g70
g51
NtRp1848
(dp1849
g54
(dp1850
g74
g75
ssg63
g1844
sg56
(lp1851
g711
asbag49
(g70
g51
NtRp1852
(dp1853
g54
(dp1854
g81
g82
ssg63
g1844
sg56
(lp1855
S':'
asbag49
(g70
g51
NtRp1856
(dp1857
g54
(dp1858
sg63
g1844
sg56
(lp1859
g49
(g50
g51
NtRp1860
(dp1861
g54
(dp1862
g62
I4
ssg63
g1856
sg56
(lp1863
S'set([])'
p1864
asbasbasbag49
(g65
g51
NtRp1865
(dp1866
g54
(dp1867
sg63
g1754
sg56
(lp1868
g49
(g70
g51
NtRp1869
(dp1870
g54
(dp1871
g74
g75
ssg63
g1865
sg56
(lp1872
g733
asbag49
(g70
g51
NtRp1873
(dp1874
g54
(dp1875
g81
g82
ssg63
g1865
sg56
(lp1876
S':'
asbag49
(g70
g51
NtRp1877
(dp1878
g54
(dp1879
sg63
g1865
sg56
(lp1880
g49
(g50
g51
NtRp1881
(dp1882
g54
(dp1883
g62
I4
ssg63
g1877
sg56
(lp1884
g92
asbasbasbag49
(g65
g51
NtRp1885
(dp1886
g54
(dp1887
sg63
g1754
sg56
(lp1888
g49
(g70
g51
NtRp1889
(dp1890
g54
(dp1891
g74
g75
ssg63
g1885
sg56
(lp1892
g754
asbag49
(g70
g51
NtRp1893
(dp1894
g54
(dp1895
g81
g82
ssg63
g1885
sg56
(lp1896
S':'
asbag49
(g70
g51
NtRp1897
(dp1898
g54
(dp1899
sg63
g1885
sg56
(lp1900
g49
(g50
g51
NtRp1901
(dp1902
g54
(dp1903
g62
I4
ssg63
g1897
sg56
(lp1904
g767
asbasbasbag49
(g65
g51
NtRp1905
(dp1906
g54
(dp1907
sg63
g1754
sg56
(lp1908
g49
(g70
g51
NtRp1909
(dp1910
g54
(dp1911
g74
g75
ssg63
g1905
sg56
(lp1912
g1016
asbag49
(g70
g51
NtRp1913
(dp1914
g54
(dp1915
g81
g82
ssg63
g1905
sg56
(lp1916
S':'
asbag49
(g70
g51
NtRp1917
(dp1918
g54
(dp1919
sg63
g1905
sg56
(lp1920
g49
(g50
g51
NtRp1921
(dp1922
g54
(dp1923
g62
I4
ssg63
g1917
sg56
(lp1924
g92
asbasbasbag49
(g65
g51
NtRp1925
(dp1926
g54
(dp1927
sg63
g1754
sg56
(lp1928
g49
(g70
g51
NtRp1929
(dp1930
g54
(dp1931
g74
g75
ssg63
g1925
sg56
(lp1932
g1037
asbag49
(g70
g51
NtRp1933
(dp1934
g54
(dp1935
g81
g82
ssg63
g1925
sg56
(lp1936
S':'
asbag49
(g70
g51
NtRp1937
(dp1938
g54
(dp1939
sg63
g1925
sg56
(lp1940
g49
(g50
g51
NtRp1941
(dp1942
g54
(dp1943
g62
I4
ssg63
g1937
sg56
(lp1944
g92
asbasbasbag49
(g65
g51
NtRp1945
(dp1946
g54
(dp1947
sg63
g1754
sg56
(lp1948
g49
(g70
g51
NtRp1949
(dp1950
g54
(dp1951
g74
g75
ssg63
g1945
sg56
(lp1952
g1296
asbag49
(g70
g51
NtRp1953
(dp1954
g54
(dp1955
g81
g82
ssg63
g1945
sg56
(lp1956
S':'
asbag49
(g70
g51
NtRp1957
(dp1958
g54
(dp1959
sg63
g1945
sg56
(lp1960
g49
(g50
g51
NtRp1961
(dp1962
g54
(dp1963
g62
I4
ssg63
g1957
sg56
(lp1964
g1309
asbasbasbag49
(g65
g51
NtRp1965
(dp1966
g54
(dp1967
sg63
g1754
sg56
(lp1968
g49
(g70
g51
NtRp1969
(dp1970
g54
(dp1971
g74
g75
ssg63
g1965
sg56
(lp1972
g1361
asbag49
(g70
g51
NtRp1973
(dp1974
g54
(dp1975
g81
g82
ssg63
g1965
sg56
(lp1976
S':'
asbag49
(g70
g51
NtRp1977
(dp1978
g54
(dp1979
sg63
g1965
sg56
(lp1980
g49
(g50
g51
NtRp1981
(dp1982
g54
(dp1983
g62
I4
ssg63
g1977
sg56
(lp1984
g49
(g58
g51
NtRp1985
(dp1986
g54
(dp1987
g62
I3
ssg63
Nsg56
(lp1988
g49
(g65
g51
NtRp1989
(dp1990
g54
(dp1991
sg63
g1985
sg56
(lp1992
g49
(g70
g51
NtRp1993
(dp1994
g54
(dp1995
sg63
g1989
sg56
(lp1996
g49
(g50
g51
NtRp1997
(dp1998
g54
(dp1999
g62
I3
ssg63
g1993
sg56
(lp2000
S'1'
asbasbasbag49
(g65
g51
NtRp2001
(dp2002
g54
(dp2003
sg63
g1985
sg56
(lp2004
g49
(g70
g51
NtRp2005
(dp2006
g54
(dp2007
sg63
g2001
sg56
(lp2008
g49
(g50
g51
NtRp2009
(dp2010
g54
(dp2011
g62
I3
ssg63
g2005
sg56
(lp2012
S'99'
p2013
asbasbasbag49
(g65
g51
NtRp2014
(dp2015
g54
(dp2016
sg63
g1985
sg56
(lp2017
g49
(g70
g51
NtRp2018
(dp2019
g54
(dp2020
sg63
g2014
sg56
(lp2021
g49
(g50
g51
NtRp2022
(dp2023
g54
(dp2024
g62
I3
ssg63
g2018
sg56
(lp2025
S'7'
asbasbasbag49
(g65
g51
NtRp2026
(dp2027
g54
(dp2028
sg63
g1985
sg56
(lp2029
g49
(g70
g51
NtRp2030
(dp2031
g54
(dp2032
sg63
g2026
sg56
(lp2033
g49
(g50
g51
NtRp2034
(dp2035
g54
(dp2036
g62
I3
ssg63
g2030
sg56
(lp2037
S'datetime.datetime(2012, 3, 4, 22, 12, 8)'
p2038
asbasbasbag49
(g65
g51
NtRp2039
(dp2040
g54
(dp2041
sg63
g1985
sg56
(lp2042
g49
(g70
g51
NtRp2043
(dp2044
g54
(dp2045
sg63
g2039
sg56
(lp2046
g49
(g50
g51
NtRp2047
(dp2048
g54
(dp2049
g62
I3
ssg63
g2043
sg56
(lp2050
g1440
asbasbasbasbasbasbasbasbasbasbasbag49
(g65
g51
NtRp2051
(dp2052
g54
(dp2053
sg63
g59
sg56
(lp2054
g49
(g70
g51
NtRp2055
(dp2056
g54
(dp2057
g74
g75
ssg63
g2051
sg56
(lp2058
S'is_https'
p2059
asbag49
(g70
g51
NtRp2060
(dp2061
g54
(dp2062
g81
g82
ssg63
g2051
sg56
(lp2063
S':'
asbag49
(g70
g51
NtRp2064
(dp2065
g54
(dp2066
sg63
g2051
sg56
(lp2067
g49
(g50
g51
NtRp2068
(dp2069
g54
(dp2070
g62
I5
ssg63
g2064
sg56
(lp2071
g92
asbasbasbag49
(g65
g51
NtRp2072
(dp2073
g54
(dp2074
sg63
g59
sg56
(lp2075
g49
(g70
g51
NtRp2076
(dp2077
g54
(dp2078
g74
g75
ssg63
g2072
sg56
(lp2079
S'is_local'
p2080
asbag49
(g70
g51
NtRp2081
(dp2082
g54
(dp2083
g81
g82
ssg63
g2072
sg56
(lp2084
S':'
asbag49
(g70
g51
NtRp2085
(dp2086
g54
(dp2087
sg63
g2072
sg56
(lp2088
g49
(g50
g51
NtRp2089
(dp2090
g54
(dp2091
g62
I5
ssg63
g2085
sg56
(lp2092
g1549
asbasbasbag49
(g65
g51
NtRp2093
(dp2094
g54
(dp2095
sg63
g59
sg56
(lp2096
g49
(g70
g51
NtRp2097
(dp2098
g54
(dp2099
g74
g75
ssg63
g2093
sg56
(lp2100
S'is_restful'
p2101
asbag49
(g70
g51
NtRp2102
(dp2103
g54
(dp2104
g81
g82
ssg63
g2093
sg56
(lp2105
S':'
asbag49
(g70
g51
NtRp2106
(dp2107
g54
(dp2108
sg63
g2093
sg56
(lp2109
g49
(g50
g51
NtRp2110
(dp2111
g54
(dp2112
g62
I5
ssg63
g2106
sg56
(lp2113
g92
asbasbasbag49
(g65
g51
NtRp2114
(dp2115
g54
(dp2116
sg63
g59
sg56
(lp2117
g49
(g70
g51
NtRp2118
(dp2119
g54
(dp2120
g74
g75
ssg63
g2114
sg56
(lp2121
S'now'
p2122
asbag49
(g70
g51
NtRp2123
(dp2124
g54
(dp2125
g81
g82
ssg63
g2114
sg56
(lp2126
S':'
asbag49
(g70
g51
NtRp2127
(dp2128
g54
(dp2129
sg63
g2114
sg56
(lp2130
g49
(g50
g51
NtRp2131
(dp2132
g54
(dp2133
g62
I5
ssg63
g2127
sg56
(lp2134
S'datetime.datetime(2012, 3, 15, 15, 7, 54, 978000)'
p2135
asbasbasbag49
(g65
g51
NtRp2136
(dp2137
g54
(dp2138
sg63
g59
sg56
(lp2139
g49
(g70
g51
NtRp2140
(dp2141
g54
(dp2142
g74
g75
ssg63
g2136
sg56
(lp2143
S'post_vars'
p2144
asbag49
(g70
g51
NtRp2145
(dp2146
g54
(dp2147
g81
g82
ssg63
g2136
sg56
(lp2148
S':'
asbag49
(g70
g51
NtRp2149
(dp2150
g54
(dp2151
sg63
g2136
sg56
(lp2152
g49
(g50
g51
NtRp2153
(dp2154
g54
(dp2155
g62
I5
ssg63
g2149
sg56
(lp2156
g49
(g58
g51
NtRp2157
(dp2158
g54
(dp2159
g62
I4
ssg63
Nsg56
(lp2160
g49
(g65
g51
NtRp2161
(dp2162
g54
(dp2163
sg63
g2157
sg56
(lp2164
g49
(g70
g51
NtRp2165
(dp2166
g54
(dp2167
g74
g75
ssg63
g2161
sg56
(lp2168
S'id_palabra'
p2169
asbag49
(g70
g51
NtRp2170
(dp2171
g54
(dp2172
g81
g82
ssg63
g2161
sg56
(lp2173
S':'
asbag49
(g70
g51
NtRp2174
(dp2175
g54
(dp2176
sg63
g2161
sg56
(lp2177
g49
(g50
g51
NtRp2178
(dp2179
g54
(dp2180
g62
I4
ssg63
g2174
sg56
(lp2181
S'156'
p2182
asbasbasbag49
(g65
g51
NtRp2183
(dp2184
g54
(dp2185
sg63
g2157
sg56
(lp2186
g49
(g70
g51
NtRp2187
(dp2188
g54
(dp2189
g74
g75
ssg63
g2183
sg56
(lp2190
S'relacionar'
p2191
asbag49
(g70
g51
NtRp2192
(dp2193
g54
(dp2194
g81
g82
ssg63
g2183
sg56
(lp2195
S':'
asbag49
(g70
g51
NtRp2196
(dp2197
g54
(dp2198
sg63
g2183
sg56
(lp2199
g49
(g50
g51
NtRp2200
(dp2201
g54
(dp2202
g62
I4
ssg63
g2196
sg56
(lp2203
S'15'
p2204
asbasbasbasbasbasbasbag49
(g65
g51
NtRp2205
(dp2206
g54
(dp2207
sg63
g59
sg56
(lp2208
g49
(g70
g51
NtRp2209
(dp2210
g54
(dp2211
g74
g75
ssg63
g2205
sg56
(lp2212
S'url'
p2213
asbag49
(g70
g51
NtRp2214
(dp2215
g54
(dp2216
g81
g82
ssg63
g2205
sg56
(lp2217
S':'
asbag49
(g70
g51
NtRp2218
(dp2219
g54
(dp2220
sg63
g2205
sg56
(lp2221
g49
(g50
g51
NtRp2222
(dp2223
g54
(dp2224
g62
I5
ssg63
g2218
sg56
(lp2225
S'/parleyweb/admin/relacionar'
p2226
asbasbasbag49
(g65
g51
NtRp2227
(dp2228
g54
(dp2229
sg63
g59
sg56
(lp2230
g49
(g70
g51
NtRp2231
(dp2232
g54
(dp2233
g74
g75
ssg63
g2227
sg56
(lp2234
S'utcnow'
p2235
asbag49
(g70
g51
NtRp2236
(dp2237
g54
(dp2238
g81
g82
ssg63
g2227
sg56
(lp2239
S':'
asbag49
(g70
g51
NtRp2240
(dp2241
g54
(dp2242
sg63
g2227
sg56
(lp2243
g49
(g50
g51
NtRp2244
(dp2245
g54
(dp2246
g62
I5
ssg63
g2240
sg56
(lp2247
S'datetime.datetime(2012, 3, 15, 14, 7, 54, 978000)'
p2248
asbasbasbag49
(g65
g51
NtRp2249
(dp2250
g54
(dp2251
sg63
g59
sg56
(lp2252
g49
(g70
g51
NtRp2253
(dp2254
g54
(dp2255
g74
g75
ssg63
g2249
sg56
(lp2256
S'uuid'
p2257
asbag49
(g70
g51
NtRp2258
(dp2259
g54
(dp2260
g81
g82
ssg63
g2249
sg56
(lp2261
S':'
asbag49
(g70
g51
NtRp2262
(dp2263
g54
(dp2264
sg63
g2249
sg56
(lp2265
g49
(g50
g51
NtRp2266
(dp2267
g54
(dp2268
g62
I5
ssg63
g2262
sg56
(lp2269
S'parleyweb/127.0.0.1.2012-03-15.15-07-54.f1480bcb-d4a8-4481-8410-135c35c93c6a'
p2270
asbasbasbag49
(g65
g51
NtRp2271
(dp2272
g54
(dp2273
sg63
g59
sg56
(lp2274
g49
(g70
g51
NtRp2275
(dp2276
g54
(dp2277
g74
g75
ssg63
g2271
sg56
(lp2278
S'vars'
p2279
asbag49
(g70
g51
NtRp2280
(dp2281
g54
(dp2282
g81
g82
ssg63
g2271
sg56
(lp2283
S':'
asbag49
(g70
g51
NtRp2284
(dp2285
g54
(dp2286
sg63
g2271
sg56
(lp2287
g49
(g50
g51
NtRp2288
(dp2289
g54
(dp2290
g62
I5
ssg63
g2284
sg56
(lp2291
g49
(g58
g51
NtRp2292
(dp2293
g54
(dp2294
g62
I4
ssg63
Nsg56
(lp2295
g49
(g65
g51
NtRp2296
(dp2297
g54
(dp2298
sg63
g2292
sg56
(lp2299
g49
(g70
g51
NtRp2300
(dp2301
g54
(dp2302
g74
g75
ssg63
g2296
sg56
(lp2303
g2169
asbag49
(g70
g51
NtRp2304
(dp2305
g54
(dp2306
g81
g82
ssg63
g2296
sg56
(lp2307
S':'
asbag49
(g70
g51
NtRp2308
(dp2309
g54
(dp2310
sg63
g2296
sg56
(lp2311
g49
(g50
g51
NtRp2312
(dp2313
g54
(dp2314
g62
I4
ssg63
g2308
sg56
(lp2315
g2182
asbasbasbag49
(g65
g51
NtRp2316
(dp2317
g54
(dp2318
sg63
g2292
sg56
(lp2319
g49
(g70
g51
NtRp2320
(dp2321
g54
(dp2322
g74
g75
ssg63
g2316
sg56
(lp2323
g2191
asbag49
(g70
g51
NtRp2324
(dp2325
g54
(dp2326
g81
g82
ssg63
g2316
sg56
(lp2327
S':'
asbag49
(g70
g51
NtRp2328
(dp2329
g54
(dp2330
sg63
g2316
sg56
(lp2331
g49
(g50
g51
NtRp2332
(dp2333
g54
(dp2334
g62
I4
ssg63
g2328
sg56
(lp2335
g2204
asbasbasbasbasbasbasbag49
(g65
g51
NtRp2336
(dp2337
g54
(dp2338
sg63
g59
sg56
(lp2339
g49
(g70
g51
NtRp2340
(dp2341
g54
(dp2342
g74
g75
ssg63
g2336
sg56
(lp2343
S'wsgi'
p2344
asbag49
(g70
g51
NtRp2345
(dp2346
g54
(dp2347
g81
g82
ssg63
g2336
sg56
(lp2348
S':'
asbag49
(g70
g51
NtRp2349
(dp2350
g54
(dp2351
sg63
g2336
sg56
(lp2352
g49
(g50
g51
NtRp2353
(dp2354
g54
(dp2355
g62
I5
ssg63
g2349
sg56
(lp2356
g49
(g58
g51
NtRp2357
(dp2358
g54
(dp2359
g62
I4
ssg63
Nsg56
(lp2360
g49
(g65
g51
NtRp2361
(dp2362
g54
(dp2363
sg63
g2357
sg56
(lp2364
g49
(g70
g51
NtRp2365
(dp2366
g54
(dp2367
g74
g75
ssg63
g2361
sg56
(lp2368
S'environ'
p2369
asbag49
(g70
g51
NtRp2370
(dp2371
g54
(dp2372
g81
g82
ssg63
g2361
sg56
(lp2373
S':'
asbag49
(g70
g51
NtRp2374
(dp2375
g54
(dp2376
sg63
g2361
sg56
(lp2377
g49
(g50
g51
NtRp2378
(dp2379
g54
(dp2380
g62
I4
ssg63
g2374
sg56
(lp2381
g49
(g58
g51
NtRp2382
(dp2383
g54
(dp2384
g62
I3
ssg63
Nsg56
(lp2385
g49
(g65
g51
NtRp2386
(dp2387
g54
(dp2388
sg63
g2382
sg56
(lp2389
g49
(g70
g51
NtRp2390
(dp2391
g54
(dp2392
g74
g75
ssg63
g2386
sg56
(lp2393
S'CONTENT_LENGTH'
p2394
asbag49
(g70
g51
NtRp2395
(dp2396
g54
(dp2397
g81
g82
ssg63
g2386
sg56
(lp2398
S':'
asbag49
(g70
g51
NtRp2399
(dp2400
g54
(dp2401
sg63
g2386
sg56
(lp2402
g49
(g50
g51
NtRp2403
(dp2404
g54
(dp2405
g62
I3
ssg63
g2399
sg56
(lp2406
g680
asbasbasbag49
(g65
g51
NtRp2407
(dp2408
g54
(dp2409
sg63
g2382
sg56
(lp2410
g49
(g70
g51
NtRp2411
(dp2412
g54
(dp2413
g74
g75
ssg63
g2407
sg56
(lp2414
S'CONTENT_TYPE'
p2415
asbag49
(g70
g51
NtRp2416
(dp2417
g54
(dp2418
g81
g82
ssg63
g2407
sg56
(lp2419
S':'
asbag49
(g70
g51
NtRp2420
(dp2421
g54
(dp2422
sg63
g2407
sg56
(lp2423
g49
(g50
g51
NtRp2424
(dp2425
g54
(dp2426
g62
I3
ssg63
g2420
sg56
(lp2427
g702
asbasbasbag49
(g65
g51
NtRp2428
(dp2429
g54
(dp2430
sg63
g2382
sg56
(lp2431
g49
(g70
g51
NtRp2432
(dp2433
g54
(dp2434
g74
g75
ssg63
g2428
sg56
(lp2435
S'HTTP_ACCEPT'
p2436
asbag49
(g70
g51
NtRp2437
(dp2438
g54
(dp2439
g81
g82
ssg63
g2428
sg56
(lp2440
S':'
asbag49
(g70
g51
NtRp2441
(dp2442
g54
(dp2443
sg63
g2428
sg56
(lp2444
g49
(g50
g51
NtRp2445
(dp2446
g54
(dp2447
g62
I3
ssg63
g2441
sg56
(lp2448
g789
asbasbasbag49
(g65
g51
NtRp2449
(dp2450
g54
(dp2451
sg63
g2382
sg56
(lp2452
g49
(g70
g51
NtRp2453
(dp2454
g54
(dp2455
g74
g75
ssg63
g2449
sg56
(lp2456
S'HTTP_ACCEPT_ENCODING'
p2457
asbag49
(g70
g51
NtRp2458
(dp2459
g54
(dp2460
g81
g82
ssg63
g2449
sg56
(lp2461
S':'
asbag49
(g70
g51
NtRp2462
(dp2463
g54
(dp2464
sg63
g2449
sg56
(lp2465
g49
(g50
g51
NtRp2466
(dp2467
g54
(dp2468
g62
I3
ssg63
g2462
sg56
(lp2469
g811
asbasbasbag49
(g65
g51
NtRp2470
(dp2471
g54
(dp2472
sg63
g2382
sg56
(lp2473
g49
(g70
g51
NtRp2474
(dp2475
g54
(dp2476
g74
g75
ssg63
g2470
sg56
(lp2477
S'HTTP_ACCEPT_LANGUAGE'
p2478
asbag49
(g70
g51
NtRp2479
(dp2480
g54
(dp2481
g81
g82
ssg63
g2470
sg56
(lp2482
S':'
asbag49
(g70
g51
NtRp2483
(dp2484
g54
(dp2485
sg63
g2470
sg56
(lp2486
g49
(g50
g51
NtRp2487
(dp2488
g54
(dp2489
g62
I3
ssg63
g2483
sg56
(lp2490
g833
asbasbasbag49
(g65
g51
NtRp2491
(dp2492
g54
(dp2493
sg63
g2382
sg56
(lp2494
g49
(g70
g51
NtRp2495
(dp2496
g54
(dp2497
g74
g75
ssg63
g2491
sg56
(lp2498
S'HTTP_CACHE_CONTROL'
p2499
asbag49
(g70
g51
NtRp2500
(dp2501
g54
(dp2502
g81
g82
ssg63
g2491
sg56
(lp2503
S':'
asbag49
(g70
g51
NtRp2504
(dp2505
g54
(dp2506
sg63
g2491
sg56
(lp2507
g49
(g50
g51
NtRp2508
(dp2509
g54
(dp2510
g62
I3
ssg63
g2504
sg56
(lp2511
g855
asbasbasbag49
(g65
g51
NtRp2512
(dp2513
g54
(dp2514
sg63
g2382
sg56
(lp2515
g49
(g70
g51
NtRp2516
(dp2517
g54
(dp2518
g74
g75
ssg63
g2512
sg56
(lp2519
S'HTTP_CONNECTION'
p2520
asbag49
(g70
g51
NtRp2521
(dp2522
g54
(dp2523
g81
g82
ssg63
g2512
sg56
(lp2524
S':'
asbag49
(g70
g51
NtRp2525
(dp2526
g54
(dp2527
sg63
g2512
sg56
(lp2528
g49
(g50
g51
NtRp2529
(dp2530
g54
(dp2531
g62
I3
ssg63
g2525
sg56
(lp2532
g877
asbasbasbag49
(g65
g51
NtRp2533
(dp2534
g54
(dp2535
sg63
g2382
sg56
(lp2536
g49
(g70
g51
NtRp2537
(dp2538
g54
(dp2539
g74
g75
ssg63
g2533
sg56
(lp2540
S'HTTP_CONTENT_LENGTH'
p2541
asbag49
(g70
g51
NtRp2542
(dp2543
g54
(dp2544
g81
g82
ssg63
g2533
sg56
(lp2545
S':'
asbag49
(g70
g51
NtRp2546
(dp2547
g54
(dp2548
sg63
g2533
sg56
(lp2549
g49
(g50
g51
NtRp2550
(dp2551
g54
(dp2552
g62
I3
ssg63
g2546
sg56
(lp2553
g680
asbasbasbag49
(g65
g51
NtRp2554
(dp2555
g54
(dp2556
sg63
g2382
sg56
(lp2557
g49
(g70
g51
NtRp2558
(dp2559
g54
(dp2560
g74
g75
ssg63
g2554
sg56
(lp2561
S'HTTP_CONTENT_TYPE'
p2562
asbag49
(g70
g51
NtRp2563
(dp2564
g54
(dp2565
g81
g82
ssg63
g2554
sg56
(lp2566
S':'
asbag49
(g70
g51
NtRp2567
(dp2568
g54
(dp2569
sg63
g2554
sg56
(lp2570
g49
(g50
g51
NtRp2571
(dp2572
g54
(dp2573
g62
I3
ssg63
g2567
sg56
(lp2574
g702
asbasbasbag49
(g65
g51
NtRp2575
(dp2576
g54
(dp2577
sg63
g2382
sg56
(lp2578
g49
(g70
g51
NtRp2579
(dp2580
g54
(dp2581
g74
g75
ssg63
g2575
sg56
(lp2582
S'HTTP_COOKIE'
p2583
asbag49
(g70
g51
NtRp2584
(dp2585
g54
(dp2586
g81
g82
ssg63
g2575
sg56
(lp2587
S':'
asbag49
(g70
g51
NtRp2588
(dp2589
g54
(dp2590
sg63
g2575
sg56
(lp2591
g49
(g50
g51
NtRp2592
(dp2593
g54
(dp2594
g62
I3
ssg63
g2588
sg56
(lp2595
g941
asbasbasbag49
(g65
g51
NtRp2596
(dp2597
g54
(dp2598
sg63
g2382
sg56
(lp2599
g49
(g70
g51
NtRp2600
(dp2601
g54
(dp2602
g74
g75
ssg63
g2596
sg56
(lp2603
S'HTTP_HOST'
p2604
asbag49
(g70
g51
NtRp2605
(dp2606
g54
(dp2607
g81
g82
ssg63
g2596
sg56
(lp2608
S':'
asbag49
(g70
g51
NtRp2609
(dp2610
g54
(dp2611
sg63
g2596
sg56
(lp2612
g49
(g50
g51
NtRp2613
(dp2614
g54
(dp2615
g62
I3
ssg63
g2609
sg56
(lp2616
g963
asbasbasbag49
(g65
g51
NtRp2617
(dp2618
g54
(dp2619
sg63
g2382
sg56
(lp2620
g49
(g70
g51
NtRp2621
(dp2622
g54
(dp2623
g74
g75
ssg63
g2617
sg56
(lp2624
S'HTTP_REFERER'
p2625
asbag49
(g70
g51
NtRp2626
(dp2627
g54
(dp2628
g81
g82
ssg63
g2617
sg56
(lp2629
S':'
asbag49
(g70
g51
NtRp2630
(dp2631
g54
(dp2632
sg63
g2617
sg56
(lp2633
g49
(g50
g51
NtRp2634
(dp2635
g54
(dp2636
g62
I3
ssg63
g2630
sg56
(lp2637
g985
asbasbasbag49
(g65
g51
NtRp2638
(dp2639
g54
(dp2640
sg63
g2382
sg56
(lp2641
g49
(g70
g51
NtRp2642
(dp2643
g54
(dp2644
g74
g75
ssg63
g2638
sg56
(lp2645
S'HTTP_USER_AGENT'
p2646
asbag49
(g70
g51
NtRp2647
(dp2648
g54
(dp2649
g81
g82
ssg63
g2638
sg56
(lp2650
S':'
asbag49
(g70
g51
NtRp2651
(dp2652
g54
(dp2653
sg63
g2638
sg56
(lp2654
g49
(g50
g51
NtRp2655
(dp2656
g54
(dp2657
g62
I3
ssg63
g2651
sg56
(lp2658
g1007
asbasbasbag49
(g65
g51
NtRp2659
(dp2660
g54
(dp2661
sg63
g2382
sg56
(lp2662
g49
(g70
g51
NtRp2663
(dp2664
g54
(dp2665
g74
g75
ssg63
g2659
sg56
(lp2666
S'PATH_INFO'
p2667
asbag49
(g70
g51
NtRp2668
(dp2669
g54
(dp2670
g81
g82
ssg63
g2659
sg56
(lp2671
S':'
asbag49
(g70
g51
NtRp2672
(dp2673
g54
(dp2674
sg63
g2659
sg56
(lp2675
g49
(g50
g51
NtRp2676
(dp2677
g54
(dp2678
g62
I3
ssg63
g2672
sg56
(lp2679
g1071
asbasbasbag49
(g65
g51
NtRp2680
(dp2681
g54
(dp2682
sg63
g2382
sg56
(lp2683
g49
(g70
g51
NtRp2684
(dp2685
g54
(dp2686
g74
g75
ssg63
g2680
sg56
(lp2687
S'QUERY_STRING'
p2688
asbag49
(g70
g51
NtRp2689
(dp2690
g54
(dp2691
g81
g82
ssg63
g2680
sg56
(lp2692
S':'
asbag49
(g70
g51
NtRp2693
(dp2694
g54
(dp2695
sg63
g2680
sg56
(lp2696
g49
(g50
g51
NtRp2697
(dp2698
g54
(dp2699
g62
I3
ssg63
g2693
sg56
(lp2700
S''
asbasbasbag49
(g65
g51
NtRp2701
(dp2702
g54
(dp2703
sg63
g2382
sg56
(lp2704
g49
(g70
g51
NtRp2705
(dp2706
g54
(dp2707
g74
g75
ssg63
g2701
sg56
(lp2708
S'REMOTE_ADDR'
p2709
asbag49
(g70
g51
NtRp2710
(dp2711
g54
(dp2712
g81
g82
ssg63
g2701
sg56
(lp2713
S':'
asbag49
(g70
g51
NtRp2714
(dp2715
g54
(dp2716
sg63
g2701
sg56
(lp2717
g49
(g50
g51
NtRp2718
(dp2719
g54
(dp2720
g62
I3
ssg63
g2714
sg56
(lp2721
g158
asbasbasbag49
(g65
g51
NtRp2722
(dp2723
g54
(dp2724
sg63
g2382
sg56
(lp2725
g49
(g70
g51
NtRp2726
(dp2727
g54
(dp2728
g74
g75
ssg63
g2722
sg56
(lp2729
S'REMOTE_PORT'
p2730
asbag49
(g70
g51
NtRp2731
(dp2732
g54
(dp2733
g81
g82
ssg63
g2722
sg56
(lp2734
S':'
asbag49
(g70
g51
NtRp2735
(dp2736
g54
(dp2737
sg63
g2722
sg56
(lp2738
g49
(g50
g51
NtRp2739
(dp2740
g54
(dp2741
g62
I3
ssg63
g2735
sg56
(lp2742
g1135
asbasbasbag49
(g65
g51
NtRp2743
(dp2744
g54
(dp2745
sg63
g2382
sg56
(lp2746
g49
(g70
g51
NtRp2747
(dp2748
g54
(dp2749
g74
g75
ssg63
g2743
sg56
(lp2750
S'REQUEST_METHOD'
p2751
asbag49
(g70
g51
NtRp2752
(dp2753
g54
(dp2754
g81
g82
ssg63
g2743
sg56
(lp2755
S':'
asbag49
(g70
g51
NtRp2756
(dp2757
g54
(dp2758
sg63
g2743
sg56
(lp2759
g49
(g50
g51
NtRp2760
(dp2761
g54
(dp2762
g62
I3
ssg63
g2756
sg56
(lp2763
g1157
asbasbasbag49
(g65
g51
NtRp2764
(dp2765
g54
(dp2766
sg63
g2382
sg56
(lp2767
g49
(g70
g51
NtRp2768
(dp2769
g54
(dp2770
g74
g75
ssg63
g2764
sg56
(lp2771
S'REQUEST_URI'
p2772
asbag49
(g70
g51
NtRp2773
(dp2774
g54
(dp2775
g81
g82
ssg63
g2764
sg56
(lp2776
S':'
asbag49
(g70
g51
NtRp2777
(dp2778
g54
(dp2779
sg63
g2764
sg56
(lp2780
g49
(g50
g51
NtRp2781
(dp2782
g54
(dp2783
g62
I3
ssg63
g2777
sg56
(lp2784
g1071
asbasbasbag49
(g65
g51
NtRp2785
(dp2786
g54
(dp2787
sg63
g2382
sg56
(lp2788
g49
(g70
g51
NtRp2789
(dp2790
g54
(dp2791
g74
g75
ssg63
g2785
sg56
(lp2792
S'SCRIPT_NAME'
p2793
asbag49
(g70
g51
NtRp2794
(dp2795
g54
(dp2796
g81
g82
ssg63
g2785
sg56
(lp2797
S':'
asbag49
(g70
g51
NtRp2798
(dp2799
g54
(dp2800
sg63
g2785
sg56
(lp2801
g49
(g50
g51
NtRp2802
(dp2803
g54
(dp2804
g62
I3
ssg63
g2798
sg56
(lp2805
S''
asbasbasbag49
(g65
g51
NtRp2806
(dp2807
g54
(dp2808
sg63
g2382
sg56
(lp2809
g49
(g70
g51
NtRp2810
(dp2811
g54
(dp2812
g74
g75
ssg63
g2806
sg56
(lp2813
S'SERVER_NAME'
p2814
asbag49
(g70
g51
NtRp2815
(dp2816
g54
(dp2817
g81
g82
ssg63
g2806
sg56
(lp2818
S':'
asbag49
(g70
g51
NtRp2819
(dp2820
g54
(dp2821
sg63
g2806
sg56
(lp2822
g49
(g50
g51
NtRp2823
(dp2824
g54
(dp2825
g62
I3
ssg63
g2819
sg56
(lp2826
g1221
asbasbasbag49
(g65
g51
NtRp2827
(dp2828
g54
(dp2829
sg63
g2382
sg56
(lp2830
g49
(g70
g51
NtRp2831
(dp2832
g54
(dp2833
g74
g75
ssg63
g2827
sg56
(lp2834
S'SERVER_PORT'
p2835
asbag49
(g70
g51
NtRp2836
(dp2837
g54
(dp2838
g81
g82
ssg63
g2827
sg56
(lp2839
S':'
asbag49
(g70
g51
NtRp2840
(dp2841
g54
(dp2842
sg63
g2827
sg56
(lp2843
g49
(g50
g51
NtRp2844
(dp2845
g54
(dp2846
g62
I3
ssg63
g2840
sg56
(lp2847
g1243
asbasbasbag49
(g65
g51
NtRp2848
(dp2849
g54
(dp2850
sg63
g2382
sg56
(lp2851
g49
(g70
g51
NtRp2852
(dp2853
g54
(dp2854
g74
g75
ssg63
g2848
sg56
(lp2855
S'SERVER_PROTOCOL'
p2856
asbag49
(g70
g51
NtRp2857
(dp2858
g54
(dp2859
g81
g82
ssg63
g2848
sg56
(lp2860
S':'
asbag49
(g70
g51
NtRp2861
(dp2862
g54
(dp2863
sg63
g2848
sg56
(lp2864
g49
(g50
g51
NtRp2865
(dp2866
g54
(dp2867
g62
I3
ssg63
g2861
sg56
(lp2868
g1265
asbasbasbag49
(g65
g51
NtRp2869
(dp2870
g54
(dp2871
sg63
g2382
sg56
(lp2872
g49
(g70
g51
NtRp2873
(dp2874
g54
(dp2875
g74
g75
ssg63
g2869
sg56
(lp2876
S'SERVER_SOFTWARE'
p2877
asbag49
(g70
g51
NtRp2878
(dp2879
g54
(dp2880
g81
g82
ssg63
g2869
sg56
(lp2881
S':'
asbag49
(g70
g51
NtRp2882
(dp2883
g54
(dp2884
sg63
g2869
sg56
(lp2885
g49
(g50
g51
NtRp2886
(dp2887
g54
(dp2888
g62
I3
ssg63
g2882
sg56
(lp2889
g1287
asbasbasbag49
(g65
g51
NtRp2890
(dp2891
g54
(dp2892
sg63
g2382
sg56
(lp2893
g49
(g70
g51
NtRp2894
(dp2895
g54
(dp2896
g74
g75
ssg63
g2890
sg56
(lp2897
S'WEB2PY_ORIGINAL_URI'
p2898
asbag49
(g70
g51
NtRp2899
(dp2900
g54
(dp2901
g81
g82
ssg63
g2890
sg56
(lp2902
S':'
asbag49
(g70
g51
NtRp2903
(dp2904
g54
(dp2905
sg63
g2890
sg56
(lp2906
g49
(g50
g51
NtRp2907
(dp2908
g54
(dp2909
g62
I3
ssg63
g2903
sg56
(lp2910
g1331
asbasbasbag49
(g65
g51
NtRp2911
(dp2912
g54
(dp2913
sg63
g2382
sg56
(lp2914
g49
(g70
g51
NtRp2915
(dp2916
g54
(dp2917
g74
g75
ssg63
g2911
sg56
(lp2918
S'wsgi.errors'
p2919
asbag49
(g70
g51
NtRp2920
(dp2921
g54
(dp2922
g81
g82
ssg63
g2911
sg56
(lp2923
S':'
asbag49
(g70
g51
NtRp2924
(dp2925
g54
(dp2926
sg63
g2911
sg56
(lp2927
g49
(g50
g51
NtRp2928
(dp2929
g54
(dp2930
g62
I3
ssg63
g2924
sg56
(lp2931
S"<open file '<stderr>', mode 'w' at 0x004200B0>"
p2932
asbasbasbag49
(g65
g51
NtRp2933
(dp2934
g54
(dp2935
sg63
g2382
sg56
(lp2936
g49
(g70
g51
NtRp2937
(dp2938
g54
(dp2939
g74
g75
ssg63
g2933
sg56
(lp2940
S'wsgi.file_wrapper'
p2941
asbag49
(g70
g51
NtRp2942
(dp2943
g54
(dp2944
g81
g82
ssg63
g2933
sg56
(lp2945
S':'
asbag49
(g70
g51
NtRp2946
(dp2947
g54
(dp2948
sg63
g2933
sg56
(lp2949
g49
(g50
g51
NtRp2950
(dp2951
g54
(dp2952
g62
I3
ssg63
g2946
sg56
(lp2953
S'<class wsgiref.util.FileWrapper at 0x02FC6390>'
p2954
asbasbasbag49
(g65
g51
NtRp2955
(dp2956
g54
(dp2957
sg63
g2382
sg56
(lp2958
g49
(g70
g51
NtRp2959
(dp2960
g54
(dp2961
g74
g75
ssg63
g2955
sg56
(lp2962
S'wsgi.input'
p2963
asbag49
(g70
g51
NtRp2964
(dp2965
g54
(dp2966
g81
g82
ssg63
g2955
sg56
(lp2967
S':'
asbag49
(g70
g51
NtRp2968
(dp2969
g54
(dp2970
sg63
g2955
sg56
(lp2971
g49
(g50
g51
NtRp2972
(dp2973
g54
(dp2974
g62
I3
ssg63
g2968
sg56
(lp2975
S"<open file '<fdopen>', mode 'w+b' at 0x067EB2F0>"
p2976
asbasbasbag49
(g65
g51
NtRp2977
(dp2978
g54
(dp2979
sg63
g2382
sg56
(lp2980
g49
(g70
g51
NtRp2981
(dp2982
g54
(dp2983
g74
g75
ssg63
g2977
sg56
(lp2984
S'wsgi.multiprocess'
p2985
asbag49
(g70
g51
NtRp2986
(dp2987
g54
(dp2988
g81
g82
ssg63
g2977
sg56
(lp2989
S':'
asbag49
(g70
g51
NtRp2990
(dp2991
g54
(dp2992
sg63
g2977
sg56
(lp2993
g49
(g50
g51
NtRp2994
(dp2995
g54
(dp2996
g62
I3
ssg63
g2990
sg56
(lp2997
g92
asbasbasbag49
(g65
g51
NtRp2998
(dp2999
g54
(dp3000
sg63
g2382
sg56
(lp3001
g49
(g70
g51
NtRp3002
(dp3003
g54
(dp3004
g74
g75
ssg63
g2998
sg56
(lp3005
S'wsgi.multithread'
p3006
asbag49
(g70
g51
NtRp3007
(dp3008
g54
(dp3009
g81
g82
ssg63
g2998
sg56
(lp3010
S':'
asbag49
(g70
g51
NtRp3011
(dp3012
g54
(dp3013
sg63
g2998
sg56
(lp3014
g49
(g50
g51
NtRp3015
(dp3016
g54
(dp3017
g62
I3
ssg63
g3011
sg56
(lp3018
g1549
asbasbasbag49
(g65
g51
NtRp3019
(dp3020
g54
(dp3021
sg63
g2382
sg56
(lp3022
g49
(g70
g51
NtRp3023
(dp3024
g54
(dp3025
g74
g75
ssg63
g3019
sg56
(lp3026
S'wsgi.run_once'
p3027
asbag49
(g70
g51
NtRp3028
(dp3029
g54
(dp3030
g81
g82
ssg63
g3019
sg56
(lp3031
S':'
asbag49
(g70
g51
NtRp3032
(dp3033
g54
(dp3034
sg63
g3019
sg56
(lp3035
g49
(g50
g51
NtRp3036
(dp3037
g54
(dp3038
g62
I3
ssg63
g3032
sg56
(lp3039
g92
asbasbasbag49
(g65
g51
NtRp3040
(dp3041
g54
(dp3042
sg63
g2382
sg56
(lp3043
g49
(g70
g51
NtRp3044
(dp3045
g54
(dp3046
g74
g75
ssg63
g3040
sg56
(lp3047
S'wsgi.url_scheme'
p3048
asbag49
(g70
g51
NtRp3049
(dp3050
g54
(dp3051
g81
g82
ssg63
g3040
sg56
(lp3052
S':'
asbag49
(g70
g51
NtRp3053
(dp3054
g54
(dp3055
sg63
g3040
sg56
(lp3056
g49
(g50
g51
NtRp3057
(dp3058
g54
(dp3059
g62
I3
ssg63
g3053
sg56
(lp3060
g1592
asbasbasbag49
(g65
g51
NtRp3061
(dp3062
g54
(dp3063
sg63
g2382
sg56
(lp3064
g49
(g70
g51
NtRp3065
(dp3066
g54
(dp3067
g74
g75
ssg63
g3061
sg56
(lp3068
S'wsgi.version'
p3069
asbag49
(g70
g51
NtRp3070
(dp3071
g54
(dp3072
g81
g82
ssg63
g3061
sg56
(lp3073
S':'
asbag49
(g70
g51
NtRp3074
(dp3075
g54
(dp3076
sg63
g3061
sg56
(lp3077
g49
(g50
g51
NtRp3078
(dp3079
g54
(dp3080
g62
I3
ssg63
g3074
sg56
(lp3081
S'1'
asbasbasbasbasbasbasbasbasbasbasbasbasbsS'frames'
p3082
(lp3083
(dp3084
S'file'
p3085
S'D:\\Dise\xf1o Web\\Proyectos\\Parleyweb\\web2py\\gluon\\restricted.py'
p3086
sS'dump'
p3087
(dp3088
sS'lnum'
p3089
I205
sS'lines'
p3090
(dp3091
sS'call'
p3092
S'(code=\'response.write(\\\'\\\\r\\\\n\\\', escape=False)\\nresponse.wr...>\\\\n   \\\\n\\\\n \\\\n\\\\n</body>\\\\n</html>\\\\n", escape=False)\', environment={\'A\': <class \'gluon.html.A\'>, \'Auth\': <class \'gluon.tools.Auth\'>, \'B\': <class \'gluon.html.B\'>, \'BEAUTIFY\': <class \'gluon.html.BEAUTIFY\'>, \'BODY\': <class \'gluon.html.BODY\'>, \'BR\': <class \'gluon.html.BR\'>, \'BUTTON\': <class \'gluon.html.BUTTON\'>, \'CAT\': <class \'gluon.html.CAT\'>, \'CENTER\': <class \'gluon.html.CENTER\'>, \'CLEANUP\': <class \'gluon.validators.CLEANUP\'>, ...}, layer=\'D:\\\\Dise\\xf1o Web\\\\Proyectos\\\\Parleyweb\\\\web2py\\\\applications\\\\parleyweb\\\\views\\\\admin/relacionar.html\')'
p3093
sS'func'
p3094
S'restricted'
p3095
sa(dp3096
g3085
S'D:\\Dise\xf1o Web\\Proyectos\\Parleyweb\\web2py\\applications\\parleyweb\\views\\admin\\relacionar.html'
p3097
sg3087
(dp3098
sg3089
I65
sg3090
(dp3099
I64
S"response.write('\\r\\n<h1>Esta es la plantilla admin/relacionar.html</h1>\\r\\n\\r\\n', escape=False)"
p3100
sI65
S'response.write(request.vars.relacionar(0))'
p3101
sI66
S"response.write('\\r\\n', escape=False)"
p3102
sI67
S'response.write(len(a))'
p3103
sI68
S"response.write('\\r\\n', escape=False)"
p3104
sI69
S'response.write(tabla)'
p3105
sI70
S"response.write('\\r\\n', escape=False)"
p3106
sI71
S'response.write(response.toolbar())'
p3107
sI72
S"response.write('\\r\\n\\r\\n', escape=False)"
p3108
sI73
S"response.write('\\n\\t  ', escape=False)"
p3109
sI74
S'response.write("\\n          \\n        </div><!--/span-->\\n      </div><!--/row-->\\n\\n      <hr>\\n\\n      <footer>\\n        <p>\\xc2\\xa9 Company 2012</p>\\n      </footer>\\n\\n    </div><!--/.fluid-container-->\\n    \\n    <!-- Le javascript\\n    ================================================== -->\\n    <!-- Placed at the end of the document so the pages load faster \\n    <script>\\n      $(function () {\\n      $(\'.tabs a:last\').tab(\'show\')\\n      })\\n    </script>-->\\n   \\n\\n \\n\\n</body>\\n</html>\\n", escape=False)'
p3110
sI56
S'response.write(\'</li>\\n            </ul>\\n\\t    \\n            <p class="navbar-text pull-right">\', escape=False)'
p3111
sI57
S"response.write('auth' in globals() and auth.navbar(separators=(' ',' | ','')))"
p3112
sI58
S'response.write(\'</p>\\n          </div><!--/.nav-collapse -->\\n        </div>\\n      </div>\\n    </div>\\n    <div class="flash alert alert-info"></i>\', escape=False)'
p3113
sI59
S"response.write(response.flash or '')"
p3114
sI60
S'response.write(\'</div>\\n    <div class="container-fluid">\\n      <div class="row-fluid">\\n        <div class="span3">\\n          <div class="well sidebar-nav">\\n            <ul class="nav nav-list">\\n              <li class="nav-header">\', escape=False)'
p3115
sI61
S"response.write(T('Buscar'))"
p3116
sI62
S'response.write(\'</li>\\n            </ul>\\n          </div><!--/.well -->\\n        </div><!--/span-->\\n        <div class="span9">\\n\\t  \', escape=False)'
p3117
sI63
S"response.write('\\n\\t    ', escape=False)"
p3118
ssg3092
S'()'
p3119
sg3094
S'<module>'
p3120
sasS'pyver'
p3121
S'Python 2.5.4: D:\\Dise\xf1o Web\\Proyectos\\Parleyweb\\web2py\\web2py.exe'
p3122
sS'session'
p3123
g49
(g50
g51
NtRp3124
(dp3125
g54
(dp3126
sg56
(lp3127
g49
(g58
g51
NtRp3128
(dp3129
g54
(dp3130
g62
I5
ssg63
Nsg56
(lp3131
sbasbsS'etype'
p3132
S"<type 'exceptions.TypeError'>"
p3133
sS'date'
p3134
S'Thu Mar 15 15:07:55 2012'
p3135
sS'response'
p3136
g49
(g50
g51
NtRp3137
(dp3138
g54
(dp3139
sg56
(lp3140
g49
(g58
g51
NtRp3141
(dp3142
g54
(dp3143
g62
I5
ssg63
Nsg56
(lp3144
g49
(g65
g51
NtRp3145
(dp3146
g54
(dp3147
sg63
g3141
sg56
(lp3148
g49
(g70
g51
NtRp3149
(dp3150
g54
(dp3151
g74
g75
ssg63
g3145
sg56
(lp3152
g123
asbag49
(g70
g51
NtRp3153
(dp3154
g54
(dp3155
g81
g82
ssg63
g3145
sg56
(lp3156
S':'
asbag49
(g70
g51
NtRp3157
(dp3158
g54
(dp3159
sg63
g3145
sg56
(lp3160
g49
(g50
g51
NtRp3161
(dp3162
g54
(dp3163
g62
I5
ssg63
g3157
sg56
(lp3164
S'<cStringIO.StringO object at 0x066A81E0>'
p3165
asbasbasbag49
(g65
g51
NtRp3166
(dp3167
g54
(dp3168
sg63
g3141
sg56
(lp3169
g49
(g70
g51
NtRp3170
(dp3171
g54
(dp3172
g74
g75
ssg63
g3166
sg56
(lp3173
g189
asbag49
(g70
g51
NtRp3174
(dp3175
g54
(dp3176
g81
g82
ssg63
g3166
sg56
(lp3177
S':'
asbag49
(g70
g51
NtRp3178
(dp3179
g54
(dp3180
sg63
g3166
sg56
(lp3181
g49
(g50
g51
NtRp3182
(dp3183
g54
(dp3184
g62
I5
ssg63
g3178
sg56
(lp3185
g49
(g58
g51
NtRp3186
(dp3187
g54
(dp3188
g62
I4
ssg63
Nsg56
(lp3189
g49
(g65
g51
NtRp3190
(dp3191
g54
(dp3192
sg63
g3186
sg56
(lp3193
g49
(g70
g51
NtRp3194
(dp3195
g54
(dp3196
g74
g75
ssg63
g3190
sg56
(lp3197
S'session_id_parleyweb'
p3198
asbag49
(g70
g51
NtRp3199
(dp3200
g54
(dp3201
g81
g82
ssg63
g3190
sg56
(lp3202
S':'
asbag49
(g70
g51
NtRp3203
(dp3204
g54
(dp3205
sg63
g3190
sg56
(lp3206
g49
(g50
g51
NtRp3207
(dp3208
g54
(dp3209
g62
I4
ssg63
g3203
sg56
(lp3210
g49
(g58
g51
NtRp3211
(dp3212
g54
(dp3213
g62
I3
ssg63
Nsg56
(lp3214
g49
(g65
g51
NtRp3215
(dp3216
g54
(dp3217
sg63
g3211
sg56
(lp3218
g49
(g70
g51
NtRp3219
(dp3220
g54
(dp3221
g74
g75
ssg63
g3215
sg56
(lp3222
g239
asbag49
(g70
g51
NtRp3223
(dp3224
g54
(dp3225
g81
g82
ssg63
g3215
sg56
(lp3226
S':'
asbag49
(g70
g51
NtRp3227
(dp3228
g54
(dp3229
sg63
g3215
sg56
(lp3230
g49
(g50
g51
NtRp3231
(dp3232
g54
(dp3233
g62
I3
ssg63
g3227
sg56
(lp3234
S''
asbasbasbag49
(g65
g51
NtRp3235
(dp3236
g54
(dp3237
sg63
g3211
sg56
(lp3238
g49
(g70
g51
NtRp3239
(dp3240
g54
(dp3241
g74
g75
ssg63
g3235
sg56
(lp3242
g260
asbag49
(g70
g51
NtRp3243
(dp3244
g54
(dp3245
g81
g82
ssg63
g3235
sg56
(lp3246
S':'
asbag49
(g70
g51
NtRp3247
(dp3248
g54
(dp3249
sg63
g3235
sg56
(lp3250
g49
(g50
g51
NtRp3251
(dp3252
g54
(dp3253
g62
I3
ssg63
g3247
sg56
(lp3254
S''
asbasbasbag49
(g65
g51
NtRp3255
(dp3256
g54
(dp3257
sg63
g3211
sg56
(lp3258
g49
(g70
g51
NtRp3259
(dp3260
g54
(dp3261
g74
g75
ssg63
g3255
sg56
(lp3262
g281
asbag49
(g70
g51
NtRp3263
(dp3264
g54
(dp3265
g81
g82
ssg63
g3255
sg56
(lp3266
S':'
asbag49
(g70
g51
NtRp3267
(dp3268
g54
(dp3269
sg63
g3255
sg56
(lp3270
g49
(g50
g51
NtRp3271
(dp3272
g54
(dp3273
g62
I3
ssg63
g3267
sg56
(lp3274
S''
asbasbasbag49
(g65
g51
NtRp3275
(dp3276
g54
(dp3277
sg63
g3211
sg56
(lp3278
g49
(g70
g51
NtRp3279
(dp3280
g54
(dp3281
g74
g75
ssg63
g3275
sg56
(lp3282
g302
asbag49
(g70
g51
NtRp3283
(dp3284
g54
(dp3285
g81
g82
ssg63
g3275
sg56
(lp3286
S':'
asbag49
(g70
g51
NtRp3287
(dp3288
g54
(dp3289
sg63
g3275
sg56
(lp3290
g49
(g50
g51
NtRp3291
(dp3292
g54
(dp3293
g62
I3
ssg63
g3287
sg56
(lp3294
S''
asbasbasbag49
(g65
g51
NtRp3295
(dp3296
g54
(dp3297
sg63
g3211
sg56
(lp3298
g49
(g70
g51
NtRp3299
(dp3300
g54
(dp3301
g74
g75
ssg63
g3295
sg56
(lp3302
g323
asbag49
(g70
g51
NtRp3303
(dp3304
g54
(dp3305
g81
g82
ssg63
g3295
sg56
(lp3306
S':'
asbag49
(g70
g51
NtRp3307
(dp3308
g54
(dp3309
sg63
g3295
sg56
(lp3310
g49
(g50
g51
NtRp3311
(dp3312
g54
(dp3313
g62
I3
ssg63
g3307
sg56
(lp3314
S'/'
asbasbasbag49
(g65
g51
NtRp3315
(dp3316
g54
(dp3317
sg63
g3211
sg56
(lp3318
g49
(g70
g51
NtRp3319
(dp3320
g54
(dp3321
g74
g75
ssg63
g3315
sg56
(lp3322
g344
asbag49
(g70
g51
NtRp3323
(dp3324
g54
(dp3325
g81
g82
ssg63
g3315
sg56
(lp3326
S':'
asbag49
(g70
g51
NtRp3327
(dp3328
g54
(dp3329
sg63
g3315
sg56
(lp3330
g49
(g50
g51
NtRp3331
(dp3332
g54
(dp3333
g62
I3
ssg63
g3327
sg56
(lp3334
S''
asbasbasbag49
(g65
g51
NtRp3335
(dp3336
g54
(dp3337
sg63
g3211
sg56
(lp3338
g49
(g70
g51
NtRp3339
(dp3340
g54
(dp3341
g74
g75
ssg63
g3335
sg56
(lp3342
g365
asbag49
(g70
g51
NtRp3343
(dp3344
g54
(dp3345
g81
g82
ssg63
g3335
sg56
(lp3346
S':'
asbag49
(g70
g51
NtRp3347
(dp3348
g54
(dp3349
sg63
g3335
sg56
(lp3350
g49
(g50
g51
NtRp3351
(dp3352
g54
(dp3353
g62
I3
ssg63
g3347
sg56
(lp3354
S''
asbasbasbasbasbasbasbasbasbasbasbag49
(g65
g51
NtRp3355
(dp3356
g54
(dp3357
sg63
g3141
sg56
(lp3358
g49
(g70
g51
NtRp3359
(dp3360
g54
(dp3361
g74
g75
ssg63
g3355
sg56
(lp3362
S'delimiters'
p3363
asbag49
(g70
g51
NtRp3364
(dp3365
g54
(dp3366
g81
g82
ssg63
g3355
sg56
(lp3367
S':'
asbag49
(g70
g51
NtRp3368
(dp3369
g54
(dp3370
sg63
g3355
sg56
(lp3371
g49
(g50
g51
NtRp3372
(dp3373
g54
(dp3374
g62
I5
ssg63
g3368
sg56
(lp3375
g49
(g58
g51
NtRp3376
(dp3377
g54
(dp3378
g62
I4
ssg63
Nsg56
(lp3379
g49
(g65
g51
NtRp3380
(dp3381
g54
(dp3382
sg63
g3376
sg56
(lp3383
g49
(g70
g51
NtRp3384
(dp3385
g54
(dp3386
sg63
g3380
sg56
(lp3387
g49
(g50
g51
NtRp3388
(dp3389
g54
(dp3390
g62
I4
ssg63
g3384
sg56
(lp3391
S'{{'
p3392
asbasbasbag49
(g65
g51
NtRp3393
(dp3394
g54
(dp3395
sg63
g3376
sg56
(lp3396
g49
(g70
g51
NtRp3397
(dp3398
g54
(dp3399
sg63
g3393
sg56
(lp3400
g49
(g50
g51
NtRp3401
(dp3402
g54
(dp3403
g62
I4
ssg63
g3397
sg56
(lp3404
S'}}'
p3405
asbasbasbasbasbasbasbag49
(g65
g51
NtRp3406
(dp3407
g54
(dp3408
sg63
g3141
sg56
(lp3409
g49
(g70
g51
NtRp3410
(dp3411
g54
(dp3412
g74
g75
ssg63
g3406
sg56
(lp3413
S'files'
p3414
asbag49
(g70
g51
NtRp3415
(dp3416
g54
(dp3417
g81
g82
ssg63
g3406
sg56
(lp3418
S':'
asbag49
(g70
g51
NtRp3419
(dp3420
g54
(dp3421
sg63
g3406
sg56
(lp3422
g49
(g50
g51
NtRp3423
(dp3424
g54
(dp3425
g62
I5
ssg63
g3419
sg56
(lp3426
g49
(g58
g51
NtRp3427
(dp3428
g54
(dp3429
g62
I4
ssg63
Nsg56
(lp3430
g49
(g65
g51
NtRp3431
(dp3432
g54
(dp3433
sg63
g3427
sg56
(lp3434
g49
(g70
g51
NtRp3435
(dp3436
g54
(dp3437
sg63
g3431
sg56
(lp3438
g49
(g50
g51
NtRp3439
(dp3440
g54
(dp3441
g62
I4
ssg63
g3435
sg56
(lp3442
S'/parleyweb/static/js/jquery.js'
p3443
asbasbasbag49
(g65
g51
NtRp3444
(dp3445
g54
(dp3446
sg63
g3427
sg56
(lp3447
g49
(g70
g51
NtRp3448
(dp3449
g54
(dp3450
sg63
g3444
sg56
(lp3451
g49
(g50
g51
NtRp3452
(dp3453
g54
(dp3454
g62
I4
ssg63
g3448
sg56
(lp3455
S'/parleyweb/static/css/calendar.css'
p3456
asbasbasbag49
(g65
g51
NtRp3457
(dp3458
g54
(dp3459
sg63
g3427
sg56
(lp3460
g49
(g70
g51
NtRp3461
(dp3462
g54
(dp3463
sg63
g3457
sg56
(lp3464
g49
(g50
g51
NtRp3465
(dp3466
g54
(dp3467
g62
I4
ssg63
g3461
sg56
(lp3468
S'/parleyweb/static/js/calendar.js'
p3469
asbasbasbag49
(g65
g51
NtRp3470
(dp3471
g54
(dp3472
sg63
g3427
sg56
(lp3473
g49
(g70
g51
NtRp3474
(dp3475
g54
(dp3476
sg63
g3470
sg56
(lp3477
g49
(g50
g51
NtRp3478
(dp3479
g54
(dp3480
g62
I4
ssg63
g3474
sg56
(lp3481
S'/parleyweb/static/js/web2py.js'
p3482
asbasbasbag49
(g65
g51
NtRp3483
(dp3484
g54
(dp3485
sg63
g3427
sg56
(lp3486
g49
(g70
g51
NtRp3487
(dp3488
g54
(dp3489
sg63
g3483
sg56
(lp3490
g49
(g50
g51
NtRp3491
(dp3492
g54
(dp3493
g62
I4
ssg63
g3487
sg56
(lp3494
S'/parleyweb/static/css/bootstrap.css'
p3495
asbasbasbag49
(g65
g51
NtRp3496
(dp3497
g54
(dp3498
sg63
g3427
sg56
(lp3499
g49
(g70
g51
NtRp3500
(dp3501
g54
(dp3502
sg63
g3496
sg56
(lp3503
g49
(g50
g51
NtRp3504
(dp3505
g54
(dp3506
g62
I4
ssg63
g3500
sg56
(lp3507
S'/parleyweb/static/js/bootstrap.js'
p3508
asbasbasbag49
(g65
g51
NtRp3509
(dp3510
g54
(dp3511
sg63
g3427
sg56
(lp3512
g49
(g70
g51
NtRp3513
(dp3514
g54
(dp3515
sg63
g3509
sg56
(lp3516
g49
(g50
g51
NtRp3517
(dp3518
g54
(dp3519
g62
I4
ssg63
g3513
sg56
(lp3520
S'/parleyweb/static/css/parleyweb.css'
p3521
asbasbasbag49
(g65
g51
NtRp3522
(dp3523
g54
(dp3524
sg63
g3427
sg56
(lp3525
g49
(g70
g51
NtRp3526
(dp3527
g54
(dp3528
sg63
g3522
sg56
(lp3529
g49
(g50
g51
NtRp3530
(dp3531
g54
(dp3532
g62
I4
ssg63
g3526
sg56
(lp3533
S'/parleyweb/static/css/jquery-ui-1.8.18.custom.css'
p3534
asbasbasbag49
(g65
g51
NtRp3535
(dp3536
g54
(dp3537
sg63
g3427
sg56
(lp3538
g49
(g70
g51
NtRp3539
(dp3540
g54
(dp3541
sg63
g3535
sg56
(lp3542
g49
(g50
g51
NtRp3543
(dp3544
g54
(dp3545
g62
I4
ssg63
g3539
sg56
(lp3546
S'/parleyweb/static/js/parleyweb.js'
p3547
asbasbasbag49
(g65
g51
NtRp3548
(dp3549
g54
(dp3550
sg63
g3427
sg56
(lp3551
g49
(g70
g51
NtRp3552
(dp3553
g54
(dp3554
sg63
g3548
sg56
(lp3555
g49
(g50
g51
NtRp3556
(dp3557
g54
(dp3558
g62
I4
ssg63
g3552
sg56
(lp3559
S'/parleyweb/static/js/jquery-ui-1.8.18.custom.min.js'
p3560
asbasbasbasbasbasbasbag49
(g65
g51
NtRp3561
(dp3562
g54
(dp3563
sg63
g3141
sg56
(lp3564
g49
(g70
g51
NtRp3565
(dp3566
g54
(dp3567
g74
g75
ssg63
g3561
sg56
(lp3568
S'flash'
p3569
asbag49
(g70
g51
NtRp3570
(dp3571
g54
(dp3572
g81
g82
ssg63
g3561
sg56
(lp3573
S':'
asbag49
(g70
g51
NtRp3574
(dp3575
g54
(dp3576
sg63
g3561
sg56
(lp3577
g49
(g50
g51
NtRp3578
(dp3579
g54
(dp3580
g62
I5
ssg63
g3574
sg56
(lp3581
S''
asbasbasbag49
(g65
g51
NtRp3582
(dp3583
g54
(dp3584
sg63
g3141
sg56
(lp3585
g49
(g70
g51
NtRp3586
(dp3587
g54
(dp3588
g74
g75
ssg63
g3582
sg56
(lp3589
S'generic_patterns'
p3590
asbag49
(g70
g51
NtRp3591
(dp3592
g54
(dp3593
g81
g82
ssg63
g3582
sg56
(lp3594
S':'
asbag49
(g70
g51
NtRp3595
(dp3596
g54
(dp3597
sg63
g3582
sg56
(lp3598
g49
(g50
g51
NtRp3599
(dp3600
g54
(dp3601
g62
I5
ssg63
g3595
sg56
(lp3602
g49
(g58
g51
NtRp3603
(dp3604
g54
(dp3605
g62
I4
ssg63
Nsg56
(lp3606
g49
(g65
g51
NtRp3607
(dp3608
g54
(dp3609
sg63
g3603
sg56
(lp3610
g49
(g70
g51
NtRp3611
(dp3612
g54
(dp3613
sg63
g3607
sg56
(lp3614
g49
(g50
g51
NtRp3615
(dp3616
g54
(dp3617
g62
I4
ssg63
g3611
sg56
(lp3618
S'*'
asbasbasbasbasbasbasbag49
(g65
g51
NtRp3619
(dp3620
g54
(dp3621
sg63
g3141
sg56
(lp3622
g49
(g70
g51
NtRp3623
(dp3624
g54
(dp3625
g74
g75
ssg63
g3619
sg56
(lp3626
S'headers'
p3627
asbag49
(g70
g51
NtRp3628
(dp3629
g54
(dp3630
g81
g82
ssg63
g3619
sg56
(lp3631
S':'
asbag49
(g70
g51
NtRp3632
(dp3633
g54
(dp3634
sg63
g3619
sg56
(lp3635
g49
(g50
g51
NtRp3636
(dp3637
g54
(dp3638
g62
I5
ssg63
g3632
sg56
(lp3639
g49
(g58
g51
NtRp3640
(dp3641
g54
(dp3642
g62
I4
ssg63
Nsg56
(lp3643
g49
(g65
g51
NtRp3644
(dp3645
g54
(dp3646
sg63
g3640
sg56
(lp3647
g49
(g70
g51
NtRp3648
(dp3649
g54
(dp3650
g74
g75
ssg63
g3644
sg56
(lp3651
S'Cache-Control'
p3652
asbag49
(g70
g51
NtRp3653
(dp3654
g54
(dp3655
g81
g82
ssg63
g3644
sg56
(lp3656
S':'
asbag49
(g70
g51
NtRp3657
(dp3658
g54
(dp3659
sg63
g3644
sg56
(lp3660
g49
(g50
g51
NtRp3661
(dp3662
g54
(dp3663
g62
I4
ssg63
g3657
sg56
(lp3664
S'no-store, no-cache, must-revalidate, post-check=0, pre-check=0'
p3665
asbasbasbag49
(g65
g51
NtRp3666
(dp3667
g54
(dp3668
sg63
g3640
sg56
(lp3669
g49
(g70
g51
NtRp3670
(dp3671
g54
(dp3672
g74
g75
ssg63
g3666
sg56
(lp3673
S'Content-Type'
p3674
asbag49
(g70
g51
NtRp3675
(dp3676
g54
(dp3677
g81
g82
ssg63
g3666
sg56
(lp3678
S':'
asbag49
(g70
g51
NtRp3679
(dp3680
g54
(dp3681
sg63
g3666
sg56
(lp3682
g49
(g50
g51
NtRp3683
(dp3684
g54
(dp3685
g62
I4
ssg63
g3679
sg56
(lp3686
S'text/html; charset=utf-8'
p3687
asbasbasbag49
(g65
g51
NtRp3688
(dp3689
g54
(dp3690
sg63
g3640
sg56
(lp3691
g49
(g70
g51
NtRp3692
(dp3693
g54
(dp3694
g74
g75
ssg63
g3688
sg56
(lp3695
S'Expires'
p3696
asbag49
(g70
g51
NtRp3697
(dp3698
g54
(dp3699
g81
g82
ssg63
g3688
sg56
(lp3700
S':'
asbag49
(g70
g51
NtRp3701
(dp3702
g54
(dp3703
sg63
g3688
sg56
(lp3704
g49
(g50
g51
NtRp3705
(dp3706
g54
(dp3707
g62
I4
ssg63
g3701
sg56
(lp3708
S'Thu, 15 Mar 2012 14:07:54 GMT'
p3709
asbasbasbag49
(g65
g51
NtRp3710
(dp3711
g54
(dp3712
sg63
g3640
sg56
(lp3713
g49
(g70
g51
NtRp3714
(dp3715
g54
(dp3716
g74
g75
ssg63
g3710
sg56
(lp3717
S'Pragma'
p3718
asbag49
(g70
g51
NtRp3719
(dp3720
g54
(dp3721
g81
g82
ssg63
g3710
sg56
(lp3722
S':'
asbag49
(g70
g51
NtRp3723
(dp3724
g54
(dp3725
sg63
g3710
sg56
(lp3726
g49
(g50
g51
NtRp3727
(dp3728
g54
(dp3729
g62
I4
ssg63
g3723
sg56
(lp3730
S'no-cache'
p3731
asbasbasbag49
(g65
g51
NtRp3732
(dp3733
g54
(dp3734
sg63
g3640
sg56
(lp3735
g49
(g70
g51
NtRp3736
(dp3737
g54
(dp3738
g74
g75
ssg63
g3732
sg56
(lp3739
S'X-Powered-By'
p3740
asbag49
(g70
g51
NtRp3741
(dp3742
g54
(dp3743
g81
g82
ssg63
g3732
sg56
(lp3744
S':'
asbag49
(g70
g51
NtRp3745
(dp3746
g54
(dp3747
sg63
g3732
sg56
(lp3748
g49
(g50
g51
NtRp3749
(dp3750
g54
(dp3751
g62
I4
ssg63
g3745
sg56
(lp3752
S'web2py'
p3753
asbasbasbasbasbasbasbag49
(g65
g51
NtRp3754
(dp3755
g54
(dp3756
sg63
g3141
sg56
(lp3757
g49
(g70
g51
NtRp3758
(dp3759
g54
(dp3760
g74
g75
ssg63
g3754
sg56
(lp3761
S'menu'
p3762
asbag49
(g70
g51
NtRp3763
(dp3764
g54
(dp3765
g81
g82
ssg63
g3754
sg56
(lp3766
S':'
asbag49
(g70
g51
NtRp3767
(dp3768
g54
(dp3769
sg63
g3754
sg56
(lp3770
g49
(g50
g51
NtRp3771
(dp3772
g54
(dp3773
g62
I5
ssg63
g3767
sg56
(lp3774
g49
(g58
g51
NtRp3775
(dp3776
g54
(dp3777
g62
I4
ssg63
Nsg56
(lp3778
g49
(g65
g51
NtRp3779
(dp3780
g54
(dp3781
sg63
g3775
sg56
(lp3782
g49
(g70
g51
NtRp3783
(dp3784
g54
(dp3785
sg63
g3779
sg56
(lp3786
g49
(g50
g51
NtRp3787
(dp3788
g54
(dp3789
g62
I4
ssg63
g3783
sg56
(lp3790
g49
(g58
g51
NtRp3791
(dp3792
g54
(dp3793
g62
I3
ssg63
Nsg56
(lp3794
g49
(g65
g51
NtRp3795
(dp3796
g54
(dp3797
sg63
g3791
sg56
(lp3798
g49
(g70
g51
NtRp3799
(dp3800
g54
(dp3801
sg63
g3795
sg56
(lp3802
g49
(g50
g51
NtRp3803
(dp3804
g54
(dp3805
g62
I3
ssg63
g3799
sg56
(lp3806
cgluon.languages
lazyT_unpickle
p3807
(S't\x04\x00\x00\x00Home'
tRp3808
asbasbasbag49
(g65
g51
NtRp3809
(dp3810
g54
(dp3811
sg63
g3791
sg56
(lp3812
g49
(g70
g51
NtRp3813
(dp3814
g54
(dp3815
sg63
g3809
sg56
(lp3816
g49
(g50
g51
NtRp3817
(dp3818
g54
(dp3819
g62
I3
ssg63
g3813
sg56
(lp3820
g92
asbasbasbag49
(g65
g51
NtRp3821
(dp3822
g54
(dp3823
sg63
g3791
sg56
(lp3824
g49
(g70
g51
NtRp3825
(dp3826
g54
(dp3827
sg63
g3821
sg56
(lp3828
g49
(g50
g51
NtRp3829
(dp3830
g54
(dp3831
g62
I3
ssg63
g3825
sg56
(lp3832
S'/parleyweb/default/index'
p3833
asbasbasbag49
(g65
g51
NtRp3834
(dp3835
g54
(dp3836
sg63
g3791
sg56
(lp3837
g49
(g70
g51
NtRp3838
(dp3839
g54
(dp3840
sg63
g3834
sg56
(lp3841
g49
(g50
g51
NtRp3842
(dp3843
g54
(dp3844
g62
I3
ssg63
g3838
sg56
(lp3845
g49
(g58
g51
NtRp3846
(dp3847
g54
(dp3848
g62
I2
ssg63
Nsg56
(lp3849
sbasbasbasbasbasbasbasbasbasbasbasbag49
(g65
g51
NtRp3850
(dp3851
g54
(dp3852
sg63
g3141
sg56
(lp3853
g49
(g70
g51
NtRp3854
(dp3855
g54
(dp3856
g74
g75
ssg63
g3850
sg56
(lp3857
S'meta'
p3858
asbag49
(g70
g51
NtRp3859
(dp3860
g54
(dp3861
g81
g82
ssg63
g3850
sg56
(lp3862
S':'
asbag49
(g70
g51
NtRp3863
(dp3864
g54
(dp3865
sg63
g3850
sg56
(lp3866
g49
(g50
g51
NtRp3867
(dp3868
g54
(dp3869
g62
I5
ssg63
g3863
sg56
(lp3870
g49
(g58
g51
NtRp3871
(dp3872
g54
(dp3873
g62
I4
ssg63
Nsg56
(lp3874
g49
(g65
g51
NtRp3875
(dp3876
g54
(dp3877
sg63
g3871
sg56
(lp3878
g49
(g70
g51
NtRp3879
(dp3880
g54
(dp3881
g74
g75
ssg63
g3875
sg56
(lp3882
S'author'
p3883
asbag49
(g70
g51
NtRp3884
(dp3885
g54
(dp3886
g81
g82
ssg63
g3875
sg56
(lp3887
S':'
asbag49
(g70
g51
NtRp3888
(dp3889
g54
(dp3890
sg63
g3875
sg56
(lp3891
g49
(g50
g51
NtRp3892
(dp3893
g54
(dp3894
g62
I4
ssg63
g3888
sg56
(lp3895
S'Your Name <you@example.com>'
p3896
asbasbasbag49
(g65
g51
NtRp3897
(dp3898
g54
(dp3899
sg63
g3871
sg56
(lp3900
g49
(g70
g51
NtRp3901
(dp3902
g54
(dp3903
g74
g75
ssg63
g3897
sg56
(lp3904
S'copyright'
p3905
asbag49
(g70
g51
NtRp3906
(dp3907
g54
(dp3908
g81
g82
ssg63
g3897
sg56
(lp3909
S':'
asbag49
(g70
g51
NtRp3910
(dp3911
g54
(dp3912
sg63
g3897
sg56
(lp3913
g49
(g50
g51
NtRp3914
(dp3915
g54
(dp3916
g62
I4
ssg63
g3910
sg56
(lp3917
S'Copyright 2011'
p3918
asbasbasbag49
(g65
g51
NtRp3919
(dp3920
g54
(dp3921
sg63
g3871
sg56
(lp3922
g49
(g70
g51
NtRp3923
(dp3924
g54
(dp3925
g74
g75
ssg63
g3919
sg56
(lp3926
S'description'
p3927
asbag49
(g70
g51
NtRp3928
(dp3929
g54
(dp3930
g81
g82
ssg63
g3919
sg56
(lp3931
S':'
asbag49
(g70
g51
NtRp3932
(dp3933
g54
(dp3934
sg63
g3919
sg56
(lp3935
g49
(g50
g51
NtRp3936
(dp3937
g54
(dp3938
g62
I4
ssg63
g3932
sg56
(lp3939
S'a cool new app'
p3940
asbasbasbag49
(g65
g51
NtRp3941
(dp3942
g54
(dp3943
sg63
g3871
sg56
(lp3944
g49
(g70
g51
NtRp3945
(dp3946
g54
(dp3947
g74
g75
ssg63
g3941
sg56
(lp3948
S'generator'
p3949
asbag49
(g70
g51
NtRp3950
(dp3951
g54
(dp3952
g81
g82
ssg63
g3941
sg56
(lp3953
S':'
asbag49
(g70
g51
NtRp3954
(dp3955
g54
(dp3956
sg63
g3941
sg56
(lp3957
g49
(g50
g51
NtRp3958
(dp3959
g54
(dp3960
g62
I4
ssg63
g3954
sg56
(lp3961
S'Web2py Web Framework'
p3962
asbasbasbag49
(g65
g51
NtRp3963
(dp3964
g54
(dp3965
sg63
g3871
sg56
(lp3966
g49
(g70
g51
NtRp3967
(dp3968
g54
(dp3969
g74
g75
ssg63
g3963
sg56
(lp3970
S'keywords'
p3971
asbag49
(g70
g51
NtRp3972
(dp3973
g54
(dp3974
g81
g82
ssg63
g3963
sg56
(lp3975
S':'
asbag49
(g70
g51
NtRp3976
(dp3977
g54
(dp3978
sg63
g3963
sg56
(lp3979
g49
(g50
g51
NtRp3980
(dp3981
g54
(dp3982
g62
I4
ssg63
g3976
sg56
(lp3983
S'web2py, python, framework'
p3984
asbasbasbasbasbasbasbag49
(g65
g51
NtRp3985
(dp3986
g54
(dp3987
sg63
g3141
sg56
(lp3988
g49
(g70
g51
NtRp3989
(dp3990
g54
(dp3991
g74
g75
ssg63
g3985
sg56
(lp3992
S'postprocessing'
p3993
asbag49
(g70
g51
NtRp3994
(dp3995
g54
(dp3996
g81
g82
ssg63
g3985
sg56
(lp3997
S':'
asbag49
(g70
g51
NtRp3998
(dp3999
g54
(dp4000
sg63
g3985
sg56
(lp4001
g49
(g50
g51
NtRp4002
(dp4003
g54
(dp4004
g62
I5
ssg63
g3998
sg56
(lp4005
g49
(g58
g51
NtRp4006
(dp4007
g54
(dp4008
g62
I4
ssg63
Nsg56
(lp4009
sbasbasbasbag49
(g65
g51
NtRp4010
(dp4011
g54
(dp4012
sg63
g3141
sg56
(lp4013
g49
(g70
g51
NtRp4014
(dp4015
g54
(dp4016
g74
g75
ssg63
g4010
sg56
(lp4017
S'session_file'
p4018
asbag49
(g70
g51
NtRp4019
(dp4020
g54
(dp4021
g81
g82
ssg63
g4010
sg56
(lp4022
S':'
asbag49
(g70
g51
NtRp4023
(dp4024
g54
(dp4025
sg63
g4010
sg56
(lp4026
g49
(g50
g51
NtRp4027
(dp4028
g54
(dp4029
g62
I5
ssg63
g4023
sg56
(lp4030
S"<open file 'D:\\Dise\xf1o Web\\Proyectos\\Parleyweb\\web2py\\applications\\parleyweb\\sessions\\127.0.0.1-8bc0d624-a7ac-4822-aaf0-ed4b06ce8341', mode 'rb+' at 0x066C5AD0>"
p4031
asbasbasbag49
(g65
g51
NtRp4032
(dp4033
g54
(dp4034
sg63
g3141
sg56
(lp4035
g49
(g70
g51
NtRp4036
(dp4037
g54
(dp4038
g74
g75
ssg63
g4032
sg56
(lp4039
S'session_filename'
p4040
asbag49
(g70
g51
NtRp4041
(dp4042
g54
(dp4043
g81
g82
ssg63
g4032
sg56
(lp4044
S':'
asbag49
(g70
g51
NtRp4045
(dp4046
g54
(dp4047
sg63
g4032
sg56
(lp4048
g49
(g50
g51
NtRp4049
(dp4050
g54
(dp4051
g62
I5
ssg63
g4045
sg56
(lp4052
S'D:\\Dise\xf1o Web\\Proyectos\\Parleyweb\\web2py\\applications\\parleyweb\\sessions\\127.0.0.1-8bc0d624-a7ac-4822-aaf0-ed4b06ce8341'
p4053
asbasbasbag49
(g65
g51
NtRp4054
(dp4055
g54
(dp4056
sg63
g3141
sg56
(lp4057
g49
(g70
g51
NtRp4058
(dp4059
g54
(dp4060
g74
g75
ssg63
g4054
sg56
(lp4061
S'session_id'
p4062
asbag49
(g70
g51
NtRp4063
(dp4064
g54
(dp4065
g81
g82
ssg63
g4054
sg56
(lp4066
S':'
asbag49
(g70
g51
NtRp4067
(dp4068
g54
(dp4069
sg63
g4054
sg56
(lp4070
g49
(g50
g51
NtRp4071
(dp4072
g54
(dp4073
g62
I5
ssg63
g4067
sg56
(lp4074
S'127.0.0.1-8bc0d624-a7ac-4822-aaf0-ed4b06ce8341'
p4075
asbasbasbag49
(g65
g51
NtRp4076
(dp4077
g54
(dp4078
sg63
g3141
sg56
(lp4079
g49
(g70
g51
NtRp4080
(dp4081
g54
(dp4082
g74
g75
ssg63
g4076
sg56
(lp4083
S'session_id_name'
p4084
asbag49
(g70
g51
NtRp4085
(dp4086
g54
(dp4087
g81
g82
ssg63
g4076
sg56
(lp4088
S':'
asbag49
(g70
g51
NtRp4089
(dp4090
g54
(dp4091
sg63
g4076
sg56
(lp4092
g49
(g50
g51
NtRp4093
(dp4094
g54
(dp4095
g62
I5
ssg63
g4089
sg56
(lp4096
g3198
asbasbasbag49
(g65
g51
NtRp4097
(dp4098
g54
(dp4099
sg63
g3141
sg56
(lp4100
g49
(g70
g51
NtRp4101
(dp4102
g54
(dp4103
g74
g75
ssg63
g4097
sg56
(lp4104
S'session_locked'
p4105
asbag49
(g70
g51
NtRp4106
(dp4107
g54
(dp4108
g81
g82
ssg63
g4097
sg56
(lp4109
S':'
asbag49
(g70
g51
NtRp4110
(dp4111
g54
(dp4112
sg63
g4097
sg56
(lp4113
g49
(g50
g51
NtRp4114
(dp4115
g54
(dp4116
g62
I5
ssg63
g4110
sg56
(lp4117
g1549
asbasbasbag49
(g65
g51
NtRp4118
(dp4119
g54
(dp4120
sg63
g3141
sg56
(lp4121
g49
(g70
g51
NtRp4122
(dp4123
g54
(dp4124
g74
g75
ssg63
g4118
sg56
(lp4125
S'session_new'
p4126
asbag49
(g70
g51
NtRp4127
(dp4128
g54
(dp4129
g81
g82
ssg63
g4118
sg56
(lp4130
S':'
asbag49
(g70
g51
NtRp4131
(dp4132
g54
(dp4133
sg63
g4118
sg56
(lp4134
g49
(g50
g51
NtRp4135
(dp4136
g54
(dp4137
g62
I5
ssg63
g4131
sg56
(lp4138
g92
asbasbasbag49
(g65
g51
NtRp4139
(dp4140
g54
(dp4141
sg63
g3141
sg56
(lp4142
g49
(g70
g51
NtRp4143
(dp4144
g54
(dp4145
g74
g75
ssg63
g4139
sg56
(lp4146
S'status'
p4147
asbag49
(g70
g51
NtRp4148
(dp4149
g54
(dp4150
g81
g82
ssg63
g4139
sg56
(lp4151
S':'
asbag49
(g70
g51
NtRp4152
(dp4153
g54
(dp4154
sg63
g4139
sg56
(lp4155
g49
(g50
g51
NtRp4156
(dp4157
g54
(dp4158
g62
I5
ssg63
g4152
sg56
(lp4159
S'200'
p4160
asbasbasbag49
(g65
g51
NtRp4161
(dp4162
g54
(dp4163
sg63
g3141
sg56
(lp4164
g49
(g70
g51
NtRp4165
(dp4166
g54
(dp4167
g74
g75
ssg63
g4161
sg56
(lp4168
S'subtitle'
p4169
asbag49
(g70
g51
NtRp4170
(dp4171
g54
(dp4172
g81
g82
ssg63
g4161
sg56
(lp4173
S':'
asbag49
(g70
g51
NtRp4174
(dp4175
g54
(dp4176
sg63
g4161
sg56
(lp4177
g49
(g50
g51
NtRp4178
(dp4179
g54
(dp4180
g62
I5
ssg63
g4174
sg56
(lp4181
g3807
(S's\t\x00\x00\x00Adaptame!'
tRp4182
asbasbasbag49
(g65
g51
NtRp4183
(dp4184
g54
(dp4185
sg63
g3141
sg56
(lp4186
g49
(g70
g51
NtRp4187
(dp4188
g54
(dp4189
g74
g75
ssg63
g4183
sg56
(lp4190
S'title'
p4191
asbag49
(g70
g51
NtRp4192
(dp4193
g54
(dp4194
g81
g82
ssg63
g4183
sg56
(lp4195
S':'
asbag49
(g70
g51
NtRp4196
(dp4197
g54
(dp4198
sg63
g4183
sg56
(lp4199
g49
(g50
g51
NtRp4200
(dp4201
g54
(dp4202
g62
I5
ssg63
g4196
sg56
(lp4203
S'Parleyweb'
p4204
asbasbasbag49
(g65
g51
NtRp4205
(dp4206
g54
(dp4207
sg63
g3141
sg56
(lp4208
g49
(g70
g51
NtRp4209
(dp4210
g54
(dp4211
g74
g75
ssg63
g4205
sg56
(lp4212
g2257
asbag49
(g70
g51
NtRp4213
(dp4214
g54
(dp4215
g81
g82
ssg63
g4205
sg56
(lp4216
S':'
asbag49
(g70
g51
NtRp4217
(dp4218
g54
(dp4219
sg63
g4205
sg56
(lp4220
g49
(g50
g51
NtRp4221
(dp4222
g54
(dp4223
g62
I5
ssg63
g4217
sg56
(lp4224
g2270
asbasbasbag49
(g65
g51
NtRp4225
(dp4226
g54
(dp4227
sg63
g3141
sg56
(lp4228
g49
(g70
g51
NtRp4229
(dp4230
g54
(dp4231
g74
g75
ssg63
g4225
sg56
(lp4232
S'view'
p4233
asbag49
(g70
g51
NtRp4234
(dp4235
g54
(dp4236
g81
g82
ssg63
g4225
sg56
(lp4237
S':'
asbag49
(g70
g51
NtRp4238
(dp4239
g54
(dp4240
sg63
g4225
sg56
(lp4241
g49
(g50
g51
NtRp4242
(dp4243
g54
(dp4244
g62
I5
ssg63
g4238
sg56
(lp4245
S'admin/relacionar.html'
p4246
asbasbasbasbasbsS'locals'
p4247
(dp4248
S'Service'
p4249
S"<class 'gluon.tools.Service'>"
p4250
sS'OBJECT'
p4251
S"<class 'gluon.html.OBJECT'>"
p4252
sS'SQLDB'
p4253
S"<class 'gluon.dal.DAL'>"
p4254
sg3123
S"<Storage {'_formkey[busqueda/create]': '243fd755...reate]': '334bb50d-cc79-43c7-9c89-84baaf6d3b7a'}>"
p4255
sS'LINK'
p4256
S"<class 'gluon.html.LINK'>"
p4257
sS'BR'
p4258
S"<class 'gluon.html.BR'>"
p4259
sS'local_import'
p4260
S'<function <lambda> at 0x06D6A670>'
p4261
sS'OPTGROUP'
p4262
S"<class 'gluon.html.OPTGROUP'>"
p4263
sS'PRE'
p4264
S"<class 'gluon.html.PRE'>"
p4265
sS'IS_INT_IN_RANGE'
p4266
S"<class 'gluon.validators.IS_INT_IN_RANGE'>"
p4267
sS'left_sidebar_enabled'
p4268
g92
sS'IS_LOWER'
p4269
S"<class 'gluon.validators.IS_LOWER'>"
p4270
sS'IS_STRONG'
p4271
S"<class 'gluon.validators.IS_STRONG'>"
p4272
sS'cache'
p4273
S'<gluon.cache.Cache object at 0x06FD24D0>'
p4274
sS'IS_IN_DB'
p4275
S"<class 'gluon.validators.IS_IN_DB'>"
p4276
sS'TAG'
p4277
S'<gluon.html.__TAG__ object at 0x02861D50>'
p4278
sS'SQLField'
p4279
S"<class 'gluon.dal.Field'>"
p4280
sS'mail'
p4281
S'<gluon.tools.Mail object at 0x06650270>'
p4282
sS'BODY'
p4283
S"<class 'gluon.html.BODY'>"
p4284
sS'IS_DATE_IN_RANGE'
p4285
S"<class 'gluon.validators.IS_DATE_IN_RANGE'>"
p4286
sS'TH'
p4287
S"<class 'gluon.html.TH'>"
p4288
sS'URL'
p4289
S'<function URL at 0x028C7EB0>'
p4290
sS'__file__'
p4291
S"'D:\\\\Dise\\xf1o Web\\\\Proyectos\\\\Parleyweb\\\\web2py\\\\applications\\\\parleyweb\\\\views\\\\admin/relacionar.html'"
p4292
sS'db'
p4293
S"<DAL {'auth_event': <Table {'origin': <gluon.dal..._key': <gluon.dal.Field object at 0x070B0570>}>}>"
p4294
sS'auth'
p4295
S'<gluon.tools.Auth object at 0x06650E10>'
p4296
sS'P'
S"<class 'gluon.html.P'>"
p4297
sS'TFOOT'
p4298
S"<class 'gluon.html.TFOOT'>"
p4299
sS'XHTML'
p4300
S"<class 'gluon.html.XHTML'>"
p4301
sS'ON'
p4302
g1549
sS'OL'
p4303
S"<class 'gluon.html.OL'>"
p4304
sS'TEXTAREA'
p4305
S"<class 'gluon.html.TEXTAREA'>"
p4306
sS'MENU'
p4307
S"<class 'gluon.html.MENU'>"
p4308
sS'LOAD'
p4309
S'<function LOAD at 0x02BB17B0>'
p4310
sS'CODE'
p4311
S"<class 'gluon.html.CODE'>"
p4312
sS'HTTP'
p4313
S"<class 'gluon.http.HTTP'>"
p4314
sS'HR'
p4315
S"<class 'gluon.html.HR'>"
p4316
sS'IS_DATETIME'
p4317
S"<class 'gluon.validators.IS_DATETIME'>"
p4318
sS'HEAD'
p4319
S"<class 'gluon.html.HEAD'>"
p4320
sS'LABEL'
p4321
S"<class 'gluon.html.LABEL'>"
p4322
sS'CLEANUP'
p4323
S"<class 'gluon.validators.CLEANUP'>"
p4324
sS'plugins'
p4325
S'<gluon.tools.PluginManager object at 0x06A3C7F0>'
p4326
sS'SELECT'
p4327
S"<class 'gluon.html.SELECT'>"
p4328
sS'use_janrain'
p4329
S'<function use_janrain at 0x0336C8F0>'
p4330
sS'CENTER'
p4331
S"<class 'gluon.html.CENTER'>"
p4332
sS'prettydate'
p4333
S'<function prettydate at 0x03369EF0>'
p4334
sS'Crud'
p4335
S"<class 'gluon.tools.Crud'>"
p4336
sS'Auth'
p4337
S"<class 'gluon.tools.Auth'>"
p4338
sS'tabla'
p4339
S'<gluon.sqlhtml.SQLTABLE object at 0x0737A4F0>'
p4340
sS'__builtins__'
p4341
S"{'ArithmeticError': <type 'exceptions.ArithmeticError'>, 'AssertionError': <type 'exceptions.AssertionError'>, 'AttributeError': <type 'exceptions.AttributeError'>, 'BaseException': <type 'exceptions.BaseException'>, 'DeprecationWarning': <type 'exceptions.DeprecationWarning'>, 'EOFError': <type 'exceptions.EOFError'>, 'Ellipsis': Ellipsis, 'EnvironmentError': <type 'exceptions.EnvironmentError'>, 'Exception': <type 'exceptions.Exception'>, 'False': False, ...}"
p4342
sS'HTML'
p4343
S"<class 'gluon.html.HTML'>"
p4344
sS'SQLFORM'
p4345
S"<class 'gluon.sqlhtml.SQLFORM'>"
p4346
sS'EM'
p4347
S"<class 'gluon.html.EM'>"
p4348
sS'redirect'
p4349
S'<function redirect at 0x0246BB70>'
p4350
sS'FIELDSET'
p4351
S"<class 'gluon.html.FIELDSET'>"
p4352
sS'IS_EQUAL_TO'
p4353
S"<class 'gluon.validators.IS_EQUAL_TO'>"
p4354
sS'embed64'
p4355
S'<function embed64 at 0x028D69F0>'
p4356
sS'IS_LIST_OF'
p4357
S"<class 'gluon.validators.IS_LIST_OF'>"
p4358
sS'__name__'
p4359
S"'__restricted__'"
p4360
sS'EMBED'
p4361
S"<class 'gluon.html.EMBED'>"
p4362
sS'_'
S'<function _ at 0x07140B30>'
p4363
sS'FORM'
p4364
S"<class 'gluon.html.FORM'>"
p4365
sS'H2'
p4366
S"<class 'gluon.html.H2'>"
p4367
sS'H3'
p4368
S"<class 'gluon.html.H3'>"
p4369
sS'BUTTON'
p4370
S"<class 'gluon.html.BUTTON'>"
p4371
sS'H1'
p4372
S"<class 'gluon.html.H1'>"
p4373
sS'H6'
p4374
S"<class 'gluon.html.H6'>"
p4375
sS'H4'
p4376
S"<class 'gluon.html.H4'>"
p4377
sS'H5'
p4378
S"<class 'gluon.html.H5'>"
p4379
sS'UL'
p4380
S"<class 'gluon.html.UL'>"
p4381
sS'IS_UPPER'
p4382
S"<class 'gluon.validators.IS_UPPER'>"
p4383
sS'xmlescape'
p4384
S'<function xmlescape at 0x028C7E30>'
p4385
sS'IS_TIME'
p4386
S"<class 'gluon.validators.IS_TIME'>"
p4387
sS'OPTION'
p4388
S"<class 'gluon.html.OPTION'>"
p4389
sS'TITLE'
p4390
S"<class 'gluon.html.TITLE'>"
p4391
sS'CRYPT'
p4392
S"<class 'gluon.validators.CRYPT'>"
p4393
sS'IS_EMPTY_OR'
p4394
S"<class 'gluon.validators.IS_EMPTY_OR'>"
p4395
sS'MARKMIN'
p4396
S"<class 'gluon.html.MARKMIN'>"
p4397
sS'INPUT'
p4398
S"<class 'gluon.html.INPUT'>"
p4399
sS'COL'
p4400
S"<class 'gluon.html.COL'>"
p4401
sS'service'
p4402
S'<gluon.tools.Service object at 0x070B0670>'
p4403
sS'SCRIPT'
p4404
S"<class 'gluon.html.SCRIPT'>"
p4405
sS'TABLE'
p4406
S"<class 'gluon.html.TABLE'>"
p4407
sS'IS_IPV4'
p4408
S"<class 'gluon.validators.IS_IPV4'>"
p4409
sS'IS_LENGTH'
p4410
S"<class 'gluon.validators.IS_LENGTH'>"
p4411
sS'XML'
p4412
S"<class 'gluon.html.XML'>"
p4413
sS'B'
S"<class 'gluon.html.B'>"
p4414
sS'IMG'
p4415
S"<class 'gluon.html.IMG'>"
p4416
sS'SQLTABLE'
p4417
S"<class 'gluon.sqlhtml.SQLTABLE'>"
p4418
sS'IS_MATCH'
p4419
S"<class 'gluon.validators.IS_MATCH'>"
p4420
sS'IS_ALPHANUMERIC'
p4421
S"<class 'gluon.validators.IS_ALPHANUMERIC'>"
p4422
sS'SPAN'
p4423
S"<class 'gluon.html.SPAN'>"
p4424
sS'IS_SLUG'
p4425
S"<class 'gluon.validators.IS_SLUG'>"
p4426
sS'BEAUTIFY'
p4427
S"<class 'gluon.html.BEAUTIFY'>"
p4428
sS'META'
p4429
S"<class 'gluon.html.META'>"
p4430
sS'IS_DATE'
p4431
S"<class 'gluon.validators.IS_DATE'>"
p4432
sS'IS_EMAIL'
p4433
S"<class 'gluon.validators.IS_EMAIL'>"
p4434
sS'IS_NOT_EMPTY'
p4435
S"<class 'gluon.validators.IS_NOT_EMPTY'>"
p4436
sS'IS_FLOAT_IN_RANGE'
p4437
S"<class 'gluon.validators.IS_FLOAT_IN_RANGE'>"
p4438
sS'TBODY'
p4439
S"<class 'gluon.html.TBODY'>"
p4440
sS'CAT'
p4441
S"<class 'gluon.html.CAT'>"
p4442
sS'Field'
p4443
S"<class 'gluon.dal.Field'>"
p4444
sS'middle_columns'
p4445
S"'sixteen'"
p4446
sS'DIV'
p4447
S"<class 'gluon.html.DIV'>"
p4448
sS'LEGEND'
p4449
S"<class 'gluon.html.LEGEND'>"
p4450
sS'COLGROUP'
p4451
S"<class 'gluon.html.COLGROUP'>"
p4452
sS'DAL'
p4453
S"<class 'gluon.dal.DAL'>"
p4454
sS'TT'
p4455
S"<class 'gluon.html.TT'>"
p4456
sS'TR'
p4457
S"<class 'gluon.html.TR'>"
p4458
sS'LI'
p4459
S"<class 'gluon.html.LI'>"
p4460
sS'right_sidebar_enabled'
p4461
g92
sS'IFRAME'
p4462
S"<class 'gluon.html.IFRAME'>"
p4463
sS'TD'
p4464
S"<class 'gluon.html.TD'>"
p4465
sS'PluginManager'
p4466
S"<class 'gluon.tools.PluginManager'>"
p4467
sS'IS_URL'
p4468
S"<class 'gluon.validators.IS_URL'>"
p4469
sS'A'
S"<class 'gluon.html.A'>"
p4470
sS'STYLE'
p4471
S"<class 'gluon.html.STYLE'>"
p4472
sS'IS_DATETIME_IN_RANGE'
p4473
S"<class 'gluon.validators.IS_DATETIME_IN_RANGE'>"
p4474
sS'IS_IMAGE'
p4475
S"<class 'gluon.validators.IS_IMAGE'>"
p4476
sS'I'
S"<class 'gluon.html.I'>"
p4477
sS'crud'
p4478
S'<gluon.tools.Crud object at 0x070B0CD0>'
p4479
sS'IS_NOT_IN_DB'
p4480
S"<class 'gluon.validators.IS_NOT_IN_DB'>"
p4481
sg3136
S"<Storage {'body': <cStringIO.StringO object at 0...at 0x06A13B70>, 'view': 'admin/relacionar.html'}>"
p4482
sS'THEAD'
p4483
S"<class 'gluon.html.THEAD'>"
p4484
sS'a'
S"'15'"
p4485
sS'IS_NULL_OR'
p4486
S"<class 'gluon.validators.IS_EMPTY_OR'>"
p4487
sg48
S"<Storage {'body': <open file '<fdopen>', mode 'w...rage {'relacionar': '15', 'id_palabra': '156'}>}>"
p4488
sS'IS_EXPR'
p4489
S"<class 'gluon.validators.IS_EXPR'>"
p4490
sS'T'
S'<gluon.languages.translator object at 0x0337EC30>'
p4491
sS'IS_IN_SET'
p4492
S"<class 'gluon.validators.IS_IN_SET'>"
p4493
sS'IS_UPLOAD_FILENAME'
p4494
S"<class 'gluon.validators.IS_UPLOAD_FILENAME'>"
p4495
sS'IS_DECIMAL_IN_RANGE'
p4496
S"<class 'gluon.validators.IS_DECIMAL_IN_RANGE'>"
p4497
sssS'traceback'
p4498
S'Traceback (most recent call last):\n  File "gluon/restricted.py", line 205, in restricted\n  File "D:\\Dise\xf1o Web\\Proyectos\\Parleyweb\\web2py\\applications\\parleyweb\\views\\admin/relacionar.html", line 65, in <module>\nTypeError: \'str\' object is not callable\n'
p4499
s.