(dp1
S'output'
p2
S"<type 'exceptions.KeyError'> 'genero'"
p3
sS'layer'
p4
S'D:\\Dise\xf1o Web\\Proyectos\\Parleyweb\\web2py\\applications\\parleyweb\\models\\db.py'
p5
sS'code'
p6
S"# -*- coding: utf-8 -*-\n\n#########################################################################\n## This scaffolding model makes your app work on Google App Engine too\n## File is released under public domain and you can use without limitations\n#########################################################################\n\n## if SSL/HTTPS is properly configured and you want all HTTP requests to\n## be redirected to HTTPS, uncomment the line below:\n# request.requires_https()\n\nif not request.env.web2py_runtime_gae:\n    ## if NOT running on Google App Engine use SQLite or other DB\n    db = DAL('sqlite://storage.sqlite')\nelse:\n    ## connect to Google BigTable (optional 'google:datastore://namespace')\n    db = DAL('google:datastore')\n    ## store sessions and tickets there\n    session.connect(request, response, db = db)\n    ## or store session in Memcache, Redis, etc.\n    ## from gluon.contrib.memdb import MEMDB\n    ## from google.appengine.api.memcache import Client\n    ## session.connect(request, response, db = MEMDB(Client()))\n\n## by default give a view/generic.extension to all actions from localhost\n## none otherwise. a pattern can be 'controller/function.extension'\nresponse.generic_patterns = ['*'] if request.is_local else []\n## (optional) optimize handling of static files\n# response.optimize_css = 'concat,minify,inline'\n# response.optimize_js = 'concat,minify,inline'\n\n#########################################################################\n## Here is sample code if you need for\n## - email capabilities\n## - authentication (registration, login, logout, ... )\n## - authorization (role based authorization)\n## - services (xml, csv, json, xmlrpc, jsonrpc, amf, rss)\n## - old style crud actions\n## (more options discussed in gluon/tools.py)\n#########################################################################\n\nfrom gluon.tools import Auth, Crud, Service, PluginManager, prettydate\nauth = Auth(db, hmac_key=Auth.get_or_create_key())\ncrud, service, plugins = Crud(db), Service(), PluginManager()\n\n\n\n## create all tables needed by auth if not custom tables\nauth.define_tables()\n\n## configure email\nmail=auth.settings.mailer\nmail.settings.server = 'logging' or 'smtp.gmail.com:587'\nmail.settings.sender = 'you@gmail.com'\nmail.settings.login = 'username:password'\n\n## configure auth policy\nauth.settings.registration_requires_verification = False\nauth.settings.registration_requires_approval = False\nauth.settings.reset_password_requires_verification = True\n\n## if you need to use OpenID, Facebook, MySpace, Twitter, Linkedin, etc.\n## register with janrain.com, write your domain:api_key in private/janrain.key\nfrom gluon.contrib.login_methods.rpx_account import use_janrain\nuse_janrain(auth,filename='private/janrain.key')\n\n#########################################################################\n## Define your tables below (or better in another model file) for example\n##\n## >>> db.define_table('mytable',Field('myfield','string'))\n##\n## Fields can be 'string','text','password','integer','double','boolean'\n##       'date','time','datetime','blob','upload', 'reference TABLENAME'\n## There is an implicit 'id integer autoincrement' field\n## Consult manual for more options, validators, etc.\n##\n## More API examples for controllers:\n##\n## >>> db.mytable.insert(myfield='value')\n## >>> rows=db(db.mytable.myfield=='value').select(db.mytable.ALL)\n## >>> for row in rows: print row.id, row.myfield\n#########################################################################\n\ndb.define_table('glosario',\n                Field('nombre_glosario', 'string', unique=True ), # no puede estar repetido\n                Field('descripcion_glosario', 'string', widget=SQLFORM.widgets.text.widget) #poner widget mostrar como campo text\n                )\n\ndb.define_table('palabras',\n                Field('palabra', 'string', unique=True),\n                Field('sustantivo', 'boolean'),\n                Field('articulo'),\n                Field('plural', 'string'),\n                Field('imagen', 'upload'),\n                # verbo\n                Field('verbo', 'boolean'),\n                Field('verbo_irregular', 'boolean'),\n                Field('participio2', 'string'),\n                Field('reflexivo', 'boolean'),\n                Field('presente_1'),\n                Field('presente_2'),\n                Field('presente_3'),\n                Field('presente_1_p'),\n                Field('presente_2_p'),\n                Field('presente_3_p'),\n                Field('adverbio', 'boolean'),\n                Field('adjetivo', 'boolean'),\n                Field('anadir_glosario', 'boolean'),\n                Field('glosario', db.glosario)\n                )\n\ndb.define_table('fuentes',\n                Field('nombre', 'string')\n                )\n\ndb.define_table('ejemplos',\n                Field('ejemplo_de', 'text'),  # no puede estar vacio\n                Field('ejemplo_es', 'text'),   # puede estar vacio\n                Field('fuente', db.fuentes)\n                )\ndb.define_table('palabra_ejemplo',  # refereciada por los Id\n                Field('palabra', db.palabras),   # no puede estar vacio\n                Field('ejemplo', db.ejemplos))   # no puede estar vacio\n\n## Tablas para los widget de autocompletar ##\n\ndb.define_table('autocompletar_palabra',\n                Field('palabra')\n                )\n\ndb.define_table('busqueda',\n                 Field('buscar_palabra')\n                 )\n\n### Validaciones tabla glosario ###\ndb.glosario.nombre_glosario.requires = IS_NOT_IN_DB(db,'glosario.nombre_glosario')\n\n### Autocompletar palabra ###\n#db.autocompletar_palabra.palabra.widget = SQLFORM.widgets.autocomplete(\n   #  request, db.palabras.palabra, limitby=(0,10), min_length=1)\n\n### Autocompletar busqueda ###\ndb.busqueda.buscar_palabra.widget = SQLFORM.widgets.autocomplete(\n     request, db.palabras.palabra, id_field=db.palabras.id, min_length=1)\n\n\n### Validacion tabla palabras ###\n#db.palabras.palabra.represent = lambda palabra: palabra.capitalize()\ndb.palabras.genero.requires = IS_EMPTY_OR(IS_IN_SET(['Masculino', 'Neutro', 'Femenino'],zero=T('Elige uno'),\n         error_message=T('No elegiste')))\ndb.palabras.articulo.requires = IS_EMPTY_OR(IS_IN_SET(['Die', 'Der', 'Das'],zero=T('Elige uno'),\n         error_message=T('Elige Die, Der o Das')))\ndb.palabras.glosario.requires = IS_EMPTY_OR(IS_IN_DB(db, 'glosario.id', '%(nombre_glosario)s'))\n\n\n \n### WIDGET AUTOCOMPLETAR para la tabla fuentes ###\ndb.ejemplos.fuente.widget = SQLFORM.widgets.autocomplete(\n     request, db.fuentes.nombre, id_field=db.fuentes.id, min_length=1)\ndb.fuentes.nombre.requires = IS_NOT_EMPTY()\n\n### Validierung EJEMPLOS ###\ndb.ejemplos.ejemplo_de.requires = IS_NOT_EMPTY()\ndb.ejemplos.ejemplo_es.requires = IS_NOT_EMPTY()\n\n### WIDGET AUTOCOMPLETAR para la tabla palabra_ejemplo ###\ndb.palabra_ejemplo.palabra.widget = SQLFORM.widgets.autocomplete(\n     request, db.palabras.palabra, id_field=db.palabras.id, min_length=1)\ndb.palabra_ejemplo.ejemplo.widget = SQLFORM.widgets.autocomplete(\n     request, db.ejemplos.ejemplo_de, id_field=db.ejemplos.id, min_length=1)\n\n####################################################################\n#                    Codigo para pegar y copiar\n#\n# db.palabras.palabra.requires = IS_NOT_IN_DB(db,'palabras.palabra') << Devuelve un error si el campo se encuentra en la DB o si estas vacio. tambien se le debe colocar el  unique=True  >> \n# db.palabras.palabra.requires = IS_NOT_EMPTY() << no es necesario si se usa este validador >>\n# db.palabra_ejemplo.ejemplo.requires = IS_IN_DB(db, 'ejemplo.id', '%(ejemplo)s') << este validador crea una lista >>\n# db.palabras.articulo.requires = IS_IN_SET(['Die', 'Der', 'Das'],zero=T('Elige uno'), error_message=T('Elige Die, Der o Das'))\n#        \n#\n#\n#\n#\n#\n#\n#\n#\n#\n#\n#\n#\n#\n#\n\n"
p7
sS'snapshot'
p8
(dp9
S'exception'
p10
(dp11
S'__hash__'
p12
S"<method-wrapper '__hash__' of exceptions.KeyError object at 0x065C3788>"
p13
sS'__setattr__'
p14
S"<method-wrapper '__setattr__' of exceptions.KeyError object at 0x065C3788>"
p15
sS'__reduce_ex__'
p16
S'<built-in method __reduce_ex__ of exceptions.KeyError object at 0x065C3788>'
p17
sS'__getslice__'
p18
S"<method-wrapper '__getslice__' of exceptions.KeyError object at 0x065C3788>"
p19
sS'__getitem__'
p20
S"<method-wrapper '__getitem__' of exceptions.KeyError object at 0x065C3788>"
p21
sS'__setstate__'
p22
S'<built-in method __setstate__ of exceptions.KeyError object at 0x065C3788>'
p23
sS'__reduce__'
p24
S'<built-in method __reduce__ of exceptions.KeyError object at 0x065C3788>'
p25
sS'__str__'
p26
S"<method-wrapper '__str__' of exceptions.KeyError object at 0x065C3788>"
p27
sS'args'
p28
S"('genero',)"
p29
sS'__getattribute__'
p30
S"<method-wrapper '__getattribute__' of exceptions.KeyError object at 0x065C3788>"
p31
sS'__class__'
p32
S"<type 'exceptions.KeyError'>"
p33
sS'__delattr__'
p34
S"<method-wrapper '__delattr__' of exceptions.KeyError object at 0x065C3788>"
p35
sS'__repr__'
p36
S"<method-wrapper '__repr__' of exceptions.KeyError object at 0x065C3788>"
p37
sS'__dict__'
p38
S'{}'
p39
sS'__doc__'
p40
S"'Mapping key not found.'"
p41
sS'__init__'
p42
S"<method-wrapper '__init__' of exceptions.KeyError object at 0x065C3788>"
p43
sS'__new__'
p44
S'<built-in method __new__ of type object at 0x1E1CDFB8>'
p45
ssS'evalue'
p46
S"'genero'"
p47
sS'request'
p48
ccopy_reg
_reconstructor
p49
(cgluon.html
BEAUTIFY
p50
c__builtin__
object
p51
NtRp52
(dp53
S'attributes'
p54
(dp55
sS'components'
p56
(lp57
g49
(cgluon.html
TABLE
p58
g51
NtRp59
(dp60
g54
(dp61
S'level'
p62
I5
ssS'parent'
p63
Nsg56
(lp64
g49
(cgluon.html
TR
p65
g51
NtRp66
(dp67
g54
(dp68
sg63
g59
sg56
(lp69
g49
(cgluon.html
TD
p70
g51
NtRp71
(dp72
g54
(dp73
S'_style'
p74
S'font-weight:bold;vertical-align:top'
p75
ssg63
g66
sg56
(lp76
S'ajax'
p77
asbag49
(g70
g51
NtRp78
(dp79
g54
(dp80
S'_valign'
p81
S'top'
p82
ssg63
g66
sg56
(lp83
S':'
asbag49
(g70
g51
NtRp84
(dp85
g54
(dp86
sg63
g66
sg56
(lp87
g49
(g50
g51
NtRp88
(dp89
g54
(dp90
g62
I5
ssg63
g84
sg56
(lp91
S'False'
p92
asbasbasbag49
(g65
g51
NtRp93
(dp94
g54
(dp95
sg63
g59
sg56
(lp96
g49
(g70
g51
NtRp97
(dp98
g54
(dp99
g74
g75
ssg63
g93
sg56
(lp100
S'application'
p101
asbag49
(g70
g51
NtRp102
(dp103
g54
(dp104
g81
g82
ssg63
g93
sg56
(lp105
S':'
asbag49
(g70
g51
NtRp106
(dp107
g54
(dp108
sg63
g93
sg56
(lp109
g49
(g50
g51
NtRp110
(dp111
g54
(dp112
g62
I5
ssg63
g106
sg56
(lp113
S'parleyweb'
p114
asbasbasbag49
(g65
g51
NtRp115
(dp116
g54
(dp117
sg63
g59
sg56
(lp118
g49
(g70
g51
NtRp119
(dp120
g54
(dp121
g74
g75
ssg63
g115
sg56
(lp122
g28
asbag49
(g70
g51
NtRp123
(dp124
g54
(dp125
g81
g82
ssg63
g115
sg56
(lp126
S':'
asbag49
(g70
g51
NtRp127
(dp128
g54
(dp129
sg63
g115
sg56
(lp130
g49
(g50
g51
NtRp131
(dp132
g54
(dp133
g62
I5
ssg63
g127
sg56
(lp134
g49
(g58
g51
NtRp135
(dp136
g54
(dp137
g62
I4
ssg63
Nsg56
(lp138
g49
(g65
g51
NtRp139
(dp140
g54
(dp141
sg63
g135
sg56
(lp142
g49
(g70
g51
NtRp143
(dp144
g54
(dp145
sg63
g139
sg56
(lp146
g49
(g50
g51
NtRp147
(dp148
g54
(dp149
g62
I4
ssg63
g143
sg56
(lp150
S'82'
p151
asbasbasbasbasbasbasbag49
(g65
g51
NtRp152
(dp153
g54
(dp154
sg63
g59
sg56
(lp155
g49
(g70
g51
NtRp156
(dp157
g54
(dp158
g74
g75
ssg63
g152
sg56
(lp159
S'body'
p160
asbag49
(g70
g51
NtRp161
(dp162
g54
(dp163
g81
g82
ssg63
g152
sg56
(lp164
S':'
asbag49
(g70
g51
NtRp165
(dp166
g54
(dp167
sg63
g152
sg56
(lp168
g49
(g50
g51
NtRp169
(dp170
g54
(dp171
g62
I5
ssg63
g165
sg56
(lp172
S'<cStringIO.StringO object at 0x06D012A0>'
p173
asbasbasbag49
(g65
g51
NtRp174
(dp175
g54
(dp176
sg63
g59
sg56
(lp177
g49
(g70
g51
NtRp178
(dp179
g54
(dp180
g74
g75
ssg63
g174
sg56
(lp181
S'client'
p182
asbag49
(g70
g51
NtRp183
(dp184
g54
(dp185
g81
g82
ssg63
g174
sg56
(lp186
S':'
asbag49
(g70
g51
NtRp187
(dp188
g54
(dp189
sg63
g174
sg56
(lp190
g49
(g50
g51
NtRp191
(dp192
g54
(dp193
g62
I5
ssg63
g187
sg56
(lp194
S'127.0.0.1'
p195
asbasbasbag49
(g65
g51
NtRp196
(dp197
g54
(dp198
sg63
g59
sg56
(lp199
g49
(g70
g51
NtRp200
(dp201
g54
(dp202
g74
g75
ssg63
g196
sg56
(lp203
S'controller'
p204
asbag49
(g70
g51
NtRp205
(dp206
g54
(dp207
g81
g82
ssg63
g196
sg56
(lp208
S':'
asbag49
(g70
g51
NtRp209
(dp210
g54
(dp211
sg63
g196
sg56
(lp212
g49
(g50
g51
NtRp213
(dp214
g54
(dp215
g62
I5
ssg63
g209
sg56
(lp216
S'default'
p217
asbasbasbag49
(g65
g51
NtRp218
(dp219
g54
(dp220
sg63
g59
sg56
(lp221
g49
(g70
g51
NtRp222
(dp223
g54
(dp224
g74
g75
ssg63
g218
sg56
(lp225
S'cookies'
p226
asbag49
(g70
g51
NtRp227
(dp228
g54
(dp229
g81
g82
ssg63
g218
sg56
(lp230
S':'
asbag49
(g70
g51
NtRp231
(dp232
g54
(dp233
sg63
g218
sg56
(lp234
g49
(g50
g51
NtRp235
(dp236
g54
(dp237
g62
I5
ssg63
g231
sg56
(lp238
g49
(g58
g51
NtRp239
(dp240
g54
(dp241
g62
I4
ssg63
Nsg56
(lp242
g49
(g65
g51
NtRp243
(dp244
g54
(dp245
sg63
g239
sg56
(lp246
g49
(g70
g51
NtRp247
(dp248
g54
(dp249
g74
g75
ssg63
g243
sg56
(lp250
S'session_id_admin'
p251
asbag49
(g70
g51
NtRp252
(dp253
g54
(dp254
g81
g82
ssg63
g243
sg56
(lp255
S':'
asbag49
(g70
g51
NtRp256
(dp257
g54
(dp258
sg63
g243
sg56
(lp259
g49
(g50
g51
NtRp260
(dp261
g54
(dp262
g62
I4
ssg63
g256
sg56
(lp263
g49
(g58
g51
NtRp264
(dp265
g54
(dp266
g62
I3
ssg63
Nsg56
(lp267
g49
(g65
g51
NtRp268
(dp269
g54
(dp270
sg63
g264
sg56
(lp271
g49
(g70
g51
NtRp272
(dp273
g54
(dp274
g74
g75
ssg63
g268
sg56
(lp275
S'comment'
p276
asbag49
(g70
g51
NtRp277
(dp278
g54
(dp279
g81
g82
ssg63
g268
sg56
(lp280
S':'
asbag49
(g70
g51
NtRp281
(dp282
g54
(dp283
sg63
g268
sg56
(lp284
g49
(g50
g51
NtRp285
(dp286
g54
(dp287
g62
I3
ssg63
g281
sg56
(lp288
S''
asbasbasbag49
(g65
g51
NtRp289
(dp290
g54
(dp291
sg63
g264
sg56
(lp292
g49
(g70
g51
NtRp293
(dp294
g54
(dp295
g74
g75
ssg63
g289
sg56
(lp296
S'domain'
p297
asbag49
(g70
g51
NtRp298
(dp299
g54
(dp300
g81
g82
ssg63
g289
sg56
(lp301
S':'
asbag49
(g70
g51
NtRp302
(dp303
g54
(dp304
sg63
g289
sg56
(lp305
g49
(g50
g51
NtRp306
(dp307
g54
(dp308
g62
I3
ssg63
g302
sg56
(lp309
S''
asbasbasbag49
(g65
g51
NtRp310
(dp311
g54
(dp312
sg63
g264
sg56
(lp313
g49
(g70
g51
NtRp314
(dp315
g54
(dp316
g74
g75
ssg63
g310
sg56
(lp317
S'expires'
p318
asbag49
(g70
g51
NtRp319
(dp320
g54
(dp321
g81
g82
ssg63
g310
sg56
(lp322
S':'
asbag49
(g70
g51
NtRp323
(dp324
g54
(dp325
sg63
g310
sg56
(lp326
g49
(g50
g51
NtRp327
(dp328
g54
(dp329
g62
I3
ssg63
g323
sg56
(lp330
S''
asbasbasbag49
(g65
g51
NtRp331
(dp332
g54
(dp333
sg63
g264
sg56
(lp334
g49
(g70
g51
NtRp335
(dp336
g54
(dp337
g74
g75
ssg63
g331
sg56
(lp338
S'max-age'
p339
asbag49
(g70
g51
NtRp340
(dp341
g54
(dp342
g81
g82
ssg63
g331
sg56
(lp343
S':'
asbag49
(g70
g51
NtRp344
(dp345
g54
(dp346
sg63
g331
sg56
(lp347
g49
(g50
g51
NtRp348
(dp349
g54
(dp350
g62
I3
ssg63
g344
sg56
(lp351
S''
asbasbasbag49
(g65
g51
NtRp352
(dp353
g54
(dp354
sg63
g264
sg56
(lp355
g49
(g70
g51
NtRp356
(dp357
g54
(dp358
g74
g75
ssg63
g352
sg56
(lp359
S'path'
p360
asbag49
(g70
g51
NtRp361
(dp362
g54
(dp363
g81
g82
ssg63
g352
sg56
(lp364
S':'
asbag49
(g70
g51
NtRp365
(dp366
g54
(dp367
sg63
g352
sg56
(lp368
g49
(g50
g51
NtRp369
(dp370
g54
(dp371
g62
I3
ssg63
g365
sg56
(lp372
S''
asbasbasbag49
(g65
g51
NtRp373
(dp374
g54
(dp375
sg63
g264
sg56
(lp376
g49
(g70
g51
NtRp377
(dp378
g54
(dp379
g74
g75
ssg63
g373
sg56
(lp380
S'secure'
p381
asbag49
(g70
g51
NtRp382
(dp383
g54
(dp384
g81
g82
ssg63
g373
sg56
(lp385
S':'
asbag49
(g70
g51
NtRp386
(dp387
g54
(dp388
sg63
g373
sg56
(lp389
g49
(g50
g51
NtRp390
(dp391
g54
(dp392
g62
I3
ssg63
g386
sg56
(lp393
S''
asbasbasbag49
(g65
g51
NtRp394
(dp395
g54
(dp396
sg63
g264
sg56
(lp397
g49
(g70
g51
NtRp398
(dp399
g54
(dp400
g74
g75
ssg63
g394
sg56
(lp401
S'version'
p402
asbag49
(g70
g51
NtRp403
(dp404
g54
(dp405
g81
g82
ssg63
g394
sg56
(lp406
S':'
asbag49
(g70
g51
NtRp407
(dp408
g54
(dp409
sg63
g394
sg56
(lp410
g49
(g50
g51
NtRp411
(dp412
g54
(dp413
g62
I3
ssg63
g407
sg56
(lp414
S''
asbasbasbasbasbasbasbag49
(g65
g51
NtRp415
(dp416
g54
(dp417
sg63
g239
sg56
(lp418
g49
(g70
g51
NtRp419
(dp420
g54
(dp421
g74
g75
ssg63
g415
sg56
(lp422
S'session_id_klaas'
p423
asbag49
(g70
g51
NtRp424
(dp425
g54
(dp426
g81
g82
ssg63
g415
sg56
(lp427
S':'
asbag49
(g70
g51
NtRp428
(dp429
g54
(dp430
sg63
g415
sg56
(lp431
g49
(g50
g51
NtRp432
(dp433
g54
(dp434
g62
I4
ssg63
g428
sg56
(lp435
g49
(g58
g51
NtRp436
(dp437
g54
(dp438
g62
I3
ssg63
Nsg56
(lp439
g49
(g65
g51
NtRp440
(dp441
g54
(dp442
sg63
g436
sg56
(lp443
g49
(g70
g51
NtRp444
(dp445
g54
(dp446
g74
g75
ssg63
g440
sg56
(lp447
g276
asbag49
(g70
g51
NtRp448
(dp449
g54
(dp450
g81
g82
ssg63
g440
sg56
(lp451
S':'
asbag49
(g70
g51
NtRp452
(dp453
g54
(dp454
sg63
g440
sg56
(lp455
g49
(g50
g51
NtRp456
(dp457
g54
(dp458
g62
I3
ssg63
g452
sg56
(lp459
S''
asbasbasbag49
(g65
g51
NtRp460
(dp461
g54
(dp462
sg63
g436
sg56
(lp463
g49
(g70
g51
NtRp464
(dp465
g54
(dp466
g74
g75
ssg63
g460
sg56
(lp467
g297
asbag49
(g70
g51
NtRp468
(dp469
g54
(dp470
g81
g82
ssg63
g460
sg56
(lp471
S':'
asbag49
(g70
g51
NtRp472
(dp473
g54
(dp474
sg63
g460
sg56
(lp475
g49
(g50
g51
NtRp476
(dp477
g54
(dp478
g62
I3
ssg63
g472
sg56
(lp479
S''
asbasbasbag49
(g65
g51
NtRp480
(dp481
g54
(dp482
sg63
g436
sg56
(lp483
g49
(g70
g51
NtRp484
(dp485
g54
(dp486
g74
g75
ssg63
g480
sg56
(lp487
g318
asbag49
(g70
g51
NtRp488
(dp489
g54
(dp490
g81
g82
ssg63
g480
sg56
(lp491
S':'
asbag49
(g70
g51
NtRp492
(dp493
g54
(dp494
sg63
g480
sg56
(lp495
g49
(g50
g51
NtRp496
(dp497
g54
(dp498
g62
I3
ssg63
g492
sg56
(lp499
S''
asbasbasbag49
(g65
g51
NtRp500
(dp501
g54
(dp502
sg63
g436
sg56
(lp503
g49
(g70
g51
NtRp504
(dp505
g54
(dp506
g74
g75
ssg63
g500
sg56
(lp507
g339
asbag49
(g70
g51
NtRp508
(dp509
g54
(dp510
g81
g82
ssg63
g500
sg56
(lp511
S':'
asbag49
(g70
g51
NtRp512
(dp513
g54
(dp514
sg63
g500
sg56
(lp515
g49
(g50
g51
NtRp516
(dp517
g54
(dp518
g62
I3
ssg63
g512
sg56
(lp519
S''
asbasbasbag49
(g65
g51
NtRp520
(dp521
g54
(dp522
sg63
g436
sg56
(lp523
g49
(g70
g51
NtRp524
(dp525
g54
(dp526
g74
g75
ssg63
g520
sg56
(lp527
g360
asbag49
(g70
g51
NtRp528
(dp529
g54
(dp530
g81
g82
ssg63
g520
sg56
(lp531
S':'
asbag49
(g70
g51
NtRp532
(dp533
g54
(dp534
sg63
g520
sg56
(lp535
g49
(g50
g51
NtRp536
(dp537
g54
(dp538
g62
I3
ssg63
g532
sg56
(lp539
S''
asbasbasbag49
(g65
g51
NtRp540
(dp541
g54
(dp542
sg63
g436
sg56
(lp543
g49
(g70
g51
NtRp544
(dp545
g54
(dp546
g74
g75
ssg63
g540
sg56
(lp547
g381
asbag49
(g70
g51
NtRp548
(dp549
g54
(dp550
g81
g82
ssg63
g540
sg56
(lp551
S':'
asbag49
(g70
g51
NtRp552
(dp553
g54
(dp554
sg63
g540
sg56
(lp555
g49
(g50
g51
NtRp556
(dp557
g54
(dp558
g62
I3
ssg63
g552
sg56
(lp559
S''
asbasbasbag49
(g65
g51
NtRp560
(dp561
g54
(dp562
sg63
g436
sg56
(lp563
g49
(g70
g51
NtRp564
(dp565
g54
(dp566
g74
g75
ssg63
g560
sg56
(lp567
g402
asbag49
(g70
g51
NtRp568
(dp569
g54
(dp570
g81
g82
ssg63
g560
sg56
(lp571
S':'
asbag49
(g70
g51
NtRp572
(dp573
g54
(dp574
sg63
g560
sg56
(lp575
g49
(g50
g51
NtRp576
(dp577
g54
(dp578
g62
I3
ssg63
g572
sg56
(lp579
S''
asbasbasbasbasbasbasbag49
(g65
g51
NtRp580
(dp581
g54
(dp582
sg63
g239
sg56
(lp583
g49
(g70
g51
NtRp584
(dp585
g54
(dp586
g74
g75
ssg63
g580
sg56
(lp587
S'session_id_parleyweb'
p588
asbag49
(g70
g51
NtRp589
(dp590
g54
(dp591
g81
g82
ssg63
g580
sg56
(lp592
S':'
asbag49
(g70
g51
NtRp593
(dp594
g54
(dp595
sg63
g580
sg56
(lp596
g49
(g50
g51
NtRp597
(dp598
g54
(dp599
g62
I4
ssg63
g593
sg56
(lp600
g49
(g58
g51
NtRp601
(dp602
g54
(dp603
g62
I3
ssg63
Nsg56
(lp604
g49
(g65
g51
NtRp605
(dp606
g54
(dp607
sg63
g601
sg56
(lp608
g49
(g70
g51
NtRp609
(dp610
g54
(dp611
g74
g75
ssg63
g605
sg56
(lp612
g276
asbag49
(g70
g51
NtRp613
(dp614
g54
(dp615
g81
g82
ssg63
g605
sg56
(lp616
S':'
asbag49
(g70
g51
NtRp617
(dp618
g54
(dp619
sg63
g605
sg56
(lp620
g49
(g50
g51
NtRp621
(dp622
g54
(dp623
g62
I3
ssg63
g617
sg56
(lp624
S''
asbasbasbag49
(g65
g51
NtRp625
(dp626
g54
(dp627
sg63
g601
sg56
(lp628
g49
(g70
g51
NtRp629
(dp630
g54
(dp631
g74
g75
ssg63
g625
sg56
(lp632
g297
asbag49
(g70
g51
NtRp633
(dp634
g54
(dp635
g81
g82
ssg63
g625
sg56
(lp636
S':'
asbag49
(g70
g51
NtRp637
(dp638
g54
(dp639
sg63
g625
sg56
(lp640
g49
(g50
g51
NtRp641
(dp642
g54
(dp643
g62
I3
ssg63
g637
sg56
(lp644
S''
asbasbasbag49
(g65
g51
NtRp645
(dp646
g54
(dp647
sg63
g601
sg56
(lp648
g49
(g70
g51
NtRp649
(dp650
g54
(dp651
g74
g75
ssg63
g645
sg56
(lp652
g318
asbag49
(g70
g51
NtRp653
(dp654
g54
(dp655
g81
g82
ssg63
g645
sg56
(lp656
S':'
asbag49
(g70
g51
NtRp657
(dp658
g54
(dp659
sg63
g645
sg56
(lp660
g49
(g50
g51
NtRp661
(dp662
g54
(dp663
g62
I3
ssg63
g657
sg56
(lp664
S''
asbasbasbag49
(g65
g51
NtRp665
(dp666
g54
(dp667
sg63
g601
sg56
(lp668
g49
(g70
g51
NtRp669
(dp670
g54
(dp671
g74
g75
ssg63
g665
sg56
(lp672
g339
asbag49
(g70
g51
NtRp673
(dp674
g54
(dp675
g81
g82
ssg63
g665
sg56
(lp676
S':'
asbag49
(g70
g51
NtRp677
(dp678
g54
(dp679
sg63
g665
sg56
(lp680
g49
(g50
g51
NtRp681
(dp682
g54
(dp683
g62
I3
ssg63
g677
sg56
(lp684
S''
asbasbasbag49
(g65
g51
NtRp685
(dp686
g54
(dp687
sg63
g601
sg56
(lp688
g49
(g70
g51
NtRp689
(dp690
g54
(dp691
g74
g75
ssg63
g685
sg56
(lp692
g360
asbag49
(g70
g51
NtRp693
(dp694
g54
(dp695
g81
g82
ssg63
g685
sg56
(lp696
S':'
asbag49
(g70
g51
NtRp697
(dp698
g54
(dp699
sg63
g685
sg56
(lp700
g49
(g50
g51
NtRp701
(dp702
g54
(dp703
g62
I3
ssg63
g697
sg56
(lp704
S''
asbasbasbag49
(g65
g51
NtRp705
(dp706
g54
(dp707
sg63
g601
sg56
(lp708
g49
(g70
g51
NtRp709
(dp710
g54
(dp711
g74
g75
ssg63
g705
sg56
(lp712
g381
asbag49
(g70
g51
NtRp713
(dp714
g54
(dp715
g81
g82
ssg63
g705
sg56
(lp716
S':'
asbag49
(g70
g51
NtRp717
(dp718
g54
(dp719
sg63
g705
sg56
(lp720
g49
(g50
g51
NtRp721
(dp722
g54
(dp723
g62
I3
ssg63
g717
sg56
(lp724
S''
asbasbasbag49
(g65
g51
NtRp725
(dp726
g54
(dp727
sg63
g601
sg56
(lp728
g49
(g70
g51
NtRp729
(dp730
g54
(dp731
g74
g75
ssg63
g725
sg56
(lp732
g402
asbag49
(g70
g51
NtRp733
(dp734
g54
(dp735
g81
g82
ssg63
g725
sg56
(lp736
S':'
asbag49
(g70
g51
NtRp737
(dp738
g54
(dp739
sg63
g725
sg56
(lp740
g49
(g50
g51
NtRp741
(dp742
g54
(dp743
g62
I3
ssg63
g737
sg56
(lp744
S''
asbasbasbasbasbasbasbag49
(g65
g51
NtRp745
(dp746
g54
(dp747
sg63
g239
sg56
(lp748
g49
(g70
g51
NtRp749
(dp750
g54
(dp751
g74
g75
ssg63
g745
sg56
(lp752
S'session_id_welcome'
p753
asbag49
(g70
g51
NtRp754
(dp755
g54
(dp756
g81
g82
ssg63
g745
sg56
(lp757
S':'
asbag49
(g70
g51
NtRp758
(dp759
g54
(dp760
sg63
g745
sg56
(lp761
g49
(g50
g51
NtRp762
(dp763
g54
(dp764
g62
I4
ssg63
g758
sg56
(lp765
g49
(g58
g51
NtRp766
(dp767
g54
(dp768
g62
I3
ssg63
Nsg56
(lp769
g49
(g65
g51
NtRp770
(dp771
g54
(dp772
sg63
g766
sg56
(lp773
g49
(g70
g51
NtRp774
(dp775
g54
(dp776
g74
g75
ssg63
g770
sg56
(lp777
g276
asbag49
(g70
g51
NtRp778
(dp779
g54
(dp780
g81
g82
ssg63
g770
sg56
(lp781
S':'
asbag49
(g70
g51
NtRp782
(dp783
g54
(dp784
sg63
g770
sg56
(lp785
g49
(g50
g51
NtRp786
(dp787
g54
(dp788
g62
I3
ssg63
g782
sg56
(lp789
S''
asbasbasbag49
(g65
g51
NtRp790
(dp791
g54
(dp792
sg63
g766
sg56
(lp793
g49
(g70
g51
NtRp794
(dp795
g54
(dp796
g74
g75
ssg63
g790
sg56
(lp797
g297
asbag49
(g70
g51
NtRp798
(dp799
g54
(dp800
g81
g82
ssg63
g790
sg56
(lp801
S':'
asbag49
(g70
g51
NtRp802
(dp803
g54
(dp804
sg63
g790
sg56
(lp805
g49
(g50
g51
NtRp806
(dp807
g54
(dp808
g62
I3
ssg63
g802
sg56
(lp809
S''
asbasbasbag49
(g65
g51
NtRp810
(dp811
g54
(dp812
sg63
g766
sg56
(lp813
g49
(g70
g51
NtRp814
(dp815
g54
(dp816
g74
g75
ssg63
g810
sg56
(lp817
g318
asbag49
(g70
g51
NtRp818
(dp819
g54
(dp820
g81
g82
ssg63
g810
sg56
(lp821
S':'
asbag49
(g70
g51
NtRp822
(dp823
g54
(dp824
sg63
g810
sg56
(lp825
g49
(g50
g51
NtRp826
(dp827
g54
(dp828
g62
I3
ssg63
g822
sg56
(lp829
S''
asbasbasbag49
(g65
g51
NtRp830
(dp831
g54
(dp832
sg63
g766
sg56
(lp833
g49
(g70
g51
NtRp834
(dp835
g54
(dp836
g74
g75
ssg63
g830
sg56
(lp837
g339
asbag49
(g70
g51
NtRp838
(dp839
g54
(dp840
g81
g82
ssg63
g830
sg56
(lp841
S':'
asbag49
(g70
g51
NtRp842
(dp843
g54
(dp844
sg63
g830
sg56
(lp845
g49
(g50
g51
NtRp846
(dp847
g54
(dp848
g62
I3
ssg63
g842
sg56
(lp849
S''
asbasbasbag49
(g65
g51
NtRp850
(dp851
g54
(dp852
sg63
g766
sg56
(lp853
g49
(g70
g51
NtRp854
(dp855
g54
(dp856
g74
g75
ssg63
g850
sg56
(lp857
g360
asbag49
(g70
g51
NtRp858
(dp859
g54
(dp860
g81
g82
ssg63
g850
sg56
(lp861
S':'
asbag49
(g70
g51
NtRp862
(dp863
g54
(dp864
sg63
g850
sg56
(lp865
g49
(g50
g51
NtRp866
(dp867
g54
(dp868
g62
I3
ssg63
g862
sg56
(lp869
S''
asbasbasbag49
(g65
g51
NtRp870
(dp871
g54
(dp872
sg63
g766
sg56
(lp873
g49
(g70
g51
NtRp874
(dp875
g54
(dp876
g74
g75
ssg63
g870
sg56
(lp877
g381
asbag49
(g70
g51
NtRp878
(dp879
g54
(dp880
g81
g82
ssg63
g870
sg56
(lp881
S':'
asbag49
(g70
g51
NtRp882
(dp883
g54
(dp884
sg63
g870
sg56
(lp885
g49
(g50
g51
NtRp886
(dp887
g54
(dp888
g62
I3
ssg63
g882
sg56
(lp889
S''
asbasbasbag49
(g65
g51
NtRp890
(dp891
g54
(dp892
sg63
g766
sg56
(lp893
g49
(g70
g51
NtRp894
(dp895
g54
(dp896
g74
g75
ssg63
g890
sg56
(lp897
g402
asbag49
(g70
g51
NtRp898
(dp899
g54
(dp900
g81
g82
ssg63
g890
sg56
(lp901
S':'
asbag49
(g70
g51
NtRp902
(dp903
g54
(dp904
sg63
g890
sg56
(lp905
g49
(g50
g51
NtRp906
(dp907
g54
(dp908
g62
I3
ssg63
g902
sg56
(lp909
S''
asbasbasbasbasbasbasbasbasbasbasbag49
(g65
g51
NtRp910
(dp911
g54
(dp912
sg63
g59
sg56
(lp913
g49
(g70
g51
NtRp914
(dp915
g54
(dp916
g74
g75
ssg63
g910
sg56
(lp917
S'env'
p918
asbag49
(g70
g51
NtRp919
(dp920
g54
(dp921
g81
g82
ssg63
g910
sg56
(lp922
S':'
asbag49
(g70
g51
NtRp923
(dp924
g54
(dp925
sg63
g910
sg56
(lp926
g49
(g50
g51
NtRp927
(dp928
g54
(dp929
g62
I5
ssg63
g923
sg56
(lp930
g49
(g58
g51
NtRp931
(dp932
g54
(dp933
g62
I4
ssg63
Nsg56
(lp934
g49
(g65
g51
NtRp935
(dp936
g54
(dp937
sg63
g931
sg56
(lp938
g49
(g70
g51
NtRp939
(dp940
g54
(dp941
g74
g75
ssg63
g935
sg56
(lp942
S'app_folders'
p943
asbag49
(g70
g51
NtRp944
(dp945
g54
(dp946
g81
g82
ssg63
g935
sg56
(lp947
S':'
asbag49
(g70
g51
NtRp948
(dp949
g54
(dp950
sg63
g935
sg56
(lp951
g49
(g50
g51
NtRp952
(dp953
g54
(dp954
g62
I4
ssg63
g948
sg56
(lp955
S"set(['D:\\\\Dise\\xf1o Web\\\\Proyectos\\\\Parleyweb\\\\web2py\\\\applications\\\\parleyweb\\\\', 'D:\\\\Dise\\xf1o Web\\\\Proyectos\\\\Parleyweb\\\\web2py\\\\applications\\\\welcome\\\\', 'D:\\\\Dise\\xf1o Web\\\\Proyectos\\\\Parleyweb\\\\web2py\\\\applications\\\\admin\\\\'])"
p956
asbasbasbag49
(g65
g51
NtRp957
(dp958
g54
(dp959
sg63
g931
sg56
(lp960
g49
(g70
g51
NtRp961
(dp962
g54
(dp963
g74
g75
ssg63
g957
sg56
(lp964
S'applications_parent'
p965
asbag49
(g70
g51
NtRp966
(dp967
g54
(dp968
g81
g82
ssg63
g957
sg56
(lp969
S':'
asbag49
(g70
g51
NtRp970
(dp971
g54
(dp972
sg63
g957
sg56
(lp973
g49
(g50
g51
NtRp974
(dp975
g54
(dp976
g62
I4
ssg63
g970
sg56
(lp977
S'D:\\Dise\xf1o Web\\Proyectos\\Parleyweb\\web2py'
p978
asbasbasbag49
(g65
g51
NtRp979
(dp980
g54
(dp981
sg63
g931
sg56
(lp982
g49
(g70
g51
NtRp983
(dp984
g54
(dp985
g74
g75
ssg63
g979
sg56
(lp986
S'cmd_args'
p987
asbag49
(g70
g51
NtRp988
(dp989
g54
(dp990
g81
g82
ssg63
g979
sg56
(lp991
S':'
asbag49
(g70
g51
NtRp992
(dp993
g54
(dp994
sg63
g979
sg56
(lp995
g49
(g50
g51
NtRp996
(dp997
g54
(dp998
g62
I4
ssg63
g992
sg56
(lp999
g49
(g58
g51
NtRp1000
(dp1001
g54
(dp1002
g62
I3
ssg63
Nsg56
(lp1003
sbasbasbasbag49
(g65
g51
NtRp1004
(dp1005
g54
(dp1006
sg63
g931
sg56
(lp1007
g49
(g70
g51
NtRp1008
(dp1009
g54
(dp1010
g74
g75
ssg63
g1004
sg56
(lp1011
S'cmd_options'
p1012
asbag49
(g70
g51
NtRp1013
(dp1014
g54
(dp1015
g81
g82
ssg63
g1004
sg56
(lp1016
S':'
asbag49
(g70
g51
NtRp1017
(dp1018
g54
(dp1019
sg63
g1004
sg56
(lp1020
g49
(g50
g51
NtRp1021
(dp1022
g54
(dp1023
g62
I4
ssg63
g1017
sg56
(lp1024
S"<Values at 0x30bff30: {'verbose': False, 'ip': '127.0.0.1', 'shutdown_timeout': 5, 'taskbar': False, 'nocron': False, 'pid_filename': 'httpserver.pid', 'maxthreads': None, 'softcron': False, 'server_name': 'craxsnet-PC', 'bpython': False, 'nogui': False, 'port': 8000, 'extcron': False, 'debuglevel': 30, 'test': None, 'folder': 'D:\\\\Dise\\xf1o Web\\\\Proyectos\\\\Parleyweb\\\\web2py', 'config': '', 'import_models': False, 'winservice': '', 'shell': None, 'run': '', 'log_filename': 'httpserver.log', 'args': [''], 'socket_timeout': 5, 'ssl_ca_certificate': None, 'scheduler': None, 'profiler_filename': None, 'ssl_private_key': '', 'password': '<ask>', 'request_queue_size': 5, 'ssl_certificate': '', 'cronjob': False, 'numthreads': None, 'quiet': False, 'interfaces': None, 'minthreads': None, 'timeout': 10, 'plain': False, 'nobanner': False}>"
p1025
asbasbasbag49
(g65
g51
NtRp1026
(dp1027
g54
(dp1028
sg63
g931
sg56
(lp1029
g49
(g70
g51
NtRp1030
(dp1031
g54
(dp1032
g74
g75
ssg63
g1026
sg56
(lp1033
S'db_sessions'
p1034
asbag49
(g70
g51
NtRp1035
(dp1036
g54
(dp1037
g81
g82
ssg63
g1026
sg56
(lp1038
S':'
asbag49
(g70
g51
NtRp1039
(dp1040
g54
(dp1041
sg63
g1026
sg56
(lp1042
g49
(g50
g51
NtRp1043
(dp1044
g54
(dp1045
g62
I4
ssg63
g1039
sg56
(lp1046
S'set([])'
p1047
asbasbasbag49
(g65
g51
NtRp1048
(dp1049
g54
(dp1050
sg63
g931
sg56
(lp1051
g49
(g70
g51
NtRp1052
(dp1053
g54
(dp1054
g74
g75
ssg63
g1048
sg56
(lp1055
S'debugging'
p1056
asbag49
(g70
g51
NtRp1057
(dp1058
g54
(dp1059
g81
g82
ssg63
g1048
sg56
(lp1060
S':'
asbag49
(g70
g51
NtRp1061
(dp1062
g54
(dp1063
sg63
g1048
sg56
(lp1064
g49
(g50
g51
NtRp1065
(dp1066
g54
(dp1067
g62
I4
ssg63
g1061
sg56
(lp1068
g92
asbasbasbag49
(g65
g51
NtRp1069
(dp1070
g54
(dp1071
sg63
g931
sg56
(lp1072
g49
(g70
g51
NtRp1073
(dp1074
g54
(dp1075
g74
g75
ssg63
g1069
sg56
(lp1076
S'gluon_parent'
p1077
asbag49
(g70
g51
NtRp1078
(dp1079
g54
(dp1080
g81
g82
ssg63
g1069
sg56
(lp1081
S':'
asbag49
(g70
g51
NtRp1082
(dp1083
g54
(dp1084
sg63
g1069
sg56
(lp1085
g49
(g50
g51
NtRp1086
(dp1087
g54
(dp1088
g62
I4
ssg63
g1082
sg56
(lp1089
S'D:\\Dise\xf1o Web\\Proyectos\\Parleyweb\\web2py'
p1090
asbasbasbag49
(g65
g51
NtRp1091
(dp1092
g54
(dp1093
sg63
g931
sg56
(lp1094
g49
(g70
g51
NtRp1095
(dp1096
g54
(dp1097
g74
g75
ssg63
g1091
sg56
(lp1098
S'http_accept'
p1099
asbag49
(g70
g51
NtRp1100
(dp1101
g54
(dp1102
g81
g82
ssg63
g1091
sg56
(lp1103
S':'
asbag49
(g70
g51
NtRp1104
(dp1105
g54
(dp1106
sg63
g1091
sg56
(lp1107
g49
(g50
g51
NtRp1108
(dp1109
g54
(dp1110
g62
I4
ssg63
g1104
sg56
(lp1111
S'text/html,application/xhtml+xml,application/xml;q=0.9,*/*;q=0.8'
p1112
asbasbasbag49
(g65
g51
NtRp1113
(dp1114
g54
(dp1115
sg63
g931
sg56
(lp1116
g49
(g70
g51
NtRp1117
(dp1118
g54
(dp1119
g74
g75
ssg63
g1113
sg56
(lp1120
S'http_accept_encoding'
p1121
asbag49
(g70
g51
NtRp1122
(dp1123
g54
(dp1124
g81
g82
ssg63
g1113
sg56
(lp1125
S':'
asbag49
(g70
g51
NtRp1126
(dp1127
g54
(dp1128
sg63
g1113
sg56
(lp1129
g49
(g50
g51
NtRp1130
(dp1131
g54
(dp1132
g62
I4
ssg63
g1126
sg56
(lp1133
S'gzip, deflate'
p1134
asbasbasbag49
(g65
g51
NtRp1135
(dp1136
g54
(dp1137
sg63
g931
sg56
(lp1138
g49
(g70
g51
NtRp1139
(dp1140
g54
(dp1141
g74
g75
ssg63
g1135
sg56
(lp1142
S'http_accept_language'
p1143
asbag49
(g70
g51
NtRp1144
(dp1145
g54
(dp1146
g81
g82
ssg63
g1135
sg56
(lp1147
S':'
asbag49
(g70
g51
NtRp1148
(dp1149
g54
(dp1150
sg63
g1135
sg56
(lp1151
g49
(g50
g51
NtRp1152
(dp1153
g54
(dp1154
g62
I4
ssg63
g1148
sg56
(lp1155
S'es-es,de-de;q=0.8,es;q=0.6,en-us;q=0.4,en;q=0.2'
p1156
asbasbasbag49
(g65
g51
NtRp1157
(dp1158
g54
(dp1159
sg63
g931
sg56
(lp1160
g49
(g70
g51
NtRp1161
(dp1162
g54
(dp1163
g74
g75
ssg63
g1157
sg56
(lp1164
S'http_connection'
p1165
asbag49
(g70
g51
NtRp1166
(dp1167
g54
(dp1168
g81
g82
ssg63
g1157
sg56
(lp1169
S':'
asbag49
(g70
g51
NtRp1170
(dp1171
g54
(dp1172
sg63
g1157
sg56
(lp1173
g49
(g50
g51
NtRp1174
(dp1175
g54
(dp1176
g62
I4
ssg63
g1170
sg56
(lp1177
S'keep-alive'
p1178
asbasbasbag49
(g65
g51
NtRp1179
(dp1180
g54
(dp1181
sg63
g931
sg56
(lp1182
g49
(g70
g51
NtRp1183
(dp1184
g54
(dp1185
g74
g75
ssg63
g1179
sg56
(lp1186
S'http_cookie'
p1187
asbag49
(g70
g51
NtRp1188
(dp1189
g54
(dp1190
g81
g82
ssg63
g1179
sg56
(lp1191
S':'
asbag49
(g70
g51
NtRp1192
(dp1193
g54
(dp1194
sg63
g1179
sg56
(lp1195
g49
(g50
g51
NtRp1196
(dp1197
g54
(dp1198
g62
I4
ssg63
g1192
sg56
(lp1199
S'__utma=96992031.26429765.1325029743.1325029743.1326549329.2; __utmz=96992031.1325029743.1.1.utmcsr=(direct)|utmccn=(direct)|utmcmd=(none); session_id_klaas=127.0.0.1-22979940-8cc3-49bc-9f44-0623615d817e; session_id_welcome=127.0.0.1-66b42615-8608-436c-b509-0246c4cfd00e; session_id_admin=127.0.0.1-e5279095-7b9f-4d46-b577-71e870d46308; session_id_parleyweb=127.0.0.1-941ea06b-718e-475d-8aba-022805d8afd9'
p1200
asbasbasbag49
(g65
g51
NtRp1201
(dp1202
g54
(dp1203
sg63
g931
sg56
(lp1204
g49
(g70
g51
NtRp1205
(dp1206
g54
(dp1207
g74
g75
ssg63
g1201
sg56
(lp1208
S'http_host'
p1209
asbag49
(g70
g51
NtRp1210
(dp1211
g54
(dp1212
g81
g82
ssg63
g1201
sg56
(lp1213
S':'
asbag49
(g70
g51
NtRp1214
(dp1215
g54
(dp1216
sg63
g1201
sg56
(lp1217
g49
(g50
g51
NtRp1218
(dp1219
g54
(dp1220
g62
I4
ssg63
g1214
sg56
(lp1221
S'127.0.0.1:8000'
p1222
asbasbasbag49
(g65
g51
NtRp1223
(dp1224
g54
(dp1225
sg63
g931
sg56
(lp1226
g49
(g70
g51
NtRp1227
(dp1228
g54
(dp1229
g74
g75
ssg63
g1223
sg56
(lp1230
S'http_user_agent'
p1231
asbag49
(g70
g51
NtRp1232
(dp1233
g54
(dp1234
g81
g82
ssg63
g1223
sg56
(lp1235
S':'
asbag49
(g70
g51
NtRp1236
(dp1237
g54
(dp1238
sg63
g1223
sg56
(lp1239
g49
(g50
g51
NtRp1240
(dp1241
g54
(dp1242
g62
I4
ssg63
g1236
sg56
(lp1243
S'Mozilla/5.0 (Windows NT 6.1; WOW64; rv:10.0.2) Gecko/20100101 Firefox/10.0.2'
p1244
asbasbasbag49
(g65
g51
NtRp1245
(dp1246
g54
(dp1247
sg63
g931
sg56
(lp1248
g49
(g70
g51
NtRp1249
(dp1250
g54
(dp1251
g74
g75
ssg63
g1245
sg56
(lp1252
S'is_jython'
p1253
asbag49
(g70
g51
NtRp1254
(dp1255
g54
(dp1256
g81
g82
ssg63
g1245
sg56
(lp1257
S':'
asbag49
(g70
g51
NtRp1258
(dp1259
g54
(dp1260
sg63
g1245
sg56
(lp1261
g49
(g50
g51
NtRp1262
(dp1263
g54
(dp1264
g62
I4
ssg63
g1258
sg56
(lp1265
g92
asbasbasbag49
(g65
g51
NtRp1266
(dp1267
g54
(dp1268
sg63
g931
sg56
(lp1269
g49
(g70
g51
NtRp1270
(dp1271
g54
(dp1272
g74
g75
ssg63
g1266
sg56
(lp1273
S'is_pypy'
p1274
asbag49
(g70
g51
NtRp1275
(dp1276
g54
(dp1277
g81
g82
ssg63
g1266
sg56
(lp1278
S':'
asbag49
(g70
g51
NtRp1279
(dp1280
g54
(dp1281
sg63
g1266
sg56
(lp1282
g49
(g50
g51
NtRp1283
(dp1284
g54
(dp1285
g62
I4
ssg63
g1279
sg56
(lp1286
g92
asbasbasbag49
(g65
g51
NtRp1287
(dp1288
g54
(dp1289
sg63
g931
sg56
(lp1290
g49
(g70
g51
NtRp1291
(dp1292
g54
(dp1293
g74
g75
ssg63
g1287
sg56
(lp1294
S'path_info'
p1295
asbag49
(g70
g51
NtRp1296
(dp1297
g54
(dp1298
g81
g82
ssg63
g1287
sg56
(lp1299
S':'
asbag49
(g70
g51
NtRp1300
(dp1301
g54
(dp1302
sg63
g1287
sg56
(lp1303
g49
(g50
g51
NtRp1304
(dp1305
g54
(dp1306
g62
I4
ssg63
g1300
sg56
(lp1307
S'/parleyweb/default/mostrar/82'
p1308
asbasbasbag49
(g65
g51
NtRp1309
(dp1310
g54
(dp1311
sg63
g931
sg56
(lp1312
g49
(g70
g51
NtRp1313
(dp1314
g54
(dp1315
g74
g75
ssg63
g1309
sg56
(lp1316
S'query_string'
p1317
asbag49
(g70
g51
NtRp1318
(dp1319
g54
(dp1320
g81
g82
ssg63
g1309
sg56
(lp1321
S':'
asbag49
(g70
g51
NtRp1322
(dp1323
g54
(dp1324
sg63
g1309
sg56
(lp1325
g49
(g50
g51
NtRp1326
(dp1327
g54
(dp1328
g62
I4
ssg63
g1322
sg56
(lp1329
S''
asbasbasbag49
(g65
g51
NtRp1330
(dp1331
g54
(dp1332
sg63
g931
sg56
(lp1333
g49
(g70
g51
NtRp1334
(dp1335
g54
(dp1336
g74
g75
ssg63
g1330
sg56
(lp1337
S'remote_addr'
p1338
asbag49
(g70
g51
NtRp1339
(dp1340
g54
(dp1341
g81
g82
ssg63
g1330
sg56
(lp1342
S':'
asbag49
(g70
g51
NtRp1343
(dp1344
g54
(dp1345
sg63
g1330
sg56
(lp1346
g49
(g50
g51
NtRp1347
(dp1348
g54
(dp1349
g62
I4
ssg63
g1343
sg56
(lp1350
g195
asbasbasbag49
(g65
g51
NtRp1351
(dp1352
g54
(dp1353
sg63
g931
sg56
(lp1354
g49
(g70
g51
NtRp1355
(dp1356
g54
(dp1357
g74
g75
ssg63
g1351
sg56
(lp1358
S'remote_port'
p1359
asbag49
(g70
g51
NtRp1360
(dp1361
g54
(dp1362
g81
g82
ssg63
g1351
sg56
(lp1363
S':'
asbag49
(g70
g51
NtRp1364
(dp1365
g54
(dp1366
sg63
g1351
sg56
(lp1367
g49
(g50
g51
NtRp1368
(dp1369
g54
(dp1370
g62
I4
ssg63
g1364
sg56
(lp1371
S'54684'
p1372
asbasbasbag49
(g65
g51
NtRp1373
(dp1374
g54
(dp1375
sg63
g931
sg56
(lp1376
g49
(g70
g51
NtRp1377
(dp1378
g54
(dp1379
g74
g75
ssg63
g1373
sg56
(lp1380
S'request_method'
p1381
asbag49
(g70
g51
NtRp1382
(dp1383
g54
(dp1384
g81
g82
ssg63
g1373
sg56
(lp1385
S':'
asbag49
(g70
g51
NtRp1386
(dp1387
g54
(dp1388
sg63
g1373
sg56
(lp1389
g49
(g50
g51
NtRp1390
(dp1391
g54
(dp1392
g62
I4
ssg63
g1386
sg56
(lp1393
S'GET'
p1394
asbasbasbag49
(g65
g51
NtRp1395
(dp1396
g54
(dp1397
sg63
g931
sg56
(lp1398
g49
(g70
g51
NtRp1399
(dp1400
g54
(dp1401
g74
g75
ssg63
g1395
sg56
(lp1402
S'script_name'
p1403
asbag49
(g70
g51
NtRp1404
(dp1405
g54
(dp1406
g81
g82
ssg63
g1395
sg56
(lp1407
S':'
asbag49
(g70
g51
NtRp1408
(dp1409
g54
(dp1410
sg63
g1395
sg56
(lp1411
g49
(g50
g51
NtRp1412
(dp1413
g54
(dp1414
g62
I4
ssg63
g1408
sg56
(lp1415
S''
asbasbasbag49
(g65
g51
NtRp1416
(dp1417
g54
(dp1418
sg63
g931
sg56
(lp1419
g49
(g70
g51
NtRp1420
(dp1421
g54
(dp1422
g74
g75
ssg63
g1416
sg56
(lp1423
S'server_name'
p1424
asbag49
(g70
g51
NtRp1425
(dp1426
g54
(dp1427
g81
g82
ssg63
g1416
sg56
(lp1428
S':'
asbag49
(g70
g51
NtRp1429
(dp1430
g54
(dp1431
sg63
g1416
sg56
(lp1432
g49
(g50
g51
NtRp1433
(dp1434
g54
(dp1435
g62
I4
ssg63
g1429
sg56
(lp1436
S'craxsnet-PC'
p1437
asbasbasbag49
(g65
g51
NtRp1438
(dp1439
g54
(dp1440
sg63
g931
sg56
(lp1441
g49
(g70
g51
NtRp1442
(dp1443
g54
(dp1444
g74
g75
ssg63
g1438
sg56
(lp1445
S'server_port'
p1446
asbag49
(g70
g51
NtRp1447
(dp1448
g54
(dp1449
g81
g82
ssg63
g1438
sg56
(lp1450
S':'
asbag49
(g70
g51
NtRp1451
(dp1452
g54
(dp1453
sg63
g1438
sg56
(lp1454
g49
(g50
g51
NtRp1455
(dp1456
g54
(dp1457
g62
I4
ssg63
g1451
sg56
(lp1458
S'8000'
p1459
asbasbasbag49
(g65
g51
NtRp1460
(dp1461
g54
(dp1462
sg63
g931
sg56
(lp1463
g49
(g70
g51
NtRp1464
(dp1465
g54
(dp1466
g74
g75
ssg63
g1460
sg56
(lp1467
S'server_protocol'
p1468
asbag49
(g70
g51
NtRp1469
(dp1470
g54
(dp1471
g81
g82
ssg63
g1460
sg56
(lp1472
S':'
asbag49
(g70
g51
NtRp1473
(dp1474
g54
(dp1475
sg63
g1460
sg56
(lp1476
g49
(g50
g51
NtRp1477
(dp1478
g54
(dp1479
g62
I4
ssg63
g1473
sg56
(lp1480
S'HTTP/1.1'
p1481
asbasbasbag49
(g65
g51
NtRp1482
(dp1483
g54
(dp1484
sg63
g931
sg56
(lp1485
g49
(g70
g51
NtRp1486
(dp1487
g54
(dp1488
g74
g75
ssg63
g1482
sg56
(lp1489
S'server_software'
p1490
asbag49
(g70
g51
NtRp1491
(dp1492
g54
(dp1493
g81
g82
ssg63
g1482
sg56
(lp1494
S':'
asbag49
(g70
g51
NtRp1495
(dp1496
g54
(dp1497
sg63
g1482
sg56
(lp1498
g49
(g50
g51
NtRp1499
(dp1500
g54
(dp1501
g62
I4
ssg63
g1495
sg56
(lp1502
S'Rocket 1.2.4'
p1503
asbasbasbag49
(g65
g51
NtRp1504
(dp1505
g54
(dp1506
sg63
g931
sg56
(lp1507
g49
(g70
g51
NtRp1508
(dp1509
g54
(dp1510
g74
g75
ssg63
g1504
sg56
(lp1511
S'web2py_crontype'
p1512
asbag49
(g70
g51
NtRp1513
(dp1514
g54
(dp1515
g81
g82
ssg63
g1504
sg56
(lp1516
S':'
asbag49
(g70
g51
NtRp1517
(dp1518
g54
(dp1519
sg63
g1504
sg56
(lp1520
g49
(g50
g51
NtRp1521
(dp1522
g54
(dp1523
g62
I4
ssg63
g1517
sg56
(lp1524
S'hard'
p1525
asbasbasbag49
(g65
g51
NtRp1526
(dp1527
g54
(dp1528
sg63
g931
sg56
(lp1529
g49
(g70
g51
NtRp1530
(dp1531
g54
(dp1532
g74
g75
ssg63
g1526
sg56
(lp1533
S'web2py_path'
p1534
asbag49
(g70
g51
NtRp1535
(dp1536
g54
(dp1537
g81
g82
ssg63
g1526
sg56
(lp1538
S':'
asbag49
(g70
g51
NtRp1539
(dp1540
g54
(dp1541
sg63
g1526
sg56
(lp1542
g49
(g50
g51
NtRp1543
(dp1544
g54
(dp1545
g62
I4
ssg63
g1539
sg56
(lp1546
g978
asbasbasbag49
(g65
g51
NtRp1547
(dp1548
g54
(dp1549
sg63
g931
sg56
(lp1550
g49
(g70
g51
NtRp1551
(dp1552
g54
(dp1553
g74
g75
ssg63
g1547
sg56
(lp1554
S'web2py_version'
p1555
asbag49
(g70
g51
NtRp1556
(dp1557
g54
(dp1558
g81
g82
ssg63
g1547
sg56
(lp1559
S':'
asbag49
(g70
g51
NtRp1560
(dp1561
g54
(dp1562
sg63
g1547
sg56
(lp1563
g49
(g50
g51
NtRp1564
(dp1565
g54
(dp1566
g62
I4
ssg63
g1560
sg56
(lp1567
g49
(g58
g51
NtRp1568
(dp1569
g54
(dp1570
g62
I3
ssg63
Nsg56
(lp1571
g49
(g65
g51
NtRp1572
(dp1573
g54
(dp1574
sg63
g1568
sg56
(lp1575
g49
(g70
g51
NtRp1576
(dp1577
g54
(dp1578
sg63
g1572
sg56
(lp1579
g49
(g50
g51
NtRp1580
(dp1581
g54
(dp1582
g62
I3
ssg63
g1576
sg56
(lp1583
S'1'
asbasbasbag49
(g65
g51
NtRp1584
(dp1585
g54
(dp1586
sg63
g1568
sg56
(lp1587
g49
(g70
g51
NtRp1588
(dp1589
g54
(dp1590
sg63
g1584
sg56
(lp1591
g49
(g50
g51
NtRp1592
(dp1593
g54
(dp1594
g62
I3
ssg63
g1588
sg56
(lp1595
S'99'
p1596
asbasbasbag49
(g65
g51
NtRp1597
(dp1598
g54
(dp1599
sg63
g1568
sg56
(lp1600
g49
(g70
g51
NtRp1601
(dp1602
g54
(dp1603
sg63
g1597
sg56
(lp1604
g49
(g50
g51
NtRp1605
(dp1606
g54
(dp1607
g62
I3
ssg63
g1601
sg56
(lp1608
S'7'
asbasbasbag49
(g65
g51
NtRp1609
(dp1610
g54
(dp1611
sg63
g1568
sg56
(lp1612
g49
(g70
g51
NtRp1613
(dp1614
g54
(dp1615
sg63
g1609
sg56
(lp1616
g49
(g50
g51
NtRp1617
(dp1618
g54
(dp1619
g62
I3
ssg63
g1613
sg56
(lp1620
S'datetime.datetime(2012, 3, 4, 22, 12, 8)'
p1621
asbasbasbag49
(g65
g51
NtRp1622
(dp1623
g54
(dp1624
sg63
g1568
sg56
(lp1625
g49
(g70
g51
NtRp1626
(dp1627
g54
(dp1628
sg63
g1622
sg56
(lp1629
g49
(g50
g51
NtRp1630
(dp1631
g54
(dp1632
g62
I3
ssg63
g1626
sg56
(lp1633
S'stable'
p1634
asbasbasbasbasbasbasbag49
(g65
g51
NtRp1635
(dp1636
g54
(dp1637
sg63
g931
sg56
(lp1638
g49
(g70
g51
NtRp1639
(dp1640
g54
(dp1641
g74
g75
ssg63
g1635
sg56
(lp1642
S'wsgi_errors'
p1643
asbag49
(g70
g51
NtRp1644
(dp1645
g54
(dp1646
g81
g82
ssg63
g1635
sg56
(lp1647
S':'
asbag49
(g70
g51
NtRp1648
(dp1649
g54
(dp1650
sg63
g1635
sg56
(lp1651
g49
(g50
g51
NtRp1652
(dp1653
g54
(dp1654
g62
I4
ssg63
g1648
sg56
(lp1655
S"<open file '<stderr>', mode 'w' at 0x01F400B0>"
p1656
asbasbasbag49
(g65
g51
NtRp1657
(dp1658
g54
(dp1659
sg63
g931
sg56
(lp1660
g49
(g70
g51
NtRp1661
(dp1662
g54
(dp1663
g74
g75
ssg63
g1657
sg56
(lp1664
S'wsgi_file_wrapper'
p1665
asbag49
(g70
g51
NtRp1666
(dp1667
g54
(dp1668
g81
g82
ssg63
g1657
sg56
(lp1669
S':'
asbag49
(g70
g51
NtRp1670
(dp1671
g54
(dp1672
sg63
g1657
sg56
(lp1673
g49
(g50
g51
NtRp1674
(dp1675
g54
(dp1676
g62
I4
ssg63
g1670
sg56
(lp1677
S'<class wsgiref.util.FileWrapper at 0x02EB5390>'
p1678
asbasbasbag49
(g65
g51
NtRp1679
(dp1680
g54
(dp1681
sg63
g931
sg56
(lp1682
g49
(g70
g51
NtRp1683
(dp1684
g54
(dp1685
g74
g75
ssg63
g1679
sg56
(lp1686
S'wsgi_input'
p1687
asbag49
(g70
g51
NtRp1688
(dp1689
g54
(dp1690
g81
g82
ssg63
g1679
sg56
(lp1691
S':'
asbag49
(g70
g51
NtRp1692
(dp1693
g54
(dp1694
sg63
g1679
sg56
(lp1695
g49
(g50
g51
NtRp1696
(dp1697
g54
(dp1698
g62
I4
ssg63
g1692
sg56
(lp1699
S'<socket._fileobject object at 0x072560F0>'
p1700
asbasbasbag49
(g65
g51
NtRp1701
(dp1702
g54
(dp1703
sg63
g931
sg56
(lp1704
g49
(g70
g51
NtRp1705
(dp1706
g54
(dp1707
g74
g75
ssg63
g1701
sg56
(lp1708
S'wsgi_multiprocess'
p1709
asbag49
(g70
g51
NtRp1710
(dp1711
g54
(dp1712
g81
g82
ssg63
g1701
sg56
(lp1713
S':'
asbag49
(g70
g51
NtRp1714
(dp1715
g54
(dp1716
sg63
g1701
sg56
(lp1717
g49
(g50
g51
NtRp1718
(dp1719
g54
(dp1720
g62
I4
ssg63
g1714
sg56
(lp1721
g92
asbasbasbag49
(g65
g51
NtRp1722
(dp1723
g54
(dp1724
sg63
g931
sg56
(lp1725
g49
(g70
g51
NtRp1726
(dp1727
g54
(dp1728
g74
g75
ssg63
g1722
sg56
(lp1729
S'wsgi_multithread'
p1730
asbag49
(g70
g51
NtRp1731
(dp1732
g54
(dp1733
g81
g82
ssg63
g1722
sg56
(lp1734
S':'
asbag49
(g70
g51
NtRp1735
(dp1736
g54
(dp1737
sg63
g1722
sg56
(lp1738
g49
(g50
g51
NtRp1739
(dp1740
g54
(dp1741
g62
I4
ssg63
g1735
sg56
(lp1742
S'True'
p1743
asbasbasbag49
(g65
g51
NtRp1744
(dp1745
g54
(dp1746
sg63
g931
sg56
(lp1747
g49
(g70
g51
NtRp1748
(dp1749
g54
(dp1750
g74
g75
ssg63
g1744
sg56
(lp1751
S'wsgi_run_once'
p1752
asbag49
(g70
g51
NtRp1753
(dp1754
g54
(dp1755
g81
g82
ssg63
g1744
sg56
(lp1756
S':'
asbag49
(g70
g51
NtRp1757
(dp1758
g54
(dp1759
sg63
g1744
sg56
(lp1760
g49
(g50
g51
NtRp1761
(dp1762
g54
(dp1763
g62
I4
ssg63
g1757
sg56
(lp1764
g92
asbasbasbag49
(g65
g51
NtRp1765
(dp1766
g54
(dp1767
sg63
g931
sg56
(lp1768
g49
(g70
g51
NtRp1769
(dp1770
g54
(dp1771
g74
g75
ssg63
g1765
sg56
(lp1772
S'wsgi_url_scheme'
p1773
asbag49
(g70
g51
NtRp1774
(dp1775
g54
(dp1776
g81
g82
ssg63
g1765
sg56
(lp1777
S':'
asbag49
(g70
g51
NtRp1778
(dp1779
g54
(dp1780
sg63
g1765
sg56
(lp1781
g49
(g50
g51
NtRp1782
(dp1783
g54
(dp1784
g62
I4
ssg63
g1778
sg56
(lp1785
S'http'
p1786
asbasbasbag49
(g65
g51
NtRp1787
(dp1788
g54
(dp1789
sg63
g931
sg56
(lp1790
g49
(g70
g51
NtRp1791
(dp1792
g54
(dp1793
g74
g75
ssg63
g1787
sg56
(lp1794
S'wsgi_version'
p1795
asbag49
(g70
g51
NtRp1796
(dp1797
g54
(dp1798
g81
g82
ssg63
g1787
sg56
(lp1799
S':'
asbag49
(g70
g51
NtRp1800
(dp1801
g54
(dp1802
sg63
g1787
sg56
(lp1803
g49
(g50
g51
NtRp1804
(dp1805
g54
(dp1806
g62
I4
ssg63
g1800
sg56
(lp1807
g49
(g58
g51
NtRp1808
(dp1809
g54
(dp1810
g62
I3
ssg63
Nsg56
(lp1811
g49
(g65
g51
NtRp1812
(dp1813
g54
(dp1814
sg63
g1808
sg56
(lp1815
g49
(g70
g51
NtRp1816
(dp1817
g54
(dp1818
sg63
g1812
sg56
(lp1819
g49
(g50
g51
NtRp1820
(dp1821
g54
(dp1822
g62
I3
ssg63
g1816
sg56
(lp1823
S'1'
asbasbasbag49
(g65
g51
NtRp1824
(dp1825
g54
(dp1826
sg63
g1808
sg56
(lp1827
g49
(g70
g51
NtRp1828
(dp1829
g54
(dp1830
sg63
g1824
sg56
(lp1831
g49
(g50
g51
NtRp1832
(dp1833
g54
(dp1834
g62
I3
ssg63
g1828
sg56
(lp1835
S'0'
asbasbasbasbasbasbasbasbasbasbasbag49
(g65
g51
NtRp1836
(dp1837
g54
(dp1838
sg63
g59
sg56
(lp1839
g49
(g70
g51
NtRp1840
(dp1841
g54
(dp1842
g74
g75
ssg63
g1836
sg56
(lp1843
S'extension'
p1844
asbag49
(g70
g51
NtRp1845
(dp1846
g54
(dp1847
g81
g82
ssg63
g1836
sg56
(lp1848
S':'
asbag49
(g70
g51
NtRp1849
(dp1850
g54
(dp1851
sg63
g1836
sg56
(lp1852
g49
(g50
g51
NtRp1853
(dp1854
g54
(dp1855
g62
I5
ssg63
g1849
sg56
(lp1856
S'html'
p1857
asbasbasbag49
(g65
g51
NtRp1858
(dp1859
g54
(dp1860
sg63
g59
sg56
(lp1861
g49
(g70
g51
NtRp1862
(dp1863
g54
(dp1864
g74
g75
ssg63
g1858
sg56
(lp1865
S'folder'
p1866
asbag49
(g70
g51
NtRp1867
(dp1868
g54
(dp1869
g81
g82
ssg63
g1858
sg56
(lp1870
S':'
asbag49
(g70
g51
NtRp1871
(dp1872
g54
(dp1873
sg63
g1858
sg56
(lp1874
g49
(g50
g51
NtRp1875
(dp1876
g54
(dp1877
g62
I5
ssg63
g1871
sg56
(lp1878
S'D:\\Dise\xf1o Web\\Proyectos\\Parleyweb\\web2py\\applications\\parleyweb\\'
p1879
asbasbasbag49
(g65
g51
NtRp1880
(dp1881
g54
(dp1882
sg63
g59
sg56
(lp1883
g49
(g70
g51
NtRp1884
(dp1885
g54
(dp1886
g74
g75
ssg63
g1880
sg56
(lp1887
S'function'
p1888
asbag49
(g70
g51
NtRp1889
(dp1890
g54
(dp1891
g81
g82
ssg63
g1880
sg56
(lp1892
S':'
asbag49
(g70
g51
NtRp1893
(dp1894
g54
(dp1895
sg63
g1880
sg56
(lp1896
g49
(g50
g51
NtRp1897
(dp1898
g54
(dp1899
g62
I5
ssg63
g1893
sg56
(lp1900
S'mostrar'
p1901
asbasbasbag49
(g65
g51
NtRp1902
(dp1903
g54
(dp1904
sg63
g59
sg56
(lp1905
g49
(g70
g51
NtRp1906
(dp1907
g54
(dp1908
g74
g75
ssg63
g1902
sg56
(lp1909
S'get_vars'
p1910
asbag49
(g70
g51
NtRp1911
(dp1912
g54
(dp1913
g81
g82
ssg63
g1902
sg56
(lp1914
S':'
asbag49
(g70
g51
NtRp1915
(dp1916
g54
(dp1917
sg63
g1902
sg56
(lp1918
g49
(g50
g51
NtRp1919
(dp1920
g54
(dp1921
g62
I5
ssg63
g1915
sg56
(lp1922
g49
(g58
g51
NtRp1923
(dp1924
g54
(dp1925
g62
I4
ssg63
Nsg56
(lp1926
sbasbasbasbag49
(g65
g51
NtRp1927
(dp1928
g54
(dp1929
sg63
g59
sg56
(lp1930
g49
(g70
g51
NtRp1931
(dp1932
g54
(dp1933
g74
g75
ssg63
g1927
sg56
(lp1934
S'global_settings'
p1935
asbag49
(g70
g51
NtRp1936
(dp1937
g54
(dp1938
g81
g82
ssg63
g1927
sg56
(lp1939
S':'
asbag49
(g70
g51
NtRp1940
(dp1941
g54
(dp1942
sg63
g1927
sg56
(lp1943
g49
(g50
g51
NtRp1944
(dp1945
g54
(dp1946
g62
I5
ssg63
g1940
sg56
(lp1947
g49
(g58
g51
NtRp1948
(dp1949
g54
(dp1950
g62
I4
ssg63
Nsg56
(lp1951
g49
(g65
g51
NtRp1952
(dp1953
g54
(dp1954
sg63
g1948
sg56
(lp1955
g49
(g70
g51
NtRp1956
(dp1957
g54
(dp1958
g74
g75
ssg63
g1952
sg56
(lp1959
g943
asbag49
(g70
g51
NtRp1960
(dp1961
g54
(dp1962
g81
g82
ssg63
g1952
sg56
(lp1963
S':'
asbag49
(g70
g51
NtRp1964
(dp1965
g54
(dp1966
sg63
g1952
sg56
(lp1967
g49
(g50
g51
NtRp1968
(dp1969
g54
(dp1970
g62
I4
ssg63
g1964
sg56
(lp1971
S"set(['D:\\\\Dise\\xf1o Web\\\\Proyectos\\\\Parleyweb\\\\web2py\\\\applications\\\\parleyweb\\\\', 'D:\\\\Dise\\xf1o Web\\\\Proyectos\\\\Parleyweb\\\\web2py\\\\applications\\\\welcome\\\\', 'D:\\\\Dise\\xf1o Web\\\\Proyectos\\\\Parleyweb\\\\web2py\\\\applications\\\\admin\\\\'])"
p1972
asbasbasbag49
(g65
g51
NtRp1973
(dp1974
g54
(dp1975
sg63
g1948
sg56
(lp1976
g49
(g70
g51
NtRp1977
(dp1978
g54
(dp1979
g74
g75
ssg63
g1973
sg56
(lp1980
g965
asbag49
(g70
g51
NtRp1981
(dp1982
g54
(dp1983
g81
g82
ssg63
g1973
sg56
(lp1984
S':'
asbag49
(g70
g51
NtRp1985
(dp1986
g54
(dp1987
sg63
g1973
sg56
(lp1988
g49
(g50
g51
NtRp1989
(dp1990
g54
(dp1991
g62
I4
ssg63
g1985
sg56
(lp1992
g978
asbasbasbag49
(g65
g51
NtRp1993
(dp1994
g54
(dp1995
sg63
g1948
sg56
(lp1996
g49
(g70
g51
NtRp1997
(dp1998
g54
(dp1999
g74
g75
ssg63
g1993
sg56
(lp2000
g987
asbag49
(g70
g51
NtRp2001
(dp2002
g54
(dp2003
g81
g82
ssg63
g1993
sg56
(lp2004
S':'
asbag49
(g70
g51
NtRp2005
(dp2006
g54
(dp2007
sg63
g1993
sg56
(lp2008
g49
(g50
g51
NtRp2009
(dp2010
g54
(dp2011
g62
I4
ssg63
g2005
sg56
(lp2012
g49
(g58
g51
NtRp2013
(dp2014
g54
(dp2015
g62
I3
ssg63
Nsg56
(lp2016
sbasbasbasbag49
(g65
g51
NtRp2017
(dp2018
g54
(dp2019
sg63
g1948
sg56
(lp2020
g49
(g70
g51
NtRp2021
(dp2022
g54
(dp2023
g74
g75
ssg63
g2017
sg56
(lp2024
g1012
asbag49
(g70
g51
NtRp2025
(dp2026
g54
(dp2027
g81
g82
ssg63
g2017
sg56
(lp2028
S':'
asbag49
(g70
g51
NtRp2029
(dp2030
g54
(dp2031
sg63
g2017
sg56
(lp2032
g49
(g50
g51
NtRp2033
(dp2034
g54
(dp2035
g62
I4
ssg63
g2029
sg56
(lp2036
S"<Values at 0x30bff30: {'verbose': False, 'ip': '127.0.0.1', 'shutdown_timeout': 5, 'taskbar': False, 'nocron': False, 'pid_filename': 'httpserver.pid', 'maxthreads': None, 'softcron': False, 'server_name': 'craxsnet-PC', 'bpython': False, 'nogui': False, 'port': 8000, 'extcron': False, 'debuglevel': 30, 'test': None, 'folder': 'D:\\\\Dise\\xf1o Web\\\\Proyectos\\\\Parleyweb\\\\web2py', 'config': '', 'import_models': False, 'winservice': '', 'shell': None, 'run': '', 'log_filename': 'httpserver.log', 'args': [''], 'socket_timeout': 5, 'ssl_ca_certificate': None, 'scheduler': None, 'profiler_filename': None, 'ssl_private_key': '', 'password': '<ask>', 'request_queue_size': 5, 'ssl_certificate': '', 'cronjob': False, 'numthreads': None, 'quiet': False, 'interfaces': None, 'minthreads': None, 'timeout': 10, 'plain': False, 'nobanner': False}>"
p2037
asbasbasbag49
(g65
g51
NtRp2038
(dp2039
g54
(dp2040
sg63
g1948
sg56
(lp2041
g49
(g70
g51
NtRp2042
(dp2043
g54
(dp2044
g74
g75
ssg63
g2038
sg56
(lp2045
g1034
asbag49
(g70
g51
NtRp2046
(dp2047
g54
(dp2048
g81
g82
ssg63
g2038
sg56
(lp2049
S':'
asbag49
(g70
g51
NtRp2050
(dp2051
g54
(dp2052
sg63
g2038
sg56
(lp2053
g49
(g50
g51
NtRp2054
(dp2055
g54
(dp2056
g62
I4
ssg63
g2050
sg56
(lp2057
S'set([])'
p2058
asbasbasbag49
(g65
g51
NtRp2059
(dp2060
g54
(dp2061
sg63
g1948
sg56
(lp2062
g49
(g70
g51
NtRp2063
(dp2064
g54
(dp2065
g74
g75
ssg63
g2059
sg56
(lp2066
g1056
asbag49
(g70
g51
NtRp2067
(dp2068
g54
(dp2069
g81
g82
ssg63
g2059
sg56
(lp2070
S':'
asbag49
(g70
g51
NtRp2071
(dp2072
g54
(dp2073
sg63
g2059
sg56
(lp2074
g49
(g50
g51
NtRp2075
(dp2076
g54
(dp2077
g62
I4
ssg63
g2071
sg56
(lp2078
g92
asbasbasbag49
(g65
g51
NtRp2079
(dp2080
g54
(dp2081
sg63
g1948
sg56
(lp2082
g49
(g70
g51
NtRp2083
(dp2084
g54
(dp2085
g74
g75
ssg63
g2079
sg56
(lp2086
g1077
asbag49
(g70
g51
NtRp2087
(dp2088
g54
(dp2089
g81
g82
ssg63
g2079
sg56
(lp2090
S':'
asbag49
(g70
g51
NtRp2091
(dp2092
g54
(dp2093
sg63
g2079
sg56
(lp2094
g49
(g50
g51
NtRp2095
(dp2096
g54
(dp2097
g62
I4
ssg63
g2091
sg56
(lp2098
g1090
asbasbasbag49
(g65
g51
NtRp2099
(dp2100
g54
(dp2101
sg63
g1948
sg56
(lp2102
g49
(g70
g51
NtRp2103
(dp2104
g54
(dp2105
g74
g75
ssg63
g2099
sg56
(lp2106
g1253
asbag49
(g70
g51
NtRp2107
(dp2108
g54
(dp2109
g81
g82
ssg63
g2099
sg56
(lp2110
S':'
asbag49
(g70
g51
NtRp2111
(dp2112
g54
(dp2113
sg63
g2099
sg56
(lp2114
g49
(g50
g51
NtRp2115
(dp2116
g54
(dp2117
g62
I4
ssg63
g2111
sg56
(lp2118
g92
asbasbasbag49
(g65
g51
NtRp2119
(dp2120
g54
(dp2121
sg63
g1948
sg56
(lp2122
g49
(g70
g51
NtRp2123
(dp2124
g54
(dp2125
g74
g75
ssg63
g2119
sg56
(lp2126
g1274
asbag49
(g70
g51
NtRp2127
(dp2128
g54
(dp2129
g81
g82
ssg63
g2119
sg56
(lp2130
S':'
asbag49
(g70
g51
NtRp2131
(dp2132
g54
(dp2133
sg63
g2119
sg56
(lp2134
g49
(g50
g51
NtRp2135
(dp2136
g54
(dp2137
g62
I4
ssg63
g2131
sg56
(lp2138
g92
asbasbasbag49
(g65
g51
NtRp2139
(dp2140
g54
(dp2141
sg63
g1948
sg56
(lp2142
g49
(g70
g51
NtRp2143
(dp2144
g54
(dp2145
g74
g75
ssg63
g2139
sg56
(lp2146
g1512
asbag49
(g70
g51
NtRp2147
(dp2148
g54
(dp2149
g81
g82
ssg63
g2139
sg56
(lp2150
S':'
asbag49
(g70
g51
NtRp2151
(dp2152
g54
(dp2153
sg63
g2139
sg56
(lp2154
g49
(g50
g51
NtRp2155
(dp2156
g54
(dp2157
g62
I4
ssg63
g2151
sg56
(lp2158
g1525
asbasbasbag49
(g65
g51
NtRp2159
(dp2160
g54
(dp2161
sg63
g1948
sg56
(lp2162
g49
(g70
g51
NtRp2163
(dp2164
g54
(dp2165
g74
g75
ssg63
g2159
sg56
(lp2166
g1555
asbag49
(g70
g51
NtRp2167
(dp2168
g54
(dp2169
g81
g82
ssg63
g2159
sg56
(lp2170
S':'
asbag49
(g70
g51
NtRp2171
(dp2172
g54
(dp2173
sg63
g2159
sg56
(lp2174
g49
(g50
g51
NtRp2175
(dp2176
g54
(dp2177
g62
I4
ssg63
g2171
sg56
(lp2178
g49
(g58
g51
NtRp2179
(dp2180
g54
(dp2181
g62
I3
ssg63
Nsg56
(lp2182
g49
(g65
g51
NtRp2183
(dp2184
g54
(dp2185
sg63
g2179
sg56
(lp2186
g49
(g70
g51
NtRp2187
(dp2188
g54
(dp2189
sg63
g2183
sg56
(lp2190
g49
(g50
g51
NtRp2191
(dp2192
g54
(dp2193
g62
I3
ssg63
g2187
sg56
(lp2194
S'1'
asbasbasbag49
(g65
g51
NtRp2195
(dp2196
g54
(dp2197
sg63
g2179
sg56
(lp2198
g49
(g70
g51
NtRp2199
(dp2200
g54
(dp2201
sg63
g2195
sg56
(lp2202
g49
(g50
g51
NtRp2203
(dp2204
g54
(dp2205
g62
I3
ssg63
g2199
sg56
(lp2206
S'99'
p2207
asbasbasbag49
(g65
g51
NtRp2208
(dp2209
g54
(dp2210
sg63
g2179
sg56
(lp2211
g49
(g70
g51
NtRp2212
(dp2213
g54
(dp2214
sg63
g2208
sg56
(lp2215
g49
(g50
g51
NtRp2216
(dp2217
g54
(dp2218
g62
I3
ssg63
g2212
sg56
(lp2219
S'7'
asbasbasbag49
(g65
g51
NtRp2220
(dp2221
g54
(dp2222
sg63
g2179
sg56
(lp2223
g49
(g70
g51
NtRp2224
(dp2225
g54
(dp2226
sg63
g2220
sg56
(lp2227
g49
(g50
g51
NtRp2228
(dp2229
g54
(dp2230
g62
I3
ssg63
g2224
sg56
(lp2231
S'datetime.datetime(2012, 3, 4, 22, 12, 8)'
p2232
asbasbasbag49
(g65
g51
NtRp2233
(dp2234
g54
(dp2235
sg63
g2179
sg56
(lp2236
g49
(g70
g51
NtRp2237
(dp2238
g54
(dp2239
sg63
g2233
sg56
(lp2240
g49
(g50
g51
NtRp2241
(dp2242
g54
(dp2243
g62
I3
ssg63
g2237
sg56
(lp2244
g1634
asbasbasbasbasbasbasbasbasbasbasbag49
(g65
g51
NtRp2245
(dp2246
g54
(dp2247
sg63
g59
sg56
(lp2248
g49
(g70
g51
NtRp2249
(dp2250
g54
(dp2251
g74
g75
ssg63
g2245
sg56
(lp2252
S'is_https'
p2253
asbag49
(g70
g51
NtRp2254
(dp2255
g54
(dp2256
g81
g82
ssg63
g2245
sg56
(lp2257
S':'
asbag49
(g70
g51
NtRp2258
(dp2259
g54
(dp2260
sg63
g2245
sg56
(lp2261
g49
(g50
g51
NtRp2262
(dp2263
g54
(dp2264
g62
I5
ssg63
g2258
sg56
(lp2265
g92
asbasbasbag49
(g65
g51
NtRp2266
(dp2267
g54
(dp2268
sg63
g59
sg56
(lp2269
g49
(g70
g51
NtRp2270
(dp2271
g54
(dp2272
g74
g75
ssg63
g2266
sg56
(lp2273
S'is_local'
p2274
asbag49
(g70
g51
NtRp2275
(dp2276
g54
(dp2277
g81
g82
ssg63
g2266
sg56
(lp2278
S':'
asbag49
(g70
g51
NtRp2279
(dp2280
g54
(dp2281
sg63
g2266
sg56
(lp2282
g49
(g50
g51
NtRp2283
(dp2284
g54
(dp2285
g62
I5
ssg63
g2279
sg56
(lp2286
g1743
asbasbasbag49
(g65
g51
NtRp2287
(dp2288
g54
(dp2289
sg63
g59
sg56
(lp2290
g49
(g70
g51
NtRp2291
(dp2292
g54
(dp2293
g74
g75
ssg63
g2287
sg56
(lp2294
S'is_restful'
p2295
asbag49
(g70
g51
NtRp2296
(dp2297
g54
(dp2298
g81
g82
ssg63
g2287
sg56
(lp2299
S':'
asbag49
(g70
g51
NtRp2300
(dp2301
g54
(dp2302
sg63
g2287
sg56
(lp2303
g49
(g50
g51
NtRp2304
(dp2305
g54
(dp2306
g62
I5
ssg63
g2300
sg56
(lp2307
g92
asbasbasbag49
(g65
g51
NtRp2308
(dp2309
g54
(dp2310
sg63
g59
sg56
(lp2311
g49
(g70
g51
NtRp2312
(dp2313
g54
(dp2314
g74
g75
ssg63
g2308
sg56
(lp2315
S'now'
p2316
asbag49
(g70
g51
NtRp2317
(dp2318
g54
(dp2319
g81
g82
ssg63
g2308
sg56
(lp2320
S':'
asbag49
(g70
g51
NtRp2321
(dp2322
g54
(dp2323
sg63
g2308
sg56
(lp2324
g49
(g50
g51
NtRp2325
(dp2326
g54
(dp2327
g62
I5
ssg63
g2321
sg56
(lp2328
S'datetime.datetime(2012, 3, 10, 15, 29, 55, 34000)'
p2329
asbasbasbag49
(g65
g51
NtRp2330
(dp2331
g54
(dp2332
sg63
g59
sg56
(lp2333
g49
(g70
g51
NtRp2334
(dp2335
g54
(dp2336
g74
g75
ssg63
g2330
sg56
(lp2337
S'post_vars'
p2338
asbag49
(g70
g51
NtRp2339
(dp2340
g54
(dp2341
g81
g82
ssg63
g2330
sg56
(lp2342
S':'
asbag49
(g70
g51
NtRp2343
(dp2344
g54
(dp2345
sg63
g2330
sg56
(lp2346
g49
(g50
g51
NtRp2347
(dp2348
g54
(dp2349
g62
I5
ssg63
g2343
sg56
(lp2350
g49
(g58
g51
NtRp2351
(dp2352
g54
(dp2353
g62
I4
ssg63
Nsg56
(lp2354
sbasbasbasbag49
(g65
g51
NtRp2355
(dp2356
g54
(dp2357
sg63
g59
sg56
(lp2358
g49
(g70
g51
NtRp2359
(dp2360
g54
(dp2361
g74
g75
ssg63
g2355
sg56
(lp2362
S'raw_args'
p2363
asbag49
(g70
g51
NtRp2364
(dp2365
g54
(dp2366
g81
g82
ssg63
g2355
sg56
(lp2367
S':'
asbag49
(g70
g51
NtRp2368
(dp2369
g54
(dp2370
sg63
g2355
sg56
(lp2371
g49
(g50
g51
NtRp2372
(dp2373
g54
(dp2374
g62
I5
ssg63
g2368
sg56
(lp2375
S'82'
p2376
asbasbasbag49
(g65
g51
NtRp2377
(dp2378
g54
(dp2379
sg63
g59
sg56
(lp2380
g49
(g70
g51
NtRp2381
(dp2382
g54
(dp2383
g74
g75
ssg63
g2377
sg56
(lp2384
S'url'
p2385
asbag49
(g70
g51
NtRp2386
(dp2387
g54
(dp2388
g81
g82
ssg63
g2377
sg56
(lp2389
S':'
asbag49
(g70
g51
NtRp2390
(dp2391
g54
(dp2392
sg63
g2377
sg56
(lp2393
g49
(g50
g51
NtRp2394
(dp2395
g54
(dp2396
g62
I5
ssg63
g2390
sg56
(lp2397
S'/parleyweb/default/mostrar/82'
p2398
asbasbasbag49
(g65
g51
NtRp2399
(dp2400
g54
(dp2401
sg63
g59
sg56
(lp2402
g49
(g70
g51
NtRp2403
(dp2404
g54
(dp2405
g74
g75
ssg63
g2399
sg56
(lp2406
S'utcnow'
p2407
asbag49
(g70
g51
NtRp2408
(dp2409
g54
(dp2410
g81
g82
ssg63
g2399
sg56
(lp2411
S':'
asbag49
(g70
g51
NtRp2412
(dp2413
g54
(dp2414
sg63
g2399
sg56
(lp2415
g49
(g50
g51
NtRp2416
(dp2417
g54
(dp2418
g62
I5
ssg63
g2412
sg56
(lp2419
S'datetime.datetime(2012, 3, 10, 14, 29, 55, 34000)'
p2420
asbasbasbag49
(g65
g51
NtRp2421
(dp2422
g54
(dp2423
sg63
g59
sg56
(lp2424
g49
(g70
g51
NtRp2425
(dp2426
g54
(dp2427
g74
g75
ssg63
g2421
sg56
(lp2428
S'uuid'
p2429
asbag49
(g70
g51
NtRp2430
(dp2431
g54
(dp2432
g81
g82
ssg63
g2421
sg56
(lp2433
S':'
asbag49
(g70
g51
NtRp2434
(dp2435
g54
(dp2436
sg63
g2421
sg56
(lp2437
g49
(g50
g51
NtRp2438
(dp2439
g54
(dp2440
g62
I5
ssg63
g2434
sg56
(lp2441
S'parleyweb/127.0.0.1.2012-03-10.15-29-55.5ef9c5dc-19e5-4be0-b8f6-332072e9c7b7'
p2442
asbasbasbag49
(g65
g51
NtRp2443
(dp2444
g54
(dp2445
sg63
g59
sg56
(lp2446
g49
(g70
g51
NtRp2447
(dp2448
g54
(dp2449
g74
g75
ssg63
g2443
sg56
(lp2450
S'vars'
p2451
asbag49
(g70
g51
NtRp2452
(dp2453
g54
(dp2454
g81
g82
ssg63
g2443
sg56
(lp2455
S':'
asbag49
(g70
g51
NtRp2456
(dp2457
g54
(dp2458
sg63
g2443
sg56
(lp2459
g49
(g50
g51
NtRp2460
(dp2461
g54
(dp2462
g62
I5
ssg63
g2456
sg56
(lp2463
g49
(g58
g51
NtRp2464
(dp2465
g54
(dp2466
g62
I4
ssg63
Nsg56
(lp2467
sbasbasbasbag49
(g65
g51
NtRp2468
(dp2469
g54
(dp2470
sg63
g59
sg56
(lp2471
g49
(g70
g51
NtRp2472
(dp2473
g54
(dp2474
g74
g75
ssg63
g2468
sg56
(lp2475
S'wsgi'
p2476
asbag49
(g70
g51
NtRp2477
(dp2478
g54
(dp2479
g81
g82
ssg63
g2468
sg56
(lp2480
S':'
asbag49
(g70
g51
NtRp2481
(dp2482
g54
(dp2483
sg63
g2468
sg56
(lp2484
g49
(g50
g51
NtRp2485
(dp2486
g54
(dp2487
g62
I5
ssg63
g2481
sg56
(lp2488
g49
(g58
g51
NtRp2489
(dp2490
g54
(dp2491
g62
I4
ssg63
Nsg56
(lp2492
g49
(g65
g51
NtRp2493
(dp2494
g54
(dp2495
sg63
g2489
sg56
(lp2496
g49
(g70
g51
NtRp2497
(dp2498
g54
(dp2499
g74
g75
ssg63
g2493
sg56
(lp2500
S'environ'
p2501
asbag49
(g70
g51
NtRp2502
(dp2503
g54
(dp2504
g81
g82
ssg63
g2493
sg56
(lp2505
S':'
asbag49
(g70
g51
NtRp2506
(dp2507
g54
(dp2508
sg63
g2493
sg56
(lp2509
g49
(g50
g51
NtRp2510
(dp2511
g54
(dp2512
g62
I4
ssg63
g2506
sg56
(lp2513
g49
(g58
g51
NtRp2514
(dp2515
g54
(dp2516
g62
I3
ssg63
Nsg56
(lp2517
g49
(g65
g51
NtRp2518
(dp2519
g54
(dp2520
sg63
g2514
sg56
(lp2521
g49
(g70
g51
NtRp2522
(dp2523
g54
(dp2524
g74
g75
ssg63
g2518
sg56
(lp2525
S'HTTP_ACCEPT'
p2526
asbag49
(g70
g51
NtRp2527
(dp2528
g54
(dp2529
g81
g82
ssg63
g2518
sg56
(lp2530
S':'
asbag49
(g70
g51
NtRp2531
(dp2532
g54
(dp2533
sg63
g2518
sg56
(lp2534
g49
(g50
g51
NtRp2535
(dp2536
g54
(dp2537
g62
I3
ssg63
g2531
sg56
(lp2538
g1112
asbasbasbag49
(g65
g51
NtRp2539
(dp2540
g54
(dp2541
sg63
g2514
sg56
(lp2542
g49
(g70
g51
NtRp2543
(dp2544
g54
(dp2545
g74
g75
ssg63
g2539
sg56
(lp2546
S'HTTP_ACCEPT_ENCODING'
p2547
asbag49
(g70
g51
NtRp2548
(dp2549
g54
(dp2550
g81
g82
ssg63
g2539
sg56
(lp2551
S':'
asbag49
(g70
g51
NtRp2552
(dp2553
g54
(dp2554
sg63
g2539
sg56
(lp2555
g49
(g50
g51
NtRp2556
(dp2557
g54
(dp2558
g62
I3
ssg63
g2552
sg56
(lp2559
g1134
asbasbasbag49
(g65
g51
NtRp2560
(dp2561
g54
(dp2562
sg63
g2514
sg56
(lp2563
g49
(g70
g51
NtRp2564
(dp2565
g54
(dp2566
g74
g75
ssg63
g2560
sg56
(lp2567
S'HTTP_ACCEPT_LANGUAGE'
p2568
asbag49
(g70
g51
NtRp2569
(dp2570
g54
(dp2571
g81
g82
ssg63
g2560
sg56
(lp2572
S':'
asbag49
(g70
g51
NtRp2573
(dp2574
g54
(dp2575
sg63
g2560
sg56
(lp2576
g49
(g50
g51
NtRp2577
(dp2578
g54
(dp2579
g62
I3
ssg63
g2573
sg56
(lp2580
g1156
asbasbasbag49
(g65
g51
NtRp2581
(dp2582
g54
(dp2583
sg63
g2514
sg56
(lp2584
g49
(g70
g51
NtRp2585
(dp2586
g54
(dp2587
g74
g75
ssg63
g2581
sg56
(lp2588
S'HTTP_CONNECTION'
p2589
asbag49
(g70
g51
NtRp2590
(dp2591
g54
(dp2592
g81
g82
ssg63
g2581
sg56
(lp2593
S':'
asbag49
(g70
g51
NtRp2594
(dp2595
g54
(dp2596
sg63
g2581
sg56
(lp2597
g49
(g50
g51
NtRp2598
(dp2599
g54
(dp2600
g62
I3
ssg63
g2594
sg56
(lp2601
g1178
asbasbasbag49
(g65
g51
NtRp2602
(dp2603
g54
(dp2604
sg63
g2514
sg56
(lp2605
g49
(g70
g51
NtRp2606
(dp2607
g54
(dp2608
g74
g75
ssg63
g2602
sg56
(lp2609
S'HTTP_COOKIE'
p2610
asbag49
(g70
g51
NtRp2611
(dp2612
g54
(dp2613
g81
g82
ssg63
g2602
sg56
(lp2614
S':'
asbag49
(g70
g51
NtRp2615
(dp2616
g54
(dp2617
sg63
g2602
sg56
(lp2618
g49
(g50
g51
NtRp2619
(dp2620
g54
(dp2621
g62
I3
ssg63
g2615
sg56
(lp2622
g1200
asbasbasbag49
(g65
g51
NtRp2623
(dp2624
g54
(dp2625
sg63
g2514
sg56
(lp2626
g49
(g70
g51
NtRp2627
(dp2628
g54
(dp2629
g74
g75
ssg63
g2623
sg56
(lp2630
S'HTTP_HOST'
p2631
asbag49
(g70
g51
NtRp2632
(dp2633
g54
(dp2634
g81
g82
ssg63
g2623
sg56
(lp2635
S':'
asbag49
(g70
g51
NtRp2636
(dp2637
g54
(dp2638
sg63
g2623
sg56
(lp2639
g49
(g50
g51
NtRp2640
(dp2641
g54
(dp2642
g62
I3
ssg63
g2636
sg56
(lp2643
g1222
asbasbasbag49
(g65
g51
NtRp2644
(dp2645
g54
(dp2646
sg63
g2514
sg56
(lp2647
g49
(g70
g51
NtRp2648
(dp2649
g54
(dp2650
g74
g75
ssg63
g2644
sg56
(lp2651
S'HTTP_USER_AGENT'
p2652
asbag49
(g70
g51
NtRp2653
(dp2654
g54
(dp2655
g81
g82
ssg63
g2644
sg56
(lp2656
S':'
asbag49
(g70
g51
NtRp2657
(dp2658
g54
(dp2659
sg63
g2644
sg56
(lp2660
g49
(g50
g51
NtRp2661
(dp2662
g54
(dp2663
g62
I3
ssg63
g2657
sg56
(lp2664
g1244
asbasbasbag49
(g65
g51
NtRp2665
(dp2666
g54
(dp2667
sg63
g2514
sg56
(lp2668
g49
(g70
g51
NtRp2669
(dp2670
g54
(dp2671
g74
g75
ssg63
g2665
sg56
(lp2672
S'PATH_INFO'
p2673
asbag49
(g70
g51
NtRp2674
(dp2675
g54
(dp2676
g81
g82
ssg63
g2665
sg56
(lp2677
S':'
asbag49
(g70
g51
NtRp2678
(dp2679
g54
(dp2680
sg63
g2665
sg56
(lp2681
g49
(g50
g51
NtRp2682
(dp2683
g54
(dp2684
g62
I3
ssg63
g2678
sg56
(lp2685
g1308
asbasbasbag49
(g65
g51
NtRp2686
(dp2687
g54
(dp2688
sg63
g2514
sg56
(lp2689
g49
(g70
g51
NtRp2690
(dp2691
g54
(dp2692
g74
g75
ssg63
g2686
sg56
(lp2693
S'QUERY_STRING'
p2694
asbag49
(g70
g51
NtRp2695
(dp2696
g54
(dp2697
g81
g82
ssg63
g2686
sg56
(lp2698
S':'
asbag49
(g70
g51
NtRp2699
(dp2700
g54
(dp2701
sg63
g2686
sg56
(lp2702
g49
(g50
g51
NtRp2703
(dp2704
g54
(dp2705
g62
I3
ssg63
g2699
sg56
(lp2706
S''
asbasbasbag49
(g65
g51
NtRp2707
(dp2708
g54
(dp2709
sg63
g2514
sg56
(lp2710
g49
(g70
g51
NtRp2711
(dp2712
g54
(dp2713
g74
g75
ssg63
g2707
sg56
(lp2714
S'REMOTE_ADDR'
p2715
asbag49
(g70
g51
NtRp2716
(dp2717
g54
(dp2718
g81
g82
ssg63
g2707
sg56
(lp2719
S':'
asbag49
(g70
g51
NtRp2720
(dp2721
g54
(dp2722
sg63
g2707
sg56
(lp2723
g49
(g50
g51
NtRp2724
(dp2725
g54
(dp2726
g62
I3
ssg63
g2720
sg56
(lp2727
g195
asbasbasbag49
(g65
g51
NtRp2728
(dp2729
g54
(dp2730
sg63
g2514
sg56
(lp2731
g49
(g70
g51
NtRp2732
(dp2733
g54
(dp2734
g74
g75
ssg63
g2728
sg56
(lp2735
S'REMOTE_PORT'
p2736
asbag49
(g70
g51
NtRp2737
(dp2738
g54
(dp2739
g81
g82
ssg63
g2728
sg56
(lp2740
S':'
asbag49
(g70
g51
NtRp2741
(dp2742
g54
(dp2743
sg63
g2728
sg56
(lp2744
g49
(g50
g51
NtRp2745
(dp2746
g54
(dp2747
g62
I3
ssg63
g2741
sg56
(lp2748
g1372
asbasbasbag49
(g65
g51
NtRp2749
(dp2750
g54
(dp2751
sg63
g2514
sg56
(lp2752
g49
(g70
g51
NtRp2753
(dp2754
g54
(dp2755
g74
g75
ssg63
g2749
sg56
(lp2756
S'REQUEST_METHOD'
p2757
asbag49
(g70
g51
NtRp2758
(dp2759
g54
(dp2760
g81
g82
ssg63
g2749
sg56
(lp2761
S':'
asbag49
(g70
g51
NtRp2762
(dp2763
g54
(dp2764
sg63
g2749
sg56
(lp2765
g49
(g50
g51
NtRp2766
(dp2767
g54
(dp2768
g62
I3
ssg63
g2762
sg56
(lp2769
g1394
asbasbasbag49
(g65
g51
NtRp2770
(dp2771
g54
(dp2772
sg63
g2514
sg56
(lp2773
g49
(g70
g51
NtRp2774
(dp2775
g54
(dp2776
g74
g75
ssg63
g2770
sg56
(lp2777
S'SCRIPT_NAME'
p2778
asbag49
(g70
g51
NtRp2779
(dp2780
g54
(dp2781
g81
g82
ssg63
g2770
sg56
(lp2782
S':'
asbag49
(g70
g51
NtRp2783
(dp2784
g54
(dp2785
sg63
g2770
sg56
(lp2786
g49
(g50
g51
NtRp2787
(dp2788
g54
(dp2789
g62
I3
ssg63
g2783
sg56
(lp2790
S''
asbasbasbag49
(g65
g51
NtRp2791
(dp2792
g54
(dp2793
sg63
g2514
sg56
(lp2794
g49
(g70
g51
NtRp2795
(dp2796
g54
(dp2797
g74
g75
ssg63
g2791
sg56
(lp2798
S'SERVER_NAME'
p2799
asbag49
(g70
g51
NtRp2800
(dp2801
g54
(dp2802
g81
g82
ssg63
g2791
sg56
(lp2803
S':'
asbag49
(g70
g51
NtRp2804
(dp2805
g54
(dp2806
sg63
g2791
sg56
(lp2807
g49
(g50
g51
NtRp2808
(dp2809
g54
(dp2810
g62
I3
ssg63
g2804
sg56
(lp2811
g1437
asbasbasbag49
(g65
g51
NtRp2812
(dp2813
g54
(dp2814
sg63
g2514
sg56
(lp2815
g49
(g70
g51
NtRp2816
(dp2817
g54
(dp2818
g74
g75
ssg63
g2812
sg56
(lp2819
S'SERVER_PORT'
p2820
asbag49
(g70
g51
NtRp2821
(dp2822
g54
(dp2823
g81
g82
ssg63
g2812
sg56
(lp2824
S':'
asbag49
(g70
g51
NtRp2825
(dp2826
g54
(dp2827
sg63
g2812
sg56
(lp2828
g49
(g50
g51
NtRp2829
(dp2830
g54
(dp2831
g62
I3
ssg63
g2825
sg56
(lp2832
g1459
asbasbasbag49
(g65
g51
NtRp2833
(dp2834
g54
(dp2835
sg63
g2514
sg56
(lp2836
g49
(g70
g51
NtRp2837
(dp2838
g54
(dp2839
g74
g75
ssg63
g2833
sg56
(lp2840
S'SERVER_PROTOCOL'
p2841
asbag49
(g70
g51
NtRp2842
(dp2843
g54
(dp2844
g81
g82
ssg63
g2833
sg56
(lp2845
S':'
asbag49
(g70
g51
NtRp2846
(dp2847
g54
(dp2848
sg63
g2833
sg56
(lp2849
g49
(g50
g51
NtRp2850
(dp2851
g54
(dp2852
g62
I3
ssg63
g2846
sg56
(lp2853
g1481
asbasbasbag49
(g65
g51
NtRp2854
(dp2855
g54
(dp2856
sg63
g2514
sg56
(lp2857
g49
(g70
g51
NtRp2858
(dp2859
g54
(dp2860
g74
g75
ssg63
g2854
sg56
(lp2861
S'SERVER_SOFTWARE'
p2862
asbag49
(g70
g51
NtRp2863
(dp2864
g54
(dp2865
g81
g82
ssg63
g2854
sg56
(lp2866
S':'
asbag49
(g70
g51
NtRp2867
(dp2868
g54
(dp2869
sg63
g2854
sg56
(lp2870
g49
(g50
g51
NtRp2871
(dp2872
g54
(dp2873
g62
I3
ssg63
g2867
sg56
(lp2874
g1503
asbasbasbag49
(g65
g51
NtRp2875
(dp2876
g54
(dp2877
sg63
g2514
sg56
(lp2878
g49
(g70
g51
NtRp2879
(dp2880
g54
(dp2881
g74
g75
ssg63
g2875
sg56
(lp2882
S'wsgi.errors'
p2883
asbag49
(g70
g51
NtRp2884
(dp2885
g54
(dp2886
g81
g82
ssg63
g2875
sg56
(lp2887
S':'
asbag49
(g70
g51
NtRp2888
(dp2889
g54
(dp2890
sg63
g2875
sg56
(lp2891
g49
(g50
g51
NtRp2892
(dp2893
g54
(dp2894
g62
I3
ssg63
g2888
sg56
(lp2895
S"<open file '<stderr>', mode 'w' at 0x01F400B0>"
p2896
asbasbasbag49
(g65
g51
NtRp2897
(dp2898
g54
(dp2899
sg63
g2514
sg56
(lp2900
g49
(g70
g51
NtRp2901
(dp2902
g54
(dp2903
g74
g75
ssg63
g2897
sg56
(lp2904
S'wsgi.file_wrapper'
p2905
asbag49
(g70
g51
NtRp2906
(dp2907
g54
(dp2908
g81
g82
ssg63
g2897
sg56
(lp2909
S':'
asbag49
(g70
g51
NtRp2910
(dp2911
g54
(dp2912
sg63
g2897
sg56
(lp2913
g49
(g50
g51
NtRp2914
(dp2915
g54
(dp2916
g62
I3
ssg63
g2910
sg56
(lp2917
S'<class wsgiref.util.FileWrapper at 0x02EB5390>'
p2918
asbasbasbag49
(g65
g51
NtRp2919
(dp2920
g54
(dp2921
sg63
g2514
sg56
(lp2922
g49
(g70
g51
NtRp2923
(dp2924
g54
(dp2925
g74
g75
ssg63
g2919
sg56
(lp2926
S'wsgi.input'
p2927
asbag49
(g70
g51
NtRp2928
(dp2929
g54
(dp2930
g81
g82
ssg63
g2919
sg56
(lp2931
S':'
asbag49
(g70
g51
NtRp2932
(dp2933
g54
(dp2934
sg63
g2919
sg56
(lp2935
g49
(g50
g51
NtRp2936
(dp2937
g54
(dp2938
g62
I3
ssg63
g2932
sg56
(lp2939
S'<cStringIO.StringO object at 0x06D012A0>'
p2940
asbasbasbag49
(g65
g51
NtRp2941
(dp2942
g54
(dp2943
sg63
g2514
sg56
(lp2944
g49
(g70
g51
NtRp2945
(dp2946
g54
(dp2947
g74
g75
ssg63
g2941
sg56
(lp2948
S'wsgi.multiprocess'
p2949
asbag49
(g70
g51
NtRp2950
(dp2951
g54
(dp2952
g81
g82
ssg63
g2941
sg56
(lp2953
S':'
asbag49
(g70
g51
NtRp2954
(dp2955
g54
(dp2956
sg63
g2941
sg56
(lp2957
g49
(g50
g51
NtRp2958
(dp2959
g54
(dp2960
g62
I3
ssg63
g2954
sg56
(lp2961
g92
asbasbasbag49
(g65
g51
NtRp2962
(dp2963
g54
(dp2964
sg63
g2514
sg56
(lp2965
g49
(g70
g51
NtRp2966
(dp2967
g54
(dp2968
g74
g75
ssg63
g2962
sg56
(lp2969
S'wsgi.multithread'
p2970
asbag49
(g70
g51
NtRp2971
(dp2972
g54
(dp2973
g81
g82
ssg63
g2962
sg56
(lp2974
S':'
asbag49
(g70
g51
NtRp2975
(dp2976
g54
(dp2977
sg63
g2962
sg56
(lp2978
g49
(g50
g51
NtRp2979
(dp2980
g54
(dp2981
g62
I3
ssg63
g2975
sg56
(lp2982
g1743
asbasbasbag49
(g65
g51
NtRp2983
(dp2984
g54
(dp2985
sg63
g2514
sg56
(lp2986
g49
(g70
g51
NtRp2987
(dp2988
g54
(dp2989
g74
g75
ssg63
g2983
sg56
(lp2990
S'wsgi.run_once'
p2991
asbag49
(g70
g51
NtRp2992
(dp2993
g54
(dp2994
g81
g82
ssg63
g2983
sg56
(lp2995
S':'
asbag49
(g70
g51
NtRp2996
(dp2997
g54
(dp2998
sg63
g2983
sg56
(lp2999
g49
(g50
g51
NtRp3000
(dp3001
g54
(dp3002
g62
I3
ssg63
g2996
sg56
(lp3003
g92
asbasbasbag49
(g65
g51
NtRp3004
(dp3005
g54
(dp3006
sg63
g2514
sg56
(lp3007
g49
(g70
g51
NtRp3008
(dp3009
g54
(dp3010
g74
g75
ssg63
g3004
sg56
(lp3011
S'wsgi.url_scheme'
p3012
asbag49
(g70
g51
NtRp3013
(dp3014
g54
(dp3015
g81
g82
ssg63
g3004
sg56
(lp3016
S':'
asbag49
(g70
g51
NtRp3017
(dp3018
g54
(dp3019
sg63
g3004
sg56
(lp3020
g49
(g50
g51
NtRp3021
(dp3022
g54
(dp3023
g62
I3
ssg63
g3017
sg56
(lp3024
g1786
asbasbasbag49
(g65
g51
NtRp3025
(dp3026
g54
(dp3027
sg63
g2514
sg56
(lp3028
g49
(g70
g51
NtRp3029
(dp3030
g54
(dp3031
g74
g75
ssg63
g3025
sg56
(lp3032
S'wsgi.version'
p3033
asbag49
(g70
g51
NtRp3034
(dp3035
g54
(dp3036
g81
g82
ssg63
g3025
sg56
(lp3037
S':'
asbag49
(g70
g51
NtRp3038
(dp3039
g54
(dp3040
sg63
g3025
sg56
(lp3041
g49
(g50
g51
NtRp3042
(dp3043
g54
(dp3044
g62
I3
ssg63
g3038
sg56
(lp3045
S'1'
asbasbasbasbasbasbasbasbasbasbasbasbasbsS'frames'
p3046
(lp3047
(dp3048
S'file'
p3049
S'D:\\Dise\xf1o Web\\Proyectos\\Parleyweb\\web2py\\gluon\\restricted.py'
p3050
sS'dump'
p3051
(dp3052
sS'lnum'
p3053
I205
sS'lines'
p3054
(dp3055
sS'call'
p3056
S'(code="# -*- coding: utf-8 -*-\\n\\n#######################... o Das\'))\\n#        \\n#\\n#\\n#\\n#\\n#\\n#\\n#\\n#\\n#\\n#\\n#\\n#\\n#\\n#\\n\\n", environment={\'A\': <class \'gluon.html.A\'>, \'Auth\': <class \'gluon.tools.Auth\'>, \'B\': <class \'gluon.html.B\'>, \'BEAUTIFY\': <class \'gluon.html.BEAUTIFY\'>, \'BODY\': <class \'gluon.html.BODY\'>, \'BR\': <class \'gluon.html.BR\'>, \'BUTTON\': <class \'gluon.html.BUTTON\'>, \'CAT\': <class \'gluon.html.CAT\'>, \'CENTER\': <class \'gluon.html.CENTER\'>, \'CLEANUP\': <class \'gluon.validators.CLEANUP\'>, ...}, layer=\'D:\\\\Dise\\xf1o Web\\\\Proyectos\\\\Parleyweb\\\\web2py\\\\applications\\\\parleyweb\\\\models\\\\db.py\')'
p3057
sS'func'
p3058
S'restricted'
p3059
sa(dp3060
g3049
S'D:\\Dise\xf1o Web\\Proyectos\\Parleyweb\\web2py\\applications\\parleyweb\\models\\db.py'
p3061
sg3051
(dp3062
sg3053
I150
sg3054
(dp3063
I145
S''
sI146
S''
sI147
S'### Validacion tabla palabras ###'
p3064
sI148
S'#db.palabras.palabra.represent = lambda palabra: palabra.capitalize()'
p3065
sI149
S"db.palabras.genero.requires = IS_EMPTY_OR(IS_IN_SET(['Masculino', 'Neutro', 'Femenino'],zero=T('Elige uno'),"
p3066
sI150
S"         error_message=T('No elegiste')))"
p3067
sI151
S"db.palabras.articulo.requires = IS_EMPTY_OR(IS_IN_SET(['Die', 'Der', 'Das'],zero=T('Elige uno'),"
p3068
sI152
S"         error_message=T('Elige Die, Der o Das')))"
p3069
sI153
S"db.palabras.glosario.requires = IS_EMPTY_OR(IS_IN_DB(db, 'glosario.id', '%(nombre_glosario)s'))"
p3070
sI154
S''
ssg3056
S'()'
p3071
sg3058
S'<module>'
p3072
sa(dp3073
g3049
S'D:\\Dise\xf1o Web\\Proyectos\\Parleyweb\\web2py\\gluon\\dal.py'
p3074
sg3051
(dp3075
sg3053
I6774
sg3054
(dp3076
sg3056
S"(self=<Table {'presente_1': <gluon.dal.Field object at..., '_id': <gluon.dal.Field object at 0x070E0CD0>}>, key='genero')"
p3077
sg3058
S'__getattr__'
p3078
sa(dp3079
g3049
S'D:\\Dise\xf1o Web\\Proyectos\\Parleyweb\\web2py\\gluon\\dal.py'
p3080
sg3051
(dp3081
sg3053
I6714
sg3054
(dp3082
sg3056
S"(self=<Table {'presente_1': <gluon.dal.Field object at..., '_id': <gluon.dal.Field object at 0x070E0CD0>}>, key='genero')"
p3083
sg3058
g20
sasS'pyver'
p3084
S'Python 2.5.4: D:\\Dise\xf1o Web\\Proyectos\\Parleyweb\\web2py\\web2py.exe'
p3085
sS'session'
p3086
g49
(g50
g51
NtRp3087
(dp3088
g54
(dp3089
sg56
(lp3090
g49
(g58
g51
NtRp3091
(dp3092
g54
(dp3093
g62
I5
ssg63
Nsg56
(lp3094
g49
(g65
g51
NtRp3095
(dp3096
g54
(dp3097
sg63
g3091
sg56
(lp3098
g49
(g70
g51
NtRp3099
(dp3100
g54
(dp3101
g74
g75
ssg63
g3095
sg56
(lp3102
S'last_query'
p3103
asbag49
(g70
g51
NtRp3104
(dp3105
g54
(dp3106
g81
g82
ssg63
g3095
sg56
(lp3107
S':'
asbag49
(g70
g51
NtRp3108
(dp3109
g54
(dp3110
sg63
g3095
sg56
(lp3111
g49
(g50
g51
NtRp3112
(dp3113
g54
(dp3114
g62
I5
ssg63
g3108
sg56
(lp3115
S'db.palabras.id>0'
p3116
asbasbasbasbasbsS'etype'
p3117
S"<type 'exceptions.KeyError'>"
p3118
sS'date'
p3119
S'Sat Mar 10 15:29:55 2012'
p3120
sS'response'
p3121
g49
(g50
g51
NtRp3122
(dp3123
g54
(dp3124
sg56
(lp3125
g49
(g58
g51
NtRp3126
(dp3127
g54
(dp3128
g62
I5
ssg63
Nsg56
(lp3129
g49
(g65
g51
NtRp3130
(dp3131
g54
(dp3132
sg63
g3126
sg56
(lp3133
g49
(g70
g51
NtRp3134
(dp3135
g54
(dp3136
g74
g75
ssg63
g3130
sg56
(lp3137
g160
asbag49
(g70
g51
NtRp3138
(dp3139
g54
(dp3140
g81
g82
ssg63
g3130
sg56
(lp3141
S':'
asbag49
(g70
g51
NtRp3142
(dp3143
g54
(dp3144
sg63
g3130
sg56
(lp3145
g49
(g50
g51
NtRp3146
(dp3147
g54
(dp3148
g62
I5
ssg63
g3142
sg56
(lp3149
S'<cStringIO.StringO object at 0x032CD940>'
p3150
asbasbasbag49
(g65
g51
NtRp3151
(dp3152
g54
(dp3153
sg63
g3126
sg56
(lp3154
g49
(g70
g51
NtRp3155
(dp3156
g54
(dp3157
g74
g75
ssg63
g3151
sg56
(lp3158
g226
asbag49
(g70
g51
NtRp3159
(dp3160
g54
(dp3161
g81
g82
ssg63
g3151
sg56
(lp3162
S':'
asbag49
(g70
g51
NtRp3163
(dp3164
g54
(dp3165
sg63
g3151
sg56
(lp3166
g49
(g50
g51
NtRp3167
(dp3168
g54
(dp3169
g62
I5
ssg63
g3163
sg56
(lp3170
g49
(g58
g51
NtRp3171
(dp3172
g54
(dp3173
g62
I4
ssg63
Nsg56
(lp3174
g49
(g65
g51
NtRp3175
(dp3176
g54
(dp3177
sg63
g3171
sg56
(lp3178
g49
(g70
g51
NtRp3179
(dp3180
g54
(dp3181
g74
g75
ssg63
g3175
sg56
(lp3182
S'session_id_parleyweb'
p3183
asbag49
(g70
g51
NtRp3184
(dp3185
g54
(dp3186
g81
g82
ssg63
g3175
sg56
(lp3187
S':'
asbag49
(g70
g51
NtRp3188
(dp3189
g54
(dp3190
sg63
g3175
sg56
(lp3191
g49
(g50
g51
NtRp3192
(dp3193
g54
(dp3194
g62
I4
ssg63
g3188
sg56
(lp3195
g49
(g58
g51
NtRp3196
(dp3197
g54
(dp3198
g62
I3
ssg63
Nsg56
(lp3199
g49
(g65
g51
NtRp3200
(dp3201
g54
(dp3202
sg63
g3196
sg56
(lp3203
g49
(g70
g51
NtRp3204
(dp3205
g54
(dp3206
g74
g75
ssg63
g3200
sg56
(lp3207
g276
asbag49
(g70
g51
NtRp3208
(dp3209
g54
(dp3210
g81
g82
ssg63
g3200
sg56
(lp3211
S':'
asbag49
(g70
g51
NtRp3212
(dp3213
g54
(dp3214
sg63
g3200
sg56
(lp3215
g49
(g50
g51
NtRp3216
(dp3217
g54
(dp3218
g62
I3
ssg63
g3212
sg56
(lp3219
S''
asbasbasbag49
(g65
g51
NtRp3220
(dp3221
g54
(dp3222
sg63
g3196
sg56
(lp3223
g49
(g70
g51
NtRp3224
(dp3225
g54
(dp3226
g74
g75
ssg63
g3220
sg56
(lp3227
g297
asbag49
(g70
g51
NtRp3228
(dp3229
g54
(dp3230
g81
g82
ssg63
g3220
sg56
(lp3231
S':'
asbag49
(g70
g51
NtRp3232
(dp3233
g54
(dp3234
sg63
g3220
sg56
(lp3235
g49
(g50
g51
NtRp3236
(dp3237
g54
(dp3238
g62
I3
ssg63
g3232
sg56
(lp3239
S''
asbasbasbag49
(g65
g51
NtRp3240
(dp3241
g54
(dp3242
sg63
g3196
sg56
(lp3243
g49
(g70
g51
NtRp3244
(dp3245
g54
(dp3246
g74
g75
ssg63
g3240
sg56
(lp3247
g318
asbag49
(g70
g51
NtRp3248
(dp3249
g54
(dp3250
g81
g82
ssg63
g3240
sg56
(lp3251
S':'
asbag49
(g70
g51
NtRp3252
(dp3253
g54
(dp3254
sg63
g3240
sg56
(lp3255
g49
(g50
g51
NtRp3256
(dp3257
g54
(dp3258
g62
I3
ssg63
g3252
sg56
(lp3259
S''
asbasbasbag49
(g65
g51
NtRp3260
(dp3261
g54
(dp3262
sg63
g3196
sg56
(lp3263
g49
(g70
g51
NtRp3264
(dp3265
g54
(dp3266
g74
g75
ssg63
g3260
sg56
(lp3267
g339
asbag49
(g70
g51
NtRp3268
(dp3269
g54
(dp3270
g81
g82
ssg63
g3260
sg56
(lp3271
S':'
asbag49
(g70
g51
NtRp3272
(dp3273
g54
(dp3274
sg63
g3260
sg56
(lp3275
g49
(g50
g51
NtRp3276
(dp3277
g54
(dp3278
g62
I3
ssg63
g3272
sg56
(lp3279
S''
asbasbasbag49
(g65
g51
NtRp3280
(dp3281
g54
(dp3282
sg63
g3196
sg56
(lp3283
g49
(g70
g51
NtRp3284
(dp3285
g54
(dp3286
g74
g75
ssg63
g3280
sg56
(lp3287
g360
asbag49
(g70
g51
NtRp3288
(dp3289
g54
(dp3290
g81
g82
ssg63
g3280
sg56
(lp3291
S':'
asbag49
(g70
g51
NtRp3292
(dp3293
g54
(dp3294
sg63
g3280
sg56
(lp3295
g49
(g50
g51
NtRp3296
(dp3297
g54
(dp3298
g62
I3
ssg63
g3292
sg56
(lp3299
S'/'
asbasbasbag49
(g65
g51
NtRp3300
(dp3301
g54
(dp3302
sg63
g3196
sg56
(lp3303
g49
(g70
g51
NtRp3304
(dp3305
g54
(dp3306
g74
g75
ssg63
g3300
sg56
(lp3307
g381
asbag49
(g70
g51
NtRp3308
(dp3309
g54
(dp3310
g81
g82
ssg63
g3300
sg56
(lp3311
S':'
asbag49
(g70
g51
NtRp3312
(dp3313
g54
(dp3314
sg63
g3300
sg56
(lp3315
g49
(g50
g51
NtRp3316
(dp3317
g54
(dp3318
g62
I3
ssg63
g3312
sg56
(lp3319
S''
asbasbasbag49
(g65
g51
NtRp3320
(dp3321
g54
(dp3322
sg63
g3196
sg56
(lp3323
g49
(g70
g51
NtRp3324
(dp3325
g54
(dp3326
g74
g75
ssg63
g3320
sg56
(lp3327
g402
asbag49
(g70
g51
NtRp3328
(dp3329
g54
(dp3330
g81
g82
ssg63
g3320
sg56
(lp3331
S':'
asbag49
(g70
g51
NtRp3332
(dp3333
g54
(dp3334
sg63
g3320
sg56
(lp3335
g49
(g50
g51
NtRp3336
(dp3337
g54
(dp3338
g62
I3
ssg63
g3332
sg56
(lp3339
S''
asbasbasbasbasbasbasbasbasbasbasbag49
(g65
g51
NtRp3340
(dp3341
g54
(dp3342
sg63
g3126
sg56
(lp3343
g49
(g70
g51
NtRp3344
(dp3345
g54
(dp3346
g74
g75
ssg63
g3340
sg56
(lp3347
S'delimiters'
p3348
asbag49
(g70
g51
NtRp3349
(dp3350
g54
(dp3351
g81
g82
ssg63
g3340
sg56
(lp3352
S':'
asbag49
(g70
g51
NtRp3353
(dp3354
g54
(dp3355
sg63
g3340
sg56
(lp3356
g49
(g50
g51
NtRp3357
(dp3358
g54
(dp3359
g62
I5
ssg63
g3353
sg56
(lp3360
g49
(g58
g51
NtRp3361
(dp3362
g54
(dp3363
g62
I4
ssg63
Nsg56
(lp3364
g49
(g65
g51
NtRp3365
(dp3366
g54
(dp3367
sg63
g3361
sg56
(lp3368
g49
(g70
g51
NtRp3369
(dp3370
g54
(dp3371
sg63
g3365
sg56
(lp3372
g49
(g50
g51
NtRp3373
(dp3374
g54
(dp3375
g62
I4
ssg63
g3369
sg56
(lp3376
S'{{'
p3377
asbasbasbag49
(g65
g51
NtRp3378
(dp3379
g54
(dp3380
sg63
g3361
sg56
(lp3381
g49
(g70
g51
NtRp3382
(dp3383
g54
(dp3384
sg63
g3378
sg56
(lp3385
g49
(g50
g51
NtRp3386
(dp3387
g54
(dp3388
g62
I4
ssg63
g3382
sg56
(lp3389
S'}}'
p3390
asbasbasbasbasbasbasbag49
(g65
g51
NtRp3391
(dp3392
g54
(dp3393
sg63
g3126
sg56
(lp3394
g49
(g70
g51
NtRp3395
(dp3396
g54
(dp3397
g74
g75
ssg63
g3391
sg56
(lp3398
S'files'
p3399
asbag49
(g70
g51
NtRp3400
(dp3401
g54
(dp3402
g81
g82
ssg63
g3391
sg56
(lp3403
S':'
asbag49
(g70
g51
NtRp3404
(dp3405
g54
(dp3406
sg63
g3391
sg56
(lp3407
g49
(g50
g51
NtRp3408
(dp3409
g54
(dp3410
g62
I5
ssg63
g3404
sg56
(lp3411
g49
(g58
g51
NtRp3412
(dp3413
g54
(dp3414
g62
I4
ssg63
Nsg56
(lp3415
sbasbasbasbag49
(g65
g51
NtRp3416
(dp3417
g54
(dp3418
sg63
g3126
sg56
(lp3419
g49
(g70
g51
NtRp3420
(dp3421
g54
(dp3422
g74
g75
ssg63
g3416
sg56
(lp3423
S'flash'
p3424
asbag49
(g70
g51
NtRp3425
(dp3426
g54
(dp3427
g81
g82
ssg63
g3416
sg56
(lp3428
S':'
asbag49
(g70
g51
NtRp3429
(dp3430
g54
(dp3431
sg63
g3416
sg56
(lp3432
g49
(g50
g51
NtRp3433
(dp3434
g54
(dp3435
g62
I5
ssg63
g3429
sg56
(lp3436
S''
asbasbasbag49
(g65
g51
NtRp3437
(dp3438
g54
(dp3439
sg63
g3126
sg56
(lp3440
g49
(g70
g51
NtRp3441
(dp3442
g54
(dp3443
g74
g75
ssg63
g3437
sg56
(lp3444
S'generic_patterns'
p3445
asbag49
(g70
g51
NtRp3446
(dp3447
g54
(dp3448
g81
g82
ssg63
g3437
sg56
(lp3449
S':'
asbag49
(g70
g51
NtRp3450
(dp3451
g54
(dp3452
sg63
g3437
sg56
(lp3453
g49
(g50
g51
NtRp3454
(dp3455
g54
(dp3456
g62
I5
ssg63
g3450
sg56
(lp3457
g49
(g58
g51
NtRp3458
(dp3459
g54
(dp3460
g62
I4
ssg63
Nsg56
(lp3461
g49
(g65
g51
NtRp3462
(dp3463
g54
(dp3464
sg63
g3458
sg56
(lp3465
g49
(g70
g51
NtRp3466
(dp3467
g54
(dp3468
sg63
g3462
sg56
(lp3469
g49
(g50
g51
NtRp3470
(dp3471
g54
(dp3472
g62
I4
ssg63
g3466
sg56
(lp3473
S'*'
asbasbasbasbasbasbasbag49
(g65
g51
NtRp3474
(dp3475
g54
(dp3476
sg63
g3126
sg56
(lp3477
g49
(g70
g51
NtRp3478
(dp3479
g54
(dp3480
g74
g75
ssg63
g3474
sg56
(lp3481
S'headers'
p3482
asbag49
(g70
g51
NtRp3483
(dp3484
g54
(dp3485
g81
g82
ssg63
g3474
sg56
(lp3486
S':'
asbag49
(g70
g51
NtRp3487
(dp3488
g54
(dp3489
sg63
g3474
sg56
(lp3490
g49
(g50
g51
NtRp3491
(dp3492
g54
(dp3493
g62
I5
ssg63
g3487
sg56
(lp3494
g49
(g58
g51
NtRp3495
(dp3496
g54
(dp3497
g62
I4
ssg63
Nsg56
(lp3498
g49
(g65
g51
NtRp3499
(dp3500
g54
(dp3501
sg63
g3495
sg56
(lp3502
g49
(g70
g51
NtRp3503
(dp3504
g54
(dp3505
g74
g75
ssg63
g3499
sg56
(lp3506
S'Cache-Control'
p3507
asbag49
(g70
g51
NtRp3508
(dp3509
g54
(dp3510
g81
g82
ssg63
g3499
sg56
(lp3511
S':'
asbag49
(g70
g51
NtRp3512
(dp3513
g54
(dp3514
sg63
g3499
sg56
(lp3515
g49
(g50
g51
NtRp3516
(dp3517
g54
(dp3518
g62
I4
ssg63
g3512
sg56
(lp3519
S'no-store, no-cache, must-revalidate, post-check=0, pre-check=0'
p3520
asbasbasbag49
(g65
g51
NtRp3521
(dp3522
g54
(dp3523
sg63
g3495
sg56
(lp3524
g49
(g70
g51
NtRp3525
(dp3526
g54
(dp3527
g74
g75
ssg63
g3521
sg56
(lp3528
S'Content-Type'
p3529
asbag49
(g70
g51
NtRp3530
(dp3531
g54
(dp3532
g81
g82
ssg63
g3521
sg56
(lp3533
S':'
asbag49
(g70
g51
NtRp3534
(dp3535
g54
(dp3536
sg63
g3521
sg56
(lp3537
g49
(g50
g51
NtRp3538
(dp3539
g54
(dp3540
g62
I4
ssg63
g3534
sg56
(lp3541
S'text/html; charset=utf-8'
p3542
asbasbasbag49
(g65
g51
NtRp3543
(dp3544
g54
(dp3545
sg63
g3495
sg56
(lp3546
g49
(g70
g51
NtRp3547
(dp3548
g54
(dp3549
g74
g75
ssg63
g3543
sg56
(lp3550
S'Expires'
p3551
asbag49
(g70
g51
NtRp3552
(dp3553
g54
(dp3554
g81
g82
ssg63
g3543
sg56
(lp3555
S':'
asbag49
(g70
g51
NtRp3556
(dp3557
g54
(dp3558
sg63
g3543
sg56
(lp3559
g49
(g50
g51
NtRp3560
(dp3561
g54
(dp3562
g62
I4
ssg63
g3556
sg56
(lp3563
S'Sat, 10 Mar 2012 14:29:55 GMT'
p3564
asbasbasbag49
(g65
g51
NtRp3565
(dp3566
g54
(dp3567
sg63
g3495
sg56
(lp3568
g49
(g70
g51
NtRp3569
(dp3570
g54
(dp3571
g74
g75
ssg63
g3565
sg56
(lp3572
S'Pragma'
p3573
asbag49
(g70
g51
NtRp3574
(dp3575
g54
(dp3576
g81
g82
ssg63
g3565
sg56
(lp3577
S':'
asbag49
(g70
g51
NtRp3578
(dp3579
g54
(dp3580
sg63
g3565
sg56
(lp3581
g49
(g50
g51
NtRp3582
(dp3583
g54
(dp3584
g62
I4
ssg63
g3578
sg56
(lp3585
S'no-cache'
p3586
asbasbasbag49
(g65
g51
NtRp3587
(dp3588
g54
(dp3589
sg63
g3495
sg56
(lp3590
g49
(g70
g51
NtRp3591
(dp3592
g54
(dp3593
g74
g75
ssg63
g3587
sg56
(lp3594
S'X-Powered-By'
p3595
asbag49
(g70
g51
NtRp3596
(dp3597
g54
(dp3598
g81
g82
ssg63
g3587
sg56
(lp3599
S':'
asbag49
(g70
g51
NtRp3600
(dp3601
g54
(dp3602
sg63
g3587
sg56
(lp3603
g49
(g50
g51
NtRp3604
(dp3605
g54
(dp3606
g62
I4
ssg63
g3600
sg56
(lp3607
S'web2py'
p3608
asbasbasbasbasbasbasbag49
(g65
g51
NtRp3609
(dp3610
g54
(dp3611
sg63
g3126
sg56
(lp3612
g49
(g70
g51
NtRp3613
(dp3614
g54
(dp3615
g74
g75
ssg63
g3609
sg56
(lp3616
S'menu'
p3617
asbag49
(g70
g51
NtRp3618
(dp3619
g54
(dp3620
g81
g82
ssg63
g3609
sg56
(lp3621
S':'
asbag49
(g70
g51
NtRp3622
(dp3623
g54
(dp3624
sg63
g3609
sg56
(lp3625
g49
(g50
g51
NtRp3626
(dp3627
g54
(dp3628
g62
I5
ssg63
g3622
sg56
(lp3629
g49
(g58
g51
NtRp3630
(dp3631
g54
(dp3632
g62
I4
ssg63
Nsg56
(lp3633
sbasbasbasbag49
(g65
g51
NtRp3634
(dp3635
g54
(dp3636
sg63
g3126
sg56
(lp3637
g49
(g70
g51
NtRp3638
(dp3639
g54
(dp3640
g74
g75
ssg63
g3634
sg56
(lp3641
S'meta'
p3642
asbag49
(g70
g51
NtRp3643
(dp3644
g54
(dp3645
g81
g82
ssg63
g3634
sg56
(lp3646
S':'
asbag49
(g70
g51
NtRp3647
(dp3648
g54
(dp3649
sg63
g3634
sg56
(lp3650
g49
(g50
g51
NtRp3651
(dp3652
g54
(dp3653
g62
I5
ssg63
g3647
sg56
(lp3654
g49
(g58
g51
NtRp3655
(dp3656
g54
(dp3657
g62
I4
ssg63
Nsg56
(lp3658
sbasbasbasbag49
(g65
g51
NtRp3659
(dp3660
g54
(dp3661
sg63
g3126
sg56
(lp3662
g49
(g70
g51
NtRp3663
(dp3664
g54
(dp3665
g74
g75
ssg63
g3659
sg56
(lp3666
S'postprocessing'
p3667
asbag49
(g70
g51
NtRp3668
(dp3669
g54
(dp3670
g81
g82
ssg63
g3659
sg56
(lp3671
S':'
asbag49
(g70
g51
NtRp3672
(dp3673
g54
(dp3674
sg63
g3659
sg56
(lp3675
g49
(g50
g51
NtRp3676
(dp3677
g54
(dp3678
g62
I5
ssg63
g3672
sg56
(lp3679
g49
(g58
g51
NtRp3680
(dp3681
g54
(dp3682
g62
I4
ssg63
Nsg56
(lp3683
sbasbasbasbag49
(g65
g51
NtRp3684
(dp3685
g54
(dp3686
sg63
g3126
sg56
(lp3687
g49
(g70
g51
NtRp3688
(dp3689
g54
(dp3690
g74
g75
ssg63
g3684
sg56
(lp3691
S'session_file'
p3692
asbag49
(g70
g51
NtRp3693
(dp3694
g54
(dp3695
g81
g82
ssg63
g3684
sg56
(lp3696
S':'
asbag49
(g70
g51
NtRp3697
(dp3698
g54
(dp3699
sg63
g3684
sg56
(lp3700
g49
(g50
g51
NtRp3701
(dp3702
g54
(dp3703
g62
I5
ssg63
g3697
sg56
(lp3704
S"<open file 'D:\\Dise\xf1o Web\\Proyectos\\Parleyweb\\web2py\\applications\\parleyweb\\sessions\\127.0.0.1-941ea06b-718e-475d-8aba-022805d8afd9', mode 'rb+' at 0x07AB1380>"
p3705
asbasbasbag49
(g65
g51
NtRp3706
(dp3707
g54
(dp3708
sg63
g3126
sg56
(lp3709
g49
(g70
g51
NtRp3710
(dp3711
g54
(dp3712
g74
g75
ssg63
g3706
sg56
(lp3713
S'session_filename'
p3714
asbag49
(g70
g51
NtRp3715
(dp3716
g54
(dp3717
g81
g82
ssg63
g3706
sg56
(lp3718
S':'
asbag49
(g70
g51
NtRp3719
(dp3720
g54
(dp3721
sg63
g3706
sg56
(lp3722
g49
(g50
g51
NtRp3723
(dp3724
g54
(dp3725
g62
I5
ssg63
g3719
sg56
(lp3726
S'D:\\Dise\xf1o Web\\Proyectos\\Parleyweb\\web2py\\applications\\parleyweb\\sessions\\127.0.0.1-941ea06b-718e-475d-8aba-022805d8afd9'
p3727
asbasbasbag49
(g65
g51
NtRp3728
(dp3729
g54
(dp3730
sg63
g3126
sg56
(lp3731
g49
(g70
g51
NtRp3732
(dp3733
g54
(dp3734
g74
g75
ssg63
g3728
sg56
(lp3735
S'session_id'
p3736
asbag49
(g70
g51
NtRp3737
(dp3738
g54
(dp3739
g81
g82
ssg63
g3728
sg56
(lp3740
S':'
asbag49
(g70
g51
NtRp3741
(dp3742
g54
(dp3743
sg63
g3728
sg56
(lp3744
g49
(g50
g51
NtRp3745
(dp3746
g54
(dp3747
g62
I5
ssg63
g3741
sg56
(lp3748
S'127.0.0.1-941ea06b-718e-475d-8aba-022805d8afd9'
p3749
asbasbasbag49
(g65
g51
NtRp3750
(dp3751
g54
(dp3752
sg63
g3126
sg56
(lp3753
g49
(g70
g51
NtRp3754
(dp3755
g54
(dp3756
g74
g75
ssg63
g3750
sg56
(lp3757
S'session_id_name'
p3758
asbag49
(g70
g51
NtRp3759
(dp3760
g54
(dp3761
g81
g82
ssg63
g3750
sg56
(lp3762
S':'
asbag49
(g70
g51
NtRp3763
(dp3764
g54
(dp3765
sg63
g3750
sg56
(lp3766
g49
(g50
g51
NtRp3767
(dp3768
g54
(dp3769
g62
I5
ssg63
g3763
sg56
(lp3770
g3183
asbasbasbag49
(g65
g51
NtRp3771
(dp3772
g54
(dp3773
sg63
g3126
sg56
(lp3774
g49
(g70
g51
NtRp3775
(dp3776
g54
(dp3777
g74
g75
ssg63
g3771
sg56
(lp3778
S'session_locked'
p3779
asbag49
(g70
g51
NtRp3780
(dp3781
g54
(dp3782
g81
g82
ssg63
g3771
sg56
(lp3783
S':'
asbag49
(g70
g51
NtRp3784
(dp3785
g54
(dp3786
sg63
g3771
sg56
(lp3787
g49
(g50
g51
NtRp3788
(dp3789
g54
(dp3790
g62
I5
ssg63
g3784
sg56
(lp3791
g1743
asbasbasbag49
(g65
g51
NtRp3792
(dp3793
g54
(dp3794
sg63
g3126
sg56
(lp3795
g49
(g70
g51
NtRp3796
(dp3797
g54
(dp3798
g74
g75
ssg63
g3792
sg56
(lp3799
S'session_new'
p3800
asbag49
(g70
g51
NtRp3801
(dp3802
g54
(dp3803
g81
g82
ssg63
g3792
sg56
(lp3804
S':'
asbag49
(g70
g51
NtRp3805
(dp3806
g54
(dp3807
sg63
g3792
sg56
(lp3808
g49
(g50
g51
NtRp3809
(dp3810
g54
(dp3811
g62
I5
ssg63
g3805
sg56
(lp3812
g92
asbasbasbag49
(g65
g51
NtRp3813
(dp3814
g54
(dp3815
sg63
g3126
sg56
(lp3816
g49
(g70
g51
NtRp3817
(dp3818
g54
(dp3819
g74
g75
ssg63
g3813
sg56
(lp3820
S'status'
p3821
asbag49
(g70
g51
NtRp3822
(dp3823
g54
(dp3824
g81
g82
ssg63
g3813
sg56
(lp3825
S':'
asbag49
(g70
g51
NtRp3826
(dp3827
g54
(dp3828
sg63
g3813
sg56
(lp3829
g49
(g50
g51
NtRp3830
(dp3831
g54
(dp3832
g62
I5
ssg63
g3826
sg56
(lp3833
S'200'
p3834
asbasbasbag49
(g65
g51
NtRp3835
(dp3836
g54
(dp3837
sg63
g3126
sg56
(lp3838
g49
(g70
g51
NtRp3839
(dp3840
g54
(dp3841
g74
g75
ssg63
g3835
sg56
(lp3842
g2429
asbag49
(g70
g51
NtRp3843
(dp3844
g54
(dp3845
g81
g82
ssg63
g3835
sg56
(lp3846
S':'
asbag49
(g70
g51
NtRp3847
(dp3848
g54
(dp3849
sg63
g3835
sg56
(lp3850
g49
(g50
g51
NtRp3851
(dp3852
g54
(dp3853
g62
I5
ssg63
g3847
sg56
(lp3854
g2442
asbasbasbag49
(g65
g51
NtRp3855
(dp3856
g54
(dp3857
sg63
g3126
sg56
(lp3858
g49
(g70
g51
NtRp3859
(dp3860
g54
(dp3861
g74
g75
ssg63
g3855
sg56
(lp3862
S'view'
p3863
asbag49
(g70
g51
NtRp3864
(dp3865
g54
(dp3866
g81
g82
ssg63
g3855
sg56
(lp3867
S':'
asbag49
(g70
g51
NtRp3868
(dp3869
g54
(dp3870
sg63
g3855
sg56
(lp3871
g49
(g50
g51
NtRp3872
(dp3873
g54
(dp3874
g62
I5
ssg63
g3868
sg56
(lp3875
S'default/mostrar.html'
p3876
asbasbasbasbasbsS'locals'
p3877
(dp3878
S'self'
p3879
S"<Table {'presente_1': <gluon.dal.Field object at..., '_id': <gluon.dal.Field object at 0x070E0CD0>}>"
p3880
sS'key'
p3881
S"'genero'"
p3882
sssS'traceback'
p3883
S'Traceback (most recent call last):\n  File "gluon/restricted.py", line 205, in restricted\n  File "D:\\Dise\xf1o Web\\Proyectos\\Parleyweb\\web2py\\applications\\parleyweb\\models\\db.py", line 150, in <module>\n  File "gluon/dal.py", line 6774, in __getattr__\n  File "gluon/dal.py", line 6714, in __getitem__\nKeyError: \'genero\'\n'
p3884
s.