(dp1
S'output'
p2
S"<type 'exceptions.NameError'> name 'i' is not defined"
p3
sS'layer'
p4
S'D:\\Dise\xf1o Web\\Proyectos\\Parleyweb\\web2py\\applications\\parleyweb\\views\\default/mostrar.html'
p5
sS'code'
p6
S'response.write(\'<!DOCTYPE html>\\n<!-- paulirish.com/2008/conditional-stylesheets-vs-css-hacks-answer-neither/ -->\\n<!--[if lt IE 7]><html class="ie ie6 ie-lte9 ie-lte8 ie-lte7 no-js" lang="\', escape=False)\nresponse.write(T.accepted_language or \'en\')\nresponse.write(\'"> <![endif]-->\\n<!--[if IE 7]><html class="ie ie7 ie-lte9 ie-lte8 ie-lte7 no-js" lang="\', escape=False)\nresponse.write(T.accepted_language or \'en\')\nresponse.write(\'"> <![endif]-->\\n<!--[if IE 8]><html class="ie ie8 ie-lte9 ie-lte8 no-js" lang="\', escape=False)\nresponse.write(T.accepted_language or \'en\')\nresponse.write(\'"> <![endif]-->\\n<!--[if IE 9]><html class="ie9 ie-lte9 no-js" lang="\', escape=False)\nresponse.write(T.accepted_language or \'en\')\nresponse.write(\'"> <![endif]-->\\n<!--[if (gt IE 9)|!(IE)]><!--> <html class="no-js" lang="\', escape=False)\nresponse.write(T.accepted_language or \'en\')\nresponse.write(\'"> <!--<![endif]-->\\n<head>\\n  <meta charset="utf-8" />\\n  <!-- www.phpied.com/conditional-comments-block-downloads/ -->\\n  <!-- Always force latest IE rendering engine\\n\\t   (even in intranet) & Chrome Frame\\n\\t   Remove this if you use the .htaccess -->\\n  <!--[if IE]>\\n    <meta http-equiv="X-UA-Compatible" content="IE=edge\', escape=False)\nresponse.write(not request.is_local and \',chrome=1\' or \'\')\nresponse.write(\'">\\n  <![endif]-->\\n  \\n  <title>\', escape=False)\nresponse.write(response.title or request.application)\nresponse.write(\'</title>\\n  \\n  <!-- http://dev.w3.org/html5/markup/meta.name.html -->\\n  <meta name="application-name" content="\', escape=False)\nresponse.write(request.application)\nresponse.write(\'" />\\n  \\n  <!-- Speaking of Google, don\\\'t forget to set your site up:\\n\\t   http://google.com/webmasters -->\\n  <meta name="google-site-verification" content="" />\\n\\n  <!--  Mobile Viewport Fix\\n\\t  j.mp/mobileviewport & davidbcalhoun.com/2010/viewport-metatag\\n\\t  device-width: Occupy full width of the screen in its current orientation\\n\\t  initial-scale = 1.0 retains dimensions instead of zooming out if page height > device height\\n\\t  user-scalable = yes allows the user to zoom in -->\\n  <meta name="viewport" content="width=device-width, initial-scale=1.0, user-scalable=yes">\\n  \\n  <!-- Place favicon.ico and apple-touch-icon.png in the root of your domain and delete these references -->\\n  <link rel="shortcut icon" href="\', escape=False)\nresponse.write(URL(\'static\',\'favicon.ico\'))\nresponse.write(\'" type="image/x-icon">\\n  <link rel="apple-touch-icon" href="\', escape=False)\nresponse.write(URL(\'static\',\'favicon.png\'))\nresponse.write(\'">\\n\\n  <!-- All JavaScript at the bottom, except for Modernizr which enables \\n\\t   HTML5 elements & feature detects -->\\n  <script src="\', escape=False)\nresponse.write(URL(\'static\',\'js/modernizr.custom.js\'))\nresponse.write(\'"></script>  \\n\\n  <!-- include stylesheets -->\\n  \', escape=False)\nresponse.files.append(URL(\'static\',\'css/bootstrap.css\'))\nresponse.files.append(URL(\'static\',\'js/bootstrap.js\'))\nresponse.files.append(URL(\'static\',\'css/parleyweb.css\'))\nresponse.files.append(URL(\'static\',\'js/parleyweb.js\'))\nresponse.write(\'\\n\\n  \', escape=False)\nresponse.write(\'<script type="text/javascript"><!--\\n    // These variables are used by the web2py_ajax_init function in web2py_ajax.js (which is loaded below).\\n    var w2p_ajax_confirm_message = "\', escape=False)\nresponse.write(T(\'Are you sure you want to delete this object?\'))\nresponse.write(\'";\\n    var w2p_ajax_date_format = "\', escape=False)\nresponse.write(T(\'%Y-%m-%d\'))\nresponse.write(\'";\\n    var w2p_ajax_datetime_format = "\', escape=False)\nresponse.write(T(\'%Y-%m-%d %H:%M:%S\'))\nresponse.write(\'";\\n    //--></script>\\n\', escape=False)\nresponse.files.insert(0,URL(\'static\',\'js/jquery.js\'))\nresponse.files.insert(1,URL(\'static\',\'css/calendar.css\'))\nresponse.files.insert(2,URL(\'static\',\'js/calendar.js\'))\nresponse.files.insert(3,URL(\'static\',\'js/web2py.js\'))\nresponse.include_meta()\nresponse.include_files()\nresponse.write(\'\\n\', escape=False)\nresponse.write(\'\\n\\n  \\n\\n  \', escape=False)\n# using sidebars need to know what sidebar you want to use\nleft_sidebar_enabled = globals().get(\'left_sidebar_enabled\',False)\nright_sidebar_enabled = globals().get(\'right_sidebar_enabled\',False)\nmiddle_columns = {0:\'sixteen\',1:\'twelve\',2:\'eight\'}[\n(left_sidebar_enabled and 1 or 0)+(right_sidebar_enabled and 1 or 0)]\nresponse.write(\'\\n\\n  <!-- uncomment here to load jquery-ui\\n  <link rel="stylesheet" href="http://ajax.googleapis.com/ajax/libs/jqueryui/1.8.16/themes/base/jquery-ui.css" type="text/css" media="all" />\\n  <script src="http://ajax.googleapis.com/ajax/libs/jqueryui/1.8.16/jquery-ui.min.js" type="text/javascript"></script>\\n  uncomment to load jquery-ui //-->\\n</head>\\n <body>\\n\\n    <div class="navbar navbar-fixed-top">\\n      <div class="navbar-inner">\\n        <div class="container-fluid">\\n          <a class="btn btn-navbar" data-toggle="collapse" data-target=".nav-collapse">\\n            <span class="icon-bar"></span>\\n            <span class="icon-bar"></span>\\n            <span class="icon-bar"></span>\\n          </a>\\n          <a class="brand" href="#">Parleyweb</a>\\n          <div class="nav-collapse">\\n\\t    \', escape=False)\n#=MENU(response.menu, _class="nav active")\nresponse.write(\'\\n            <ul class="nav">\\n              <li>\', escape=False)\nresponse.write(A(T(\'Administracion\'), _href=URL(\'admin\', \'index\')))\nresponse.write(\'</li>\\n            </ul>\\n\\t    \\n            <p class="navbar-text pull-right">\', escape=False)\nresponse.write(\'auth\' in globals() and auth.navbar(separators=(\' \',\' | \',\'\')))\nresponse.write(\'</p>\\n          </div><!--/.nav-collapse -->\\n        </div>\\n      </div>\\n    </div>\\n    <div class="flash alert alert-info"></i>\', escape=False)\nresponse.write(response.flash or \'\')\nresponse.write(\'</div>\\n    <div class="container-fluid">\\n      <div class="row-fluid">\\n        <div class="span3">\\n          <div class="well sidebar-nav">\\n            <ul class="nav nav-list">\\n              <li class="nav-header">\', escape=False)\nresponse.write(T(\'Buscar\'))\nresponse.write(\'</li>\\n            </ul>\\n          </div><!--/.well -->\\n        </div><!--/span-->\\n        <div class="span9">\\n\\t  \\n          <div class="hero-unit">\\n           \', escape=False)\nresponse.write(\'\\n\\t   \', escape=False)\nresponse.write(\'\\n\\n    \', escape=False)\nif palabras:\n    response.write(\'\\n        \', escape=False)\n    response.write(i.palabra)\n    response.write(\'\\n    \', escape=False)\nelse:\n    response.write(\'\\n        <p>no hay palabra</p>\\n    \', escape=False)\n    pass\nresponse.write(\'\\n        \\n    \', escape=False)\nif ejemplos:\n    response.write(\'\\n        \', escape=False)\n    response.write(i.ejemplo_de)\n    response.write(\'\\n    \', escape=False)\nelse:\n    response.write(\'\\n        <p>no hay ejemplo</p>\\n    \', escape=False)\n    pass\nresponse.write(\'\\n    \\n    \\n\\n\\n\\n\', escape=False)\nresponse.write(response.toolbar())\nresponse.write(\'\\n    \\n \', escape=False)\nresponse.write(\'\\n\\t   \', escape=False)\nresponse.write("\\n          </div>\\n      \\n          \\n        </div><!--/span-->\\n      </div><!--/row-->\\n\\n      <hr>\\n\\n      <footer>\\n        <p>\\xc2\\xa9 Company 2012</p>\\n      </footer>\\n\\n    </div><!--/.fluid-container-->\\n    \\n    <!-- Le javascript\\n    ================================================== -->\\n    <!-- Placed at the end of the document so the pages load faster \\n    <script>\\n      $(function () {\\n      $(\'.tabs a:last\').tab(\'show\')\\n      })\\n    </script>-->\\n   \\n\\n \\n\\n</body>\\n</html>\\n", escape=False)'
p7
sS'snapshot'
p8
(dp9
S'exception'
p10
(dp11
S'__hash__'
p12
S"<method-wrapper '__hash__' of exceptions.NameError object at 0x07834DF0>"
p13
sS'__setattr__'
p14
S"<method-wrapper '__setattr__' of exceptions.NameError object at 0x07834DF0>"
p15
sS'__reduce_ex__'
p16
S'<built-in method __reduce_ex__ of exceptions.NameError object at 0x07834DF0>'
p17
sS'__getslice__'
p18
S"<method-wrapper '__getslice__' of exceptions.NameError object at 0x07834DF0>"
p19
sS'__getitem__'
p20
S"<method-wrapper '__getitem__' of exceptions.NameError object at 0x07834DF0>"
p21
sS'__setstate__'
p22
S'<built-in method __setstate__ of exceptions.NameError object at 0x07834DF0>'
p23
sS'__reduce__'
p24
S'<built-in method __reduce__ of exceptions.NameError object at 0x07834DF0>'
p25
sS'__str__'
p26
S"<method-wrapper '__str__' of exceptions.NameError object at 0x07834DF0>"
p27
sS'args'
p28
S'("name \'i\' is not defined",)'
p29
sS'__getattribute__'
p30
S"<method-wrapper '__getattribute__' of exceptions.NameError object at 0x07834DF0>"
p31
sS'__class__'
p32
S"<type 'exceptions.NameError'>"
p33
sS'__delattr__'
p34
S"<method-wrapper '__delattr__' of exceptions.NameError object at 0x07834DF0>"
p35
sS'__repr__'
p36
S"<method-wrapper '__repr__' of exceptions.NameError object at 0x07834DF0>"
p37
sS'__dict__'
p38
S'{}'
p39
sS'__doc__'
p40
S"'Name not found globally.'"
p41
sS'__init__'
p42
S"<method-wrapper '__init__' of exceptions.NameError object at 0x07834DF0>"
p43
sS'__new__'
p44
S'<built-in method __new__ of type object at 0x1E1CD8D8>'
p45
ssS'evalue'
p46
S"name 'i' is not defined"
p47
sS'request'
p48
ccopy_reg
_reconstructor
p49
(cgluon.html
BEAUTIFY
p50
c__builtin__
object
p51
NtRp52
(dp53
S'attributes'
p54
(dp55
sS'components'
p56
(lp57
g49
(cgluon.html
TABLE
p58
g51
NtRp59
(dp60
g54
(dp61
S'level'
p62
I5
ssS'parent'
p63
Nsg56
(lp64
g49
(cgluon.html
TR
p65
g51
NtRp66
(dp67
g54
(dp68
sg63
g59
sg56
(lp69
g49
(cgluon.html
TD
p70
g51
NtRp71
(dp72
g54
(dp73
S'_style'
p74
S'font-weight:bold;vertical-align:top'
p75
ssg63
g66
sg56
(lp76
S'ajax'
p77
asbag49
(g70
g51
NtRp78
(dp79
g54
(dp80
S'_valign'
p81
S'top'
p82
ssg63
g66
sg56
(lp83
S':'
asbag49
(g70
g51
NtRp84
(dp85
g54
(dp86
sg63
g66
sg56
(lp87
g49
(g50
g51
NtRp88
(dp89
g54
(dp90
g62
I5
ssg63
g84
sg56
(lp91
S'False'
p92
asbasbasbag49
(g65
g51
NtRp93
(dp94
g54
(dp95
sg63
g59
sg56
(lp96
g49
(g70
g51
NtRp97
(dp98
g54
(dp99
g74
g75
ssg63
g93
sg56
(lp100
S'application'
p101
asbag49
(g70
g51
NtRp102
(dp103
g54
(dp104
g81
g82
ssg63
g93
sg56
(lp105
S':'
asbag49
(g70
g51
NtRp106
(dp107
g54
(dp108
sg63
g93
sg56
(lp109
g49
(g50
g51
NtRp110
(dp111
g54
(dp112
g62
I5
ssg63
g106
sg56
(lp113
S'parleyweb'
p114
asbasbasbag49
(g65
g51
NtRp115
(dp116
g54
(dp117
sg63
g59
sg56
(lp118
g49
(g70
g51
NtRp119
(dp120
g54
(dp121
g74
g75
ssg63
g115
sg56
(lp122
g28
asbag49
(g70
g51
NtRp123
(dp124
g54
(dp125
g81
g82
ssg63
g115
sg56
(lp126
S':'
asbag49
(g70
g51
NtRp127
(dp128
g54
(dp129
sg63
g115
sg56
(lp130
g49
(g50
g51
NtRp131
(dp132
g54
(dp133
g62
I5
ssg63
g127
sg56
(lp134
g49
(g58
g51
NtRp135
(dp136
g54
(dp137
g62
I4
ssg63
Nsg56
(lp138
g49
(g65
g51
NtRp139
(dp140
g54
(dp141
sg63
g135
sg56
(lp142
g49
(g70
g51
NtRp143
(dp144
g54
(dp145
sg63
g139
sg56
(lp146
g49
(g50
g51
NtRp147
(dp148
g54
(dp149
g62
I4
ssg63
g143
sg56
(lp150
S'81'
p151
asbasbasbag49
(g65
g51
NtRp152
(dp153
g54
(dp154
sg63
g135
sg56
(lp155
g49
(g70
g51
NtRp156
(dp157
g54
(dp158
sg63
g152
sg56
(lp159
g49
(g50
g51
NtRp160
(dp161
g54
(dp162
g62
I4
ssg63
g156
sg56
(lp163
S'finger'
p164
asbasbasbasbasbasbasbag49
(g65
g51
NtRp165
(dp166
g54
(dp167
sg63
g59
sg56
(lp168
g49
(g70
g51
NtRp169
(dp170
g54
(dp171
g74
g75
ssg63
g165
sg56
(lp172
S'body'
p173
asbag49
(g70
g51
NtRp174
(dp175
g54
(dp176
g81
g82
ssg63
g165
sg56
(lp177
S':'
asbag49
(g70
g51
NtRp178
(dp179
g54
(dp180
sg63
g165
sg56
(lp181
g49
(g50
g51
NtRp182
(dp183
g54
(dp184
g62
I5
ssg63
g178
sg56
(lp185
S'<cStringIO.StringO object at 0x078BBBE0>'
p186
asbasbasbag49
(g65
g51
NtRp187
(dp188
g54
(dp189
sg63
g59
sg56
(lp190
g49
(g70
g51
NtRp191
(dp192
g54
(dp193
g74
g75
ssg63
g187
sg56
(lp194
S'client'
p195
asbag49
(g70
g51
NtRp196
(dp197
g54
(dp198
g81
g82
ssg63
g187
sg56
(lp199
S':'
asbag49
(g70
g51
NtRp200
(dp201
g54
(dp202
sg63
g187
sg56
(lp203
g49
(g50
g51
NtRp204
(dp205
g54
(dp206
g62
I5
ssg63
g200
sg56
(lp207
S'127.0.0.1'
p208
asbasbasbag49
(g65
g51
NtRp209
(dp210
g54
(dp211
sg63
g59
sg56
(lp212
g49
(g70
g51
NtRp213
(dp214
g54
(dp215
g74
g75
ssg63
g209
sg56
(lp216
S'controller'
p217
asbag49
(g70
g51
NtRp218
(dp219
g54
(dp220
g81
g82
ssg63
g209
sg56
(lp221
S':'
asbag49
(g70
g51
NtRp222
(dp223
g54
(dp224
sg63
g209
sg56
(lp225
g49
(g50
g51
NtRp226
(dp227
g54
(dp228
g62
I5
ssg63
g222
sg56
(lp229
S'default'
p230
asbasbasbag49
(g65
g51
NtRp231
(dp232
g54
(dp233
sg63
g59
sg56
(lp234
g49
(g70
g51
NtRp235
(dp236
g54
(dp237
g74
g75
ssg63
g231
sg56
(lp238
S'cookies'
p239
asbag49
(g70
g51
NtRp240
(dp241
g54
(dp242
g81
g82
ssg63
g231
sg56
(lp243
S':'
asbag49
(g70
g51
NtRp244
(dp245
g54
(dp246
sg63
g231
sg56
(lp247
g49
(g50
g51
NtRp248
(dp249
g54
(dp250
g62
I5
ssg63
g244
sg56
(lp251
g49
(g58
g51
NtRp252
(dp253
g54
(dp254
g62
I4
ssg63
Nsg56
(lp255
g49
(g65
g51
NtRp256
(dp257
g54
(dp258
sg63
g252
sg56
(lp259
g49
(g70
g51
NtRp260
(dp261
g54
(dp262
g74
g75
ssg63
g256
sg56
(lp263
S'session_id_admin'
p264
asbag49
(g70
g51
NtRp265
(dp266
g54
(dp267
g81
g82
ssg63
g256
sg56
(lp268
S':'
asbag49
(g70
g51
NtRp269
(dp270
g54
(dp271
sg63
g256
sg56
(lp272
g49
(g50
g51
NtRp273
(dp274
g54
(dp275
g62
I4
ssg63
g269
sg56
(lp276
g49
(g58
g51
NtRp277
(dp278
g54
(dp279
g62
I3
ssg63
Nsg56
(lp280
g49
(g65
g51
NtRp281
(dp282
g54
(dp283
sg63
g277
sg56
(lp284
g49
(g70
g51
NtRp285
(dp286
g54
(dp287
g74
g75
ssg63
g281
sg56
(lp288
S'comment'
p289
asbag49
(g70
g51
NtRp290
(dp291
g54
(dp292
g81
g82
ssg63
g281
sg56
(lp293
S':'
asbag49
(g70
g51
NtRp294
(dp295
g54
(dp296
sg63
g281
sg56
(lp297
g49
(g50
g51
NtRp298
(dp299
g54
(dp300
g62
I3
ssg63
g294
sg56
(lp301
S''
asbasbasbag49
(g65
g51
NtRp302
(dp303
g54
(dp304
sg63
g277
sg56
(lp305
g49
(g70
g51
NtRp306
(dp307
g54
(dp308
g74
g75
ssg63
g302
sg56
(lp309
S'domain'
p310
asbag49
(g70
g51
NtRp311
(dp312
g54
(dp313
g81
g82
ssg63
g302
sg56
(lp314
S':'
asbag49
(g70
g51
NtRp315
(dp316
g54
(dp317
sg63
g302
sg56
(lp318
g49
(g50
g51
NtRp319
(dp320
g54
(dp321
g62
I3
ssg63
g315
sg56
(lp322
S''
asbasbasbag49
(g65
g51
NtRp323
(dp324
g54
(dp325
sg63
g277
sg56
(lp326
g49
(g70
g51
NtRp327
(dp328
g54
(dp329
g74
g75
ssg63
g323
sg56
(lp330
S'expires'
p331
asbag49
(g70
g51
NtRp332
(dp333
g54
(dp334
g81
g82
ssg63
g323
sg56
(lp335
S':'
asbag49
(g70
g51
NtRp336
(dp337
g54
(dp338
sg63
g323
sg56
(lp339
g49
(g50
g51
NtRp340
(dp341
g54
(dp342
g62
I3
ssg63
g336
sg56
(lp343
S''
asbasbasbag49
(g65
g51
NtRp344
(dp345
g54
(dp346
sg63
g277
sg56
(lp347
g49
(g70
g51
NtRp348
(dp349
g54
(dp350
g74
g75
ssg63
g344
sg56
(lp351
S'max-age'
p352
asbag49
(g70
g51
NtRp353
(dp354
g54
(dp355
g81
g82
ssg63
g344
sg56
(lp356
S':'
asbag49
(g70
g51
NtRp357
(dp358
g54
(dp359
sg63
g344
sg56
(lp360
g49
(g50
g51
NtRp361
(dp362
g54
(dp363
g62
I3
ssg63
g357
sg56
(lp364
S''
asbasbasbag49
(g65
g51
NtRp365
(dp366
g54
(dp367
sg63
g277
sg56
(lp368
g49
(g70
g51
NtRp369
(dp370
g54
(dp371
g74
g75
ssg63
g365
sg56
(lp372
S'path'
p373
asbag49
(g70
g51
NtRp374
(dp375
g54
(dp376
g81
g82
ssg63
g365
sg56
(lp377
S':'
asbag49
(g70
g51
NtRp378
(dp379
g54
(dp380
sg63
g365
sg56
(lp381
g49
(g50
g51
NtRp382
(dp383
g54
(dp384
g62
I3
ssg63
g378
sg56
(lp385
S''
asbasbasbag49
(g65
g51
NtRp386
(dp387
g54
(dp388
sg63
g277
sg56
(lp389
g49
(g70
g51
NtRp390
(dp391
g54
(dp392
g74
g75
ssg63
g386
sg56
(lp393
S'secure'
p394
asbag49
(g70
g51
NtRp395
(dp396
g54
(dp397
g81
g82
ssg63
g386
sg56
(lp398
S':'
asbag49
(g70
g51
NtRp399
(dp400
g54
(dp401
sg63
g386
sg56
(lp402
g49
(g50
g51
NtRp403
(dp404
g54
(dp405
g62
I3
ssg63
g399
sg56
(lp406
S''
asbasbasbag49
(g65
g51
NtRp407
(dp408
g54
(dp409
sg63
g277
sg56
(lp410
g49
(g70
g51
NtRp411
(dp412
g54
(dp413
g74
g75
ssg63
g407
sg56
(lp414
S'version'
p415
asbag49
(g70
g51
NtRp416
(dp417
g54
(dp418
g81
g82
ssg63
g407
sg56
(lp419
S':'
asbag49
(g70
g51
NtRp420
(dp421
g54
(dp422
sg63
g407
sg56
(lp423
g49
(g50
g51
NtRp424
(dp425
g54
(dp426
g62
I3
ssg63
g420
sg56
(lp427
S''
asbasbasbasbasbasbasbag49
(g65
g51
NtRp428
(dp429
g54
(dp430
sg63
g252
sg56
(lp431
g49
(g70
g51
NtRp432
(dp433
g54
(dp434
g74
g75
ssg63
g428
sg56
(lp435
S'session_id_klaas'
p436
asbag49
(g70
g51
NtRp437
(dp438
g54
(dp439
g81
g82
ssg63
g428
sg56
(lp440
S':'
asbag49
(g70
g51
NtRp441
(dp442
g54
(dp443
sg63
g428
sg56
(lp444
g49
(g50
g51
NtRp445
(dp446
g54
(dp447
g62
I4
ssg63
g441
sg56
(lp448
g49
(g58
g51
NtRp449
(dp450
g54
(dp451
g62
I3
ssg63
Nsg56
(lp452
g49
(g65
g51
NtRp453
(dp454
g54
(dp455
sg63
g449
sg56
(lp456
g49
(g70
g51
NtRp457
(dp458
g54
(dp459
g74
g75
ssg63
g453
sg56
(lp460
g289
asbag49
(g70
g51
NtRp461
(dp462
g54
(dp463
g81
g82
ssg63
g453
sg56
(lp464
S':'
asbag49
(g70
g51
NtRp465
(dp466
g54
(dp467
sg63
g453
sg56
(lp468
g49
(g50
g51
NtRp469
(dp470
g54
(dp471
g62
I3
ssg63
g465
sg56
(lp472
S''
asbasbasbag49
(g65
g51
NtRp473
(dp474
g54
(dp475
sg63
g449
sg56
(lp476
g49
(g70
g51
NtRp477
(dp478
g54
(dp479
g74
g75
ssg63
g473
sg56
(lp480
g310
asbag49
(g70
g51
NtRp481
(dp482
g54
(dp483
g81
g82
ssg63
g473
sg56
(lp484
S':'
asbag49
(g70
g51
NtRp485
(dp486
g54
(dp487
sg63
g473
sg56
(lp488
g49
(g50
g51
NtRp489
(dp490
g54
(dp491
g62
I3
ssg63
g485
sg56
(lp492
S''
asbasbasbag49
(g65
g51
NtRp493
(dp494
g54
(dp495
sg63
g449
sg56
(lp496
g49
(g70
g51
NtRp497
(dp498
g54
(dp499
g74
g75
ssg63
g493
sg56
(lp500
g331
asbag49
(g70
g51
NtRp501
(dp502
g54
(dp503
g81
g82
ssg63
g493
sg56
(lp504
S':'
asbag49
(g70
g51
NtRp505
(dp506
g54
(dp507
sg63
g493
sg56
(lp508
g49
(g50
g51
NtRp509
(dp510
g54
(dp511
g62
I3
ssg63
g505
sg56
(lp512
S''
asbasbasbag49
(g65
g51
NtRp513
(dp514
g54
(dp515
sg63
g449
sg56
(lp516
g49
(g70
g51
NtRp517
(dp518
g54
(dp519
g74
g75
ssg63
g513
sg56
(lp520
g352
asbag49
(g70
g51
NtRp521
(dp522
g54
(dp523
g81
g82
ssg63
g513
sg56
(lp524
S':'
asbag49
(g70
g51
NtRp525
(dp526
g54
(dp527
sg63
g513
sg56
(lp528
g49
(g50
g51
NtRp529
(dp530
g54
(dp531
g62
I3
ssg63
g525
sg56
(lp532
S''
asbasbasbag49
(g65
g51
NtRp533
(dp534
g54
(dp535
sg63
g449
sg56
(lp536
g49
(g70
g51
NtRp537
(dp538
g54
(dp539
g74
g75
ssg63
g533
sg56
(lp540
g373
asbag49
(g70
g51
NtRp541
(dp542
g54
(dp543
g81
g82
ssg63
g533
sg56
(lp544
S':'
asbag49
(g70
g51
NtRp545
(dp546
g54
(dp547
sg63
g533
sg56
(lp548
g49
(g50
g51
NtRp549
(dp550
g54
(dp551
g62
I3
ssg63
g545
sg56
(lp552
S''
asbasbasbag49
(g65
g51
NtRp553
(dp554
g54
(dp555
sg63
g449
sg56
(lp556
g49
(g70
g51
NtRp557
(dp558
g54
(dp559
g74
g75
ssg63
g553
sg56
(lp560
g394
asbag49
(g70
g51
NtRp561
(dp562
g54
(dp563
g81
g82
ssg63
g553
sg56
(lp564
S':'
asbag49
(g70
g51
NtRp565
(dp566
g54
(dp567
sg63
g553
sg56
(lp568
g49
(g50
g51
NtRp569
(dp570
g54
(dp571
g62
I3
ssg63
g565
sg56
(lp572
S''
asbasbasbag49
(g65
g51
NtRp573
(dp574
g54
(dp575
sg63
g449
sg56
(lp576
g49
(g70
g51
NtRp577
(dp578
g54
(dp579
g74
g75
ssg63
g573
sg56
(lp580
g415
asbag49
(g70
g51
NtRp581
(dp582
g54
(dp583
g81
g82
ssg63
g573
sg56
(lp584
S':'
asbag49
(g70
g51
NtRp585
(dp586
g54
(dp587
sg63
g573
sg56
(lp588
g49
(g50
g51
NtRp589
(dp590
g54
(dp591
g62
I3
ssg63
g585
sg56
(lp592
S''
asbasbasbasbasbasbasbag49
(g65
g51
NtRp593
(dp594
g54
(dp595
sg63
g252
sg56
(lp596
g49
(g70
g51
NtRp597
(dp598
g54
(dp599
g74
g75
ssg63
g593
sg56
(lp600
S'session_id_parleyweb'
p601
asbag49
(g70
g51
NtRp602
(dp603
g54
(dp604
g81
g82
ssg63
g593
sg56
(lp605
S':'
asbag49
(g70
g51
NtRp606
(dp607
g54
(dp608
sg63
g593
sg56
(lp609
g49
(g50
g51
NtRp610
(dp611
g54
(dp612
g62
I4
ssg63
g606
sg56
(lp613
g49
(g58
g51
NtRp614
(dp615
g54
(dp616
g62
I3
ssg63
Nsg56
(lp617
g49
(g65
g51
NtRp618
(dp619
g54
(dp620
sg63
g614
sg56
(lp621
g49
(g70
g51
NtRp622
(dp623
g54
(dp624
g74
g75
ssg63
g618
sg56
(lp625
g289
asbag49
(g70
g51
NtRp626
(dp627
g54
(dp628
g81
g82
ssg63
g618
sg56
(lp629
S':'
asbag49
(g70
g51
NtRp630
(dp631
g54
(dp632
sg63
g618
sg56
(lp633
g49
(g50
g51
NtRp634
(dp635
g54
(dp636
g62
I3
ssg63
g630
sg56
(lp637
S''
asbasbasbag49
(g65
g51
NtRp638
(dp639
g54
(dp640
sg63
g614
sg56
(lp641
g49
(g70
g51
NtRp642
(dp643
g54
(dp644
g74
g75
ssg63
g638
sg56
(lp645
g310
asbag49
(g70
g51
NtRp646
(dp647
g54
(dp648
g81
g82
ssg63
g638
sg56
(lp649
S':'
asbag49
(g70
g51
NtRp650
(dp651
g54
(dp652
sg63
g638
sg56
(lp653
g49
(g50
g51
NtRp654
(dp655
g54
(dp656
g62
I3
ssg63
g650
sg56
(lp657
S''
asbasbasbag49
(g65
g51
NtRp658
(dp659
g54
(dp660
sg63
g614
sg56
(lp661
g49
(g70
g51
NtRp662
(dp663
g54
(dp664
g74
g75
ssg63
g658
sg56
(lp665
g331
asbag49
(g70
g51
NtRp666
(dp667
g54
(dp668
g81
g82
ssg63
g658
sg56
(lp669
S':'
asbag49
(g70
g51
NtRp670
(dp671
g54
(dp672
sg63
g658
sg56
(lp673
g49
(g50
g51
NtRp674
(dp675
g54
(dp676
g62
I3
ssg63
g670
sg56
(lp677
S''
asbasbasbag49
(g65
g51
NtRp678
(dp679
g54
(dp680
sg63
g614
sg56
(lp681
g49
(g70
g51
NtRp682
(dp683
g54
(dp684
g74
g75
ssg63
g678
sg56
(lp685
g352
asbag49
(g70
g51
NtRp686
(dp687
g54
(dp688
g81
g82
ssg63
g678
sg56
(lp689
S':'
asbag49
(g70
g51
NtRp690
(dp691
g54
(dp692
sg63
g678
sg56
(lp693
g49
(g50
g51
NtRp694
(dp695
g54
(dp696
g62
I3
ssg63
g690
sg56
(lp697
S''
asbasbasbag49
(g65
g51
NtRp698
(dp699
g54
(dp700
sg63
g614
sg56
(lp701
g49
(g70
g51
NtRp702
(dp703
g54
(dp704
g74
g75
ssg63
g698
sg56
(lp705
g373
asbag49
(g70
g51
NtRp706
(dp707
g54
(dp708
g81
g82
ssg63
g698
sg56
(lp709
S':'
asbag49
(g70
g51
NtRp710
(dp711
g54
(dp712
sg63
g698
sg56
(lp713
g49
(g50
g51
NtRp714
(dp715
g54
(dp716
g62
I3
ssg63
g710
sg56
(lp717
S''
asbasbasbag49
(g65
g51
NtRp718
(dp719
g54
(dp720
sg63
g614
sg56
(lp721
g49
(g70
g51
NtRp722
(dp723
g54
(dp724
g74
g75
ssg63
g718
sg56
(lp725
g394
asbag49
(g70
g51
NtRp726
(dp727
g54
(dp728
g81
g82
ssg63
g718
sg56
(lp729
S':'
asbag49
(g70
g51
NtRp730
(dp731
g54
(dp732
sg63
g718
sg56
(lp733
g49
(g50
g51
NtRp734
(dp735
g54
(dp736
g62
I3
ssg63
g730
sg56
(lp737
S''
asbasbasbag49
(g65
g51
NtRp738
(dp739
g54
(dp740
sg63
g614
sg56
(lp741
g49
(g70
g51
NtRp742
(dp743
g54
(dp744
g74
g75
ssg63
g738
sg56
(lp745
g415
asbag49
(g70
g51
NtRp746
(dp747
g54
(dp748
g81
g82
ssg63
g738
sg56
(lp749
S':'
asbag49
(g70
g51
NtRp750
(dp751
g54
(dp752
sg63
g738
sg56
(lp753
g49
(g50
g51
NtRp754
(dp755
g54
(dp756
g62
I3
ssg63
g750
sg56
(lp757
S''
asbasbasbasbasbasbasbasbasbasbasbag49
(g65
g51
NtRp758
(dp759
g54
(dp760
sg63
g59
sg56
(lp761
g49
(g70
g51
NtRp762
(dp763
g54
(dp764
g74
g75
ssg63
g758
sg56
(lp765
S'env'
p766
asbag49
(g70
g51
NtRp767
(dp768
g54
(dp769
g81
g82
ssg63
g758
sg56
(lp770
S':'
asbag49
(g70
g51
NtRp771
(dp772
g54
(dp773
sg63
g758
sg56
(lp774
g49
(g50
g51
NtRp775
(dp776
g54
(dp777
g62
I5
ssg63
g771
sg56
(lp778
g49
(g58
g51
NtRp779
(dp780
g54
(dp781
g62
I4
ssg63
Nsg56
(lp782
g49
(g65
g51
NtRp783
(dp784
g54
(dp785
sg63
g779
sg56
(lp786
g49
(g70
g51
NtRp787
(dp788
g54
(dp789
g74
g75
ssg63
g783
sg56
(lp790
S'app_folders'
p791
asbag49
(g70
g51
NtRp792
(dp793
g54
(dp794
g81
g82
ssg63
g783
sg56
(lp795
S':'
asbag49
(g70
g51
NtRp796
(dp797
g54
(dp798
sg63
g783
sg56
(lp799
g49
(g50
g51
NtRp800
(dp801
g54
(dp802
g62
I4
ssg63
g796
sg56
(lp803
S"set(['D:\\\\Dise\\xf1o Web\\\\Proyectos\\\\Parleyweb\\\\web2py\\\\applications\\\\admin\\\\', 'D:\\\\Dise\\xf1o Web\\\\Proyectos\\\\Parleyweb\\\\web2py\\\\applications\\\\welcome\\\\', 'D:\\\\Dise\\xf1o Web\\\\Proyectos\\\\Parleyweb\\\\web2py\\\\applications\\\\parleyweb\\\\'])"
p804
asbasbasbag49
(g65
g51
NtRp805
(dp806
g54
(dp807
sg63
g779
sg56
(lp808
g49
(g70
g51
NtRp809
(dp810
g54
(dp811
g74
g75
ssg63
g805
sg56
(lp812
S'applications_parent'
p813
asbag49
(g70
g51
NtRp814
(dp815
g54
(dp816
g81
g82
ssg63
g805
sg56
(lp817
S':'
asbag49
(g70
g51
NtRp818
(dp819
g54
(dp820
sg63
g805
sg56
(lp821
g49
(g50
g51
NtRp822
(dp823
g54
(dp824
g62
I4
ssg63
g818
sg56
(lp825
S'D:\\Dise\xf1o Web\\Proyectos\\Parleyweb\\web2py'
p826
asbasbasbag49
(g65
g51
NtRp827
(dp828
g54
(dp829
sg63
g779
sg56
(lp830
g49
(g70
g51
NtRp831
(dp832
g54
(dp833
g74
g75
ssg63
g827
sg56
(lp834
S'cmd_args'
p835
asbag49
(g70
g51
NtRp836
(dp837
g54
(dp838
g81
g82
ssg63
g827
sg56
(lp839
S':'
asbag49
(g70
g51
NtRp840
(dp841
g54
(dp842
sg63
g827
sg56
(lp843
g49
(g50
g51
NtRp844
(dp845
g54
(dp846
g62
I4
ssg63
g840
sg56
(lp847
g49
(g58
g51
NtRp848
(dp849
g54
(dp850
g62
I3
ssg63
Nsg56
(lp851
sbasbasbasbag49
(g65
g51
NtRp852
(dp853
g54
(dp854
sg63
g779
sg56
(lp855
g49
(g70
g51
NtRp856
(dp857
g54
(dp858
g74
g75
ssg63
g852
sg56
(lp859
S'cmd_options'
p860
asbag49
(g70
g51
NtRp861
(dp862
g54
(dp863
g81
g82
ssg63
g852
sg56
(lp864
S':'
asbag49
(g70
g51
NtRp865
(dp866
g54
(dp867
sg63
g852
sg56
(lp868
g49
(g50
g51
NtRp869
(dp870
g54
(dp871
g62
I4
ssg63
g865
sg56
(lp872
S"<Values at 0x311ff30: {'verbose': False, 'ip': '127.0.0.1', 'shutdown_timeout': 5, 'taskbar': False, 'nocron': False, 'pid_filename': 'httpserver.pid', 'maxthreads': None, 'softcron': False, 'server_name': 'craxsnet-PC', 'bpython': False, 'nogui': False, 'port': 8000, 'extcron': False, 'debuglevel': 30, 'test': None, 'folder': 'D:\\\\Dise\\xf1o Web\\\\Proyectos\\\\Parleyweb\\\\web2py', 'config': '', 'import_models': False, 'winservice': '', 'shell': None, 'run': '', 'log_filename': 'httpserver.log', 'args': [''], 'socket_timeout': 5, 'ssl_ca_certificate': None, 'scheduler': None, 'profiler_filename': None, 'ssl_private_key': '', 'password': '<ask>', 'request_queue_size': 5, 'ssl_certificate': '', 'cronjob': False, 'numthreads': None, 'quiet': False, 'interfaces': None, 'minthreads': None, 'timeout': 10, 'plain': False, 'nobanner': False}>"
p873
asbasbasbag49
(g65
g51
NtRp874
(dp875
g54
(dp876
sg63
g779
sg56
(lp877
g49
(g70
g51
NtRp878
(dp879
g54
(dp880
g74
g75
ssg63
g874
sg56
(lp881
S'db_sessions'
p882
asbag49
(g70
g51
NtRp883
(dp884
g54
(dp885
g81
g82
ssg63
g874
sg56
(lp886
S':'
asbag49
(g70
g51
NtRp887
(dp888
g54
(dp889
sg63
g874
sg56
(lp890
g49
(g50
g51
NtRp891
(dp892
g54
(dp893
g62
I4
ssg63
g887
sg56
(lp894
S'set([])'
p895
asbasbasbag49
(g65
g51
NtRp896
(dp897
g54
(dp898
sg63
g779
sg56
(lp899
g49
(g70
g51
NtRp900
(dp901
g54
(dp902
g74
g75
ssg63
g896
sg56
(lp903
S'debugging'
p904
asbag49
(g70
g51
NtRp905
(dp906
g54
(dp907
g81
g82
ssg63
g896
sg56
(lp908
S':'
asbag49
(g70
g51
NtRp909
(dp910
g54
(dp911
sg63
g896
sg56
(lp912
g49
(g50
g51
NtRp913
(dp914
g54
(dp915
g62
I4
ssg63
g909
sg56
(lp916
g92
asbasbasbag49
(g65
g51
NtRp917
(dp918
g54
(dp919
sg63
g779
sg56
(lp920
g49
(g70
g51
NtRp921
(dp922
g54
(dp923
g74
g75
ssg63
g917
sg56
(lp924
S'gluon_parent'
p925
asbag49
(g70
g51
NtRp926
(dp927
g54
(dp928
g81
g82
ssg63
g917
sg56
(lp929
S':'
asbag49
(g70
g51
NtRp930
(dp931
g54
(dp932
sg63
g917
sg56
(lp933
g49
(g50
g51
NtRp934
(dp935
g54
(dp936
g62
I4
ssg63
g930
sg56
(lp937
S'D:\\Dise\xf1o Web\\Proyectos\\Parleyweb\\web2py'
p938
asbasbasbag49
(g65
g51
NtRp939
(dp940
g54
(dp941
sg63
g779
sg56
(lp942
g49
(g70
g51
NtRp943
(dp944
g54
(dp945
g74
g75
ssg63
g939
sg56
(lp946
S'http_accept'
p947
asbag49
(g70
g51
NtRp948
(dp949
g54
(dp950
g81
g82
ssg63
g939
sg56
(lp951
S':'
asbag49
(g70
g51
NtRp952
(dp953
g54
(dp954
sg63
g939
sg56
(lp955
g49
(g50
g51
NtRp956
(dp957
g54
(dp958
g62
I4
ssg63
g952
sg56
(lp959
S'text/html,application/xhtml+xml,application/xml;q=0.9,*/*;q=0.8'
p960
asbasbasbag49
(g65
g51
NtRp961
(dp962
g54
(dp963
sg63
g779
sg56
(lp964
g49
(g70
g51
NtRp965
(dp966
g54
(dp967
g74
g75
ssg63
g961
sg56
(lp968
S'http_accept_encoding'
p969
asbag49
(g70
g51
NtRp970
(dp971
g54
(dp972
g81
g82
ssg63
g961
sg56
(lp973
S':'
asbag49
(g70
g51
NtRp974
(dp975
g54
(dp976
sg63
g961
sg56
(lp977
g49
(g50
g51
NtRp978
(dp979
g54
(dp980
g62
I4
ssg63
g974
sg56
(lp981
S'gzip, deflate'
p982
asbasbasbag49
(g65
g51
NtRp983
(dp984
g54
(dp985
sg63
g779
sg56
(lp986
g49
(g70
g51
NtRp987
(dp988
g54
(dp989
g74
g75
ssg63
g983
sg56
(lp990
S'http_accept_language'
p991
asbag49
(g70
g51
NtRp992
(dp993
g54
(dp994
g81
g82
ssg63
g983
sg56
(lp995
S':'
asbag49
(g70
g51
NtRp996
(dp997
g54
(dp998
sg63
g983
sg56
(lp999
g49
(g50
g51
NtRp1000
(dp1001
g54
(dp1002
g62
I4
ssg63
g996
sg56
(lp1003
S'es-es,de-de;q=0.8,es;q=0.6,en-us;q=0.4,en;q=0.2'
p1004
asbasbasbag49
(g65
g51
NtRp1005
(dp1006
g54
(dp1007
sg63
g779
sg56
(lp1008
g49
(g70
g51
NtRp1009
(dp1010
g54
(dp1011
g74
g75
ssg63
g1005
sg56
(lp1012
S'http_connection'
p1013
asbag49
(g70
g51
NtRp1014
(dp1015
g54
(dp1016
g81
g82
ssg63
g1005
sg56
(lp1017
S':'
asbag49
(g70
g51
NtRp1018
(dp1019
g54
(dp1020
sg63
g1005
sg56
(lp1021
g49
(g50
g51
NtRp1022
(dp1023
g54
(dp1024
g62
I4
ssg63
g1018
sg56
(lp1025
S'keep-alive'
p1026
asbasbasbag49
(g65
g51
NtRp1027
(dp1028
g54
(dp1029
sg63
g779
sg56
(lp1030
g49
(g70
g51
NtRp1031
(dp1032
g54
(dp1033
g74
g75
ssg63
g1027
sg56
(lp1034
S'http_cookie'
p1035
asbag49
(g70
g51
NtRp1036
(dp1037
g54
(dp1038
g81
g82
ssg63
g1027
sg56
(lp1039
S':'
asbag49
(g70
g51
NtRp1040
(dp1041
g54
(dp1042
sg63
g1027
sg56
(lp1043
g49
(g50
g51
NtRp1044
(dp1045
g54
(dp1046
g62
I4
ssg63
g1040
sg56
(lp1047
S'__utma=96992031.26429765.1325029743.1325029743.1326549329.2; __utmz=96992031.1325029743.1.1.utmcsr=(direct)|utmccn=(direct)|utmcmd=(none); session_id_klaas=127.0.0.1-22979940-8cc3-49bc-9f44-0623615d817e; session_id_parleyweb=127.0.0.1-4ad37d94-4a84-49cf-9f5c-a27f320cc3b3; session_id_admin=127.0.0.1-a367dd8b-6ec5-4f16-a678-3cc23a396109'
p1048
asbasbasbag49
(g65
g51
NtRp1049
(dp1050
g54
(dp1051
sg63
g779
sg56
(lp1052
g49
(g70
g51
NtRp1053
(dp1054
g54
(dp1055
g74
g75
ssg63
g1049
sg56
(lp1056
S'http_host'
p1057
asbag49
(g70
g51
NtRp1058
(dp1059
g54
(dp1060
g81
g82
ssg63
g1049
sg56
(lp1061
S':'
asbag49
(g70
g51
NtRp1062
(dp1063
g54
(dp1064
sg63
g1049
sg56
(lp1065
g49
(g50
g51
NtRp1066
(dp1067
g54
(dp1068
g62
I4
ssg63
g1062
sg56
(lp1069
S'127.0.0.1:8000'
p1070
asbasbasbag49
(g65
g51
NtRp1071
(dp1072
g54
(dp1073
sg63
g779
sg56
(lp1074
g49
(g70
g51
NtRp1075
(dp1076
g54
(dp1077
g74
g75
ssg63
g1071
sg56
(lp1078
S'http_referer'
p1079
asbag49
(g70
g51
NtRp1080
(dp1081
g54
(dp1082
g81
g82
ssg63
g1071
sg56
(lp1083
S':'
asbag49
(g70
g51
NtRp1084
(dp1085
g54
(dp1086
sg63
g1071
sg56
(lp1087
g49
(g50
g51
NtRp1088
(dp1089
g54
(dp1090
g62
I4
ssg63
g1084
sg56
(lp1091
S'http://127.0.0.1:8000/parleyweb/admin/agregar_palabra'
p1092
asbasbasbag49
(g65
g51
NtRp1093
(dp1094
g54
(dp1095
sg63
g779
sg56
(lp1096
g49
(g70
g51
NtRp1097
(dp1098
g54
(dp1099
g74
g75
ssg63
g1093
sg56
(lp1100
S'http_user_agent'
p1101
asbag49
(g70
g51
NtRp1102
(dp1103
g54
(dp1104
g81
g82
ssg63
g1093
sg56
(lp1105
S':'
asbag49
(g70
g51
NtRp1106
(dp1107
g54
(dp1108
sg63
g1093
sg56
(lp1109
g49
(g50
g51
NtRp1110
(dp1111
g54
(dp1112
g62
I4
ssg63
g1106
sg56
(lp1113
S'Mozilla/5.0 (Windows NT 6.1; WOW64; rv:10.0.2) Gecko/20100101 Firefox/10.0.2'
p1114
asbasbasbag49
(g65
g51
NtRp1115
(dp1116
g54
(dp1117
sg63
g779
sg56
(lp1118
g49
(g70
g51
NtRp1119
(dp1120
g54
(dp1121
g74
g75
ssg63
g1115
sg56
(lp1122
S'is_jython'
p1123
asbag49
(g70
g51
NtRp1124
(dp1125
g54
(dp1126
g81
g82
ssg63
g1115
sg56
(lp1127
S':'
asbag49
(g70
g51
NtRp1128
(dp1129
g54
(dp1130
sg63
g1115
sg56
(lp1131
g49
(g50
g51
NtRp1132
(dp1133
g54
(dp1134
g62
I4
ssg63
g1128
sg56
(lp1135
g92
asbasbasbag49
(g65
g51
NtRp1136
(dp1137
g54
(dp1138
sg63
g779
sg56
(lp1139
g49
(g70
g51
NtRp1140
(dp1141
g54
(dp1142
g74
g75
ssg63
g1136
sg56
(lp1143
S'is_pypy'
p1144
asbag49
(g70
g51
NtRp1145
(dp1146
g54
(dp1147
g81
g82
ssg63
g1136
sg56
(lp1148
S':'
asbag49
(g70
g51
NtRp1149
(dp1150
g54
(dp1151
sg63
g1136
sg56
(lp1152
g49
(g50
g51
NtRp1153
(dp1154
g54
(dp1155
g62
I4
ssg63
g1149
sg56
(lp1156
g92
asbasbasbag49
(g65
g51
NtRp1157
(dp1158
g54
(dp1159
sg63
g779
sg56
(lp1160
g49
(g70
g51
NtRp1161
(dp1162
g54
(dp1163
g74
g75
ssg63
g1157
sg56
(lp1164
S'path_info'
p1165
asbag49
(g70
g51
NtRp1166
(dp1167
g54
(dp1168
g81
g82
ssg63
g1157
sg56
(lp1169
S':'
asbag49
(g70
g51
NtRp1170
(dp1171
g54
(dp1172
sg63
g1157
sg56
(lp1173
g49
(g50
g51
NtRp1174
(dp1175
g54
(dp1176
g62
I4
ssg63
g1170
sg56
(lp1177
S'/parleyweb/default/mostrar/81/finger'
p1178
asbasbasbag49
(g65
g51
NtRp1179
(dp1180
g54
(dp1181
sg63
g779
sg56
(lp1182
g49
(g70
g51
NtRp1183
(dp1184
g54
(dp1185
g74
g75
ssg63
g1179
sg56
(lp1186
S'query_string'
p1187
asbag49
(g70
g51
NtRp1188
(dp1189
g54
(dp1190
g81
g82
ssg63
g1179
sg56
(lp1191
S':'
asbag49
(g70
g51
NtRp1192
(dp1193
g54
(dp1194
sg63
g1179
sg56
(lp1195
g49
(g50
g51
NtRp1196
(dp1197
g54
(dp1198
g62
I4
ssg63
g1192
sg56
(lp1199
S''
asbasbasbag49
(g65
g51
NtRp1200
(dp1201
g54
(dp1202
sg63
g779
sg56
(lp1203
g49
(g70
g51
NtRp1204
(dp1205
g54
(dp1206
g74
g75
ssg63
g1200
sg56
(lp1207
S'remote_addr'
p1208
asbag49
(g70
g51
NtRp1209
(dp1210
g54
(dp1211
g81
g82
ssg63
g1200
sg56
(lp1212
S':'
asbag49
(g70
g51
NtRp1213
(dp1214
g54
(dp1215
sg63
g1200
sg56
(lp1216
g49
(g50
g51
NtRp1217
(dp1218
g54
(dp1219
g62
I4
ssg63
g1213
sg56
(lp1220
g208
asbasbasbag49
(g65
g51
NtRp1221
(dp1222
g54
(dp1223
sg63
g779
sg56
(lp1224
g49
(g70
g51
NtRp1225
(dp1226
g54
(dp1227
g74
g75
ssg63
g1221
sg56
(lp1228
S'remote_port'
p1229
asbag49
(g70
g51
NtRp1230
(dp1231
g54
(dp1232
g81
g82
ssg63
g1221
sg56
(lp1233
S':'
asbag49
(g70
g51
NtRp1234
(dp1235
g54
(dp1236
sg63
g1221
sg56
(lp1237
g49
(g50
g51
NtRp1238
(dp1239
g54
(dp1240
g62
I4
ssg63
g1234
sg56
(lp1241
S'53523'
p1242
asbasbasbag49
(g65
g51
NtRp1243
(dp1244
g54
(dp1245
sg63
g779
sg56
(lp1246
g49
(g70
g51
NtRp1247
(dp1248
g54
(dp1249
g74
g75
ssg63
g1243
sg56
(lp1250
S'request_method'
p1251
asbag49
(g70
g51
NtRp1252
(dp1253
g54
(dp1254
g81
g82
ssg63
g1243
sg56
(lp1255
S':'
asbag49
(g70
g51
NtRp1256
(dp1257
g54
(dp1258
sg63
g1243
sg56
(lp1259
g49
(g50
g51
NtRp1260
(dp1261
g54
(dp1262
g62
I4
ssg63
g1256
sg56
(lp1263
S'GET'
p1264
asbasbasbag49
(g65
g51
NtRp1265
(dp1266
g54
(dp1267
sg63
g779
sg56
(lp1268
g49
(g70
g51
NtRp1269
(dp1270
g54
(dp1271
g74
g75
ssg63
g1265
sg56
(lp1272
S'script_name'
p1273
asbag49
(g70
g51
NtRp1274
(dp1275
g54
(dp1276
g81
g82
ssg63
g1265
sg56
(lp1277
S':'
asbag49
(g70
g51
NtRp1278
(dp1279
g54
(dp1280
sg63
g1265
sg56
(lp1281
g49
(g50
g51
NtRp1282
(dp1283
g54
(dp1284
g62
I4
ssg63
g1278
sg56
(lp1285
S''
asbasbasbag49
(g65
g51
NtRp1286
(dp1287
g54
(dp1288
sg63
g779
sg56
(lp1289
g49
(g70
g51
NtRp1290
(dp1291
g54
(dp1292
g74
g75
ssg63
g1286
sg56
(lp1293
S'server_name'
p1294
asbag49
(g70
g51
NtRp1295
(dp1296
g54
(dp1297
g81
g82
ssg63
g1286
sg56
(lp1298
S':'
asbag49
(g70
g51
NtRp1299
(dp1300
g54
(dp1301
sg63
g1286
sg56
(lp1302
g49
(g50
g51
NtRp1303
(dp1304
g54
(dp1305
g62
I4
ssg63
g1299
sg56
(lp1306
S'craxsnet-PC'
p1307
asbasbasbag49
(g65
g51
NtRp1308
(dp1309
g54
(dp1310
sg63
g779
sg56
(lp1311
g49
(g70
g51
NtRp1312
(dp1313
g54
(dp1314
g74
g75
ssg63
g1308
sg56
(lp1315
S'server_port'
p1316
asbag49
(g70
g51
NtRp1317
(dp1318
g54
(dp1319
g81
g82
ssg63
g1308
sg56
(lp1320
S':'
asbag49
(g70
g51
NtRp1321
(dp1322
g54
(dp1323
sg63
g1308
sg56
(lp1324
g49
(g50
g51
NtRp1325
(dp1326
g54
(dp1327
g62
I4
ssg63
g1321
sg56
(lp1328
S'8000'
p1329
asbasbasbag49
(g65
g51
NtRp1330
(dp1331
g54
(dp1332
sg63
g779
sg56
(lp1333
g49
(g70
g51
NtRp1334
(dp1335
g54
(dp1336
g74
g75
ssg63
g1330
sg56
(lp1337
S'server_protocol'
p1338
asbag49
(g70
g51
NtRp1339
(dp1340
g54
(dp1341
g81
g82
ssg63
g1330
sg56
(lp1342
S':'
asbag49
(g70
g51
NtRp1343
(dp1344
g54
(dp1345
sg63
g1330
sg56
(lp1346
g49
(g50
g51
NtRp1347
(dp1348
g54
(dp1349
g62
I4
ssg63
g1343
sg56
(lp1350
S'HTTP/1.1'
p1351
asbasbasbag49
(g65
g51
NtRp1352
(dp1353
g54
(dp1354
sg63
g779
sg56
(lp1355
g49
(g70
g51
NtRp1356
(dp1357
g54
(dp1358
g74
g75
ssg63
g1352
sg56
(lp1359
S'server_software'
p1360
asbag49
(g70
g51
NtRp1361
(dp1362
g54
(dp1363
g81
g82
ssg63
g1352
sg56
(lp1364
S':'
asbag49
(g70
g51
NtRp1365
(dp1366
g54
(dp1367
sg63
g1352
sg56
(lp1368
g49
(g50
g51
NtRp1369
(dp1370
g54
(dp1371
g62
I4
ssg63
g1365
sg56
(lp1372
S'Rocket 1.2.4'
p1373
asbasbasbag49
(g65
g51
NtRp1374
(dp1375
g54
(dp1376
sg63
g779
sg56
(lp1377
g49
(g70
g51
NtRp1378
(dp1379
g54
(dp1380
g74
g75
ssg63
g1374
sg56
(lp1381
S'web2py_crontype'
p1382
asbag49
(g70
g51
NtRp1383
(dp1384
g54
(dp1385
g81
g82
ssg63
g1374
sg56
(lp1386
S':'
asbag49
(g70
g51
NtRp1387
(dp1388
g54
(dp1389
sg63
g1374
sg56
(lp1390
g49
(g50
g51
NtRp1391
(dp1392
g54
(dp1393
g62
I4
ssg63
g1387
sg56
(lp1394
S'hard'
p1395
asbasbasbag49
(g65
g51
NtRp1396
(dp1397
g54
(dp1398
sg63
g779
sg56
(lp1399
g49
(g70
g51
NtRp1400
(dp1401
g54
(dp1402
g74
g75
ssg63
g1396
sg56
(lp1403
S'web2py_path'
p1404
asbag49
(g70
g51
NtRp1405
(dp1406
g54
(dp1407
g81
g82
ssg63
g1396
sg56
(lp1408
S':'
asbag49
(g70
g51
NtRp1409
(dp1410
g54
(dp1411
sg63
g1396
sg56
(lp1412
g49
(g50
g51
NtRp1413
(dp1414
g54
(dp1415
g62
I4
ssg63
g1409
sg56
(lp1416
g826
asbasbasbag49
(g65
g51
NtRp1417
(dp1418
g54
(dp1419
sg63
g779
sg56
(lp1420
g49
(g70
g51
NtRp1421
(dp1422
g54
(dp1423
g74
g75
ssg63
g1417
sg56
(lp1424
S'web2py_version'
p1425
asbag49
(g70
g51
NtRp1426
(dp1427
g54
(dp1428
g81
g82
ssg63
g1417
sg56
(lp1429
S':'
asbag49
(g70
g51
NtRp1430
(dp1431
g54
(dp1432
sg63
g1417
sg56
(lp1433
g49
(g50
g51
NtRp1434
(dp1435
g54
(dp1436
g62
I4
ssg63
g1430
sg56
(lp1437
g49
(g58
g51
NtRp1438
(dp1439
g54
(dp1440
g62
I3
ssg63
Nsg56
(lp1441
g49
(g65
g51
NtRp1442
(dp1443
g54
(dp1444
sg63
g1438
sg56
(lp1445
g49
(g70
g51
NtRp1446
(dp1447
g54
(dp1448
sg63
g1442
sg56
(lp1449
g49
(g50
g51
NtRp1450
(dp1451
g54
(dp1452
g62
I3
ssg63
g1446
sg56
(lp1453
S'1'
asbasbasbag49
(g65
g51
NtRp1454
(dp1455
g54
(dp1456
sg63
g1438
sg56
(lp1457
g49
(g70
g51
NtRp1458
(dp1459
g54
(dp1460
sg63
g1454
sg56
(lp1461
g49
(g50
g51
NtRp1462
(dp1463
g54
(dp1464
g62
I3
ssg63
g1458
sg56
(lp1465
S'99'
p1466
asbasbasbag49
(g65
g51
NtRp1467
(dp1468
g54
(dp1469
sg63
g1438
sg56
(lp1470
g49
(g70
g51
NtRp1471
(dp1472
g54
(dp1473
sg63
g1467
sg56
(lp1474
g49
(g50
g51
NtRp1475
(dp1476
g54
(dp1477
g62
I3
ssg63
g1471
sg56
(lp1478
S'7'
asbasbasbag49
(g65
g51
NtRp1479
(dp1480
g54
(dp1481
sg63
g1438
sg56
(lp1482
g49
(g70
g51
NtRp1483
(dp1484
g54
(dp1485
sg63
g1479
sg56
(lp1486
g49
(g50
g51
NtRp1487
(dp1488
g54
(dp1489
g62
I3
ssg63
g1483
sg56
(lp1490
S'datetime.datetime(2012, 3, 4, 22, 12, 8)'
p1491
asbasbasbag49
(g65
g51
NtRp1492
(dp1493
g54
(dp1494
sg63
g1438
sg56
(lp1495
g49
(g70
g51
NtRp1496
(dp1497
g54
(dp1498
sg63
g1492
sg56
(lp1499
g49
(g50
g51
NtRp1500
(dp1501
g54
(dp1502
g62
I3
ssg63
g1496
sg56
(lp1503
S'stable'
p1504
asbasbasbasbasbasbasbag49
(g65
g51
NtRp1505
(dp1506
g54
(dp1507
sg63
g779
sg56
(lp1508
g49
(g70
g51
NtRp1509
(dp1510
g54
(dp1511
g74
g75
ssg63
g1505
sg56
(lp1512
S'wsgi_errors'
p1513
asbag49
(g70
g51
NtRp1514
(dp1515
g54
(dp1516
g81
g82
ssg63
g1505
sg56
(lp1517
S':'
asbag49
(g70
g51
NtRp1518
(dp1519
g54
(dp1520
sg63
g1505
sg56
(lp1521
g49
(g50
g51
NtRp1522
(dp1523
g54
(dp1524
g62
I4
ssg63
g1518
sg56
(lp1525
S"<open file '<stderr>', mode 'w' at 0x01FB00B0>"
p1526
asbasbasbag49
(g65
g51
NtRp1527
(dp1528
g54
(dp1529
sg63
g779
sg56
(lp1530
g49
(g70
g51
NtRp1531
(dp1532
g54
(dp1533
g74
g75
ssg63
g1527
sg56
(lp1534
S'wsgi_file_wrapper'
p1535
asbag49
(g70
g51
NtRp1536
(dp1537
g54
(dp1538
g81
g82
ssg63
g1527
sg56
(lp1539
S':'
asbag49
(g70
g51
NtRp1540
(dp1541
g54
(dp1542
sg63
g1527
sg56
(lp1543
g49
(g50
g51
NtRp1544
(dp1545
g54
(dp1546
g62
I4
ssg63
g1540
sg56
(lp1547
S'<class wsgiref.util.FileWrapper at 0x02F15390>'
p1548
asbasbasbag49
(g65
g51
NtRp1549
(dp1550
g54
(dp1551
sg63
g779
sg56
(lp1552
g49
(g70
g51
NtRp1553
(dp1554
g54
(dp1555
g74
g75
ssg63
g1549
sg56
(lp1556
S'wsgi_input'
p1557
asbag49
(g70
g51
NtRp1558
(dp1559
g54
(dp1560
g81
g82
ssg63
g1549
sg56
(lp1561
S':'
asbag49
(g70
g51
NtRp1562
(dp1563
g54
(dp1564
sg63
g1549
sg56
(lp1565
g49
(g50
g51
NtRp1566
(dp1567
g54
(dp1568
g62
I4
ssg63
g1562
sg56
(lp1569
S'<socket._fileobject object at 0x077B3F30>'
p1570
asbasbasbag49
(g65
g51
NtRp1571
(dp1572
g54
(dp1573
sg63
g779
sg56
(lp1574
g49
(g70
g51
NtRp1575
(dp1576
g54
(dp1577
g74
g75
ssg63
g1571
sg56
(lp1578
S'wsgi_multiprocess'
p1579
asbag49
(g70
g51
NtRp1580
(dp1581
g54
(dp1582
g81
g82
ssg63
g1571
sg56
(lp1583
S':'
asbag49
(g70
g51
NtRp1584
(dp1585
g54
(dp1586
sg63
g1571
sg56
(lp1587
g49
(g50
g51
NtRp1588
(dp1589
g54
(dp1590
g62
I4
ssg63
g1584
sg56
(lp1591
g92
asbasbasbag49
(g65
g51
NtRp1592
(dp1593
g54
(dp1594
sg63
g779
sg56
(lp1595
g49
(g70
g51
NtRp1596
(dp1597
g54
(dp1598
g74
g75
ssg63
g1592
sg56
(lp1599
S'wsgi_multithread'
p1600
asbag49
(g70
g51
NtRp1601
(dp1602
g54
(dp1603
g81
g82
ssg63
g1592
sg56
(lp1604
S':'
asbag49
(g70
g51
NtRp1605
(dp1606
g54
(dp1607
sg63
g1592
sg56
(lp1608
g49
(g50
g51
NtRp1609
(dp1610
g54
(dp1611
g62
I4
ssg63
g1605
sg56
(lp1612
S'True'
p1613
asbasbasbag49
(g65
g51
NtRp1614
(dp1615
g54
(dp1616
sg63
g779
sg56
(lp1617
g49
(g70
g51
NtRp1618
(dp1619
g54
(dp1620
g74
g75
ssg63
g1614
sg56
(lp1621
S'wsgi_run_once'
p1622
asbag49
(g70
g51
NtRp1623
(dp1624
g54
(dp1625
g81
g82
ssg63
g1614
sg56
(lp1626
S':'
asbag49
(g70
g51
NtRp1627
(dp1628
g54
(dp1629
sg63
g1614
sg56
(lp1630
g49
(g50
g51
NtRp1631
(dp1632
g54
(dp1633
g62
I4
ssg63
g1627
sg56
(lp1634
g92
asbasbasbag49
(g65
g51
NtRp1635
(dp1636
g54
(dp1637
sg63
g779
sg56
(lp1638
g49
(g70
g51
NtRp1639
(dp1640
g54
(dp1641
g74
g75
ssg63
g1635
sg56
(lp1642
S'wsgi_url_scheme'
p1643
asbag49
(g70
g51
NtRp1644
(dp1645
g54
(dp1646
g81
g82
ssg63
g1635
sg56
(lp1647
S':'
asbag49
(g70
g51
NtRp1648
(dp1649
g54
(dp1650
sg63
g1635
sg56
(lp1651
g49
(g50
g51
NtRp1652
(dp1653
g54
(dp1654
g62
I4
ssg63
g1648
sg56
(lp1655
S'http'
p1656
asbasbasbag49
(g65
g51
NtRp1657
(dp1658
g54
(dp1659
sg63
g779
sg56
(lp1660
g49
(g70
g51
NtRp1661
(dp1662
g54
(dp1663
g74
g75
ssg63
g1657
sg56
(lp1664
S'wsgi_version'
p1665
asbag49
(g70
g51
NtRp1666
(dp1667
g54
(dp1668
g81
g82
ssg63
g1657
sg56
(lp1669
S':'
asbag49
(g70
g51
NtRp1670
(dp1671
g54
(dp1672
sg63
g1657
sg56
(lp1673
g49
(g50
g51
NtRp1674
(dp1675
g54
(dp1676
g62
I4
ssg63
g1670
sg56
(lp1677
g49
(g58
g51
NtRp1678
(dp1679
g54
(dp1680
g62
I3
ssg63
Nsg56
(lp1681
g49
(g65
g51
NtRp1682
(dp1683
g54
(dp1684
sg63
g1678
sg56
(lp1685
g49
(g70
g51
NtRp1686
(dp1687
g54
(dp1688
sg63
g1682
sg56
(lp1689
g49
(g50
g51
NtRp1690
(dp1691
g54
(dp1692
g62
I3
ssg63
g1686
sg56
(lp1693
S'1'
asbasbasbag49
(g65
g51
NtRp1694
(dp1695
g54
(dp1696
sg63
g1678
sg56
(lp1697
g49
(g70
g51
NtRp1698
(dp1699
g54
(dp1700
sg63
g1694
sg56
(lp1701
g49
(g50
g51
NtRp1702
(dp1703
g54
(dp1704
g62
I3
ssg63
g1698
sg56
(lp1705
S'0'
asbasbasbasbasbasbasbasbasbasbasbag49
(g65
g51
NtRp1706
(dp1707
g54
(dp1708
sg63
g59
sg56
(lp1709
g49
(g70
g51
NtRp1710
(dp1711
g54
(dp1712
g74
g75
ssg63
g1706
sg56
(lp1713
S'extension'
p1714
asbag49
(g70
g51
NtRp1715
(dp1716
g54
(dp1717
g81
g82
ssg63
g1706
sg56
(lp1718
S':'
asbag49
(g70
g51
NtRp1719
(dp1720
g54
(dp1721
sg63
g1706
sg56
(lp1722
g49
(g50
g51
NtRp1723
(dp1724
g54
(dp1725
g62
I5
ssg63
g1719
sg56
(lp1726
S'html'
p1727
asbasbasbag49
(g65
g51
NtRp1728
(dp1729
g54
(dp1730
sg63
g59
sg56
(lp1731
g49
(g70
g51
NtRp1732
(dp1733
g54
(dp1734
g74
g75
ssg63
g1728
sg56
(lp1735
S'folder'
p1736
asbag49
(g70
g51
NtRp1737
(dp1738
g54
(dp1739
g81
g82
ssg63
g1728
sg56
(lp1740
S':'
asbag49
(g70
g51
NtRp1741
(dp1742
g54
(dp1743
sg63
g1728
sg56
(lp1744
g49
(g50
g51
NtRp1745
(dp1746
g54
(dp1747
g62
I5
ssg63
g1741
sg56
(lp1748
S'D:\\Dise\xf1o Web\\Proyectos\\Parleyweb\\web2py\\applications\\parleyweb\\'
p1749
asbasbasbag49
(g65
g51
NtRp1750
(dp1751
g54
(dp1752
sg63
g59
sg56
(lp1753
g49
(g70
g51
NtRp1754
(dp1755
g54
(dp1756
g74
g75
ssg63
g1750
sg56
(lp1757
S'function'
p1758
asbag49
(g70
g51
NtRp1759
(dp1760
g54
(dp1761
g81
g82
ssg63
g1750
sg56
(lp1762
S':'
asbag49
(g70
g51
NtRp1763
(dp1764
g54
(dp1765
sg63
g1750
sg56
(lp1766
g49
(g50
g51
NtRp1767
(dp1768
g54
(dp1769
g62
I5
ssg63
g1763
sg56
(lp1770
S'mostrar'
p1771
asbasbasbag49
(g65
g51
NtRp1772
(dp1773
g54
(dp1774
sg63
g59
sg56
(lp1775
g49
(g70
g51
NtRp1776
(dp1777
g54
(dp1778
g74
g75
ssg63
g1772
sg56
(lp1779
S'get_vars'
p1780
asbag49
(g70
g51
NtRp1781
(dp1782
g54
(dp1783
g81
g82
ssg63
g1772
sg56
(lp1784
S':'
asbag49
(g70
g51
NtRp1785
(dp1786
g54
(dp1787
sg63
g1772
sg56
(lp1788
g49
(g50
g51
NtRp1789
(dp1790
g54
(dp1791
g62
I5
ssg63
g1785
sg56
(lp1792
g49
(g58
g51
NtRp1793
(dp1794
g54
(dp1795
g62
I4
ssg63
Nsg56
(lp1796
sbasbasbasbag49
(g65
g51
NtRp1797
(dp1798
g54
(dp1799
sg63
g59
sg56
(lp1800
g49
(g70
g51
NtRp1801
(dp1802
g54
(dp1803
g74
g75
ssg63
g1797
sg56
(lp1804
S'global_settings'
p1805
asbag49
(g70
g51
NtRp1806
(dp1807
g54
(dp1808
g81
g82
ssg63
g1797
sg56
(lp1809
S':'
asbag49
(g70
g51
NtRp1810
(dp1811
g54
(dp1812
sg63
g1797
sg56
(lp1813
g49
(g50
g51
NtRp1814
(dp1815
g54
(dp1816
g62
I5
ssg63
g1810
sg56
(lp1817
g49
(g58
g51
NtRp1818
(dp1819
g54
(dp1820
g62
I4
ssg63
Nsg56
(lp1821
g49
(g65
g51
NtRp1822
(dp1823
g54
(dp1824
sg63
g1818
sg56
(lp1825
g49
(g70
g51
NtRp1826
(dp1827
g54
(dp1828
g74
g75
ssg63
g1822
sg56
(lp1829
g791
asbag49
(g70
g51
NtRp1830
(dp1831
g54
(dp1832
g81
g82
ssg63
g1822
sg56
(lp1833
S':'
asbag49
(g70
g51
NtRp1834
(dp1835
g54
(dp1836
sg63
g1822
sg56
(lp1837
g49
(g50
g51
NtRp1838
(dp1839
g54
(dp1840
g62
I4
ssg63
g1834
sg56
(lp1841
S"set(['D:\\\\Dise\\xf1o Web\\\\Proyectos\\\\Parleyweb\\\\web2py\\\\applications\\\\admin\\\\', 'D:\\\\Dise\\xf1o Web\\\\Proyectos\\\\Parleyweb\\\\web2py\\\\applications\\\\welcome\\\\', 'D:\\\\Dise\\xf1o Web\\\\Proyectos\\\\Parleyweb\\\\web2py\\\\applications\\\\parleyweb\\\\'])"
p1842
asbasbasbag49
(g65
g51
NtRp1843
(dp1844
g54
(dp1845
sg63
g1818
sg56
(lp1846
g49
(g70
g51
NtRp1847
(dp1848
g54
(dp1849
g74
g75
ssg63
g1843
sg56
(lp1850
g813
asbag49
(g70
g51
NtRp1851
(dp1852
g54
(dp1853
g81
g82
ssg63
g1843
sg56
(lp1854
S':'
asbag49
(g70
g51
NtRp1855
(dp1856
g54
(dp1857
sg63
g1843
sg56
(lp1858
g49
(g50
g51
NtRp1859
(dp1860
g54
(dp1861
g62
I4
ssg63
g1855
sg56
(lp1862
g826
asbasbasbag49
(g65
g51
NtRp1863
(dp1864
g54
(dp1865
sg63
g1818
sg56
(lp1866
g49
(g70
g51
NtRp1867
(dp1868
g54
(dp1869
g74
g75
ssg63
g1863
sg56
(lp1870
g835
asbag49
(g70
g51
NtRp1871
(dp1872
g54
(dp1873
g81
g82
ssg63
g1863
sg56
(lp1874
S':'
asbag49
(g70
g51
NtRp1875
(dp1876
g54
(dp1877
sg63
g1863
sg56
(lp1878
g49
(g50
g51
NtRp1879
(dp1880
g54
(dp1881
g62
I4
ssg63
g1875
sg56
(lp1882
g49
(g58
g51
NtRp1883
(dp1884
g54
(dp1885
g62
I3
ssg63
Nsg56
(lp1886
sbasbasbasbag49
(g65
g51
NtRp1887
(dp1888
g54
(dp1889
sg63
g1818
sg56
(lp1890
g49
(g70
g51
NtRp1891
(dp1892
g54
(dp1893
g74
g75
ssg63
g1887
sg56
(lp1894
g860
asbag49
(g70
g51
NtRp1895
(dp1896
g54
(dp1897
g81
g82
ssg63
g1887
sg56
(lp1898
S':'
asbag49
(g70
g51
NtRp1899
(dp1900
g54
(dp1901
sg63
g1887
sg56
(lp1902
g49
(g50
g51
NtRp1903
(dp1904
g54
(dp1905
g62
I4
ssg63
g1899
sg56
(lp1906
S"<Values at 0x311ff30: {'verbose': False, 'ip': '127.0.0.1', 'shutdown_timeout': 5, 'taskbar': False, 'nocron': False, 'pid_filename': 'httpserver.pid', 'maxthreads': None, 'softcron': False, 'server_name': 'craxsnet-PC', 'bpython': False, 'nogui': False, 'port': 8000, 'extcron': False, 'debuglevel': 30, 'test': None, 'folder': 'D:\\\\Dise\\xf1o Web\\\\Proyectos\\\\Parleyweb\\\\web2py', 'config': '', 'import_models': False, 'winservice': '', 'shell': None, 'run': '', 'log_filename': 'httpserver.log', 'args': [''], 'socket_timeout': 5, 'ssl_ca_certificate': None, 'scheduler': None, 'profiler_filename': None, 'ssl_private_key': '', 'password': '<ask>', 'request_queue_size': 5, 'ssl_certificate': '', 'cronjob': False, 'numthreads': None, 'quiet': False, 'interfaces': None, 'minthreads': None, 'timeout': 10, 'plain': False, 'nobanner': False}>"
p1907
asbasbasbag49
(g65
g51
NtRp1908
(dp1909
g54
(dp1910
sg63
g1818
sg56
(lp1911
g49
(g70
g51
NtRp1912
(dp1913
g54
(dp1914
g74
g75
ssg63
g1908
sg56
(lp1915
g882
asbag49
(g70
g51
NtRp1916
(dp1917
g54
(dp1918
g81
g82
ssg63
g1908
sg56
(lp1919
S':'
asbag49
(g70
g51
NtRp1920
(dp1921
g54
(dp1922
sg63
g1908
sg56
(lp1923
g49
(g50
g51
NtRp1924
(dp1925
g54
(dp1926
g62
I4
ssg63
g1920
sg56
(lp1927
S'set([])'
p1928
asbasbasbag49
(g65
g51
NtRp1929
(dp1930
g54
(dp1931
sg63
g1818
sg56
(lp1932
g49
(g70
g51
NtRp1933
(dp1934
g54
(dp1935
g74
g75
ssg63
g1929
sg56
(lp1936
g904
asbag49
(g70
g51
NtRp1937
(dp1938
g54
(dp1939
g81
g82
ssg63
g1929
sg56
(lp1940
S':'
asbag49
(g70
g51
NtRp1941
(dp1942
g54
(dp1943
sg63
g1929
sg56
(lp1944
g49
(g50
g51
NtRp1945
(dp1946
g54
(dp1947
g62
I4
ssg63
g1941
sg56
(lp1948
g92
asbasbasbag49
(g65
g51
NtRp1949
(dp1950
g54
(dp1951
sg63
g1818
sg56
(lp1952
g49
(g70
g51
NtRp1953
(dp1954
g54
(dp1955
g74
g75
ssg63
g1949
sg56
(lp1956
g925
asbag49
(g70
g51
NtRp1957
(dp1958
g54
(dp1959
g81
g82
ssg63
g1949
sg56
(lp1960
S':'
asbag49
(g70
g51
NtRp1961
(dp1962
g54
(dp1963
sg63
g1949
sg56
(lp1964
g49
(g50
g51
NtRp1965
(dp1966
g54
(dp1967
g62
I4
ssg63
g1961
sg56
(lp1968
g938
asbasbasbag49
(g65
g51
NtRp1969
(dp1970
g54
(dp1971
sg63
g1818
sg56
(lp1972
g49
(g70
g51
NtRp1973
(dp1974
g54
(dp1975
g74
g75
ssg63
g1969
sg56
(lp1976
g1123
asbag49
(g70
g51
NtRp1977
(dp1978
g54
(dp1979
g81
g82
ssg63
g1969
sg56
(lp1980
S':'
asbag49
(g70
g51
NtRp1981
(dp1982
g54
(dp1983
sg63
g1969
sg56
(lp1984
g49
(g50
g51
NtRp1985
(dp1986
g54
(dp1987
g62
I4
ssg63
g1981
sg56
(lp1988
g92
asbasbasbag49
(g65
g51
NtRp1989
(dp1990
g54
(dp1991
sg63
g1818
sg56
(lp1992
g49
(g70
g51
NtRp1993
(dp1994
g54
(dp1995
g74
g75
ssg63
g1989
sg56
(lp1996
g1144
asbag49
(g70
g51
NtRp1997
(dp1998
g54
(dp1999
g81
g82
ssg63
g1989
sg56
(lp2000
S':'
asbag49
(g70
g51
NtRp2001
(dp2002
g54
(dp2003
sg63
g1989
sg56
(lp2004
g49
(g50
g51
NtRp2005
(dp2006
g54
(dp2007
g62
I4
ssg63
g2001
sg56
(lp2008
g92
asbasbasbag49
(g65
g51
NtRp2009
(dp2010
g54
(dp2011
sg63
g1818
sg56
(lp2012
g49
(g70
g51
NtRp2013
(dp2014
g54
(dp2015
g74
g75
ssg63
g2009
sg56
(lp2016
g1382
asbag49
(g70
g51
NtRp2017
(dp2018
g54
(dp2019
g81
g82
ssg63
g2009
sg56
(lp2020
S':'
asbag49
(g70
g51
NtRp2021
(dp2022
g54
(dp2023
sg63
g2009
sg56
(lp2024
g49
(g50
g51
NtRp2025
(dp2026
g54
(dp2027
g62
I4
ssg63
g2021
sg56
(lp2028
g1395
asbasbasbag49
(g65
g51
NtRp2029
(dp2030
g54
(dp2031
sg63
g1818
sg56
(lp2032
g49
(g70
g51
NtRp2033
(dp2034
g54
(dp2035
g74
g75
ssg63
g2029
sg56
(lp2036
g1425
asbag49
(g70
g51
NtRp2037
(dp2038
g54
(dp2039
g81
g82
ssg63
g2029
sg56
(lp2040
S':'
asbag49
(g70
g51
NtRp2041
(dp2042
g54
(dp2043
sg63
g2029
sg56
(lp2044
g49
(g50
g51
NtRp2045
(dp2046
g54
(dp2047
g62
I4
ssg63
g2041
sg56
(lp2048
g49
(g58
g51
NtRp2049
(dp2050
g54
(dp2051
g62
I3
ssg63
Nsg56
(lp2052
g49
(g65
g51
NtRp2053
(dp2054
g54
(dp2055
sg63
g2049
sg56
(lp2056
g49
(g70
g51
NtRp2057
(dp2058
g54
(dp2059
sg63
g2053
sg56
(lp2060
g49
(g50
g51
NtRp2061
(dp2062
g54
(dp2063
g62
I3
ssg63
g2057
sg56
(lp2064
S'1'
asbasbasbag49
(g65
g51
NtRp2065
(dp2066
g54
(dp2067
sg63
g2049
sg56
(lp2068
g49
(g70
g51
NtRp2069
(dp2070
g54
(dp2071
sg63
g2065
sg56
(lp2072
g49
(g50
g51
NtRp2073
(dp2074
g54
(dp2075
g62
I3
ssg63
g2069
sg56
(lp2076
S'99'
p2077
asbasbasbag49
(g65
g51
NtRp2078
(dp2079
g54
(dp2080
sg63
g2049
sg56
(lp2081
g49
(g70
g51
NtRp2082
(dp2083
g54
(dp2084
sg63
g2078
sg56
(lp2085
g49
(g50
g51
NtRp2086
(dp2087
g54
(dp2088
g62
I3
ssg63
g2082
sg56
(lp2089
S'7'
asbasbasbag49
(g65
g51
NtRp2090
(dp2091
g54
(dp2092
sg63
g2049
sg56
(lp2093
g49
(g70
g51
NtRp2094
(dp2095
g54
(dp2096
sg63
g2090
sg56
(lp2097
g49
(g50
g51
NtRp2098
(dp2099
g54
(dp2100
g62
I3
ssg63
g2094
sg56
(lp2101
S'datetime.datetime(2012, 3, 4, 22, 12, 8)'
p2102
asbasbasbag49
(g65
g51
NtRp2103
(dp2104
g54
(dp2105
sg63
g2049
sg56
(lp2106
g49
(g70
g51
NtRp2107
(dp2108
g54
(dp2109
sg63
g2103
sg56
(lp2110
g49
(g50
g51
NtRp2111
(dp2112
g54
(dp2113
g62
I3
ssg63
g2107
sg56
(lp2114
g1504
asbasbasbasbasbasbasbasbasbasbasbag49
(g65
g51
NtRp2115
(dp2116
g54
(dp2117
sg63
g59
sg56
(lp2118
g49
(g70
g51
NtRp2119
(dp2120
g54
(dp2121
g74
g75
ssg63
g2115
sg56
(lp2122
S'is_https'
p2123
asbag49
(g70
g51
NtRp2124
(dp2125
g54
(dp2126
g81
g82
ssg63
g2115
sg56
(lp2127
S':'
asbag49
(g70
g51
NtRp2128
(dp2129
g54
(dp2130
sg63
g2115
sg56
(lp2131
g49
(g50
g51
NtRp2132
(dp2133
g54
(dp2134
g62
I5
ssg63
g2128
sg56
(lp2135
g92
asbasbasbag49
(g65
g51
NtRp2136
(dp2137
g54
(dp2138
sg63
g59
sg56
(lp2139
g49
(g70
g51
NtRp2140
(dp2141
g54
(dp2142
g74
g75
ssg63
g2136
sg56
(lp2143
S'is_local'
p2144
asbag49
(g70
g51
NtRp2145
(dp2146
g54
(dp2147
g81
g82
ssg63
g2136
sg56
(lp2148
S':'
asbag49
(g70
g51
NtRp2149
(dp2150
g54
(dp2151
sg63
g2136
sg56
(lp2152
g49
(g50
g51
NtRp2153
(dp2154
g54
(dp2155
g62
I5
ssg63
g2149
sg56
(lp2156
g1613
asbasbasbag49
(g65
g51
NtRp2157
(dp2158
g54
(dp2159
sg63
g59
sg56
(lp2160
g49
(g70
g51
NtRp2161
(dp2162
g54
(dp2163
g74
g75
ssg63
g2157
sg56
(lp2164
S'is_restful'
p2165
asbag49
(g70
g51
NtRp2166
(dp2167
g54
(dp2168
g81
g82
ssg63
g2157
sg56
(lp2169
S':'
asbag49
(g70
g51
NtRp2170
(dp2171
g54
(dp2172
sg63
g2157
sg56
(lp2173
g49
(g50
g51
NtRp2174
(dp2175
g54
(dp2176
g62
I5
ssg63
g2170
sg56
(lp2177
g92
asbasbasbag49
(g65
g51
NtRp2178
(dp2179
g54
(dp2180
sg63
g59
sg56
(lp2181
g49
(g70
g51
NtRp2182
(dp2183
g54
(dp2184
g74
g75
ssg63
g2178
sg56
(lp2185
S'now'
p2186
asbag49
(g70
g51
NtRp2187
(dp2188
g54
(dp2189
g81
g82
ssg63
g2178
sg56
(lp2190
S':'
asbag49
(g70
g51
NtRp2191
(dp2192
g54
(dp2193
sg63
g2178
sg56
(lp2194
g49
(g50
g51
NtRp2195
(dp2196
g54
(dp2197
g62
I5
ssg63
g2191
sg56
(lp2198
S'datetime.datetime(2012, 3, 6, 23, 7, 53, 269000)'
p2199
asbasbasbag49
(g65
g51
NtRp2200
(dp2201
g54
(dp2202
sg63
g59
sg56
(lp2203
g49
(g70
g51
NtRp2204
(dp2205
g54
(dp2206
g74
g75
ssg63
g2200
sg56
(lp2207
S'post_vars'
p2208
asbag49
(g70
g51
NtRp2209
(dp2210
g54
(dp2211
g81
g82
ssg63
g2200
sg56
(lp2212
S':'
asbag49
(g70
g51
NtRp2213
(dp2214
g54
(dp2215
sg63
g2200
sg56
(lp2216
g49
(g50
g51
NtRp2217
(dp2218
g54
(dp2219
g62
I5
ssg63
g2213
sg56
(lp2220
g49
(g58
g51
NtRp2221
(dp2222
g54
(dp2223
g62
I4
ssg63
Nsg56
(lp2224
sbasbasbasbag49
(g65
g51
NtRp2225
(dp2226
g54
(dp2227
sg63
g59
sg56
(lp2228
g49
(g70
g51
NtRp2229
(dp2230
g54
(dp2231
g74
g75
ssg63
g2225
sg56
(lp2232
S'raw_args'
p2233
asbag49
(g70
g51
NtRp2234
(dp2235
g54
(dp2236
g81
g82
ssg63
g2225
sg56
(lp2237
S':'
asbag49
(g70
g51
NtRp2238
(dp2239
g54
(dp2240
sg63
g2225
sg56
(lp2241
g49
(g50
g51
NtRp2242
(dp2243
g54
(dp2244
g62
I5
ssg63
g2238
sg56
(lp2245
S'81/finger'
p2246
asbasbasbag49
(g65
g51
NtRp2247
(dp2248
g54
(dp2249
sg63
g59
sg56
(lp2250
g49
(g70
g51
NtRp2251
(dp2252
g54
(dp2253
g74
g75
ssg63
g2247
sg56
(lp2254
S'url'
p2255
asbag49
(g70
g51
NtRp2256
(dp2257
g54
(dp2258
g81
g82
ssg63
g2247
sg56
(lp2259
S':'
asbag49
(g70
g51
NtRp2260
(dp2261
g54
(dp2262
sg63
g2247
sg56
(lp2263
g49
(g50
g51
NtRp2264
(dp2265
g54
(dp2266
g62
I5
ssg63
g2260
sg56
(lp2267
S'/parleyweb/default/mostrar/81/finger'
p2268
asbasbasbag49
(g65
g51
NtRp2269
(dp2270
g54
(dp2271
sg63
g59
sg56
(lp2272
g49
(g70
g51
NtRp2273
(dp2274
g54
(dp2275
g74
g75
ssg63
g2269
sg56
(lp2276
S'utcnow'
p2277
asbag49
(g70
g51
NtRp2278
(dp2279
g54
(dp2280
g81
g82
ssg63
g2269
sg56
(lp2281
S':'
asbag49
(g70
g51
NtRp2282
(dp2283
g54
(dp2284
sg63
g2269
sg56
(lp2285
g49
(g50
g51
NtRp2286
(dp2287
g54
(dp2288
g62
I5
ssg63
g2282
sg56
(lp2289
S'datetime.datetime(2012, 3, 6, 22, 7, 53, 269000)'
p2290
asbasbasbag49
(g65
g51
NtRp2291
(dp2292
g54
(dp2293
sg63
g59
sg56
(lp2294
g49
(g70
g51
NtRp2295
(dp2296
g54
(dp2297
g74
g75
ssg63
g2291
sg56
(lp2298
S'uuid'
p2299
asbag49
(g70
g51
NtRp2300
(dp2301
g54
(dp2302
g81
g82
ssg63
g2291
sg56
(lp2303
S':'
asbag49
(g70
g51
NtRp2304
(dp2305
g54
(dp2306
sg63
g2291
sg56
(lp2307
g49
(g50
g51
NtRp2308
(dp2309
g54
(dp2310
g62
I5
ssg63
g2304
sg56
(lp2311
S'parleyweb/127.0.0.1.2012-03-06.23-07-53.8f3770a0-3ae7-437c-b51d-e5c779db2408'
p2312
asbasbasbag49
(g65
g51
NtRp2313
(dp2314
g54
(dp2315
sg63
g59
sg56
(lp2316
g49
(g70
g51
NtRp2317
(dp2318
g54
(dp2319
g74
g75
ssg63
g2313
sg56
(lp2320
S'vars'
p2321
asbag49
(g70
g51
NtRp2322
(dp2323
g54
(dp2324
g81
g82
ssg63
g2313
sg56
(lp2325
S':'
asbag49
(g70
g51
NtRp2326
(dp2327
g54
(dp2328
sg63
g2313
sg56
(lp2329
g49
(g50
g51
NtRp2330
(dp2331
g54
(dp2332
g62
I5
ssg63
g2326
sg56
(lp2333
g49
(g58
g51
NtRp2334
(dp2335
g54
(dp2336
g62
I4
ssg63
Nsg56
(lp2337
sbasbasbasbag49
(g65
g51
NtRp2338
(dp2339
g54
(dp2340
sg63
g59
sg56
(lp2341
g49
(g70
g51
NtRp2342
(dp2343
g54
(dp2344
g74
g75
ssg63
g2338
sg56
(lp2345
S'wsgi'
p2346
asbag49
(g70
g51
NtRp2347
(dp2348
g54
(dp2349
g81
g82
ssg63
g2338
sg56
(lp2350
S':'
asbag49
(g70
g51
NtRp2351
(dp2352
g54
(dp2353
sg63
g2338
sg56
(lp2354
g49
(g50
g51
NtRp2355
(dp2356
g54
(dp2357
g62
I5
ssg63
g2351
sg56
(lp2358
g49
(g58
g51
NtRp2359
(dp2360
g54
(dp2361
g62
I4
ssg63
Nsg56
(lp2362
g49
(g65
g51
NtRp2363
(dp2364
g54
(dp2365
sg63
g2359
sg56
(lp2366
g49
(g70
g51
NtRp2367
(dp2368
g54
(dp2369
g74
g75
ssg63
g2363
sg56
(lp2370
S'environ'
p2371
asbag49
(g70
g51
NtRp2372
(dp2373
g54
(dp2374
g81
g82
ssg63
g2363
sg56
(lp2375
S':'
asbag49
(g70
g51
NtRp2376
(dp2377
g54
(dp2378
sg63
g2363
sg56
(lp2379
g49
(g50
g51
NtRp2380
(dp2381
g54
(dp2382
g62
I4
ssg63
g2376
sg56
(lp2383
g49
(g58
g51
NtRp2384
(dp2385
g54
(dp2386
g62
I3
ssg63
Nsg56
(lp2387
g49
(g65
g51
NtRp2388
(dp2389
g54
(dp2390
sg63
g2384
sg56
(lp2391
g49
(g70
g51
NtRp2392
(dp2393
g54
(dp2394
g74
g75
ssg63
g2388
sg56
(lp2395
S'HTTP_ACCEPT'
p2396
asbag49
(g70
g51
NtRp2397
(dp2398
g54
(dp2399
g81
g82
ssg63
g2388
sg56
(lp2400
S':'
asbag49
(g70
g51
NtRp2401
(dp2402
g54
(dp2403
sg63
g2388
sg56
(lp2404
g49
(g50
g51
NtRp2405
(dp2406
g54
(dp2407
g62
I3
ssg63
g2401
sg56
(lp2408
g960
asbasbasbag49
(g65
g51
NtRp2409
(dp2410
g54
(dp2411
sg63
g2384
sg56
(lp2412
g49
(g70
g51
NtRp2413
(dp2414
g54
(dp2415
g74
g75
ssg63
g2409
sg56
(lp2416
S'HTTP_ACCEPT_ENCODING'
p2417
asbag49
(g70
g51
NtRp2418
(dp2419
g54
(dp2420
g81
g82
ssg63
g2409
sg56
(lp2421
S':'
asbag49
(g70
g51
NtRp2422
(dp2423
g54
(dp2424
sg63
g2409
sg56
(lp2425
g49
(g50
g51
NtRp2426
(dp2427
g54
(dp2428
g62
I3
ssg63
g2422
sg56
(lp2429
g982
asbasbasbag49
(g65
g51
NtRp2430
(dp2431
g54
(dp2432
sg63
g2384
sg56
(lp2433
g49
(g70
g51
NtRp2434
(dp2435
g54
(dp2436
g74
g75
ssg63
g2430
sg56
(lp2437
S'HTTP_ACCEPT_LANGUAGE'
p2438
asbag49
(g70
g51
NtRp2439
(dp2440
g54
(dp2441
g81
g82
ssg63
g2430
sg56
(lp2442
S':'
asbag49
(g70
g51
NtRp2443
(dp2444
g54
(dp2445
sg63
g2430
sg56
(lp2446
g49
(g50
g51
NtRp2447
(dp2448
g54
(dp2449
g62
I3
ssg63
g2443
sg56
(lp2450
g1004
asbasbasbag49
(g65
g51
NtRp2451
(dp2452
g54
(dp2453
sg63
g2384
sg56
(lp2454
g49
(g70
g51
NtRp2455
(dp2456
g54
(dp2457
g74
g75
ssg63
g2451
sg56
(lp2458
S'HTTP_CONNECTION'
p2459
asbag49
(g70
g51
NtRp2460
(dp2461
g54
(dp2462
g81
g82
ssg63
g2451
sg56
(lp2463
S':'
asbag49
(g70
g51
NtRp2464
(dp2465
g54
(dp2466
sg63
g2451
sg56
(lp2467
g49
(g50
g51
NtRp2468
(dp2469
g54
(dp2470
g62
I3
ssg63
g2464
sg56
(lp2471
g1026
asbasbasbag49
(g65
g51
NtRp2472
(dp2473
g54
(dp2474
sg63
g2384
sg56
(lp2475
g49
(g70
g51
NtRp2476
(dp2477
g54
(dp2478
g74
g75
ssg63
g2472
sg56
(lp2479
S'HTTP_COOKIE'
p2480
asbag49
(g70
g51
NtRp2481
(dp2482
g54
(dp2483
g81
g82
ssg63
g2472
sg56
(lp2484
S':'
asbag49
(g70
g51
NtRp2485
(dp2486
g54
(dp2487
sg63
g2472
sg56
(lp2488
g49
(g50
g51
NtRp2489
(dp2490
g54
(dp2491
g62
I3
ssg63
g2485
sg56
(lp2492
g1048
asbasbasbag49
(g65
g51
NtRp2493
(dp2494
g54
(dp2495
sg63
g2384
sg56
(lp2496
g49
(g70
g51
NtRp2497
(dp2498
g54
(dp2499
g74
g75
ssg63
g2493
sg56
(lp2500
S'HTTP_HOST'
p2501
asbag49
(g70
g51
NtRp2502
(dp2503
g54
(dp2504
g81
g82
ssg63
g2493
sg56
(lp2505
S':'
asbag49
(g70
g51
NtRp2506
(dp2507
g54
(dp2508
sg63
g2493
sg56
(lp2509
g49
(g50
g51
NtRp2510
(dp2511
g54
(dp2512
g62
I3
ssg63
g2506
sg56
(lp2513
g1070
asbasbasbag49
(g65
g51
NtRp2514
(dp2515
g54
(dp2516
sg63
g2384
sg56
(lp2517
g49
(g70
g51
NtRp2518
(dp2519
g54
(dp2520
g74
g75
ssg63
g2514
sg56
(lp2521
S'HTTP_REFERER'
p2522
asbag49
(g70
g51
NtRp2523
(dp2524
g54
(dp2525
g81
g82
ssg63
g2514
sg56
(lp2526
S':'
asbag49
(g70
g51
NtRp2527
(dp2528
g54
(dp2529
sg63
g2514
sg56
(lp2530
g49
(g50
g51
NtRp2531
(dp2532
g54
(dp2533
g62
I3
ssg63
g2527
sg56
(lp2534
g1092
asbasbasbag49
(g65
g51
NtRp2535
(dp2536
g54
(dp2537
sg63
g2384
sg56
(lp2538
g49
(g70
g51
NtRp2539
(dp2540
g54
(dp2541
g74
g75
ssg63
g2535
sg56
(lp2542
S'HTTP_USER_AGENT'
p2543
asbag49
(g70
g51
NtRp2544
(dp2545
g54
(dp2546
g81
g82
ssg63
g2535
sg56
(lp2547
S':'
asbag49
(g70
g51
NtRp2548
(dp2549
g54
(dp2550
sg63
g2535
sg56
(lp2551
g49
(g50
g51
NtRp2552
(dp2553
g54
(dp2554
g62
I3
ssg63
g2548
sg56
(lp2555
g1114
asbasbasbag49
(g65
g51
NtRp2556
(dp2557
g54
(dp2558
sg63
g2384
sg56
(lp2559
g49
(g70
g51
NtRp2560
(dp2561
g54
(dp2562
g74
g75
ssg63
g2556
sg56
(lp2563
S'PATH_INFO'
p2564
asbag49
(g70
g51
NtRp2565
(dp2566
g54
(dp2567
g81
g82
ssg63
g2556
sg56
(lp2568
S':'
asbag49
(g70
g51
NtRp2569
(dp2570
g54
(dp2571
sg63
g2556
sg56
(lp2572
g49
(g50
g51
NtRp2573
(dp2574
g54
(dp2575
g62
I3
ssg63
g2569
sg56
(lp2576
g1178
asbasbasbag49
(g65
g51
NtRp2577
(dp2578
g54
(dp2579
sg63
g2384
sg56
(lp2580
g49
(g70
g51
NtRp2581
(dp2582
g54
(dp2583
g74
g75
ssg63
g2577
sg56
(lp2584
S'QUERY_STRING'
p2585
asbag49
(g70
g51
NtRp2586
(dp2587
g54
(dp2588
g81
g82
ssg63
g2577
sg56
(lp2589
S':'
asbag49
(g70
g51
NtRp2590
(dp2591
g54
(dp2592
sg63
g2577
sg56
(lp2593
g49
(g50
g51
NtRp2594
(dp2595
g54
(dp2596
g62
I3
ssg63
g2590
sg56
(lp2597
S''
asbasbasbag49
(g65
g51
NtRp2598
(dp2599
g54
(dp2600
sg63
g2384
sg56
(lp2601
g49
(g70
g51
NtRp2602
(dp2603
g54
(dp2604
g74
g75
ssg63
g2598
sg56
(lp2605
S'REMOTE_ADDR'
p2606
asbag49
(g70
g51
NtRp2607
(dp2608
g54
(dp2609
g81
g82
ssg63
g2598
sg56
(lp2610
S':'
asbag49
(g70
g51
NtRp2611
(dp2612
g54
(dp2613
sg63
g2598
sg56
(lp2614
g49
(g50
g51
NtRp2615
(dp2616
g54
(dp2617
g62
I3
ssg63
g2611
sg56
(lp2618
g208
asbasbasbag49
(g65
g51
NtRp2619
(dp2620
g54
(dp2621
sg63
g2384
sg56
(lp2622
g49
(g70
g51
NtRp2623
(dp2624
g54
(dp2625
g74
g75
ssg63
g2619
sg56
(lp2626
S'REMOTE_PORT'
p2627
asbag49
(g70
g51
NtRp2628
(dp2629
g54
(dp2630
g81
g82
ssg63
g2619
sg56
(lp2631
S':'
asbag49
(g70
g51
NtRp2632
(dp2633
g54
(dp2634
sg63
g2619
sg56
(lp2635
g49
(g50
g51
NtRp2636
(dp2637
g54
(dp2638
g62
I3
ssg63
g2632
sg56
(lp2639
g1242
asbasbasbag49
(g65
g51
NtRp2640
(dp2641
g54
(dp2642
sg63
g2384
sg56
(lp2643
g49
(g70
g51
NtRp2644
(dp2645
g54
(dp2646
g74
g75
ssg63
g2640
sg56
(lp2647
S'REQUEST_METHOD'
p2648
asbag49
(g70
g51
NtRp2649
(dp2650
g54
(dp2651
g81
g82
ssg63
g2640
sg56
(lp2652
S':'
asbag49
(g70
g51
NtRp2653
(dp2654
g54
(dp2655
sg63
g2640
sg56
(lp2656
g49
(g50
g51
NtRp2657
(dp2658
g54
(dp2659
g62
I3
ssg63
g2653
sg56
(lp2660
g1264
asbasbasbag49
(g65
g51
NtRp2661
(dp2662
g54
(dp2663
sg63
g2384
sg56
(lp2664
g49
(g70
g51
NtRp2665
(dp2666
g54
(dp2667
g74
g75
ssg63
g2661
sg56
(lp2668
S'SCRIPT_NAME'
p2669
asbag49
(g70
g51
NtRp2670
(dp2671
g54
(dp2672
g81
g82
ssg63
g2661
sg56
(lp2673
S':'
asbag49
(g70
g51
NtRp2674
(dp2675
g54
(dp2676
sg63
g2661
sg56
(lp2677
g49
(g50
g51
NtRp2678
(dp2679
g54
(dp2680
g62
I3
ssg63
g2674
sg56
(lp2681
S''
asbasbasbag49
(g65
g51
NtRp2682
(dp2683
g54
(dp2684
sg63
g2384
sg56
(lp2685
g49
(g70
g51
NtRp2686
(dp2687
g54
(dp2688
g74
g75
ssg63
g2682
sg56
(lp2689
S'SERVER_NAME'
p2690
asbag49
(g70
g51
NtRp2691
(dp2692
g54
(dp2693
g81
g82
ssg63
g2682
sg56
(lp2694
S':'
asbag49
(g70
g51
NtRp2695
(dp2696
g54
(dp2697
sg63
g2682
sg56
(lp2698
g49
(g50
g51
NtRp2699
(dp2700
g54
(dp2701
g62
I3
ssg63
g2695
sg56
(lp2702
g1307
asbasbasbag49
(g65
g51
NtRp2703
(dp2704
g54
(dp2705
sg63
g2384
sg56
(lp2706
g49
(g70
g51
NtRp2707
(dp2708
g54
(dp2709
g74
g75
ssg63
g2703
sg56
(lp2710
S'SERVER_PORT'
p2711
asbag49
(g70
g51
NtRp2712
(dp2713
g54
(dp2714
g81
g82
ssg63
g2703
sg56
(lp2715
S':'
asbag49
(g70
g51
NtRp2716
(dp2717
g54
(dp2718
sg63
g2703
sg56
(lp2719
g49
(g50
g51
NtRp2720
(dp2721
g54
(dp2722
g62
I3
ssg63
g2716
sg56
(lp2723
g1329
asbasbasbag49
(g65
g51
NtRp2724
(dp2725
g54
(dp2726
sg63
g2384
sg56
(lp2727
g49
(g70
g51
NtRp2728
(dp2729
g54
(dp2730
g74
g75
ssg63
g2724
sg56
(lp2731
S'SERVER_PROTOCOL'
p2732
asbag49
(g70
g51
NtRp2733
(dp2734
g54
(dp2735
g81
g82
ssg63
g2724
sg56
(lp2736
S':'
asbag49
(g70
g51
NtRp2737
(dp2738
g54
(dp2739
sg63
g2724
sg56
(lp2740
g49
(g50
g51
NtRp2741
(dp2742
g54
(dp2743
g62
I3
ssg63
g2737
sg56
(lp2744
g1351
asbasbasbag49
(g65
g51
NtRp2745
(dp2746
g54
(dp2747
sg63
g2384
sg56
(lp2748
g49
(g70
g51
NtRp2749
(dp2750
g54
(dp2751
g74
g75
ssg63
g2745
sg56
(lp2752
S'SERVER_SOFTWARE'
p2753
asbag49
(g70
g51
NtRp2754
(dp2755
g54
(dp2756
g81
g82
ssg63
g2745
sg56
(lp2757
S':'
asbag49
(g70
g51
NtRp2758
(dp2759
g54
(dp2760
sg63
g2745
sg56
(lp2761
g49
(g50
g51
NtRp2762
(dp2763
g54
(dp2764
g62
I3
ssg63
g2758
sg56
(lp2765
g1373
asbasbasbag49
(g65
g51
NtRp2766
(dp2767
g54
(dp2768
sg63
g2384
sg56
(lp2769
g49
(g70
g51
NtRp2770
(dp2771
g54
(dp2772
g74
g75
ssg63
g2766
sg56
(lp2773
S'wsgi.errors'
p2774
asbag49
(g70
g51
NtRp2775
(dp2776
g54
(dp2777
g81
g82
ssg63
g2766
sg56
(lp2778
S':'
asbag49
(g70
g51
NtRp2779
(dp2780
g54
(dp2781
sg63
g2766
sg56
(lp2782
g49
(g50
g51
NtRp2783
(dp2784
g54
(dp2785
g62
I3
ssg63
g2779
sg56
(lp2786
S"<open file '<stderr>', mode 'w' at 0x01FB00B0>"
p2787
asbasbasbag49
(g65
g51
NtRp2788
(dp2789
g54
(dp2790
sg63
g2384
sg56
(lp2791
g49
(g70
g51
NtRp2792
(dp2793
g54
(dp2794
g74
g75
ssg63
g2788
sg56
(lp2795
S'wsgi.file_wrapper'
p2796
asbag49
(g70
g51
NtRp2797
(dp2798
g54
(dp2799
g81
g82
ssg63
g2788
sg56
(lp2800
S':'
asbag49
(g70
g51
NtRp2801
(dp2802
g54
(dp2803
sg63
g2788
sg56
(lp2804
g49
(g50
g51
NtRp2805
(dp2806
g54
(dp2807
g62
I3
ssg63
g2801
sg56
(lp2808
S'<class wsgiref.util.FileWrapper at 0x02F15390>'
p2809
asbasbasbag49
(g65
g51
NtRp2810
(dp2811
g54
(dp2812
sg63
g2384
sg56
(lp2813
g49
(g70
g51
NtRp2814
(dp2815
g54
(dp2816
g74
g75
ssg63
g2810
sg56
(lp2817
S'wsgi.input'
p2818
asbag49
(g70
g51
NtRp2819
(dp2820
g54
(dp2821
g81
g82
ssg63
g2810
sg56
(lp2822
S':'
asbag49
(g70
g51
NtRp2823
(dp2824
g54
(dp2825
sg63
g2810
sg56
(lp2826
g49
(g50
g51
NtRp2827
(dp2828
g54
(dp2829
g62
I3
ssg63
g2823
sg56
(lp2830
S'<cStringIO.StringO object at 0x078BBBE0>'
p2831
asbasbasbag49
(g65
g51
NtRp2832
(dp2833
g54
(dp2834
sg63
g2384
sg56
(lp2835
g49
(g70
g51
NtRp2836
(dp2837
g54
(dp2838
g74
g75
ssg63
g2832
sg56
(lp2839
S'wsgi.multiprocess'
p2840
asbag49
(g70
g51
NtRp2841
(dp2842
g54
(dp2843
g81
g82
ssg63
g2832
sg56
(lp2844
S':'
asbag49
(g70
g51
NtRp2845
(dp2846
g54
(dp2847
sg63
g2832
sg56
(lp2848
g49
(g50
g51
NtRp2849
(dp2850
g54
(dp2851
g62
I3
ssg63
g2845
sg56
(lp2852
g92
asbasbasbag49
(g65
g51
NtRp2853
(dp2854
g54
(dp2855
sg63
g2384
sg56
(lp2856
g49
(g70
g51
NtRp2857
(dp2858
g54
(dp2859
g74
g75
ssg63
g2853
sg56
(lp2860
S'wsgi.multithread'
p2861
asbag49
(g70
g51
NtRp2862
(dp2863
g54
(dp2864
g81
g82
ssg63
g2853
sg56
(lp2865
S':'
asbag49
(g70
g51
NtRp2866
(dp2867
g54
(dp2868
sg63
g2853
sg56
(lp2869
g49
(g50
g51
NtRp2870
(dp2871
g54
(dp2872
g62
I3
ssg63
g2866
sg56
(lp2873
g1613
asbasbasbag49
(g65
g51
NtRp2874
(dp2875
g54
(dp2876
sg63
g2384
sg56
(lp2877
g49
(g70
g51
NtRp2878
(dp2879
g54
(dp2880
g74
g75
ssg63
g2874
sg56
(lp2881
S'wsgi.run_once'
p2882
asbag49
(g70
g51
NtRp2883
(dp2884
g54
(dp2885
g81
g82
ssg63
g2874
sg56
(lp2886
S':'
asbag49
(g70
g51
NtRp2887
(dp2888
g54
(dp2889
sg63
g2874
sg56
(lp2890
g49
(g50
g51
NtRp2891
(dp2892
g54
(dp2893
g62
I3
ssg63
g2887
sg56
(lp2894
g92
asbasbasbag49
(g65
g51
NtRp2895
(dp2896
g54
(dp2897
sg63
g2384
sg56
(lp2898
g49
(g70
g51
NtRp2899
(dp2900
g54
(dp2901
g74
g75
ssg63
g2895
sg56
(lp2902
S'wsgi.url_scheme'
p2903
asbag49
(g70
g51
NtRp2904
(dp2905
g54
(dp2906
g81
g82
ssg63
g2895
sg56
(lp2907
S':'
asbag49
(g70
g51
NtRp2908
(dp2909
g54
(dp2910
sg63
g2895
sg56
(lp2911
g49
(g50
g51
NtRp2912
(dp2913
g54
(dp2914
g62
I3
ssg63
g2908
sg56
(lp2915
g1656
asbasbasbag49
(g65
g51
NtRp2916
(dp2917
g54
(dp2918
sg63
g2384
sg56
(lp2919
g49
(g70
g51
NtRp2920
(dp2921
g54
(dp2922
g74
g75
ssg63
g2916
sg56
(lp2923
S'wsgi.version'
p2924
asbag49
(g70
g51
NtRp2925
(dp2926
g54
(dp2927
g81
g82
ssg63
g2916
sg56
(lp2928
S':'
asbag49
(g70
g51
NtRp2929
(dp2930
g54
(dp2931
sg63
g2916
sg56
(lp2932
g49
(g50
g51
NtRp2933
(dp2934
g54
(dp2935
g62
I3
ssg63
g2929
sg56
(lp2936
S'1'
asbasbasbasbasbasbasbasbasbasbasbasbasbsS'frames'
p2937
(lp2938
(dp2939
S'file'
p2940
S'D:\\Dise\xf1o Web\\Proyectos\\Parleyweb\\web2py\\gluon\\restricted.py'
p2941
sS'dump'
p2942
(dp2943
sS'lnum'
p2944
I205
sS'lines'
p2945
(dp2946
sS'call'
p2947
S'(code=\'response.write(\\\'<!DOCTYPE html>\\\\n<!-- paulirish....>\\\\n   \\\\n\\\\n \\\\n\\\\n</body>\\\\n</html>\\\\n", escape=False)\', environment={\'A\': <class \'gluon.html.A\'>, \'Auth\': <class \'gluon.tools.Auth\'>, \'B\': <class \'gluon.html.B\'>, \'BEAUTIFY\': <class \'gluon.html.BEAUTIFY\'>, \'BODY\': <class \'gluon.html.BODY\'>, \'BR\': <class \'gluon.html.BR\'>, \'BUTTON\': <class \'gluon.html.BUTTON\'>, \'CAT\': <class \'gluon.html.CAT\'>, \'CENTER\': <class \'gluon.html.CENTER\'>, \'CLEANUP\': <class \'gluon.validators.CLEANUP\'>, ...}, layer=\'D:\\\\Dise\\xf1o Web\\\\Proyectos\\\\Parleyweb\\\\web2py\\\\applications\\\\parleyweb\\\\views\\\\default/mostrar.html\')'
p2948
sS'func'
p2949
S'restricted'
p2950
sa(dp2951
g2940
S'D:\\Dise\xf1o Web\\Proyectos\\Parleyweb\\web2py\\applications\\parleyweb\\views\\default\\mostrar.html'
p2952
sg2942
(dp2953
sg2944
I64
sg2945
(dp2954
I64
S'    response.write(i.palabra)'
p2955
sI65
S"    response.write('\\n    ', escape=False)"
p2956
sI66
S'else:'
p2957
sI67
S"    response.write('\\n        <p>no hay palabra</p>\\n    ', escape=False)"
p2958
sI68
S'    pass'
p2959
sI69
S"response.write('\\n        \\n    ', escape=False)"
p2960
sI70
S'if ejemplos:'
p2961
sI71
S"    response.write('\\n        ', escape=False)"
p2962
sI72
S'    response.write(i.ejemplo_de)'
p2963
sI73
S"    response.write('\\n    ', escape=False)"
p2964
sI74
S'else:'
p2965
sI55
S'response.write(\'</p>\\n          </div><!--/.nav-collapse -->\\n        </div>\\n      </div>\\n    </div>\\n    <div class="flash alert alert-info"></i>\', escape=False)'
p2966
sI56
S"response.write(response.flash or '')"
p2967
sI57
S'response.write(\'</div>\\n    <div class="container-fluid">\\n      <div class="row-fluid">\\n        <div class="span3">\\n          <div class="well sidebar-nav">\\n            <ul class="nav nav-list">\\n              <li class="nav-header">\', escape=False)'
p2968
sI58
S"response.write(T('Buscar'))"
p2969
sI59
S'response.write(\'</li>\\n            </ul>\\n          </div><!--/.well -->\\n        </div><!--/span-->\\n        <div class="span9">\\n\\t  \\n          <div class="hero-unit">\\n           \', escape=False)'
p2970
sI60
S"response.write('\\n\\t   ', escape=False)"
p2971
sI61
S"response.write('\\n\\n    ', escape=False)"
p2972
sI62
S'if palabras:'
p2973
sI63
S"    response.write('\\n        ', escape=False)"
p2974
ssg2947
S'()'
p2975
sg2949
S'<module>'
p2976
sasS'pyver'
p2977
S'Python 2.5.4: D:\\Dise\xf1o Web\\Proyectos\\Parleyweb\\web2py\\web2py.exe'
p2978
sS'session'
p2979
g49
(g50
g51
NtRp2980
(dp2981
g54
(dp2982
sg56
(lp2983
g49
(g58
g51
NtRp2984
(dp2985
g54
(dp2986
g62
I5
ssg63
Nsg56
(lp2987
sbasbsS'etype'
p2988
S"<type 'exceptions.NameError'>"
p2989
sS'date'
p2990
S'Tue Mar 06 23:07:53 2012'
p2991
sS'response'
p2992
g49
(g50
g51
NtRp2993
(dp2994
g54
(dp2995
sg56
(lp2996
g49
(g58
g51
NtRp2997
(dp2998
g54
(dp2999
g62
I5
ssg63
Nsg56
(lp3000
g49
(g65
g51
NtRp3001
(dp3002
g54
(dp3003
sg63
g2997
sg56
(lp3004
g49
(g70
g51
NtRp3005
(dp3006
g54
(dp3007
g74
g75
ssg63
g3001
sg56
(lp3008
g173
asbag49
(g70
g51
NtRp3009
(dp3010
g54
(dp3011
g81
g82
ssg63
g3001
sg56
(lp3012
S':'
asbag49
(g70
g51
NtRp3013
(dp3014
g54
(dp3015
sg63
g3001
sg56
(lp3016
g49
(g50
g51
NtRp3017
(dp3018
g54
(dp3019
g62
I5
ssg63
g3013
sg56
(lp3020
S'<cStringIO.StringO object at 0x076C8280>'
p3021
asbasbasbag49
(g65
g51
NtRp3022
(dp3023
g54
(dp3024
sg63
g2997
sg56
(lp3025
g49
(g70
g51
NtRp3026
(dp3027
g54
(dp3028
g74
g75
ssg63
g3022
sg56
(lp3029
g239
asbag49
(g70
g51
NtRp3030
(dp3031
g54
(dp3032
g81
g82
ssg63
g3022
sg56
(lp3033
S':'
asbag49
(g70
g51
NtRp3034
(dp3035
g54
(dp3036
sg63
g3022
sg56
(lp3037
g49
(g50
g51
NtRp3038
(dp3039
g54
(dp3040
g62
I5
ssg63
g3034
sg56
(lp3041
g49
(g58
g51
NtRp3042
(dp3043
g54
(dp3044
g62
I4
ssg63
Nsg56
(lp3045
g49
(g65
g51
NtRp3046
(dp3047
g54
(dp3048
sg63
g3042
sg56
(lp3049
g49
(g70
g51
NtRp3050
(dp3051
g54
(dp3052
g74
g75
ssg63
g3046
sg56
(lp3053
S'session_id_parleyweb'
p3054
asbag49
(g70
g51
NtRp3055
(dp3056
g54
(dp3057
g81
g82
ssg63
g3046
sg56
(lp3058
S':'
asbag49
(g70
g51
NtRp3059
(dp3060
g54
(dp3061
sg63
g3046
sg56
(lp3062
g49
(g50
g51
NtRp3063
(dp3064
g54
(dp3065
g62
I4
ssg63
g3059
sg56
(lp3066
g49
(g58
g51
NtRp3067
(dp3068
g54
(dp3069
g62
I3
ssg63
Nsg56
(lp3070
g49
(g65
g51
NtRp3071
(dp3072
g54
(dp3073
sg63
g3067
sg56
(lp3074
g49
(g70
g51
NtRp3075
(dp3076
g54
(dp3077
g74
g75
ssg63
g3071
sg56
(lp3078
g289
asbag49
(g70
g51
NtRp3079
(dp3080
g54
(dp3081
g81
g82
ssg63
g3071
sg56
(lp3082
S':'
asbag49
(g70
g51
NtRp3083
(dp3084
g54
(dp3085
sg63
g3071
sg56
(lp3086
g49
(g50
g51
NtRp3087
(dp3088
g54
(dp3089
g62
I3
ssg63
g3083
sg56
(lp3090
S''
asbasbasbag49
(g65
g51
NtRp3091
(dp3092
g54
(dp3093
sg63
g3067
sg56
(lp3094
g49
(g70
g51
NtRp3095
(dp3096
g54
(dp3097
g74
g75
ssg63
g3091
sg56
(lp3098
g310
asbag49
(g70
g51
NtRp3099
(dp3100
g54
(dp3101
g81
g82
ssg63
g3091
sg56
(lp3102
S':'
asbag49
(g70
g51
NtRp3103
(dp3104
g54
(dp3105
sg63
g3091
sg56
(lp3106
g49
(g50
g51
NtRp3107
(dp3108
g54
(dp3109
g62
I3
ssg63
g3103
sg56
(lp3110
S''
asbasbasbag49
(g65
g51
NtRp3111
(dp3112
g54
(dp3113
sg63
g3067
sg56
(lp3114
g49
(g70
g51
NtRp3115
(dp3116
g54
(dp3117
g74
g75
ssg63
g3111
sg56
(lp3118
g331
asbag49
(g70
g51
NtRp3119
(dp3120
g54
(dp3121
g81
g82
ssg63
g3111
sg56
(lp3122
S':'
asbag49
(g70
g51
NtRp3123
(dp3124
g54
(dp3125
sg63
g3111
sg56
(lp3126
g49
(g50
g51
NtRp3127
(dp3128
g54
(dp3129
g62
I3
ssg63
g3123
sg56
(lp3130
S''
asbasbasbag49
(g65
g51
NtRp3131
(dp3132
g54
(dp3133
sg63
g3067
sg56
(lp3134
g49
(g70
g51
NtRp3135
(dp3136
g54
(dp3137
g74
g75
ssg63
g3131
sg56
(lp3138
g352
asbag49
(g70
g51
NtRp3139
(dp3140
g54
(dp3141
g81
g82
ssg63
g3131
sg56
(lp3142
S':'
asbag49
(g70
g51
NtRp3143
(dp3144
g54
(dp3145
sg63
g3131
sg56
(lp3146
g49
(g50
g51
NtRp3147
(dp3148
g54
(dp3149
g62
I3
ssg63
g3143
sg56
(lp3150
S''
asbasbasbag49
(g65
g51
NtRp3151
(dp3152
g54
(dp3153
sg63
g3067
sg56
(lp3154
g49
(g70
g51
NtRp3155
(dp3156
g54
(dp3157
g74
g75
ssg63
g3151
sg56
(lp3158
g373
asbag49
(g70
g51
NtRp3159
(dp3160
g54
(dp3161
g81
g82
ssg63
g3151
sg56
(lp3162
S':'
asbag49
(g70
g51
NtRp3163
(dp3164
g54
(dp3165
sg63
g3151
sg56
(lp3166
g49
(g50
g51
NtRp3167
(dp3168
g54
(dp3169
g62
I3
ssg63
g3163
sg56
(lp3170
S'/'
asbasbasbag49
(g65
g51
NtRp3171
(dp3172
g54
(dp3173
sg63
g3067
sg56
(lp3174
g49
(g70
g51
NtRp3175
(dp3176
g54
(dp3177
g74
g75
ssg63
g3171
sg56
(lp3178
g394
asbag49
(g70
g51
NtRp3179
(dp3180
g54
(dp3181
g81
g82
ssg63
g3171
sg56
(lp3182
S':'
asbag49
(g70
g51
NtRp3183
(dp3184
g54
(dp3185
sg63
g3171
sg56
(lp3186
g49
(g50
g51
NtRp3187
(dp3188
g54
(dp3189
g62
I3
ssg63
g3183
sg56
(lp3190
S''
asbasbasbag49
(g65
g51
NtRp3191
(dp3192
g54
(dp3193
sg63
g3067
sg56
(lp3194
g49
(g70
g51
NtRp3195
(dp3196
g54
(dp3197
g74
g75
ssg63
g3191
sg56
(lp3198
g415
asbag49
(g70
g51
NtRp3199
(dp3200
g54
(dp3201
g81
g82
ssg63
g3191
sg56
(lp3202
S':'
asbag49
(g70
g51
NtRp3203
(dp3204
g54
(dp3205
sg63
g3191
sg56
(lp3206
g49
(g50
g51
NtRp3207
(dp3208
g54
(dp3209
g62
I3
ssg63
g3203
sg56
(lp3210
S''
asbasbasbasbasbasbasbasbasbasbasbag49
(g65
g51
NtRp3211
(dp3212
g54
(dp3213
sg63
g2997
sg56
(lp3214
g49
(g70
g51
NtRp3215
(dp3216
g54
(dp3217
g74
g75
ssg63
g3211
sg56
(lp3218
S'delimiters'
p3219
asbag49
(g70
g51
NtRp3220
(dp3221
g54
(dp3222
g81
g82
ssg63
g3211
sg56
(lp3223
S':'
asbag49
(g70
g51
NtRp3224
(dp3225
g54
(dp3226
sg63
g3211
sg56
(lp3227
g49
(g50
g51
NtRp3228
(dp3229
g54
(dp3230
g62
I5
ssg63
g3224
sg56
(lp3231
g49
(g58
g51
NtRp3232
(dp3233
g54
(dp3234
g62
I4
ssg63
Nsg56
(lp3235
g49
(g65
g51
NtRp3236
(dp3237
g54
(dp3238
sg63
g3232
sg56
(lp3239
g49
(g70
g51
NtRp3240
(dp3241
g54
(dp3242
sg63
g3236
sg56
(lp3243
g49
(g50
g51
NtRp3244
(dp3245
g54
(dp3246
g62
I4
ssg63
g3240
sg56
(lp3247
S'{{'
p3248
asbasbasbag49
(g65
g51
NtRp3249
(dp3250
g54
(dp3251
sg63
g3232
sg56
(lp3252
g49
(g70
g51
NtRp3253
(dp3254
g54
(dp3255
sg63
g3249
sg56
(lp3256
g49
(g50
g51
NtRp3257
(dp3258
g54
(dp3259
g62
I4
ssg63
g3253
sg56
(lp3260
S'}}'
p3261
asbasbasbasbasbasbasbag49
(g65
g51
NtRp3262
(dp3263
g54
(dp3264
sg63
g2997
sg56
(lp3265
g49
(g70
g51
NtRp3266
(dp3267
g54
(dp3268
g74
g75
ssg63
g3262
sg56
(lp3269
S'files'
p3270
asbag49
(g70
g51
NtRp3271
(dp3272
g54
(dp3273
g81
g82
ssg63
g3262
sg56
(lp3274
S':'
asbag49
(g70
g51
NtRp3275
(dp3276
g54
(dp3277
sg63
g3262
sg56
(lp3278
g49
(g50
g51
NtRp3279
(dp3280
g54
(dp3281
g62
I5
ssg63
g3275
sg56
(lp3282
g49
(g58
g51
NtRp3283
(dp3284
g54
(dp3285
g62
I4
ssg63
Nsg56
(lp3286
g49
(g65
g51
NtRp3287
(dp3288
g54
(dp3289
sg63
g3283
sg56
(lp3290
g49
(g70
g51
NtRp3291
(dp3292
g54
(dp3293
sg63
g3287
sg56
(lp3294
g49
(g50
g51
NtRp3295
(dp3296
g54
(dp3297
g62
I4
ssg63
g3291
sg56
(lp3298
S'/parleyweb/static/js/jquery.js'
p3299
asbasbasbag49
(g65
g51
NtRp3300
(dp3301
g54
(dp3302
sg63
g3283
sg56
(lp3303
g49
(g70
g51
NtRp3304
(dp3305
g54
(dp3306
sg63
g3300
sg56
(lp3307
g49
(g50
g51
NtRp3308
(dp3309
g54
(dp3310
g62
I4
ssg63
g3304
sg56
(lp3311
S'/parleyweb/static/css/calendar.css'
p3312
asbasbasbag49
(g65
g51
NtRp3313
(dp3314
g54
(dp3315
sg63
g3283
sg56
(lp3316
g49
(g70
g51
NtRp3317
(dp3318
g54
(dp3319
sg63
g3313
sg56
(lp3320
g49
(g50
g51
NtRp3321
(dp3322
g54
(dp3323
g62
I4
ssg63
g3317
sg56
(lp3324
S'/parleyweb/static/js/calendar.js'
p3325
asbasbasbag49
(g65
g51
NtRp3326
(dp3327
g54
(dp3328
sg63
g3283
sg56
(lp3329
g49
(g70
g51
NtRp3330
(dp3331
g54
(dp3332
sg63
g3326
sg56
(lp3333
g49
(g50
g51
NtRp3334
(dp3335
g54
(dp3336
g62
I4
ssg63
g3330
sg56
(lp3337
S'/parleyweb/static/js/web2py.js'
p3338
asbasbasbag49
(g65
g51
NtRp3339
(dp3340
g54
(dp3341
sg63
g3283
sg56
(lp3342
g49
(g70
g51
NtRp3343
(dp3344
g54
(dp3345
sg63
g3339
sg56
(lp3346
g49
(g50
g51
NtRp3347
(dp3348
g54
(dp3349
g62
I4
ssg63
g3343
sg56
(lp3350
S'/parleyweb/static/css/bootstrap.css'
p3351
asbasbasbag49
(g65
g51
NtRp3352
(dp3353
g54
(dp3354
sg63
g3283
sg56
(lp3355
g49
(g70
g51
NtRp3356
(dp3357
g54
(dp3358
sg63
g3352
sg56
(lp3359
g49
(g50
g51
NtRp3360
(dp3361
g54
(dp3362
g62
I4
ssg63
g3356
sg56
(lp3363
S'/parleyweb/static/js/bootstrap.js'
p3364
asbasbasbag49
(g65
g51
NtRp3365
(dp3366
g54
(dp3367
sg63
g3283
sg56
(lp3368
g49
(g70
g51
NtRp3369
(dp3370
g54
(dp3371
sg63
g3365
sg56
(lp3372
g49
(g50
g51
NtRp3373
(dp3374
g54
(dp3375
g62
I4
ssg63
g3369
sg56
(lp3376
S'/parleyweb/static/css/parleyweb.css'
p3377
asbasbasbag49
(g65
g51
NtRp3378
(dp3379
g54
(dp3380
sg63
g3283
sg56
(lp3381
g49
(g70
g51
NtRp3382
(dp3383
g54
(dp3384
sg63
g3378
sg56
(lp3385
g49
(g50
g51
NtRp3386
(dp3387
g54
(dp3388
g62
I4
ssg63
g3382
sg56
(lp3389
S'/parleyweb/static/js/parleyweb.js'
p3390
asbasbasbasbasbasbasbag49
(g65
g51
NtRp3391
(dp3392
g54
(dp3393
sg63
g2997
sg56
(lp3394
g49
(g70
g51
NtRp3395
(dp3396
g54
(dp3397
g74
g75
ssg63
g3391
sg56
(lp3398
S'flash'
p3399
asbag49
(g70
g51
NtRp3400
(dp3401
g54
(dp3402
g81
g82
ssg63
g3391
sg56
(lp3403
S':'
asbag49
(g70
g51
NtRp3404
(dp3405
g54
(dp3406
sg63
g3391
sg56
(lp3407
g49
(g50
g51
NtRp3408
(dp3409
g54
(dp3410
g62
I5
ssg63
g3404
sg56
(lp3411
S''
asbasbasbag49
(g65
g51
NtRp3412
(dp3413
g54
(dp3414
sg63
g2997
sg56
(lp3415
g49
(g70
g51
NtRp3416
(dp3417
g54
(dp3418
g74
g75
ssg63
g3412
sg56
(lp3419
S'generic_patterns'
p3420
asbag49
(g70
g51
NtRp3421
(dp3422
g54
(dp3423
g81
g82
ssg63
g3412
sg56
(lp3424
S':'
asbag49
(g70
g51
NtRp3425
(dp3426
g54
(dp3427
sg63
g3412
sg56
(lp3428
g49
(g50
g51
NtRp3429
(dp3430
g54
(dp3431
g62
I5
ssg63
g3425
sg56
(lp3432
g49
(g58
g51
NtRp3433
(dp3434
g54
(dp3435
g62
I4
ssg63
Nsg56
(lp3436
g49
(g65
g51
NtRp3437
(dp3438
g54
(dp3439
sg63
g3433
sg56
(lp3440
g49
(g70
g51
NtRp3441
(dp3442
g54
(dp3443
sg63
g3437
sg56
(lp3444
g49
(g50
g51
NtRp3445
(dp3446
g54
(dp3447
g62
I4
ssg63
g3441
sg56
(lp3448
S'*'
asbasbasbasbasbasbasbag49
(g65
g51
NtRp3449
(dp3450
g54
(dp3451
sg63
g2997
sg56
(lp3452
g49
(g70
g51
NtRp3453
(dp3454
g54
(dp3455
g74
g75
ssg63
g3449
sg56
(lp3456
S'headers'
p3457
asbag49
(g70
g51
NtRp3458
(dp3459
g54
(dp3460
g81
g82
ssg63
g3449
sg56
(lp3461
S':'
asbag49
(g70
g51
NtRp3462
(dp3463
g54
(dp3464
sg63
g3449
sg56
(lp3465
g49
(g50
g51
NtRp3466
(dp3467
g54
(dp3468
g62
I5
ssg63
g3462
sg56
(lp3469
g49
(g58
g51
NtRp3470
(dp3471
g54
(dp3472
g62
I4
ssg63
Nsg56
(lp3473
g49
(g65
g51
NtRp3474
(dp3475
g54
(dp3476
sg63
g3470
sg56
(lp3477
g49
(g70
g51
NtRp3478
(dp3479
g54
(dp3480
g74
g75
ssg63
g3474
sg56
(lp3481
S'Cache-Control'
p3482
asbag49
(g70
g51
NtRp3483
(dp3484
g54
(dp3485
g81
g82
ssg63
g3474
sg56
(lp3486
S':'
asbag49
(g70
g51
NtRp3487
(dp3488
g54
(dp3489
sg63
g3474
sg56
(lp3490
g49
(g50
g51
NtRp3491
(dp3492
g54
(dp3493
g62
I4
ssg63
g3487
sg56
(lp3494
S'no-store, no-cache, must-revalidate, post-check=0, pre-check=0'
p3495
asbasbasbag49
(g65
g51
NtRp3496
(dp3497
g54
(dp3498
sg63
g3470
sg56
(lp3499
g49
(g70
g51
NtRp3500
(dp3501
g54
(dp3502
g74
g75
ssg63
g3496
sg56
(lp3503
S'Content-Type'
p3504
asbag49
(g70
g51
NtRp3505
(dp3506
g54
(dp3507
g81
g82
ssg63
g3496
sg56
(lp3508
S':'
asbag49
(g70
g51
NtRp3509
(dp3510
g54
(dp3511
sg63
g3496
sg56
(lp3512
g49
(g50
g51
NtRp3513
(dp3514
g54
(dp3515
g62
I4
ssg63
g3509
sg56
(lp3516
S'text/html; charset=utf-8'
p3517
asbasbasbag49
(g65
g51
NtRp3518
(dp3519
g54
(dp3520
sg63
g3470
sg56
(lp3521
g49
(g70
g51
NtRp3522
(dp3523
g54
(dp3524
g74
g75
ssg63
g3518
sg56
(lp3525
S'Expires'
p3526
asbag49
(g70
g51
NtRp3527
(dp3528
g54
(dp3529
g81
g82
ssg63
g3518
sg56
(lp3530
S':'
asbag49
(g70
g51
NtRp3531
(dp3532
g54
(dp3533
sg63
g3518
sg56
(lp3534
g49
(g50
g51
NtRp3535
(dp3536
g54
(dp3537
g62
I4
ssg63
g3531
sg56
(lp3538
S'Tue, 06 Mar 2012 22:07:53 GMT'
p3539
asbasbasbag49
(g65
g51
NtRp3540
(dp3541
g54
(dp3542
sg63
g3470
sg56
(lp3543
g49
(g70
g51
NtRp3544
(dp3545
g54
(dp3546
g74
g75
ssg63
g3540
sg56
(lp3547
S'Pragma'
p3548
asbag49
(g70
g51
NtRp3549
(dp3550
g54
(dp3551
g81
g82
ssg63
g3540
sg56
(lp3552
S':'
asbag49
(g70
g51
NtRp3553
(dp3554
g54
(dp3555
sg63
g3540
sg56
(lp3556
g49
(g50
g51
NtRp3557
(dp3558
g54
(dp3559
g62
I4
ssg63
g3553
sg56
(lp3560
S'no-cache'
p3561
asbasbasbag49
(g65
g51
NtRp3562
(dp3563
g54
(dp3564
sg63
g3470
sg56
(lp3565
g49
(g70
g51
NtRp3566
(dp3567
g54
(dp3568
g74
g75
ssg63
g3562
sg56
(lp3569
S'X-Powered-By'
p3570
asbag49
(g70
g51
NtRp3571
(dp3572
g54
(dp3573
g81
g82
ssg63
g3562
sg56
(lp3574
S':'
asbag49
(g70
g51
NtRp3575
(dp3576
g54
(dp3577
sg63
g3562
sg56
(lp3578
g49
(g50
g51
NtRp3579
(dp3580
g54
(dp3581
g62
I4
ssg63
g3575
sg56
(lp3582
S'web2py'
p3583
asbasbasbasbasbasbasbag49
(g65
g51
NtRp3584
(dp3585
g54
(dp3586
sg63
g2997
sg56
(lp3587
g49
(g70
g51
NtRp3588
(dp3589
g54
(dp3590
g74
g75
ssg63
g3584
sg56
(lp3591
S'menu'
p3592
asbag49
(g70
g51
NtRp3593
(dp3594
g54
(dp3595
g81
g82
ssg63
g3584
sg56
(lp3596
S':'
asbag49
(g70
g51
NtRp3597
(dp3598
g54
(dp3599
sg63
g3584
sg56
(lp3600
g49
(g50
g51
NtRp3601
(dp3602
g54
(dp3603
g62
I5
ssg63
g3597
sg56
(lp3604
g49
(g58
g51
NtRp3605
(dp3606
g54
(dp3607
g62
I4
ssg63
Nsg56
(lp3608
g49
(g65
g51
NtRp3609
(dp3610
g54
(dp3611
sg63
g3605
sg56
(lp3612
g49
(g70
g51
NtRp3613
(dp3614
g54
(dp3615
sg63
g3609
sg56
(lp3616
g49
(g50
g51
NtRp3617
(dp3618
g54
(dp3619
g62
I4
ssg63
g3613
sg56
(lp3620
g49
(g58
g51
NtRp3621
(dp3622
g54
(dp3623
g62
I3
ssg63
Nsg56
(lp3624
g49
(g65
g51
NtRp3625
(dp3626
g54
(dp3627
sg63
g3621
sg56
(lp3628
g49
(g70
g51
NtRp3629
(dp3630
g54
(dp3631
sg63
g3625
sg56
(lp3632
g49
(g50
g51
NtRp3633
(dp3634
g54
(dp3635
g62
I3
ssg63
g3629
sg56
(lp3636
cgluon.languages
lazyT_unpickle
p3637
(S't\x04\x00\x00\x00Home'
tRp3638
asbasbasbag49
(g65
g51
NtRp3639
(dp3640
g54
(dp3641
sg63
g3621
sg56
(lp3642
g49
(g70
g51
NtRp3643
(dp3644
g54
(dp3645
sg63
g3639
sg56
(lp3646
g49
(g50
g51
NtRp3647
(dp3648
g54
(dp3649
g62
I3
ssg63
g3643
sg56
(lp3650
g92
asbasbasbag49
(g65
g51
NtRp3651
(dp3652
g54
(dp3653
sg63
g3621
sg56
(lp3654
g49
(g70
g51
NtRp3655
(dp3656
g54
(dp3657
sg63
g3651
sg56
(lp3658
g49
(g50
g51
NtRp3659
(dp3660
g54
(dp3661
g62
I3
ssg63
g3655
sg56
(lp3662
S'/parleyweb/default/index'
p3663
asbasbasbag49
(g65
g51
NtRp3664
(dp3665
g54
(dp3666
sg63
g3621
sg56
(lp3667
g49
(g70
g51
NtRp3668
(dp3669
g54
(dp3670
sg63
g3664
sg56
(lp3671
g49
(g50
g51
NtRp3672
(dp3673
g54
(dp3674
g62
I3
ssg63
g3668
sg56
(lp3675
g49
(g58
g51
NtRp3676
(dp3677
g54
(dp3678
g62
I2
ssg63
Nsg56
(lp3679
sbasbasbasbasbasbasbasbasbasbasbasbag49
(g65
g51
NtRp3680
(dp3681
g54
(dp3682
sg63
g2997
sg56
(lp3683
g49
(g70
g51
NtRp3684
(dp3685
g54
(dp3686
g74
g75
ssg63
g3680
sg56
(lp3687
S'meta'
p3688
asbag49
(g70
g51
NtRp3689
(dp3690
g54
(dp3691
g81
g82
ssg63
g3680
sg56
(lp3692
S':'
asbag49
(g70
g51
NtRp3693
(dp3694
g54
(dp3695
sg63
g3680
sg56
(lp3696
g49
(g50
g51
NtRp3697
(dp3698
g54
(dp3699
g62
I5
ssg63
g3693
sg56
(lp3700
g49
(g58
g51
NtRp3701
(dp3702
g54
(dp3703
g62
I4
ssg63
Nsg56
(lp3704
g49
(g65
g51
NtRp3705
(dp3706
g54
(dp3707
sg63
g3701
sg56
(lp3708
g49
(g70
g51
NtRp3709
(dp3710
g54
(dp3711
g74
g75
ssg63
g3705
sg56
(lp3712
S'author'
p3713
asbag49
(g70
g51
NtRp3714
(dp3715
g54
(dp3716
g81
g82
ssg63
g3705
sg56
(lp3717
S':'
asbag49
(g70
g51
NtRp3718
(dp3719
g54
(dp3720
sg63
g3705
sg56
(lp3721
g49
(g50
g51
NtRp3722
(dp3723
g54
(dp3724
g62
I4
ssg63
g3718
sg56
(lp3725
S'Your Name <you@example.com>'
p3726
asbasbasbag49
(g65
g51
NtRp3727
(dp3728
g54
(dp3729
sg63
g3701
sg56
(lp3730
g49
(g70
g51
NtRp3731
(dp3732
g54
(dp3733
g74
g75
ssg63
g3727
sg56
(lp3734
S'copyright'
p3735
asbag49
(g70
g51
NtRp3736
(dp3737
g54
(dp3738
g81
g82
ssg63
g3727
sg56
(lp3739
S':'
asbag49
(g70
g51
NtRp3740
(dp3741
g54
(dp3742
sg63
g3727
sg56
(lp3743
g49
(g50
g51
NtRp3744
(dp3745
g54
(dp3746
g62
I4
ssg63
g3740
sg56
(lp3747
S'Copyright 2011'
p3748
asbasbasbag49
(g65
g51
NtRp3749
(dp3750
g54
(dp3751
sg63
g3701
sg56
(lp3752
g49
(g70
g51
NtRp3753
(dp3754
g54
(dp3755
g74
g75
ssg63
g3749
sg56
(lp3756
S'description'
p3757
asbag49
(g70
g51
NtRp3758
(dp3759
g54
(dp3760
g81
g82
ssg63
g3749
sg56
(lp3761
S':'
asbag49
(g70
g51
NtRp3762
(dp3763
g54
(dp3764
sg63
g3749
sg56
(lp3765
g49
(g50
g51
NtRp3766
(dp3767
g54
(dp3768
g62
I4
ssg63
g3762
sg56
(lp3769
S'a cool new app'
p3770
asbasbasbag49
(g65
g51
NtRp3771
(dp3772
g54
(dp3773
sg63
g3701
sg56
(lp3774
g49
(g70
g51
NtRp3775
(dp3776
g54
(dp3777
g74
g75
ssg63
g3771
sg56
(lp3778
S'generator'
p3779
asbag49
(g70
g51
NtRp3780
(dp3781
g54
(dp3782
g81
g82
ssg63
g3771
sg56
(lp3783
S':'
asbag49
(g70
g51
NtRp3784
(dp3785
g54
(dp3786
sg63
g3771
sg56
(lp3787
g49
(g50
g51
NtRp3788
(dp3789
g54
(dp3790
g62
I4
ssg63
g3784
sg56
(lp3791
S'Web2py Web Framework'
p3792
asbasbasbag49
(g65
g51
NtRp3793
(dp3794
g54
(dp3795
sg63
g3701
sg56
(lp3796
g49
(g70
g51
NtRp3797
(dp3798
g54
(dp3799
g74
g75
ssg63
g3793
sg56
(lp3800
S'keywords'
p3801
asbag49
(g70
g51
NtRp3802
(dp3803
g54
(dp3804
g81
g82
ssg63
g3793
sg56
(lp3805
S':'
asbag49
(g70
g51
NtRp3806
(dp3807
g54
(dp3808
sg63
g3793
sg56
(lp3809
g49
(g50
g51
NtRp3810
(dp3811
g54
(dp3812
g62
I4
ssg63
g3806
sg56
(lp3813
S'web2py, python, framework'
p3814
asbasbasbasbasbasbasbag49
(g65
g51
NtRp3815
(dp3816
g54
(dp3817
sg63
g2997
sg56
(lp3818
g49
(g70
g51
NtRp3819
(dp3820
g54
(dp3821
g74
g75
ssg63
g3815
sg56
(lp3822
S'postprocessing'
p3823
asbag49
(g70
g51
NtRp3824
(dp3825
g54
(dp3826
g81
g82
ssg63
g3815
sg56
(lp3827
S':'
asbag49
(g70
g51
NtRp3828
(dp3829
g54
(dp3830
sg63
g3815
sg56
(lp3831
g49
(g50
g51
NtRp3832
(dp3833
g54
(dp3834
g62
I5
ssg63
g3828
sg56
(lp3835
g49
(g58
g51
NtRp3836
(dp3837
g54
(dp3838
g62
I4
ssg63
Nsg56
(lp3839
sbasbasbasbag49
(g65
g51
NtRp3840
(dp3841
g54
(dp3842
sg63
g2997
sg56
(lp3843
g49
(g70
g51
NtRp3844
(dp3845
g54
(dp3846
g74
g75
ssg63
g3840
sg56
(lp3847
S'session_file'
p3848
asbag49
(g70
g51
NtRp3849
(dp3850
g54
(dp3851
g81
g82
ssg63
g3840
sg56
(lp3852
S':'
asbag49
(g70
g51
NtRp3853
(dp3854
g54
(dp3855
sg63
g3840
sg56
(lp3856
g49
(g50
g51
NtRp3857
(dp3858
g54
(dp3859
g62
I5
ssg63
g3853
sg56
(lp3860
S"<open file 'D:\\Dise\xf1o Web\\Proyectos\\Parleyweb\\web2py\\applications\\parleyweb\\sessions\\127.0.0.1-4ad37d94-4a84-49cf-9f5c-a27f320cc3b3', mode 'rb+' at 0x078A9CC8>"
p3861
asbasbasbag49
(g65
g51
NtRp3862
(dp3863
g54
(dp3864
sg63
g2997
sg56
(lp3865
g49
(g70
g51
NtRp3866
(dp3867
g54
(dp3868
g74
g75
ssg63
g3862
sg56
(lp3869
S'session_filename'
p3870
asbag49
(g70
g51
NtRp3871
(dp3872
g54
(dp3873
g81
g82
ssg63
g3862
sg56
(lp3874
S':'
asbag49
(g70
g51
NtRp3875
(dp3876
g54
(dp3877
sg63
g3862
sg56
(lp3878
g49
(g50
g51
NtRp3879
(dp3880
g54
(dp3881
g62
I5
ssg63
g3875
sg56
(lp3882
S'D:\\Dise\xf1o Web\\Proyectos\\Parleyweb\\web2py\\applications\\parleyweb\\sessions\\127.0.0.1-4ad37d94-4a84-49cf-9f5c-a27f320cc3b3'
p3883
asbasbasbag49
(g65
g51
NtRp3884
(dp3885
g54
(dp3886
sg63
g2997
sg56
(lp3887
g49
(g70
g51
NtRp3888
(dp3889
g54
(dp3890
g74
g75
ssg63
g3884
sg56
(lp3891
S'session_id'
p3892
asbag49
(g70
g51
NtRp3893
(dp3894
g54
(dp3895
g81
g82
ssg63
g3884
sg56
(lp3896
S':'
asbag49
(g70
g51
NtRp3897
(dp3898
g54
(dp3899
sg63
g3884
sg56
(lp3900
g49
(g50
g51
NtRp3901
(dp3902
g54
(dp3903
g62
I5
ssg63
g3897
sg56
(lp3904
S'127.0.0.1-4ad37d94-4a84-49cf-9f5c-a27f320cc3b3'
p3905
asbasbasbag49
(g65
g51
NtRp3906
(dp3907
g54
(dp3908
sg63
g2997
sg56
(lp3909
g49
(g70
g51
NtRp3910
(dp3911
g54
(dp3912
g74
g75
ssg63
g3906
sg56
(lp3913
S'session_id_name'
p3914
asbag49
(g70
g51
NtRp3915
(dp3916
g54
(dp3917
g81
g82
ssg63
g3906
sg56
(lp3918
S':'
asbag49
(g70
g51
NtRp3919
(dp3920
g54
(dp3921
sg63
g3906
sg56
(lp3922
g49
(g50
g51
NtRp3923
(dp3924
g54
(dp3925
g62
I5
ssg63
g3919
sg56
(lp3926
g3054
asbasbasbag49
(g65
g51
NtRp3927
(dp3928
g54
(dp3929
sg63
g2997
sg56
(lp3930
g49
(g70
g51
NtRp3931
(dp3932
g54
(dp3933
g74
g75
ssg63
g3927
sg56
(lp3934
S'session_locked'
p3935
asbag49
(g70
g51
NtRp3936
(dp3937
g54
(dp3938
g81
g82
ssg63
g3927
sg56
(lp3939
S':'
asbag49
(g70
g51
NtRp3940
(dp3941
g54
(dp3942
sg63
g3927
sg56
(lp3943
g49
(g50
g51
NtRp3944
(dp3945
g54
(dp3946
g62
I5
ssg63
g3940
sg56
(lp3947
g1613
asbasbasbag49
(g65
g51
NtRp3948
(dp3949
g54
(dp3950
sg63
g2997
sg56
(lp3951
g49
(g70
g51
NtRp3952
(dp3953
g54
(dp3954
g74
g75
ssg63
g3948
sg56
(lp3955
S'session_new'
p3956
asbag49
(g70
g51
NtRp3957
(dp3958
g54
(dp3959
g81
g82
ssg63
g3948
sg56
(lp3960
S':'
asbag49
(g70
g51
NtRp3961
(dp3962
g54
(dp3963
sg63
g3948
sg56
(lp3964
g49
(g50
g51
NtRp3965
(dp3966
g54
(dp3967
g62
I5
ssg63
g3961
sg56
(lp3968
g92
asbasbasbag49
(g65
g51
NtRp3969
(dp3970
g54
(dp3971
sg63
g2997
sg56
(lp3972
g49
(g70
g51
NtRp3973
(dp3974
g54
(dp3975
g74
g75
ssg63
g3969
sg56
(lp3976
S'status'
p3977
asbag49
(g70
g51
NtRp3978
(dp3979
g54
(dp3980
g81
g82
ssg63
g3969
sg56
(lp3981
S':'
asbag49
(g70
g51
NtRp3982
(dp3983
g54
(dp3984
sg63
g3969
sg56
(lp3985
g49
(g50
g51
NtRp3986
(dp3987
g54
(dp3988
g62
I5
ssg63
g3982
sg56
(lp3989
S'200'
p3990
asbasbasbag49
(g65
g51
NtRp3991
(dp3992
g54
(dp3993
sg63
g2997
sg56
(lp3994
g49
(g70
g51
NtRp3995
(dp3996
g54
(dp3997
g74
g75
ssg63
g3991
sg56
(lp3998
S'subtitle'
p3999
asbag49
(g70
g51
NtRp4000
(dp4001
g54
(dp4002
g81
g82
ssg63
g3991
sg56
(lp4003
S':'
asbag49
(g70
g51
NtRp4004
(dp4005
g54
(dp4006
sg63
g3991
sg56
(lp4007
g49
(g50
g51
NtRp4008
(dp4009
g54
(dp4010
g62
I5
ssg63
g4004
sg56
(lp4011
g3637
(S's\t\x00\x00\x00Adaptame!'
tRp4012
asbasbasbag49
(g65
g51
NtRp4013
(dp4014
g54
(dp4015
sg63
g2997
sg56
(lp4016
g49
(g70
g51
NtRp4017
(dp4018
g54
(dp4019
g74
g75
ssg63
g4013
sg56
(lp4020
S'title'
p4021
asbag49
(g70
g51
NtRp4022
(dp4023
g54
(dp4024
g81
g82
ssg63
g4013
sg56
(lp4025
S':'
asbag49
(g70
g51
NtRp4026
(dp4027
g54
(dp4028
sg63
g4013
sg56
(lp4029
g49
(g50
g51
NtRp4030
(dp4031
g54
(dp4032
g62
I5
ssg63
g4026
sg56
(lp4033
S'Parleyweb'
p4034
asbasbasbag49
(g65
g51
NtRp4035
(dp4036
g54
(dp4037
sg63
g2997
sg56
(lp4038
g49
(g70
g51
NtRp4039
(dp4040
g54
(dp4041
g74
g75
ssg63
g4035
sg56
(lp4042
g2299
asbag49
(g70
g51
NtRp4043
(dp4044
g54
(dp4045
g81
g82
ssg63
g4035
sg56
(lp4046
S':'
asbag49
(g70
g51
NtRp4047
(dp4048
g54
(dp4049
sg63
g4035
sg56
(lp4050
g49
(g50
g51
NtRp4051
(dp4052
g54
(dp4053
g62
I5
ssg63
g4047
sg56
(lp4054
g2312
asbasbasbag49
(g65
g51
NtRp4055
(dp4056
g54
(dp4057
sg63
g2997
sg56
(lp4058
g49
(g70
g51
NtRp4059
(dp4060
g54
(dp4061
g74
g75
ssg63
g4055
sg56
(lp4062
S'view'
p4063
asbag49
(g70
g51
NtRp4064
(dp4065
g54
(dp4066
g81
g82
ssg63
g4055
sg56
(lp4067
S':'
asbag49
(g70
g51
NtRp4068
(dp4069
g54
(dp4070
sg63
g4055
sg56
(lp4071
g49
(g50
g51
NtRp4072
(dp4073
g54
(dp4074
g62
I5
ssg63
g4068
sg56
(lp4075
S'default/mostrar.html'
p4076
asbasbasbasbasbsS'locals'
p4077
(dp4078
S'Service'
p4079
S"<class 'gluon.tools.Service'>"
p4080
sS'OBJECT'
p4081
S"<class 'gluon.html.OBJECT'>"
p4082
sS'SQLDB'
p4083
S"<class 'gluon.dal.DAL'>"
p4084
sg2979
S"<Storage {'_formkey[busqueda/create]': '9cffbe6d...reate]': 'bf92645d-4c0e-4681-8e3a-dc9297ff1758'}>"
p4085
sS'LINK'
p4086
S"<class 'gluon.html.LINK'>"
p4087
sS'BR'
p4088
S"<class 'gluon.html.BR'>"
p4089
sS'local_import'
p4090
S'<function <lambda> at 0x075F3470>'
p4091
sS'OPTGROUP'
p4092
S"<class 'gluon.html.OPTGROUP'>"
p4093
sS'PRE'
p4094
S"<class 'gluon.html.PRE'>"
p4095
sS'IS_INT_IN_RANGE'
p4096
S"<class 'gluon.validators.IS_INT_IN_RANGE'>"
p4097
sS'left_sidebar_enabled'
p4098
g92
sS'IS_LOWER'
p4099
S"<class 'gluon.validators.IS_LOWER'>"
p4100
sS'IS_STRONG'
p4101
S"<class 'gluon.validators.IS_STRONG'>"
p4102
sS'cache'
p4103
S'<gluon.cache.Cache object at 0x0760C0D0>'
p4104
sS'IS_IN_DB'
p4105
S"<class 'gluon.validators.IS_IN_DB'>"
p4106
sS'TAG'
p4107
S'<gluon.html.__TAG__ object at 0x0282CD50>'
p4108
sS'SQLField'
p4109
S"<class 'gluon.dal.Field'>"
p4110
sS'mail'
p4111
S'<gluon.tools.Mail object at 0x075F8230>'
p4112
sS'BODY'
p4113
S"<class 'gluon.html.BODY'>"
p4114
sS'IS_DATE_IN_RANGE'
p4115
S"<class 'gluon.validators.IS_DATE_IN_RANGE'>"
p4116
sS'TH'
p4117
S"<class 'gluon.html.TH'>"
p4118
sS'URL'
p4119
S'<function URL at 0x02868EB0>'
p4120
sS'__file__'
p4121
S"'D:\\\\Dise\\xf1o Web\\\\Proyectos\\\\Parleyweb\\\\web2py\\\\applications\\\\parleyweb\\\\views\\\\default/mostrar.html'"
p4122
sS'db'
p4123
S"<DAL {'auth_event': <Table {'origin': <gluon.dal..._key': <gluon.dal.Field object at 0x075F8750>}>}>"
p4124
sS'auth'
p4125
S'<gluon.tools.Auth object at 0x075F8210>'
p4126
sS'P'
S"<class 'gluon.html.P'>"
p4127
sS'TFOOT'
p4128
S"<class 'gluon.html.TFOOT'>"
p4129
sS'XHTML'
p4130
S"<class 'gluon.html.XHTML'>"
p4131
sS'ON'
p4132
g1613
sS'OL'
p4133
S"<class 'gluon.html.OL'>"
p4134
sS'ejemplos'
p4135
S'None'
p4136
sS'TEXTAREA'
p4137
S"<class 'gluon.html.TEXTAREA'>"
p4138
sS'MENU'
p4139
S"<class 'gluon.html.MENU'>"
p4140
sS'LOAD'
p4141
S'<function LOAD at 0x02B517B0>'
p4142
sS'CODE'
p4143
S"<class 'gluon.html.CODE'>"
p4144
sS'HTTP'
p4145
S"<class 'gluon.http.HTTP'>"
p4146
sS'HR'
p4147
S"<class 'gluon.html.HR'>"
p4148
sS'IS_DATETIME'
p4149
S"<class 'gluon.validators.IS_DATETIME'>"
p4150
sS'HEAD'
p4151
S"<class 'gluon.html.HEAD'>"
p4152
sS'LABEL'
p4153
S"<class 'gluon.html.LABEL'>"
p4154
sS'CLEANUP'
p4155
S"<class 'gluon.validators.CLEANUP'>"
p4156
sS'plugins'
p4157
S'<gluon.tools.PluginManager object at 0x070BDBB0>'
p4158
sS'SELECT'
p4159
S"<class 'gluon.html.SELECT'>"
p4160
sS'use_janrain'
p4161
S'<function use_janrain at 0x032C7770>'
p4162
sS'CENTER'
p4163
S"<class 'gluon.html.CENTER'>"
p4164
sS'prettydate'
p4165
S'<function prettydate at 0x032C5D70>'
p4166
sS'Crud'
p4167
S"<class 'gluon.tools.Crud'>"
p4168
sS'Auth'
p4169
S"<class 'gluon.tools.Auth'>"
p4170
sS'__builtins__'
p4171
S"{'ArithmeticError': <type 'exceptions.ArithmeticError'>, 'AssertionError': <type 'exceptions.AssertionError'>, 'AttributeError': <type 'exceptions.AttributeError'>, 'BaseException': <type 'exceptions.BaseException'>, 'DeprecationWarning': <type 'exceptions.DeprecationWarning'>, 'EOFError': <type 'exceptions.EOFError'>, 'Ellipsis': Ellipsis, 'EnvironmentError': <type 'exceptions.EnvironmentError'>, 'Exception': <type 'exceptions.Exception'>, 'False': False, ...}"
p4172
sS'HTML'
p4173
S"<class 'gluon.html.HTML'>"
p4174
sS'SQLFORM'
p4175
S"<class 'gluon.sqlhtml.SQLFORM'>"
p4176
sS'EM'
p4177
S"<class 'gluon.html.EM'>"
p4178
sS'redirect'
p4179
S'<function redirect at 0x0252BB70>'
p4180
sS'FIELDSET'
p4181
S"<class 'gluon.html.FIELDSET'>"
p4182
sS'IS_EQUAL_TO'
p4183
S"<class 'gluon.validators.IS_EQUAL_TO'>"
p4184
sS'embed64'
p4185
S'<function embed64 at 0x028779F0>'
p4186
sS'IS_LIST_OF'
p4187
S"<class 'gluon.validators.IS_LIST_OF'>"
p4188
sS'__name__'
p4189
S"'__restricted__'"
p4190
sS'EMBED'
p4191
S"<class 'gluon.html.EMBED'>"
p4192
sS'_'
S'<function _ at 0x075F3C30>'
p4193
sS'FORM'
p4194
S"<class 'gluon.html.FORM'>"
p4195
sS'H2'
p4196
S"<class 'gluon.html.H2'>"
p4197
sS'H3'
p4198
S"<class 'gluon.html.H3'>"
p4199
sS'BUTTON'
p4200
S"<class 'gluon.html.BUTTON'>"
p4201
sS'H1'
p4202
S"<class 'gluon.html.H1'>"
p4203
sS'H6'
p4204
S"<class 'gluon.html.H6'>"
p4205
sS'H4'
p4206
S"<class 'gluon.html.H4'>"
p4207
sS'H5'
p4208
S"<class 'gluon.html.H5'>"
p4209
sS'UL'
p4210
S"<class 'gluon.html.UL'>"
p4211
sS'IS_UPPER'
p4212
S"<class 'gluon.validators.IS_UPPER'>"
p4213
sS'xmlescape'
p4214
S'<function xmlescape at 0x02868E30>'
p4215
sS'IS_TIME'
p4216
S"<class 'gluon.validators.IS_TIME'>"
p4217
sS'OPTION'
p4218
S"<class 'gluon.html.OPTION'>"
p4219
sS'TITLE'
p4220
S"<class 'gluon.html.TITLE'>"
p4221
sS'palabras'
p4222
S"<Row {'presente_1': None, 'imagen': None, 'susta...nadir_glosario': False, 'verbo_irregular': None}>"
p4223
sS'CRYPT'
p4224
S"<class 'gluon.validators.CRYPT'>"
p4225
sS'IS_EMPTY_OR'
p4226
S"<class 'gluon.validators.IS_EMPTY_OR'>"
p4227
sS'MARKMIN'
p4228
S"<class 'gluon.html.MARKMIN'>"
p4229
sS'INPUT'
p4230
S"<class 'gluon.html.INPUT'>"
p4231
sS'COL'
p4232
S"<class 'gluon.html.COL'>"
p4233
sS'service'
p4234
S'<gluon.tools.Service object at 0x075F8610>'
p4235
sS'SCRIPT'
p4236
S"<class 'gluon.html.SCRIPT'>"
p4237
sS'TABLE'
p4238
S"<class 'gluon.html.TABLE'>"
p4239
sS'IS_IPV4'
p4240
S"<class 'gluon.validators.IS_IPV4'>"
p4241
sS'IS_LENGTH'
p4242
S"<class 'gluon.validators.IS_LENGTH'>"
p4243
sS'XML'
p4244
S"<class 'gluon.html.XML'>"
p4245
sS'B'
S"<class 'gluon.html.B'>"
p4246
sS'IMG'
p4247
S"<class 'gluon.html.IMG'>"
p4248
sS'SQLTABLE'
p4249
S"<class 'gluon.sqlhtml.SQLTABLE'>"
p4250
sS'IS_MATCH'
p4251
S"<class 'gluon.validators.IS_MATCH'>"
p4252
sS'IS_ALPHANUMERIC'
p4253
S"<class 'gluon.validators.IS_ALPHANUMERIC'>"
p4254
sS'SPAN'
p4255
S"<class 'gluon.html.SPAN'>"
p4256
sS'IS_SLUG'
p4257
S"<class 'gluon.validators.IS_SLUG'>"
p4258
sS'BEAUTIFY'
p4259
S"<class 'gluon.html.BEAUTIFY'>"
p4260
sS'META'
p4261
S"<class 'gluon.html.META'>"
p4262
sS'IS_DATE'
p4263
S"<class 'gluon.validators.IS_DATE'>"
p4264
sS'IS_EMAIL'
p4265
S"<class 'gluon.validators.IS_EMAIL'>"
p4266
sS'IS_NOT_EMPTY'
p4267
S"<class 'gluon.validators.IS_NOT_EMPTY'>"
p4268
sS'IS_FLOAT_IN_RANGE'
p4269
S"<class 'gluon.validators.IS_FLOAT_IN_RANGE'>"
p4270
sS'TBODY'
p4271
S"<class 'gluon.html.TBODY'>"
p4272
sS'CAT'
p4273
S"<class 'gluon.html.CAT'>"
p4274
sS'Field'
p4275
S"<class 'gluon.dal.Field'>"
p4276
sS'middle_columns'
p4277
S"'sixteen'"
p4278
sS'DIV'
p4279
S"<class 'gluon.html.DIV'>"
p4280
sS'LEGEND'
p4281
S"<class 'gluon.html.LEGEND'>"
p4282
sS'COLGROUP'
p4283
S"<class 'gluon.html.COLGROUP'>"
p4284
sS'DAL'
p4285
S"<class 'gluon.dal.DAL'>"
p4286
sS'TT'
p4287
S"<class 'gluon.html.TT'>"
p4288
sS'TR'
p4289
S"<class 'gluon.html.TR'>"
p4290
sS'LI'
p4291
S"<class 'gluon.html.LI'>"
p4292
sS'right_sidebar_enabled'
p4293
g92
sS'IFRAME'
p4294
S"<class 'gluon.html.IFRAME'>"
p4295
sS'TD'
p4296
S"<class 'gluon.html.TD'>"
p4297
sS'PluginManager'
p4298
S"<class 'gluon.tools.PluginManager'>"
p4299
sS'IS_URL'
p4300
S"<class 'gluon.validators.IS_URL'>"
p4301
sS'A'
S"<class 'gluon.html.A'>"
p4302
sS'STYLE'
p4303
S"<class 'gluon.html.STYLE'>"
p4304
sS'IS_DATETIME_IN_RANGE'
p4305
S"<class 'gluon.validators.IS_DATETIME_IN_RANGE'>"
p4306
sS'IS_IMAGE'
p4307
S"<class 'gluon.validators.IS_IMAGE'>"
p4308
sS'I'
S"<class 'gluon.html.I'>"
p4309
sS'crud'
p4310
S'<gluon.tools.Crud object at 0x075F8550>'
p4311
sS'IS_NOT_IN_DB'
p4312
S"<class 'gluon.validators.IS_NOT_IN_DB'>"
p4313
sg2992
S"<Storage {'body': <cStringIO.StringO object at 0... at 0x077B3EF0>, 'view': 'default/mostrar.html'}>"
p4314
sS'THEAD'
p4315
S"<class 'gluon.html.THEAD'>"
p4316
sS'IS_NULL_OR'
p4317
S"<class 'gluon.validators.IS_EMPTY_OR'>"
p4318
sg48
S"<Storage {'body': <cStringIO.StringO object at 0..._vars': <Storage {}>, 'post_vars': <Storage {}>}>"
p4319
sS'IS_EXPR'
p4320
S"<class 'gluon.validators.IS_EXPR'>"
p4321
sS'T'
S'<gluon.languages.translator object at 0x0760C090>'
p4322
sS'IS_IN_SET'
p4323
S"<class 'gluon.validators.IS_IN_SET'>"
p4324
sS'IS_UPLOAD_FILENAME'
p4325
S"<class 'gluon.validators.IS_UPLOAD_FILENAME'>"
p4326
sS'IS_DECIMAL_IN_RANGE'
p4327
S"<class 'gluon.validators.IS_DECIMAL_IN_RANGE'>"
p4328
sssS'traceback'
p4329
S'Traceback (most recent call last):\n  File "gluon/restricted.py", line 205, in restricted\n  File "D:\\Dise\xf1o Web\\Proyectos\\Parleyweb\\web2py\\applications\\parleyweb\\views\\default/mostrar.html", line 64, in <module>\nNameError: name \'i\' is not defined\n'
p4330
s.