(dp1
S'output'
p2
S"<type 'exceptions.AttributeError'> 'NoneType' object has no attribute 'buscar_palabra'"
p3
sS'layer'
p4
S'D:\\Dise\xf1o Web\\Proyectos\\Parleyweb\\web2py\\applications\\parleyweb\\models\\globales.py'
p5
sS'code'
p6
S'\nformulario_busqueda = SQLFORM(db.busqueda, formstyle=\'divs\', _id="buscar_palabra_parley", submit_button=\'Enviar\')\nif formulario_busqueda.accepts(request.vars, session, dbio=False):\n    session.flash = "prueba"\n    redirect(URL(\'default\', \'index\', args=request.vars_post.buscar_palabra))\n\n\n   \n### Autocompletar busqueda ###\n#db.busqueda.buscar_palabra.widget = SQLFORM.widgets.autocomplete(\n#     request, db.palabras.palabra, limitby=(0,10), min_length=2)\n\n\n'
p7
sS'snapshot'
p8
(dp9
S'exception'
p10
(dp11
S'__hash__'
p12
S"<method-wrapper '__hash__' of exceptions.AttributeError object at 0x07819170>"
p13
sS'__setattr__'
p14
S"<method-wrapper '__setattr__' of exceptions.AttributeError object at 0x07819170>"
p15
sS'__reduce_ex__'
p16
S'<built-in method __reduce_ex__ of exceptions.AttributeError object at 0x07819170>'
p17
sS'__getslice__'
p18
S"<method-wrapper '__getslice__' of exceptions.AttributeError object at 0x07819170>"
p19
sS'__getitem__'
p20
S"<method-wrapper '__getitem__' of exceptions.AttributeError object at 0x07819170>"
p21
sS'__setstate__'
p22
S'<built-in method __setstate__ of exceptions.AttributeError object at 0x07819170>'
p23
sS'__reduce__'
p24
S'<built-in method __reduce__ of exceptions.AttributeError object at 0x07819170>'
p25
sS'__str__'
p26
S"<method-wrapper '__str__' of exceptions.AttributeError object at 0x07819170>"
p27
sS'args'
p28
S'("\'NoneType\' object has no attribute \'buscar_palabra\'",)'
p29
sS'__getattribute__'
p30
S"<method-wrapper '__getattribute__' of exceptions.AttributeError object at 0x07819170>"
p31
sS'__class__'
p32
S"<type 'exceptions.AttributeError'>"
p33
sS'__delattr__'
p34
S"<method-wrapper '__delattr__' of exceptions.AttributeError object at 0x07819170>"
p35
sS'__repr__'
p36
S"<method-wrapper '__repr__' of exceptions.AttributeError object at 0x07819170>"
p37
sS'__dict__'
p38
S'{}'
p39
sS'__doc__'
p40
S"'Attribute not found.'"
p41
sS'__init__'
p42
S"<method-wrapper '__init__' of exceptions.AttributeError object at 0x07819170>"
p43
sS'__new__'
p44
S'<built-in method __new__ of type object at 0x1E1CDA68>'
p45
ssS'evalue'
p46
S"'NoneType' object has no attribute 'buscar_palabra'"
p47
sS'request'
p48
ccopy_reg
_reconstructor
p49
(cgluon.html
BEAUTIFY
p50
c__builtin__
object
p51
NtRp52
(dp53
S'attributes'
p54
(dp55
sS'components'
p56
(lp57
g49
(cgluon.html
TABLE
p58
g51
NtRp59
(dp60
g54
(dp61
S'level'
p62
I5
ssS'parent'
p63
Nsg56
(lp64
g49
(cgluon.html
TR
p65
g51
NtRp66
(dp67
g54
(dp68
sg63
g59
sg56
(lp69
g49
(cgluon.html
TD
p70
g51
NtRp71
(dp72
g54
(dp73
S'_style'
p74
S'font-weight:bold;vertical-align:top'
p75
ssg63
g66
sg56
(lp76
S'ajax'
p77
asbag49
(g70
g51
NtRp78
(dp79
g54
(dp80
S'_valign'
p81
S'top'
p82
ssg63
g66
sg56
(lp83
S':'
asbag49
(g70
g51
NtRp84
(dp85
g54
(dp86
sg63
g66
sg56
(lp87
g49
(g50
g51
NtRp88
(dp89
g54
(dp90
g62
I5
ssg63
g84
sg56
(lp91
S'False'
p92
asbasbasbag49
(g65
g51
NtRp93
(dp94
g54
(dp95
sg63
g59
sg56
(lp96
g49
(g70
g51
NtRp97
(dp98
g54
(dp99
g74
g75
ssg63
g93
sg56
(lp100
S'application'
p101
asbag49
(g70
g51
NtRp102
(dp103
g54
(dp104
g81
g82
ssg63
g93
sg56
(lp105
S':'
asbag49
(g70
g51
NtRp106
(dp107
g54
(dp108
sg63
g93
sg56
(lp109
g49
(g50
g51
NtRp110
(dp111
g54
(dp112
g62
I5
ssg63
g106
sg56
(lp113
S'parleyweb'
p114
asbasbasbag49
(g65
g51
NtRp115
(dp116
g54
(dp117
sg63
g59
sg56
(lp118
g49
(g70
g51
NtRp119
(dp120
g54
(dp121
g74
g75
ssg63
g115
sg56
(lp122
g28
asbag49
(g70
g51
NtRp123
(dp124
g54
(dp125
g81
g82
ssg63
g115
sg56
(lp126
S':'
asbag49
(g70
g51
NtRp127
(dp128
g54
(dp129
sg63
g115
sg56
(lp130
g49
(g50
g51
NtRp131
(dp132
g54
(dp133
g62
I5
ssg63
g127
sg56
(lp134
g49
(g58
g51
NtRp135
(dp136
g54
(dp137
g62
I4
ssg63
Nsg56
(lp138
sbasbasbasbag49
(g65
g51
NtRp139
(dp140
g54
(dp141
sg63
g59
sg56
(lp142
g49
(g70
g51
NtRp143
(dp144
g54
(dp145
g74
g75
ssg63
g139
sg56
(lp146
S'body'
p147
asbag49
(g70
g51
NtRp148
(dp149
g54
(dp150
g81
g82
ssg63
g139
sg56
(lp151
S':'
asbag49
(g70
g51
NtRp152
(dp153
g54
(dp154
sg63
g139
sg56
(lp155
g49
(g50
g51
NtRp156
(dp157
g54
(dp158
g62
I5
ssg63
g152
sg56
(lp159
S"<open file '<fdopen>', mode 'w+b' at 0x0772D650>"
p160
asbasbasbag49
(g65
g51
NtRp161
(dp162
g54
(dp163
sg63
g59
sg56
(lp164
g49
(g70
g51
NtRp165
(dp166
g54
(dp167
g74
g75
ssg63
g161
sg56
(lp168
S'client'
p169
asbag49
(g70
g51
NtRp170
(dp171
g54
(dp172
g81
g82
ssg63
g161
sg56
(lp173
S':'
asbag49
(g70
g51
NtRp174
(dp175
g54
(dp176
sg63
g161
sg56
(lp177
g49
(g50
g51
NtRp178
(dp179
g54
(dp180
g62
I5
ssg63
g174
sg56
(lp181
S'127.0.0.1'
p182
asbasbasbag49
(g65
g51
NtRp183
(dp184
g54
(dp185
sg63
g59
sg56
(lp186
g49
(g70
g51
NtRp187
(dp188
g54
(dp189
g74
g75
ssg63
g183
sg56
(lp190
S'controller'
p191
asbag49
(g70
g51
NtRp192
(dp193
g54
(dp194
g81
g82
ssg63
g183
sg56
(lp195
S':'
asbag49
(g70
g51
NtRp196
(dp197
g54
(dp198
sg63
g183
sg56
(lp199
g49
(g50
g51
NtRp200
(dp201
g54
(dp202
g62
I5
ssg63
g196
sg56
(lp203
S'default'
p204
asbasbasbag49
(g65
g51
NtRp205
(dp206
g54
(dp207
sg63
g59
sg56
(lp208
g49
(g70
g51
NtRp209
(dp210
g54
(dp211
g74
g75
ssg63
g205
sg56
(lp212
S'cookies'
p213
asbag49
(g70
g51
NtRp214
(dp215
g54
(dp216
g81
g82
ssg63
g205
sg56
(lp217
S':'
asbag49
(g70
g51
NtRp218
(dp219
g54
(dp220
sg63
g205
sg56
(lp221
g49
(g50
g51
NtRp222
(dp223
g54
(dp224
g62
I5
ssg63
g218
sg56
(lp225
g49
(g58
g51
NtRp226
(dp227
g54
(dp228
g62
I4
ssg63
Nsg56
(lp229
g49
(g65
g51
NtRp230
(dp231
g54
(dp232
sg63
g226
sg56
(lp233
g49
(g70
g51
NtRp234
(dp235
g54
(dp236
g74
g75
ssg63
g230
sg56
(lp237
S'session_id_admin'
p238
asbag49
(g70
g51
NtRp239
(dp240
g54
(dp241
g81
g82
ssg63
g230
sg56
(lp242
S':'
asbag49
(g70
g51
NtRp243
(dp244
g54
(dp245
sg63
g230
sg56
(lp246
g49
(g50
g51
NtRp247
(dp248
g54
(dp249
g62
I4
ssg63
g243
sg56
(lp250
g49
(g58
g51
NtRp251
(dp252
g54
(dp253
g62
I3
ssg63
Nsg56
(lp254
g49
(g65
g51
NtRp255
(dp256
g54
(dp257
sg63
g251
sg56
(lp258
g49
(g70
g51
NtRp259
(dp260
g54
(dp261
g74
g75
ssg63
g255
sg56
(lp262
S'comment'
p263
asbag49
(g70
g51
NtRp264
(dp265
g54
(dp266
g81
g82
ssg63
g255
sg56
(lp267
S':'
asbag49
(g70
g51
NtRp268
(dp269
g54
(dp270
sg63
g255
sg56
(lp271
g49
(g50
g51
NtRp272
(dp273
g54
(dp274
g62
I3
ssg63
g268
sg56
(lp275
S''
asbasbasbag49
(g65
g51
NtRp276
(dp277
g54
(dp278
sg63
g251
sg56
(lp279
g49
(g70
g51
NtRp280
(dp281
g54
(dp282
g74
g75
ssg63
g276
sg56
(lp283
S'domain'
p284
asbag49
(g70
g51
NtRp285
(dp286
g54
(dp287
g81
g82
ssg63
g276
sg56
(lp288
S':'
asbag49
(g70
g51
NtRp289
(dp290
g54
(dp291
sg63
g276
sg56
(lp292
g49
(g50
g51
NtRp293
(dp294
g54
(dp295
g62
I3
ssg63
g289
sg56
(lp296
S''
asbasbasbag49
(g65
g51
NtRp297
(dp298
g54
(dp299
sg63
g251
sg56
(lp300
g49
(g70
g51
NtRp301
(dp302
g54
(dp303
g74
g75
ssg63
g297
sg56
(lp304
S'expires'
p305
asbag49
(g70
g51
NtRp306
(dp307
g54
(dp308
g81
g82
ssg63
g297
sg56
(lp309
S':'
asbag49
(g70
g51
NtRp310
(dp311
g54
(dp312
sg63
g297
sg56
(lp313
g49
(g50
g51
NtRp314
(dp315
g54
(dp316
g62
I3
ssg63
g310
sg56
(lp317
S''
asbasbasbag49
(g65
g51
NtRp318
(dp319
g54
(dp320
sg63
g251
sg56
(lp321
g49
(g70
g51
NtRp322
(dp323
g54
(dp324
g74
g75
ssg63
g318
sg56
(lp325
S'max-age'
p326
asbag49
(g70
g51
NtRp327
(dp328
g54
(dp329
g81
g82
ssg63
g318
sg56
(lp330
S':'
asbag49
(g70
g51
NtRp331
(dp332
g54
(dp333
sg63
g318
sg56
(lp334
g49
(g50
g51
NtRp335
(dp336
g54
(dp337
g62
I3
ssg63
g331
sg56
(lp338
S''
asbasbasbag49
(g65
g51
NtRp339
(dp340
g54
(dp341
sg63
g251
sg56
(lp342
g49
(g70
g51
NtRp343
(dp344
g54
(dp345
g74
g75
ssg63
g339
sg56
(lp346
S'path'
p347
asbag49
(g70
g51
NtRp348
(dp349
g54
(dp350
g81
g82
ssg63
g339
sg56
(lp351
S':'
asbag49
(g70
g51
NtRp352
(dp353
g54
(dp354
sg63
g339
sg56
(lp355
g49
(g50
g51
NtRp356
(dp357
g54
(dp358
g62
I3
ssg63
g352
sg56
(lp359
S''
asbasbasbag49
(g65
g51
NtRp360
(dp361
g54
(dp362
sg63
g251
sg56
(lp363
g49
(g70
g51
NtRp364
(dp365
g54
(dp366
g74
g75
ssg63
g360
sg56
(lp367
S'secure'
p368
asbag49
(g70
g51
NtRp369
(dp370
g54
(dp371
g81
g82
ssg63
g360
sg56
(lp372
S':'
asbag49
(g70
g51
NtRp373
(dp374
g54
(dp375
sg63
g360
sg56
(lp376
g49
(g50
g51
NtRp377
(dp378
g54
(dp379
g62
I3
ssg63
g373
sg56
(lp380
S''
asbasbasbag49
(g65
g51
NtRp381
(dp382
g54
(dp383
sg63
g251
sg56
(lp384
g49
(g70
g51
NtRp385
(dp386
g54
(dp387
g74
g75
ssg63
g381
sg56
(lp388
S'version'
p389
asbag49
(g70
g51
NtRp390
(dp391
g54
(dp392
g81
g82
ssg63
g381
sg56
(lp393
S':'
asbag49
(g70
g51
NtRp394
(dp395
g54
(dp396
sg63
g381
sg56
(lp397
g49
(g50
g51
NtRp398
(dp399
g54
(dp400
g62
I3
ssg63
g394
sg56
(lp401
S''
asbasbasbasbasbasbasbag49
(g65
g51
NtRp402
(dp403
g54
(dp404
sg63
g226
sg56
(lp405
g49
(g70
g51
NtRp406
(dp407
g54
(dp408
g74
g75
ssg63
g402
sg56
(lp409
S'session_id_parleyweb'
p410
asbag49
(g70
g51
NtRp411
(dp412
g54
(dp413
g81
g82
ssg63
g402
sg56
(lp414
S':'
asbag49
(g70
g51
NtRp415
(dp416
g54
(dp417
sg63
g402
sg56
(lp418
g49
(g50
g51
NtRp419
(dp420
g54
(dp421
g62
I4
ssg63
g415
sg56
(lp422
g49
(g58
g51
NtRp423
(dp424
g54
(dp425
g62
I3
ssg63
Nsg56
(lp426
g49
(g65
g51
NtRp427
(dp428
g54
(dp429
sg63
g423
sg56
(lp430
g49
(g70
g51
NtRp431
(dp432
g54
(dp433
g74
g75
ssg63
g427
sg56
(lp434
g263
asbag49
(g70
g51
NtRp435
(dp436
g54
(dp437
g81
g82
ssg63
g427
sg56
(lp438
S':'
asbag49
(g70
g51
NtRp439
(dp440
g54
(dp441
sg63
g427
sg56
(lp442
g49
(g50
g51
NtRp443
(dp444
g54
(dp445
g62
I3
ssg63
g439
sg56
(lp446
S''
asbasbasbag49
(g65
g51
NtRp447
(dp448
g54
(dp449
sg63
g423
sg56
(lp450
g49
(g70
g51
NtRp451
(dp452
g54
(dp453
g74
g75
ssg63
g447
sg56
(lp454
g284
asbag49
(g70
g51
NtRp455
(dp456
g54
(dp457
g81
g82
ssg63
g447
sg56
(lp458
S':'
asbag49
(g70
g51
NtRp459
(dp460
g54
(dp461
sg63
g447
sg56
(lp462
g49
(g50
g51
NtRp463
(dp464
g54
(dp465
g62
I3
ssg63
g459
sg56
(lp466
S''
asbasbasbag49
(g65
g51
NtRp467
(dp468
g54
(dp469
sg63
g423
sg56
(lp470
g49
(g70
g51
NtRp471
(dp472
g54
(dp473
g74
g75
ssg63
g467
sg56
(lp474
g305
asbag49
(g70
g51
NtRp475
(dp476
g54
(dp477
g81
g82
ssg63
g467
sg56
(lp478
S':'
asbag49
(g70
g51
NtRp479
(dp480
g54
(dp481
sg63
g467
sg56
(lp482
g49
(g50
g51
NtRp483
(dp484
g54
(dp485
g62
I3
ssg63
g479
sg56
(lp486
S''
asbasbasbag49
(g65
g51
NtRp487
(dp488
g54
(dp489
sg63
g423
sg56
(lp490
g49
(g70
g51
NtRp491
(dp492
g54
(dp493
g74
g75
ssg63
g487
sg56
(lp494
g326
asbag49
(g70
g51
NtRp495
(dp496
g54
(dp497
g81
g82
ssg63
g487
sg56
(lp498
S':'
asbag49
(g70
g51
NtRp499
(dp500
g54
(dp501
sg63
g487
sg56
(lp502
g49
(g50
g51
NtRp503
(dp504
g54
(dp505
g62
I3
ssg63
g499
sg56
(lp506
S''
asbasbasbag49
(g65
g51
NtRp507
(dp508
g54
(dp509
sg63
g423
sg56
(lp510
g49
(g70
g51
NtRp511
(dp512
g54
(dp513
g74
g75
ssg63
g507
sg56
(lp514
g347
asbag49
(g70
g51
NtRp515
(dp516
g54
(dp517
g81
g82
ssg63
g507
sg56
(lp518
S':'
asbag49
(g70
g51
NtRp519
(dp520
g54
(dp521
sg63
g507
sg56
(lp522
g49
(g50
g51
NtRp523
(dp524
g54
(dp525
g62
I3
ssg63
g519
sg56
(lp526
S''
asbasbasbag49
(g65
g51
NtRp527
(dp528
g54
(dp529
sg63
g423
sg56
(lp530
g49
(g70
g51
NtRp531
(dp532
g54
(dp533
g74
g75
ssg63
g527
sg56
(lp534
g368
asbag49
(g70
g51
NtRp535
(dp536
g54
(dp537
g81
g82
ssg63
g527
sg56
(lp538
S':'
asbag49
(g70
g51
NtRp539
(dp540
g54
(dp541
sg63
g527
sg56
(lp542
g49
(g50
g51
NtRp543
(dp544
g54
(dp545
g62
I3
ssg63
g539
sg56
(lp546
S''
asbasbasbag49
(g65
g51
NtRp547
(dp548
g54
(dp549
sg63
g423
sg56
(lp550
g49
(g70
g51
NtRp551
(dp552
g54
(dp553
g74
g75
ssg63
g547
sg56
(lp554
g389
asbag49
(g70
g51
NtRp555
(dp556
g54
(dp557
g81
g82
ssg63
g547
sg56
(lp558
S':'
asbag49
(g70
g51
NtRp559
(dp560
g54
(dp561
sg63
g547
sg56
(lp562
g49
(g50
g51
NtRp563
(dp564
g54
(dp565
g62
I3
ssg63
g559
sg56
(lp566
S''
asbasbasbasbasbasbasbag49
(g65
g51
NtRp567
(dp568
g54
(dp569
sg63
g226
sg56
(lp570
g49
(g70
g51
NtRp571
(dp572
g54
(dp573
g74
g75
ssg63
g567
sg56
(lp574
S'session_id_welcome'
p575
asbag49
(g70
g51
NtRp576
(dp577
g54
(dp578
g81
g82
ssg63
g567
sg56
(lp579
S':'
asbag49
(g70
g51
NtRp580
(dp581
g54
(dp582
sg63
g567
sg56
(lp583
g49
(g50
g51
NtRp584
(dp585
g54
(dp586
g62
I4
ssg63
g580
sg56
(lp587
g49
(g58
g51
NtRp588
(dp589
g54
(dp590
g62
I3
ssg63
Nsg56
(lp591
g49
(g65
g51
NtRp592
(dp593
g54
(dp594
sg63
g588
sg56
(lp595
g49
(g70
g51
NtRp596
(dp597
g54
(dp598
g74
g75
ssg63
g592
sg56
(lp599
g263
asbag49
(g70
g51
NtRp600
(dp601
g54
(dp602
g81
g82
ssg63
g592
sg56
(lp603
S':'
asbag49
(g70
g51
NtRp604
(dp605
g54
(dp606
sg63
g592
sg56
(lp607
g49
(g50
g51
NtRp608
(dp609
g54
(dp610
g62
I3
ssg63
g604
sg56
(lp611
S''
asbasbasbag49
(g65
g51
NtRp612
(dp613
g54
(dp614
sg63
g588
sg56
(lp615
g49
(g70
g51
NtRp616
(dp617
g54
(dp618
g74
g75
ssg63
g612
sg56
(lp619
g284
asbag49
(g70
g51
NtRp620
(dp621
g54
(dp622
g81
g82
ssg63
g612
sg56
(lp623
S':'
asbag49
(g70
g51
NtRp624
(dp625
g54
(dp626
sg63
g612
sg56
(lp627
g49
(g50
g51
NtRp628
(dp629
g54
(dp630
g62
I3
ssg63
g624
sg56
(lp631
S''
asbasbasbag49
(g65
g51
NtRp632
(dp633
g54
(dp634
sg63
g588
sg56
(lp635
g49
(g70
g51
NtRp636
(dp637
g54
(dp638
g74
g75
ssg63
g632
sg56
(lp639
g305
asbag49
(g70
g51
NtRp640
(dp641
g54
(dp642
g81
g82
ssg63
g632
sg56
(lp643
S':'
asbag49
(g70
g51
NtRp644
(dp645
g54
(dp646
sg63
g632
sg56
(lp647
g49
(g50
g51
NtRp648
(dp649
g54
(dp650
g62
I3
ssg63
g644
sg56
(lp651
S''
asbasbasbag49
(g65
g51
NtRp652
(dp653
g54
(dp654
sg63
g588
sg56
(lp655
g49
(g70
g51
NtRp656
(dp657
g54
(dp658
g74
g75
ssg63
g652
sg56
(lp659
g326
asbag49
(g70
g51
NtRp660
(dp661
g54
(dp662
g81
g82
ssg63
g652
sg56
(lp663
S':'
asbag49
(g70
g51
NtRp664
(dp665
g54
(dp666
sg63
g652
sg56
(lp667
g49
(g50
g51
NtRp668
(dp669
g54
(dp670
g62
I3
ssg63
g664
sg56
(lp671
S''
asbasbasbag49
(g65
g51
NtRp672
(dp673
g54
(dp674
sg63
g588
sg56
(lp675
g49
(g70
g51
NtRp676
(dp677
g54
(dp678
g74
g75
ssg63
g672
sg56
(lp679
g347
asbag49
(g70
g51
NtRp680
(dp681
g54
(dp682
g81
g82
ssg63
g672
sg56
(lp683
S':'
asbag49
(g70
g51
NtRp684
(dp685
g54
(dp686
sg63
g672
sg56
(lp687
g49
(g50
g51
NtRp688
(dp689
g54
(dp690
g62
I3
ssg63
g684
sg56
(lp691
S''
asbasbasbag49
(g65
g51
NtRp692
(dp693
g54
(dp694
sg63
g588
sg56
(lp695
g49
(g70
g51
NtRp696
(dp697
g54
(dp698
g74
g75
ssg63
g692
sg56
(lp699
g368
asbag49
(g70
g51
NtRp700
(dp701
g54
(dp702
g81
g82
ssg63
g692
sg56
(lp703
S':'
asbag49
(g70
g51
NtRp704
(dp705
g54
(dp706
sg63
g692
sg56
(lp707
g49
(g50
g51
NtRp708
(dp709
g54
(dp710
g62
I3
ssg63
g704
sg56
(lp711
S''
asbasbasbag49
(g65
g51
NtRp712
(dp713
g54
(dp714
sg63
g588
sg56
(lp715
g49
(g70
g51
NtRp716
(dp717
g54
(dp718
g74
g75
ssg63
g712
sg56
(lp719
g389
asbag49
(g70
g51
NtRp720
(dp721
g54
(dp722
g81
g82
ssg63
g712
sg56
(lp723
S':'
asbag49
(g70
g51
NtRp724
(dp725
g54
(dp726
sg63
g712
sg56
(lp727
g49
(g50
g51
NtRp728
(dp729
g54
(dp730
g62
I3
ssg63
g724
sg56
(lp731
S''
asbasbasbasbasbasbasbasbasbasbasbag49
(g65
g51
NtRp732
(dp733
g54
(dp734
sg63
g59
sg56
(lp735
g49
(g70
g51
NtRp736
(dp737
g54
(dp738
g74
g75
ssg63
g732
sg56
(lp739
S'env'
p740
asbag49
(g70
g51
NtRp741
(dp742
g54
(dp743
g81
g82
ssg63
g732
sg56
(lp744
S':'
asbag49
(g70
g51
NtRp745
(dp746
g54
(dp747
sg63
g732
sg56
(lp748
g49
(g50
g51
NtRp749
(dp750
g54
(dp751
g62
I5
ssg63
g745
sg56
(lp752
g49
(g58
g51
NtRp753
(dp754
g54
(dp755
g62
I4
ssg63
Nsg56
(lp756
g49
(g65
g51
NtRp757
(dp758
g54
(dp759
sg63
g753
sg56
(lp760
g49
(g70
g51
NtRp761
(dp762
g54
(dp763
g74
g75
ssg63
g757
sg56
(lp764
S'app_folders'
p765
asbag49
(g70
g51
NtRp766
(dp767
g54
(dp768
g81
g82
ssg63
g757
sg56
(lp769
S':'
asbag49
(g70
g51
NtRp770
(dp771
g54
(dp772
sg63
g757
sg56
(lp773
g49
(g50
g51
NtRp774
(dp775
g54
(dp776
g62
I4
ssg63
g770
sg56
(lp777
S"set(['D:\\\\Dise\\xf1o Web\\\\Proyectos\\\\Parleyweb\\\\web2py\\\\applications\\\\parleyweb\\\\', 'D:\\\\Dise\\xf1o Web\\\\Proyectos\\\\Parleyweb\\\\web2py\\\\applications\\\\welcome\\\\', 'D:\\\\Dise\\xf1o Web\\\\Proyectos\\\\Parleyweb\\\\web2py\\\\applications\\\\admin\\\\'])"
p778
asbasbasbag49
(g65
g51
NtRp779
(dp780
g54
(dp781
sg63
g753
sg56
(lp782
g49
(g70
g51
NtRp783
(dp784
g54
(dp785
g74
g75
ssg63
g779
sg56
(lp786
S'applications_parent'
p787
asbag49
(g70
g51
NtRp788
(dp789
g54
(dp790
g81
g82
ssg63
g779
sg56
(lp791
S':'
asbag49
(g70
g51
NtRp792
(dp793
g54
(dp794
sg63
g779
sg56
(lp795
g49
(g50
g51
NtRp796
(dp797
g54
(dp798
g62
I4
ssg63
g792
sg56
(lp799
S'D:\\Dise\xf1o Web\\Proyectos\\Parleyweb\\web2py'
p800
asbasbasbag49
(g65
g51
NtRp801
(dp802
g54
(dp803
sg63
g753
sg56
(lp804
g49
(g70
g51
NtRp805
(dp806
g54
(dp807
g74
g75
ssg63
g801
sg56
(lp808
S'cmd_args'
p809
asbag49
(g70
g51
NtRp810
(dp811
g54
(dp812
g81
g82
ssg63
g801
sg56
(lp813
S':'
asbag49
(g70
g51
NtRp814
(dp815
g54
(dp816
sg63
g801
sg56
(lp817
g49
(g50
g51
NtRp818
(dp819
g54
(dp820
g62
I4
ssg63
g814
sg56
(lp821
g49
(g58
g51
NtRp822
(dp823
g54
(dp824
g62
I3
ssg63
Nsg56
(lp825
sbasbasbasbag49
(g65
g51
NtRp826
(dp827
g54
(dp828
sg63
g753
sg56
(lp829
g49
(g70
g51
NtRp830
(dp831
g54
(dp832
g74
g75
ssg63
g826
sg56
(lp833
S'cmd_options'
p834
asbag49
(g70
g51
NtRp835
(dp836
g54
(dp837
g81
g82
ssg63
g826
sg56
(lp838
S':'
asbag49
(g70
g51
NtRp839
(dp840
g54
(dp841
sg63
g826
sg56
(lp842
g49
(g50
g51
NtRp843
(dp844
g54
(dp845
g62
I4
ssg63
g839
sg56
(lp846
S"<Values at 0x3110f30: {'verbose': False, 'ip': '127.0.0.1', 'shutdown_timeout': 5, 'taskbar': False, 'nocron': False, 'pid_filename': 'httpserver.pid', 'maxthreads': None, 'softcron': False, 'server_name': 'craxsnet-PC', 'bpython': False, 'nogui': False, 'port': 8000, 'extcron': False, 'debuglevel': 30, 'test': None, 'folder': 'D:\\\\Dise\\xf1o Web\\\\Proyectos\\\\Parleyweb\\\\web2py', 'config': '', 'import_models': False, 'winservice': '', 'shell': None, 'run': '', 'log_filename': 'httpserver.log', 'args': [''], 'socket_timeout': 5, 'ssl_ca_certificate': None, 'scheduler': None, 'profiler_filename': None, 'ssl_private_key': '', 'password': '<ask>', 'request_queue_size': 5, 'ssl_certificate': '', 'cronjob': False, 'numthreads': None, 'quiet': False, 'interfaces': None, 'minthreads': None, 'timeout': 10, 'plain': False, 'nobanner': False}>"
p847
asbasbasbag49
(g65
g51
NtRp848
(dp849
g54
(dp850
sg63
g753
sg56
(lp851
g49
(g70
g51
NtRp852
(dp853
g54
(dp854
g74
g75
ssg63
g848
sg56
(lp855
S'content_length'
p856
asbag49
(g70
g51
NtRp857
(dp858
g54
(dp859
g81
g82
ssg63
g848
sg56
(lp860
S':'
asbag49
(g70
g51
NtRp861
(dp862
g54
(dp863
sg63
g848
sg56
(lp864
g49
(g50
g51
NtRp865
(dp866
g54
(dp867
g62
I4
ssg63
g861
sg56
(lp868
S'527'
p869
asbasbasbag49
(g65
g51
NtRp870
(dp871
g54
(dp872
sg63
g753
sg56
(lp873
g49
(g70
g51
NtRp874
(dp875
g54
(dp876
g74
g75
ssg63
g870
sg56
(lp877
S'content_type'
p878
asbag49
(g70
g51
NtRp879
(dp880
g54
(dp881
g81
g82
ssg63
g870
sg56
(lp882
S':'
asbag49
(g70
g51
NtRp883
(dp884
g54
(dp885
sg63
g870
sg56
(lp886
g49
(g50
g51
NtRp887
(dp888
g54
(dp889
g62
I4
ssg63
g883
sg56
(lp890
S'multipart/form-data; boundary=---------------------------126232408419954'
p891
asbasbasbag49
(g65
g51
NtRp892
(dp893
g54
(dp894
sg63
g753
sg56
(lp895
g49
(g70
g51
NtRp896
(dp897
g54
(dp898
g74
g75
ssg63
g892
sg56
(lp899
S'db_sessions'
p900
asbag49
(g70
g51
NtRp901
(dp902
g54
(dp903
g81
g82
ssg63
g892
sg56
(lp904
S':'
asbag49
(g70
g51
NtRp905
(dp906
g54
(dp907
sg63
g892
sg56
(lp908
g49
(g50
g51
NtRp909
(dp910
g54
(dp911
g62
I4
ssg63
g905
sg56
(lp912
S'set([])'
p913
asbasbasbag49
(g65
g51
NtRp914
(dp915
g54
(dp916
sg63
g753
sg56
(lp917
g49
(g70
g51
NtRp918
(dp919
g54
(dp920
g74
g75
ssg63
g914
sg56
(lp921
S'debugging'
p922
asbag49
(g70
g51
NtRp923
(dp924
g54
(dp925
g81
g82
ssg63
g914
sg56
(lp926
S':'
asbag49
(g70
g51
NtRp927
(dp928
g54
(dp929
sg63
g914
sg56
(lp930
g49
(g50
g51
NtRp931
(dp932
g54
(dp933
g62
I4
ssg63
g927
sg56
(lp934
g92
asbasbasbag49
(g65
g51
NtRp935
(dp936
g54
(dp937
sg63
g753
sg56
(lp938
g49
(g70
g51
NtRp939
(dp940
g54
(dp941
g74
g75
ssg63
g935
sg56
(lp942
S'gluon_parent'
p943
asbag49
(g70
g51
NtRp944
(dp945
g54
(dp946
g81
g82
ssg63
g935
sg56
(lp947
S':'
asbag49
(g70
g51
NtRp948
(dp949
g54
(dp950
sg63
g935
sg56
(lp951
g49
(g50
g51
NtRp952
(dp953
g54
(dp954
g62
I4
ssg63
g948
sg56
(lp955
S'D:\\Dise\xf1o Web\\Proyectos\\Parleyweb\\web2py'
p956
asbasbasbag49
(g65
g51
NtRp957
(dp958
g54
(dp959
sg63
g753
sg56
(lp960
g49
(g70
g51
NtRp961
(dp962
g54
(dp963
g74
g75
ssg63
g957
sg56
(lp964
S'http_accept'
p965
asbag49
(g70
g51
NtRp966
(dp967
g54
(dp968
g81
g82
ssg63
g957
sg56
(lp969
S':'
asbag49
(g70
g51
NtRp970
(dp971
g54
(dp972
sg63
g957
sg56
(lp973
g49
(g50
g51
NtRp974
(dp975
g54
(dp976
g62
I4
ssg63
g970
sg56
(lp977
S'text/html,application/xhtml+xml,application/xml;q=0.9,*/*;q=0.8'
p978
asbasbasbag49
(g65
g51
NtRp979
(dp980
g54
(dp981
sg63
g753
sg56
(lp982
g49
(g70
g51
NtRp983
(dp984
g54
(dp985
g74
g75
ssg63
g979
sg56
(lp986
S'http_accept_encoding'
p987
asbag49
(g70
g51
NtRp988
(dp989
g54
(dp990
g81
g82
ssg63
g979
sg56
(lp991
S':'
asbag49
(g70
g51
NtRp992
(dp993
g54
(dp994
sg63
g979
sg56
(lp995
g49
(g50
g51
NtRp996
(dp997
g54
(dp998
g62
I4
ssg63
g992
sg56
(lp999
S'gzip, deflate'
p1000
asbasbasbag49
(g65
g51
NtRp1001
(dp1002
g54
(dp1003
sg63
g753
sg56
(lp1004
g49
(g70
g51
NtRp1005
(dp1006
g54
(dp1007
g74
g75
ssg63
g1001
sg56
(lp1008
S'http_accept_language'
p1009
asbag49
(g70
g51
NtRp1010
(dp1011
g54
(dp1012
g81
g82
ssg63
g1001
sg56
(lp1013
S':'
asbag49
(g70
g51
NtRp1014
(dp1015
g54
(dp1016
sg63
g1001
sg56
(lp1017
g49
(g50
g51
NtRp1018
(dp1019
g54
(dp1020
g62
I4
ssg63
g1014
sg56
(lp1021
S'es-es,de-de;q=0.8,es;q=0.6,en-us;q=0.4,en;q=0.2'
p1022
asbasbasbag49
(g65
g51
NtRp1023
(dp1024
g54
(dp1025
sg63
g753
sg56
(lp1026
g49
(g70
g51
NtRp1027
(dp1028
g54
(dp1029
g74
g75
ssg63
g1023
sg56
(lp1030
S'http_connection'
p1031
asbag49
(g70
g51
NtRp1032
(dp1033
g54
(dp1034
g81
g82
ssg63
g1023
sg56
(lp1035
S':'
asbag49
(g70
g51
NtRp1036
(dp1037
g54
(dp1038
sg63
g1023
sg56
(lp1039
g49
(g50
g51
NtRp1040
(dp1041
g54
(dp1042
g62
I4
ssg63
g1036
sg56
(lp1043
S'keep-alive'
p1044
asbasbasbag49
(g65
g51
NtRp1045
(dp1046
g54
(dp1047
sg63
g753
sg56
(lp1048
g49
(g70
g51
NtRp1049
(dp1050
g54
(dp1051
g74
g75
ssg63
g1045
sg56
(lp1052
S'http_content_length'
p1053
asbag49
(g70
g51
NtRp1054
(dp1055
g54
(dp1056
g81
g82
ssg63
g1045
sg56
(lp1057
S':'
asbag49
(g70
g51
NtRp1058
(dp1059
g54
(dp1060
sg63
g1045
sg56
(lp1061
g49
(g50
g51
NtRp1062
(dp1063
g54
(dp1064
g62
I4
ssg63
g1058
sg56
(lp1065
g869
asbasbasbag49
(g65
g51
NtRp1066
(dp1067
g54
(dp1068
sg63
g753
sg56
(lp1069
g49
(g70
g51
NtRp1070
(dp1071
g54
(dp1072
g74
g75
ssg63
g1066
sg56
(lp1073
S'http_content_type'
p1074
asbag49
(g70
g51
NtRp1075
(dp1076
g54
(dp1077
g81
g82
ssg63
g1066
sg56
(lp1078
S':'
asbag49
(g70
g51
NtRp1079
(dp1080
g54
(dp1081
sg63
g1066
sg56
(lp1082
g49
(g50
g51
NtRp1083
(dp1084
g54
(dp1085
g62
I4
ssg63
g1079
sg56
(lp1086
g891
asbasbasbag49
(g65
g51
NtRp1087
(dp1088
g54
(dp1089
sg63
g753
sg56
(lp1090
g49
(g70
g51
NtRp1091
(dp1092
g54
(dp1093
g74
g75
ssg63
g1087
sg56
(lp1094
S'http_cookie'
p1095
asbag49
(g70
g51
NtRp1096
(dp1097
g54
(dp1098
g81
g82
ssg63
g1087
sg56
(lp1099
S':'
asbag49
(g70
g51
NtRp1100
(dp1101
g54
(dp1102
sg63
g1087
sg56
(lp1103
g49
(g50
g51
NtRp1104
(dp1105
g54
(dp1106
g62
I4
ssg63
g1100
sg56
(lp1107
S'__utma=96992031.26429765.1325029743.1325029743.1326549329.2; __utmz=96992031.1325029743.1.1.utmcsr=(direct)|utmccn=(direct)|utmcmd=(none); session_id_welcome=127.0.0.1-644b7da8-0d4f-4bbf-b94b-66f6992adfc8; session_id_parleyweb=127.0.0.1-0780c0c1-affd-425a-affb-ac061c4961c7; session_id_admin=127.0.0.1-532b2264-f480-4135-a7d5-01c72ef908a1'
p1108
asbasbasbag49
(g65
g51
NtRp1109
(dp1110
g54
(dp1111
sg63
g753
sg56
(lp1112
g49
(g70
g51
NtRp1113
(dp1114
g54
(dp1115
g74
g75
ssg63
g1109
sg56
(lp1116
S'http_host'
p1117
asbag49
(g70
g51
NtRp1118
(dp1119
g54
(dp1120
g81
g82
ssg63
g1109
sg56
(lp1121
S':'
asbag49
(g70
g51
NtRp1122
(dp1123
g54
(dp1124
sg63
g1109
sg56
(lp1125
g49
(g50
g51
NtRp1126
(dp1127
g54
(dp1128
g62
I4
ssg63
g1122
sg56
(lp1129
S'127.0.0.1:8000'
p1130
asbasbasbag49
(g65
g51
NtRp1131
(dp1132
g54
(dp1133
sg63
g753
sg56
(lp1134
g49
(g70
g51
NtRp1135
(dp1136
g54
(dp1137
g74
g75
ssg63
g1131
sg56
(lp1138
S'http_referer'
p1139
asbag49
(g70
g51
NtRp1140
(dp1141
g54
(dp1142
g81
g82
ssg63
g1131
sg56
(lp1143
S':'
asbag49
(g70
g51
NtRp1144
(dp1145
g54
(dp1146
sg63
g1131
sg56
(lp1147
g49
(g50
g51
NtRp1148
(dp1149
g54
(dp1150
g62
I4
ssg63
g1144
sg56
(lp1151
S'http://127.0.0.1:8000/parleyweb/default/index'
p1152
asbasbasbag49
(g65
g51
NtRp1153
(dp1154
g54
(dp1155
sg63
g753
sg56
(lp1156
g49
(g70
g51
NtRp1157
(dp1158
g54
(dp1159
g74
g75
ssg63
g1153
sg56
(lp1160
S'http_user_agent'
p1161
asbag49
(g70
g51
NtRp1162
(dp1163
g54
(dp1164
g81
g82
ssg63
g1153
sg56
(lp1165
S':'
asbag49
(g70
g51
NtRp1166
(dp1167
g54
(dp1168
sg63
g1153
sg56
(lp1169
g49
(g50
g51
NtRp1170
(dp1171
g54
(dp1172
g62
I4
ssg63
g1166
sg56
(lp1173
S'Mozilla/5.0 (Windows NT 6.1; WOW64; rv:11.0) Gecko/20100101 Firefox/11.0'
p1174
asbasbasbag49
(g65
g51
NtRp1175
(dp1176
g54
(dp1177
sg63
g753
sg56
(lp1178
g49
(g70
g51
NtRp1179
(dp1180
g54
(dp1181
g74
g75
ssg63
g1175
sg56
(lp1182
S'is_jython'
p1183
asbag49
(g70
g51
NtRp1184
(dp1185
g54
(dp1186
g81
g82
ssg63
g1175
sg56
(lp1187
S':'
asbag49
(g70
g51
NtRp1188
(dp1189
g54
(dp1190
sg63
g1175
sg56
(lp1191
g49
(g50
g51
NtRp1192
(dp1193
g54
(dp1194
g62
I4
ssg63
g1188
sg56
(lp1195
g92
asbasbasbag49
(g65
g51
NtRp1196
(dp1197
g54
(dp1198
sg63
g753
sg56
(lp1199
g49
(g70
g51
NtRp1200
(dp1201
g54
(dp1202
g74
g75
ssg63
g1196
sg56
(lp1203
S'is_pypy'
p1204
asbag49
(g70
g51
NtRp1205
(dp1206
g54
(dp1207
g81
g82
ssg63
g1196
sg56
(lp1208
S':'
asbag49
(g70
g51
NtRp1209
(dp1210
g54
(dp1211
sg63
g1196
sg56
(lp1212
g49
(g50
g51
NtRp1213
(dp1214
g54
(dp1215
g62
I4
ssg63
g1209
sg56
(lp1216
g92
asbasbasbag49
(g65
g51
NtRp1217
(dp1218
g54
(dp1219
sg63
g753
sg56
(lp1220
g49
(g70
g51
NtRp1221
(dp1222
g54
(dp1223
g74
g75
ssg63
g1217
sg56
(lp1224
S'path_info'
p1225
asbag49
(g70
g51
NtRp1226
(dp1227
g54
(dp1228
g81
g82
ssg63
g1217
sg56
(lp1229
S':'
asbag49
(g70
g51
NtRp1230
(dp1231
g54
(dp1232
sg63
g1217
sg56
(lp1233
g49
(g50
g51
NtRp1234
(dp1235
g54
(dp1236
g62
I4
ssg63
g1230
sg56
(lp1237
S'/parleyweb/default/index'
p1238
asbasbasbag49
(g65
g51
NtRp1239
(dp1240
g54
(dp1241
sg63
g753
sg56
(lp1242
g49
(g70
g51
NtRp1243
(dp1244
g54
(dp1245
g74
g75
ssg63
g1239
sg56
(lp1246
S'query_string'
p1247
asbag49
(g70
g51
NtRp1248
(dp1249
g54
(dp1250
g81
g82
ssg63
g1239
sg56
(lp1251
S':'
asbag49
(g70
g51
NtRp1252
(dp1253
g54
(dp1254
sg63
g1239
sg56
(lp1255
g49
(g50
g51
NtRp1256
(dp1257
g54
(dp1258
g62
I4
ssg63
g1252
sg56
(lp1259
S''
asbasbasbag49
(g65
g51
NtRp1260
(dp1261
g54
(dp1262
sg63
g753
sg56
(lp1263
g49
(g70
g51
NtRp1264
(dp1265
g54
(dp1266
g74
g75
ssg63
g1260
sg56
(lp1267
S'remote_addr'
p1268
asbag49
(g70
g51
NtRp1269
(dp1270
g54
(dp1271
g81
g82
ssg63
g1260
sg56
(lp1272
S':'
asbag49
(g70
g51
NtRp1273
(dp1274
g54
(dp1275
sg63
g1260
sg56
(lp1276
g49
(g50
g51
NtRp1277
(dp1278
g54
(dp1279
g62
I4
ssg63
g1273
sg56
(lp1280
g182
asbasbasbag49
(g65
g51
NtRp1281
(dp1282
g54
(dp1283
sg63
g753
sg56
(lp1284
g49
(g70
g51
NtRp1285
(dp1286
g54
(dp1287
g74
g75
ssg63
g1281
sg56
(lp1288
S'remote_port'
p1289
asbag49
(g70
g51
NtRp1290
(dp1291
g54
(dp1292
g81
g82
ssg63
g1281
sg56
(lp1293
S':'
asbag49
(g70
g51
NtRp1294
(dp1295
g54
(dp1296
sg63
g1281
sg56
(lp1297
g49
(g50
g51
NtRp1298
(dp1299
g54
(dp1300
g62
I4
ssg63
g1294
sg56
(lp1301
S'51328'
p1302
asbasbasbag49
(g65
g51
NtRp1303
(dp1304
g54
(dp1305
sg63
g753
sg56
(lp1306
g49
(g70
g51
NtRp1307
(dp1308
g54
(dp1309
g74
g75
ssg63
g1303
sg56
(lp1310
S'request_method'
p1311
asbag49
(g70
g51
NtRp1312
(dp1313
g54
(dp1314
g81
g82
ssg63
g1303
sg56
(lp1315
S':'
asbag49
(g70
g51
NtRp1316
(dp1317
g54
(dp1318
sg63
g1303
sg56
(lp1319
g49
(g50
g51
NtRp1320
(dp1321
g54
(dp1322
g62
I4
ssg63
g1316
sg56
(lp1323
S'POST'
p1324
asbasbasbag49
(g65
g51
NtRp1325
(dp1326
g54
(dp1327
sg63
g753
sg56
(lp1328
g49
(g70
g51
NtRp1329
(dp1330
g54
(dp1331
g74
g75
ssg63
g1325
sg56
(lp1332
S'script_name'
p1333
asbag49
(g70
g51
NtRp1334
(dp1335
g54
(dp1336
g81
g82
ssg63
g1325
sg56
(lp1337
S':'
asbag49
(g70
g51
NtRp1338
(dp1339
g54
(dp1340
sg63
g1325
sg56
(lp1341
g49
(g50
g51
NtRp1342
(dp1343
g54
(dp1344
g62
I4
ssg63
g1338
sg56
(lp1345
S''
asbasbasbag49
(g65
g51
NtRp1346
(dp1347
g54
(dp1348
sg63
g753
sg56
(lp1349
g49
(g70
g51
NtRp1350
(dp1351
g54
(dp1352
g74
g75
ssg63
g1346
sg56
(lp1353
S'server_name'
p1354
asbag49
(g70
g51
NtRp1355
(dp1356
g54
(dp1357
g81
g82
ssg63
g1346
sg56
(lp1358
S':'
asbag49
(g70
g51
NtRp1359
(dp1360
g54
(dp1361
sg63
g1346
sg56
(lp1362
g49
(g50
g51
NtRp1363
(dp1364
g54
(dp1365
g62
I4
ssg63
g1359
sg56
(lp1366
S'craxsnet-PC'
p1367
asbasbasbag49
(g65
g51
NtRp1368
(dp1369
g54
(dp1370
sg63
g753
sg56
(lp1371
g49
(g70
g51
NtRp1372
(dp1373
g54
(dp1374
g74
g75
ssg63
g1368
sg56
(lp1375
S'server_port'
p1376
asbag49
(g70
g51
NtRp1377
(dp1378
g54
(dp1379
g81
g82
ssg63
g1368
sg56
(lp1380
S':'
asbag49
(g70
g51
NtRp1381
(dp1382
g54
(dp1383
sg63
g1368
sg56
(lp1384
g49
(g50
g51
NtRp1385
(dp1386
g54
(dp1387
g62
I4
ssg63
g1381
sg56
(lp1388
S'8000'
p1389
asbasbasbag49
(g65
g51
NtRp1390
(dp1391
g54
(dp1392
sg63
g753
sg56
(lp1393
g49
(g70
g51
NtRp1394
(dp1395
g54
(dp1396
g74
g75
ssg63
g1390
sg56
(lp1397
S'server_protocol'
p1398
asbag49
(g70
g51
NtRp1399
(dp1400
g54
(dp1401
g81
g82
ssg63
g1390
sg56
(lp1402
S':'
asbag49
(g70
g51
NtRp1403
(dp1404
g54
(dp1405
sg63
g1390
sg56
(lp1406
g49
(g50
g51
NtRp1407
(dp1408
g54
(dp1409
g62
I4
ssg63
g1403
sg56
(lp1410
S'HTTP/1.1'
p1411
asbasbasbag49
(g65
g51
NtRp1412
(dp1413
g54
(dp1414
sg63
g753
sg56
(lp1415
g49
(g70
g51
NtRp1416
(dp1417
g54
(dp1418
g74
g75
ssg63
g1412
sg56
(lp1419
S'server_software'
p1420
asbag49
(g70
g51
NtRp1421
(dp1422
g54
(dp1423
g81
g82
ssg63
g1412
sg56
(lp1424
S':'
asbag49
(g70
g51
NtRp1425
(dp1426
g54
(dp1427
sg63
g1412
sg56
(lp1428
g49
(g50
g51
NtRp1429
(dp1430
g54
(dp1431
g62
I4
ssg63
g1425
sg56
(lp1432
S'Rocket 1.2.4'
p1433
asbasbasbag49
(g65
g51
NtRp1434
(dp1435
g54
(dp1436
sg63
g753
sg56
(lp1437
g49
(g70
g51
NtRp1438
(dp1439
g54
(dp1440
g74
g75
ssg63
g1434
sg56
(lp1441
S'web2py_crontype'
p1442
asbag49
(g70
g51
NtRp1443
(dp1444
g54
(dp1445
g81
g82
ssg63
g1434
sg56
(lp1446
S':'
asbag49
(g70
g51
NtRp1447
(dp1448
g54
(dp1449
sg63
g1434
sg56
(lp1450
g49
(g50
g51
NtRp1451
(dp1452
g54
(dp1453
g62
I4
ssg63
g1447
sg56
(lp1454
S'hard'
p1455
asbasbasbag49
(g65
g51
NtRp1456
(dp1457
g54
(dp1458
sg63
g753
sg56
(lp1459
g49
(g70
g51
NtRp1460
(dp1461
g54
(dp1462
g74
g75
ssg63
g1456
sg56
(lp1463
S'web2py_path'
p1464
asbag49
(g70
g51
NtRp1465
(dp1466
g54
(dp1467
g81
g82
ssg63
g1456
sg56
(lp1468
S':'
asbag49
(g70
g51
NtRp1469
(dp1470
g54
(dp1471
sg63
g1456
sg56
(lp1472
g49
(g50
g51
NtRp1473
(dp1474
g54
(dp1475
g62
I4
ssg63
g1469
sg56
(lp1476
g800
asbasbasbag49
(g65
g51
NtRp1477
(dp1478
g54
(dp1479
sg63
g753
sg56
(lp1480
g49
(g70
g51
NtRp1481
(dp1482
g54
(dp1483
g74
g75
ssg63
g1477
sg56
(lp1484
S'web2py_version'
p1485
asbag49
(g70
g51
NtRp1486
(dp1487
g54
(dp1488
g81
g82
ssg63
g1477
sg56
(lp1489
S':'
asbag49
(g70
g51
NtRp1490
(dp1491
g54
(dp1492
sg63
g1477
sg56
(lp1493
g49
(g50
g51
NtRp1494
(dp1495
g54
(dp1496
g62
I4
ssg63
g1490
sg56
(lp1497
g49
(g58
g51
NtRp1498
(dp1499
g54
(dp1500
g62
I3
ssg63
Nsg56
(lp1501
g49
(g65
g51
NtRp1502
(dp1503
g54
(dp1504
sg63
g1498
sg56
(lp1505
g49
(g70
g51
NtRp1506
(dp1507
g54
(dp1508
sg63
g1502
sg56
(lp1509
g49
(g50
g51
NtRp1510
(dp1511
g54
(dp1512
g62
I3
ssg63
g1506
sg56
(lp1513
S'1'
asbasbasbag49
(g65
g51
NtRp1514
(dp1515
g54
(dp1516
sg63
g1498
sg56
(lp1517
g49
(g70
g51
NtRp1518
(dp1519
g54
(dp1520
sg63
g1514
sg56
(lp1521
g49
(g50
g51
NtRp1522
(dp1523
g54
(dp1524
g62
I3
ssg63
g1518
sg56
(lp1525
S'99'
p1526
asbasbasbag49
(g65
g51
NtRp1527
(dp1528
g54
(dp1529
sg63
g1498
sg56
(lp1530
g49
(g70
g51
NtRp1531
(dp1532
g54
(dp1533
sg63
g1527
sg56
(lp1534
g49
(g50
g51
NtRp1535
(dp1536
g54
(dp1537
g62
I3
ssg63
g1531
sg56
(lp1538
S'7'
asbasbasbag49
(g65
g51
NtRp1539
(dp1540
g54
(dp1541
sg63
g1498
sg56
(lp1542
g49
(g70
g51
NtRp1543
(dp1544
g54
(dp1545
sg63
g1539
sg56
(lp1546
g49
(g50
g51
NtRp1547
(dp1548
g54
(dp1549
g62
I3
ssg63
g1543
sg56
(lp1550
S'datetime.datetime(2012, 3, 4, 22, 12, 8)'
p1551
asbasbasbag49
(g65
g51
NtRp1552
(dp1553
g54
(dp1554
sg63
g1498
sg56
(lp1555
g49
(g70
g51
NtRp1556
(dp1557
g54
(dp1558
sg63
g1552
sg56
(lp1559
g49
(g50
g51
NtRp1560
(dp1561
g54
(dp1562
g62
I3
ssg63
g1556
sg56
(lp1563
S'stable'
p1564
asbasbasbasbasbasbasbag49
(g65
g51
NtRp1565
(dp1566
g54
(dp1567
sg63
g753
sg56
(lp1568
g49
(g70
g51
NtRp1569
(dp1570
g54
(dp1571
g74
g75
ssg63
g1565
sg56
(lp1572
S'wsgi_errors'
p1573
asbag49
(g70
g51
NtRp1574
(dp1575
g54
(dp1576
g81
g82
ssg63
g1565
sg56
(lp1577
S':'
asbag49
(g70
g51
NtRp1578
(dp1579
g54
(dp1580
sg63
g1565
sg56
(lp1581
g49
(g50
g51
NtRp1582
(dp1583
g54
(dp1584
g62
I4
ssg63
g1578
sg56
(lp1585
S"<open file '<stderr>', mode 'w' at 0x01FB00B0>"
p1586
asbasbasbag49
(g65
g51
NtRp1587
(dp1588
g54
(dp1589
sg63
g753
sg56
(lp1590
g49
(g70
g51
NtRp1591
(dp1592
g54
(dp1593
g74
g75
ssg63
g1587
sg56
(lp1594
S'wsgi_file_wrapper'
p1595
asbag49
(g70
g51
NtRp1596
(dp1597
g54
(dp1598
g81
g82
ssg63
g1587
sg56
(lp1599
S':'
asbag49
(g70
g51
NtRp1600
(dp1601
g54
(dp1602
sg63
g1587
sg56
(lp1603
g49
(g50
g51
NtRp1604
(dp1605
g54
(dp1606
g62
I4
ssg63
g1600
sg56
(lp1607
S'<class wsgiref.util.FileWrapper at 0x02F56390>'
p1608
asbasbasbag49
(g65
g51
NtRp1609
(dp1610
g54
(dp1611
sg63
g753
sg56
(lp1612
g49
(g70
g51
NtRp1613
(dp1614
g54
(dp1615
g74
g75
ssg63
g1609
sg56
(lp1616
S'wsgi_input'
p1617
asbag49
(g70
g51
NtRp1618
(dp1619
g54
(dp1620
g81
g82
ssg63
g1609
sg56
(lp1621
S':'
asbag49
(g70
g51
NtRp1622
(dp1623
g54
(dp1624
sg63
g1609
sg56
(lp1625
g49
(g50
g51
NtRp1626
(dp1627
g54
(dp1628
g62
I4
ssg63
g1622
sg56
(lp1629
S'<socket._fileobject object at 0x07201E70>'
p1630
asbasbasbag49
(g65
g51
NtRp1631
(dp1632
g54
(dp1633
sg63
g753
sg56
(lp1634
g49
(g70
g51
NtRp1635
(dp1636
g54
(dp1637
g74
g75
ssg63
g1631
sg56
(lp1638
S'wsgi_multiprocess'
p1639
asbag49
(g70
g51
NtRp1640
(dp1641
g54
(dp1642
g81
g82
ssg63
g1631
sg56
(lp1643
S':'
asbag49
(g70
g51
NtRp1644
(dp1645
g54
(dp1646
sg63
g1631
sg56
(lp1647
g49
(g50
g51
NtRp1648
(dp1649
g54
(dp1650
g62
I4
ssg63
g1644
sg56
(lp1651
g92
asbasbasbag49
(g65
g51
NtRp1652
(dp1653
g54
(dp1654
sg63
g753
sg56
(lp1655
g49
(g70
g51
NtRp1656
(dp1657
g54
(dp1658
g74
g75
ssg63
g1652
sg56
(lp1659
S'wsgi_multithread'
p1660
asbag49
(g70
g51
NtRp1661
(dp1662
g54
(dp1663
g81
g82
ssg63
g1652
sg56
(lp1664
S':'
asbag49
(g70
g51
NtRp1665
(dp1666
g54
(dp1667
sg63
g1652
sg56
(lp1668
g49
(g50
g51
NtRp1669
(dp1670
g54
(dp1671
g62
I4
ssg63
g1665
sg56
(lp1672
S'True'
p1673
asbasbasbag49
(g65
g51
NtRp1674
(dp1675
g54
(dp1676
sg63
g753
sg56
(lp1677
g49
(g70
g51
NtRp1678
(dp1679
g54
(dp1680
g74
g75
ssg63
g1674
sg56
(lp1681
S'wsgi_run_once'
p1682
asbag49
(g70
g51
NtRp1683
(dp1684
g54
(dp1685
g81
g82
ssg63
g1674
sg56
(lp1686
S':'
asbag49
(g70
g51
NtRp1687
(dp1688
g54
(dp1689
sg63
g1674
sg56
(lp1690
g49
(g50
g51
NtRp1691
(dp1692
g54
(dp1693
g62
I4
ssg63
g1687
sg56
(lp1694
g92
asbasbasbag49
(g65
g51
NtRp1695
(dp1696
g54
(dp1697
sg63
g753
sg56
(lp1698
g49
(g70
g51
NtRp1699
(dp1700
g54
(dp1701
g74
g75
ssg63
g1695
sg56
(lp1702
S'wsgi_url_scheme'
p1703
asbag49
(g70
g51
NtRp1704
(dp1705
g54
(dp1706
g81
g82
ssg63
g1695
sg56
(lp1707
S':'
asbag49
(g70
g51
NtRp1708
(dp1709
g54
(dp1710
sg63
g1695
sg56
(lp1711
g49
(g50
g51
NtRp1712
(dp1713
g54
(dp1714
g62
I4
ssg63
g1708
sg56
(lp1715
S'http'
p1716
asbasbasbag49
(g65
g51
NtRp1717
(dp1718
g54
(dp1719
sg63
g753
sg56
(lp1720
g49
(g70
g51
NtRp1721
(dp1722
g54
(dp1723
g74
g75
ssg63
g1717
sg56
(lp1724
S'wsgi_version'
p1725
asbag49
(g70
g51
NtRp1726
(dp1727
g54
(dp1728
g81
g82
ssg63
g1717
sg56
(lp1729
S':'
asbag49
(g70
g51
NtRp1730
(dp1731
g54
(dp1732
sg63
g1717
sg56
(lp1733
g49
(g50
g51
NtRp1734
(dp1735
g54
(dp1736
g62
I4
ssg63
g1730
sg56
(lp1737
g49
(g58
g51
NtRp1738
(dp1739
g54
(dp1740
g62
I3
ssg63
Nsg56
(lp1741
g49
(g65
g51
NtRp1742
(dp1743
g54
(dp1744
sg63
g1738
sg56
(lp1745
g49
(g70
g51
NtRp1746
(dp1747
g54
(dp1748
sg63
g1742
sg56
(lp1749
g49
(g50
g51
NtRp1750
(dp1751
g54
(dp1752
g62
I3
ssg63
g1746
sg56
(lp1753
S'1'
asbasbasbag49
(g65
g51
NtRp1754
(dp1755
g54
(dp1756
sg63
g1738
sg56
(lp1757
g49
(g70
g51
NtRp1758
(dp1759
g54
(dp1760
sg63
g1754
sg56
(lp1761
g49
(g50
g51
NtRp1762
(dp1763
g54
(dp1764
g62
I3
ssg63
g1758
sg56
(lp1765
S'0'
asbasbasbasbasbasbasbasbasbasbasbag49
(g65
g51
NtRp1766
(dp1767
g54
(dp1768
sg63
g59
sg56
(lp1769
g49
(g70
g51
NtRp1770
(dp1771
g54
(dp1772
g74
g75
ssg63
g1766
sg56
(lp1773
S'extension'
p1774
asbag49
(g70
g51
NtRp1775
(dp1776
g54
(dp1777
g81
g82
ssg63
g1766
sg56
(lp1778
S':'
asbag49
(g70
g51
NtRp1779
(dp1780
g54
(dp1781
sg63
g1766
sg56
(lp1782
g49
(g50
g51
NtRp1783
(dp1784
g54
(dp1785
g62
I5
ssg63
g1779
sg56
(lp1786
S'html'
p1787
asbasbasbag49
(g65
g51
NtRp1788
(dp1789
g54
(dp1790
sg63
g59
sg56
(lp1791
g49
(g70
g51
NtRp1792
(dp1793
g54
(dp1794
g74
g75
ssg63
g1788
sg56
(lp1795
S'folder'
p1796
asbag49
(g70
g51
NtRp1797
(dp1798
g54
(dp1799
g81
g82
ssg63
g1788
sg56
(lp1800
S':'
asbag49
(g70
g51
NtRp1801
(dp1802
g54
(dp1803
sg63
g1788
sg56
(lp1804
g49
(g50
g51
NtRp1805
(dp1806
g54
(dp1807
g62
I5
ssg63
g1801
sg56
(lp1808
S'D:\\Dise\xf1o Web\\Proyectos\\Parleyweb\\web2py\\applications\\parleyweb\\'
p1809
asbasbasbag49
(g65
g51
NtRp1810
(dp1811
g54
(dp1812
sg63
g59
sg56
(lp1813
g49
(g70
g51
NtRp1814
(dp1815
g54
(dp1816
g74
g75
ssg63
g1810
sg56
(lp1817
S'function'
p1818
asbag49
(g70
g51
NtRp1819
(dp1820
g54
(dp1821
g81
g82
ssg63
g1810
sg56
(lp1822
S':'
asbag49
(g70
g51
NtRp1823
(dp1824
g54
(dp1825
sg63
g1810
sg56
(lp1826
g49
(g50
g51
NtRp1827
(dp1828
g54
(dp1829
g62
I5
ssg63
g1823
sg56
(lp1830
S'index'
p1831
asbasbasbag49
(g65
g51
NtRp1832
(dp1833
g54
(dp1834
sg63
g59
sg56
(lp1835
g49
(g70
g51
NtRp1836
(dp1837
g54
(dp1838
g74
g75
ssg63
g1832
sg56
(lp1839
S'get_vars'
p1840
asbag49
(g70
g51
NtRp1841
(dp1842
g54
(dp1843
g81
g82
ssg63
g1832
sg56
(lp1844
S':'
asbag49
(g70
g51
NtRp1845
(dp1846
g54
(dp1847
sg63
g1832
sg56
(lp1848
g49
(g50
g51
NtRp1849
(dp1850
g54
(dp1851
g62
I5
ssg63
g1845
sg56
(lp1852
g49
(g58
g51
NtRp1853
(dp1854
g54
(dp1855
g62
I4
ssg63
Nsg56
(lp1856
sbasbasbasbag49
(g65
g51
NtRp1857
(dp1858
g54
(dp1859
sg63
g59
sg56
(lp1860
g49
(g70
g51
NtRp1861
(dp1862
g54
(dp1863
g74
g75
ssg63
g1857
sg56
(lp1864
S'global_settings'
p1865
asbag49
(g70
g51
NtRp1866
(dp1867
g54
(dp1868
g81
g82
ssg63
g1857
sg56
(lp1869
S':'
asbag49
(g70
g51
NtRp1870
(dp1871
g54
(dp1872
sg63
g1857
sg56
(lp1873
g49
(g50
g51
NtRp1874
(dp1875
g54
(dp1876
g62
I5
ssg63
g1870
sg56
(lp1877
g49
(g58
g51
NtRp1878
(dp1879
g54
(dp1880
g62
I4
ssg63
Nsg56
(lp1881
g49
(g65
g51
NtRp1882
(dp1883
g54
(dp1884
sg63
g1878
sg56
(lp1885
g49
(g70
g51
NtRp1886
(dp1887
g54
(dp1888
g74
g75
ssg63
g1882
sg56
(lp1889
g765
asbag49
(g70
g51
NtRp1890
(dp1891
g54
(dp1892
g81
g82
ssg63
g1882
sg56
(lp1893
S':'
asbag49
(g70
g51
NtRp1894
(dp1895
g54
(dp1896
sg63
g1882
sg56
(lp1897
g49
(g50
g51
NtRp1898
(dp1899
g54
(dp1900
g62
I4
ssg63
g1894
sg56
(lp1901
S"set(['D:\\\\Dise\\xf1o Web\\\\Proyectos\\\\Parleyweb\\\\web2py\\\\applications\\\\parleyweb\\\\', 'D:\\\\Dise\\xf1o Web\\\\Proyectos\\\\Parleyweb\\\\web2py\\\\applications\\\\welcome\\\\', 'D:\\\\Dise\\xf1o Web\\\\Proyectos\\\\Parleyweb\\\\web2py\\\\applications\\\\admin\\\\'])"
p1902
asbasbasbag49
(g65
g51
NtRp1903
(dp1904
g54
(dp1905
sg63
g1878
sg56
(lp1906
g49
(g70
g51
NtRp1907
(dp1908
g54
(dp1909
g74
g75
ssg63
g1903
sg56
(lp1910
g787
asbag49
(g70
g51
NtRp1911
(dp1912
g54
(dp1913
g81
g82
ssg63
g1903
sg56
(lp1914
S':'
asbag49
(g70
g51
NtRp1915
(dp1916
g54
(dp1917
sg63
g1903
sg56
(lp1918
g49
(g50
g51
NtRp1919
(dp1920
g54
(dp1921
g62
I4
ssg63
g1915
sg56
(lp1922
g800
asbasbasbag49
(g65
g51
NtRp1923
(dp1924
g54
(dp1925
sg63
g1878
sg56
(lp1926
g49
(g70
g51
NtRp1927
(dp1928
g54
(dp1929
g74
g75
ssg63
g1923
sg56
(lp1930
g809
asbag49
(g70
g51
NtRp1931
(dp1932
g54
(dp1933
g81
g82
ssg63
g1923
sg56
(lp1934
S':'
asbag49
(g70
g51
NtRp1935
(dp1936
g54
(dp1937
sg63
g1923
sg56
(lp1938
g49
(g50
g51
NtRp1939
(dp1940
g54
(dp1941
g62
I4
ssg63
g1935
sg56
(lp1942
g49
(g58
g51
NtRp1943
(dp1944
g54
(dp1945
g62
I3
ssg63
Nsg56
(lp1946
sbasbasbasbag49
(g65
g51
NtRp1947
(dp1948
g54
(dp1949
sg63
g1878
sg56
(lp1950
g49
(g70
g51
NtRp1951
(dp1952
g54
(dp1953
g74
g75
ssg63
g1947
sg56
(lp1954
g834
asbag49
(g70
g51
NtRp1955
(dp1956
g54
(dp1957
g81
g82
ssg63
g1947
sg56
(lp1958
S':'
asbag49
(g70
g51
NtRp1959
(dp1960
g54
(dp1961
sg63
g1947
sg56
(lp1962
g49
(g50
g51
NtRp1963
(dp1964
g54
(dp1965
g62
I4
ssg63
g1959
sg56
(lp1966
S"<Values at 0x3110f30: {'verbose': False, 'ip': '127.0.0.1', 'shutdown_timeout': 5, 'taskbar': False, 'nocron': False, 'pid_filename': 'httpserver.pid', 'maxthreads': None, 'softcron': False, 'server_name': 'craxsnet-PC', 'bpython': False, 'nogui': False, 'port': 8000, 'extcron': False, 'debuglevel': 30, 'test': None, 'folder': 'D:\\\\Dise\\xf1o Web\\\\Proyectos\\\\Parleyweb\\\\web2py', 'config': '', 'import_models': False, 'winservice': '', 'shell': None, 'run': '', 'log_filename': 'httpserver.log', 'args': [''], 'socket_timeout': 5, 'ssl_ca_certificate': None, 'scheduler': None, 'profiler_filename': None, 'ssl_private_key': '', 'password': '<ask>', 'request_queue_size': 5, 'ssl_certificate': '', 'cronjob': False, 'numthreads': None, 'quiet': False, 'interfaces': None, 'minthreads': None, 'timeout': 10, 'plain': False, 'nobanner': False}>"
p1967
asbasbasbag49
(g65
g51
NtRp1968
(dp1969
g54
(dp1970
sg63
g1878
sg56
(lp1971
g49
(g70
g51
NtRp1972
(dp1973
g54
(dp1974
g74
g75
ssg63
g1968
sg56
(lp1975
g900
asbag49
(g70
g51
NtRp1976
(dp1977
g54
(dp1978
g81
g82
ssg63
g1968
sg56
(lp1979
S':'
asbag49
(g70
g51
NtRp1980
(dp1981
g54
(dp1982
sg63
g1968
sg56
(lp1983
g49
(g50
g51
NtRp1984
(dp1985
g54
(dp1986
g62
I4
ssg63
g1980
sg56
(lp1987
S'set([])'
p1988
asbasbasbag49
(g65
g51
NtRp1989
(dp1990
g54
(dp1991
sg63
g1878
sg56
(lp1992
g49
(g70
g51
NtRp1993
(dp1994
g54
(dp1995
g74
g75
ssg63
g1989
sg56
(lp1996
g922
asbag49
(g70
g51
NtRp1997
(dp1998
g54
(dp1999
g81
g82
ssg63
g1989
sg56
(lp2000
S':'
asbag49
(g70
g51
NtRp2001
(dp2002
g54
(dp2003
sg63
g1989
sg56
(lp2004
g49
(g50
g51
NtRp2005
(dp2006
g54
(dp2007
g62
I4
ssg63
g2001
sg56
(lp2008
g92
asbasbasbag49
(g65
g51
NtRp2009
(dp2010
g54
(dp2011
sg63
g1878
sg56
(lp2012
g49
(g70
g51
NtRp2013
(dp2014
g54
(dp2015
g74
g75
ssg63
g2009
sg56
(lp2016
g943
asbag49
(g70
g51
NtRp2017
(dp2018
g54
(dp2019
g81
g82
ssg63
g2009
sg56
(lp2020
S':'
asbag49
(g70
g51
NtRp2021
(dp2022
g54
(dp2023
sg63
g2009
sg56
(lp2024
g49
(g50
g51
NtRp2025
(dp2026
g54
(dp2027
g62
I4
ssg63
g2021
sg56
(lp2028
g956
asbasbasbag49
(g65
g51
NtRp2029
(dp2030
g54
(dp2031
sg63
g1878
sg56
(lp2032
g49
(g70
g51
NtRp2033
(dp2034
g54
(dp2035
g74
g75
ssg63
g2029
sg56
(lp2036
g1183
asbag49
(g70
g51
NtRp2037
(dp2038
g54
(dp2039
g81
g82
ssg63
g2029
sg56
(lp2040
S':'
asbag49
(g70
g51
NtRp2041
(dp2042
g54
(dp2043
sg63
g2029
sg56
(lp2044
g49
(g50
g51
NtRp2045
(dp2046
g54
(dp2047
g62
I4
ssg63
g2041
sg56
(lp2048
g92
asbasbasbag49
(g65
g51
NtRp2049
(dp2050
g54
(dp2051
sg63
g1878
sg56
(lp2052
g49
(g70
g51
NtRp2053
(dp2054
g54
(dp2055
g74
g75
ssg63
g2049
sg56
(lp2056
g1204
asbag49
(g70
g51
NtRp2057
(dp2058
g54
(dp2059
g81
g82
ssg63
g2049
sg56
(lp2060
S':'
asbag49
(g70
g51
NtRp2061
(dp2062
g54
(dp2063
sg63
g2049
sg56
(lp2064
g49
(g50
g51
NtRp2065
(dp2066
g54
(dp2067
g62
I4
ssg63
g2061
sg56
(lp2068
g92
asbasbasbag49
(g65
g51
NtRp2069
(dp2070
g54
(dp2071
sg63
g1878
sg56
(lp2072
g49
(g70
g51
NtRp2073
(dp2074
g54
(dp2075
g74
g75
ssg63
g2069
sg56
(lp2076
g1442
asbag49
(g70
g51
NtRp2077
(dp2078
g54
(dp2079
g81
g82
ssg63
g2069
sg56
(lp2080
S':'
asbag49
(g70
g51
NtRp2081
(dp2082
g54
(dp2083
sg63
g2069
sg56
(lp2084
g49
(g50
g51
NtRp2085
(dp2086
g54
(dp2087
g62
I4
ssg63
g2081
sg56
(lp2088
g1455
asbasbasbag49
(g65
g51
NtRp2089
(dp2090
g54
(dp2091
sg63
g1878
sg56
(lp2092
g49
(g70
g51
NtRp2093
(dp2094
g54
(dp2095
g74
g75
ssg63
g2089
sg56
(lp2096
g1485
asbag49
(g70
g51
NtRp2097
(dp2098
g54
(dp2099
g81
g82
ssg63
g2089
sg56
(lp2100
S':'
asbag49
(g70
g51
NtRp2101
(dp2102
g54
(dp2103
sg63
g2089
sg56
(lp2104
g49
(g50
g51
NtRp2105
(dp2106
g54
(dp2107
g62
I4
ssg63
g2101
sg56
(lp2108
g49
(g58
g51
NtRp2109
(dp2110
g54
(dp2111
g62
I3
ssg63
Nsg56
(lp2112
g49
(g65
g51
NtRp2113
(dp2114
g54
(dp2115
sg63
g2109
sg56
(lp2116
g49
(g70
g51
NtRp2117
(dp2118
g54
(dp2119
sg63
g2113
sg56
(lp2120
g49
(g50
g51
NtRp2121
(dp2122
g54
(dp2123
g62
I3
ssg63
g2117
sg56
(lp2124
S'1'
asbasbasbag49
(g65
g51
NtRp2125
(dp2126
g54
(dp2127
sg63
g2109
sg56
(lp2128
g49
(g70
g51
NtRp2129
(dp2130
g54
(dp2131
sg63
g2125
sg56
(lp2132
g49
(g50
g51
NtRp2133
(dp2134
g54
(dp2135
g62
I3
ssg63
g2129
sg56
(lp2136
S'99'
p2137
asbasbasbag49
(g65
g51
NtRp2138
(dp2139
g54
(dp2140
sg63
g2109
sg56
(lp2141
g49
(g70
g51
NtRp2142
(dp2143
g54
(dp2144
sg63
g2138
sg56
(lp2145
g49
(g50
g51
NtRp2146
(dp2147
g54
(dp2148
g62
I3
ssg63
g2142
sg56
(lp2149
S'7'
asbasbasbag49
(g65
g51
NtRp2150
(dp2151
g54
(dp2152
sg63
g2109
sg56
(lp2153
g49
(g70
g51
NtRp2154
(dp2155
g54
(dp2156
sg63
g2150
sg56
(lp2157
g49
(g50
g51
NtRp2158
(dp2159
g54
(dp2160
g62
I3
ssg63
g2154
sg56
(lp2161
S'datetime.datetime(2012, 3, 4, 22, 12, 8)'
p2162
asbasbasbag49
(g65
g51
NtRp2163
(dp2164
g54
(dp2165
sg63
g2109
sg56
(lp2166
g49
(g70
g51
NtRp2167
(dp2168
g54
(dp2169
sg63
g2163
sg56
(lp2170
g49
(g50
g51
NtRp2171
(dp2172
g54
(dp2173
g62
I3
ssg63
g2167
sg56
(lp2174
g1564
asbasbasbasbasbasbasbasbasbasbasbag49
(g65
g51
NtRp2175
(dp2176
g54
(dp2177
sg63
g59
sg56
(lp2178
g49
(g70
g51
NtRp2179
(dp2180
g54
(dp2181
g74
g75
ssg63
g2175
sg56
(lp2182
S'is_https'
p2183
asbag49
(g70
g51
NtRp2184
(dp2185
g54
(dp2186
g81
g82
ssg63
g2175
sg56
(lp2187
S':'
asbag49
(g70
g51
NtRp2188
(dp2189
g54
(dp2190
sg63
g2175
sg56
(lp2191
g49
(g50
g51
NtRp2192
(dp2193
g54
(dp2194
g62
I5
ssg63
g2188
sg56
(lp2195
g92
asbasbasbag49
(g65
g51
NtRp2196
(dp2197
g54
(dp2198
sg63
g59
sg56
(lp2199
g49
(g70
g51
NtRp2200
(dp2201
g54
(dp2202
g74
g75
ssg63
g2196
sg56
(lp2203
S'is_local'
p2204
asbag49
(g70
g51
NtRp2205
(dp2206
g54
(dp2207
g81
g82
ssg63
g2196
sg56
(lp2208
S':'
asbag49
(g70
g51
NtRp2209
(dp2210
g54
(dp2211
sg63
g2196
sg56
(lp2212
g49
(g50
g51
NtRp2213
(dp2214
g54
(dp2215
g62
I5
ssg63
g2209
sg56
(lp2216
g1673
asbasbasbag49
(g65
g51
NtRp2217
(dp2218
g54
(dp2219
sg63
g59
sg56
(lp2220
g49
(g70
g51
NtRp2221
(dp2222
g54
(dp2223
g74
g75
ssg63
g2217
sg56
(lp2224
S'is_restful'
p2225
asbag49
(g70
g51
NtRp2226
(dp2227
g54
(dp2228
g81
g82
ssg63
g2217
sg56
(lp2229
S':'
asbag49
(g70
g51
NtRp2230
(dp2231
g54
(dp2232
sg63
g2217
sg56
(lp2233
g49
(g50
g51
NtRp2234
(dp2235
g54
(dp2236
g62
I5
ssg63
g2230
sg56
(lp2237
g92
asbasbasbag49
(g65
g51
NtRp2238
(dp2239
g54
(dp2240
sg63
g59
sg56
(lp2241
g49
(g70
g51
NtRp2242
(dp2243
g54
(dp2244
g74
g75
ssg63
g2238
sg56
(lp2245
S'now'
p2246
asbag49
(g70
g51
NtRp2247
(dp2248
g54
(dp2249
g81
g82
ssg63
g2238
sg56
(lp2250
S':'
asbag49
(g70
g51
NtRp2251
(dp2252
g54
(dp2253
sg63
g2238
sg56
(lp2254
g49
(g50
g51
NtRp2255
(dp2256
g54
(dp2257
g62
I5
ssg63
g2251
sg56
(lp2258
S'datetime.datetime(2012, 3, 17, 0, 3, 8, 91000)'
p2259
asbasbasbag49
(g65
g51
NtRp2260
(dp2261
g54
(dp2262
sg63
g59
sg56
(lp2263
g49
(g70
g51
NtRp2264
(dp2265
g54
(dp2266
g74
g75
ssg63
g2260
sg56
(lp2267
S'post_vars'
p2268
asbag49
(g70
g51
NtRp2269
(dp2270
g54
(dp2271
g81
g82
ssg63
g2260
sg56
(lp2272
S':'
asbag49
(g70
g51
NtRp2273
(dp2274
g54
(dp2275
sg63
g2260
sg56
(lp2276
g49
(g50
g51
NtRp2277
(dp2278
g54
(dp2279
g62
I5
ssg63
g2273
sg56
(lp2280
g49
(g58
g51
NtRp2281
(dp2282
g54
(dp2283
g62
I4
ssg63
Nsg56
(lp2284
g49
(g65
g51
NtRp2285
(dp2286
g54
(dp2287
sg63
g2281
sg56
(lp2288
g49
(g70
g51
NtRp2289
(dp2290
g54
(dp2291
g74
g75
ssg63
g2285
sg56
(lp2292
S'buscar_palabra'
p2293
asbag49
(g70
g51
NtRp2294
(dp2295
g54
(dp2296
g81
g82
ssg63
g2285
sg56
(lp2297
S':'
asbag49
(g70
g51
NtRp2298
(dp2299
g54
(dp2300
sg63
g2285
sg56
(lp2301
g49
(g50
g51
NtRp2302
(dp2303
g54
(dp2304
g62
I4
ssg63
g2298
sg56
(lp2305
S'173'
p2306
asbasbasbasbasbasbasbag49
(g65
g51
NtRp2307
(dp2308
g54
(dp2309
sg63
g59
sg56
(lp2310
g49
(g70
g51
NtRp2311
(dp2312
g54
(dp2313
g74
g75
ssg63
g2307
sg56
(lp2314
S'url'
p2315
asbag49
(g70
g51
NtRp2316
(dp2317
g54
(dp2318
g81
g82
ssg63
g2307
sg56
(lp2319
S':'
asbag49
(g70
g51
NtRp2320
(dp2321
g54
(dp2322
sg63
g2307
sg56
(lp2323
g49
(g50
g51
NtRp2324
(dp2325
g54
(dp2326
g62
I5
ssg63
g2320
sg56
(lp2327
S'/parleyweb/default/index'
p2328
asbasbasbag49
(g65
g51
NtRp2329
(dp2330
g54
(dp2331
sg63
g59
sg56
(lp2332
g49
(g70
g51
NtRp2333
(dp2334
g54
(dp2335
g74
g75
ssg63
g2329
sg56
(lp2336
S'utcnow'
p2337
asbag49
(g70
g51
NtRp2338
(dp2339
g54
(dp2340
g81
g82
ssg63
g2329
sg56
(lp2341
S':'
asbag49
(g70
g51
NtRp2342
(dp2343
g54
(dp2344
sg63
g2329
sg56
(lp2345
g49
(g50
g51
NtRp2346
(dp2347
g54
(dp2348
g62
I5
ssg63
g2342
sg56
(lp2349
S'datetime.datetime(2012, 3, 16, 23, 3, 8, 91000)'
p2350
asbasbasbag49
(g65
g51
NtRp2351
(dp2352
g54
(dp2353
sg63
g59
sg56
(lp2354
g49
(g70
g51
NtRp2355
(dp2356
g54
(dp2357
g74
g75
ssg63
g2351
sg56
(lp2358
S'uuid'
p2359
asbag49
(g70
g51
NtRp2360
(dp2361
g54
(dp2362
g81
g82
ssg63
g2351
sg56
(lp2363
S':'
asbag49
(g70
g51
NtRp2364
(dp2365
g54
(dp2366
sg63
g2351
sg56
(lp2367
g49
(g50
g51
NtRp2368
(dp2369
g54
(dp2370
g62
I5
ssg63
g2364
sg56
(lp2371
S'parleyweb/127.0.0.1.2012-03-17.00-03-08.a822d7fa-1528-4faa-9f44-fc221a7c832f'
p2372
asbasbasbag49
(g65
g51
NtRp2373
(dp2374
g54
(dp2375
sg63
g59
sg56
(lp2376
g49
(g70
g51
NtRp2377
(dp2378
g54
(dp2379
g74
g75
ssg63
g2373
sg56
(lp2380
S'vars'
p2381
asbag49
(g70
g51
NtRp2382
(dp2383
g54
(dp2384
g81
g82
ssg63
g2373
sg56
(lp2385
S':'
asbag49
(g70
g51
NtRp2386
(dp2387
g54
(dp2388
sg63
g2373
sg56
(lp2389
g49
(g50
g51
NtRp2390
(dp2391
g54
(dp2392
g62
I5
ssg63
g2386
sg56
(lp2393
g49
(g58
g51
NtRp2394
(dp2395
g54
(dp2396
g62
I4
ssg63
Nsg56
(lp2397
g49
(g65
g51
NtRp2398
(dp2399
g54
(dp2400
sg63
g2394
sg56
(lp2401
g49
(g70
g51
NtRp2402
(dp2403
g54
(dp2404
g74
g75
ssg63
g2398
sg56
(lp2405
g2293
asbag49
(g70
g51
NtRp2406
(dp2407
g54
(dp2408
g81
g82
ssg63
g2398
sg56
(lp2409
S':'
asbag49
(g70
g51
NtRp2410
(dp2411
g54
(dp2412
sg63
g2398
sg56
(lp2413
g49
(g50
g51
NtRp2414
(dp2415
g54
(dp2416
g62
I4
ssg63
g2410
sg56
(lp2417
g2306
asbasbasbasbasbasbasbag49
(g65
g51
NtRp2418
(dp2419
g54
(dp2420
sg63
g59
sg56
(lp2421
g49
(g70
g51
NtRp2422
(dp2423
g54
(dp2424
g74
g75
ssg63
g2418
sg56
(lp2425
S'wsgi'
p2426
asbag49
(g70
g51
NtRp2427
(dp2428
g54
(dp2429
g81
g82
ssg63
g2418
sg56
(lp2430
S':'
asbag49
(g70
g51
NtRp2431
(dp2432
g54
(dp2433
sg63
g2418
sg56
(lp2434
g49
(g50
g51
NtRp2435
(dp2436
g54
(dp2437
g62
I5
ssg63
g2431
sg56
(lp2438
g49
(g58
g51
NtRp2439
(dp2440
g54
(dp2441
g62
I4
ssg63
Nsg56
(lp2442
g49
(g65
g51
NtRp2443
(dp2444
g54
(dp2445
sg63
g2439
sg56
(lp2446
g49
(g70
g51
NtRp2447
(dp2448
g54
(dp2449
g74
g75
ssg63
g2443
sg56
(lp2450
S'environ'
p2451
asbag49
(g70
g51
NtRp2452
(dp2453
g54
(dp2454
g81
g82
ssg63
g2443
sg56
(lp2455
S':'
asbag49
(g70
g51
NtRp2456
(dp2457
g54
(dp2458
sg63
g2443
sg56
(lp2459
g49
(g50
g51
NtRp2460
(dp2461
g54
(dp2462
g62
I4
ssg63
g2456
sg56
(lp2463
g49
(g58
g51
NtRp2464
(dp2465
g54
(dp2466
g62
I3
ssg63
Nsg56
(lp2467
g49
(g65
g51
NtRp2468
(dp2469
g54
(dp2470
sg63
g2464
sg56
(lp2471
g49
(g70
g51
NtRp2472
(dp2473
g54
(dp2474
g74
g75
ssg63
g2468
sg56
(lp2475
S'CONTENT_LENGTH'
p2476
asbag49
(g70
g51
NtRp2477
(dp2478
g54
(dp2479
g81
g82
ssg63
g2468
sg56
(lp2480
S':'
asbag49
(g70
g51
NtRp2481
(dp2482
g54
(dp2483
sg63
g2468
sg56
(lp2484
g49
(g50
g51
NtRp2485
(dp2486
g54
(dp2487
g62
I3
ssg63
g2481
sg56
(lp2488
g869
asbasbasbag49
(g65
g51
NtRp2489
(dp2490
g54
(dp2491
sg63
g2464
sg56
(lp2492
g49
(g70
g51
NtRp2493
(dp2494
g54
(dp2495
g74
g75
ssg63
g2489
sg56
(lp2496
S'CONTENT_TYPE'
p2497
asbag49
(g70
g51
NtRp2498
(dp2499
g54
(dp2500
g81
g82
ssg63
g2489
sg56
(lp2501
S':'
asbag49
(g70
g51
NtRp2502
(dp2503
g54
(dp2504
sg63
g2489
sg56
(lp2505
g49
(g50
g51
NtRp2506
(dp2507
g54
(dp2508
g62
I3
ssg63
g2502
sg56
(lp2509
g891
asbasbasbag49
(g65
g51
NtRp2510
(dp2511
g54
(dp2512
sg63
g2464
sg56
(lp2513
g49
(g70
g51
NtRp2514
(dp2515
g54
(dp2516
g74
g75
ssg63
g2510
sg56
(lp2517
S'HTTP_ACCEPT'
p2518
asbag49
(g70
g51
NtRp2519
(dp2520
g54
(dp2521
g81
g82
ssg63
g2510
sg56
(lp2522
S':'
asbag49
(g70
g51
NtRp2523
(dp2524
g54
(dp2525
sg63
g2510
sg56
(lp2526
g49
(g50
g51
NtRp2527
(dp2528
g54
(dp2529
g62
I3
ssg63
g2523
sg56
(lp2530
g978
asbasbasbag49
(g65
g51
NtRp2531
(dp2532
g54
(dp2533
sg63
g2464
sg56
(lp2534
g49
(g70
g51
NtRp2535
(dp2536
g54
(dp2537
g74
g75
ssg63
g2531
sg56
(lp2538
S'HTTP_ACCEPT_ENCODING'
p2539
asbag49
(g70
g51
NtRp2540
(dp2541
g54
(dp2542
g81
g82
ssg63
g2531
sg56
(lp2543
S':'
asbag49
(g70
g51
NtRp2544
(dp2545
g54
(dp2546
sg63
g2531
sg56
(lp2547
g49
(g50
g51
NtRp2548
(dp2549
g54
(dp2550
g62
I3
ssg63
g2544
sg56
(lp2551
g1000
asbasbasbag49
(g65
g51
NtRp2552
(dp2553
g54
(dp2554
sg63
g2464
sg56
(lp2555
g49
(g70
g51
NtRp2556
(dp2557
g54
(dp2558
g74
g75
ssg63
g2552
sg56
(lp2559
S'HTTP_ACCEPT_LANGUAGE'
p2560
asbag49
(g70
g51
NtRp2561
(dp2562
g54
(dp2563
g81
g82
ssg63
g2552
sg56
(lp2564
S':'
asbag49
(g70
g51
NtRp2565
(dp2566
g54
(dp2567
sg63
g2552
sg56
(lp2568
g49
(g50
g51
NtRp2569
(dp2570
g54
(dp2571
g62
I3
ssg63
g2565
sg56
(lp2572
g1022
asbasbasbag49
(g65
g51
NtRp2573
(dp2574
g54
(dp2575
sg63
g2464
sg56
(lp2576
g49
(g70
g51
NtRp2577
(dp2578
g54
(dp2579
g74
g75
ssg63
g2573
sg56
(lp2580
S'HTTP_CONNECTION'
p2581
asbag49
(g70
g51
NtRp2582
(dp2583
g54
(dp2584
g81
g82
ssg63
g2573
sg56
(lp2585
S':'
asbag49
(g70
g51
NtRp2586
(dp2587
g54
(dp2588
sg63
g2573
sg56
(lp2589
g49
(g50
g51
NtRp2590
(dp2591
g54
(dp2592
g62
I3
ssg63
g2586
sg56
(lp2593
g1044
asbasbasbag49
(g65
g51
NtRp2594
(dp2595
g54
(dp2596
sg63
g2464
sg56
(lp2597
g49
(g70
g51
NtRp2598
(dp2599
g54
(dp2600
g74
g75
ssg63
g2594
sg56
(lp2601
S'HTTP_CONTENT_LENGTH'
p2602
asbag49
(g70
g51
NtRp2603
(dp2604
g54
(dp2605
g81
g82
ssg63
g2594
sg56
(lp2606
S':'
asbag49
(g70
g51
NtRp2607
(dp2608
g54
(dp2609
sg63
g2594
sg56
(lp2610
g49
(g50
g51
NtRp2611
(dp2612
g54
(dp2613
g62
I3
ssg63
g2607
sg56
(lp2614
g869
asbasbasbag49
(g65
g51
NtRp2615
(dp2616
g54
(dp2617
sg63
g2464
sg56
(lp2618
g49
(g70
g51
NtRp2619
(dp2620
g54
(dp2621
g74
g75
ssg63
g2615
sg56
(lp2622
S'HTTP_CONTENT_TYPE'
p2623
asbag49
(g70
g51
NtRp2624
(dp2625
g54
(dp2626
g81
g82
ssg63
g2615
sg56
(lp2627
S':'
asbag49
(g70
g51
NtRp2628
(dp2629
g54
(dp2630
sg63
g2615
sg56
(lp2631
g49
(g50
g51
NtRp2632
(dp2633
g54
(dp2634
g62
I3
ssg63
g2628
sg56
(lp2635
g891
asbasbasbag49
(g65
g51
NtRp2636
(dp2637
g54
(dp2638
sg63
g2464
sg56
(lp2639
g49
(g70
g51
NtRp2640
(dp2641
g54
(dp2642
g74
g75
ssg63
g2636
sg56
(lp2643
S'HTTP_COOKIE'
p2644
asbag49
(g70
g51
NtRp2645
(dp2646
g54
(dp2647
g81
g82
ssg63
g2636
sg56
(lp2648
S':'
asbag49
(g70
g51
NtRp2649
(dp2650
g54
(dp2651
sg63
g2636
sg56
(lp2652
g49
(g50
g51
NtRp2653
(dp2654
g54
(dp2655
g62
I3
ssg63
g2649
sg56
(lp2656
g1108
asbasbasbag49
(g65
g51
NtRp2657
(dp2658
g54
(dp2659
sg63
g2464
sg56
(lp2660
g49
(g70
g51
NtRp2661
(dp2662
g54
(dp2663
g74
g75
ssg63
g2657
sg56
(lp2664
S'HTTP_HOST'
p2665
asbag49
(g70
g51
NtRp2666
(dp2667
g54
(dp2668
g81
g82
ssg63
g2657
sg56
(lp2669
S':'
asbag49
(g70
g51
NtRp2670
(dp2671
g54
(dp2672
sg63
g2657
sg56
(lp2673
g49
(g50
g51
NtRp2674
(dp2675
g54
(dp2676
g62
I3
ssg63
g2670
sg56
(lp2677
g1130
asbasbasbag49
(g65
g51
NtRp2678
(dp2679
g54
(dp2680
sg63
g2464
sg56
(lp2681
g49
(g70
g51
NtRp2682
(dp2683
g54
(dp2684
g74
g75
ssg63
g2678
sg56
(lp2685
S'HTTP_REFERER'
p2686
asbag49
(g70
g51
NtRp2687
(dp2688
g54
(dp2689
g81
g82
ssg63
g2678
sg56
(lp2690
S':'
asbag49
(g70
g51
NtRp2691
(dp2692
g54
(dp2693
sg63
g2678
sg56
(lp2694
g49
(g50
g51
NtRp2695
(dp2696
g54
(dp2697
g62
I3
ssg63
g2691
sg56
(lp2698
g1152
asbasbasbag49
(g65
g51
NtRp2699
(dp2700
g54
(dp2701
sg63
g2464
sg56
(lp2702
g49
(g70
g51
NtRp2703
(dp2704
g54
(dp2705
g74
g75
ssg63
g2699
sg56
(lp2706
S'HTTP_USER_AGENT'
p2707
asbag49
(g70
g51
NtRp2708
(dp2709
g54
(dp2710
g81
g82
ssg63
g2699
sg56
(lp2711
S':'
asbag49
(g70
g51
NtRp2712
(dp2713
g54
(dp2714
sg63
g2699
sg56
(lp2715
g49
(g50
g51
NtRp2716
(dp2717
g54
(dp2718
g62
I3
ssg63
g2712
sg56
(lp2719
g1174
asbasbasbag49
(g65
g51
NtRp2720
(dp2721
g54
(dp2722
sg63
g2464
sg56
(lp2723
g49
(g70
g51
NtRp2724
(dp2725
g54
(dp2726
g74
g75
ssg63
g2720
sg56
(lp2727
S'PATH_INFO'
p2728
asbag49
(g70
g51
NtRp2729
(dp2730
g54
(dp2731
g81
g82
ssg63
g2720
sg56
(lp2732
S':'
asbag49
(g70
g51
NtRp2733
(dp2734
g54
(dp2735
sg63
g2720
sg56
(lp2736
g49
(g50
g51
NtRp2737
(dp2738
g54
(dp2739
g62
I3
ssg63
g2733
sg56
(lp2740
g1238
asbasbasbag49
(g65
g51
NtRp2741
(dp2742
g54
(dp2743
sg63
g2464
sg56
(lp2744
g49
(g70
g51
NtRp2745
(dp2746
g54
(dp2747
g74
g75
ssg63
g2741
sg56
(lp2748
S'QUERY_STRING'
p2749
asbag49
(g70
g51
NtRp2750
(dp2751
g54
(dp2752
g81
g82
ssg63
g2741
sg56
(lp2753
S':'
asbag49
(g70
g51
NtRp2754
(dp2755
g54
(dp2756
sg63
g2741
sg56
(lp2757
g49
(g50
g51
NtRp2758
(dp2759
g54
(dp2760
g62
I3
ssg63
g2754
sg56
(lp2761
S''
asbasbasbag49
(g65
g51
NtRp2762
(dp2763
g54
(dp2764
sg63
g2464
sg56
(lp2765
g49
(g70
g51
NtRp2766
(dp2767
g54
(dp2768
g74
g75
ssg63
g2762
sg56
(lp2769
S'REMOTE_ADDR'
p2770
asbag49
(g70
g51
NtRp2771
(dp2772
g54
(dp2773
g81
g82
ssg63
g2762
sg56
(lp2774
S':'
asbag49
(g70
g51
NtRp2775
(dp2776
g54
(dp2777
sg63
g2762
sg56
(lp2778
g49
(g50
g51
NtRp2779
(dp2780
g54
(dp2781
g62
I3
ssg63
g2775
sg56
(lp2782
g182
asbasbasbag49
(g65
g51
NtRp2783
(dp2784
g54
(dp2785
sg63
g2464
sg56
(lp2786
g49
(g70
g51
NtRp2787
(dp2788
g54
(dp2789
g74
g75
ssg63
g2783
sg56
(lp2790
S'REMOTE_PORT'
p2791
asbag49
(g70
g51
NtRp2792
(dp2793
g54
(dp2794
g81
g82
ssg63
g2783
sg56
(lp2795
S':'
asbag49
(g70
g51
NtRp2796
(dp2797
g54
(dp2798
sg63
g2783
sg56
(lp2799
g49
(g50
g51
NtRp2800
(dp2801
g54
(dp2802
g62
I3
ssg63
g2796
sg56
(lp2803
g1302
asbasbasbag49
(g65
g51
NtRp2804
(dp2805
g54
(dp2806
sg63
g2464
sg56
(lp2807
g49
(g70
g51
NtRp2808
(dp2809
g54
(dp2810
g74
g75
ssg63
g2804
sg56
(lp2811
S'REQUEST_METHOD'
p2812
asbag49
(g70
g51
NtRp2813
(dp2814
g54
(dp2815
g81
g82
ssg63
g2804
sg56
(lp2816
S':'
asbag49
(g70
g51
NtRp2817
(dp2818
g54
(dp2819
sg63
g2804
sg56
(lp2820
g49
(g50
g51
NtRp2821
(dp2822
g54
(dp2823
g62
I3
ssg63
g2817
sg56
(lp2824
g1324
asbasbasbag49
(g65
g51
NtRp2825
(dp2826
g54
(dp2827
sg63
g2464
sg56
(lp2828
g49
(g70
g51
NtRp2829
(dp2830
g54
(dp2831
g74
g75
ssg63
g2825
sg56
(lp2832
S'SCRIPT_NAME'
p2833
asbag49
(g70
g51
NtRp2834
(dp2835
g54
(dp2836
g81
g82
ssg63
g2825
sg56
(lp2837
S':'
asbag49
(g70
g51
NtRp2838
(dp2839
g54
(dp2840
sg63
g2825
sg56
(lp2841
g49
(g50
g51
NtRp2842
(dp2843
g54
(dp2844
g62
I3
ssg63
g2838
sg56
(lp2845
S''
asbasbasbag49
(g65
g51
NtRp2846
(dp2847
g54
(dp2848
sg63
g2464
sg56
(lp2849
g49
(g70
g51
NtRp2850
(dp2851
g54
(dp2852
g74
g75
ssg63
g2846
sg56
(lp2853
S'SERVER_NAME'
p2854
asbag49
(g70
g51
NtRp2855
(dp2856
g54
(dp2857
g81
g82
ssg63
g2846
sg56
(lp2858
S':'
asbag49
(g70
g51
NtRp2859
(dp2860
g54
(dp2861
sg63
g2846
sg56
(lp2862
g49
(g50
g51
NtRp2863
(dp2864
g54
(dp2865
g62
I3
ssg63
g2859
sg56
(lp2866
g1367
asbasbasbag49
(g65
g51
NtRp2867
(dp2868
g54
(dp2869
sg63
g2464
sg56
(lp2870
g49
(g70
g51
NtRp2871
(dp2872
g54
(dp2873
g74
g75
ssg63
g2867
sg56
(lp2874
S'SERVER_PORT'
p2875
asbag49
(g70
g51
NtRp2876
(dp2877
g54
(dp2878
g81
g82
ssg63
g2867
sg56
(lp2879
S':'
asbag49
(g70
g51
NtRp2880
(dp2881
g54
(dp2882
sg63
g2867
sg56
(lp2883
g49
(g50
g51
NtRp2884
(dp2885
g54
(dp2886
g62
I3
ssg63
g2880
sg56
(lp2887
g1389
asbasbasbag49
(g65
g51
NtRp2888
(dp2889
g54
(dp2890
sg63
g2464
sg56
(lp2891
g49
(g70
g51
NtRp2892
(dp2893
g54
(dp2894
g74
g75
ssg63
g2888
sg56
(lp2895
S'SERVER_PROTOCOL'
p2896
asbag49
(g70
g51
NtRp2897
(dp2898
g54
(dp2899
g81
g82
ssg63
g2888
sg56
(lp2900
S':'
asbag49
(g70
g51
NtRp2901
(dp2902
g54
(dp2903
sg63
g2888
sg56
(lp2904
g49
(g50
g51
NtRp2905
(dp2906
g54
(dp2907
g62
I3
ssg63
g2901
sg56
(lp2908
g1411
asbasbasbag49
(g65
g51
NtRp2909
(dp2910
g54
(dp2911
sg63
g2464
sg56
(lp2912
g49
(g70
g51
NtRp2913
(dp2914
g54
(dp2915
g74
g75
ssg63
g2909
sg56
(lp2916
S'SERVER_SOFTWARE'
p2917
asbag49
(g70
g51
NtRp2918
(dp2919
g54
(dp2920
g81
g82
ssg63
g2909
sg56
(lp2921
S':'
asbag49
(g70
g51
NtRp2922
(dp2923
g54
(dp2924
sg63
g2909
sg56
(lp2925
g49
(g50
g51
NtRp2926
(dp2927
g54
(dp2928
g62
I3
ssg63
g2922
sg56
(lp2929
g1433
asbasbasbag49
(g65
g51
NtRp2930
(dp2931
g54
(dp2932
sg63
g2464
sg56
(lp2933
g49
(g70
g51
NtRp2934
(dp2935
g54
(dp2936
g74
g75
ssg63
g2930
sg56
(lp2937
S'wsgi.errors'
p2938
asbag49
(g70
g51
NtRp2939
(dp2940
g54
(dp2941
g81
g82
ssg63
g2930
sg56
(lp2942
S':'
asbag49
(g70
g51
NtRp2943
(dp2944
g54
(dp2945
sg63
g2930
sg56
(lp2946
g49
(g50
g51
NtRp2947
(dp2948
g54
(dp2949
g62
I3
ssg63
g2943
sg56
(lp2950
S"<open file '<stderr>', mode 'w' at 0x01FB00B0>"
p2951
asbasbasbag49
(g65
g51
NtRp2952
(dp2953
g54
(dp2954
sg63
g2464
sg56
(lp2955
g49
(g70
g51
NtRp2956
(dp2957
g54
(dp2958
g74
g75
ssg63
g2952
sg56
(lp2959
S'wsgi.file_wrapper'
p2960
asbag49
(g70
g51
NtRp2961
(dp2962
g54
(dp2963
g81
g82
ssg63
g2952
sg56
(lp2964
S':'
asbag49
(g70
g51
NtRp2965
(dp2966
g54
(dp2967
sg63
g2952
sg56
(lp2968
g49
(g50
g51
NtRp2969
(dp2970
g54
(dp2971
g62
I3
ssg63
g2965
sg56
(lp2972
S'<class wsgiref.util.FileWrapper at 0x02F56390>'
p2973
asbasbasbag49
(g65
g51
NtRp2974
(dp2975
g54
(dp2976
sg63
g2464
sg56
(lp2977
g49
(g70
g51
NtRp2978
(dp2979
g54
(dp2980
g74
g75
ssg63
g2974
sg56
(lp2981
S'wsgi.input'
p2982
asbag49
(g70
g51
NtRp2983
(dp2984
g54
(dp2985
g81
g82
ssg63
g2974
sg56
(lp2986
S':'
asbag49
(g70
g51
NtRp2987
(dp2988
g54
(dp2989
sg63
g2974
sg56
(lp2990
g49
(g50
g51
NtRp2991
(dp2992
g54
(dp2993
g62
I3
ssg63
g2987
sg56
(lp2994
S"<open file '<fdopen>', mode 'w+b' at 0x0772D650>"
p2995
asbasbasbag49
(g65
g51
NtRp2996
(dp2997
g54
(dp2998
sg63
g2464
sg56
(lp2999
g49
(g70
g51
NtRp3000
(dp3001
g54
(dp3002
g74
g75
ssg63
g2996
sg56
(lp3003
S'wsgi.multiprocess'
p3004
asbag49
(g70
g51
NtRp3005
(dp3006
g54
(dp3007
g81
g82
ssg63
g2996
sg56
(lp3008
S':'
asbag49
(g70
g51
NtRp3009
(dp3010
g54
(dp3011
sg63
g2996
sg56
(lp3012
g49
(g50
g51
NtRp3013
(dp3014
g54
(dp3015
g62
I3
ssg63
g3009
sg56
(lp3016
g92
asbasbasbag49
(g65
g51
NtRp3017
(dp3018
g54
(dp3019
sg63
g2464
sg56
(lp3020
g49
(g70
g51
NtRp3021
(dp3022
g54
(dp3023
g74
g75
ssg63
g3017
sg56
(lp3024
S'wsgi.multithread'
p3025
asbag49
(g70
g51
NtRp3026
(dp3027
g54
(dp3028
g81
g82
ssg63
g3017
sg56
(lp3029
S':'
asbag49
(g70
g51
NtRp3030
(dp3031
g54
(dp3032
sg63
g3017
sg56
(lp3033
g49
(g50
g51
NtRp3034
(dp3035
g54
(dp3036
g62
I3
ssg63
g3030
sg56
(lp3037
g1673
asbasbasbag49
(g65
g51
NtRp3038
(dp3039
g54
(dp3040
sg63
g2464
sg56
(lp3041
g49
(g70
g51
NtRp3042
(dp3043
g54
(dp3044
g74
g75
ssg63
g3038
sg56
(lp3045
S'wsgi.run_once'
p3046
asbag49
(g70
g51
NtRp3047
(dp3048
g54
(dp3049
g81
g82
ssg63
g3038
sg56
(lp3050
S':'
asbag49
(g70
g51
NtRp3051
(dp3052
g54
(dp3053
sg63
g3038
sg56
(lp3054
g49
(g50
g51
NtRp3055
(dp3056
g54
(dp3057
g62
I3
ssg63
g3051
sg56
(lp3058
g92
asbasbasbag49
(g65
g51
NtRp3059
(dp3060
g54
(dp3061
sg63
g2464
sg56
(lp3062
g49
(g70
g51
NtRp3063
(dp3064
g54
(dp3065
g74
g75
ssg63
g3059
sg56
(lp3066
S'wsgi.url_scheme'
p3067
asbag49
(g70
g51
NtRp3068
(dp3069
g54
(dp3070
g81
g82
ssg63
g3059
sg56
(lp3071
S':'
asbag49
(g70
g51
NtRp3072
(dp3073
g54
(dp3074
sg63
g3059
sg56
(lp3075
g49
(g50
g51
NtRp3076
(dp3077
g54
(dp3078
g62
I3
ssg63
g3072
sg56
(lp3079
g1716
asbasbasbag49
(g65
g51
NtRp3080
(dp3081
g54
(dp3082
sg63
g2464
sg56
(lp3083
g49
(g70
g51
NtRp3084
(dp3085
g54
(dp3086
g74
g75
ssg63
g3080
sg56
(lp3087
S'wsgi.version'
p3088
asbag49
(g70
g51
NtRp3089
(dp3090
g54
(dp3091
g81
g82
ssg63
g3080
sg56
(lp3092
S':'
asbag49
(g70
g51
NtRp3093
(dp3094
g54
(dp3095
sg63
g3080
sg56
(lp3096
g49
(g50
g51
NtRp3097
(dp3098
g54
(dp3099
g62
I3
ssg63
g3093
sg56
(lp3100
S'1'
asbasbasbasbasbasbasbasbasbasbasbasbasbsS'frames'
p3101
(lp3102
(dp3103
S'file'
p3104
S'D:\\Dise\xf1o Web\\Proyectos\\Parleyweb\\web2py\\gluon\\restricted.py'
p3105
sS'dump'
p3106
(dp3107
sS'lnum'
p3108
I205
sS'lines'
p3109
(dp3110
sS'call'
p3111
S"(code='\\nformulario_busqueda = SQLFORM(db.busqueda, form...alabras.palabra, limitby=(0,10), min_length=2)\\n\\n\\n', environment={'A': <class 'gluon.html.A'>, 'Auth': <class 'gluon.tools.Auth'>, 'B': <class 'gluon.html.B'>, 'BEAUTIFY': <class 'gluon.html.BEAUTIFY'>, 'BODY': <class 'gluon.html.BODY'>, 'BR': <class 'gluon.html.BR'>, 'BUTTON': <class 'gluon.html.BUTTON'>, 'CAT': <class 'gluon.html.CAT'>, 'CENTER': <class 'gluon.html.CENTER'>, 'CLEANUP': <class 'gluon.validators.CLEANUP'>, ...}, layer='D:\\\\Dise\\xf1o Web\\\\Proyectos\\\\Parleyweb\\\\web2py\\\\applications\\\\parleyweb\\\\models\\\\globales.py')"
p3112
sS'func'
p3113
S'restricted'
p3114
sa(dp3115
g3104
S'D:\\Dise\xf1o Web\\Proyectos\\Parleyweb\\web2py\\applications\\parleyweb\\models\\globales.py'
p3116
sg3106
(dp3117
sg3108
I5
sg3109
(dp3118
I2
S'formulario_busqueda = SQLFORM(db.busqueda, formstyle=\'divs\', _id="buscar_palabra_parley", submit_button=\'Enviar\')'
p3119
sI3
S'if formulario_busqueda.accepts(request.vars, session, dbio=False):'
p3120
sI4
S'    session.flash = "prueba"'
p3121
sI5
S"    redirect(URL('default', 'index', args=request.vars_post.buscar_palabra))"
p3122
sI6
S''
sI7
S''
sI8
S''
sI9
S'### Autocompletar busqueda ###'
p3123
sI10
S'#db.busqueda.buscar_palabra.widget = SQLFORM.widgets.autocomplete('
p3124
sI11
S'#     request, db.palabras.palabra, limitby=(0,10), min_length=2)'
p3125
ssg3111
S'()'
p3126
sg3113
S'<module>'
p3127
sasS'pyver'
p3128
S'Python 2.5.4: D:\\Dise\xf1o Web\\Proyectos\\Parleyweb\\web2py\\web2py.exe'
p3129
sS'session'
p3130
g49
(g50
g51
NtRp3131
(dp3132
g54
(dp3133
sg56
(lp3134
g49
(g58
g51
NtRp3135
(dp3136
g54
(dp3137
g62
I5
ssg63
Nsg56
(lp3138
g49
(g65
g51
NtRp3139
(dp3140
g54
(dp3141
sg63
g3135
sg56
(lp3142
g49
(g70
g51
NtRp3143
(dp3144
g54
(dp3145
g74
g75
ssg63
g3139
sg56
(lp3146
S'flash'
p3147
asbag49
(g70
g51
NtRp3148
(dp3149
g54
(dp3150
g81
g82
ssg63
g3139
sg56
(lp3151
S':'
asbag49
(g70
g51
NtRp3152
(dp3153
g54
(dp3154
sg63
g3139
sg56
(lp3155
g49
(g50
g51
NtRp3156
(dp3157
g54
(dp3158
g62
I5
ssg63
g3152
sg56
(lp3159
S'prueba'
p3160
asbasbasbasbasbsS'etype'
p3161
S"<type 'exceptions.AttributeError'>"
p3162
sS'date'
p3163
S'Sat Mar 17 00:03:08 2012'
p3164
sS'response'
p3165
g49
(g50
g51
NtRp3166
(dp3167
g54
(dp3168
sg56
(lp3169
g49
(g58
g51
NtRp3170
(dp3171
g54
(dp3172
g62
I5
ssg63
Nsg56
(lp3173
g49
(g65
g51
NtRp3174
(dp3175
g54
(dp3176
sg63
g3170
sg56
(lp3177
g49
(g70
g51
NtRp3178
(dp3179
g54
(dp3180
g74
g75
ssg63
g3174
sg56
(lp3181
g147
asbag49
(g70
g51
NtRp3182
(dp3183
g54
(dp3184
g81
g82
ssg63
g3174
sg56
(lp3185
S':'
asbag49
(g70
g51
NtRp3186
(dp3187
g54
(dp3188
sg63
g3174
sg56
(lp3189
g49
(g50
g51
NtRp3190
(dp3191
g54
(dp3192
g62
I5
ssg63
g3186
sg56
(lp3193
S'<cStringIO.StringO object at 0x075227E0>'
p3194
asbasbasbag49
(g65
g51
NtRp3195
(dp3196
g54
(dp3197
sg63
g3170
sg56
(lp3198
g49
(g70
g51
NtRp3199
(dp3200
g54
(dp3201
g74
g75
ssg63
g3195
sg56
(lp3202
g213
asbag49
(g70
g51
NtRp3203
(dp3204
g54
(dp3205
g81
g82
ssg63
g3195
sg56
(lp3206
S':'
asbag49
(g70
g51
NtRp3207
(dp3208
g54
(dp3209
sg63
g3195
sg56
(lp3210
g49
(g50
g51
NtRp3211
(dp3212
g54
(dp3213
g62
I5
ssg63
g3207
sg56
(lp3214
g49
(g58
g51
NtRp3215
(dp3216
g54
(dp3217
g62
I4
ssg63
Nsg56
(lp3218
g49
(g65
g51
NtRp3219
(dp3220
g54
(dp3221
sg63
g3215
sg56
(lp3222
g49
(g70
g51
NtRp3223
(dp3224
g54
(dp3225
g74
g75
ssg63
g3219
sg56
(lp3226
S'session_id_parleyweb'
p3227
asbag49
(g70
g51
NtRp3228
(dp3229
g54
(dp3230
g81
g82
ssg63
g3219
sg56
(lp3231
S':'
asbag49
(g70
g51
NtRp3232
(dp3233
g54
(dp3234
sg63
g3219
sg56
(lp3235
g49
(g50
g51
NtRp3236
(dp3237
g54
(dp3238
g62
I4
ssg63
g3232
sg56
(lp3239
g49
(g58
g51
NtRp3240
(dp3241
g54
(dp3242
g62
I3
ssg63
Nsg56
(lp3243
g49
(g65
g51
NtRp3244
(dp3245
g54
(dp3246
sg63
g3240
sg56
(lp3247
g49
(g70
g51
NtRp3248
(dp3249
g54
(dp3250
g74
g75
ssg63
g3244
sg56
(lp3251
g263
asbag49
(g70
g51
NtRp3252
(dp3253
g54
(dp3254
g81
g82
ssg63
g3244
sg56
(lp3255
S':'
asbag49
(g70
g51
NtRp3256
(dp3257
g54
(dp3258
sg63
g3244
sg56
(lp3259
g49
(g50
g51
NtRp3260
(dp3261
g54
(dp3262
g62
I3
ssg63
g3256
sg56
(lp3263
S''
asbasbasbag49
(g65
g51
NtRp3264
(dp3265
g54
(dp3266
sg63
g3240
sg56
(lp3267
g49
(g70
g51
NtRp3268
(dp3269
g54
(dp3270
g74
g75
ssg63
g3264
sg56
(lp3271
g284
asbag49
(g70
g51
NtRp3272
(dp3273
g54
(dp3274
g81
g82
ssg63
g3264
sg56
(lp3275
S':'
asbag49
(g70
g51
NtRp3276
(dp3277
g54
(dp3278
sg63
g3264
sg56
(lp3279
g49
(g50
g51
NtRp3280
(dp3281
g54
(dp3282
g62
I3
ssg63
g3276
sg56
(lp3283
S''
asbasbasbag49
(g65
g51
NtRp3284
(dp3285
g54
(dp3286
sg63
g3240
sg56
(lp3287
g49
(g70
g51
NtRp3288
(dp3289
g54
(dp3290
g74
g75
ssg63
g3284
sg56
(lp3291
g305
asbag49
(g70
g51
NtRp3292
(dp3293
g54
(dp3294
g81
g82
ssg63
g3284
sg56
(lp3295
S':'
asbag49
(g70
g51
NtRp3296
(dp3297
g54
(dp3298
sg63
g3284
sg56
(lp3299
g49
(g50
g51
NtRp3300
(dp3301
g54
(dp3302
g62
I3
ssg63
g3296
sg56
(lp3303
S''
asbasbasbag49
(g65
g51
NtRp3304
(dp3305
g54
(dp3306
sg63
g3240
sg56
(lp3307
g49
(g70
g51
NtRp3308
(dp3309
g54
(dp3310
g74
g75
ssg63
g3304
sg56
(lp3311
g326
asbag49
(g70
g51
NtRp3312
(dp3313
g54
(dp3314
g81
g82
ssg63
g3304
sg56
(lp3315
S':'
asbag49
(g70
g51
NtRp3316
(dp3317
g54
(dp3318
sg63
g3304
sg56
(lp3319
g49
(g50
g51
NtRp3320
(dp3321
g54
(dp3322
g62
I3
ssg63
g3316
sg56
(lp3323
S''
asbasbasbag49
(g65
g51
NtRp3324
(dp3325
g54
(dp3326
sg63
g3240
sg56
(lp3327
g49
(g70
g51
NtRp3328
(dp3329
g54
(dp3330
g74
g75
ssg63
g3324
sg56
(lp3331
g347
asbag49
(g70
g51
NtRp3332
(dp3333
g54
(dp3334
g81
g82
ssg63
g3324
sg56
(lp3335
S':'
asbag49
(g70
g51
NtRp3336
(dp3337
g54
(dp3338
sg63
g3324
sg56
(lp3339
g49
(g50
g51
NtRp3340
(dp3341
g54
(dp3342
g62
I3
ssg63
g3336
sg56
(lp3343
S'/'
asbasbasbag49
(g65
g51
NtRp3344
(dp3345
g54
(dp3346
sg63
g3240
sg56
(lp3347
g49
(g70
g51
NtRp3348
(dp3349
g54
(dp3350
g74
g75
ssg63
g3344
sg56
(lp3351
g368
asbag49
(g70
g51
NtRp3352
(dp3353
g54
(dp3354
g81
g82
ssg63
g3344
sg56
(lp3355
S':'
asbag49
(g70
g51
NtRp3356
(dp3357
g54
(dp3358
sg63
g3344
sg56
(lp3359
g49
(g50
g51
NtRp3360
(dp3361
g54
(dp3362
g62
I3
ssg63
g3356
sg56
(lp3363
S''
asbasbasbag49
(g65
g51
NtRp3364
(dp3365
g54
(dp3366
sg63
g3240
sg56
(lp3367
g49
(g70
g51
NtRp3368
(dp3369
g54
(dp3370
g74
g75
ssg63
g3364
sg56
(lp3371
g389
asbag49
(g70
g51
NtRp3372
(dp3373
g54
(dp3374
g81
g82
ssg63
g3364
sg56
(lp3375
S':'
asbag49
(g70
g51
NtRp3376
(dp3377
g54
(dp3378
sg63
g3364
sg56
(lp3379
g49
(g50
g51
NtRp3380
(dp3381
g54
(dp3382
g62
I3
ssg63
g3376
sg56
(lp3383
S''
asbasbasbasbasbasbasbasbasbasbasbag49
(g65
g51
NtRp3384
(dp3385
g54
(dp3386
sg63
g3170
sg56
(lp3387
g49
(g70
g51
NtRp3388
(dp3389
g54
(dp3390
g74
g75
ssg63
g3384
sg56
(lp3391
S'delimiters'
p3392
asbag49
(g70
g51
NtRp3393
(dp3394
g54
(dp3395
g81
g82
ssg63
g3384
sg56
(lp3396
S':'
asbag49
(g70
g51
NtRp3397
(dp3398
g54
(dp3399
sg63
g3384
sg56
(lp3400
g49
(g50
g51
NtRp3401
(dp3402
g54
(dp3403
g62
I5
ssg63
g3397
sg56
(lp3404
g49
(g58
g51
NtRp3405
(dp3406
g54
(dp3407
g62
I4
ssg63
Nsg56
(lp3408
g49
(g65
g51
NtRp3409
(dp3410
g54
(dp3411
sg63
g3405
sg56
(lp3412
g49
(g70
g51
NtRp3413
(dp3414
g54
(dp3415
sg63
g3409
sg56
(lp3416
g49
(g50
g51
NtRp3417
(dp3418
g54
(dp3419
g62
I4
ssg63
g3413
sg56
(lp3420
S'{{'
p3421
asbasbasbag49
(g65
g51
NtRp3422
(dp3423
g54
(dp3424
sg63
g3405
sg56
(lp3425
g49
(g70
g51
NtRp3426
(dp3427
g54
(dp3428
sg63
g3422
sg56
(lp3429
g49
(g50
g51
NtRp3430
(dp3431
g54
(dp3432
g62
I4
ssg63
g3426
sg56
(lp3433
S'}}'
p3434
asbasbasbasbasbasbasbag49
(g65
g51
NtRp3435
(dp3436
g54
(dp3437
sg63
g3170
sg56
(lp3438
g49
(g70
g51
NtRp3439
(dp3440
g54
(dp3441
g74
g75
ssg63
g3435
sg56
(lp3442
S'files'
p3443
asbag49
(g70
g51
NtRp3444
(dp3445
g54
(dp3446
g81
g82
ssg63
g3435
sg56
(lp3447
S':'
asbag49
(g70
g51
NtRp3448
(dp3449
g54
(dp3450
sg63
g3435
sg56
(lp3451
g49
(g50
g51
NtRp3452
(dp3453
g54
(dp3454
g62
I5
ssg63
g3448
sg56
(lp3455
g49
(g58
g51
NtRp3456
(dp3457
g54
(dp3458
g62
I4
ssg63
Nsg56
(lp3459
sbasbasbasbag49
(g65
g51
NtRp3460
(dp3461
g54
(dp3462
sg63
g3170
sg56
(lp3463
g49
(g70
g51
NtRp3464
(dp3465
g54
(dp3466
g74
g75
ssg63
g3460
sg56
(lp3467
g3147
asbag49
(g70
g51
NtRp3468
(dp3469
g54
(dp3470
g81
g82
ssg63
g3460
sg56
(lp3471
S':'
asbag49
(g70
g51
NtRp3472
(dp3473
g54
(dp3474
sg63
g3460
sg56
(lp3475
g49
(g50
g51
NtRp3476
(dp3477
g54
(dp3478
g62
I5
ssg63
g3472
sg56
(lp3479
S''
asbasbasbag49
(g65
g51
NtRp3480
(dp3481
g54
(dp3482
sg63
g3170
sg56
(lp3483
g49
(g70
g51
NtRp3484
(dp3485
g54
(dp3486
g74
g75
ssg63
g3480
sg56
(lp3487
S'generic_patterns'
p3488
asbag49
(g70
g51
NtRp3489
(dp3490
g54
(dp3491
g81
g82
ssg63
g3480
sg56
(lp3492
S':'
asbag49
(g70
g51
NtRp3493
(dp3494
g54
(dp3495
sg63
g3480
sg56
(lp3496
g49
(g50
g51
NtRp3497
(dp3498
g54
(dp3499
g62
I5
ssg63
g3493
sg56
(lp3500
g49
(g58
g51
NtRp3501
(dp3502
g54
(dp3503
g62
I4
ssg63
Nsg56
(lp3504
g49
(g65
g51
NtRp3505
(dp3506
g54
(dp3507
sg63
g3501
sg56
(lp3508
g49
(g70
g51
NtRp3509
(dp3510
g54
(dp3511
sg63
g3505
sg56
(lp3512
g49
(g50
g51
NtRp3513
(dp3514
g54
(dp3515
g62
I4
ssg63
g3509
sg56
(lp3516
S'*'
asbasbasbasbasbasbasbag49
(g65
g51
NtRp3517
(dp3518
g54
(dp3519
sg63
g3170
sg56
(lp3520
g49
(g70
g51
NtRp3521
(dp3522
g54
(dp3523
g74
g75
ssg63
g3517
sg56
(lp3524
S'headers'
p3525
asbag49
(g70
g51
NtRp3526
(dp3527
g54
(dp3528
g81
g82
ssg63
g3517
sg56
(lp3529
S':'
asbag49
(g70
g51
NtRp3530
(dp3531
g54
(dp3532
sg63
g3517
sg56
(lp3533
g49
(g50
g51
NtRp3534
(dp3535
g54
(dp3536
g62
I5
ssg63
g3530
sg56
(lp3537
g49
(g58
g51
NtRp3538
(dp3539
g54
(dp3540
g62
I4
ssg63
Nsg56
(lp3541
g49
(g65
g51
NtRp3542
(dp3543
g54
(dp3544
sg63
g3538
sg56
(lp3545
g49
(g70
g51
NtRp3546
(dp3547
g54
(dp3548
g74
g75
ssg63
g3542
sg56
(lp3549
S'Cache-Control'
p3550
asbag49
(g70
g51
NtRp3551
(dp3552
g54
(dp3553
g81
g82
ssg63
g3542
sg56
(lp3554
S':'
asbag49
(g70
g51
NtRp3555
(dp3556
g54
(dp3557
sg63
g3542
sg56
(lp3558
g49
(g50
g51
NtRp3559
(dp3560
g54
(dp3561
g62
I4
ssg63
g3555
sg56
(lp3562
S'no-store, no-cache, must-revalidate, post-check=0, pre-check=0'
p3563
asbasbasbag49
(g65
g51
NtRp3564
(dp3565
g54
(dp3566
sg63
g3538
sg56
(lp3567
g49
(g70
g51
NtRp3568
(dp3569
g54
(dp3570
g74
g75
ssg63
g3564
sg56
(lp3571
S'Content-Type'
p3572
asbag49
(g70
g51
NtRp3573
(dp3574
g54
(dp3575
g81
g82
ssg63
g3564
sg56
(lp3576
S':'
asbag49
(g70
g51
NtRp3577
(dp3578
g54
(dp3579
sg63
g3564
sg56
(lp3580
g49
(g50
g51
NtRp3581
(dp3582
g54
(dp3583
g62
I4
ssg63
g3577
sg56
(lp3584
S'text/html; charset=utf-8'
p3585
asbasbasbag49
(g65
g51
NtRp3586
(dp3587
g54
(dp3588
sg63
g3538
sg56
(lp3589
g49
(g70
g51
NtRp3590
(dp3591
g54
(dp3592
g74
g75
ssg63
g3586
sg56
(lp3593
S'Expires'
p3594
asbag49
(g70
g51
NtRp3595
(dp3596
g54
(dp3597
g81
g82
ssg63
g3586
sg56
(lp3598
S':'
asbag49
(g70
g51
NtRp3599
(dp3600
g54
(dp3601
sg63
g3586
sg56
(lp3602
g49
(g50
g51
NtRp3603
(dp3604
g54
(dp3605
g62
I4
ssg63
g3599
sg56
(lp3606
S'Fri, 16 Mar 2012 23:03:08 GMT'
p3607
asbasbasbag49
(g65
g51
NtRp3608
(dp3609
g54
(dp3610
sg63
g3538
sg56
(lp3611
g49
(g70
g51
NtRp3612
(dp3613
g54
(dp3614
g74
g75
ssg63
g3608
sg56
(lp3615
S'Pragma'
p3616
asbag49
(g70
g51
NtRp3617
(dp3618
g54
(dp3619
g81
g82
ssg63
g3608
sg56
(lp3620
S':'
asbag49
(g70
g51
NtRp3621
(dp3622
g54
(dp3623
sg63
g3608
sg56
(lp3624
g49
(g50
g51
NtRp3625
(dp3626
g54
(dp3627
g62
I4
ssg63
g3621
sg56
(lp3628
S'no-cache'
p3629
asbasbasbag49
(g65
g51
NtRp3630
(dp3631
g54
(dp3632
sg63
g3538
sg56
(lp3633
g49
(g70
g51
NtRp3634
(dp3635
g54
(dp3636
g74
g75
ssg63
g3630
sg56
(lp3637
S'X-Powered-By'
p3638
asbag49
(g70
g51
NtRp3639
(dp3640
g54
(dp3641
g81
g82
ssg63
g3630
sg56
(lp3642
S':'
asbag49
(g70
g51
NtRp3643
(dp3644
g54
(dp3645
sg63
g3630
sg56
(lp3646
g49
(g50
g51
NtRp3647
(dp3648
g54
(dp3649
g62
I4
ssg63
g3643
sg56
(lp3650
S'web2py'
p3651
asbasbasbasbasbasbasbag49
(g65
g51
NtRp3652
(dp3653
g54
(dp3654
sg63
g3170
sg56
(lp3655
g49
(g70
g51
NtRp3656
(dp3657
g54
(dp3658
g74
g75
ssg63
g3652
sg56
(lp3659
S'menu'
p3660
asbag49
(g70
g51
NtRp3661
(dp3662
g54
(dp3663
g81
g82
ssg63
g3652
sg56
(lp3664
S':'
asbag49
(g70
g51
NtRp3665
(dp3666
g54
(dp3667
sg63
g3652
sg56
(lp3668
g49
(g50
g51
NtRp3669
(dp3670
g54
(dp3671
g62
I5
ssg63
g3665
sg56
(lp3672
g49
(g58
g51
NtRp3673
(dp3674
g54
(dp3675
g62
I4
ssg63
Nsg56
(lp3676
sbasbasbasbag49
(g65
g51
NtRp3677
(dp3678
g54
(dp3679
sg63
g3170
sg56
(lp3680
g49
(g70
g51
NtRp3681
(dp3682
g54
(dp3683
g74
g75
ssg63
g3677
sg56
(lp3684
S'meta'
p3685
asbag49
(g70
g51
NtRp3686
(dp3687
g54
(dp3688
g81
g82
ssg63
g3677
sg56
(lp3689
S':'
asbag49
(g70
g51
NtRp3690
(dp3691
g54
(dp3692
sg63
g3677
sg56
(lp3693
g49
(g50
g51
NtRp3694
(dp3695
g54
(dp3696
g62
I5
ssg63
g3690
sg56
(lp3697
g49
(g58
g51
NtRp3698
(dp3699
g54
(dp3700
g62
I4
ssg63
Nsg56
(lp3701
sbasbasbasbag49
(g65
g51
NtRp3702
(dp3703
g54
(dp3704
sg63
g3170
sg56
(lp3705
g49
(g70
g51
NtRp3706
(dp3707
g54
(dp3708
g74
g75
ssg63
g3702
sg56
(lp3709
S'postprocessing'
p3710
asbag49
(g70
g51
NtRp3711
(dp3712
g54
(dp3713
g81
g82
ssg63
g3702
sg56
(lp3714
S':'
asbag49
(g70
g51
NtRp3715
(dp3716
g54
(dp3717
sg63
g3702
sg56
(lp3718
g49
(g50
g51
NtRp3719
(dp3720
g54
(dp3721
g62
I5
ssg63
g3715
sg56
(lp3722
g49
(g58
g51
NtRp3723
(dp3724
g54
(dp3725
g62
I4
ssg63
Nsg56
(lp3726
sbasbasbasbag49
(g65
g51
NtRp3727
(dp3728
g54
(dp3729
sg63
g3170
sg56
(lp3730
g49
(g70
g51
NtRp3731
(dp3732
g54
(dp3733
g74
g75
ssg63
g3727
sg56
(lp3734
S'session_file'
p3735
asbag49
(g70
g51
NtRp3736
(dp3737
g54
(dp3738
g81
g82
ssg63
g3727
sg56
(lp3739
S':'
asbag49
(g70
g51
NtRp3740
(dp3741
g54
(dp3742
sg63
g3727
sg56
(lp3743
g49
(g50
g51
NtRp3744
(dp3745
g54
(dp3746
g62
I5
ssg63
g3740
sg56
(lp3747
S"<open file 'D:\\Dise\xf1o Web\\Proyectos\\Parleyweb\\web2py\\applications\\parleyweb\\sessions\\127.0.0.1-0780c0c1-affd-425a-affb-ac061c4961c7', mode 'rb+' at 0x0772D920>"
p3748
asbasbasbag49
(g65
g51
NtRp3749
(dp3750
g54
(dp3751
sg63
g3170
sg56
(lp3752
g49
(g70
g51
NtRp3753
(dp3754
g54
(dp3755
g74
g75
ssg63
g3749
sg56
(lp3756
S'session_filename'
p3757
asbag49
(g70
g51
NtRp3758
(dp3759
g54
(dp3760
g81
g82
ssg63
g3749
sg56
(lp3761
S':'
asbag49
(g70
g51
NtRp3762
(dp3763
g54
(dp3764
sg63
g3749
sg56
(lp3765
g49
(g50
g51
NtRp3766
(dp3767
g54
(dp3768
g62
I5
ssg63
g3762
sg56
(lp3769
S'D:\\Dise\xf1o Web\\Proyectos\\Parleyweb\\web2py\\applications\\parleyweb\\sessions\\127.0.0.1-0780c0c1-affd-425a-affb-ac061c4961c7'
p3770
asbasbasbag49
(g65
g51
NtRp3771
(dp3772
g54
(dp3773
sg63
g3170
sg56
(lp3774
g49
(g70
g51
NtRp3775
(dp3776
g54
(dp3777
g74
g75
ssg63
g3771
sg56
(lp3778
S'session_id'
p3779
asbag49
(g70
g51
NtRp3780
(dp3781
g54
(dp3782
g81
g82
ssg63
g3771
sg56
(lp3783
S':'
asbag49
(g70
g51
NtRp3784
(dp3785
g54
(dp3786
sg63
g3771
sg56
(lp3787
g49
(g50
g51
NtRp3788
(dp3789
g54
(dp3790
g62
I5
ssg63
g3784
sg56
(lp3791
S'127.0.0.1-0780c0c1-affd-425a-affb-ac061c4961c7'
p3792
asbasbasbag49
(g65
g51
NtRp3793
(dp3794
g54
(dp3795
sg63
g3170
sg56
(lp3796
g49
(g70
g51
NtRp3797
(dp3798
g54
(dp3799
g74
g75
ssg63
g3793
sg56
(lp3800
S'session_id_name'
p3801
asbag49
(g70
g51
NtRp3802
(dp3803
g54
(dp3804
g81
g82
ssg63
g3793
sg56
(lp3805
S':'
asbag49
(g70
g51
NtRp3806
(dp3807
g54
(dp3808
sg63
g3793
sg56
(lp3809
g49
(g50
g51
NtRp3810
(dp3811
g54
(dp3812
g62
I5
ssg63
g3806
sg56
(lp3813
g3227
asbasbasbag49
(g65
g51
NtRp3814
(dp3815
g54
(dp3816
sg63
g3170
sg56
(lp3817
g49
(g70
g51
NtRp3818
(dp3819
g54
(dp3820
g74
g75
ssg63
g3814
sg56
(lp3821
S'session_locked'
p3822
asbag49
(g70
g51
NtRp3823
(dp3824
g54
(dp3825
g81
g82
ssg63
g3814
sg56
(lp3826
S':'
asbag49
(g70
g51
NtRp3827
(dp3828
g54
(dp3829
sg63
g3814
sg56
(lp3830
g49
(g50
g51
NtRp3831
(dp3832
g54
(dp3833
g62
I5
ssg63
g3827
sg56
(lp3834
g1673
asbasbasbag49
(g65
g51
NtRp3835
(dp3836
g54
(dp3837
sg63
g3170
sg56
(lp3838
g49
(g70
g51
NtRp3839
(dp3840
g54
(dp3841
g74
g75
ssg63
g3835
sg56
(lp3842
S'session_new'
p3843
asbag49
(g70
g51
NtRp3844
(dp3845
g54
(dp3846
g81
g82
ssg63
g3835
sg56
(lp3847
S':'
asbag49
(g70
g51
NtRp3848
(dp3849
g54
(dp3850
sg63
g3835
sg56
(lp3851
g49
(g50
g51
NtRp3852
(dp3853
g54
(dp3854
g62
I5
ssg63
g3848
sg56
(lp3855
g92
asbasbasbag49
(g65
g51
NtRp3856
(dp3857
g54
(dp3858
sg63
g3170
sg56
(lp3859
g49
(g70
g51
NtRp3860
(dp3861
g54
(dp3862
g74
g75
ssg63
g3856
sg56
(lp3863
S'status'
p3864
asbag49
(g70
g51
NtRp3865
(dp3866
g54
(dp3867
g81
g82
ssg63
g3856
sg56
(lp3868
S':'
asbag49
(g70
g51
NtRp3869
(dp3870
g54
(dp3871
sg63
g3856
sg56
(lp3872
g49
(g50
g51
NtRp3873
(dp3874
g54
(dp3875
g62
I5
ssg63
g3869
sg56
(lp3876
S'200'
p3877
asbasbasbag49
(g65
g51
NtRp3878
(dp3879
g54
(dp3880
sg63
g3170
sg56
(lp3881
g49
(g70
g51
NtRp3882
(dp3883
g54
(dp3884
g74
g75
ssg63
g3878
sg56
(lp3885
g2359
asbag49
(g70
g51
NtRp3886
(dp3887
g54
(dp3888
g81
g82
ssg63
g3878
sg56
(lp3889
S':'
asbag49
(g70
g51
NtRp3890
(dp3891
g54
(dp3892
sg63
g3878
sg56
(lp3893
g49
(g50
g51
NtRp3894
(dp3895
g54
(dp3896
g62
I5
ssg63
g3890
sg56
(lp3897
g2372
asbasbasbag49
(g65
g51
NtRp3898
(dp3899
g54
(dp3900
sg63
g3170
sg56
(lp3901
g49
(g70
g51
NtRp3902
(dp3903
g54
(dp3904
g74
g75
ssg63
g3898
sg56
(lp3905
S'view'
p3906
asbag49
(g70
g51
NtRp3907
(dp3908
g54
(dp3909
g81
g82
ssg63
g3898
sg56
(lp3910
S':'
asbag49
(g70
g51
NtRp3911
(dp3912
g54
(dp3913
sg63
g3898
sg56
(lp3914
g49
(g50
g51
NtRp3915
(dp3916
g54
(dp3917
g62
I5
ssg63
g3911
sg56
(lp3918
S'default/index.html'
p3919
asbasbasbasbasbsS'locals'
p3920
(dp3921
S'Service'
p3922
S"<class 'gluon.tools.Service'>"
p3923
sS'OBJECT'
p3924
S"<class 'gluon.html.OBJECT'>"
p3925
sS'SQLDB'
p3926
S"<class 'gluon.dal.DAL'>"
p3927
sg3130
S"<Storage {'_formkey[palabras/create]': '1a2069be...as/90]': '46463833-6217-406a-966c-227f97d23b60'}>"
p3928
sS'LINK'
p3929
S"<class 'gluon.html.LINK'>"
p3930
sS'BR'
p3931
S"<class 'gluon.html.BR'>"
p3932
sS'local_import'
p3933
S'<function <lambda> at 0x07201730>'
p3934
sS'formulario_busqueda'
p3935
S'<gluon.sqlhtml.SQLFORM object at 0x075B2E30>'
p3936
sS'PRE'
p3937
S"<class 'gluon.html.PRE'>"
p3938
sS'IS_INT_IN_RANGE'
p3939
S"<class 'gluon.validators.IS_INT_IN_RANGE'>"
p3940
sS'IS_LOWER'
p3941
S"<class 'gluon.validators.IS_LOWER'>"
p3942
sS'IS_STRONG'
p3943
S"<class 'gluon.validators.IS_STRONG'>"
p3944
sS'cache'
p3945
S'<gluon.cache.Cache object at 0x07BEF0D0>'
p3946
sS'IS_IN_DB'
p3947
S"<class 'gluon.validators.IS_IN_DB'>"
p3948
sS'TAG'
p3949
S'<gluon.html.__TAG__ object at 0x027F1D50>'
p3950
sS'SQLField'
p3951
S"<class 'gluon.dal.Field'>"
p3952
sS'mail'
p3953
S'<gluon.tools.Mail object at 0x07BEF8F0>'
p3954
sS'BODY'
p3955
S"<class 'gluon.html.BODY'>"
p3956
sS'IS_DATE_IN_RANGE'
p3957
S"<class 'gluon.validators.IS_DATE_IN_RANGE'>"
p3958
sS'IFRAME'
p3959
S"<class 'gluon.html.IFRAME'>"
p3960
sS'URL'
p3961
S'<function URL at 0x02857EB0>'
p3962
sS'__file__'
p3963
S"'D:\\\\Dise\\xf1o Web\\\\Proyectos\\\\Parleyweb\\\\web2py\\\\applications\\\\parleyweb\\\\models\\\\globales.py'"
p3964
sS'db'
p3965
S"<DAL {'auth_event': <Table {'origin': <gluon.dal..._key': <gluon.dal.Field object at 0x07BEFF10>}>}>"
p3966
sS'auth'
p3967
S'<gluon.tools.Auth object at 0x07BEFD90>'
p3968
sS'P'
S"<class 'gluon.html.P'>"
p3969
sS'TFOOT'
p3970
S"<class 'gluon.html.TFOOT'>"
p3971
sS'XHTML'
p3972
S"<class 'gluon.html.XHTML'>"
p3973
sS'ON'
p3974
g1673
sS'OL'
p3975
S"<class 'gluon.html.OL'>"
p3976
sS'TEXTAREA'
p3977
S"<class 'gluon.html.TEXTAREA'>"
p3978
sS'MENU'
p3979
S"<class 'gluon.html.MENU'>"
p3980
sS'EM'
p3981
S"<class 'gluon.html.EM'>"
p3982
sS'CODE'
p3983
S"<class 'gluon.html.CODE'>"
p3984
sS'HTTP'
p3985
S"<class 'gluon.http.HTTP'>"
p3986
sS'HR'
p3987
S"<class 'gluon.html.HR'>"
p3988
sS'IS_DATETIME'
p3989
S"<class 'gluon.validators.IS_DATETIME'>"
p3990
sS'STYLE'
p3991
S"<class 'gluon.html.STYLE'>"
p3992
sS'LABEL'
p3993
S"<class 'gluon.html.LABEL'>"
p3994
sS'OPTGROUP'
p3995
S"<class 'gluon.html.OPTGROUP'>"
p3996
sS'META'
p3997
S"<class 'gluon.html.META'>"
p3998
sS'plugins'
p3999
S'<gluon.tools.PluginManager object at 0x06D37DD0>'
p4000
sS'SELECT'
p4001
S"<class 'gluon.html.SELECT'>"
p4002
sS'use_janrain'
p4003
S'<function use_janrain at 0x031113B0>'
p4004
sS'CENTER'
p4005
S"<class 'gluon.html.CENTER'>"
p4006
sS'prettydate'
p4007
S'<function prettydate at 0x032AEDF0>'
p4008
sS'Crud'
p4009
S"<class 'gluon.tools.Crud'>"
p4010
sS'Auth'
p4011
S"<class 'gluon.tools.Auth'>"
p4012
sS'__builtins__'
p4013
S"{'ArithmeticError': <type 'exceptions.ArithmeticError'>, 'AssertionError': <type 'exceptions.AssertionError'>, 'AttributeError': <type 'exceptions.AttributeError'>, 'BaseException': <type 'exceptions.BaseException'>, 'DeprecationWarning': <type 'exceptions.DeprecationWarning'>, 'EOFError': <type 'exceptions.EOFError'>, 'Ellipsis': Ellipsis, 'EnvironmentError': <type 'exceptions.EnvironmentError'>, 'Exception': <type 'exceptions.Exception'>, 'False': False, ...}"
p4014
sS'HTML'
p4015
S"<class 'gluon.html.HTML'>"
p4016
sS'SQLFORM'
p4017
S"<class 'gluon.sqlhtml.SQLFORM'>"
p4018
sS'LOAD'
p4019
S'<function LOAD at 0x02B417B0>'
p4020
sS'redirect'
p4021
S'<function redirect at 0x0247BB70>'
p4022
sS'FIELDSET'
p4023
S"<class 'gluon.html.FIELDSET'>"
p4024
sS'IS_EQUAL_TO'
p4025
S"<class 'gluon.validators.IS_EQUAL_TO'>"
p4026
sS'embed64'
p4027
S'<function embed64 at 0x028669F0>'
p4028
sS'IS_LIST_OF'
p4029
S"<class 'gluon.validators.IS_LIST_OF'>"
p4030
sS'INPUT'
p4031
S"<class 'gluon.html.INPUT'>"
p4032
sS'EMBED'
p4033
S"<class 'gluon.html.EMBED'>"
p4034
sS'FORM'
p4035
S"<class 'gluon.html.FORM'>"
p4036
sS'H2'
p4037
S"<class 'gluon.html.H2'>"
p4038
sS'H3'
p4039
S"<class 'gluon.html.H3'>"
p4040
sS'BUTTON'
p4041
S"<class 'gluon.html.BUTTON'>"
p4042
sS'H1'
p4043
S"<class 'gluon.html.H1'>"
p4044
sS'H6'
p4045
S"<class 'gluon.html.H6'>"
p4046
sS'H4'
p4047
S"<class 'gluon.html.H4'>"
p4048
sS'H5'
p4049
S"<class 'gluon.html.H5'>"
p4050
sS'UL'
p4051
S"<class 'gluon.html.UL'>"
p4052
sS'IS_UPPER'
p4053
S"<class 'gluon.validators.IS_UPPER'>"
p4054
sS'xmlescape'
p4055
S'<function xmlescape at 0x02857E30>'
p4056
sS'IS_TIME'
p4057
S"<class 'gluon.validators.IS_TIME'>"
p4058
sS'OPTION'
p4059
S"<class 'gluon.html.OPTION'>"
p4060
sS'TITLE'
p4061
S"<class 'gluon.html.TITLE'>"
p4062
sS'CRYPT'
p4063
S"<class 'gluon.validators.CRYPT'>"
p4064
sS'IS_EMPTY_OR'
p4065
S"<class 'gluon.validators.IS_EMPTY_OR'>"
p4066
sS'MARKMIN'
p4067
S"<class 'gluon.html.MARKMIN'>"
p4068
sS'__name__'
p4069
S"'__restricted__'"
p4070
sS'COL'
p4071
S"<class 'gluon.html.COL'>"
p4072
sS'service'
p4073
S'<gluon.tools.Service object at 0x07BEFD70>'
p4074
sS'SCRIPT'
p4075
S"<class 'gluon.html.SCRIPT'>"
p4076
sS'TABLE'
p4077
S"<class 'gluon.html.TABLE'>"
p4078
sS'IS_IPV4'
p4079
S"<class 'gluon.validators.IS_IPV4'>"
p4080
sS'IS_LENGTH'
p4081
S"<class 'gluon.validators.IS_LENGTH'>"
p4082
sS'XML'
p4083
S"<class 'gluon.html.XML'>"
p4084
sS'B'
S"<class 'gluon.html.B'>"
p4085
sS'IMG'
p4086
S"<class 'gluon.html.IMG'>"
p4087
sS'SQLTABLE'
p4088
S"<class 'gluon.sqlhtml.SQLTABLE'>"
p4089
sS'IS_MATCH'
p4090
S"<class 'gluon.validators.IS_MATCH'>"
p4091
sS'IS_ALPHANUMERIC'
p4092
S"<class 'gluon.validators.IS_ALPHANUMERIC'>"
p4093
sS'SPAN'
p4094
S"<class 'gluon.html.SPAN'>"
p4095
sS'IS_SLUG'
p4096
S"<class 'gluon.validators.IS_SLUG'>"
p4097
sS'CLEANUP'
p4098
S"<class 'gluon.validators.CLEANUP'>"
p4099
sS'IS_DATE'
p4100
S"<class 'gluon.validators.IS_DATE'>"
p4101
sS'IS_EMAIL'
p4102
S"<class 'gluon.validators.IS_EMAIL'>"
p4103
sS'IS_NOT_EMPTY'
p4104
S"<class 'gluon.validators.IS_NOT_EMPTY'>"
p4105
sS'IS_FLOAT_IN_RANGE'
p4106
S"<class 'gluon.validators.IS_FLOAT_IN_RANGE'>"
p4107
sS'BEAUTIFY'
p4108
S"<class 'gluon.html.BEAUTIFY'>"
p4109
sS'TBODY'
p4110
S"<class 'gluon.html.TBODY'>"
p4111
sS'CAT'
p4112
S"<class 'gluon.html.CAT'>"
p4113
sS'Field'
p4114
S"<class 'gluon.dal.Field'>"
p4115
sS'DIV'
p4116
S"<class 'gluon.html.DIV'>"
p4117
sS'LEGEND'
p4118
S"<class 'gluon.html.LEGEND'>"
p4119
sS'COLGROUP'
p4120
S"<class 'gluon.html.COLGROUP'>"
p4121
sS'DAL'
p4122
S"<class 'gluon.dal.DAL'>"
p4123
sS'TT'
p4124
S"<class 'gluon.html.TT'>"
p4125
sS'TR'
p4126
S"<class 'gluon.html.TR'>"
p4127
sS'LI'
p4128
S"<class 'gluon.html.LI'>"
p4129
sS'TH'
p4130
S"<class 'gluon.html.TH'>"
p4131
sS'TD'
p4132
S"<class 'gluon.html.TD'>"
p4133
sS'PluginManager'
p4134
S"<class 'gluon.tools.PluginManager'>"
p4135
sS'IS_URL'
p4136
S"<class 'gluon.validators.IS_URL'>"
p4137
sS'A'
S"<class 'gluon.html.A'>"
p4138
sS'HEAD'
p4139
S"<class 'gluon.html.HEAD'>"
p4140
sS'IS_DATETIME_IN_RANGE'
p4141
S"<class 'gluon.validators.IS_DATETIME_IN_RANGE'>"
p4142
sS'IS_IMAGE'
p4143
S"<class 'gluon.validators.IS_IMAGE'>"
p4144
sS'I'
S"<class 'gluon.html.I'>"
p4145
sS'crud'
p4146
S'<gluon.tools.Crud object at 0x07BEFE70>'
p4147
sS'IS_NOT_IN_DB'
p4148
S"<class 'gluon.validators.IS_NOT_IN_DB'>"
p4149
sg3165
S"<Storage {'status': 200, 'body': <cStringIO.Stri...E30>, 'files': [], 'view': 'default/index.html'}>"
p4150
sS'THEAD'
p4151
S"<class 'gluon.html.THEAD'>"
p4152
sS'IS_NULL_OR'
p4153
S"<class 'gluon.validators.IS_EMPTY_OR'>"
p4154
sg48
S"<Storage {'body': <open file '<fdopen>', mode 'w...': 'busqueda/create', 'buscar_palabra': '173'}>}>"
p4155
sS'IS_EXPR'
p4156
S"<class 'gluon.validators.IS_EXPR'>"
p4157
sS'IS_IN_SET'
p4158
S"<class 'gluon.validators.IS_IN_SET'>"
p4159
sS'IS_UPLOAD_FILENAME'
p4160
S"<class 'gluon.validators.IS_UPLOAD_FILENAME'>"
p4161
sS'IS_DECIMAL_IN_RANGE'
p4162
S"<class 'gluon.validators.IS_DECIMAL_IN_RANGE'>"
p4163
sS'T'
S'<gluon.languages.translator object at 0x07BEF470>'
p4164
sssS'traceback'
p4165
S'Traceback (most recent call last):\n  File "gluon/restricted.py", line 205, in restricted\n  File "D:\\Dise\xf1o Web\\Proyectos\\Parleyweb\\web2py\\applications\\parleyweb\\models\\globales.py", line 5, in <module>\nAttributeError: \'NoneType\' object has no attribute \'buscar_palabra\'\n'
p4166
s.