(dp1
S'output'
p2
S"<type 'exceptions.SyntaxError'> invalid syntax (globales.py, line 10)"
p3
sS'layer'
p4
S'D:\\Dise\xf1o Web\\Proyectos\\Parleyweb\\web2py\\applications\\parleyweb\\models\\globales.py'
p5
sS'code'
p6
S'\nformulario_busqueda = SQLFORM(db.busqueda, formstyle=\'divs\', _id="buscar_palabra_parley", submit_button=\'Enviar\')\nif formulario_busqueda.accepts(request.vars, session, dbio=False):\n    redirect(URL(\'default\', \'mostrar\', args=request.post_vars.buscar_palabra))\nelif formulario_busqueda.errors:\n    redirect(URL(\'default\', \'index\')\n   \n### Autocompletar busqueda ###\n#db.busqueda.buscar_palabra.widget = SQLFORM.widgets.autocomplete(\n#     request, db.palabras.palabra, limitby=(0,10), min_length=2)\n\n\n'
p7
sS'snapshot'
p8
(dp9
S'exception'
p10
(dp11
S'__getslice__'
p12
S"<method-wrapper '__getslice__' of exceptions.SyntaxError object at 0x073661F0>"
p13
sS'text'
p14
S"'#     request, db.palabras.palabra, limitby=(0,10), min_length=2)\\n'"
p15
sS'__str__'
p16
S"<method-wrapper '__str__' of exceptions.SyntaxError object at 0x073661F0>"
p17
sS'__reduce__'
p18
S'<built-in method __reduce__ of exceptions.SyntaxError object at 0x073661F0>'
p19
sS'__dict__'
p20
S'{}'
p21
sS'__init__'
p22
S"<method-wrapper '__init__' of exceptions.SyntaxError object at 0x073661F0>"
p23
sS'__setattr__'
p24
S"<method-wrapper '__setattr__' of exceptions.SyntaxError object at 0x073661F0>"
p25
sS'__reduce_ex__'
p26
S'<built-in method __reduce_ex__ of exceptions.SyntaxError object at 0x073661F0>'
p27
sS'__new__'
p28
S'<built-in method __new__ of type object at 0x1E1CDBD0>'
p29
sS'__class__'
p30
S"<type 'exceptions.SyntaxError'>"
p31
sS'filename'
p32
S"'D:\\\\Dise\\xf1o Web\\\\Proyectos\\\\Parleyweb\\\\web2py\\\\applications\\\\parleyweb\\\\models\\\\globales.py'"
p33
sS'lineno'
p34
S'10'
p35
sS'msg'
p36
S"'invalid syntax'"
p37
sS'__doc__'
p38
S"'Invalid syntax.'"
p39
sS'__getitem__'
p40
S"<method-wrapper '__getitem__' of exceptions.SyntaxError object at 0x073661F0>"
p41
sS'__setstate__'
p42
S'<built-in method __setstate__ of exceptions.SyntaxError object at 0x073661F0>'
p43
sS'__getattribute__'
p44
S"<method-wrapper '__getattribute__' of exceptions.SyntaxError object at 0x073661F0>"
p45
sS'print_file_and_line'
p46
S'None'
p47
sS'args'
p48
S"('invalid syntax', ('D:\\\\Dise\\xf1o Web\\\\Proyectos\\\\Parleyweb\\\\web2py\\\\applications\\\\parleyweb\\\\models\\\\globales.py', 10, 66, '#     request, db.palabras.palabra, limitby=(0,10), min_length=2)\\n'))"
p49
sS'offset'
p50
S'66'
p51
sS'__delattr__'
p52
S"<method-wrapper '__delattr__' of exceptions.SyntaxError object at 0x073661F0>"
p53
sS'__repr__'
p54
S"<method-wrapper '__repr__' of exceptions.SyntaxError object at 0x073661F0>"
p55
sS'__hash__'
p56
S"<method-wrapper '__hash__' of exceptions.SyntaxError object at 0x073661F0>"
p57
ssS'evalue'
p58
S'invalid syntax (globales.py, line 10)'
p59
sS'request'
p60
ccopy_reg
_reconstructor
p61
(cgluon.html
BEAUTIFY
p62
c__builtin__
object
p63
NtRp64
(dp65
S'attributes'
p66
(dp67
sS'components'
p68
(lp69
g61
(cgluon.html
TABLE
p70
g63
NtRp71
(dp72
g66
(dp73
S'level'
p74
I5
ssS'parent'
p75
Nsg68
(lp76
g61
(cgluon.html
TR
p77
g63
NtRp78
(dp79
g66
(dp80
sg75
g71
sg68
(lp81
g61
(cgluon.html
TD
p82
g63
NtRp83
(dp84
g66
(dp85
S'_style'
p86
S'font-weight:bold;vertical-align:top'
p87
ssg75
g78
sg68
(lp88
S'ajax'
p89
asbag61
(g82
g63
NtRp90
(dp91
g66
(dp92
S'_valign'
p93
S'top'
p94
ssg75
g78
sg68
(lp95
S':'
asbag61
(g82
g63
NtRp96
(dp97
g66
(dp98
sg75
g78
sg68
(lp99
g61
(g62
g63
NtRp100
(dp101
g66
(dp102
g74
I5
ssg75
g96
sg68
(lp103
S'False'
p104
asbasbasbag61
(g77
g63
NtRp105
(dp106
g66
(dp107
sg75
g71
sg68
(lp108
g61
(g82
g63
NtRp109
(dp110
g66
(dp111
g86
g87
ssg75
g105
sg68
(lp112
S'application'
p113
asbag61
(g82
g63
NtRp114
(dp115
g66
(dp116
g93
g94
ssg75
g105
sg68
(lp117
S':'
asbag61
(g82
g63
NtRp118
(dp119
g66
(dp120
sg75
g105
sg68
(lp121
g61
(g62
g63
NtRp122
(dp123
g66
(dp124
g74
I5
ssg75
g118
sg68
(lp125
S'parleyweb'
p126
asbasbasbag61
(g77
g63
NtRp127
(dp128
g66
(dp129
sg75
g71
sg68
(lp130
g61
(g82
g63
NtRp131
(dp132
g66
(dp133
g86
g87
ssg75
g127
sg68
(lp134
g48
asbag61
(g82
g63
NtRp135
(dp136
g66
(dp137
g93
g94
ssg75
g127
sg68
(lp138
S':'
asbag61
(g82
g63
NtRp139
(dp140
g66
(dp141
sg75
g127
sg68
(lp142
g61
(g62
g63
NtRp143
(dp144
g66
(dp145
g74
I5
ssg75
g139
sg68
(lp146
g61
(g70
g63
NtRp147
(dp148
g66
(dp149
g74
I4
ssg75
Nsg68
(lp150
sbasbasbasbag61
(g77
g63
NtRp151
(dp152
g66
(dp153
sg75
g71
sg68
(lp154
g61
(g82
g63
NtRp155
(dp156
g66
(dp157
g86
g87
ssg75
g151
sg68
(lp158
S'body'
p159
asbag61
(g82
g63
NtRp160
(dp161
g66
(dp162
g93
g94
ssg75
g151
sg68
(lp163
S':'
asbag61
(g82
g63
NtRp164
(dp165
g66
(dp166
sg75
g151
sg68
(lp167
g61
(g62
g63
NtRp168
(dp169
g66
(dp170
g74
I5
ssg75
g164
sg68
(lp171
S'<cStringIO.StringO object at 0x07BB7480>'
p172
asbasbasbag61
(g77
g63
NtRp173
(dp174
g66
(dp175
sg75
g71
sg68
(lp176
g61
(g82
g63
NtRp177
(dp178
g66
(dp179
g86
g87
ssg75
g173
sg68
(lp180
S'client'
p181
asbag61
(g82
g63
NtRp182
(dp183
g66
(dp184
g93
g94
ssg75
g173
sg68
(lp185
S':'
asbag61
(g82
g63
NtRp186
(dp187
g66
(dp188
sg75
g173
sg68
(lp189
g61
(g62
g63
NtRp190
(dp191
g66
(dp192
g74
I5
ssg75
g186
sg68
(lp193
S'127.0.0.1'
p194
asbasbasbag61
(g77
g63
NtRp195
(dp196
g66
(dp197
sg75
g71
sg68
(lp198
g61
(g82
g63
NtRp199
(dp200
g66
(dp201
g86
g87
ssg75
g195
sg68
(lp202
S'controller'
p203
asbag61
(g82
g63
NtRp204
(dp205
g66
(dp206
g93
g94
ssg75
g195
sg68
(lp207
S':'
asbag61
(g82
g63
NtRp208
(dp209
g66
(dp210
sg75
g195
sg68
(lp211
g61
(g62
g63
NtRp212
(dp213
g66
(dp214
g74
I5
ssg75
g208
sg68
(lp215
S'admin'
p216
asbasbasbag61
(g77
g63
NtRp217
(dp218
g66
(dp219
sg75
g71
sg68
(lp220
g61
(g82
g63
NtRp221
(dp222
g66
(dp223
g86
g87
ssg75
g217
sg68
(lp224
S'cookies'
p225
asbag61
(g82
g63
NtRp226
(dp227
g66
(dp228
g93
g94
ssg75
g217
sg68
(lp229
S':'
asbag61
(g82
g63
NtRp230
(dp231
g66
(dp232
sg75
g217
sg68
(lp233
g61
(g62
g63
NtRp234
(dp235
g66
(dp236
g74
I5
ssg75
g230
sg68
(lp237
g61
(g70
g63
NtRp238
(dp239
g66
(dp240
g74
I4
ssg75
Nsg68
(lp241
g61
(g77
g63
NtRp242
(dp243
g66
(dp244
sg75
g238
sg68
(lp245
g61
(g82
g63
NtRp246
(dp247
g66
(dp248
g86
g87
ssg75
g242
sg68
(lp249
S'session_id_admin'
p250
asbag61
(g82
g63
NtRp251
(dp252
g66
(dp253
g93
g94
ssg75
g242
sg68
(lp254
S':'
asbag61
(g82
g63
NtRp255
(dp256
g66
(dp257
sg75
g242
sg68
(lp258
g61
(g62
g63
NtRp259
(dp260
g66
(dp261
g74
I4
ssg75
g255
sg68
(lp262
g61
(g70
g63
NtRp263
(dp264
g66
(dp265
g74
I3
ssg75
Nsg68
(lp266
g61
(g77
g63
NtRp267
(dp268
g66
(dp269
sg75
g263
sg68
(lp270
g61
(g82
g63
NtRp271
(dp272
g66
(dp273
g86
g87
ssg75
g267
sg68
(lp274
S'comment'
p275
asbag61
(g82
g63
NtRp276
(dp277
g66
(dp278
g93
g94
ssg75
g267
sg68
(lp279
S':'
asbag61
(g82
g63
NtRp280
(dp281
g66
(dp282
sg75
g267
sg68
(lp283
g61
(g62
g63
NtRp284
(dp285
g66
(dp286
g74
I3
ssg75
g280
sg68
(lp287
S''
asbasbasbag61
(g77
g63
NtRp288
(dp289
g66
(dp290
sg75
g263
sg68
(lp291
g61
(g82
g63
NtRp292
(dp293
g66
(dp294
g86
g87
ssg75
g288
sg68
(lp295
S'domain'
p296
asbag61
(g82
g63
NtRp297
(dp298
g66
(dp299
g93
g94
ssg75
g288
sg68
(lp300
S':'
asbag61
(g82
g63
NtRp301
(dp302
g66
(dp303
sg75
g288
sg68
(lp304
g61
(g62
g63
NtRp305
(dp306
g66
(dp307
g74
I3
ssg75
g301
sg68
(lp308
S''
asbasbasbag61
(g77
g63
NtRp309
(dp310
g66
(dp311
sg75
g263
sg68
(lp312
g61
(g82
g63
NtRp313
(dp314
g66
(dp315
g86
g87
ssg75
g309
sg68
(lp316
S'expires'
p317
asbag61
(g82
g63
NtRp318
(dp319
g66
(dp320
g93
g94
ssg75
g309
sg68
(lp321
S':'
asbag61
(g82
g63
NtRp322
(dp323
g66
(dp324
sg75
g309
sg68
(lp325
g61
(g62
g63
NtRp326
(dp327
g66
(dp328
g74
I3
ssg75
g322
sg68
(lp329
S''
asbasbasbag61
(g77
g63
NtRp330
(dp331
g66
(dp332
sg75
g263
sg68
(lp333
g61
(g82
g63
NtRp334
(dp335
g66
(dp336
g86
g87
ssg75
g330
sg68
(lp337
S'max-age'
p338
asbag61
(g82
g63
NtRp339
(dp340
g66
(dp341
g93
g94
ssg75
g330
sg68
(lp342
S':'
asbag61
(g82
g63
NtRp343
(dp344
g66
(dp345
sg75
g330
sg68
(lp346
g61
(g62
g63
NtRp347
(dp348
g66
(dp349
g74
I3
ssg75
g343
sg68
(lp350
S''
asbasbasbag61
(g77
g63
NtRp351
(dp352
g66
(dp353
sg75
g263
sg68
(lp354
g61
(g82
g63
NtRp355
(dp356
g66
(dp357
g86
g87
ssg75
g351
sg68
(lp358
S'path'
p359
asbag61
(g82
g63
NtRp360
(dp361
g66
(dp362
g93
g94
ssg75
g351
sg68
(lp363
S':'
asbag61
(g82
g63
NtRp364
(dp365
g66
(dp366
sg75
g351
sg68
(lp367
g61
(g62
g63
NtRp368
(dp369
g66
(dp370
g74
I3
ssg75
g364
sg68
(lp371
S''
asbasbasbag61
(g77
g63
NtRp372
(dp373
g66
(dp374
sg75
g263
sg68
(lp375
g61
(g82
g63
NtRp376
(dp377
g66
(dp378
g86
g87
ssg75
g372
sg68
(lp379
S'secure'
p380
asbag61
(g82
g63
NtRp381
(dp382
g66
(dp383
g93
g94
ssg75
g372
sg68
(lp384
S':'
asbag61
(g82
g63
NtRp385
(dp386
g66
(dp387
sg75
g372
sg68
(lp388
g61
(g62
g63
NtRp389
(dp390
g66
(dp391
g74
I3
ssg75
g385
sg68
(lp392
S''
asbasbasbag61
(g77
g63
NtRp393
(dp394
g66
(dp395
sg75
g263
sg68
(lp396
g61
(g82
g63
NtRp397
(dp398
g66
(dp399
g86
g87
ssg75
g393
sg68
(lp400
S'version'
p401
asbag61
(g82
g63
NtRp402
(dp403
g66
(dp404
g93
g94
ssg75
g393
sg68
(lp405
S':'
asbag61
(g82
g63
NtRp406
(dp407
g66
(dp408
sg75
g393
sg68
(lp409
g61
(g62
g63
NtRp410
(dp411
g66
(dp412
g74
I3
ssg75
g406
sg68
(lp413
S''
asbasbasbasbasbasbasbag61
(g77
g63
NtRp414
(dp415
g66
(dp416
sg75
g238
sg68
(lp417
g61
(g82
g63
NtRp418
(dp419
g66
(dp420
g86
g87
ssg75
g414
sg68
(lp421
S'session_id_parleyweb'
p422
asbag61
(g82
g63
NtRp423
(dp424
g66
(dp425
g93
g94
ssg75
g414
sg68
(lp426
S':'
asbag61
(g82
g63
NtRp427
(dp428
g66
(dp429
sg75
g414
sg68
(lp430
g61
(g62
g63
NtRp431
(dp432
g66
(dp433
g74
I4
ssg75
g427
sg68
(lp434
g61
(g70
g63
NtRp435
(dp436
g66
(dp437
g74
I3
ssg75
Nsg68
(lp438
g61
(g77
g63
NtRp439
(dp440
g66
(dp441
sg75
g435
sg68
(lp442
g61
(g82
g63
NtRp443
(dp444
g66
(dp445
g86
g87
ssg75
g439
sg68
(lp446
g275
asbag61
(g82
g63
NtRp447
(dp448
g66
(dp449
g93
g94
ssg75
g439
sg68
(lp450
S':'
asbag61
(g82
g63
NtRp451
(dp452
g66
(dp453
sg75
g439
sg68
(lp454
g61
(g62
g63
NtRp455
(dp456
g66
(dp457
g74
I3
ssg75
g451
sg68
(lp458
S''
asbasbasbag61
(g77
g63
NtRp459
(dp460
g66
(dp461
sg75
g435
sg68
(lp462
g61
(g82
g63
NtRp463
(dp464
g66
(dp465
g86
g87
ssg75
g459
sg68
(lp466
g296
asbag61
(g82
g63
NtRp467
(dp468
g66
(dp469
g93
g94
ssg75
g459
sg68
(lp470
S':'
asbag61
(g82
g63
NtRp471
(dp472
g66
(dp473
sg75
g459
sg68
(lp474
g61
(g62
g63
NtRp475
(dp476
g66
(dp477
g74
I3
ssg75
g471
sg68
(lp478
S''
asbasbasbag61
(g77
g63
NtRp479
(dp480
g66
(dp481
sg75
g435
sg68
(lp482
g61
(g82
g63
NtRp483
(dp484
g66
(dp485
g86
g87
ssg75
g479
sg68
(lp486
g317
asbag61
(g82
g63
NtRp487
(dp488
g66
(dp489
g93
g94
ssg75
g479
sg68
(lp490
S':'
asbag61
(g82
g63
NtRp491
(dp492
g66
(dp493
sg75
g479
sg68
(lp494
g61
(g62
g63
NtRp495
(dp496
g66
(dp497
g74
I3
ssg75
g491
sg68
(lp498
S''
asbasbasbag61
(g77
g63
NtRp499
(dp500
g66
(dp501
sg75
g435
sg68
(lp502
g61
(g82
g63
NtRp503
(dp504
g66
(dp505
g86
g87
ssg75
g499
sg68
(lp506
g338
asbag61
(g82
g63
NtRp507
(dp508
g66
(dp509
g93
g94
ssg75
g499
sg68
(lp510
S':'
asbag61
(g82
g63
NtRp511
(dp512
g66
(dp513
sg75
g499
sg68
(lp514
g61
(g62
g63
NtRp515
(dp516
g66
(dp517
g74
I3
ssg75
g511
sg68
(lp518
S''
asbasbasbag61
(g77
g63
NtRp519
(dp520
g66
(dp521
sg75
g435
sg68
(lp522
g61
(g82
g63
NtRp523
(dp524
g66
(dp525
g86
g87
ssg75
g519
sg68
(lp526
g359
asbag61
(g82
g63
NtRp527
(dp528
g66
(dp529
g93
g94
ssg75
g519
sg68
(lp530
S':'
asbag61
(g82
g63
NtRp531
(dp532
g66
(dp533
sg75
g519
sg68
(lp534
g61
(g62
g63
NtRp535
(dp536
g66
(dp537
g74
I3
ssg75
g531
sg68
(lp538
S''
asbasbasbag61
(g77
g63
NtRp539
(dp540
g66
(dp541
sg75
g435
sg68
(lp542
g61
(g82
g63
NtRp543
(dp544
g66
(dp545
g86
g87
ssg75
g539
sg68
(lp546
g380
asbag61
(g82
g63
NtRp547
(dp548
g66
(dp549
g93
g94
ssg75
g539
sg68
(lp550
S':'
asbag61
(g82
g63
NtRp551
(dp552
g66
(dp553
sg75
g539
sg68
(lp554
g61
(g62
g63
NtRp555
(dp556
g66
(dp557
g74
I3
ssg75
g551
sg68
(lp558
S''
asbasbasbag61
(g77
g63
NtRp559
(dp560
g66
(dp561
sg75
g435
sg68
(lp562
g61
(g82
g63
NtRp563
(dp564
g66
(dp565
g86
g87
ssg75
g559
sg68
(lp566
g401
asbag61
(g82
g63
NtRp567
(dp568
g66
(dp569
g93
g94
ssg75
g559
sg68
(lp570
S':'
asbag61
(g82
g63
NtRp571
(dp572
g66
(dp573
sg75
g559
sg68
(lp574
g61
(g62
g63
NtRp575
(dp576
g66
(dp577
g74
I3
ssg75
g571
sg68
(lp578
S''
asbasbasbasbasbasbasbag61
(g77
g63
NtRp579
(dp580
g66
(dp581
sg75
g238
sg68
(lp582
g61
(g82
g63
NtRp583
(dp584
g66
(dp585
g86
g87
ssg75
g579
sg68
(lp586
S'session_id_welcome'
p587
asbag61
(g82
g63
NtRp588
(dp589
g66
(dp590
g93
g94
ssg75
g579
sg68
(lp591
S':'
asbag61
(g82
g63
NtRp592
(dp593
g66
(dp594
sg75
g579
sg68
(lp595
g61
(g62
g63
NtRp596
(dp597
g66
(dp598
g74
I4
ssg75
g592
sg68
(lp599
g61
(g70
g63
NtRp600
(dp601
g66
(dp602
g74
I3
ssg75
Nsg68
(lp603
g61
(g77
g63
NtRp604
(dp605
g66
(dp606
sg75
g600
sg68
(lp607
g61
(g82
g63
NtRp608
(dp609
g66
(dp610
g86
g87
ssg75
g604
sg68
(lp611
g275
asbag61
(g82
g63
NtRp612
(dp613
g66
(dp614
g93
g94
ssg75
g604
sg68
(lp615
S':'
asbag61
(g82
g63
NtRp616
(dp617
g66
(dp618
sg75
g604
sg68
(lp619
g61
(g62
g63
NtRp620
(dp621
g66
(dp622
g74
I3
ssg75
g616
sg68
(lp623
S''
asbasbasbag61
(g77
g63
NtRp624
(dp625
g66
(dp626
sg75
g600
sg68
(lp627
g61
(g82
g63
NtRp628
(dp629
g66
(dp630
g86
g87
ssg75
g624
sg68
(lp631
g296
asbag61
(g82
g63
NtRp632
(dp633
g66
(dp634
g93
g94
ssg75
g624
sg68
(lp635
S':'
asbag61
(g82
g63
NtRp636
(dp637
g66
(dp638
sg75
g624
sg68
(lp639
g61
(g62
g63
NtRp640
(dp641
g66
(dp642
g74
I3
ssg75
g636
sg68
(lp643
S''
asbasbasbag61
(g77
g63
NtRp644
(dp645
g66
(dp646
sg75
g600
sg68
(lp647
g61
(g82
g63
NtRp648
(dp649
g66
(dp650
g86
g87
ssg75
g644
sg68
(lp651
g317
asbag61
(g82
g63
NtRp652
(dp653
g66
(dp654
g93
g94
ssg75
g644
sg68
(lp655
S':'
asbag61
(g82
g63
NtRp656
(dp657
g66
(dp658
sg75
g644
sg68
(lp659
g61
(g62
g63
NtRp660
(dp661
g66
(dp662
g74
I3
ssg75
g656
sg68
(lp663
S''
asbasbasbag61
(g77
g63
NtRp664
(dp665
g66
(dp666
sg75
g600
sg68
(lp667
g61
(g82
g63
NtRp668
(dp669
g66
(dp670
g86
g87
ssg75
g664
sg68
(lp671
g338
asbag61
(g82
g63
NtRp672
(dp673
g66
(dp674
g93
g94
ssg75
g664
sg68
(lp675
S':'
asbag61
(g82
g63
NtRp676
(dp677
g66
(dp678
sg75
g664
sg68
(lp679
g61
(g62
g63
NtRp680
(dp681
g66
(dp682
g74
I3
ssg75
g676
sg68
(lp683
S''
asbasbasbag61
(g77
g63
NtRp684
(dp685
g66
(dp686
sg75
g600
sg68
(lp687
g61
(g82
g63
NtRp688
(dp689
g66
(dp690
g86
g87
ssg75
g684
sg68
(lp691
g359
asbag61
(g82
g63
NtRp692
(dp693
g66
(dp694
g93
g94
ssg75
g684
sg68
(lp695
S':'
asbag61
(g82
g63
NtRp696
(dp697
g66
(dp698
sg75
g684
sg68
(lp699
g61
(g62
g63
NtRp700
(dp701
g66
(dp702
g74
I3
ssg75
g696
sg68
(lp703
S''
asbasbasbag61
(g77
g63
NtRp704
(dp705
g66
(dp706
sg75
g600
sg68
(lp707
g61
(g82
g63
NtRp708
(dp709
g66
(dp710
g86
g87
ssg75
g704
sg68
(lp711
g380
asbag61
(g82
g63
NtRp712
(dp713
g66
(dp714
g93
g94
ssg75
g704
sg68
(lp715
S':'
asbag61
(g82
g63
NtRp716
(dp717
g66
(dp718
sg75
g704
sg68
(lp719
g61
(g62
g63
NtRp720
(dp721
g66
(dp722
g74
I3
ssg75
g716
sg68
(lp723
S''
asbasbasbag61
(g77
g63
NtRp724
(dp725
g66
(dp726
sg75
g600
sg68
(lp727
g61
(g82
g63
NtRp728
(dp729
g66
(dp730
g86
g87
ssg75
g724
sg68
(lp731
g401
asbag61
(g82
g63
NtRp732
(dp733
g66
(dp734
g93
g94
ssg75
g724
sg68
(lp735
S':'
asbag61
(g82
g63
NtRp736
(dp737
g66
(dp738
sg75
g724
sg68
(lp739
g61
(g62
g63
NtRp740
(dp741
g66
(dp742
g74
I3
ssg75
g736
sg68
(lp743
S''
asbasbasbasbasbasbasbasbasbasbasbag61
(g77
g63
NtRp744
(dp745
g66
(dp746
sg75
g71
sg68
(lp747
g61
(g82
g63
NtRp748
(dp749
g66
(dp750
g86
g87
ssg75
g744
sg68
(lp751
S'env'
p752
asbag61
(g82
g63
NtRp753
(dp754
g66
(dp755
g93
g94
ssg75
g744
sg68
(lp756
S':'
asbag61
(g82
g63
NtRp757
(dp758
g66
(dp759
sg75
g744
sg68
(lp760
g61
(g62
g63
NtRp761
(dp762
g66
(dp763
g74
I5
ssg75
g757
sg68
(lp764
g61
(g70
g63
NtRp765
(dp766
g66
(dp767
g74
I4
ssg75
Nsg68
(lp768
g61
(g77
g63
NtRp769
(dp770
g66
(dp771
sg75
g765
sg68
(lp772
g61
(g82
g63
NtRp773
(dp774
g66
(dp775
g86
g87
ssg75
g769
sg68
(lp776
S'app_folders'
p777
asbag61
(g82
g63
NtRp778
(dp779
g66
(dp780
g93
g94
ssg75
g769
sg68
(lp781
S':'
asbag61
(g82
g63
NtRp782
(dp783
g66
(dp784
sg75
g769
sg68
(lp785
g61
(g62
g63
NtRp786
(dp787
g66
(dp788
g74
I4
ssg75
g782
sg68
(lp789
S"set(['D:\\\\Dise\\xf1o Web\\\\Proyectos\\\\Parleyweb\\\\web2py\\\\applications\\\\parleyweb\\\\', 'D:\\\\Dise\\xf1o Web\\\\Proyectos\\\\Parleyweb\\\\web2py\\\\applications\\\\welcome\\\\', 'D:\\\\Dise\\xf1o Web\\\\Proyectos\\\\Parleyweb\\\\web2py\\\\applications\\\\admin\\\\'])"
p790
asbasbasbag61
(g77
g63
NtRp791
(dp792
g66
(dp793
sg75
g765
sg68
(lp794
g61
(g82
g63
NtRp795
(dp796
g66
(dp797
g86
g87
ssg75
g791
sg68
(lp798
S'applications_parent'
p799
asbag61
(g82
g63
NtRp800
(dp801
g66
(dp802
g93
g94
ssg75
g791
sg68
(lp803
S':'
asbag61
(g82
g63
NtRp804
(dp805
g66
(dp806
sg75
g791
sg68
(lp807
g61
(g62
g63
NtRp808
(dp809
g66
(dp810
g74
I4
ssg75
g804
sg68
(lp811
S'D:\\Dise\xf1o Web\\Proyectos\\Parleyweb\\web2py'
p812
asbasbasbag61
(g77
g63
NtRp813
(dp814
g66
(dp815
sg75
g765
sg68
(lp816
g61
(g82
g63
NtRp817
(dp818
g66
(dp819
g86
g87
ssg75
g813
sg68
(lp820
S'cmd_args'
p821
asbag61
(g82
g63
NtRp822
(dp823
g66
(dp824
g93
g94
ssg75
g813
sg68
(lp825
S':'
asbag61
(g82
g63
NtRp826
(dp827
g66
(dp828
sg75
g813
sg68
(lp829
g61
(g62
g63
NtRp830
(dp831
g66
(dp832
g74
I4
ssg75
g826
sg68
(lp833
g61
(g70
g63
NtRp834
(dp835
g66
(dp836
g74
I3
ssg75
Nsg68
(lp837
sbasbasbasbag61
(g77
g63
NtRp838
(dp839
g66
(dp840
sg75
g765
sg68
(lp841
g61
(g82
g63
NtRp842
(dp843
g66
(dp844
g86
g87
ssg75
g838
sg68
(lp845
S'cmd_options'
p846
asbag61
(g82
g63
NtRp847
(dp848
g66
(dp849
g93
g94
ssg75
g838
sg68
(lp850
S':'
asbag61
(g82
g63
NtRp851
(dp852
g66
(dp853
sg75
g838
sg68
(lp854
g61
(g62
g63
NtRp855
(dp856
g66
(dp857
g74
I4
ssg75
g851
sg68
(lp858
S"<Values at 0x3110f30: {'verbose': False, 'ip': '127.0.0.1', 'shutdown_timeout': 5, 'taskbar': False, 'nocron': False, 'pid_filename': 'httpserver.pid', 'maxthreads': None, 'softcron': False, 'server_name': 'craxsnet-PC', 'bpython': False, 'nogui': False, 'port': 8000, 'extcron': False, 'debuglevel': 30, 'test': None, 'folder': 'D:\\\\Dise\\xf1o Web\\\\Proyectos\\\\Parleyweb\\\\web2py', 'config': '', 'import_models': False, 'winservice': '', 'shell': None, 'run': '', 'log_filename': 'httpserver.log', 'args': [''], 'socket_timeout': 5, 'ssl_ca_certificate': None, 'scheduler': None, 'profiler_filename': None, 'ssl_private_key': '', 'password': '<ask>', 'request_queue_size': 5, 'ssl_certificate': '', 'cronjob': False, 'numthreads': None, 'quiet': False, 'interfaces': None, 'minthreads': None, 'timeout': 10, 'plain': False, 'nobanner': False}>"
p859
asbasbasbag61
(g77
g63
NtRp860
(dp861
g66
(dp862
sg75
g765
sg68
(lp863
g61
(g82
g63
NtRp864
(dp865
g66
(dp866
g86
g87
ssg75
g860
sg68
(lp867
S'db_sessions'
p868
asbag61
(g82
g63
NtRp869
(dp870
g66
(dp871
g93
g94
ssg75
g860
sg68
(lp872
S':'
asbag61
(g82
g63
NtRp873
(dp874
g66
(dp875
sg75
g860
sg68
(lp876
g61
(g62
g63
NtRp877
(dp878
g66
(dp879
g74
I4
ssg75
g873
sg68
(lp880
S'set([])'
p881
asbasbasbag61
(g77
g63
NtRp882
(dp883
g66
(dp884
sg75
g765
sg68
(lp885
g61
(g82
g63
NtRp886
(dp887
g66
(dp888
g86
g87
ssg75
g882
sg68
(lp889
S'debugging'
p890
asbag61
(g82
g63
NtRp891
(dp892
g66
(dp893
g93
g94
ssg75
g882
sg68
(lp894
S':'
asbag61
(g82
g63
NtRp895
(dp896
g66
(dp897
sg75
g882
sg68
(lp898
g61
(g62
g63
NtRp899
(dp900
g66
(dp901
g74
I4
ssg75
g895
sg68
(lp902
g104
asbasbasbag61
(g77
g63
NtRp903
(dp904
g66
(dp905
sg75
g765
sg68
(lp906
g61
(g82
g63
NtRp907
(dp908
g66
(dp909
g86
g87
ssg75
g903
sg68
(lp910
S'gluon_parent'
p911
asbag61
(g82
g63
NtRp912
(dp913
g66
(dp914
g93
g94
ssg75
g903
sg68
(lp915
S':'
asbag61
(g82
g63
NtRp916
(dp917
g66
(dp918
sg75
g903
sg68
(lp919
g61
(g62
g63
NtRp920
(dp921
g66
(dp922
g74
I4
ssg75
g916
sg68
(lp923
S'D:\\Dise\xf1o Web\\Proyectos\\Parleyweb\\web2py'
p924
asbasbasbag61
(g77
g63
NtRp925
(dp926
g66
(dp927
sg75
g765
sg68
(lp928
g61
(g82
g63
NtRp929
(dp930
g66
(dp931
g86
g87
ssg75
g925
sg68
(lp932
S'http_accept'
p933
asbag61
(g82
g63
NtRp934
(dp935
g66
(dp936
g93
g94
ssg75
g925
sg68
(lp937
S':'
asbag61
(g82
g63
NtRp938
(dp939
g66
(dp940
sg75
g925
sg68
(lp941
g61
(g62
g63
NtRp942
(dp943
g66
(dp944
g74
I4
ssg75
g938
sg68
(lp945
S'text/html,application/xhtml+xml,application/xml;q=0.9,*/*;q=0.8'
p946
asbasbasbag61
(g77
g63
NtRp947
(dp948
g66
(dp949
sg75
g765
sg68
(lp950
g61
(g82
g63
NtRp951
(dp952
g66
(dp953
g86
g87
ssg75
g947
sg68
(lp954
S'http_accept_encoding'
p955
asbag61
(g82
g63
NtRp956
(dp957
g66
(dp958
g93
g94
ssg75
g947
sg68
(lp959
S':'
asbag61
(g82
g63
NtRp960
(dp961
g66
(dp962
sg75
g947
sg68
(lp963
g61
(g62
g63
NtRp964
(dp965
g66
(dp966
g74
I4
ssg75
g960
sg68
(lp967
S'gzip, deflate'
p968
asbasbasbag61
(g77
g63
NtRp969
(dp970
g66
(dp971
sg75
g765
sg68
(lp972
g61
(g82
g63
NtRp973
(dp974
g66
(dp975
g86
g87
ssg75
g969
sg68
(lp976
S'http_accept_language'
p977
asbag61
(g82
g63
NtRp978
(dp979
g66
(dp980
g93
g94
ssg75
g969
sg68
(lp981
S':'
asbag61
(g82
g63
NtRp982
(dp983
g66
(dp984
sg75
g969
sg68
(lp985
g61
(g62
g63
NtRp986
(dp987
g66
(dp988
g74
I4
ssg75
g982
sg68
(lp989
S'es-es,de-de;q=0.8,es;q=0.6,en-us;q=0.4,en;q=0.2'
p990
asbasbasbag61
(g77
g63
NtRp991
(dp992
g66
(dp993
sg75
g765
sg68
(lp994
g61
(g82
g63
NtRp995
(dp996
g66
(dp997
g86
g87
ssg75
g991
sg68
(lp998
S'http_connection'
p999
asbag61
(g82
g63
NtRp1000
(dp1001
g66
(dp1002
g93
g94
ssg75
g991
sg68
(lp1003
S':'
asbag61
(g82
g63
NtRp1004
(dp1005
g66
(dp1006
sg75
g991
sg68
(lp1007
g61
(g62
g63
NtRp1008
(dp1009
g66
(dp1010
g74
I4
ssg75
g1004
sg68
(lp1011
S'keep-alive'
p1012
asbasbasbag61
(g77
g63
NtRp1013
(dp1014
g66
(dp1015
sg75
g765
sg68
(lp1016
g61
(g82
g63
NtRp1017
(dp1018
g66
(dp1019
g86
g87
ssg75
g1013
sg68
(lp1020
S'http_cookie'
p1021
asbag61
(g82
g63
NtRp1022
(dp1023
g66
(dp1024
g93
g94
ssg75
g1013
sg68
(lp1025
S':'
asbag61
(g82
g63
NtRp1026
(dp1027
g66
(dp1028
sg75
g1013
sg68
(lp1029
g61
(g62
g63
NtRp1030
(dp1031
g66
(dp1032
g74
I4
ssg75
g1026
sg68
(lp1033
S'__utma=96992031.26429765.1325029743.1325029743.1326549329.2; __utmz=96992031.1325029743.1.1.utmcsr=(direct)|utmccn=(direct)|utmcmd=(none); session_id_welcome=127.0.0.1-644b7da8-0d4f-4bbf-b94b-66f6992adfc8; session_id_parleyweb=127.0.0.1-0780c0c1-affd-425a-affb-ac061c4961c7; session_id_admin=127.0.0.1-532b2264-f480-4135-a7d5-01c72ef908a1'
p1034
asbasbasbag61
(g77
g63
NtRp1035
(dp1036
g66
(dp1037
sg75
g765
sg68
(lp1038
g61
(g82
g63
NtRp1039
(dp1040
g66
(dp1041
g86
g87
ssg75
g1035
sg68
(lp1042
S'http_host'
p1043
asbag61
(g82
g63
NtRp1044
(dp1045
g66
(dp1046
g93
g94
ssg75
g1035
sg68
(lp1047
S':'
asbag61
(g82
g63
NtRp1048
(dp1049
g66
(dp1050
sg75
g1035
sg68
(lp1051
g61
(g62
g63
NtRp1052
(dp1053
g66
(dp1054
g74
I4
ssg75
g1048
sg68
(lp1055
S'127.0.0.1:8000'
p1056
asbasbasbag61
(g77
g63
NtRp1057
(dp1058
g66
(dp1059
sg75
g765
sg68
(lp1060
g61
(g82
g63
NtRp1061
(dp1062
g66
(dp1063
g86
g87
ssg75
g1057
sg68
(lp1064
S'http_referer'
p1065
asbag61
(g82
g63
NtRp1066
(dp1067
g66
(dp1068
g93
g94
ssg75
g1057
sg68
(lp1069
S':'
asbag61
(g82
g63
NtRp1070
(dp1071
g66
(dp1072
sg75
g1057
sg68
(lp1073
g61
(g62
g63
NtRp1074
(dp1075
g66
(dp1076
g74
I4
ssg75
g1070
sg68
(lp1077
S'http://127.0.0.1:8000/parleyweb/default/mostrar/82'
p1078
asbasbasbag61
(g77
g63
NtRp1079
(dp1080
g66
(dp1081
sg75
g765
sg68
(lp1082
g61
(g82
g63
NtRp1083
(dp1084
g66
(dp1085
g86
g87
ssg75
g1079
sg68
(lp1086
S'http_user_agent'
p1087
asbag61
(g82
g63
NtRp1088
(dp1089
g66
(dp1090
g93
g94
ssg75
g1079
sg68
(lp1091
S':'
asbag61
(g82
g63
NtRp1092
(dp1093
g66
(dp1094
sg75
g1079
sg68
(lp1095
g61
(g62
g63
NtRp1096
(dp1097
g66
(dp1098
g74
I4
ssg75
g1092
sg68
(lp1099
S'Mozilla/5.0 (Windows NT 6.1; WOW64; rv:11.0) Gecko/20100101 Firefox/11.0'
p1100
asbasbasbag61
(g77
g63
NtRp1101
(dp1102
g66
(dp1103
sg75
g765
sg68
(lp1104
g61
(g82
g63
NtRp1105
(dp1106
g66
(dp1107
g86
g87
ssg75
g1101
sg68
(lp1108
S'is_jython'
p1109
asbag61
(g82
g63
NtRp1110
(dp1111
g66
(dp1112
g93
g94
ssg75
g1101
sg68
(lp1113
S':'
asbag61
(g82
g63
NtRp1114
(dp1115
g66
(dp1116
sg75
g1101
sg68
(lp1117
g61
(g62
g63
NtRp1118
(dp1119
g66
(dp1120
g74
I4
ssg75
g1114
sg68
(lp1121
g104
asbasbasbag61
(g77
g63
NtRp1122
(dp1123
g66
(dp1124
sg75
g765
sg68
(lp1125
g61
(g82
g63
NtRp1126
(dp1127
g66
(dp1128
g86
g87
ssg75
g1122
sg68
(lp1129
S'is_pypy'
p1130
asbag61
(g82
g63
NtRp1131
(dp1132
g66
(dp1133
g93
g94
ssg75
g1122
sg68
(lp1134
S':'
asbag61
(g82
g63
NtRp1135
(dp1136
g66
(dp1137
sg75
g1122
sg68
(lp1138
g61
(g62
g63
NtRp1139
(dp1140
g66
(dp1141
g74
I4
ssg75
g1135
sg68
(lp1142
g104
asbasbasbag61
(g77
g63
NtRp1143
(dp1144
g66
(dp1145
sg75
g765
sg68
(lp1146
g61
(g82
g63
NtRp1147
(dp1148
g66
(dp1149
g86
g87
ssg75
g1143
sg68
(lp1150
S'path_info'
p1151
asbag61
(g82
g63
NtRp1152
(dp1153
g66
(dp1154
g93
g94
ssg75
g1143
sg68
(lp1155
S':'
asbag61
(g82
g63
NtRp1156
(dp1157
g66
(dp1158
sg75
g1143
sg68
(lp1159
g61
(g62
g63
NtRp1160
(dp1161
g66
(dp1162
g74
I4
ssg75
g1156
sg68
(lp1163
S'/parleyweb/admin/index'
p1164
asbasbasbag61
(g77
g63
NtRp1165
(dp1166
g66
(dp1167
sg75
g765
sg68
(lp1168
g61
(g82
g63
NtRp1169
(dp1170
g66
(dp1171
g86
g87
ssg75
g1165
sg68
(lp1172
S'query_string'
p1173
asbag61
(g82
g63
NtRp1174
(dp1175
g66
(dp1176
g93
g94
ssg75
g1165
sg68
(lp1177
S':'
asbag61
(g82
g63
NtRp1178
(dp1179
g66
(dp1180
sg75
g1165
sg68
(lp1181
g61
(g62
g63
NtRp1182
(dp1183
g66
(dp1184
g74
I4
ssg75
g1178
sg68
(lp1185
S''
asbasbasbag61
(g77
g63
NtRp1186
(dp1187
g66
(dp1188
sg75
g765
sg68
(lp1189
g61
(g82
g63
NtRp1190
(dp1191
g66
(dp1192
g86
g87
ssg75
g1186
sg68
(lp1193
S'remote_addr'
p1194
asbag61
(g82
g63
NtRp1195
(dp1196
g66
(dp1197
g93
g94
ssg75
g1186
sg68
(lp1198
S':'
asbag61
(g82
g63
NtRp1199
(dp1200
g66
(dp1201
sg75
g1186
sg68
(lp1202
g61
(g62
g63
NtRp1203
(dp1204
g66
(dp1205
g74
I4
ssg75
g1199
sg68
(lp1206
g194
asbasbasbag61
(g77
g63
NtRp1207
(dp1208
g66
(dp1209
sg75
g765
sg68
(lp1210
g61
(g82
g63
NtRp1211
(dp1212
g66
(dp1213
g86
g87
ssg75
g1207
sg68
(lp1214
S'remote_port'
p1215
asbag61
(g82
g63
NtRp1216
(dp1217
g66
(dp1218
g93
g94
ssg75
g1207
sg68
(lp1219
S':'
asbag61
(g82
g63
NtRp1220
(dp1221
g66
(dp1222
sg75
g1207
sg68
(lp1223
g61
(g62
g63
NtRp1224
(dp1225
g66
(dp1226
g74
I4
ssg75
g1220
sg68
(lp1227
S'52241'
p1228
asbasbasbag61
(g77
g63
NtRp1229
(dp1230
g66
(dp1231
sg75
g765
sg68
(lp1232
g61
(g82
g63
NtRp1233
(dp1234
g66
(dp1235
g86
g87
ssg75
g1229
sg68
(lp1236
S'request_method'
p1237
asbag61
(g82
g63
NtRp1238
(dp1239
g66
(dp1240
g93
g94
ssg75
g1229
sg68
(lp1241
S':'
asbag61
(g82
g63
NtRp1242
(dp1243
g66
(dp1244
sg75
g1229
sg68
(lp1245
g61
(g62
g63
NtRp1246
(dp1247
g66
(dp1248
g74
I4
ssg75
g1242
sg68
(lp1249
S'GET'
p1250
asbasbasbag61
(g77
g63
NtRp1251
(dp1252
g66
(dp1253
sg75
g765
sg68
(lp1254
g61
(g82
g63
NtRp1255
(dp1256
g66
(dp1257
g86
g87
ssg75
g1251
sg68
(lp1258
S'script_name'
p1259
asbag61
(g82
g63
NtRp1260
(dp1261
g66
(dp1262
g93
g94
ssg75
g1251
sg68
(lp1263
S':'
asbag61
(g82
g63
NtRp1264
(dp1265
g66
(dp1266
sg75
g1251
sg68
(lp1267
g61
(g62
g63
NtRp1268
(dp1269
g66
(dp1270
g74
I4
ssg75
g1264
sg68
(lp1271
S''
asbasbasbag61
(g77
g63
NtRp1272
(dp1273
g66
(dp1274
sg75
g765
sg68
(lp1275
g61
(g82
g63
NtRp1276
(dp1277
g66
(dp1278
g86
g87
ssg75
g1272
sg68
(lp1279
S'server_name'
p1280
asbag61
(g82
g63
NtRp1281
(dp1282
g66
(dp1283
g93
g94
ssg75
g1272
sg68
(lp1284
S':'
asbag61
(g82
g63
NtRp1285
(dp1286
g66
(dp1287
sg75
g1272
sg68
(lp1288
g61
(g62
g63
NtRp1289
(dp1290
g66
(dp1291
g74
I4
ssg75
g1285
sg68
(lp1292
S'craxsnet-PC'
p1293
asbasbasbag61
(g77
g63
NtRp1294
(dp1295
g66
(dp1296
sg75
g765
sg68
(lp1297
g61
(g82
g63
NtRp1298
(dp1299
g66
(dp1300
g86
g87
ssg75
g1294
sg68
(lp1301
S'server_port'
p1302
asbag61
(g82
g63
NtRp1303
(dp1304
g66
(dp1305
g93
g94
ssg75
g1294
sg68
(lp1306
S':'
asbag61
(g82
g63
NtRp1307
(dp1308
g66
(dp1309
sg75
g1294
sg68
(lp1310
g61
(g62
g63
NtRp1311
(dp1312
g66
(dp1313
g74
I4
ssg75
g1307
sg68
(lp1314
S'8000'
p1315
asbasbasbag61
(g77
g63
NtRp1316
(dp1317
g66
(dp1318
sg75
g765
sg68
(lp1319
g61
(g82
g63
NtRp1320
(dp1321
g66
(dp1322
g86
g87
ssg75
g1316
sg68
(lp1323
S'server_protocol'
p1324
asbag61
(g82
g63
NtRp1325
(dp1326
g66
(dp1327
g93
g94
ssg75
g1316
sg68
(lp1328
S':'
asbag61
(g82
g63
NtRp1329
(dp1330
g66
(dp1331
sg75
g1316
sg68
(lp1332
g61
(g62
g63
NtRp1333
(dp1334
g66
(dp1335
g74
I4
ssg75
g1329
sg68
(lp1336
S'HTTP/1.1'
p1337
asbasbasbag61
(g77
g63
NtRp1338
(dp1339
g66
(dp1340
sg75
g765
sg68
(lp1341
g61
(g82
g63
NtRp1342
(dp1343
g66
(dp1344
g86
g87
ssg75
g1338
sg68
(lp1345
S'server_software'
p1346
asbag61
(g82
g63
NtRp1347
(dp1348
g66
(dp1349
g93
g94
ssg75
g1338
sg68
(lp1350
S':'
asbag61
(g82
g63
NtRp1351
(dp1352
g66
(dp1353
sg75
g1338
sg68
(lp1354
g61
(g62
g63
NtRp1355
(dp1356
g66
(dp1357
g74
I4
ssg75
g1351
sg68
(lp1358
S'Rocket 1.2.4'
p1359
asbasbasbag61
(g77
g63
NtRp1360
(dp1361
g66
(dp1362
sg75
g765
sg68
(lp1363
g61
(g82
g63
NtRp1364
(dp1365
g66
(dp1366
g86
g87
ssg75
g1360
sg68
(lp1367
S'web2py_crontype'
p1368
asbag61
(g82
g63
NtRp1369
(dp1370
g66
(dp1371
g93
g94
ssg75
g1360
sg68
(lp1372
S':'
asbag61
(g82
g63
NtRp1373
(dp1374
g66
(dp1375
sg75
g1360
sg68
(lp1376
g61
(g62
g63
NtRp1377
(dp1378
g66
(dp1379
g74
I4
ssg75
g1373
sg68
(lp1380
S'hard'
p1381
asbasbasbag61
(g77
g63
NtRp1382
(dp1383
g66
(dp1384
sg75
g765
sg68
(lp1385
g61
(g82
g63
NtRp1386
(dp1387
g66
(dp1388
g86
g87
ssg75
g1382
sg68
(lp1389
S'web2py_path'
p1390
asbag61
(g82
g63
NtRp1391
(dp1392
g66
(dp1393
g93
g94
ssg75
g1382
sg68
(lp1394
S':'
asbag61
(g82
g63
NtRp1395
(dp1396
g66
(dp1397
sg75
g1382
sg68
(lp1398
g61
(g62
g63
NtRp1399
(dp1400
g66
(dp1401
g74
I4
ssg75
g1395
sg68
(lp1402
g812
asbasbasbag61
(g77
g63
NtRp1403
(dp1404
g66
(dp1405
sg75
g765
sg68
(lp1406
g61
(g82
g63
NtRp1407
(dp1408
g66
(dp1409
g86
g87
ssg75
g1403
sg68
(lp1410
S'web2py_version'
p1411
asbag61
(g82
g63
NtRp1412
(dp1413
g66
(dp1414
g93
g94
ssg75
g1403
sg68
(lp1415
S':'
asbag61
(g82
g63
NtRp1416
(dp1417
g66
(dp1418
sg75
g1403
sg68
(lp1419
g61
(g62
g63
NtRp1420
(dp1421
g66
(dp1422
g74
I4
ssg75
g1416
sg68
(lp1423
g61
(g70
g63
NtRp1424
(dp1425
g66
(dp1426
g74
I3
ssg75
Nsg68
(lp1427
g61
(g77
g63
NtRp1428
(dp1429
g66
(dp1430
sg75
g1424
sg68
(lp1431
g61
(g82
g63
NtRp1432
(dp1433
g66
(dp1434
sg75
g1428
sg68
(lp1435
g61
(g62
g63
NtRp1436
(dp1437
g66
(dp1438
g74
I3
ssg75
g1432
sg68
(lp1439
S'1'
asbasbasbag61
(g77
g63
NtRp1440
(dp1441
g66
(dp1442
sg75
g1424
sg68
(lp1443
g61
(g82
g63
NtRp1444
(dp1445
g66
(dp1446
sg75
g1440
sg68
(lp1447
g61
(g62
g63
NtRp1448
(dp1449
g66
(dp1450
g74
I3
ssg75
g1444
sg68
(lp1451
S'99'
p1452
asbasbasbag61
(g77
g63
NtRp1453
(dp1454
g66
(dp1455
sg75
g1424
sg68
(lp1456
g61
(g82
g63
NtRp1457
(dp1458
g66
(dp1459
sg75
g1453
sg68
(lp1460
g61
(g62
g63
NtRp1461
(dp1462
g66
(dp1463
g74
I3
ssg75
g1457
sg68
(lp1464
S'7'
asbasbasbag61
(g77
g63
NtRp1465
(dp1466
g66
(dp1467
sg75
g1424
sg68
(lp1468
g61
(g82
g63
NtRp1469
(dp1470
g66
(dp1471
sg75
g1465
sg68
(lp1472
g61
(g62
g63
NtRp1473
(dp1474
g66
(dp1475
g74
I3
ssg75
g1469
sg68
(lp1476
S'datetime.datetime(2012, 3, 4, 22, 12, 8)'
p1477
asbasbasbag61
(g77
g63
NtRp1478
(dp1479
g66
(dp1480
sg75
g1424
sg68
(lp1481
g61
(g82
g63
NtRp1482
(dp1483
g66
(dp1484
sg75
g1478
sg68
(lp1485
g61
(g62
g63
NtRp1486
(dp1487
g66
(dp1488
g74
I3
ssg75
g1482
sg68
(lp1489
S'stable'
p1490
asbasbasbasbasbasbasbag61
(g77
g63
NtRp1491
(dp1492
g66
(dp1493
sg75
g765
sg68
(lp1494
g61
(g82
g63
NtRp1495
(dp1496
g66
(dp1497
g86
g87
ssg75
g1491
sg68
(lp1498
S'wsgi_errors'
p1499
asbag61
(g82
g63
NtRp1500
(dp1501
g66
(dp1502
g93
g94
ssg75
g1491
sg68
(lp1503
S':'
asbag61
(g82
g63
NtRp1504
(dp1505
g66
(dp1506
sg75
g1491
sg68
(lp1507
g61
(g62
g63
NtRp1508
(dp1509
g66
(dp1510
g74
I4
ssg75
g1504
sg68
(lp1511
S"<open file '<stderr>', mode 'w' at 0x01FB00B0>"
p1512
asbasbasbag61
(g77
g63
NtRp1513
(dp1514
g66
(dp1515
sg75
g765
sg68
(lp1516
g61
(g82
g63
NtRp1517
(dp1518
g66
(dp1519
g86
g87
ssg75
g1513
sg68
(lp1520
S'wsgi_file_wrapper'
p1521
asbag61
(g82
g63
NtRp1522
(dp1523
g66
(dp1524
g93
g94
ssg75
g1513
sg68
(lp1525
S':'
asbag61
(g82
g63
NtRp1526
(dp1527
g66
(dp1528
sg75
g1513
sg68
(lp1529
g61
(g62
g63
NtRp1530
(dp1531
g66
(dp1532
g74
I4
ssg75
g1526
sg68
(lp1533
S'<class wsgiref.util.FileWrapper at 0x02F56390>'
p1534
asbasbasbag61
(g77
g63
NtRp1535
(dp1536
g66
(dp1537
sg75
g765
sg68
(lp1538
g61
(g82
g63
NtRp1539
(dp1540
g66
(dp1541
g86
g87
ssg75
g1535
sg68
(lp1542
S'wsgi_input'
p1543
asbag61
(g82
g63
NtRp1544
(dp1545
g66
(dp1546
g93
g94
ssg75
g1535
sg68
(lp1547
S':'
asbag61
(g82
g63
NtRp1548
(dp1549
g66
(dp1550
sg75
g1535
sg68
(lp1551
g61
(g62
g63
NtRp1552
(dp1553
g66
(dp1554
g74
I4
ssg75
g1548
sg68
(lp1555
S'<socket._fileobject object at 0x073C9130>'
p1556
asbasbasbag61
(g77
g63
NtRp1557
(dp1558
g66
(dp1559
sg75
g765
sg68
(lp1560
g61
(g82
g63
NtRp1561
(dp1562
g66
(dp1563
g86
g87
ssg75
g1557
sg68
(lp1564
S'wsgi_multiprocess'
p1565
asbag61
(g82
g63
NtRp1566
(dp1567
g66
(dp1568
g93
g94
ssg75
g1557
sg68
(lp1569
S':'
asbag61
(g82
g63
NtRp1570
(dp1571
g66
(dp1572
sg75
g1557
sg68
(lp1573
g61
(g62
g63
NtRp1574
(dp1575
g66
(dp1576
g74
I4
ssg75
g1570
sg68
(lp1577
g104
asbasbasbag61
(g77
g63
NtRp1578
(dp1579
g66
(dp1580
sg75
g765
sg68
(lp1581
g61
(g82
g63
NtRp1582
(dp1583
g66
(dp1584
g86
g87
ssg75
g1578
sg68
(lp1585
S'wsgi_multithread'
p1586
asbag61
(g82
g63
NtRp1587
(dp1588
g66
(dp1589
g93
g94
ssg75
g1578
sg68
(lp1590
S':'
asbag61
(g82
g63
NtRp1591
(dp1592
g66
(dp1593
sg75
g1578
sg68
(lp1594
g61
(g62
g63
NtRp1595
(dp1596
g66
(dp1597
g74
I4
ssg75
g1591
sg68
(lp1598
S'True'
p1599
asbasbasbag61
(g77
g63
NtRp1600
(dp1601
g66
(dp1602
sg75
g765
sg68
(lp1603
g61
(g82
g63
NtRp1604
(dp1605
g66
(dp1606
g86
g87
ssg75
g1600
sg68
(lp1607
S'wsgi_run_once'
p1608
asbag61
(g82
g63
NtRp1609
(dp1610
g66
(dp1611
g93
g94
ssg75
g1600
sg68
(lp1612
S':'
asbag61
(g82
g63
NtRp1613
(dp1614
g66
(dp1615
sg75
g1600
sg68
(lp1616
g61
(g62
g63
NtRp1617
(dp1618
g66
(dp1619
g74
I4
ssg75
g1613
sg68
(lp1620
g104
asbasbasbag61
(g77
g63
NtRp1621
(dp1622
g66
(dp1623
sg75
g765
sg68
(lp1624
g61
(g82
g63
NtRp1625
(dp1626
g66
(dp1627
g86
g87
ssg75
g1621
sg68
(lp1628
S'wsgi_url_scheme'
p1629
asbag61
(g82
g63
NtRp1630
(dp1631
g66
(dp1632
g93
g94
ssg75
g1621
sg68
(lp1633
S':'
asbag61
(g82
g63
NtRp1634
(dp1635
g66
(dp1636
sg75
g1621
sg68
(lp1637
g61
(g62
g63
NtRp1638
(dp1639
g66
(dp1640
g74
I4
ssg75
g1634
sg68
(lp1641
S'http'
p1642
asbasbasbag61
(g77
g63
NtRp1643
(dp1644
g66
(dp1645
sg75
g765
sg68
(lp1646
g61
(g82
g63
NtRp1647
(dp1648
g66
(dp1649
g86
g87
ssg75
g1643
sg68
(lp1650
S'wsgi_version'
p1651
asbag61
(g82
g63
NtRp1652
(dp1653
g66
(dp1654
g93
g94
ssg75
g1643
sg68
(lp1655
S':'
asbag61
(g82
g63
NtRp1656
(dp1657
g66
(dp1658
sg75
g1643
sg68
(lp1659
g61
(g62
g63
NtRp1660
(dp1661
g66
(dp1662
g74
I4
ssg75
g1656
sg68
(lp1663
g61
(g70
g63
NtRp1664
(dp1665
g66
(dp1666
g74
I3
ssg75
Nsg68
(lp1667
g61
(g77
g63
NtRp1668
(dp1669
g66
(dp1670
sg75
g1664
sg68
(lp1671
g61
(g82
g63
NtRp1672
(dp1673
g66
(dp1674
sg75
g1668
sg68
(lp1675
g61
(g62
g63
NtRp1676
(dp1677
g66
(dp1678
g74
I3
ssg75
g1672
sg68
(lp1679
S'1'
asbasbasbag61
(g77
g63
NtRp1680
(dp1681
g66
(dp1682
sg75
g1664
sg68
(lp1683
g61
(g82
g63
NtRp1684
(dp1685
g66
(dp1686
sg75
g1680
sg68
(lp1687
g61
(g62
g63
NtRp1688
(dp1689
g66
(dp1690
g74
I3
ssg75
g1684
sg68
(lp1691
S'0'
asbasbasbasbasbasbasbasbasbasbasbag61
(g77
g63
NtRp1692
(dp1693
g66
(dp1694
sg75
g71
sg68
(lp1695
g61
(g82
g63
NtRp1696
(dp1697
g66
(dp1698
g86
g87
ssg75
g1692
sg68
(lp1699
S'extension'
p1700
asbag61
(g82
g63
NtRp1701
(dp1702
g66
(dp1703
g93
g94
ssg75
g1692
sg68
(lp1704
S':'
asbag61
(g82
g63
NtRp1705
(dp1706
g66
(dp1707
sg75
g1692
sg68
(lp1708
g61
(g62
g63
NtRp1709
(dp1710
g66
(dp1711
g74
I5
ssg75
g1705
sg68
(lp1712
S'html'
p1713
asbasbasbag61
(g77
g63
NtRp1714
(dp1715
g66
(dp1716
sg75
g71
sg68
(lp1717
g61
(g82
g63
NtRp1718
(dp1719
g66
(dp1720
g86
g87
ssg75
g1714
sg68
(lp1721
S'folder'
p1722
asbag61
(g82
g63
NtRp1723
(dp1724
g66
(dp1725
g93
g94
ssg75
g1714
sg68
(lp1726
S':'
asbag61
(g82
g63
NtRp1727
(dp1728
g66
(dp1729
sg75
g1714
sg68
(lp1730
g61
(g62
g63
NtRp1731
(dp1732
g66
(dp1733
g74
I5
ssg75
g1727
sg68
(lp1734
S'D:\\Dise\xf1o Web\\Proyectos\\Parleyweb\\web2py\\applications\\parleyweb\\'
p1735
asbasbasbag61
(g77
g63
NtRp1736
(dp1737
g66
(dp1738
sg75
g71
sg68
(lp1739
g61
(g82
g63
NtRp1740
(dp1741
g66
(dp1742
g86
g87
ssg75
g1736
sg68
(lp1743
S'function'
p1744
asbag61
(g82
g63
NtRp1745
(dp1746
g66
(dp1747
g93
g94
ssg75
g1736
sg68
(lp1748
S':'
asbag61
(g82
g63
NtRp1749
(dp1750
g66
(dp1751
sg75
g1736
sg68
(lp1752
g61
(g62
g63
NtRp1753
(dp1754
g66
(dp1755
g74
I5
ssg75
g1749
sg68
(lp1756
S'index'
p1757
asbasbasbag61
(g77
g63
NtRp1758
(dp1759
g66
(dp1760
sg75
g71
sg68
(lp1761
g61
(g82
g63
NtRp1762
(dp1763
g66
(dp1764
g86
g87
ssg75
g1758
sg68
(lp1765
S'get_vars'
p1766
asbag61
(g82
g63
NtRp1767
(dp1768
g66
(dp1769
g93
g94
ssg75
g1758
sg68
(lp1770
S':'
asbag61
(g82
g63
NtRp1771
(dp1772
g66
(dp1773
sg75
g1758
sg68
(lp1774
g61
(g62
g63
NtRp1775
(dp1776
g66
(dp1777
g74
I5
ssg75
g1771
sg68
(lp1778
g61
(g70
g63
NtRp1779
(dp1780
g66
(dp1781
g74
I4
ssg75
Nsg68
(lp1782
sbasbasbasbag61
(g77
g63
NtRp1783
(dp1784
g66
(dp1785
sg75
g71
sg68
(lp1786
g61
(g82
g63
NtRp1787
(dp1788
g66
(dp1789
g86
g87
ssg75
g1783
sg68
(lp1790
S'global_settings'
p1791
asbag61
(g82
g63
NtRp1792
(dp1793
g66
(dp1794
g93
g94
ssg75
g1783
sg68
(lp1795
S':'
asbag61
(g82
g63
NtRp1796
(dp1797
g66
(dp1798
sg75
g1783
sg68
(lp1799
g61
(g62
g63
NtRp1800
(dp1801
g66
(dp1802
g74
I5
ssg75
g1796
sg68
(lp1803
g61
(g70
g63
NtRp1804
(dp1805
g66
(dp1806
g74
I4
ssg75
Nsg68
(lp1807
g61
(g77
g63
NtRp1808
(dp1809
g66
(dp1810
sg75
g1804
sg68
(lp1811
g61
(g82
g63
NtRp1812
(dp1813
g66
(dp1814
g86
g87
ssg75
g1808
sg68
(lp1815
g777
asbag61
(g82
g63
NtRp1816
(dp1817
g66
(dp1818
g93
g94
ssg75
g1808
sg68
(lp1819
S':'
asbag61
(g82
g63
NtRp1820
(dp1821
g66
(dp1822
sg75
g1808
sg68
(lp1823
g61
(g62
g63
NtRp1824
(dp1825
g66
(dp1826
g74
I4
ssg75
g1820
sg68
(lp1827
S"set(['D:\\\\Dise\\xf1o Web\\\\Proyectos\\\\Parleyweb\\\\web2py\\\\applications\\\\parleyweb\\\\', 'D:\\\\Dise\\xf1o Web\\\\Proyectos\\\\Parleyweb\\\\web2py\\\\applications\\\\welcome\\\\', 'D:\\\\Dise\\xf1o Web\\\\Proyectos\\\\Parleyweb\\\\web2py\\\\applications\\\\admin\\\\'])"
p1828
asbasbasbag61
(g77
g63
NtRp1829
(dp1830
g66
(dp1831
sg75
g1804
sg68
(lp1832
g61
(g82
g63
NtRp1833
(dp1834
g66
(dp1835
g86
g87
ssg75
g1829
sg68
(lp1836
g799
asbag61
(g82
g63
NtRp1837
(dp1838
g66
(dp1839
g93
g94
ssg75
g1829
sg68
(lp1840
S':'
asbag61
(g82
g63
NtRp1841
(dp1842
g66
(dp1843
sg75
g1829
sg68
(lp1844
g61
(g62
g63
NtRp1845
(dp1846
g66
(dp1847
g74
I4
ssg75
g1841
sg68
(lp1848
g812
asbasbasbag61
(g77
g63
NtRp1849
(dp1850
g66
(dp1851
sg75
g1804
sg68
(lp1852
g61
(g82
g63
NtRp1853
(dp1854
g66
(dp1855
g86
g87
ssg75
g1849
sg68
(lp1856
g821
asbag61
(g82
g63
NtRp1857
(dp1858
g66
(dp1859
g93
g94
ssg75
g1849
sg68
(lp1860
S':'
asbag61
(g82
g63
NtRp1861
(dp1862
g66
(dp1863
sg75
g1849
sg68
(lp1864
g61
(g62
g63
NtRp1865
(dp1866
g66
(dp1867
g74
I4
ssg75
g1861
sg68
(lp1868
g61
(g70
g63
NtRp1869
(dp1870
g66
(dp1871
g74
I3
ssg75
Nsg68
(lp1872
sbasbasbasbag61
(g77
g63
NtRp1873
(dp1874
g66
(dp1875
sg75
g1804
sg68
(lp1876
g61
(g82
g63
NtRp1877
(dp1878
g66
(dp1879
g86
g87
ssg75
g1873
sg68
(lp1880
g846
asbag61
(g82
g63
NtRp1881
(dp1882
g66
(dp1883
g93
g94
ssg75
g1873
sg68
(lp1884
S':'
asbag61
(g82
g63
NtRp1885
(dp1886
g66
(dp1887
sg75
g1873
sg68
(lp1888
g61
(g62
g63
NtRp1889
(dp1890
g66
(dp1891
g74
I4
ssg75
g1885
sg68
(lp1892
S"<Values at 0x3110f30: {'verbose': False, 'ip': '127.0.0.1', 'shutdown_timeout': 5, 'taskbar': False, 'nocron': False, 'pid_filename': 'httpserver.pid', 'maxthreads': None, 'softcron': False, 'server_name': 'craxsnet-PC', 'bpython': False, 'nogui': False, 'port': 8000, 'extcron': False, 'debuglevel': 30, 'test': None, 'folder': 'D:\\\\Dise\\xf1o Web\\\\Proyectos\\\\Parleyweb\\\\web2py', 'config': '', 'import_models': False, 'winservice': '', 'shell': None, 'run': '', 'log_filename': 'httpserver.log', 'args': [''], 'socket_timeout': 5, 'ssl_ca_certificate': None, 'scheduler': None, 'profiler_filename': None, 'ssl_private_key': '', 'password': '<ask>', 'request_queue_size': 5, 'ssl_certificate': '', 'cronjob': False, 'numthreads': None, 'quiet': False, 'interfaces': None, 'minthreads': None, 'timeout': 10, 'plain': False, 'nobanner': False}>"
p1893
asbasbasbag61
(g77
g63
NtRp1894
(dp1895
g66
(dp1896
sg75
g1804
sg68
(lp1897
g61
(g82
g63
NtRp1898
(dp1899
g66
(dp1900
g86
g87
ssg75
g1894
sg68
(lp1901
g868
asbag61
(g82
g63
NtRp1902
(dp1903
g66
(dp1904
g93
g94
ssg75
g1894
sg68
(lp1905
S':'
asbag61
(g82
g63
NtRp1906
(dp1907
g66
(dp1908
sg75
g1894
sg68
(lp1909
g61
(g62
g63
NtRp1910
(dp1911
g66
(dp1912
g74
I4
ssg75
g1906
sg68
(lp1913
S'set([])'
p1914
asbasbasbag61
(g77
g63
NtRp1915
(dp1916
g66
(dp1917
sg75
g1804
sg68
(lp1918
g61
(g82
g63
NtRp1919
(dp1920
g66
(dp1921
g86
g87
ssg75
g1915
sg68
(lp1922
g890
asbag61
(g82
g63
NtRp1923
(dp1924
g66
(dp1925
g93
g94
ssg75
g1915
sg68
(lp1926
S':'
asbag61
(g82
g63
NtRp1927
(dp1928
g66
(dp1929
sg75
g1915
sg68
(lp1930
g61
(g62
g63
NtRp1931
(dp1932
g66
(dp1933
g74
I4
ssg75
g1927
sg68
(lp1934
g104
asbasbasbag61
(g77
g63
NtRp1935
(dp1936
g66
(dp1937
sg75
g1804
sg68
(lp1938
g61
(g82
g63
NtRp1939
(dp1940
g66
(dp1941
g86
g87
ssg75
g1935
sg68
(lp1942
g911
asbag61
(g82
g63
NtRp1943
(dp1944
g66
(dp1945
g93
g94
ssg75
g1935
sg68
(lp1946
S':'
asbag61
(g82
g63
NtRp1947
(dp1948
g66
(dp1949
sg75
g1935
sg68
(lp1950
g61
(g62
g63
NtRp1951
(dp1952
g66
(dp1953
g74
I4
ssg75
g1947
sg68
(lp1954
g924
asbasbasbag61
(g77
g63
NtRp1955
(dp1956
g66
(dp1957
sg75
g1804
sg68
(lp1958
g61
(g82
g63
NtRp1959
(dp1960
g66
(dp1961
g86
g87
ssg75
g1955
sg68
(lp1962
g1109
asbag61
(g82
g63
NtRp1963
(dp1964
g66
(dp1965
g93
g94
ssg75
g1955
sg68
(lp1966
S':'
asbag61
(g82
g63
NtRp1967
(dp1968
g66
(dp1969
sg75
g1955
sg68
(lp1970
g61
(g62
g63
NtRp1971
(dp1972
g66
(dp1973
g74
I4
ssg75
g1967
sg68
(lp1974
g104
asbasbasbag61
(g77
g63
NtRp1975
(dp1976
g66
(dp1977
sg75
g1804
sg68
(lp1978
g61
(g82
g63
NtRp1979
(dp1980
g66
(dp1981
g86
g87
ssg75
g1975
sg68
(lp1982
g1130
asbag61
(g82
g63
NtRp1983
(dp1984
g66
(dp1985
g93
g94
ssg75
g1975
sg68
(lp1986
S':'
asbag61
(g82
g63
NtRp1987
(dp1988
g66
(dp1989
sg75
g1975
sg68
(lp1990
g61
(g62
g63
NtRp1991
(dp1992
g66
(dp1993
g74
I4
ssg75
g1987
sg68
(lp1994
g104
asbasbasbag61
(g77
g63
NtRp1995
(dp1996
g66
(dp1997
sg75
g1804
sg68
(lp1998
g61
(g82
g63
NtRp1999
(dp2000
g66
(dp2001
g86
g87
ssg75
g1995
sg68
(lp2002
g1368
asbag61
(g82
g63
NtRp2003
(dp2004
g66
(dp2005
g93
g94
ssg75
g1995
sg68
(lp2006
S':'
asbag61
(g82
g63
NtRp2007
(dp2008
g66
(dp2009
sg75
g1995
sg68
(lp2010
g61
(g62
g63
NtRp2011
(dp2012
g66
(dp2013
g74
I4
ssg75
g2007
sg68
(lp2014
g1381
asbasbasbag61
(g77
g63
NtRp2015
(dp2016
g66
(dp2017
sg75
g1804
sg68
(lp2018
g61
(g82
g63
NtRp2019
(dp2020
g66
(dp2021
g86
g87
ssg75
g2015
sg68
(lp2022
g1411
asbag61
(g82
g63
NtRp2023
(dp2024
g66
(dp2025
g93
g94
ssg75
g2015
sg68
(lp2026
S':'
asbag61
(g82
g63
NtRp2027
(dp2028
g66
(dp2029
sg75
g2015
sg68
(lp2030
g61
(g62
g63
NtRp2031
(dp2032
g66
(dp2033
g74
I4
ssg75
g2027
sg68
(lp2034
g61
(g70
g63
NtRp2035
(dp2036
g66
(dp2037
g74
I3
ssg75
Nsg68
(lp2038
g61
(g77
g63
NtRp2039
(dp2040
g66
(dp2041
sg75
g2035
sg68
(lp2042
g61
(g82
g63
NtRp2043
(dp2044
g66
(dp2045
sg75
g2039
sg68
(lp2046
g61
(g62
g63
NtRp2047
(dp2048
g66
(dp2049
g74
I3
ssg75
g2043
sg68
(lp2050
S'1'
asbasbasbag61
(g77
g63
NtRp2051
(dp2052
g66
(dp2053
sg75
g2035
sg68
(lp2054
g61
(g82
g63
NtRp2055
(dp2056
g66
(dp2057
sg75
g2051
sg68
(lp2058
g61
(g62
g63
NtRp2059
(dp2060
g66
(dp2061
g74
I3
ssg75
g2055
sg68
(lp2062
S'99'
p2063
asbasbasbag61
(g77
g63
NtRp2064
(dp2065
g66
(dp2066
sg75
g2035
sg68
(lp2067
g61
(g82
g63
NtRp2068
(dp2069
g66
(dp2070
sg75
g2064
sg68
(lp2071
g61
(g62
g63
NtRp2072
(dp2073
g66
(dp2074
g74
I3
ssg75
g2068
sg68
(lp2075
S'7'
asbasbasbag61
(g77
g63
NtRp2076
(dp2077
g66
(dp2078
sg75
g2035
sg68
(lp2079
g61
(g82
g63
NtRp2080
(dp2081
g66
(dp2082
sg75
g2076
sg68
(lp2083
g61
(g62
g63
NtRp2084
(dp2085
g66
(dp2086
g74
I3
ssg75
g2080
sg68
(lp2087
S'datetime.datetime(2012, 3, 4, 22, 12, 8)'
p2088
asbasbasbag61
(g77
g63
NtRp2089
(dp2090
g66
(dp2091
sg75
g2035
sg68
(lp2092
g61
(g82
g63
NtRp2093
(dp2094
g66
(dp2095
sg75
g2089
sg68
(lp2096
g61
(g62
g63
NtRp2097
(dp2098
g66
(dp2099
g74
I3
ssg75
g2093
sg68
(lp2100
g1490
asbasbasbasbasbasbasbasbasbasbasbag61
(g77
g63
NtRp2101
(dp2102
g66
(dp2103
sg75
g71
sg68
(lp2104
g61
(g82
g63
NtRp2105
(dp2106
g66
(dp2107
g86
g87
ssg75
g2101
sg68
(lp2108
S'is_https'
p2109
asbag61
(g82
g63
NtRp2110
(dp2111
g66
(dp2112
g93
g94
ssg75
g2101
sg68
(lp2113
S':'
asbag61
(g82
g63
NtRp2114
(dp2115
g66
(dp2116
sg75
g2101
sg68
(lp2117
g61
(g62
g63
NtRp2118
(dp2119
g66
(dp2120
g74
I5
ssg75
g2114
sg68
(lp2121
g104
asbasbasbag61
(g77
g63
NtRp2122
(dp2123
g66
(dp2124
sg75
g71
sg68
(lp2125
g61
(g82
g63
NtRp2126
(dp2127
g66
(dp2128
g86
g87
ssg75
g2122
sg68
(lp2129
S'is_local'
p2130
asbag61
(g82
g63
NtRp2131
(dp2132
g66
(dp2133
g93
g94
ssg75
g2122
sg68
(lp2134
S':'
asbag61
(g82
g63
NtRp2135
(dp2136
g66
(dp2137
sg75
g2122
sg68
(lp2138
g61
(g62
g63
NtRp2139
(dp2140
g66
(dp2141
g74
I5
ssg75
g2135
sg68
(lp2142
g1599
asbasbasbag61
(g77
g63
NtRp2143
(dp2144
g66
(dp2145
sg75
g71
sg68
(lp2146
g61
(g82
g63
NtRp2147
(dp2148
g66
(dp2149
g86
g87
ssg75
g2143
sg68
(lp2150
S'is_restful'
p2151
asbag61
(g82
g63
NtRp2152
(dp2153
g66
(dp2154
g93
g94
ssg75
g2143
sg68
(lp2155
S':'
asbag61
(g82
g63
NtRp2156
(dp2157
g66
(dp2158
sg75
g2143
sg68
(lp2159
g61
(g62
g63
NtRp2160
(dp2161
g66
(dp2162
g74
I5
ssg75
g2156
sg68
(lp2163
g104
asbasbasbag61
(g77
g63
NtRp2164
(dp2165
g66
(dp2166
sg75
g71
sg68
(lp2167
g61
(g82
g63
NtRp2168
(dp2169
g66
(dp2170
g86
g87
ssg75
g2164
sg68
(lp2171
S'now'
p2172
asbag61
(g82
g63
NtRp2173
(dp2174
g66
(dp2175
g93
g94
ssg75
g2164
sg68
(lp2176
S':'
asbag61
(g82
g63
NtRp2177
(dp2178
g66
(dp2179
sg75
g2164
sg68
(lp2180
g61
(g62
g63
NtRp2181
(dp2182
g66
(dp2183
g74
I5
ssg75
g2177
sg68
(lp2184
S'datetime.datetime(2012, 3, 17, 1, 15, 22, 980000)'
p2185
asbasbasbag61
(g77
g63
NtRp2186
(dp2187
g66
(dp2188
sg75
g71
sg68
(lp2189
g61
(g82
g63
NtRp2190
(dp2191
g66
(dp2192
g86
g87
ssg75
g2186
sg68
(lp2193
S'post_vars'
p2194
asbag61
(g82
g63
NtRp2195
(dp2196
g66
(dp2197
g93
g94
ssg75
g2186
sg68
(lp2198
S':'
asbag61
(g82
g63
NtRp2199
(dp2200
g66
(dp2201
sg75
g2186
sg68
(lp2202
g61
(g62
g63
NtRp2203
(dp2204
g66
(dp2205
g74
I5
ssg75
g2199
sg68
(lp2206
g61
(g70
g63
NtRp2207
(dp2208
g66
(dp2209
g74
I4
ssg75
Nsg68
(lp2210
sbasbasbasbag61
(g77
g63
NtRp2211
(dp2212
g66
(dp2213
sg75
g71
sg68
(lp2214
g61
(g82
g63
NtRp2215
(dp2216
g66
(dp2217
g86
g87
ssg75
g2211
sg68
(lp2218
S'url'
p2219
asbag61
(g82
g63
NtRp2220
(dp2221
g66
(dp2222
g93
g94
ssg75
g2211
sg68
(lp2223
S':'
asbag61
(g82
g63
NtRp2224
(dp2225
g66
(dp2226
sg75
g2211
sg68
(lp2227
g61
(g62
g63
NtRp2228
(dp2229
g66
(dp2230
g74
I5
ssg75
g2224
sg68
(lp2231
S'/parleyweb/admin/index'
p2232
asbasbasbag61
(g77
g63
NtRp2233
(dp2234
g66
(dp2235
sg75
g71
sg68
(lp2236
g61
(g82
g63
NtRp2237
(dp2238
g66
(dp2239
g86
g87
ssg75
g2233
sg68
(lp2240
S'utcnow'
p2241
asbag61
(g82
g63
NtRp2242
(dp2243
g66
(dp2244
g93
g94
ssg75
g2233
sg68
(lp2245
S':'
asbag61
(g82
g63
NtRp2246
(dp2247
g66
(dp2248
sg75
g2233
sg68
(lp2249
g61
(g62
g63
NtRp2250
(dp2251
g66
(dp2252
g74
I5
ssg75
g2246
sg68
(lp2253
S'datetime.datetime(2012, 3, 17, 0, 15, 22, 980000)'
p2254
asbasbasbag61
(g77
g63
NtRp2255
(dp2256
g66
(dp2257
sg75
g71
sg68
(lp2258
g61
(g82
g63
NtRp2259
(dp2260
g66
(dp2261
g86
g87
ssg75
g2255
sg68
(lp2262
S'uuid'
p2263
asbag61
(g82
g63
NtRp2264
(dp2265
g66
(dp2266
g93
g94
ssg75
g2255
sg68
(lp2267
S':'
asbag61
(g82
g63
NtRp2268
(dp2269
g66
(dp2270
sg75
g2255
sg68
(lp2271
g61
(g62
g63
NtRp2272
(dp2273
g66
(dp2274
g74
I5
ssg75
g2268
sg68
(lp2275
S'parleyweb/127.0.0.1.2012-03-17.01-15-22.13731f16-ff04-4b16-8224-84849c96637c'
p2276
asbasbasbag61
(g77
g63
NtRp2277
(dp2278
g66
(dp2279
sg75
g71
sg68
(lp2280
g61
(g82
g63
NtRp2281
(dp2282
g66
(dp2283
g86
g87
ssg75
g2277
sg68
(lp2284
S'vars'
p2285
asbag61
(g82
g63
NtRp2286
(dp2287
g66
(dp2288
g93
g94
ssg75
g2277
sg68
(lp2289
S':'
asbag61
(g82
g63
NtRp2290
(dp2291
g66
(dp2292
sg75
g2277
sg68
(lp2293
g61
(g62
g63
NtRp2294
(dp2295
g66
(dp2296
g74
I5
ssg75
g2290
sg68
(lp2297
g61
(g70
g63
NtRp2298
(dp2299
g66
(dp2300
g74
I4
ssg75
Nsg68
(lp2301
sbasbasbasbag61
(g77
g63
NtRp2302
(dp2303
g66
(dp2304
sg75
g71
sg68
(lp2305
g61
(g82
g63
NtRp2306
(dp2307
g66
(dp2308
g86
g87
ssg75
g2302
sg68
(lp2309
S'wsgi'
p2310
asbag61
(g82
g63
NtRp2311
(dp2312
g66
(dp2313
g93
g94
ssg75
g2302
sg68
(lp2314
S':'
asbag61
(g82
g63
NtRp2315
(dp2316
g66
(dp2317
sg75
g2302
sg68
(lp2318
g61
(g62
g63
NtRp2319
(dp2320
g66
(dp2321
g74
I5
ssg75
g2315
sg68
(lp2322
g61
(g70
g63
NtRp2323
(dp2324
g66
(dp2325
g74
I4
ssg75
Nsg68
(lp2326
g61
(g77
g63
NtRp2327
(dp2328
g66
(dp2329
sg75
g2323
sg68
(lp2330
g61
(g82
g63
NtRp2331
(dp2332
g66
(dp2333
g86
g87
ssg75
g2327
sg68
(lp2334
S'environ'
p2335
asbag61
(g82
g63
NtRp2336
(dp2337
g66
(dp2338
g93
g94
ssg75
g2327
sg68
(lp2339
S':'
asbag61
(g82
g63
NtRp2340
(dp2341
g66
(dp2342
sg75
g2327
sg68
(lp2343
g61
(g62
g63
NtRp2344
(dp2345
g66
(dp2346
g74
I4
ssg75
g2340
sg68
(lp2347
g61
(g70
g63
NtRp2348
(dp2349
g66
(dp2350
g74
I3
ssg75
Nsg68
(lp2351
g61
(g77
g63
NtRp2352
(dp2353
g66
(dp2354
sg75
g2348
sg68
(lp2355
g61
(g82
g63
NtRp2356
(dp2357
g66
(dp2358
g86
g87
ssg75
g2352
sg68
(lp2359
S'HTTP_ACCEPT'
p2360
asbag61
(g82
g63
NtRp2361
(dp2362
g66
(dp2363
g93
g94
ssg75
g2352
sg68
(lp2364
S':'
asbag61
(g82
g63
NtRp2365
(dp2366
g66
(dp2367
sg75
g2352
sg68
(lp2368
g61
(g62
g63
NtRp2369
(dp2370
g66
(dp2371
g74
I3
ssg75
g2365
sg68
(lp2372
g946
asbasbasbag61
(g77
g63
NtRp2373
(dp2374
g66
(dp2375
sg75
g2348
sg68
(lp2376
g61
(g82
g63
NtRp2377
(dp2378
g66
(dp2379
g86
g87
ssg75
g2373
sg68
(lp2380
S'HTTP_ACCEPT_ENCODING'
p2381
asbag61
(g82
g63
NtRp2382
(dp2383
g66
(dp2384
g93
g94
ssg75
g2373
sg68
(lp2385
S':'
asbag61
(g82
g63
NtRp2386
(dp2387
g66
(dp2388
sg75
g2373
sg68
(lp2389
g61
(g62
g63
NtRp2390
(dp2391
g66
(dp2392
g74
I3
ssg75
g2386
sg68
(lp2393
g968
asbasbasbag61
(g77
g63
NtRp2394
(dp2395
g66
(dp2396
sg75
g2348
sg68
(lp2397
g61
(g82
g63
NtRp2398
(dp2399
g66
(dp2400
g86
g87
ssg75
g2394
sg68
(lp2401
S'HTTP_ACCEPT_LANGUAGE'
p2402
asbag61
(g82
g63
NtRp2403
(dp2404
g66
(dp2405
g93
g94
ssg75
g2394
sg68
(lp2406
S':'
asbag61
(g82
g63
NtRp2407
(dp2408
g66
(dp2409
sg75
g2394
sg68
(lp2410
g61
(g62
g63
NtRp2411
(dp2412
g66
(dp2413
g74
I3
ssg75
g2407
sg68
(lp2414
g990
asbasbasbag61
(g77
g63
NtRp2415
(dp2416
g66
(dp2417
sg75
g2348
sg68
(lp2418
g61
(g82
g63
NtRp2419
(dp2420
g66
(dp2421
g86
g87
ssg75
g2415
sg68
(lp2422
S'HTTP_CONNECTION'
p2423
asbag61
(g82
g63
NtRp2424
(dp2425
g66
(dp2426
g93
g94
ssg75
g2415
sg68
(lp2427
S':'
asbag61
(g82
g63
NtRp2428
(dp2429
g66
(dp2430
sg75
g2415
sg68
(lp2431
g61
(g62
g63
NtRp2432
(dp2433
g66
(dp2434
g74
I3
ssg75
g2428
sg68
(lp2435
g1012
asbasbasbag61
(g77
g63
NtRp2436
(dp2437
g66
(dp2438
sg75
g2348
sg68
(lp2439
g61
(g82
g63
NtRp2440
(dp2441
g66
(dp2442
g86
g87
ssg75
g2436
sg68
(lp2443
S'HTTP_COOKIE'
p2444
asbag61
(g82
g63
NtRp2445
(dp2446
g66
(dp2447
g93
g94
ssg75
g2436
sg68
(lp2448
S':'
asbag61
(g82
g63
NtRp2449
(dp2450
g66
(dp2451
sg75
g2436
sg68
(lp2452
g61
(g62
g63
NtRp2453
(dp2454
g66
(dp2455
g74
I3
ssg75
g2449
sg68
(lp2456
g1034
asbasbasbag61
(g77
g63
NtRp2457
(dp2458
g66
(dp2459
sg75
g2348
sg68
(lp2460
g61
(g82
g63
NtRp2461
(dp2462
g66
(dp2463
g86
g87
ssg75
g2457
sg68
(lp2464
S'HTTP_HOST'
p2465
asbag61
(g82
g63
NtRp2466
(dp2467
g66
(dp2468
g93
g94
ssg75
g2457
sg68
(lp2469
S':'
asbag61
(g82
g63
NtRp2470
(dp2471
g66
(dp2472
sg75
g2457
sg68
(lp2473
g61
(g62
g63
NtRp2474
(dp2475
g66
(dp2476
g74
I3
ssg75
g2470
sg68
(lp2477
g1056
asbasbasbag61
(g77
g63
NtRp2478
(dp2479
g66
(dp2480
sg75
g2348
sg68
(lp2481
g61
(g82
g63
NtRp2482
(dp2483
g66
(dp2484
g86
g87
ssg75
g2478
sg68
(lp2485
S'HTTP_REFERER'
p2486
asbag61
(g82
g63
NtRp2487
(dp2488
g66
(dp2489
g93
g94
ssg75
g2478
sg68
(lp2490
S':'
asbag61
(g82
g63
NtRp2491
(dp2492
g66
(dp2493
sg75
g2478
sg68
(lp2494
g61
(g62
g63
NtRp2495
(dp2496
g66
(dp2497
g74
I3
ssg75
g2491
sg68
(lp2498
g1078
asbasbasbag61
(g77
g63
NtRp2499
(dp2500
g66
(dp2501
sg75
g2348
sg68
(lp2502
g61
(g82
g63
NtRp2503
(dp2504
g66
(dp2505
g86
g87
ssg75
g2499
sg68
(lp2506
S'HTTP_USER_AGENT'
p2507
asbag61
(g82
g63
NtRp2508
(dp2509
g66
(dp2510
g93
g94
ssg75
g2499
sg68
(lp2511
S':'
asbag61
(g82
g63
NtRp2512
(dp2513
g66
(dp2514
sg75
g2499
sg68
(lp2515
g61
(g62
g63
NtRp2516
(dp2517
g66
(dp2518
g74
I3
ssg75
g2512
sg68
(lp2519
g1100
asbasbasbag61
(g77
g63
NtRp2520
(dp2521
g66
(dp2522
sg75
g2348
sg68
(lp2523
g61
(g82
g63
NtRp2524
(dp2525
g66
(dp2526
g86
g87
ssg75
g2520
sg68
(lp2527
S'PATH_INFO'
p2528
asbag61
(g82
g63
NtRp2529
(dp2530
g66
(dp2531
g93
g94
ssg75
g2520
sg68
(lp2532
S':'
asbag61
(g82
g63
NtRp2533
(dp2534
g66
(dp2535
sg75
g2520
sg68
(lp2536
g61
(g62
g63
NtRp2537
(dp2538
g66
(dp2539
g74
I3
ssg75
g2533
sg68
(lp2540
g1164
asbasbasbag61
(g77
g63
NtRp2541
(dp2542
g66
(dp2543
sg75
g2348
sg68
(lp2544
g61
(g82
g63
NtRp2545
(dp2546
g66
(dp2547
g86
g87
ssg75
g2541
sg68
(lp2548
S'QUERY_STRING'
p2549
asbag61
(g82
g63
NtRp2550
(dp2551
g66
(dp2552
g93
g94
ssg75
g2541
sg68
(lp2553
S':'
asbag61
(g82
g63
NtRp2554
(dp2555
g66
(dp2556
sg75
g2541
sg68
(lp2557
g61
(g62
g63
NtRp2558
(dp2559
g66
(dp2560
g74
I3
ssg75
g2554
sg68
(lp2561
S''
asbasbasbag61
(g77
g63
NtRp2562
(dp2563
g66
(dp2564
sg75
g2348
sg68
(lp2565
g61
(g82
g63
NtRp2566
(dp2567
g66
(dp2568
g86
g87
ssg75
g2562
sg68
(lp2569
S'REMOTE_ADDR'
p2570
asbag61
(g82
g63
NtRp2571
(dp2572
g66
(dp2573
g93
g94
ssg75
g2562
sg68
(lp2574
S':'
asbag61
(g82
g63
NtRp2575
(dp2576
g66
(dp2577
sg75
g2562
sg68
(lp2578
g61
(g62
g63
NtRp2579
(dp2580
g66
(dp2581
g74
I3
ssg75
g2575
sg68
(lp2582
g194
asbasbasbag61
(g77
g63
NtRp2583
(dp2584
g66
(dp2585
sg75
g2348
sg68
(lp2586
g61
(g82
g63
NtRp2587
(dp2588
g66
(dp2589
g86
g87
ssg75
g2583
sg68
(lp2590
S'REMOTE_PORT'
p2591
asbag61
(g82
g63
NtRp2592
(dp2593
g66
(dp2594
g93
g94
ssg75
g2583
sg68
(lp2595
S':'
asbag61
(g82
g63
NtRp2596
(dp2597
g66
(dp2598
sg75
g2583
sg68
(lp2599
g61
(g62
g63
NtRp2600
(dp2601
g66
(dp2602
g74
I3
ssg75
g2596
sg68
(lp2603
g1228
asbasbasbag61
(g77
g63
NtRp2604
(dp2605
g66
(dp2606
sg75
g2348
sg68
(lp2607
g61
(g82
g63
NtRp2608
(dp2609
g66
(dp2610
g86
g87
ssg75
g2604
sg68
(lp2611
S'REQUEST_METHOD'
p2612
asbag61
(g82
g63
NtRp2613
(dp2614
g66
(dp2615
g93
g94
ssg75
g2604
sg68
(lp2616
S':'
asbag61
(g82
g63
NtRp2617
(dp2618
g66
(dp2619
sg75
g2604
sg68
(lp2620
g61
(g62
g63
NtRp2621
(dp2622
g66
(dp2623
g74
I3
ssg75
g2617
sg68
(lp2624
g1250
asbasbasbag61
(g77
g63
NtRp2625
(dp2626
g66
(dp2627
sg75
g2348
sg68
(lp2628
g61
(g82
g63
NtRp2629
(dp2630
g66
(dp2631
g86
g87
ssg75
g2625
sg68
(lp2632
S'SCRIPT_NAME'
p2633
asbag61
(g82
g63
NtRp2634
(dp2635
g66
(dp2636
g93
g94
ssg75
g2625
sg68
(lp2637
S':'
asbag61
(g82
g63
NtRp2638
(dp2639
g66
(dp2640
sg75
g2625
sg68
(lp2641
g61
(g62
g63
NtRp2642
(dp2643
g66
(dp2644
g74
I3
ssg75
g2638
sg68
(lp2645
S''
asbasbasbag61
(g77
g63
NtRp2646
(dp2647
g66
(dp2648
sg75
g2348
sg68
(lp2649
g61
(g82
g63
NtRp2650
(dp2651
g66
(dp2652
g86
g87
ssg75
g2646
sg68
(lp2653
S'SERVER_NAME'
p2654
asbag61
(g82
g63
NtRp2655
(dp2656
g66
(dp2657
g93
g94
ssg75
g2646
sg68
(lp2658
S':'
asbag61
(g82
g63
NtRp2659
(dp2660
g66
(dp2661
sg75
g2646
sg68
(lp2662
g61
(g62
g63
NtRp2663
(dp2664
g66
(dp2665
g74
I3
ssg75
g2659
sg68
(lp2666
g1293
asbasbasbag61
(g77
g63
NtRp2667
(dp2668
g66
(dp2669
sg75
g2348
sg68
(lp2670
g61
(g82
g63
NtRp2671
(dp2672
g66
(dp2673
g86
g87
ssg75
g2667
sg68
(lp2674
S'SERVER_PORT'
p2675
asbag61
(g82
g63
NtRp2676
(dp2677
g66
(dp2678
g93
g94
ssg75
g2667
sg68
(lp2679
S':'
asbag61
(g82
g63
NtRp2680
(dp2681
g66
(dp2682
sg75
g2667
sg68
(lp2683
g61
(g62
g63
NtRp2684
(dp2685
g66
(dp2686
g74
I3
ssg75
g2680
sg68
(lp2687
g1315
asbasbasbag61
(g77
g63
NtRp2688
(dp2689
g66
(dp2690
sg75
g2348
sg68
(lp2691
g61
(g82
g63
NtRp2692
(dp2693
g66
(dp2694
g86
g87
ssg75
g2688
sg68
(lp2695
S'SERVER_PROTOCOL'
p2696
asbag61
(g82
g63
NtRp2697
(dp2698
g66
(dp2699
g93
g94
ssg75
g2688
sg68
(lp2700
S':'
asbag61
(g82
g63
NtRp2701
(dp2702
g66
(dp2703
sg75
g2688
sg68
(lp2704
g61
(g62
g63
NtRp2705
(dp2706
g66
(dp2707
g74
I3
ssg75
g2701
sg68
(lp2708
g1337
asbasbasbag61
(g77
g63
NtRp2709
(dp2710
g66
(dp2711
sg75
g2348
sg68
(lp2712
g61
(g82
g63
NtRp2713
(dp2714
g66
(dp2715
g86
g87
ssg75
g2709
sg68
(lp2716
S'SERVER_SOFTWARE'
p2717
asbag61
(g82
g63
NtRp2718
(dp2719
g66
(dp2720
g93
g94
ssg75
g2709
sg68
(lp2721
S':'
asbag61
(g82
g63
NtRp2722
(dp2723
g66
(dp2724
sg75
g2709
sg68
(lp2725
g61
(g62
g63
NtRp2726
(dp2727
g66
(dp2728
g74
I3
ssg75
g2722
sg68
(lp2729
g1359
asbasbasbag61
(g77
g63
NtRp2730
(dp2731
g66
(dp2732
sg75
g2348
sg68
(lp2733
g61
(g82
g63
NtRp2734
(dp2735
g66
(dp2736
g86
g87
ssg75
g2730
sg68
(lp2737
S'wsgi.errors'
p2738
asbag61
(g82
g63
NtRp2739
(dp2740
g66
(dp2741
g93
g94
ssg75
g2730
sg68
(lp2742
S':'
asbag61
(g82
g63
NtRp2743
(dp2744
g66
(dp2745
sg75
g2730
sg68
(lp2746
g61
(g62
g63
NtRp2747
(dp2748
g66
(dp2749
g74
I3
ssg75
g2743
sg68
(lp2750
S"<open file '<stderr>', mode 'w' at 0x01FB00B0>"
p2751
asbasbasbag61
(g77
g63
NtRp2752
(dp2753
g66
(dp2754
sg75
g2348
sg68
(lp2755
g61
(g82
g63
NtRp2756
(dp2757
g66
(dp2758
g86
g87
ssg75
g2752
sg68
(lp2759
S'wsgi.file_wrapper'
p2760
asbag61
(g82
g63
NtRp2761
(dp2762
g66
(dp2763
g93
g94
ssg75
g2752
sg68
(lp2764
S':'
asbag61
(g82
g63
NtRp2765
(dp2766
g66
(dp2767
sg75
g2752
sg68
(lp2768
g61
(g62
g63
NtRp2769
(dp2770
g66
(dp2771
g74
I3
ssg75
g2765
sg68
(lp2772
S'<class wsgiref.util.FileWrapper at 0x02F56390>'
p2773
asbasbasbag61
(g77
g63
NtRp2774
(dp2775
g66
(dp2776
sg75
g2348
sg68
(lp2777
g61
(g82
g63
NtRp2778
(dp2779
g66
(dp2780
g86
g87
ssg75
g2774
sg68
(lp2781
S'wsgi.input'
p2782
asbag61
(g82
g63
NtRp2783
(dp2784
g66
(dp2785
g93
g94
ssg75
g2774
sg68
(lp2786
S':'
asbag61
(g82
g63
NtRp2787
(dp2788
g66
(dp2789
sg75
g2774
sg68
(lp2790
g61
(g62
g63
NtRp2791
(dp2792
g66
(dp2793
g74
I3
ssg75
g2787
sg68
(lp2794
S'<cStringIO.StringO object at 0x07BB7480>'
p2795
asbasbasbag61
(g77
g63
NtRp2796
(dp2797
g66
(dp2798
sg75
g2348
sg68
(lp2799
g61
(g82
g63
NtRp2800
(dp2801
g66
(dp2802
g86
g87
ssg75
g2796
sg68
(lp2803
S'wsgi.multiprocess'
p2804
asbag61
(g82
g63
NtRp2805
(dp2806
g66
(dp2807
g93
g94
ssg75
g2796
sg68
(lp2808
S':'
asbag61
(g82
g63
NtRp2809
(dp2810
g66
(dp2811
sg75
g2796
sg68
(lp2812
g61
(g62
g63
NtRp2813
(dp2814
g66
(dp2815
g74
I3
ssg75
g2809
sg68
(lp2816
g104
asbasbasbag61
(g77
g63
NtRp2817
(dp2818
g66
(dp2819
sg75
g2348
sg68
(lp2820
g61
(g82
g63
NtRp2821
(dp2822
g66
(dp2823
g86
g87
ssg75
g2817
sg68
(lp2824
S'wsgi.multithread'
p2825
asbag61
(g82
g63
NtRp2826
(dp2827
g66
(dp2828
g93
g94
ssg75
g2817
sg68
(lp2829
S':'
asbag61
(g82
g63
NtRp2830
(dp2831
g66
(dp2832
sg75
g2817
sg68
(lp2833
g61
(g62
g63
NtRp2834
(dp2835
g66
(dp2836
g74
I3
ssg75
g2830
sg68
(lp2837
g1599
asbasbasbag61
(g77
g63
NtRp2838
(dp2839
g66
(dp2840
sg75
g2348
sg68
(lp2841
g61
(g82
g63
NtRp2842
(dp2843
g66
(dp2844
g86
g87
ssg75
g2838
sg68
(lp2845
S'wsgi.run_once'
p2846
asbag61
(g82
g63
NtRp2847
(dp2848
g66
(dp2849
g93
g94
ssg75
g2838
sg68
(lp2850
S':'
asbag61
(g82
g63
NtRp2851
(dp2852
g66
(dp2853
sg75
g2838
sg68
(lp2854
g61
(g62
g63
NtRp2855
(dp2856
g66
(dp2857
g74
I3
ssg75
g2851
sg68
(lp2858
g104
asbasbasbag61
(g77
g63
NtRp2859
(dp2860
g66
(dp2861
sg75
g2348
sg68
(lp2862
g61
(g82
g63
NtRp2863
(dp2864
g66
(dp2865
g86
g87
ssg75
g2859
sg68
(lp2866
S'wsgi.url_scheme'
p2867
asbag61
(g82
g63
NtRp2868
(dp2869
g66
(dp2870
g93
g94
ssg75
g2859
sg68
(lp2871
S':'
asbag61
(g82
g63
NtRp2872
(dp2873
g66
(dp2874
sg75
g2859
sg68
(lp2875
g61
(g62
g63
NtRp2876
(dp2877
g66
(dp2878
g74
I3
ssg75
g2872
sg68
(lp2879
g1642
asbasbasbag61
(g77
g63
NtRp2880
(dp2881
g66
(dp2882
sg75
g2348
sg68
(lp2883
g61
(g82
g63
NtRp2884
(dp2885
g66
(dp2886
g86
g87
ssg75
g2880
sg68
(lp2887
S'wsgi.version'
p2888
asbag61
(g82
g63
NtRp2889
(dp2890
g66
(dp2891
g93
g94
ssg75
g2880
sg68
(lp2892
S':'
asbag61
(g82
g63
NtRp2893
(dp2894
g66
(dp2895
sg75
g2880
sg68
(lp2896
g61
(g62
g63
NtRp2897
(dp2898
g66
(dp2899
g74
I3
ssg75
g2893
sg68
(lp2900
S'1'
asbasbasbasbasbasbasbasbasbasbasbasbasbsS'frames'
p2901
(lp2902
(dp2903
S'file'
p2904
S'D:\\Dise\xf1o Web\\Proyectos\\Parleyweb\\web2py\\gluon\\restricted.py'
p2905
sS'dump'
p2906
(dp2907
sS'lnum'
p2908
I204
sS'lines'
p2909
(dp2910
sS'call'
p2911
S"(code='\\nformulario_busqueda = SQLFORM(db.busqueda, form...alabras.palabra, limitby=(0,10), min_length=2)\\n\\n\\n', environment={'A': <class 'gluon.html.A'>, 'Auth': <class 'gluon.tools.Auth'>, 'B': <class 'gluon.html.B'>, 'BEAUTIFY': <class 'gluon.html.BEAUTIFY'>, 'BODY': <class 'gluon.html.BODY'>, 'BR': <class 'gluon.html.BR'>, 'BUTTON': <class 'gluon.html.BUTTON'>, 'CAT': <class 'gluon.html.CAT'>, 'CENTER': <class 'gluon.html.CENTER'>, 'CLEANUP': <class 'gluon.validators.CLEANUP'>, ...}, layer='D:\\\\Dise\\xf1o Web\\\\Proyectos\\\\Parleyweb\\\\web2py\\\\applications\\\\parleyweb\\\\models\\\\globales.py')"
p2912
sS'func'
p2913
S'restricted'
p2914
sa(dp2915
g2904
S'D:\\Dise\xf1o Web\\Proyectos\\Parleyweb\\web2py\\gluon\\restricted.py'
p2916
sg2906
(dp2917
sg2908
I189
sg2909
(dp2918
sg2911
S"(code='\\nformulario_busqueda = SQLFORM(db.busqueda, form...alabras.palabra, limitby=(0,10), min_length=2)\\n\\n\\n', layer='D:\\\\Dise\\xf1o Web\\\\Proyectos\\\\Parleyweb\\\\web2py\\\\applications\\\\parleyweb\\\\models\\\\globales.py')"
p2919
sg2913
S'compile2'
p2920
sasS'pyver'
p2921
S'Python 2.5.4: D:\\Dise\xf1o Web\\Proyectos\\Parleyweb\\web2py\\web2py.exe'
p2922
sS'session'
p2923
g61
(g62
g63
NtRp2924
(dp2925
g66
(dp2926
sg68
(lp2927
g61
(g70
g63
NtRp2928
(dp2929
g66
(dp2930
g74
I5
ssg75
Nsg68
(lp2931
sbasbsS'etype'
p2932
S"<type 'exceptions.SyntaxError'>"
p2933
sS'date'
p2934
S'Sat Mar 17 01:15:23 2012'
p2935
sS'response'
p2936
g61
(g62
g63
NtRp2937
(dp2938
g66
(dp2939
sg68
(lp2940
g61
(g70
g63
NtRp2941
(dp2942
g66
(dp2943
g74
I5
ssg75
Nsg68
(lp2944
g61
(g77
g63
NtRp2945
(dp2946
g66
(dp2947
sg75
g2941
sg68
(lp2948
g61
(g82
g63
NtRp2949
(dp2950
g66
(dp2951
g86
g87
ssg75
g2945
sg68
(lp2952
g159
asbag61
(g82
g63
NtRp2953
(dp2954
g66
(dp2955
g93
g94
ssg75
g2945
sg68
(lp2956
S':'
asbag61
(g82
g63
NtRp2957
(dp2958
g66
(dp2959
sg75
g2945
sg68
(lp2960
g61
(g62
g63
NtRp2961
(dp2962
g66
(dp2963
g74
I5
ssg75
g2957
sg68
(lp2964
S'<cStringIO.StringO object at 0x07FFF5E0>'
p2965
asbasbasbag61
(g77
g63
NtRp2966
(dp2967
g66
(dp2968
sg75
g2941
sg68
(lp2969
g61
(g82
g63
NtRp2970
(dp2971
g66
(dp2972
g86
g87
ssg75
g2966
sg68
(lp2973
g225
asbag61
(g82
g63
NtRp2974
(dp2975
g66
(dp2976
g93
g94
ssg75
g2966
sg68
(lp2977
S':'
asbag61
(g82
g63
NtRp2978
(dp2979
g66
(dp2980
sg75
g2966
sg68
(lp2981
g61
(g62
g63
NtRp2982
(dp2983
g66
(dp2984
g74
I5
ssg75
g2978
sg68
(lp2985
g61
(g70
g63
NtRp2986
(dp2987
g66
(dp2988
g74
I4
ssg75
Nsg68
(lp2989
g61
(g77
g63
NtRp2990
(dp2991
g66
(dp2992
sg75
g2986
sg68
(lp2993
g61
(g82
g63
NtRp2994
(dp2995
g66
(dp2996
g86
g87
ssg75
g2990
sg68
(lp2997
S'session_id_parleyweb'
p2998
asbag61
(g82
g63
NtRp2999
(dp3000
g66
(dp3001
g93
g94
ssg75
g2990
sg68
(lp3002
S':'
asbag61
(g82
g63
NtRp3003
(dp3004
g66
(dp3005
sg75
g2990
sg68
(lp3006
g61
(g62
g63
NtRp3007
(dp3008
g66
(dp3009
g74
I4
ssg75
g3003
sg68
(lp3010
g61
(g70
g63
NtRp3011
(dp3012
g66
(dp3013
g74
I3
ssg75
Nsg68
(lp3014
g61
(g77
g63
NtRp3015
(dp3016
g66
(dp3017
sg75
g3011
sg68
(lp3018
g61
(g82
g63
NtRp3019
(dp3020
g66
(dp3021
g86
g87
ssg75
g3015
sg68
(lp3022
g275
asbag61
(g82
g63
NtRp3023
(dp3024
g66
(dp3025
g93
g94
ssg75
g3015
sg68
(lp3026
S':'
asbag61
(g82
g63
NtRp3027
(dp3028
g66
(dp3029
sg75
g3015
sg68
(lp3030
g61
(g62
g63
NtRp3031
(dp3032
g66
(dp3033
g74
I3
ssg75
g3027
sg68
(lp3034
S''
asbasbasbag61
(g77
g63
NtRp3035
(dp3036
g66
(dp3037
sg75
g3011
sg68
(lp3038
g61
(g82
g63
NtRp3039
(dp3040
g66
(dp3041
g86
g87
ssg75
g3035
sg68
(lp3042
g296
asbag61
(g82
g63
NtRp3043
(dp3044
g66
(dp3045
g93
g94
ssg75
g3035
sg68
(lp3046
S':'
asbag61
(g82
g63
NtRp3047
(dp3048
g66
(dp3049
sg75
g3035
sg68
(lp3050
g61
(g62
g63
NtRp3051
(dp3052
g66
(dp3053
g74
I3
ssg75
g3047
sg68
(lp3054
S''
asbasbasbag61
(g77
g63
NtRp3055
(dp3056
g66
(dp3057
sg75
g3011
sg68
(lp3058
g61
(g82
g63
NtRp3059
(dp3060
g66
(dp3061
g86
g87
ssg75
g3055
sg68
(lp3062
g317
asbag61
(g82
g63
NtRp3063
(dp3064
g66
(dp3065
g93
g94
ssg75
g3055
sg68
(lp3066
S':'
asbag61
(g82
g63
NtRp3067
(dp3068
g66
(dp3069
sg75
g3055
sg68
(lp3070
g61
(g62
g63
NtRp3071
(dp3072
g66
(dp3073
g74
I3
ssg75
g3067
sg68
(lp3074
S''
asbasbasbag61
(g77
g63
NtRp3075
(dp3076
g66
(dp3077
sg75
g3011
sg68
(lp3078
g61
(g82
g63
NtRp3079
(dp3080
g66
(dp3081
g86
g87
ssg75
g3075
sg68
(lp3082
g338
asbag61
(g82
g63
NtRp3083
(dp3084
g66
(dp3085
g93
g94
ssg75
g3075
sg68
(lp3086
S':'
asbag61
(g82
g63
NtRp3087
(dp3088
g66
(dp3089
sg75
g3075
sg68
(lp3090
g61
(g62
g63
NtRp3091
(dp3092
g66
(dp3093
g74
I3
ssg75
g3087
sg68
(lp3094
S''
asbasbasbag61
(g77
g63
NtRp3095
(dp3096
g66
(dp3097
sg75
g3011
sg68
(lp3098
g61
(g82
g63
NtRp3099
(dp3100
g66
(dp3101
g86
g87
ssg75
g3095
sg68
(lp3102
g359
asbag61
(g82
g63
NtRp3103
(dp3104
g66
(dp3105
g93
g94
ssg75
g3095
sg68
(lp3106
S':'
asbag61
(g82
g63
NtRp3107
(dp3108
g66
(dp3109
sg75
g3095
sg68
(lp3110
g61
(g62
g63
NtRp3111
(dp3112
g66
(dp3113
g74
I3
ssg75
g3107
sg68
(lp3114
S'/'
asbasbasbag61
(g77
g63
NtRp3115
(dp3116
g66
(dp3117
sg75
g3011
sg68
(lp3118
g61
(g82
g63
NtRp3119
(dp3120
g66
(dp3121
g86
g87
ssg75
g3115
sg68
(lp3122
g380
asbag61
(g82
g63
NtRp3123
(dp3124
g66
(dp3125
g93
g94
ssg75
g3115
sg68
(lp3126
S':'
asbag61
(g82
g63
NtRp3127
(dp3128
g66
(dp3129
sg75
g3115
sg68
(lp3130
g61
(g62
g63
NtRp3131
(dp3132
g66
(dp3133
g74
I3
ssg75
g3127
sg68
(lp3134
S''
asbasbasbag61
(g77
g63
NtRp3135
(dp3136
g66
(dp3137
sg75
g3011
sg68
(lp3138
g61
(g82
g63
NtRp3139
(dp3140
g66
(dp3141
g86
g87
ssg75
g3135
sg68
(lp3142
g401
asbag61
(g82
g63
NtRp3143
(dp3144
g66
(dp3145
g93
g94
ssg75
g3135
sg68
(lp3146
S':'
asbag61
(g82
g63
NtRp3147
(dp3148
g66
(dp3149
sg75
g3135
sg68
(lp3150
g61
(g62
g63
NtRp3151
(dp3152
g66
(dp3153
g74
I3
ssg75
g3147
sg68
(lp3154
S''
asbasbasbasbasbasbasbasbasbasbasbag61
(g77
g63
NtRp3155
(dp3156
g66
(dp3157
sg75
g2941
sg68
(lp3158
g61
(g82
g63
NtRp3159
(dp3160
g66
(dp3161
g86
g87
ssg75
g3155
sg68
(lp3162
S'delimiters'
p3163
asbag61
(g82
g63
NtRp3164
(dp3165
g66
(dp3166
g93
g94
ssg75
g3155
sg68
(lp3167
S':'
asbag61
(g82
g63
NtRp3168
(dp3169
g66
(dp3170
sg75
g3155
sg68
(lp3171
g61
(g62
g63
NtRp3172
(dp3173
g66
(dp3174
g74
I5
ssg75
g3168
sg68
(lp3175
g61
(g70
g63
NtRp3176
(dp3177
g66
(dp3178
g74
I4
ssg75
Nsg68
(lp3179
g61
(g77
g63
NtRp3180
(dp3181
g66
(dp3182
sg75
g3176
sg68
(lp3183
g61
(g82
g63
NtRp3184
(dp3185
g66
(dp3186
sg75
g3180
sg68
(lp3187
g61
(g62
g63
NtRp3188
(dp3189
g66
(dp3190
g74
I4
ssg75
g3184
sg68
(lp3191
S'{{'
p3192
asbasbasbag61
(g77
g63
NtRp3193
(dp3194
g66
(dp3195
sg75
g3176
sg68
(lp3196
g61
(g82
g63
NtRp3197
(dp3198
g66
(dp3199
sg75
g3193
sg68
(lp3200
g61
(g62
g63
NtRp3201
(dp3202
g66
(dp3203
g74
I4
ssg75
g3197
sg68
(lp3204
S'}}'
p3205
asbasbasbasbasbasbasbag61
(g77
g63
NtRp3206
(dp3207
g66
(dp3208
sg75
g2941
sg68
(lp3209
g61
(g82
g63
NtRp3210
(dp3211
g66
(dp3212
g86
g87
ssg75
g3206
sg68
(lp3213
S'files'
p3214
asbag61
(g82
g63
NtRp3215
(dp3216
g66
(dp3217
g93
g94
ssg75
g3206
sg68
(lp3218
S':'
asbag61
(g82
g63
NtRp3219
(dp3220
g66
(dp3221
sg75
g3206
sg68
(lp3222
g61
(g62
g63
NtRp3223
(dp3224
g66
(dp3225
g74
I5
ssg75
g3219
sg68
(lp3226
g61
(g70
g63
NtRp3227
(dp3228
g66
(dp3229
g74
I4
ssg75
Nsg68
(lp3230
sbasbasbasbag61
(g77
g63
NtRp3231
(dp3232
g66
(dp3233
sg75
g2941
sg68
(lp3234
g61
(g82
g63
NtRp3235
(dp3236
g66
(dp3237
g86
g87
ssg75
g3231
sg68
(lp3238
S'flash'
p3239
asbag61
(g82
g63
NtRp3240
(dp3241
g66
(dp3242
g93
g94
ssg75
g3231
sg68
(lp3243
S':'
asbag61
(g82
g63
NtRp3244
(dp3245
g66
(dp3246
sg75
g3231
sg68
(lp3247
g61
(g62
g63
NtRp3248
(dp3249
g66
(dp3250
g74
I5
ssg75
g3244
sg68
(lp3251
S''
asbasbasbag61
(g77
g63
NtRp3252
(dp3253
g66
(dp3254
sg75
g2941
sg68
(lp3255
g61
(g82
g63
NtRp3256
(dp3257
g66
(dp3258
g86
g87
ssg75
g3252
sg68
(lp3259
S'generic_patterns'
p3260
asbag61
(g82
g63
NtRp3261
(dp3262
g66
(dp3263
g93
g94
ssg75
g3252
sg68
(lp3264
S':'
asbag61
(g82
g63
NtRp3265
(dp3266
g66
(dp3267
sg75
g3252
sg68
(lp3268
g61
(g62
g63
NtRp3269
(dp3270
g66
(dp3271
g74
I5
ssg75
g3265
sg68
(lp3272
g61
(g70
g63
NtRp3273
(dp3274
g66
(dp3275
g74
I4
ssg75
Nsg68
(lp3276
g61
(g77
g63
NtRp3277
(dp3278
g66
(dp3279
sg75
g3273
sg68
(lp3280
g61
(g82
g63
NtRp3281
(dp3282
g66
(dp3283
sg75
g3277
sg68
(lp3284
g61
(g62
g63
NtRp3285
(dp3286
g66
(dp3287
g74
I4
ssg75
g3281
sg68
(lp3288
S'*'
asbasbasbasbasbasbasbag61
(g77
g63
NtRp3289
(dp3290
g66
(dp3291
sg75
g2941
sg68
(lp3292
g61
(g82
g63
NtRp3293
(dp3294
g66
(dp3295
g86
g87
ssg75
g3289
sg68
(lp3296
S'headers'
p3297
asbag61
(g82
g63
NtRp3298
(dp3299
g66
(dp3300
g93
g94
ssg75
g3289
sg68
(lp3301
S':'
asbag61
(g82
g63
NtRp3302
(dp3303
g66
(dp3304
sg75
g3289
sg68
(lp3305
g61
(g62
g63
NtRp3306
(dp3307
g66
(dp3308
g74
I5
ssg75
g3302
sg68
(lp3309
g61
(g70
g63
NtRp3310
(dp3311
g66
(dp3312
g74
I4
ssg75
Nsg68
(lp3313
g61
(g77
g63
NtRp3314
(dp3315
g66
(dp3316
sg75
g3310
sg68
(lp3317
g61
(g82
g63
NtRp3318
(dp3319
g66
(dp3320
g86
g87
ssg75
g3314
sg68
(lp3321
S'Cache-Control'
p3322
asbag61
(g82
g63
NtRp3323
(dp3324
g66
(dp3325
g93
g94
ssg75
g3314
sg68
(lp3326
S':'
asbag61
(g82
g63
NtRp3327
(dp3328
g66
(dp3329
sg75
g3314
sg68
(lp3330
g61
(g62
g63
NtRp3331
(dp3332
g66
(dp3333
g74
I4
ssg75
g3327
sg68
(lp3334
S'no-store, no-cache, must-revalidate, post-check=0, pre-check=0'
p3335
asbasbasbag61
(g77
g63
NtRp3336
(dp3337
g66
(dp3338
sg75
g3310
sg68
(lp3339
g61
(g82
g63
NtRp3340
(dp3341
g66
(dp3342
g86
g87
ssg75
g3336
sg68
(lp3343
S'Content-Type'
p3344
asbag61
(g82
g63
NtRp3345
(dp3346
g66
(dp3347
g93
g94
ssg75
g3336
sg68
(lp3348
S':'
asbag61
(g82
g63
NtRp3349
(dp3350
g66
(dp3351
sg75
g3336
sg68
(lp3352
g61
(g62
g63
NtRp3353
(dp3354
g66
(dp3355
g74
I4
ssg75
g3349
sg68
(lp3356
S'text/html; charset=utf-8'
p3357
asbasbasbag61
(g77
g63
NtRp3358
(dp3359
g66
(dp3360
sg75
g3310
sg68
(lp3361
g61
(g82
g63
NtRp3362
(dp3363
g66
(dp3364
g86
g87
ssg75
g3358
sg68
(lp3365
S'Expires'
p3366
asbag61
(g82
g63
NtRp3367
(dp3368
g66
(dp3369
g93
g94
ssg75
g3358
sg68
(lp3370
S':'
asbag61
(g82
g63
NtRp3371
(dp3372
g66
(dp3373
sg75
g3358
sg68
(lp3374
g61
(g62
g63
NtRp3375
(dp3376
g66
(dp3377
g74
I4
ssg75
g3371
sg68
(lp3378
S'Sat, 17 Mar 2012 00:15:22 GMT'
p3379
asbasbasbag61
(g77
g63
NtRp3380
(dp3381
g66
(dp3382
sg75
g3310
sg68
(lp3383
g61
(g82
g63
NtRp3384
(dp3385
g66
(dp3386
g86
g87
ssg75
g3380
sg68
(lp3387
S'Pragma'
p3388
asbag61
(g82
g63
NtRp3389
(dp3390
g66
(dp3391
g93
g94
ssg75
g3380
sg68
(lp3392
S':'
asbag61
(g82
g63
NtRp3393
(dp3394
g66
(dp3395
sg75
g3380
sg68
(lp3396
g61
(g62
g63
NtRp3397
(dp3398
g66
(dp3399
g74
I4
ssg75
g3393
sg68
(lp3400
S'no-cache'
p3401
asbasbasbag61
(g77
g63
NtRp3402
(dp3403
g66
(dp3404
sg75
g3310
sg68
(lp3405
g61
(g82
g63
NtRp3406
(dp3407
g66
(dp3408
g86
g87
ssg75
g3402
sg68
(lp3409
S'X-Powered-By'
p3410
asbag61
(g82
g63
NtRp3411
(dp3412
g66
(dp3413
g93
g94
ssg75
g3402
sg68
(lp3414
S':'
asbag61
(g82
g63
NtRp3415
(dp3416
g66
(dp3417
sg75
g3402
sg68
(lp3418
g61
(g62
g63
NtRp3419
(dp3420
g66
(dp3421
g74
I4
ssg75
g3415
sg68
(lp3422
S'web2py'
p3423
asbasbasbasbasbasbasbag61
(g77
g63
NtRp3424
(dp3425
g66
(dp3426
sg75
g2941
sg68
(lp3427
g61
(g82
g63
NtRp3428
(dp3429
g66
(dp3430
g86
g87
ssg75
g3424
sg68
(lp3431
S'menu'
p3432
asbag61
(g82
g63
NtRp3433
(dp3434
g66
(dp3435
g93
g94
ssg75
g3424
sg68
(lp3436
S':'
asbag61
(g82
g63
NtRp3437
(dp3438
g66
(dp3439
sg75
g3424
sg68
(lp3440
g61
(g62
g63
NtRp3441
(dp3442
g66
(dp3443
g74
I5
ssg75
g3437
sg68
(lp3444
g61
(g70
g63
NtRp3445
(dp3446
g66
(dp3447
g74
I4
ssg75
Nsg68
(lp3448
sbasbasbasbag61
(g77
g63
NtRp3449
(dp3450
g66
(dp3451
sg75
g2941
sg68
(lp3452
g61
(g82
g63
NtRp3453
(dp3454
g66
(dp3455
g86
g87
ssg75
g3449
sg68
(lp3456
S'meta'
p3457
asbag61
(g82
g63
NtRp3458
(dp3459
g66
(dp3460
g93
g94
ssg75
g3449
sg68
(lp3461
S':'
asbag61
(g82
g63
NtRp3462
(dp3463
g66
(dp3464
sg75
g3449
sg68
(lp3465
g61
(g62
g63
NtRp3466
(dp3467
g66
(dp3468
g74
I5
ssg75
g3462
sg68
(lp3469
g61
(g70
g63
NtRp3470
(dp3471
g66
(dp3472
g74
I4
ssg75
Nsg68
(lp3473
sbasbasbasbag61
(g77
g63
NtRp3474
(dp3475
g66
(dp3476
sg75
g2941
sg68
(lp3477
g61
(g82
g63
NtRp3478
(dp3479
g66
(dp3480
g86
g87
ssg75
g3474
sg68
(lp3481
S'postprocessing'
p3482
asbag61
(g82
g63
NtRp3483
(dp3484
g66
(dp3485
g93
g94
ssg75
g3474
sg68
(lp3486
S':'
asbag61
(g82
g63
NtRp3487
(dp3488
g66
(dp3489
sg75
g3474
sg68
(lp3490
g61
(g62
g63
NtRp3491
(dp3492
g66
(dp3493
g74
I5
ssg75
g3487
sg68
(lp3494
g61
(g70
g63
NtRp3495
(dp3496
g66
(dp3497
g74
I4
ssg75
Nsg68
(lp3498
sbasbasbasbag61
(g77
g63
NtRp3499
(dp3500
g66
(dp3501
sg75
g2941
sg68
(lp3502
g61
(g82
g63
NtRp3503
(dp3504
g66
(dp3505
g86
g87
ssg75
g3499
sg68
(lp3506
S'session_file'
p3507
asbag61
(g82
g63
NtRp3508
(dp3509
g66
(dp3510
g93
g94
ssg75
g3499
sg68
(lp3511
S':'
asbag61
(g82
g63
NtRp3512
(dp3513
g66
(dp3514
sg75
g3499
sg68
(lp3515
g61
(g62
g63
NtRp3516
(dp3517
g66
(dp3518
g74
I5
ssg75
g3512
sg68
(lp3519
S"<open file 'D:\\Dise\xf1o Web\\Proyectos\\Parleyweb\\web2py\\applications\\parleyweb\\sessions\\127.0.0.1-0780c0c1-affd-425a-affb-ac061c4961c7', mode 'rb+' at 0x07734AD0>"
p3520
asbasbasbag61
(g77
g63
NtRp3521
(dp3522
g66
(dp3523
sg75
g2941
sg68
(lp3524
g61
(g82
g63
NtRp3525
(dp3526
g66
(dp3527
g86
g87
ssg75
g3521
sg68
(lp3528
S'session_filename'
p3529
asbag61
(g82
g63
NtRp3530
(dp3531
g66
(dp3532
g93
g94
ssg75
g3521
sg68
(lp3533
S':'
asbag61
(g82
g63
NtRp3534
(dp3535
g66
(dp3536
sg75
g3521
sg68
(lp3537
g61
(g62
g63
NtRp3538
(dp3539
g66
(dp3540
g74
I5
ssg75
g3534
sg68
(lp3541
S'D:\\Dise\xf1o Web\\Proyectos\\Parleyweb\\web2py\\applications\\parleyweb\\sessions\\127.0.0.1-0780c0c1-affd-425a-affb-ac061c4961c7'
p3542
asbasbasbag61
(g77
g63
NtRp3543
(dp3544
g66
(dp3545
sg75
g2941
sg68
(lp3546
g61
(g82
g63
NtRp3547
(dp3548
g66
(dp3549
g86
g87
ssg75
g3543
sg68
(lp3550
S'session_id'
p3551
asbag61
(g82
g63
NtRp3552
(dp3553
g66
(dp3554
g93
g94
ssg75
g3543
sg68
(lp3555
S':'
asbag61
(g82
g63
NtRp3556
(dp3557
g66
(dp3558
sg75
g3543
sg68
(lp3559
g61
(g62
g63
NtRp3560
(dp3561
g66
(dp3562
g74
I5
ssg75
g3556
sg68
(lp3563
S'127.0.0.1-0780c0c1-affd-425a-affb-ac061c4961c7'
p3564
asbasbasbag61
(g77
g63
NtRp3565
(dp3566
g66
(dp3567
sg75
g2941
sg68
(lp3568
g61
(g82
g63
NtRp3569
(dp3570
g66
(dp3571
g86
g87
ssg75
g3565
sg68
(lp3572
S'session_id_name'
p3573
asbag61
(g82
g63
NtRp3574
(dp3575
g66
(dp3576
g93
g94
ssg75
g3565
sg68
(lp3577
S':'
asbag61
(g82
g63
NtRp3578
(dp3579
g66
(dp3580
sg75
g3565
sg68
(lp3581
g61
(g62
g63
NtRp3582
(dp3583
g66
(dp3584
g74
I5
ssg75
g3578
sg68
(lp3585
g2998
asbasbasbag61
(g77
g63
NtRp3586
(dp3587
g66
(dp3588
sg75
g2941
sg68
(lp3589
g61
(g82
g63
NtRp3590
(dp3591
g66
(dp3592
g86
g87
ssg75
g3586
sg68
(lp3593
S'session_locked'
p3594
asbag61
(g82
g63
NtRp3595
(dp3596
g66
(dp3597
g93
g94
ssg75
g3586
sg68
(lp3598
S':'
asbag61
(g82
g63
NtRp3599
(dp3600
g66
(dp3601
sg75
g3586
sg68
(lp3602
g61
(g62
g63
NtRp3603
(dp3604
g66
(dp3605
g74
I5
ssg75
g3599
sg68
(lp3606
g1599
asbasbasbag61
(g77
g63
NtRp3607
(dp3608
g66
(dp3609
sg75
g2941
sg68
(lp3610
g61
(g82
g63
NtRp3611
(dp3612
g66
(dp3613
g86
g87
ssg75
g3607
sg68
(lp3614
S'session_new'
p3615
asbag61
(g82
g63
NtRp3616
(dp3617
g66
(dp3618
g93
g94
ssg75
g3607
sg68
(lp3619
S':'
asbag61
(g82
g63
NtRp3620
(dp3621
g66
(dp3622
sg75
g3607
sg68
(lp3623
g61
(g62
g63
NtRp3624
(dp3625
g66
(dp3626
g74
I5
ssg75
g3620
sg68
(lp3627
g104
asbasbasbag61
(g77
g63
NtRp3628
(dp3629
g66
(dp3630
sg75
g2941
sg68
(lp3631
g61
(g82
g63
NtRp3632
(dp3633
g66
(dp3634
g86
g87
ssg75
g3628
sg68
(lp3635
S'status'
p3636
asbag61
(g82
g63
NtRp3637
(dp3638
g66
(dp3639
g93
g94
ssg75
g3628
sg68
(lp3640
S':'
asbag61
(g82
g63
NtRp3641
(dp3642
g66
(dp3643
sg75
g3628
sg68
(lp3644
g61
(g62
g63
NtRp3645
(dp3646
g66
(dp3647
g74
I5
ssg75
g3641
sg68
(lp3648
S'200'
p3649
asbasbasbag61
(g77
g63
NtRp3650
(dp3651
g66
(dp3652
sg75
g2941
sg68
(lp3653
g61
(g82
g63
NtRp3654
(dp3655
g66
(dp3656
g86
g87
ssg75
g3650
sg68
(lp3657
g2263
asbag61
(g82
g63
NtRp3658
(dp3659
g66
(dp3660
g93
g94
ssg75
g3650
sg68
(lp3661
S':'
asbag61
(g82
g63
NtRp3662
(dp3663
g66
(dp3664
sg75
g3650
sg68
(lp3665
g61
(g62
g63
NtRp3666
(dp3667
g66
(dp3668
g74
I5
ssg75
g3662
sg68
(lp3669
g2276
asbasbasbag61
(g77
g63
NtRp3670
(dp3671
g66
(dp3672
sg75
g2941
sg68
(lp3673
g61
(g82
g63
NtRp3674
(dp3675
g66
(dp3676
g86
g87
ssg75
g3670
sg68
(lp3677
S'view'
p3678
asbag61
(g82
g63
NtRp3679
(dp3680
g66
(dp3681
g93
g94
ssg75
g3670
sg68
(lp3682
S':'
asbag61
(g82
g63
NtRp3683
(dp3684
g66
(dp3685
sg75
g3670
sg68
(lp3686
g61
(g62
g63
NtRp3687
(dp3688
g66
(dp3689
g74
I5
ssg75
g3683
sg68
(lp3690
S'admin/index.html'
p3691
asbasbasbasbasbsS'locals'
p3692
(dp3693
g4
S"'D:\\\\Dise\\xf1o Web\\\\Proyectos\\\\Parleyweb\\\\web2py\\\\applications\\\\parleyweb\\\\models\\\\globales.py'"
p3694
sg6
S"'\\nformulario_busqueda = SQLFORM(db.busqueda, form...alabras.palabra, limitby=(0,10), min_length=2)\\n\\n\\n'"
p3695
sssS'traceback'
p3696
S'Traceback (most recent call last):\n  File "gluon/restricted.py", line 204, in restricted\n  File "gluon/restricted.py", line 189, in compile2\n  File "D:\\Dise\xf1o Web\\Proyectos\\Parleyweb\\web2py\\applications\\parleyweb\\models\\globales.py", line 10\n    #     request, db.palabras.palabra, limitby=(0,10), min_length=2)\n                                                                    \n^\nSyntaxError: invalid syntax\n'
p3697
s.