(dp1
S'output'
p2
S"<type 'exceptions.TypeError'> URL() got an unexpected keyword argument 'raw_args'"
p3
sS'layer'
p4
S'D:\\Dise\xf1o Web\\Proyectos\\Parleyweb\\web2py\\applications\\parleyweb\\views\\admin/agregar_palabra.html'
p5
sS'code'
p6
S'response.write(\'<!DOCTYPE html>\\n<!-- paulirish.com/2008/conditional-stylesheets-vs-css-hacks-answer-neither/ -->\\n<!--[if lt IE 7]><html class="ie ie6 ie-lte9 ie-lte8 ie-lte7 no-js" lang="\', escape=False)\nresponse.write(T.accepted_language or \'en\')\nresponse.write(\'"> <![endif]-->\\n<!--[if IE 7]><html class="ie ie7 ie-lte9 ie-lte8 ie-lte7 no-js" lang="\', escape=False)\nresponse.write(T.accepted_language or \'en\')\nresponse.write(\'"> <![endif]-->\\n<!--[if IE 8]><html class="ie ie8 ie-lte9 ie-lte8 no-js" lang="\', escape=False)\nresponse.write(T.accepted_language or \'en\')\nresponse.write(\'"> <![endif]-->\\n<!--[if IE 9]><html class="ie9 ie-lte9 no-js" lang="\', escape=False)\nresponse.write(T.accepted_language or \'en\')\nresponse.write(\'"> <![endif]-->\\n<!--[if (gt IE 9)|!(IE)]><!--> <html class="no-js" lang="\', escape=False)\nresponse.write(T.accepted_language or \'en\')\nresponse.write(\'"> <!--<![endif]-->\\n<head>\\n  <meta charset="utf-8" />\\n  <!-- www.phpied.com/conditional-comments-block-downloads/ -->\\n  <!-- Always force latest IE rendering engine\\n\\t   (even in intranet) & Chrome Frame\\n\\t   Remove this if you use the .htaccess -->\\n  <!--[if IE]>\\n    <meta http-equiv="X-UA-Compatible" content="IE=edge\', escape=False)\nresponse.write(not request.is_local and \',chrome=1\' or \'\')\nresponse.write(\'">\\n  <![endif]-->\\n  \\n  <title>\', escape=False)\nresponse.write(response.title or request.application)\nresponse.write(\'</title>\\n  \\n  <!-- http://dev.w3.org/html5/markup/meta.name.html -->\\n  <meta name="application-name" content="\', escape=False)\nresponse.write(request.application)\nresponse.write(\'" />\\n  \\n  <!-- Speaking of Google, don\\\'t forget to set your site up:\\n\\t   http://google.com/webmasters -->\\n  <meta name="google-site-verification" content="" />\\n\\n  <!--  Mobile Viewport Fix\\n\\t  j.mp/mobileviewport & davidbcalhoun.com/2010/viewport-metatag\\n\\t  device-width: Occupy full width of the screen in its current orientation\\n\\t  initial-scale = 1.0 retains dimensions instead of zooming out if page height > device height\\n\\t  user-scalable = yes allows the user to zoom in -->\\n  <meta name="viewport" content="width=device-width, initial-scale=1.0, user-scalable=yes">\\n  \\n  <!-- Place favicon.ico and apple-touch-icon.png in the root of your domain and delete these references -->\\n  <link rel="shortcut icon" href="\', escape=False)\nresponse.write(URL(\'static\',\'favicon.ico\'))\nresponse.write(\'" type="image/x-icon">\\n  <link rel="apple-touch-icon" href="\', escape=False)\nresponse.write(URL(\'static\',\'favicon.png\'))\nresponse.write(\'">\\n\\n  <!-- All JavaScript at the bottom, except for Modernizr which enables \\n\\t   HTML5 elements & feature detects -->\\n  <script src="\', escape=False)\nresponse.write(URL(\'static\',\'js/modernizr.custom.js\'))\nresponse.write(\'"></script>  \\n\\n  <!-- include stylesheets -->\\n  \', escape=False)\nresponse.files.append(URL(\'static\',\'css/bootstrap.css\'))\nresponse.files.append(URL(\'static\',\'js/bootstrap.js\'))\nresponse.files.append(URL(\'static\',\'js/jquery.tokeninput.js\'))\nresponse.files.append(URL(\'static\',\'css/parleyweb.css\'))\nresponse.files.append(URL(\'static\',\'css/jqtransform.css\'))\nresponse.files.append(URL(\'static\',\'js/parleyweb.js\'))\nresponse.files.append(URL(\'static\',\'js/jquery.jqtransform.js\'))\nresponse.write(\'\\n\\n  \', escape=False)\nresponse.write(\'<script type="text/javascript"><!--\\n    // These variables are used by the web2py_ajax_init function in web2py_ajax.js (which is loaded below).\\n    var w2p_ajax_confirm_message = "\', escape=False)\nresponse.write(T(\'Are you sure you want to delete this object?\'))\nresponse.write(\'";\\n    var w2p_ajax_date_format = "\', escape=False)\nresponse.write(T(\'%Y-%m-%d\'))\nresponse.write(\'";\\n    var w2p_ajax_datetime_format = "\', escape=False)\nresponse.write(T(\'%Y-%m-%d %H:%M:%S\'))\nresponse.write(\'";\\n    //--></script>\\n\', escape=False)\nresponse.files.insert(0,URL(\'static\',\'js/jquery.js\'))\nresponse.files.insert(1,URL(\'static\',\'css/calendar.css\'))\nresponse.files.insert(2,URL(\'static\',\'js/calendar.js\'))\nresponse.files.insert(3,URL(\'static\',\'js/web2py.js\'))\nresponse.include_meta()\nresponse.include_files()\nresponse.write(\'\\n\', escape=False)\nresponse.write(\'\\n\\n  \\n\\n  \', escape=False)\n# using sidebars need to know what sidebar you want to use\nleft_sidebar_enabled = globals().get(\'left_sidebar_enabled\',False)\nright_sidebar_enabled = globals().get(\'right_sidebar_enabled\',False)\nmiddle_columns = {0:\'sixteen\',1:\'twelve\',2:\'eight\'}[\n(left_sidebar_enabled and 1 or 0)+(right_sidebar_enabled and 1 or 0)]\nresponse.write(\'\\n\\n  <!-- uncomment here to load jquery-ui\\n  <link rel="stylesheet" href="http://ajax.googleapis.com/ajax/libs/jqueryui/1.8.16/themes/base/jquery-ui.css" type="text/css" media="all" />\\n  <script src="http://ajax.googleapis.com/ajax/libs/jqueryui/1.8.16/jquery-ui.min.js" type="text/javascript"></script>\\n  uncomment to load jquery-ui //-->\\n</head>\\n <body>\\n\\n    <div class="navbar navbar-fixed-top">\\n      <div class="navbar-inner">\\n        <div class="container-fluid">\\n          <a class="btn btn-navbar" data-toggle="collapse" data-target=".nav-collapse">\\n            <span class="icon-bar"></span>\\n            <span class="icon-bar"></span>\\n            <span class="icon-bar"></span>\\n          </a>\\n          <a class="brand" href=\', escape=False)\nresponse.write(URL(\'index\'))\nresponse.write(\'>Administracion</a>\\n          <div class="nav-collapse">\\n\\t    \', escape=False)\n#=MENU(response.menu, _class="nav active")\nresponse.write(\'\\n            <ul class="nav">\\n\\t      <li>\', escape=False)\nresponse.write(A(T(\'Parleyweb\'), _href=URL(\'default\',\'index\')))\nresponse.write(\'</li>\\n\\t      <!--<li class="dropdown" id="menu2">\\n\\t\\t<a class="dropdown-toggle" data-toggle="dropdown" href="web2py-utilidades"}}>\\n\\t\\t\', escape=False)\nresponse.write(T(\'Web2py utilidades\'))\nresponse.write(\'\\n\\t\\t<b class="caret"></b>\\n\\t\\t</a>\\n\\t\\t<ul class="dropdown-menu">\\n\\t\\t<li>\', escape=False)\nresponse.write(A(T(\'Sqlgrid palabra\'), _href=URL(\'admin\',\'agregar_palabra_grid\')))\nresponse.write(\'</li>\\n\\t\\t</ul>\\n\\t      </li> -->\\n            </ul> \\n\\t    \\n            <p class="navbar-text pull-right">\', escape=False)\nresponse.write(\'auth\' in globals() and auth.navbar(separators=(\' \',\' | \',\'\')))\nresponse.write(\'</p>\\n          </div><!--/.nav-collapse -->\\n        </div>\\n      </div>\\n    </div>\\n    <div class="flash alert alert-info"></i>\', escape=False)\nresponse.write(response.flash or \'\')\nresponse.write(\'</div>\\n    <div class="container-fluid">\\n      <div class="row-fluid">\\n\\t\\n        <div class="span3">\\n\\t  \\n          <div class="well sidebar-nav">\\n            <ul class="nav nav-list">\\n              <li class="nav-header">Agregar</li>\\n              <li>\', escape=False)\nresponse.write(A(T(\'Palabra\'), _href=URL(\'admin\',\'agregar_palabra\')))\nresponse.write(\'</li>\\n\\t      <li>\', escape=False)\nresponse.write(A(T(\'Ejemplo\'), _href=URL(\'admin\',\'agregar_ejemplo\')))\nresponse.write(\'</li>\\n\\t      <li>\', escape=False)\nresponse.write(A(T(\'Fuente\'), _href=URL(\'admin\',\'agregar_fuente\')))\nresponse.write(\'</li>\\n\\t      <li>\', escape=False)\nresponse.write(A(T(\'Glosario\'), _href=URL(\'admin\',\'agregar_glosario\')))\nresponse.write(\'</li>\\n\\t      \', escape=False)\nresponse.write(\'\\n\\t      \', escape=False)\nresponse.write(\'\\n              <li class="nav-header">Estadisticas</li>\\n\\t      \', escape=False)\nresponse.write(\'<!--INICIO bloque estadistica del menu -->             \\n        <table class="table table-striped table-bordered" id="estadisticas">\\n            <tbody>\\n                <tr>\\n                    <td><h4>Total palabras</h4></td>\\n                    <td class="text_center"><span class="label label-success estadisticas" >\', escape=False)\nresponse.write(contador)\nresponse.write(\'</span></td>\\n                </tr>\\n            </tbody>\\n          </table>\\n    \', escape=False)\nresponse.write(\'\\n    \\n            </ul>\\n          </div><!--/.well -->\\n\\t \\n        </div><!--/span-->\\n\\t\\n\\t \\n\\t\\n        <div class="span9">\\n\\t  \', escape=False)\nresponse.write(\'\\n\\t  \\n           \\n\\t   \', escape=False)\nresponse.write(\'\\n\\n    \', escape=False)\nresponse.write(\' <!-- FIN bloque estadistica del menu --> \\n                                        \\n    <div class="opciones"> \\n        <h3><i></i>Agregar Palabra</h3>\\n        <div class="wellparley"> <!--INICIO bloque formulario -->\\n            \', escape=False)\nresponse.write(agregar.custom.begin)\nresponse.write(\'\\n            <div class="formularios_admin">\\n                <div class="primer_hijo"><h4>Palabra:</h4>\', escape=False)\nresponse.write(agregar.custom.widget.palabra)\nresponse.write(\'</div>\\n                <div class="primer_hijo">\\n                    <div><h4>Sustantivo</h4>\', escape=False)\nresponse.write(agregar.custom.widget.sustantivo)\nresponse.write(\'</div>\\n                    <div><h4>Glosario</h4>\', escape=False)\nresponse.write(agregar.custom.widget.anadir_glosario)\nresponse.write(\'</div>\\n                    <div><h4>Verbo</h4>\', escape=False)\nresponse.write(agregar.custom.widget.verbo)\nresponse.write(\'</div>\\n                    <div><h4>Adverbio</h4>\', escape=False)\nresponse.write(agregar.custom.widget.adverbio)\nresponse.write(\'</div>\\n                    <div><h4>Adjetivo</h4>\', escape=False)\nresponse.write(agregar.custom.widget.adjetivo)\nresponse.write(\'</div>\\n                </div>\\n            </div>\\n            <div class="formularios_admin oculto segundo_hijo">\\n                <div><h4>Art\\xc3\\xadculo:</h4>\', escape=False)\nresponse.write(agregar.custom.widget.articulo)\nresponse.write(\'</div>\\n                <div><h4>Plural</h4>\', escape=False)\nresponse.write(agregar.custom.widget.plural)\nresponse.write(\'</div>\\n                <div><h4>Imagen</h4>\', escape=False)\nresponse.write(agregar.custom.widget.imagen)\nresponse.write(\'</div>\\n            </div>\\n            <div class="formularios_admin oculto2 segundo_hijo">\\n                <div class="bloque bloque1"> <!-- bloque para las propiedades del verbo -->\\n                    <div><h4>Participio II</h4>\', escape=False)\nresponse.write(agregar.custom.widget.participio2)\nresponse.write(\'</div>\\n                    <div><h4>Irregular</h4>\', escape=False)\nresponse.write(agregar.custom.widget.verbo_irregular)\nresponse.write(\'</div>\\n                    <div><h4>Reflexivo</h4>\', escape=False)\nresponse.write(agregar.custom.widget.reflexivo)\nresponse.write(\'</div>\\n                </div>\\n                <div class="bloque bloque2"> <!-- bloque para la conjugacion del verbo -->\\n                    <div><h4>Ich</h4>\', escape=False)\nresponse.write(agregar.custom.widget.presente_1)\nresponse.write(\'</div>\\n                    <div><h4>Du</h4>\', escape=False)\nresponse.write(agregar.custom.widget.presente_2)\nresponse.write(\'</div>\\n                    <div><h4>Er, sie, es</h4>\', escape=False)\nresponse.write(agregar.custom.widget.presente_3)\nresponse.write(\'</div>\\n                    <div><h4>Wir</h4>\', escape=False)\nresponse.write(agregar.custom.widget.presente_1_p)\nresponse.write(\'</div>\\n                    <div><h4>Ihr</h4>\', escape=False)\nresponse.write(agregar.custom.widget.presente_2_p)\nresponse.write(\'</div>\\n                    <div><h4>Sie</h4>\', escape=False)\nresponse.write(agregar.custom.widget.presente_3_p)\nresponse.write(\'</div>\\n                </div>\\n            </div>\\n             <div class="formularios_admin oculto3 segundo_hijo">\\n                <div><h4>Glosario:</h4>\', escape=False)\nresponse.write(agregar.custom.widget.glosario)\nresponse.write(\'</div>\\n            </div>\\n            <div class="formularios_admin">\\n                <div id="enviar_agregar">\', escape=False)\nresponse.write(agregar.custom.submit)\nresponse.write(\'</div>\\n            </div>\\n            \', escape=False)\nresponse.write(agregar.custom.end)\nresponse.write(\'\\n        </div>  <!--FIN bloque formulario -->\\n        \\n        <h3>Ultimas palabras</h3> <!--INICIO tabla ultimas palabras -->\\n        <div class="wellparley">  <!-- wellparley2 Inicio -->           \\n            <table class="table table-striped table-bordered" id="pa">\\n                <thead>\\n                    <tr>\\n                        <th>ID</th>\\n                        <th>Palabra</th>\\n                        <th>Opciones</th>\\n                        <th>Info</th>\\n                    </tr>\\n                </thead>\\n                <tbody>\\n                    \', escape=False)\nfor i in consulta:\n    response.write(\'\\n                    <tr>\\n                        <td><span class="label label-info">\', escape=False)\n    response.write(i.id)\n    response.write(\'</span></td>\\n                        <td><p>\', escape=False)\n    response.write(A(T(i.palabra), _href=URL(\'default\',\'mostrar\', args=i.id)))\n    response.write(\'<p></td>\\n                        <td><a data-toggle="modal" href=\', escape=False)\n    response.write(URL(\'editar_palabra\', args=i.id))\n    response.write(\'><i class="icon-pencil"></i>Editar</a>\\n                        <a data-toggle="modal"  href=\', escape=False)\n    response.write(URL(\'borrar_palabra\', raw_args=i.id))\n    response.write(\'><i class="icon-trash"></i>Borrar</a>\\n                        <a data-toggle="modal"  href=\', escape=False)\n    response.write(URL(\'relacionar_ejemplo\', args=i.id))\n    response.write(\'><i class="icon-plus-sign"></i>Relacionar ejemplo</a>\\n                        </td>\\n                        <td>\\n                        \', escape=False)\n    conta=0\n    response.write(\'    \\n                        \', escape=False)\n    for cont in contador_ejemplo:\n        response.write(\'\\n                            \', escape=False)\n        if cont.palabra==i.id:\n            response.write(\'\\n                                \', escape=False)\n            conta= conta +1\n            response.write(\'\\n                            \', escape=False)\n            pass\n        response.write(\' \\n                        \', escape=False)\n        pass\n    response.write(\'\\n                        <span class="label label-info"><b class="margen-derecho">\', escape=False)\n    response.write(conta)\n    response.write(\'</b>Ejemplos</span>\\n                        </td>\\n                    </tr>\\n                    \', escape=False)\n    pass\nresponse.write(\'\\n                </tbody>\\n            </table>\\n            \\n\', escape=False)\nresponse.write(response.toolbar())\nresponse.write("\\n\\n        </div>  <!-- wellparley2 fin --> <!--FIN tabla ultimas palabras -->\\n    </div>      \\n \\n<!--Bloque de script JQUERY -->   \\n<script>\\njQuery(document).ready(function(){\\n   jQuery(\'.oculto\').hide();\\n        jQuery(\'#palabras_sustantivo\').change(function(){\\n             if(jQuery(\'#palabras_sustantivo\').attr(\'checked\'))\\n                 jQuery(\'.oculto\').show();\\n             else jQuery(\'.oculto\').hide();\\n          });\\n});\\n</script>\\n\\n<script>\\njQuery(document).ready(function(){\\n   jQuery(\'.oculto3\').hide();\\n        jQuery(\'#palabras_anadir_glosario\').change(function(){\\n             if(jQuery(\'#palabras_anadir_glosario\').attr(\'checked\'))\\n                 jQuery(\'.oculto3\').show();\\n             else jQuery(\'.oculto3\').hide();\\n          });\\n});\\n</script>\\n\\n<script>\\n\\njQuery(document).ready(function(){\\n   jQuery(\'.oculto2\').hide();\\n        jQuery(\'#palabras_verbo\').change(function(){\\n             if(jQuery(\'#palabras_verbo\').attr(\'checked\'))\\n                 jQuery(\'.oculto2\').show();\\n             else jQuery(\'.oculto2\').hide();\\n          });\\n});\\n</script>\\n\\n    \\n", escape=False)\nresponse.write(\'\\n\\t  \\n\\t  \\n\\t  \', escape=False)\nresponse.write(\'\\n        </div>\\n          \\n          \\n        </div><!--/span-->\\n      </div><!--/row-->\\n\\n      <hr>\\n\\n      <footer>\\n        <p>\\xc2\\xa9 Company 2012</p>\\n      </footer>\\n\\n    </div><!--/.fluid-container-->\\n    \\n    <!-- Le javascript\\n    ================================================== -->\\n    <!-- Placed at the end of the document so the pages load faster \\n    <script>\\n      $(function () {\\n      $(\\\'.tabs a:last\\\').tab(\\\'show\\\')\\n      })\\n    </script>-->\\n    <script>\\n      $(\\\'#borrar_palabra\\\').modal(\\\'show\\\')\\n    </script>\\n    <script>\\n      $(\\\'#editar_palabra\\\').modal(\\\'show\\\')\\n    </script>\\n    <script>\\n      $(\\\'#borrar_ejemplo\\\').modal(\\\'show\\\')\\n    </script>\\n    <script>\\n      $(\\\'#editar-ejemplo\\\').modal(\\\'show\\\')\\n    </script>\\n    <script>\\n      $(\\\'#borrar_fuente\\\').modal(\\\'show\\\')\\n    </script>\\n    <script>\\n      $(\\\'#editar-fuente\\\').modal(\\\'show\\\')\\n    </script>\\n    <script type="text/javascript">\\n      $(function() {\\n\\t  //find all form with class jqtransform and apply the plugin\\n\\t  $("form.jqtransform").jqTransform();\\n      });\\n</script>\\n    \\n\\n \\n\\n</body>\\n</html>\\n\', escape=False)'
p7
sS'snapshot'
p8
(dp9
S'exception'
p10
(dp11
S'__hash__'
p12
S"<method-wrapper '__hash__' of exceptions.TypeError object at 0x06A14120>"
p13
sS'__setattr__'
p14
S"<method-wrapper '__setattr__' of exceptions.TypeError object at 0x06A14120>"
p15
sS'__reduce_ex__'
p16
S'<built-in method __reduce_ex__ of exceptions.TypeError object at 0x06A14120>'
p17
sS'__getslice__'
p18
S"<method-wrapper '__getslice__' of exceptions.TypeError object at 0x06A14120>"
p19
sS'__getitem__'
p20
S"<method-wrapper '__getitem__' of exceptions.TypeError object at 0x06A14120>"
p21
sS'__setstate__'
p22
S'<built-in method __setstate__ of exceptions.TypeError object at 0x06A14120>'
p23
sS'__reduce__'
p24
S'<built-in method __reduce__ of exceptions.TypeError object at 0x06A14120>'
p25
sS'__str__'
p26
S"<method-wrapper '__str__' of exceptions.TypeError object at 0x06A14120>"
p27
sS'args'
p28
S'("URL() got an unexpected keyword argument \'raw_args\'",)'
p29
sS'__getattribute__'
p30
S"<method-wrapper '__getattribute__' of exceptions.TypeError object at 0x06A14120>"
p31
sS'__class__'
p32
S"<type 'exceptions.TypeError'>"
p33
sS'__delattr__'
p34
S"<method-wrapper '__delattr__' of exceptions.TypeError object at 0x06A14120>"
p35
sS'__repr__'
p36
S"<method-wrapper '__repr__' of exceptions.TypeError object at 0x06A14120>"
p37
sS'__dict__'
p38
S'{}'
p39
sS'__doc__'
p40
S"'Inappropriate argument type.'"
p41
sS'__init__'
p42
S"<method-wrapper '__init__' of exceptions.TypeError object at 0x06A14120>"
p43
sS'__new__'
p44
S'<built-in method __new__ of type object at 0x1E1CCD78>'
p45
ssS'evalue'
p46
S"URL() got an unexpected keyword argument 'raw_args'"
p47
sS'request'
p48
ccopy_reg
_reconstructor
p49
(cgluon.html
BEAUTIFY
p50
c__builtin__
object
p51
NtRp52
(dp53
S'attributes'
p54
(dp55
sS'components'
p56
(lp57
g49
(cgluon.html
TABLE
p58
g51
NtRp59
(dp60
g54
(dp61
S'level'
p62
I5
ssS'parent'
p63
Nsg56
(lp64
g49
(cgluon.html
TR
p65
g51
NtRp66
(dp67
g54
(dp68
sg63
g59
sg56
(lp69
g49
(cgluon.html
TD
p70
g51
NtRp71
(dp72
g54
(dp73
S'_style'
p74
S'font-weight:bold;vertical-align:top'
p75
ssg63
g66
sg56
(lp76
S'ajax'
p77
asbag49
(g70
g51
NtRp78
(dp79
g54
(dp80
S'_valign'
p81
S'top'
p82
ssg63
g66
sg56
(lp83
S':'
asbag49
(g70
g51
NtRp84
(dp85
g54
(dp86
sg63
g66
sg56
(lp87
g49
(g50
g51
NtRp88
(dp89
g54
(dp90
g62
I5
ssg63
g84
sg56
(lp91
S'False'
p92
asbasbasbag49
(g65
g51
NtRp93
(dp94
g54
(dp95
sg63
g59
sg56
(lp96
g49
(g70
g51
NtRp97
(dp98
g54
(dp99
g74
g75
ssg63
g93
sg56
(lp100
S'application'
p101
asbag49
(g70
g51
NtRp102
(dp103
g54
(dp104
g81
g82
ssg63
g93
sg56
(lp105
S':'
asbag49
(g70
g51
NtRp106
(dp107
g54
(dp108
sg63
g93
sg56
(lp109
g49
(g50
g51
NtRp110
(dp111
g54
(dp112
g62
I5
ssg63
g106
sg56
(lp113
S'parleyweb'
p114
asbasbasbag49
(g65
g51
NtRp115
(dp116
g54
(dp117
sg63
g59
sg56
(lp118
g49
(g70
g51
NtRp119
(dp120
g54
(dp121
g74
g75
ssg63
g115
sg56
(lp122
S'body'
p123
asbag49
(g70
g51
NtRp124
(dp125
g54
(dp126
g81
g82
ssg63
g115
sg56
(lp127
S':'
asbag49
(g70
g51
NtRp128
(dp129
g54
(dp130
sg63
g115
sg56
(lp131
g49
(g50
g51
NtRp132
(dp133
g54
(dp134
g62
I5
ssg63
g128
sg56
(lp135
S'<cStringIO.StringO object at 0x06982CE0>'
p136
asbasbasbag49
(g65
g51
NtRp137
(dp138
g54
(dp139
sg63
g59
sg56
(lp140
g49
(g70
g51
NtRp141
(dp142
g54
(dp143
g74
g75
ssg63
g137
sg56
(lp144
S'client'
p145
asbag49
(g70
g51
NtRp146
(dp147
g54
(dp148
g81
g82
ssg63
g137
sg56
(lp149
S':'
asbag49
(g70
g51
NtRp150
(dp151
g54
(dp152
sg63
g137
sg56
(lp153
g49
(g50
g51
NtRp154
(dp155
g54
(dp156
g62
I5
ssg63
g150
sg56
(lp157
S'127.0.0.1'
p158
asbasbasbag49
(g65
g51
NtRp159
(dp160
g54
(dp161
sg63
g59
sg56
(lp162
g49
(g70
g51
NtRp163
(dp164
g54
(dp165
g74
g75
ssg63
g159
sg56
(lp166
S'controller'
p167
asbag49
(g70
g51
NtRp168
(dp169
g54
(dp170
g81
g82
ssg63
g159
sg56
(lp171
S':'
asbag49
(g70
g51
NtRp172
(dp173
g54
(dp174
sg63
g159
sg56
(lp175
g49
(g50
g51
NtRp176
(dp177
g54
(dp178
g62
I5
ssg63
g172
sg56
(lp179
S'admin'
p180
asbasbasbag49
(g65
g51
NtRp181
(dp182
g54
(dp183
sg63
g59
sg56
(lp184
g49
(g70
g51
NtRp185
(dp186
g54
(dp187
g74
g75
ssg63
g181
sg56
(lp188
S'cookies'
p189
asbag49
(g70
g51
NtRp190
(dp191
g54
(dp192
g81
g82
ssg63
g181
sg56
(lp193
S':'
asbag49
(g70
g51
NtRp194
(dp195
g54
(dp196
sg63
g181
sg56
(lp197
g49
(g50
g51
NtRp198
(dp199
g54
(dp200
g62
I5
ssg63
g194
sg56
(lp201
g49
(g58
g51
NtRp202
(dp203
g54
(dp204
g62
I4
ssg63
Nsg56
(lp205
g49
(g65
g51
NtRp206
(dp207
g54
(dp208
sg63
g202
sg56
(lp209
g49
(g70
g51
NtRp210
(dp211
g54
(dp212
g74
g75
ssg63
g206
sg56
(lp213
S'session_id_admin'
p214
asbag49
(g70
g51
NtRp215
(dp216
g54
(dp217
g81
g82
ssg63
g206
sg56
(lp218
S':'
asbag49
(g70
g51
NtRp219
(dp220
g54
(dp221
sg63
g206
sg56
(lp222
g49
(g50
g51
NtRp223
(dp224
g54
(dp225
g62
I4
ssg63
g219
sg56
(lp226
g49
(g58
g51
NtRp227
(dp228
g54
(dp229
g62
I3
ssg63
Nsg56
(lp230
g49
(g65
g51
NtRp231
(dp232
g54
(dp233
sg63
g227
sg56
(lp234
g49
(g70
g51
NtRp235
(dp236
g54
(dp237
g74
g75
ssg63
g231
sg56
(lp238
S'comment'
p239
asbag49
(g70
g51
NtRp240
(dp241
g54
(dp242
g81
g82
ssg63
g231
sg56
(lp243
S':'
asbag49
(g70
g51
NtRp244
(dp245
g54
(dp246
sg63
g231
sg56
(lp247
g49
(g50
g51
NtRp248
(dp249
g54
(dp250
g62
I3
ssg63
g244
sg56
(lp251
S''
asbasbasbag49
(g65
g51
NtRp252
(dp253
g54
(dp254
sg63
g227
sg56
(lp255
g49
(g70
g51
NtRp256
(dp257
g54
(dp258
g74
g75
ssg63
g252
sg56
(lp259
S'domain'
p260
asbag49
(g70
g51
NtRp261
(dp262
g54
(dp263
g81
g82
ssg63
g252
sg56
(lp264
S':'
asbag49
(g70
g51
NtRp265
(dp266
g54
(dp267
sg63
g252
sg56
(lp268
g49
(g50
g51
NtRp269
(dp270
g54
(dp271
g62
I3
ssg63
g265
sg56
(lp272
S''
asbasbasbag49
(g65
g51
NtRp273
(dp274
g54
(dp275
sg63
g227
sg56
(lp276
g49
(g70
g51
NtRp277
(dp278
g54
(dp279
g74
g75
ssg63
g273
sg56
(lp280
S'expires'
p281
asbag49
(g70
g51
NtRp282
(dp283
g54
(dp284
g81
g82
ssg63
g273
sg56
(lp285
S':'
asbag49
(g70
g51
NtRp286
(dp287
g54
(dp288
sg63
g273
sg56
(lp289
g49
(g50
g51
NtRp290
(dp291
g54
(dp292
g62
I3
ssg63
g286
sg56
(lp293
S''
asbasbasbag49
(g65
g51
NtRp294
(dp295
g54
(dp296
sg63
g227
sg56
(lp297
g49
(g70
g51
NtRp298
(dp299
g54
(dp300
g74
g75
ssg63
g294
sg56
(lp301
S'max-age'
p302
asbag49
(g70
g51
NtRp303
(dp304
g54
(dp305
g81
g82
ssg63
g294
sg56
(lp306
S':'
asbag49
(g70
g51
NtRp307
(dp308
g54
(dp309
sg63
g294
sg56
(lp310
g49
(g50
g51
NtRp311
(dp312
g54
(dp313
g62
I3
ssg63
g307
sg56
(lp314
S''
asbasbasbag49
(g65
g51
NtRp315
(dp316
g54
(dp317
sg63
g227
sg56
(lp318
g49
(g70
g51
NtRp319
(dp320
g54
(dp321
g74
g75
ssg63
g315
sg56
(lp322
S'path'
p323
asbag49
(g70
g51
NtRp324
(dp325
g54
(dp326
g81
g82
ssg63
g315
sg56
(lp327
S':'
asbag49
(g70
g51
NtRp328
(dp329
g54
(dp330
sg63
g315
sg56
(lp331
g49
(g50
g51
NtRp332
(dp333
g54
(dp334
g62
I3
ssg63
g328
sg56
(lp335
S''
asbasbasbag49
(g65
g51
NtRp336
(dp337
g54
(dp338
sg63
g227
sg56
(lp339
g49
(g70
g51
NtRp340
(dp341
g54
(dp342
g74
g75
ssg63
g336
sg56
(lp343
S'secure'
p344
asbag49
(g70
g51
NtRp345
(dp346
g54
(dp347
g81
g82
ssg63
g336
sg56
(lp348
S':'
asbag49
(g70
g51
NtRp349
(dp350
g54
(dp351
sg63
g336
sg56
(lp352
g49
(g50
g51
NtRp353
(dp354
g54
(dp355
g62
I3
ssg63
g349
sg56
(lp356
S''
asbasbasbag49
(g65
g51
NtRp357
(dp358
g54
(dp359
sg63
g227
sg56
(lp360
g49
(g70
g51
NtRp361
(dp362
g54
(dp363
g74
g75
ssg63
g357
sg56
(lp364
S'version'
p365
asbag49
(g70
g51
NtRp366
(dp367
g54
(dp368
g81
g82
ssg63
g357
sg56
(lp369
S':'
asbag49
(g70
g51
NtRp370
(dp371
g54
(dp372
sg63
g357
sg56
(lp373
g49
(g50
g51
NtRp374
(dp375
g54
(dp376
g62
I3
ssg63
g370
sg56
(lp377
S''
asbasbasbasbasbasbasbag49
(g65
g51
NtRp378
(dp379
g54
(dp380
sg63
g202
sg56
(lp381
g49
(g70
g51
NtRp382
(dp383
g54
(dp384
g74
g75
ssg63
g378
sg56
(lp385
S'session_id_klaas'
p386
asbag49
(g70
g51
NtRp387
(dp388
g54
(dp389
g81
g82
ssg63
g378
sg56
(lp390
S':'
asbag49
(g70
g51
NtRp391
(dp392
g54
(dp393
sg63
g378
sg56
(lp394
g49
(g50
g51
NtRp395
(dp396
g54
(dp397
g62
I4
ssg63
g391
sg56
(lp398
g49
(g58
g51
NtRp399
(dp400
g54
(dp401
g62
I3
ssg63
Nsg56
(lp402
g49
(g65
g51
NtRp403
(dp404
g54
(dp405
sg63
g399
sg56
(lp406
g49
(g70
g51
NtRp407
(dp408
g54
(dp409
g74
g75
ssg63
g403
sg56
(lp410
g239
asbag49
(g70
g51
NtRp411
(dp412
g54
(dp413
g81
g82
ssg63
g403
sg56
(lp414
S':'
asbag49
(g70
g51
NtRp415
(dp416
g54
(dp417
sg63
g403
sg56
(lp418
g49
(g50
g51
NtRp419
(dp420
g54
(dp421
g62
I3
ssg63
g415
sg56
(lp422
S''
asbasbasbag49
(g65
g51
NtRp423
(dp424
g54
(dp425
sg63
g399
sg56
(lp426
g49
(g70
g51
NtRp427
(dp428
g54
(dp429
g74
g75
ssg63
g423
sg56
(lp430
g260
asbag49
(g70
g51
NtRp431
(dp432
g54
(dp433
g81
g82
ssg63
g423
sg56
(lp434
S':'
asbag49
(g70
g51
NtRp435
(dp436
g54
(dp437
sg63
g423
sg56
(lp438
g49
(g50
g51
NtRp439
(dp440
g54
(dp441
g62
I3
ssg63
g435
sg56
(lp442
S''
asbasbasbag49
(g65
g51
NtRp443
(dp444
g54
(dp445
sg63
g399
sg56
(lp446
g49
(g70
g51
NtRp447
(dp448
g54
(dp449
g74
g75
ssg63
g443
sg56
(lp450
g281
asbag49
(g70
g51
NtRp451
(dp452
g54
(dp453
g81
g82
ssg63
g443
sg56
(lp454
S':'
asbag49
(g70
g51
NtRp455
(dp456
g54
(dp457
sg63
g443
sg56
(lp458
g49
(g50
g51
NtRp459
(dp460
g54
(dp461
g62
I3
ssg63
g455
sg56
(lp462
S''
asbasbasbag49
(g65
g51
NtRp463
(dp464
g54
(dp465
sg63
g399
sg56
(lp466
g49
(g70
g51
NtRp467
(dp468
g54
(dp469
g74
g75
ssg63
g463
sg56
(lp470
g302
asbag49
(g70
g51
NtRp471
(dp472
g54
(dp473
g81
g82
ssg63
g463
sg56
(lp474
S':'
asbag49
(g70
g51
NtRp475
(dp476
g54
(dp477
sg63
g463
sg56
(lp478
g49
(g50
g51
NtRp479
(dp480
g54
(dp481
g62
I3
ssg63
g475
sg56
(lp482
S''
asbasbasbag49
(g65
g51
NtRp483
(dp484
g54
(dp485
sg63
g399
sg56
(lp486
g49
(g70
g51
NtRp487
(dp488
g54
(dp489
g74
g75
ssg63
g483
sg56
(lp490
g323
asbag49
(g70
g51
NtRp491
(dp492
g54
(dp493
g81
g82
ssg63
g483
sg56
(lp494
S':'
asbag49
(g70
g51
NtRp495
(dp496
g54
(dp497
sg63
g483
sg56
(lp498
g49
(g50
g51
NtRp499
(dp500
g54
(dp501
g62
I3
ssg63
g495
sg56
(lp502
S''
asbasbasbag49
(g65
g51
NtRp503
(dp504
g54
(dp505
sg63
g399
sg56
(lp506
g49
(g70
g51
NtRp507
(dp508
g54
(dp509
g74
g75
ssg63
g503
sg56
(lp510
g344
asbag49
(g70
g51
NtRp511
(dp512
g54
(dp513
g81
g82
ssg63
g503
sg56
(lp514
S':'
asbag49
(g70
g51
NtRp515
(dp516
g54
(dp517
sg63
g503
sg56
(lp518
g49
(g50
g51
NtRp519
(dp520
g54
(dp521
g62
I3
ssg63
g515
sg56
(lp522
S''
asbasbasbag49
(g65
g51
NtRp523
(dp524
g54
(dp525
sg63
g399
sg56
(lp526
g49
(g70
g51
NtRp527
(dp528
g54
(dp529
g74
g75
ssg63
g523
sg56
(lp530
g365
asbag49
(g70
g51
NtRp531
(dp532
g54
(dp533
g81
g82
ssg63
g523
sg56
(lp534
S':'
asbag49
(g70
g51
NtRp535
(dp536
g54
(dp537
sg63
g523
sg56
(lp538
g49
(g50
g51
NtRp539
(dp540
g54
(dp541
g62
I3
ssg63
g535
sg56
(lp542
S''
asbasbasbasbasbasbasbag49
(g65
g51
NtRp543
(dp544
g54
(dp545
sg63
g202
sg56
(lp546
g49
(g70
g51
NtRp547
(dp548
g54
(dp549
g74
g75
ssg63
g543
sg56
(lp550
S'session_id_parleyweb'
p551
asbag49
(g70
g51
NtRp552
(dp553
g54
(dp554
g81
g82
ssg63
g543
sg56
(lp555
S':'
asbag49
(g70
g51
NtRp556
(dp557
g54
(dp558
sg63
g543
sg56
(lp559
g49
(g50
g51
NtRp560
(dp561
g54
(dp562
g62
I4
ssg63
g556
sg56
(lp563
g49
(g58
g51
NtRp564
(dp565
g54
(dp566
g62
I3
ssg63
Nsg56
(lp567
g49
(g65
g51
NtRp568
(dp569
g54
(dp570
sg63
g564
sg56
(lp571
g49
(g70
g51
NtRp572
(dp573
g54
(dp574
g74
g75
ssg63
g568
sg56
(lp575
g239
asbag49
(g70
g51
NtRp576
(dp577
g54
(dp578
g81
g82
ssg63
g568
sg56
(lp579
S':'
asbag49
(g70
g51
NtRp580
(dp581
g54
(dp582
sg63
g568
sg56
(lp583
g49
(g50
g51
NtRp584
(dp585
g54
(dp586
g62
I3
ssg63
g580
sg56
(lp587
S''
asbasbasbag49
(g65
g51
NtRp588
(dp589
g54
(dp590
sg63
g564
sg56
(lp591
g49
(g70
g51
NtRp592
(dp593
g54
(dp594
g74
g75
ssg63
g588
sg56
(lp595
g260
asbag49
(g70
g51
NtRp596
(dp597
g54
(dp598
g81
g82
ssg63
g588
sg56
(lp599
S':'
asbag49
(g70
g51
NtRp600
(dp601
g54
(dp602
sg63
g588
sg56
(lp603
g49
(g50
g51
NtRp604
(dp605
g54
(dp606
g62
I3
ssg63
g600
sg56
(lp607
S''
asbasbasbag49
(g65
g51
NtRp608
(dp609
g54
(dp610
sg63
g564
sg56
(lp611
g49
(g70
g51
NtRp612
(dp613
g54
(dp614
g74
g75
ssg63
g608
sg56
(lp615
g281
asbag49
(g70
g51
NtRp616
(dp617
g54
(dp618
g81
g82
ssg63
g608
sg56
(lp619
S':'
asbag49
(g70
g51
NtRp620
(dp621
g54
(dp622
sg63
g608
sg56
(lp623
g49
(g50
g51
NtRp624
(dp625
g54
(dp626
g62
I3
ssg63
g620
sg56
(lp627
S''
asbasbasbag49
(g65
g51
NtRp628
(dp629
g54
(dp630
sg63
g564
sg56
(lp631
g49
(g70
g51
NtRp632
(dp633
g54
(dp634
g74
g75
ssg63
g628
sg56
(lp635
g302
asbag49
(g70
g51
NtRp636
(dp637
g54
(dp638
g81
g82
ssg63
g628
sg56
(lp639
S':'
asbag49
(g70
g51
NtRp640
(dp641
g54
(dp642
sg63
g628
sg56
(lp643
g49
(g50
g51
NtRp644
(dp645
g54
(dp646
g62
I3
ssg63
g640
sg56
(lp647
S''
asbasbasbag49
(g65
g51
NtRp648
(dp649
g54
(dp650
sg63
g564
sg56
(lp651
g49
(g70
g51
NtRp652
(dp653
g54
(dp654
g74
g75
ssg63
g648
sg56
(lp655
g323
asbag49
(g70
g51
NtRp656
(dp657
g54
(dp658
g81
g82
ssg63
g648
sg56
(lp659
S':'
asbag49
(g70
g51
NtRp660
(dp661
g54
(dp662
sg63
g648
sg56
(lp663
g49
(g50
g51
NtRp664
(dp665
g54
(dp666
g62
I3
ssg63
g660
sg56
(lp667
S''
asbasbasbag49
(g65
g51
NtRp668
(dp669
g54
(dp670
sg63
g564
sg56
(lp671
g49
(g70
g51
NtRp672
(dp673
g54
(dp674
g74
g75
ssg63
g668
sg56
(lp675
g344
asbag49
(g70
g51
NtRp676
(dp677
g54
(dp678
g81
g82
ssg63
g668
sg56
(lp679
S':'
asbag49
(g70
g51
NtRp680
(dp681
g54
(dp682
sg63
g668
sg56
(lp683
g49
(g50
g51
NtRp684
(dp685
g54
(dp686
g62
I3
ssg63
g680
sg56
(lp687
S''
asbasbasbag49
(g65
g51
NtRp688
(dp689
g54
(dp690
sg63
g564
sg56
(lp691
g49
(g70
g51
NtRp692
(dp693
g54
(dp694
g74
g75
ssg63
g688
sg56
(lp695
g365
asbag49
(g70
g51
NtRp696
(dp697
g54
(dp698
g81
g82
ssg63
g688
sg56
(lp699
S':'
asbag49
(g70
g51
NtRp700
(dp701
g54
(dp702
sg63
g688
sg56
(lp703
g49
(g50
g51
NtRp704
(dp705
g54
(dp706
g62
I3
ssg63
g700
sg56
(lp707
S''
asbasbasbasbasbasbasbag49
(g65
g51
NtRp708
(dp709
g54
(dp710
sg63
g202
sg56
(lp711
g49
(g70
g51
NtRp712
(dp713
g54
(dp714
g74
g75
ssg63
g708
sg56
(lp715
S'session_id_welcome'
p716
asbag49
(g70
g51
NtRp717
(dp718
g54
(dp719
g81
g82
ssg63
g708
sg56
(lp720
S':'
asbag49
(g70
g51
NtRp721
(dp722
g54
(dp723
sg63
g708
sg56
(lp724
g49
(g50
g51
NtRp725
(dp726
g54
(dp727
g62
I4
ssg63
g721
sg56
(lp728
g49
(g58
g51
NtRp729
(dp730
g54
(dp731
g62
I3
ssg63
Nsg56
(lp732
g49
(g65
g51
NtRp733
(dp734
g54
(dp735
sg63
g729
sg56
(lp736
g49
(g70
g51
NtRp737
(dp738
g54
(dp739
g74
g75
ssg63
g733
sg56
(lp740
g239
asbag49
(g70
g51
NtRp741
(dp742
g54
(dp743
g81
g82
ssg63
g733
sg56
(lp744
S':'
asbag49
(g70
g51
NtRp745
(dp746
g54
(dp747
sg63
g733
sg56
(lp748
g49
(g50
g51
NtRp749
(dp750
g54
(dp751
g62
I3
ssg63
g745
sg56
(lp752
S''
asbasbasbag49
(g65
g51
NtRp753
(dp754
g54
(dp755
sg63
g729
sg56
(lp756
g49
(g70
g51
NtRp757
(dp758
g54
(dp759
g74
g75
ssg63
g753
sg56
(lp760
g260
asbag49
(g70
g51
NtRp761
(dp762
g54
(dp763
g81
g82
ssg63
g753
sg56
(lp764
S':'
asbag49
(g70
g51
NtRp765
(dp766
g54
(dp767
sg63
g753
sg56
(lp768
g49
(g50
g51
NtRp769
(dp770
g54
(dp771
g62
I3
ssg63
g765
sg56
(lp772
S''
asbasbasbag49
(g65
g51
NtRp773
(dp774
g54
(dp775
sg63
g729
sg56
(lp776
g49
(g70
g51
NtRp777
(dp778
g54
(dp779
g74
g75
ssg63
g773
sg56
(lp780
g281
asbag49
(g70
g51
NtRp781
(dp782
g54
(dp783
g81
g82
ssg63
g773
sg56
(lp784
S':'
asbag49
(g70
g51
NtRp785
(dp786
g54
(dp787
sg63
g773
sg56
(lp788
g49
(g50
g51
NtRp789
(dp790
g54
(dp791
g62
I3
ssg63
g785
sg56
(lp792
S''
asbasbasbag49
(g65
g51
NtRp793
(dp794
g54
(dp795
sg63
g729
sg56
(lp796
g49
(g70
g51
NtRp797
(dp798
g54
(dp799
g74
g75
ssg63
g793
sg56
(lp800
g302
asbag49
(g70
g51
NtRp801
(dp802
g54
(dp803
g81
g82
ssg63
g793
sg56
(lp804
S':'
asbag49
(g70
g51
NtRp805
(dp806
g54
(dp807
sg63
g793
sg56
(lp808
g49
(g50
g51
NtRp809
(dp810
g54
(dp811
g62
I3
ssg63
g805
sg56
(lp812
S''
asbasbasbag49
(g65
g51
NtRp813
(dp814
g54
(dp815
sg63
g729
sg56
(lp816
g49
(g70
g51
NtRp817
(dp818
g54
(dp819
g74
g75
ssg63
g813
sg56
(lp820
g323
asbag49
(g70
g51
NtRp821
(dp822
g54
(dp823
g81
g82
ssg63
g813
sg56
(lp824
S':'
asbag49
(g70
g51
NtRp825
(dp826
g54
(dp827
sg63
g813
sg56
(lp828
g49
(g50
g51
NtRp829
(dp830
g54
(dp831
g62
I3
ssg63
g825
sg56
(lp832
S''
asbasbasbag49
(g65
g51
NtRp833
(dp834
g54
(dp835
sg63
g729
sg56
(lp836
g49
(g70
g51
NtRp837
(dp838
g54
(dp839
g74
g75
ssg63
g833
sg56
(lp840
g344
asbag49
(g70
g51
NtRp841
(dp842
g54
(dp843
g81
g82
ssg63
g833
sg56
(lp844
S':'
asbag49
(g70
g51
NtRp845
(dp846
g54
(dp847
sg63
g833
sg56
(lp848
g49
(g50
g51
NtRp849
(dp850
g54
(dp851
g62
I3
ssg63
g845
sg56
(lp852
S''
asbasbasbag49
(g65
g51
NtRp853
(dp854
g54
(dp855
sg63
g729
sg56
(lp856
g49
(g70
g51
NtRp857
(dp858
g54
(dp859
g74
g75
ssg63
g853
sg56
(lp860
g365
asbag49
(g70
g51
NtRp861
(dp862
g54
(dp863
g81
g82
ssg63
g853
sg56
(lp864
S':'
asbag49
(g70
g51
NtRp865
(dp866
g54
(dp867
sg63
g853
sg56
(lp868
g49
(g50
g51
NtRp869
(dp870
g54
(dp871
g62
I3
ssg63
g865
sg56
(lp872
S''
asbasbasbasbasbasbasbasbasbasbasbag49
(g65
g51
NtRp873
(dp874
g54
(dp875
sg63
g59
sg56
(lp876
g49
(g70
g51
NtRp877
(dp878
g54
(dp879
g74
g75
ssg63
g873
sg56
(lp880
S'env'
p881
asbag49
(g70
g51
NtRp882
(dp883
g54
(dp884
g81
g82
ssg63
g873
sg56
(lp885
S':'
asbag49
(g70
g51
NtRp886
(dp887
g54
(dp888
sg63
g873
sg56
(lp889
g49
(g50
g51
NtRp890
(dp891
g54
(dp892
g62
I5
ssg63
g886
sg56
(lp893
g49
(g58
g51
NtRp894
(dp895
g54
(dp896
g62
I4
ssg63
Nsg56
(lp897
g49
(g65
g51
NtRp898
(dp899
g54
(dp900
sg63
g894
sg56
(lp901
g49
(g70
g51
NtRp902
(dp903
g54
(dp904
g74
g75
ssg63
g898
sg56
(lp905
S'app_folders'
p906
asbag49
(g70
g51
NtRp907
(dp908
g54
(dp909
g81
g82
ssg63
g898
sg56
(lp910
S':'
asbag49
(g70
g51
NtRp911
(dp912
g54
(dp913
sg63
g898
sg56
(lp914
g49
(g50
g51
NtRp915
(dp916
g54
(dp917
g62
I4
ssg63
g911
sg56
(lp918
S"set(['D:\\\\Dise\\xf1o Web\\\\Proyectos\\\\Parleyweb\\\\web2py\\\\applications\\\\parleyweb\\\\', 'D:\\\\Dise\\xf1o Web\\\\Proyectos\\\\Parleyweb\\\\web2py\\\\applications\\\\admin\\\\'])"
p919
asbasbasbag49
(g65
g51
NtRp920
(dp921
g54
(dp922
sg63
g894
sg56
(lp923
g49
(g70
g51
NtRp924
(dp925
g54
(dp926
g74
g75
ssg63
g920
sg56
(lp927
S'applications_parent'
p928
asbag49
(g70
g51
NtRp929
(dp930
g54
(dp931
g81
g82
ssg63
g920
sg56
(lp932
S':'
asbag49
(g70
g51
NtRp933
(dp934
g54
(dp935
sg63
g920
sg56
(lp936
g49
(g50
g51
NtRp937
(dp938
g54
(dp939
g62
I4
ssg63
g933
sg56
(lp940
S'D:\\Dise\xf1o Web\\Proyectos\\Parleyweb\\web2py'
p941
asbasbasbag49
(g65
g51
NtRp942
(dp943
g54
(dp944
sg63
g894
sg56
(lp945
g49
(g70
g51
NtRp946
(dp947
g54
(dp948
g74
g75
ssg63
g942
sg56
(lp949
S'cmd_args'
p950
asbag49
(g70
g51
NtRp951
(dp952
g54
(dp953
g81
g82
ssg63
g942
sg56
(lp954
S':'
asbag49
(g70
g51
NtRp955
(dp956
g54
(dp957
sg63
g942
sg56
(lp958
g49
(g50
g51
NtRp959
(dp960
g54
(dp961
g62
I4
ssg63
g955
sg56
(lp962
g49
(g58
g51
NtRp963
(dp964
g54
(dp965
g62
I3
ssg63
Nsg56
(lp966
sbasbasbasbag49
(g65
g51
NtRp967
(dp968
g54
(dp969
sg63
g894
sg56
(lp970
g49
(g70
g51
NtRp971
(dp972
g54
(dp973
g74
g75
ssg63
g967
sg56
(lp974
S'cmd_options'
p975
asbag49
(g70
g51
NtRp976
(dp977
g54
(dp978
g81
g82
ssg63
g967
sg56
(lp979
S':'
asbag49
(g70
g51
NtRp980
(dp981
g54
(dp982
sg63
g967
sg56
(lp983
g49
(g50
g51
NtRp984
(dp985
g54
(dp986
g62
I4
ssg63
g980
sg56
(lp987
S"<Values at 0x31f4238: {'verbose': False, 'ip': '127.0.0.1', 'shutdown_timeout': 5, 'taskbar': False, 'nocron': False, 'pid_filename': 'httpserver.pid', 'maxthreads': None, 'softcron': False, 'server_name': 'craxsnet-PC', 'bpython': False, 'nogui': False, 'port': 8000, 'extcron': False, 'debuglevel': 30, 'test': None, 'folder': 'D:\\\\Dise\\xf1o Web\\\\Proyectos\\\\Parleyweb\\\\web2py', 'config': '', 'import_models': False, 'winservice': '', 'shell': None, 'run': '', 'log_filename': 'httpserver.log', 'args': [''], 'socket_timeout': 5, 'ssl_ca_certificate': None, 'scheduler': None, 'profiler_filename': None, 'ssl_private_key': '', 'password': '<ask>', 'request_queue_size': 5, 'ssl_certificate': '', 'cronjob': False, 'numthreads': None, 'quiet': False, 'interfaces': None, 'minthreads': None, 'timeout': 10, 'plain': False, 'nobanner': False}>"
p988
asbasbasbag49
(g65
g51
NtRp989
(dp990
g54
(dp991
sg63
g894
sg56
(lp992
g49
(g70
g51
NtRp993
(dp994
g54
(dp995
g74
g75
ssg63
g989
sg56
(lp996
S'db_sessions'
p997
asbag49
(g70
g51
NtRp998
(dp999
g54
(dp1000
g81
g82
ssg63
g989
sg56
(lp1001
S':'
asbag49
(g70
g51
NtRp1002
(dp1003
g54
(dp1004
sg63
g989
sg56
(lp1005
g49
(g50
g51
NtRp1006
(dp1007
g54
(dp1008
g62
I4
ssg63
g1002
sg56
(lp1009
S'set([])'
p1010
asbasbasbag49
(g65
g51
NtRp1011
(dp1012
g54
(dp1013
sg63
g894
sg56
(lp1014
g49
(g70
g51
NtRp1015
(dp1016
g54
(dp1017
g74
g75
ssg63
g1011
sg56
(lp1018
S'debugging'
p1019
asbag49
(g70
g51
NtRp1020
(dp1021
g54
(dp1022
g81
g82
ssg63
g1011
sg56
(lp1023
S':'
asbag49
(g70
g51
NtRp1024
(dp1025
g54
(dp1026
sg63
g1011
sg56
(lp1027
g49
(g50
g51
NtRp1028
(dp1029
g54
(dp1030
g62
I4
ssg63
g1024
sg56
(lp1031
g92
asbasbasbag49
(g65
g51
NtRp1032
(dp1033
g54
(dp1034
sg63
g894
sg56
(lp1035
g49
(g70
g51
NtRp1036
(dp1037
g54
(dp1038
g74
g75
ssg63
g1032
sg56
(lp1039
S'gluon_parent'
p1040
asbag49
(g70
g51
NtRp1041
(dp1042
g54
(dp1043
g81
g82
ssg63
g1032
sg56
(lp1044
S':'
asbag49
(g70
g51
NtRp1045
(dp1046
g54
(dp1047
sg63
g1032
sg56
(lp1048
g49
(g50
g51
NtRp1049
(dp1050
g54
(dp1051
g62
I4
ssg63
g1045
sg56
(lp1052
S'D:\\Dise\xf1o Web\\Proyectos\\Parleyweb\\web2py'
p1053
asbasbasbag49
(g65
g51
NtRp1054
(dp1055
g54
(dp1056
sg63
g894
sg56
(lp1057
g49
(g70
g51
NtRp1058
(dp1059
g54
(dp1060
g74
g75
ssg63
g1054
sg56
(lp1061
S'http_accept'
p1062
asbag49
(g70
g51
NtRp1063
(dp1064
g54
(dp1065
g81
g82
ssg63
g1054
sg56
(lp1066
S':'
asbag49
(g70
g51
NtRp1067
(dp1068
g54
(dp1069
sg63
g1054
sg56
(lp1070
g49
(g50
g51
NtRp1071
(dp1072
g54
(dp1073
g62
I4
ssg63
g1067
sg56
(lp1074
S'text/html,application/xhtml+xml,application/xml;q=0.9,*/*;q=0.8'
p1075
asbasbasbag49
(g65
g51
NtRp1076
(dp1077
g54
(dp1078
sg63
g894
sg56
(lp1079
g49
(g70
g51
NtRp1080
(dp1081
g54
(dp1082
g74
g75
ssg63
g1076
sg56
(lp1083
S'http_accept_encoding'
p1084
asbag49
(g70
g51
NtRp1085
(dp1086
g54
(dp1087
g81
g82
ssg63
g1076
sg56
(lp1088
S':'
asbag49
(g70
g51
NtRp1089
(dp1090
g54
(dp1091
sg63
g1076
sg56
(lp1092
g49
(g50
g51
NtRp1093
(dp1094
g54
(dp1095
g62
I4
ssg63
g1089
sg56
(lp1096
S'gzip, deflate'
p1097
asbasbasbag49
(g65
g51
NtRp1098
(dp1099
g54
(dp1100
sg63
g894
sg56
(lp1101
g49
(g70
g51
NtRp1102
(dp1103
g54
(dp1104
g74
g75
ssg63
g1098
sg56
(lp1105
S'http_accept_language'
p1106
asbag49
(g70
g51
NtRp1107
(dp1108
g54
(dp1109
g81
g82
ssg63
g1098
sg56
(lp1110
S':'
asbag49
(g70
g51
NtRp1111
(dp1112
g54
(dp1113
sg63
g1098
sg56
(lp1114
g49
(g50
g51
NtRp1115
(dp1116
g54
(dp1117
g62
I4
ssg63
g1111
sg56
(lp1118
S'es-es,de-de;q=0.8,es;q=0.6,en-us;q=0.4,en;q=0.2'
p1119
asbasbasbag49
(g65
g51
NtRp1120
(dp1121
g54
(dp1122
sg63
g894
sg56
(lp1123
g49
(g70
g51
NtRp1124
(dp1125
g54
(dp1126
g74
g75
ssg63
g1120
sg56
(lp1127
S'http_connection'
p1128
asbag49
(g70
g51
NtRp1129
(dp1130
g54
(dp1131
g81
g82
ssg63
g1120
sg56
(lp1132
S':'
asbag49
(g70
g51
NtRp1133
(dp1134
g54
(dp1135
sg63
g1120
sg56
(lp1136
g49
(g50
g51
NtRp1137
(dp1138
g54
(dp1139
g62
I4
ssg63
g1133
sg56
(lp1140
S'keep-alive'
p1141
asbasbasbag49
(g65
g51
NtRp1142
(dp1143
g54
(dp1144
sg63
g894
sg56
(lp1145
g49
(g70
g51
NtRp1146
(dp1147
g54
(dp1148
g74
g75
ssg63
g1142
sg56
(lp1149
S'http_cookie'
p1150
asbag49
(g70
g51
NtRp1151
(dp1152
g54
(dp1153
g81
g82
ssg63
g1142
sg56
(lp1154
S':'
asbag49
(g70
g51
NtRp1155
(dp1156
g54
(dp1157
sg63
g1142
sg56
(lp1158
g49
(g50
g51
NtRp1159
(dp1160
g54
(dp1161
g62
I4
ssg63
g1155
sg56
(lp1162
S'__utma=96992031.26429765.1325029743.1325029743.1326549329.2; __utmz=96992031.1325029743.1.1.utmcsr=(direct)|utmccn=(direct)|utmcmd=(none); session_id_klaas=127.0.0.1-22979940-8cc3-49bc-9f44-0623615d817e; session_id_welcome=127.0.0.1-8cf99883-574c-4d14-bcc4-fd47a1240754; session_id_parleyweb=127.0.0.1-2049810e-c086-402c-857f-06991c56216c; session_id_admin=127.0.0.1-6fdcfcda-6c0c-425c-b11c-f2681aab7aa0'
p1163
asbasbasbag49
(g65
g51
NtRp1164
(dp1165
g54
(dp1166
sg63
g894
sg56
(lp1167
g49
(g70
g51
NtRp1168
(dp1169
g54
(dp1170
g74
g75
ssg63
g1164
sg56
(lp1171
S'http_host'
p1172
asbag49
(g70
g51
NtRp1173
(dp1174
g54
(dp1175
g81
g82
ssg63
g1164
sg56
(lp1176
S':'
asbag49
(g70
g51
NtRp1177
(dp1178
g54
(dp1179
sg63
g1164
sg56
(lp1180
g49
(g50
g51
NtRp1181
(dp1182
g54
(dp1183
g62
I4
ssg63
g1177
sg56
(lp1184
S'127.0.0.1:8000'
p1185
asbasbasbag49
(g65
g51
NtRp1186
(dp1187
g54
(dp1188
sg63
g894
sg56
(lp1189
g49
(g70
g51
NtRp1190
(dp1191
g54
(dp1192
g74
g75
ssg63
g1186
sg56
(lp1193
S'http_referer'
p1194
asbag49
(g70
g51
NtRp1195
(dp1196
g54
(dp1197
g81
g82
ssg63
g1186
sg56
(lp1198
S':'
asbag49
(g70
g51
NtRp1199
(dp1200
g54
(dp1201
sg63
g1186
sg56
(lp1202
g49
(g50
g51
NtRp1203
(dp1204
g54
(dp1205
g62
I4
ssg63
g1199
sg56
(lp1206
S'http://127.0.0.1:8000/parleyweb/admin/agregar_palabra/ll%C3%B6'
p1207
asbasbasbag49
(g65
g51
NtRp1208
(dp1209
g54
(dp1210
sg63
g894
sg56
(lp1211
g49
(g70
g51
NtRp1212
(dp1213
g54
(dp1214
g74
g75
ssg63
g1208
sg56
(lp1215
S'http_user_agent'
p1216
asbag49
(g70
g51
NtRp1217
(dp1218
g54
(dp1219
g81
g82
ssg63
g1208
sg56
(lp1220
S':'
asbag49
(g70
g51
NtRp1221
(dp1222
g54
(dp1223
sg63
g1208
sg56
(lp1224
g49
(g50
g51
NtRp1225
(dp1226
g54
(dp1227
g62
I4
ssg63
g1221
sg56
(lp1228
S'Mozilla/5.0 (Windows NT 6.1; WOW64; rv:10.0.2) Gecko/20100101 Firefox/10.0.2'
p1229
asbasbasbag49
(g65
g51
NtRp1230
(dp1231
g54
(dp1232
sg63
g894
sg56
(lp1233
g49
(g70
g51
NtRp1234
(dp1235
g54
(dp1236
g74
g75
ssg63
g1230
sg56
(lp1237
S'is_jython'
p1238
asbag49
(g70
g51
NtRp1239
(dp1240
g54
(dp1241
g81
g82
ssg63
g1230
sg56
(lp1242
S':'
asbag49
(g70
g51
NtRp1243
(dp1244
g54
(dp1245
sg63
g1230
sg56
(lp1246
g49
(g50
g51
NtRp1247
(dp1248
g54
(dp1249
g62
I4
ssg63
g1243
sg56
(lp1250
g92
asbasbasbag49
(g65
g51
NtRp1251
(dp1252
g54
(dp1253
sg63
g894
sg56
(lp1254
g49
(g70
g51
NtRp1255
(dp1256
g54
(dp1257
g74
g75
ssg63
g1251
sg56
(lp1258
S'is_pypy'
p1259
asbag49
(g70
g51
NtRp1260
(dp1261
g54
(dp1262
g81
g82
ssg63
g1251
sg56
(lp1263
S':'
asbag49
(g70
g51
NtRp1264
(dp1265
g54
(dp1266
sg63
g1251
sg56
(lp1267
g49
(g50
g51
NtRp1268
(dp1269
g54
(dp1270
g62
I4
ssg63
g1264
sg56
(lp1271
g92
asbasbasbag49
(g65
g51
NtRp1272
(dp1273
g54
(dp1274
sg63
g894
sg56
(lp1275
g49
(g70
g51
NtRp1276
(dp1277
g54
(dp1278
g74
g75
ssg63
g1272
sg56
(lp1279
S'path_info'
p1280
asbag49
(g70
g51
NtRp1281
(dp1282
g54
(dp1283
g81
g82
ssg63
g1272
sg56
(lp1284
S':'
asbag49
(g70
g51
NtRp1285
(dp1286
g54
(dp1287
sg63
g1272
sg56
(lp1288
g49
(g50
g51
NtRp1289
(dp1290
g54
(dp1291
g62
I4
ssg63
g1285
sg56
(lp1292
S'/parleyweb/admin/agregar_palabra'
p1293
asbasbasbag49
(g65
g51
NtRp1294
(dp1295
g54
(dp1296
sg63
g894
sg56
(lp1297
g49
(g70
g51
NtRp1298
(dp1299
g54
(dp1300
g74
g75
ssg63
g1294
sg56
(lp1301
S'query_string'
p1302
asbag49
(g70
g51
NtRp1303
(dp1304
g54
(dp1305
g81
g82
ssg63
g1294
sg56
(lp1306
S':'
asbag49
(g70
g51
NtRp1307
(dp1308
g54
(dp1309
sg63
g1294
sg56
(lp1310
g49
(g50
g51
NtRp1311
(dp1312
g54
(dp1313
g62
I4
ssg63
g1307
sg56
(lp1314
S''
asbasbasbag49
(g65
g51
NtRp1315
(dp1316
g54
(dp1317
sg63
g894
sg56
(lp1318
g49
(g70
g51
NtRp1319
(dp1320
g54
(dp1321
g74
g75
ssg63
g1315
sg56
(lp1322
S'remote_addr'
p1323
asbag49
(g70
g51
NtRp1324
(dp1325
g54
(dp1326
g81
g82
ssg63
g1315
sg56
(lp1327
S':'
asbag49
(g70
g51
NtRp1328
(dp1329
g54
(dp1330
sg63
g1315
sg56
(lp1331
g49
(g50
g51
NtRp1332
(dp1333
g54
(dp1334
g62
I4
ssg63
g1328
sg56
(lp1335
g158
asbasbasbag49
(g65
g51
NtRp1336
(dp1337
g54
(dp1338
sg63
g894
sg56
(lp1339
g49
(g70
g51
NtRp1340
(dp1341
g54
(dp1342
g74
g75
ssg63
g1336
sg56
(lp1343
S'remote_port'
p1344
asbag49
(g70
g51
NtRp1345
(dp1346
g54
(dp1347
g81
g82
ssg63
g1336
sg56
(lp1348
S':'
asbag49
(g70
g51
NtRp1349
(dp1350
g54
(dp1351
sg63
g1336
sg56
(lp1352
g49
(g50
g51
NtRp1353
(dp1354
g54
(dp1355
g62
I4
ssg63
g1349
sg56
(lp1356
S'55549'
p1357
asbasbasbag49
(g65
g51
NtRp1358
(dp1359
g54
(dp1360
sg63
g894
sg56
(lp1361
g49
(g70
g51
NtRp1362
(dp1363
g54
(dp1364
g74
g75
ssg63
g1358
sg56
(lp1365
S'request_method'
p1366
asbag49
(g70
g51
NtRp1367
(dp1368
g54
(dp1369
g81
g82
ssg63
g1358
sg56
(lp1370
S':'
asbag49
(g70
g51
NtRp1371
(dp1372
g54
(dp1373
sg63
g1358
sg56
(lp1374
g49
(g50
g51
NtRp1375
(dp1376
g54
(dp1377
g62
I4
ssg63
g1371
sg56
(lp1378
S'GET'
p1379
asbasbasbag49
(g65
g51
NtRp1380
(dp1381
g54
(dp1382
sg63
g894
sg56
(lp1383
g49
(g70
g51
NtRp1384
(dp1385
g54
(dp1386
g74
g75
ssg63
g1380
sg56
(lp1387
S'request_uri'
p1388
asbag49
(g70
g51
NtRp1389
(dp1390
g54
(dp1391
g81
g82
ssg63
g1380
sg56
(lp1392
S':'
asbag49
(g70
g51
NtRp1393
(dp1394
g54
(dp1395
sg63
g1380
sg56
(lp1396
g49
(g50
g51
NtRp1397
(dp1398
g54
(dp1399
g62
I4
ssg63
g1393
sg56
(lp1400
g1293
asbasbasbag49
(g65
g51
NtRp1401
(dp1402
g54
(dp1403
sg63
g894
sg56
(lp1404
g49
(g70
g51
NtRp1405
(dp1406
g54
(dp1407
g74
g75
ssg63
g1401
sg56
(lp1408
S'script_name'
p1409
asbag49
(g70
g51
NtRp1410
(dp1411
g54
(dp1412
g81
g82
ssg63
g1401
sg56
(lp1413
S':'
asbag49
(g70
g51
NtRp1414
(dp1415
g54
(dp1416
sg63
g1401
sg56
(lp1417
g49
(g50
g51
NtRp1418
(dp1419
g54
(dp1420
g62
I4
ssg63
g1414
sg56
(lp1421
S''
asbasbasbag49
(g65
g51
NtRp1422
(dp1423
g54
(dp1424
sg63
g894
sg56
(lp1425
g49
(g70
g51
NtRp1426
(dp1427
g54
(dp1428
g74
g75
ssg63
g1422
sg56
(lp1429
S'server_name'
p1430
asbag49
(g70
g51
NtRp1431
(dp1432
g54
(dp1433
g81
g82
ssg63
g1422
sg56
(lp1434
S':'
asbag49
(g70
g51
NtRp1435
(dp1436
g54
(dp1437
sg63
g1422
sg56
(lp1438
g49
(g50
g51
NtRp1439
(dp1440
g54
(dp1441
g62
I4
ssg63
g1435
sg56
(lp1442
S'craxsnet-PC'
p1443
asbasbasbag49
(g65
g51
NtRp1444
(dp1445
g54
(dp1446
sg63
g894
sg56
(lp1447
g49
(g70
g51
NtRp1448
(dp1449
g54
(dp1450
g74
g75
ssg63
g1444
sg56
(lp1451
S'server_port'
p1452
asbag49
(g70
g51
NtRp1453
(dp1454
g54
(dp1455
g81
g82
ssg63
g1444
sg56
(lp1456
S':'
asbag49
(g70
g51
NtRp1457
(dp1458
g54
(dp1459
sg63
g1444
sg56
(lp1460
g49
(g50
g51
NtRp1461
(dp1462
g54
(dp1463
g62
I4
ssg63
g1457
sg56
(lp1464
S'8000'
p1465
asbasbasbag49
(g65
g51
NtRp1466
(dp1467
g54
(dp1468
sg63
g894
sg56
(lp1469
g49
(g70
g51
NtRp1470
(dp1471
g54
(dp1472
g74
g75
ssg63
g1466
sg56
(lp1473
S'server_protocol'
p1474
asbag49
(g70
g51
NtRp1475
(dp1476
g54
(dp1477
g81
g82
ssg63
g1466
sg56
(lp1478
S':'
asbag49
(g70
g51
NtRp1479
(dp1480
g54
(dp1481
sg63
g1466
sg56
(lp1482
g49
(g50
g51
NtRp1483
(dp1484
g54
(dp1485
g62
I4
ssg63
g1479
sg56
(lp1486
S'HTTP/1.1'
p1487
asbasbasbag49
(g65
g51
NtRp1488
(dp1489
g54
(dp1490
sg63
g894
sg56
(lp1491
g49
(g70
g51
NtRp1492
(dp1493
g54
(dp1494
g74
g75
ssg63
g1488
sg56
(lp1495
S'server_software'
p1496
asbag49
(g70
g51
NtRp1497
(dp1498
g54
(dp1499
g81
g82
ssg63
g1488
sg56
(lp1500
S':'
asbag49
(g70
g51
NtRp1501
(dp1502
g54
(dp1503
sg63
g1488
sg56
(lp1504
g49
(g50
g51
NtRp1505
(dp1506
g54
(dp1507
g62
I4
ssg63
g1501
sg56
(lp1508
S'Rocket 1.2.4'
p1509
asbasbasbag49
(g65
g51
NtRp1510
(dp1511
g54
(dp1512
sg63
g894
sg56
(lp1513
g49
(g70
g51
NtRp1514
(dp1515
g54
(dp1516
g74
g75
ssg63
g1510
sg56
(lp1517
S'web2py_crontype'
p1518
asbag49
(g70
g51
NtRp1519
(dp1520
g54
(dp1521
g81
g82
ssg63
g1510
sg56
(lp1522
S':'
asbag49
(g70
g51
NtRp1523
(dp1524
g54
(dp1525
sg63
g1510
sg56
(lp1526
g49
(g50
g51
NtRp1527
(dp1528
g54
(dp1529
g62
I4
ssg63
g1523
sg56
(lp1530
S'hard'
p1531
asbasbasbag49
(g65
g51
NtRp1532
(dp1533
g54
(dp1534
sg63
g894
sg56
(lp1535
g49
(g70
g51
NtRp1536
(dp1537
g54
(dp1538
g74
g75
ssg63
g1532
sg56
(lp1539
S'web2py_original_uri'
p1540
asbag49
(g70
g51
NtRp1541
(dp1542
g54
(dp1543
g81
g82
ssg63
g1532
sg56
(lp1544
S':'
asbag49
(g70
g51
NtRp1545
(dp1546
g54
(dp1547
sg63
g1532
sg56
(lp1548
g49
(g50
g51
NtRp1549
(dp1550
g54
(dp1551
g62
I4
ssg63
g1545
sg56
(lp1552
S'/parleyweb/admin/agregar_palabra'
p1553
asbasbasbag49
(g65
g51
NtRp1554
(dp1555
g54
(dp1556
sg63
g894
sg56
(lp1557
g49
(g70
g51
NtRp1558
(dp1559
g54
(dp1560
g74
g75
ssg63
g1554
sg56
(lp1561
S'web2py_path'
p1562
asbag49
(g70
g51
NtRp1563
(dp1564
g54
(dp1565
g81
g82
ssg63
g1554
sg56
(lp1566
S':'
asbag49
(g70
g51
NtRp1567
(dp1568
g54
(dp1569
sg63
g1554
sg56
(lp1570
g49
(g50
g51
NtRp1571
(dp1572
g54
(dp1573
g62
I4
ssg63
g1567
sg56
(lp1574
g941
asbasbasbag49
(g65
g51
NtRp1575
(dp1576
g54
(dp1577
sg63
g894
sg56
(lp1578
g49
(g70
g51
NtRp1579
(dp1580
g54
(dp1581
g74
g75
ssg63
g1575
sg56
(lp1582
S'web2py_version'
p1583
asbag49
(g70
g51
NtRp1584
(dp1585
g54
(dp1586
g81
g82
ssg63
g1575
sg56
(lp1587
S':'
asbag49
(g70
g51
NtRp1588
(dp1589
g54
(dp1590
sg63
g1575
sg56
(lp1591
g49
(g50
g51
NtRp1592
(dp1593
g54
(dp1594
g62
I4
ssg63
g1588
sg56
(lp1595
g49
(g58
g51
NtRp1596
(dp1597
g54
(dp1598
g62
I3
ssg63
Nsg56
(lp1599
g49
(g65
g51
NtRp1600
(dp1601
g54
(dp1602
sg63
g1596
sg56
(lp1603
g49
(g70
g51
NtRp1604
(dp1605
g54
(dp1606
sg63
g1600
sg56
(lp1607
g49
(g50
g51
NtRp1608
(dp1609
g54
(dp1610
g62
I3
ssg63
g1604
sg56
(lp1611
S'1'
asbasbasbag49
(g65
g51
NtRp1612
(dp1613
g54
(dp1614
sg63
g1596
sg56
(lp1615
g49
(g70
g51
NtRp1616
(dp1617
g54
(dp1618
sg63
g1612
sg56
(lp1619
g49
(g50
g51
NtRp1620
(dp1621
g54
(dp1622
g62
I3
ssg63
g1616
sg56
(lp1623
S'99'
p1624
asbasbasbag49
(g65
g51
NtRp1625
(dp1626
g54
(dp1627
sg63
g1596
sg56
(lp1628
g49
(g70
g51
NtRp1629
(dp1630
g54
(dp1631
sg63
g1625
sg56
(lp1632
g49
(g50
g51
NtRp1633
(dp1634
g54
(dp1635
g62
I3
ssg63
g1629
sg56
(lp1636
S'7'
asbasbasbag49
(g65
g51
NtRp1637
(dp1638
g54
(dp1639
sg63
g1596
sg56
(lp1640
g49
(g70
g51
NtRp1641
(dp1642
g54
(dp1643
sg63
g1637
sg56
(lp1644
g49
(g50
g51
NtRp1645
(dp1646
g54
(dp1647
g62
I3
ssg63
g1641
sg56
(lp1648
S'datetime.datetime(2012, 3, 4, 22, 12, 8)'
p1649
asbasbasbag49
(g65
g51
NtRp1650
(dp1651
g54
(dp1652
sg63
g1596
sg56
(lp1653
g49
(g70
g51
NtRp1654
(dp1655
g54
(dp1656
sg63
g1650
sg56
(lp1657
g49
(g50
g51
NtRp1658
(dp1659
g54
(dp1660
g62
I3
ssg63
g1654
sg56
(lp1661
S'stable'
p1662
asbasbasbasbasbasbasbag49
(g65
g51
NtRp1663
(dp1664
g54
(dp1665
sg63
g894
sg56
(lp1666
g49
(g70
g51
NtRp1667
(dp1668
g54
(dp1669
g74
g75
ssg63
g1663
sg56
(lp1670
S'wsgi_errors'
p1671
asbag49
(g70
g51
NtRp1672
(dp1673
g54
(dp1674
g81
g82
ssg63
g1663
sg56
(lp1675
S':'
asbag49
(g70
g51
NtRp1676
(dp1677
g54
(dp1678
sg63
g1663
sg56
(lp1679
g49
(g50
g51
NtRp1680
(dp1681
g54
(dp1682
g62
I4
ssg63
g1676
sg56
(lp1683
S"<open file '<stderr>', mode 'w' at 0x020000B0>"
p1684
asbasbasbag49
(g65
g51
NtRp1685
(dp1686
g54
(dp1687
sg63
g894
sg56
(lp1688
g49
(g70
g51
NtRp1689
(dp1690
g54
(dp1691
g74
g75
ssg63
g1685
sg56
(lp1692
S'wsgi_file_wrapper'
p1693
asbag49
(g70
g51
NtRp1694
(dp1695
g54
(dp1696
g81
g82
ssg63
g1685
sg56
(lp1697
S':'
asbag49
(g70
g51
NtRp1698
(dp1699
g54
(dp1700
sg63
g1685
sg56
(lp1701
g49
(g50
g51
NtRp1702
(dp1703
g54
(dp1704
g62
I4
ssg63
g1698
sg56
(lp1705
S'<class wsgiref.util.FileWrapper at 0x02FE5390>'
p1706
asbasbasbag49
(g65
g51
NtRp1707
(dp1708
g54
(dp1709
sg63
g894
sg56
(lp1710
g49
(g70
g51
NtRp1711
(dp1712
g54
(dp1713
g74
g75
ssg63
g1707
sg56
(lp1714
S'wsgi_input'
p1715
asbag49
(g70
g51
NtRp1716
(dp1717
g54
(dp1718
g81
g82
ssg63
g1707
sg56
(lp1719
S':'
asbag49
(g70
g51
NtRp1720
(dp1721
g54
(dp1722
sg63
g1707
sg56
(lp1723
g49
(g50
g51
NtRp1724
(dp1725
g54
(dp1726
g62
I4
ssg63
g1720
sg56
(lp1727
S'<socket._fileobject object at 0x068C3B30>'
p1728
asbasbasbag49
(g65
g51
NtRp1729
(dp1730
g54
(dp1731
sg63
g894
sg56
(lp1732
g49
(g70
g51
NtRp1733
(dp1734
g54
(dp1735
g74
g75
ssg63
g1729
sg56
(lp1736
S'wsgi_multiprocess'
p1737
asbag49
(g70
g51
NtRp1738
(dp1739
g54
(dp1740
g81
g82
ssg63
g1729
sg56
(lp1741
S':'
asbag49
(g70
g51
NtRp1742
(dp1743
g54
(dp1744
sg63
g1729
sg56
(lp1745
g49
(g50
g51
NtRp1746
(dp1747
g54
(dp1748
g62
I4
ssg63
g1742
sg56
(lp1749
g92
asbasbasbag49
(g65
g51
NtRp1750
(dp1751
g54
(dp1752
sg63
g894
sg56
(lp1753
g49
(g70
g51
NtRp1754
(dp1755
g54
(dp1756
g74
g75
ssg63
g1750
sg56
(lp1757
S'wsgi_multithread'
p1758
asbag49
(g70
g51
NtRp1759
(dp1760
g54
(dp1761
g81
g82
ssg63
g1750
sg56
(lp1762
S':'
asbag49
(g70
g51
NtRp1763
(dp1764
g54
(dp1765
sg63
g1750
sg56
(lp1766
g49
(g50
g51
NtRp1767
(dp1768
g54
(dp1769
g62
I4
ssg63
g1763
sg56
(lp1770
S'True'
p1771
asbasbasbag49
(g65
g51
NtRp1772
(dp1773
g54
(dp1774
sg63
g894
sg56
(lp1775
g49
(g70
g51
NtRp1776
(dp1777
g54
(dp1778
g74
g75
ssg63
g1772
sg56
(lp1779
S'wsgi_run_once'
p1780
asbag49
(g70
g51
NtRp1781
(dp1782
g54
(dp1783
g81
g82
ssg63
g1772
sg56
(lp1784
S':'
asbag49
(g70
g51
NtRp1785
(dp1786
g54
(dp1787
sg63
g1772
sg56
(lp1788
g49
(g50
g51
NtRp1789
(dp1790
g54
(dp1791
g62
I4
ssg63
g1785
sg56
(lp1792
g92
asbasbasbag49
(g65
g51
NtRp1793
(dp1794
g54
(dp1795
sg63
g894
sg56
(lp1796
g49
(g70
g51
NtRp1797
(dp1798
g54
(dp1799
g74
g75
ssg63
g1793
sg56
(lp1800
S'wsgi_url_scheme'
p1801
asbag49
(g70
g51
NtRp1802
(dp1803
g54
(dp1804
g81
g82
ssg63
g1793
sg56
(lp1805
S':'
asbag49
(g70
g51
NtRp1806
(dp1807
g54
(dp1808
sg63
g1793
sg56
(lp1809
g49
(g50
g51
NtRp1810
(dp1811
g54
(dp1812
g62
I4
ssg63
g1806
sg56
(lp1813
S'http'
p1814
asbasbasbag49
(g65
g51
NtRp1815
(dp1816
g54
(dp1817
sg63
g894
sg56
(lp1818
g49
(g70
g51
NtRp1819
(dp1820
g54
(dp1821
g74
g75
ssg63
g1815
sg56
(lp1822
S'wsgi_version'
p1823
asbag49
(g70
g51
NtRp1824
(dp1825
g54
(dp1826
g81
g82
ssg63
g1815
sg56
(lp1827
S':'
asbag49
(g70
g51
NtRp1828
(dp1829
g54
(dp1830
sg63
g1815
sg56
(lp1831
g49
(g50
g51
NtRp1832
(dp1833
g54
(dp1834
g62
I4
ssg63
g1828
sg56
(lp1835
g49
(g58
g51
NtRp1836
(dp1837
g54
(dp1838
g62
I3
ssg63
Nsg56
(lp1839
g49
(g65
g51
NtRp1840
(dp1841
g54
(dp1842
sg63
g1836
sg56
(lp1843
g49
(g70
g51
NtRp1844
(dp1845
g54
(dp1846
sg63
g1840
sg56
(lp1847
g49
(g50
g51
NtRp1848
(dp1849
g54
(dp1850
g62
I3
ssg63
g1844
sg56
(lp1851
S'1'
asbasbasbag49
(g65
g51
NtRp1852
(dp1853
g54
(dp1854
sg63
g1836
sg56
(lp1855
g49
(g70
g51
NtRp1856
(dp1857
g54
(dp1858
sg63
g1852
sg56
(lp1859
g49
(g50
g51
NtRp1860
(dp1861
g54
(dp1862
g62
I3
ssg63
g1856
sg56
(lp1863
S'0'
asbasbasbasbasbasbasbasbasbasbasbag49
(g65
g51
NtRp1864
(dp1865
g54
(dp1866
sg63
g59
sg56
(lp1867
g49
(g70
g51
NtRp1868
(dp1869
g54
(dp1870
g74
g75
ssg63
g1864
sg56
(lp1871
S'extension'
p1872
asbag49
(g70
g51
NtRp1873
(dp1874
g54
(dp1875
g81
g82
ssg63
g1864
sg56
(lp1876
S':'
asbag49
(g70
g51
NtRp1877
(dp1878
g54
(dp1879
sg63
g1864
sg56
(lp1880
g49
(g50
g51
NtRp1881
(dp1882
g54
(dp1883
g62
I5
ssg63
g1877
sg56
(lp1884
S'html'
p1885
asbasbasbag49
(g65
g51
NtRp1886
(dp1887
g54
(dp1888
sg63
g59
sg56
(lp1889
g49
(g70
g51
NtRp1890
(dp1891
g54
(dp1892
g74
g75
ssg63
g1886
sg56
(lp1893
S'folder'
p1894
asbag49
(g70
g51
NtRp1895
(dp1896
g54
(dp1897
g81
g82
ssg63
g1886
sg56
(lp1898
S':'
asbag49
(g70
g51
NtRp1899
(dp1900
g54
(dp1901
sg63
g1886
sg56
(lp1902
g49
(g50
g51
NtRp1903
(dp1904
g54
(dp1905
g62
I5
ssg63
g1899
sg56
(lp1906
S'D:\\Dise\xf1o Web\\Proyectos\\Parleyweb\\web2py\\applications\\parleyweb\\'
p1907
asbasbasbag49
(g65
g51
NtRp1908
(dp1909
g54
(dp1910
sg63
g59
sg56
(lp1911
g49
(g70
g51
NtRp1912
(dp1913
g54
(dp1914
g74
g75
ssg63
g1908
sg56
(lp1915
S'function'
p1916
asbag49
(g70
g51
NtRp1917
(dp1918
g54
(dp1919
g81
g82
ssg63
g1908
sg56
(lp1920
S':'
asbag49
(g70
g51
NtRp1921
(dp1922
g54
(dp1923
sg63
g1908
sg56
(lp1924
g49
(g50
g51
NtRp1925
(dp1926
g54
(dp1927
g62
I5
ssg63
g1921
sg56
(lp1928
S'agregar_palabra'
p1929
asbasbasbag49
(g65
g51
NtRp1930
(dp1931
g54
(dp1932
sg63
g59
sg56
(lp1933
g49
(g70
g51
NtRp1934
(dp1935
g54
(dp1936
g74
g75
ssg63
g1930
sg56
(lp1937
S'get_vars'
p1938
asbag49
(g70
g51
NtRp1939
(dp1940
g54
(dp1941
g81
g82
ssg63
g1930
sg56
(lp1942
S':'
asbag49
(g70
g51
NtRp1943
(dp1944
g54
(dp1945
sg63
g1930
sg56
(lp1946
g49
(g50
g51
NtRp1947
(dp1948
g54
(dp1949
g62
I5
ssg63
g1943
sg56
(lp1950
g49
(g58
g51
NtRp1951
(dp1952
g54
(dp1953
g62
I4
ssg63
Nsg56
(lp1954
sbasbasbasbag49
(g65
g51
NtRp1955
(dp1956
g54
(dp1957
sg63
g59
sg56
(lp1958
g49
(g70
g51
NtRp1959
(dp1960
g54
(dp1961
g74
g75
ssg63
g1955
sg56
(lp1962
S'global_settings'
p1963
asbag49
(g70
g51
NtRp1964
(dp1965
g54
(dp1966
g81
g82
ssg63
g1955
sg56
(lp1967
S':'
asbag49
(g70
g51
NtRp1968
(dp1969
g54
(dp1970
sg63
g1955
sg56
(lp1971
g49
(g50
g51
NtRp1972
(dp1973
g54
(dp1974
g62
I5
ssg63
g1968
sg56
(lp1975
g49
(g58
g51
NtRp1976
(dp1977
g54
(dp1978
g62
I4
ssg63
Nsg56
(lp1979
g49
(g65
g51
NtRp1980
(dp1981
g54
(dp1982
sg63
g1976
sg56
(lp1983
g49
(g70
g51
NtRp1984
(dp1985
g54
(dp1986
g74
g75
ssg63
g1980
sg56
(lp1987
g906
asbag49
(g70
g51
NtRp1988
(dp1989
g54
(dp1990
g81
g82
ssg63
g1980
sg56
(lp1991
S':'
asbag49
(g70
g51
NtRp1992
(dp1993
g54
(dp1994
sg63
g1980
sg56
(lp1995
g49
(g50
g51
NtRp1996
(dp1997
g54
(dp1998
g62
I4
ssg63
g1992
sg56
(lp1999
S"set(['D:\\\\Dise\\xf1o Web\\\\Proyectos\\\\Parleyweb\\\\web2py\\\\applications\\\\parleyweb\\\\', 'D:\\\\Dise\\xf1o Web\\\\Proyectos\\\\Parleyweb\\\\web2py\\\\applications\\\\admin\\\\'])"
p2000
asbasbasbag49
(g65
g51
NtRp2001
(dp2002
g54
(dp2003
sg63
g1976
sg56
(lp2004
g49
(g70
g51
NtRp2005
(dp2006
g54
(dp2007
g74
g75
ssg63
g2001
sg56
(lp2008
g928
asbag49
(g70
g51
NtRp2009
(dp2010
g54
(dp2011
g81
g82
ssg63
g2001
sg56
(lp2012
S':'
asbag49
(g70
g51
NtRp2013
(dp2014
g54
(dp2015
sg63
g2001
sg56
(lp2016
g49
(g50
g51
NtRp2017
(dp2018
g54
(dp2019
g62
I4
ssg63
g2013
sg56
(lp2020
g941
asbasbasbag49
(g65
g51
NtRp2021
(dp2022
g54
(dp2023
sg63
g1976
sg56
(lp2024
g49
(g70
g51
NtRp2025
(dp2026
g54
(dp2027
g74
g75
ssg63
g2021
sg56
(lp2028
g950
asbag49
(g70
g51
NtRp2029
(dp2030
g54
(dp2031
g81
g82
ssg63
g2021
sg56
(lp2032
S':'
asbag49
(g70
g51
NtRp2033
(dp2034
g54
(dp2035
sg63
g2021
sg56
(lp2036
g49
(g50
g51
NtRp2037
(dp2038
g54
(dp2039
g62
I4
ssg63
g2033
sg56
(lp2040
g49
(g58
g51
NtRp2041
(dp2042
g54
(dp2043
g62
I3
ssg63
Nsg56
(lp2044
sbasbasbasbag49
(g65
g51
NtRp2045
(dp2046
g54
(dp2047
sg63
g1976
sg56
(lp2048
g49
(g70
g51
NtRp2049
(dp2050
g54
(dp2051
g74
g75
ssg63
g2045
sg56
(lp2052
g975
asbag49
(g70
g51
NtRp2053
(dp2054
g54
(dp2055
g81
g82
ssg63
g2045
sg56
(lp2056
S':'
asbag49
(g70
g51
NtRp2057
(dp2058
g54
(dp2059
sg63
g2045
sg56
(lp2060
g49
(g50
g51
NtRp2061
(dp2062
g54
(dp2063
g62
I4
ssg63
g2057
sg56
(lp2064
S"<Values at 0x31f4238: {'verbose': False, 'ip': '127.0.0.1', 'shutdown_timeout': 5, 'taskbar': False, 'nocron': False, 'pid_filename': 'httpserver.pid', 'maxthreads': None, 'softcron': False, 'server_name': 'craxsnet-PC', 'bpython': False, 'nogui': False, 'port': 8000, 'extcron': False, 'debuglevel': 30, 'test': None, 'folder': 'D:\\\\Dise\\xf1o Web\\\\Proyectos\\\\Parleyweb\\\\web2py', 'config': '', 'import_models': False, 'winservice': '', 'shell': None, 'run': '', 'log_filename': 'httpserver.log', 'args': [''], 'socket_timeout': 5, 'ssl_ca_certificate': None, 'scheduler': None, 'profiler_filename': None, 'ssl_private_key': '', 'password': '<ask>', 'request_queue_size': 5, 'ssl_certificate': '', 'cronjob': False, 'numthreads': None, 'quiet': False, 'interfaces': None, 'minthreads': None, 'timeout': 10, 'plain': False, 'nobanner': False}>"
p2065
asbasbasbag49
(g65
g51
NtRp2066
(dp2067
g54
(dp2068
sg63
g1976
sg56
(lp2069
g49
(g70
g51
NtRp2070
(dp2071
g54
(dp2072
g74
g75
ssg63
g2066
sg56
(lp2073
g997
asbag49
(g70
g51
NtRp2074
(dp2075
g54
(dp2076
g81
g82
ssg63
g2066
sg56
(lp2077
S':'
asbag49
(g70
g51
NtRp2078
(dp2079
g54
(dp2080
sg63
g2066
sg56
(lp2081
g49
(g50
g51
NtRp2082
(dp2083
g54
(dp2084
g62
I4
ssg63
g2078
sg56
(lp2085
S'set([])'
p2086
asbasbasbag49
(g65
g51
NtRp2087
(dp2088
g54
(dp2089
sg63
g1976
sg56
(lp2090
g49
(g70
g51
NtRp2091
(dp2092
g54
(dp2093
g74
g75
ssg63
g2087
sg56
(lp2094
g1019
asbag49
(g70
g51
NtRp2095
(dp2096
g54
(dp2097
g81
g82
ssg63
g2087
sg56
(lp2098
S':'
asbag49
(g70
g51
NtRp2099
(dp2100
g54
(dp2101
sg63
g2087
sg56
(lp2102
g49
(g50
g51
NtRp2103
(dp2104
g54
(dp2105
g62
I4
ssg63
g2099
sg56
(lp2106
g92
asbasbasbag49
(g65
g51
NtRp2107
(dp2108
g54
(dp2109
sg63
g1976
sg56
(lp2110
g49
(g70
g51
NtRp2111
(dp2112
g54
(dp2113
g74
g75
ssg63
g2107
sg56
(lp2114
g1040
asbag49
(g70
g51
NtRp2115
(dp2116
g54
(dp2117
g81
g82
ssg63
g2107
sg56
(lp2118
S':'
asbag49
(g70
g51
NtRp2119
(dp2120
g54
(dp2121
sg63
g2107
sg56
(lp2122
g49
(g50
g51
NtRp2123
(dp2124
g54
(dp2125
g62
I4
ssg63
g2119
sg56
(lp2126
g1053
asbasbasbag49
(g65
g51
NtRp2127
(dp2128
g54
(dp2129
sg63
g1976
sg56
(lp2130
g49
(g70
g51
NtRp2131
(dp2132
g54
(dp2133
g74
g75
ssg63
g2127
sg56
(lp2134
g1238
asbag49
(g70
g51
NtRp2135
(dp2136
g54
(dp2137
g81
g82
ssg63
g2127
sg56
(lp2138
S':'
asbag49
(g70
g51
NtRp2139
(dp2140
g54
(dp2141
sg63
g2127
sg56
(lp2142
g49
(g50
g51
NtRp2143
(dp2144
g54
(dp2145
g62
I4
ssg63
g2139
sg56
(lp2146
g92
asbasbasbag49
(g65
g51
NtRp2147
(dp2148
g54
(dp2149
sg63
g1976
sg56
(lp2150
g49
(g70
g51
NtRp2151
(dp2152
g54
(dp2153
g74
g75
ssg63
g2147
sg56
(lp2154
g1259
asbag49
(g70
g51
NtRp2155
(dp2156
g54
(dp2157
g81
g82
ssg63
g2147
sg56
(lp2158
S':'
asbag49
(g70
g51
NtRp2159
(dp2160
g54
(dp2161
sg63
g2147
sg56
(lp2162
g49
(g50
g51
NtRp2163
(dp2164
g54
(dp2165
g62
I4
ssg63
g2159
sg56
(lp2166
g92
asbasbasbag49
(g65
g51
NtRp2167
(dp2168
g54
(dp2169
sg63
g1976
sg56
(lp2170
g49
(g70
g51
NtRp2171
(dp2172
g54
(dp2173
g74
g75
ssg63
g2167
sg56
(lp2174
g1518
asbag49
(g70
g51
NtRp2175
(dp2176
g54
(dp2177
g81
g82
ssg63
g2167
sg56
(lp2178
S':'
asbag49
(g70
g51
NtRp2179
(dp2180
g54
(dp2181
sg63
g2167
sg56
(lp2182
g49
(g50
g51
NtRp2183
(dp2184
g54
(dp2185
g62
I4
ssg63
g2179
sg56
(lp2186
g1531
asbasbasbag49
(g65
g51
NtRp2187
(dp2188
g54
(dp2189
sg63
g1976
sg56
(lp2190
g49
(g70
g51
NtRp2191
(dp2192
g54
(dp2193
g74
g75
ssg63
g2187
sg56
(lp2194
g1583
asbag49
(g70
g51
NtRp2195
(dp2196
g54
(dp2197
g81
g82
ssg63
g2187
sg56
(lp2198
S':'
asbag49
(g70
g51
NtRp2199
(dp2200
g54
(dp2201
sg63
g2187
sg56
(lp2202
g49
(g50
g51
NtRp2203
(dp2204
g54
(dp2205
g62
I4
ssg63
g2199
sg56
(lp2206
g49
(g58
g51
NtRp2207
(dp2208
g54
(dp2209
g62
I3
ssg63
Nsg56
(lp2210
g49
(g65
g51
NtRp2211
(dp2212
g54
(dp2213
sg63
g2207
sg56
(lp2214
g49
(g70
g51
NtRp2215
(dp2216
g54
(dp2217
sg63
g2211
sg56
(lp2218
g49
(g50
g51
NtRp2219
(dp2220
g54
(dp2221
g62
I3
ssg63
g2215
sg56
(lp2222
S'1'
asbasbasbag49
(g65
g51
NtRp2223
(dp2224
g54
(dp2225
sg63
g2207
sg56
(lp2226
g49
(g70
g51
NtRp2227
(dp2228
g54
(dp2229
sg63
g2223
sg56
(lp2230
g49
(g50
g51
NtRp2231
(dp2232
g54
(dp2233
g62
I3
ssg63
g2227
sg56
(lp2234
S'99'
p2235
asbasbasbag49
(g65
g51
NtRp2236
(dp2237
g54
(dp2238
sg63
g2207
sg56
(lp2239
g49
(g70
g51
NtRp2240
(dp2241
g54
(dp2242
sg63
g2236
sg56
(lp2243
g49
(g50
g51
NtRp2244
(dp2245
g54
(dp2246
g62
I3
ssg63
g2240
sg56
(lp2247
S'7'
asbasbasbag49
(g65
g51
NtRp2248
(dp2249
g54
(dp2250
sg63
g2207
sg56
(lp2251
g49
(g70
g51
NtRp2252
(dp2253
g54
(dp2254
sg63
g2248
sg56
(lp2255
g49
(g50
g51
NtRp2256
(dp2257
g54
(dp2258
g62
I3
ssg63
g2252
sg56
(lp2259
S'datetime.datetime(2012, 3, 4, 22, 12, 8)'
p2260
asbasbasbag49
(g65
g51
NtRp2261
(dp2262
g54
(dp2263
sg63
g2207
sg56
(lp2264
g49
(g70
g51
NtRp2265
(dp2266
g54
(dp2267
sg63
g2261
sg56
(lp2268
g49
(g50
g51
NtRp2269
(dp2270
g54
(dp2271
g62
I3
ssg63
g2265
sg56
(lp2272
g1662
asbasbasbasbasbasbasbasbasbasbasbag49
(g65
g51
NtRp2273
(dp2274
g54
(dp2275
sg63
g59
sg56
(lp2276
g49
(g70
g51
NtRp2277
(dp2278
g54
(dp2279
g74
g75
ssg63
g2273
sg56
(lp2280
S'is_https'
p2281
asbag49
(g70
g51
NtRp2282
(dp2283
g54
(dp2284
g81
g82
ssg63
g2273
sg56
(lp2285
S':'
asbag49
(g70
g51
NtRp2286
(dp2287
g54
(dp2288
sg63
g2273
sg56
(lp2289
g49
(g50
g51
NtRp2290
(dp2291
g54
(dp2292
g62
I5
ssg63
g2286
sg56
(lp2293
g92
asbasbasbag49
(g65
g51
NtRp2294
(dp2295
g54
(dp2296
sg63
g59
sg56
(lp2297
g49
(g70
g51
NtRp2298
(dp2299
g54
(dp2300
g74
g75
ssg63
g2294
sg56
(lp2301
S'is_local'
p2302
asbag49
(g70
g51
NtRp2303
(dp2304
g54
(dp2305
g81
g82
ssg63
g2294
sg56
(lp2306
S':'
asbag49
(g70
g51
NtRp2307
(dp2308
g54
(dp2309
sg63
g2294
sg56
(lp2310
g49
(g50
g51
NtRp2311
(dp2312
g54
(dp2313
g62
I5
ssg63
g2307
sg56
(lp2314
g1771
asbasbasbag49
(g65
g51
NtRp2315
(dp2316
g54
(dp2317
sg63
g59
sg56
(lp2318
g49
(g70
g51
NtRp2319
(dp2320
g54
(dp2321
g74
g75
ssg63
g2315
sg56
(lp2322
S'is_restful'
p2323
asbag49
(g70
g51
NtRp2324
(dp2325
g54
(dp2326
g81
g82
ssg63
g2315
sg56
(lp2327
S':'
asbag49
(g70
g51
NtRp2328
(dp2329
g54
(dp2330
sg63
g2315
sg56
(lp2331
g49
(g50
g51
NtRp2332
(dp2333
g54
(dp2334
g62
I5
ssg63
g2328
sg56
(lp2335
g92
asbasbasbag49
(g65
g51
NtRp2336
(dp2337
g54
(dp2338
sg63
g59
sg56
(lp2339
g49
(g70
g51
NtRp2340
(dp2341
g54
(dp2342
g74
g75
ssg63
g2336
sg56
(lp2343
S'now'
p2344
asbag49
(g70
g51
NtRp2345
(dp2346
g54
(dp2347
g81
g82
ssg63
g2336
sg56
(lp2348
S':'
asbag49
(g70
g51
NtRp2349
(dp2350
g54
(dp2351
sg63
g2336
sg56
(lp2352
g49
(g50
g51
NtRp2353
(dp2354
g54
(dp2355
g62
I5
ssg63
g2349
sg56
(lp2356
S'datetime.datetime(2012, 3, 13, 2, 10, 7, 11000)'
p2357
asbasbasbag49
(g65
g51
NtRp2358
(dp2359
g54
(dp2360
sg63
g59
sg56
(lp2361
g49
(g70
g51
NtRp2362
(dp2363
g54
(dp2364
g74
g75
ssg63
g2358
sg56
(lp2365
S'post_vars'
p2366
asbag49
(g70
g51
NtRp2367
(dp2368
g54
(dp2369
g81
g82
ssg63
g2358
sg56
(lp2370
S':'
asbag49
(g70
g51
NtRp2371
(dp2372
g54
(dp2373
sg63
g2358
sg56
(lp2374
g49
(g50
g51
NtRp2375
(dp2376
g54
(dp2377
g62
I5
ssg63
g2371
sg56
(lp2378
g49
(g58
g51
NtRp2379
(dp2380
g54
(dp2381
g62
I4
ssg63
Nsg56
(lp2382
sbasbasbasbag49
(g65
g51
NtRp2383
(dp2384
g54
(dp2385
sg63
g59
sg56
(lp2386
g49
(g70
g51
NtRp2387
(dp2388
g54
(dp2389
g74
g75
ssg63
g2383
sg56
(lp2390
S'url'
p2391
asbag49
(g70
g51
NtRp2392
(dp2393
g54
(dp2394
g81
g82
ssg63
g2383
sg56
(lp2395
S':'
asbag49
(g70
g51
NtRp2396
(dp2397
g54
(dp2398
sg63
g2383
sg56
(lp2399
g49
(g50
g51
NtRp2400
(dp2401
g54
(dp2402
g62
I5
ssg63
g2396
sg56
(lp2403
S'/parleyweb/admin/agregar_palabra'
p2404
asbasbasbag49
(g65
g51
NtRp2405
(dp2406
g54
(dp2407
sg63
g59
sg56
(lp2408
g49
(g70
g51
NtRp2409
(dp2410
g54
(dp2411
g74
g75
ssg63
g2405
sg56
(lp2412
S'utcnow'
p2413
asbag49
(g70
g51
NtRp2414
(dp2415
g54
(dp2416
g81
g82
ssg63
g2405
sg56
(lp2417
S':'
asbag49
(g70
g51
NtRp2418
(dp2419
g54
(dp2420
sg63
g2405
sg56
(lp2421
g49
(g50
g51
NtRp2422
(dp2423
g54
(dp2424
g62
I5
ssg63
g2418
sg56
(lp2425
S'datetime.datetime(2012, 3, 13, 1, 10, 7, 11000)'
p2426
asbasbasbag49
(g65
g51
NtRp2427
(dp2428
g54
(dp2429
sg63
g59
sg56
(lp2430
g49
(g70
g51
NtRp2431
(dp2432
g54
(dp2433
g74
g75
ssg63
g2427
sg56
(lp2434
S'uuid'
p2435
asbag49
(g70
g51
NtRp2436
(dp2437
g54
(dp2438
g81
g82
ssg63
g2427
sg56
(lp2439
S':'
asbag49
(g70
g51
NtRp2440
(dp2441
g54
(dp2442
sg63
g2427
sg56
(lp2443
g49
(g50
g51
NtRp2444
(dp2445
g54
(dp2446
g62
I5
ssg63
g2440
sg56
(lp2447
S'parleyweb/127.0.0.1.2012-03-13.02-10-07.3555e26b-7875-4ca1-9e4e-e9998657d1ba'
p2448
asbasbasbag49
(g65
g51
NtRp2449
(dp2450
g54
(dp2451
sg63
g59
sg56
(lp2452
g49
(g70
g51
NtRp2453
(dp2454
g54
(dp2455
g74
g75
ssg63
g2449
sg56
(lp2456
S'vars'
p2457
asbag49
(g70
g51
NtRp2458
(dp2459
g54
(dp2460
g81
g82
ssg63
g2449
sg56
(lp2461
S':'
asbag49
(g70
g51
NtRp2462
(dp2463
g54
(dp2464
sg63
g2449
sg56
(lp2465
g49
(g50
g51
NtRp2466
(dp2467
g54
(dp2468
g62
I5
ssg63
g2462
sg56
(lp2469
g49
(g58
g51
NtRp2470
(dp2471
g54
(dp2472
g62
I4
ssg63
Nsg56
(lp2473
sbasbasbasbag49
(g65
g51
NtRp2474
(dp2475
g54
(dp2476
sg63
g59
sg56
(lp2477
g49
(g70
g51
NtRp2478
(dp2479
g54
(dp2480
g74
g75
ssg63
g2474
sg56
(lp2481
S'wsgi'
p2482
asbag49
(g70
g51
NtRp2483
(dp2484
g54
(dp2485
g81
g82
ssg63
g2474
sg56
(lp2486
S':'
asbag49
(g70
g51
NtRp2487
(dp2488
g54
(dp2489
sg63
g2474
sg56
(lp2490
g49
(g50
g51
NtRp2491
(dp2492
g54
(dp2493
g62
I5
ssg63
g2487
sg56
(lp2494
g49
(g58
g51
NtRp2495
(dp2496
g54
(dp2497
g62
I4
ssg63
Nsg56
(lp2498
g49
(g65
g51
NtRp2499
(dp2500
g54
(dp2501
sg63
g2495
sg56
(lp2502
g49
(g70
g51
NtRp2503
(dp2504
g54
(dp2505
g74
g75
ssg63
g2499
sg56
(lp2506
S'environ'
p2507
asbag49
(g70
g51
NtRp2508
(dp2509
g54
(dp2510
g81
g82
ssg63
g2499
sg56
(lp2511
S':'
asbag49
(g70
g51
NtRp2512
(dp2513
g54
(dp2514
sg63
g2499
sg56
(lp2515
g49
(g50
g51
NtRp2516
(dp2517
g54
(dp2518
g62
I4
ssg63
g2512
sg56
(lp2519
g49
(g58
g51
NtRp2520
(dp2521
g54
(dp2522
g62
I3
ssg63
Nsg56
(lp2523
g49
(g65
g51
NtRp2524
(dp2525
g54
(dp2526
sg63
g2520
sg56
(lp2527
g49
(g70
g51
NtRp2528
(dp2529
g54
(dp2530
g74
g75
ssg63
g2524
sg56
(lp2531
S'HTTP_ACCEPT'
p2532
asbag49
(g70
g51
NtRp2533
(dp2534
g54
(dp2535
g81
g82
ssg63
g2524
sg56
(lp2536
S':'
asbag49
(g70
g51
NtRp2537
(dp2538
g54
(dp2539
sg63
g2524
sg56
(lp2540
g49
(g50
g51
NtRp2541
(dp2542
g54
(dp2543
g62
I3
ssg63
g2537
sg56
(lp2544
g1075
asbasbasbag49
(g65
g51
NtRp2545
(dp2546
g54
(dp2547
sg63
g2520
sg56
(lp2548
g49
(g70
g51
NtRp2549
(dp2550
g54
(dp2551
g74
g75
ssg63
g2545
sg56
(lp2552
S'HTTP_ACCEPT_ENCODING'
p2553
asbag49
(g70
g51
NtRp2554
(dp2555
g54
(dp2556
g81
g82
ssg63
g2545
sg56
(lp2557
S':'
asbag49
(g70
g51
NtRp2558
(dp2559
g54
(dp2560
sg63
g2545
sg56
(lp2561
g49
(g50
g51
NtRp2562
(dp2563
g54
(dp2564
g62
I3
ssg63
g2558
sg56
(lp2565
g1097
asbasbasbag49
(g65
g51
NtRp2566
(dp2567
g54
(dp2568
sg63
g2520
sg56
(lp2569
g49
(g70
g51
NtRp2570
(dp2571
g54
(dp2572
g74
g75
ssg63
g2566
sg56
(lp2573
S'HTTP_ACCEPT_LANGUAGE'
p2574
asbag49
(g70
g51
NtRp2575
(dp2576
g54
(dp2577
g81
g82
ssg63
g2566
sg56
(lp2578
S':'
asbag49
(g70
g51
NtRp2579
(dp2580
g54
(dp2581
sg63
g2566
sg56
(lp2582
g49
(g50
g51
NtRp2583
(dp2584
g54
(dp2585
g62
I3
ssg63
g2579
sg56
(lp2586
g1119
asbasbasbag49
(g65
g51
NtRp2587
(dp2588
g54
(dp2589
sg63
g2520
sg56
(lp2590
g49
(g70
g51
NtRp2591
(dp2592
g54
(dp2593
g74
g75
ssg63
g2587
sg56
(lp2594
S'HTTP_CONNECTION'
p2595
asbag49
(g70
g51
NtRp2596
(dp2597
g54
(dp2598
g81
g82
ssg63
g2587
sg56
(lp2599
S':'
asbag49
(g70
g51
NtRp2600
(dp2601
g54
(dp2602
sg63
g2587
sg56
(lp2603
g49
(g50
g51
NtRp2604
(dp2605
g54
(dp2606
g62
I3
ssg63
g2600
sg56
(lp2607
g1141
asbasbasbag49
(g65
g51
NtRp2608
(dp2609
g54
(dp2610
sg63
g2520
sg56
(lp2611
g49
(g70
g51
NtRp2612
(dp2613
g54
(dp2614
g74
g75
ssg63
g2608
sg56
(lp2615
S'HTTP_COOKIE'
p2616
asbag49
(g70
g51
NtRp2617
(dp2618
g54
(dp2619
g81
g82
ssg63
g2608
sg56
(lp2620
S':'
asbag49
(g70
g51
NtRp2621
(dp2622
g54
(dp2623
sg63
g2608
sg56
(lp2624
g49
(g50
g51
NtRp2625
(dp2626
g54
(dp2627
g62
I3
ssg63
g2621
sg56
(lp2628
g1163
asbasbasbag49
(g65
g51
NtRp2629
(dp2630
g54
(dp2631
sg63
g2520
sg56
(lp2632
g49
(g70
g51
NtRp2633
(dp2634
g54
(dp2635
g74
g75
ssg63
g2629
sg56
(lp2636
S'HTTP_HOST'
p2637
asbag49
(g70
g51
NtRp2638
(dp2639
g54
(dp2640
g81
g82
ssg63
g2629
sg56
(lp2641
S':'
asbag49
(g70
g51
NtRp2642
(dp2643
g54
(dp2644
sg63
g2629
sg56
(lp2645
g49
(g50
g51
NtRp2646
(dp2647
g54
(dp2648
g62
I3
ssg63
g2642
sg56
(lp2649
g1185
asbasbasbag49
(g65
g51
NtRp2650
(dp2651
g54
(dp2652
sg63
g2520
sg56
(lp2653
g49
(g70
g51
NtRp2654
(dp2655
g54
(dp2656
g74
g75
ssg63
g2650
sg56
(lp2657
S'HTTP_REFERER'
p2658
asbag49
(g70
g51
NtRp2659
(dp2660
g54
(dp2661
g81
g82
ssg63
g2650
sg56
(lp2662
S':'
asbag49
(g70
g51
NtRp2663
(dp2664
g54
(dp2665
sg63
g2650
sg56
(lp2666
g49
(g50
g51
NtRp2667
(dp2668
g54
(dp2669
g62
I3
ssg63
g2663
sg56
(lp2670
g1207
asbasbasbag49
(g65
g51
NtRp2671
(dp2672
g54
(dp2673
sg63
g2520
sg56
(lp2674
g49
(g70
g51
NtRp2675
(dp2676
g54
(dp2677
g74
g75
ssg63
g2671
sg56
(lp2678
S'HTTP_USER_AGENT'
p2679
asbag49
(g70
g51
NtRp2680
(dp2681
g54
(dp2682
g81
g82
ssg63
g2671
sg56
(lp2683
S':'
asbag49
(g70
g51
NtRp2684
(dp2685
g54
(dp2686
sg63
g2671
sg56
(lp2687
g49
(g50
g51
NtRp2688
(dp2689
g54
(dp2690
g62
I3
ssg63
g2684
sg56
(lp2691
g1229
asbasbasbag49
(g65
g51
NtRp2692
(dp2693
g54
(dp2694
sg63
g2520
sg56
(lp2695
g49
(g70
g51
NtRp2696
(dp2697
g54
(dp2698
g74
g75
ssg63
g2692
sg56
(lp2699
S'PATH_INFO'
p2700
asbag49
(g70
g51
NtRp2701
(dp2702
g54
(dp2703
g81
g82
ssg63
g2692
sg56
(lp2704
S':'
asbag49
(g70
g51
NtRp2705
(dp2706
g54
(dp2707
sg63
g2692
sg56
(lp2708
g49
(g50
g51
NtRp2709
(dp2710
g54
(dp2711
g62
I3
ssg63
g2705
sg56
(lp2712
g1293
asbasbasbag49
(g65
g51
NtRp2713
(dp2714
g54
(dp2715
sg63
g2520
sg56
(lp2716
g49
(g70
g51
NtRp2717
(dp2718
g54
(dp2719
g74
g75
ssg63
g2713
sg56
(lp2720
S'QUERY_STRING'
p2721
asbag49
(g70
g51
NtRp2722
(dp2723
g54
(dp2724
g81
g82
ssg63
g2713
sg56
(lp2725
S':'
asbag49
(g70
g51
NtRp2726
(dp2727
g54
(dp2728
sg63
g2713
sg56
(lp2729
g49
(g50
g51
NtRp2730
(dp2731
g54
(dp2732
g62
I3
ssg63
g2726
sg56
(lp2733
S''
asbasbasbag49
(g65
g51
NtRp2734
(dp2735
g54
(dp2736
sg63
g2520
sg56
(lp2737
g49
(g70
g51
NtRp2738
(dp2739
g54
(dp2740
g74
g75
ssg63
g2734
sg56
(lp2741
S'REMOTE_ADDR'
p2742
asbag49
(g70
g51
NtRp2743
(dp2744
g54
(dp2745
g81
g82
ssg63
g2734
sg56
(lp2746
S':'
asbag49
(g70
g51
NtRp2747
(dp2748
g54
(dp2749
sg63
g2734
sg56
(lp2750
g49
(g50
g51
NtRp2751
(dp2752
g54
(dp2753
g62
I3
ssg63
g2747
sg56
(lp2754
g158
asbasbasbag49
(g65
g51
NtRp2755
(dp2756
g54
(dp2757
sg63
g2520
sg56
(lp2758
g49
(g70
g51
NtRp2759
(dp2760
g54
(dp2761
g74
g75
ssg63
g2755
sg56
(lp2762
S'REMOTE_PORT'
p2763
asbag49
(g70
g51
NtRp2764
(dp2765
g54
(dp2766
g81
g82
ssg63
g2755
sg56
(lp2767
S':'
asbag49
(g70
g51
NtRp2768
(dp2769
g54
(dp2770
sg63
g2755
sg56
(lp2771
g49
(g50
g51
NtRp2772
(dp2773
g54
(dp2774
g62
I3
ssg63
g2768
sg56
(lp2775
g1357
asbasbasbag49
(g65
g51
NtRp2776
(dp2777
g54
(dp2778
sg63
g2520
sg56
(lp2779
g49
(g70
g51
NtRp2780
(dp2781
g54
(dp2782
g74
g75
ssg63
g2776
sg56
(lp2783
S'REQUEST_METHOD'
p2784
asbag49
(g70
g51
NtRp2785
(dp2786
g54
(dp2787
g81
g82
ssg63
g2776
sg56
(lp2788
S':'
asbag49
(g70
g51
NtRp2789
(dp2790
g54
(dp2791
sg63
g2776
sg56
(lp2792
g49
(g50
g51
NtRp2793
(dp2794
g54
(dp2795
g62
I3
ssg63
g2789
sg56
(lp2796
g1379
asbasbasbag49
(g65
g51
NtRp2797
(dp2798
g54
(dp2799
sg63
g2520
sg56
(lp2800
g49
(g70
g51
NtRp2801
(dp2802
g54
(dp2803
g74
g75
ssg63
g2797
sg56
(lp2804
S'REQUEST_URI'
p2805
asbag49
(g70
g51
NtRp2806
(dp2807
g54
(dp2808
g81
g82
ssg63
g2797
sg56
(lp2809
S':'
asbag49
(g70
g51
NtRp2810
(dp2811
g54
(dp2812
sg63
g2797
sg56
(lp2813
g49
(g50
g51
NtRp2814
(dp2815
g54
(dp2816
g62
I3
ssg63
g2810
sg56
(lp2817
g1293
asbasbasbag49
(g65
g51
NtRp2818
(dp2819
g54
(dp2820
sg63
g2520
sg56
(lp2821
g49
(g70
g51
NtRp2822
(dp2823
g54
(dp2824
g74
g75
ssg63
g2818
sg56
(lp2825
S'SCRIPT_NAME'
p2826
asbag49
(g70
g51
NtRp2827
(dp2828
g54
(dp2829
g81
g82
ssg63
g2818
sg56
(lp2830
S':'
asbag49
(g70
g51
NtRp2831
(dp2832
g54
(dp2833
sg63
g2818
sg56
(lp2834
g49
(g50
g51
NtRp2835
(dp2836
g54
(dp2837
g62
I3
ssg63
g2831
sg56
(lp2838
S''
asbasbasbag49
(g65
g51
NtRp2839
(dp2840
g54
(dp2841
sg63
g2520
sg56
(lp2842
g49
(g70
g51
NtRp2843
(dp2844
g54
(dp2845
g74
g75
ssg63
g2839
sg56
(lp2846
S'SERVER_NAME'
p2847
asbag49
(g70
g51
NtRp2848
(dp2849
g54
(dp2850
g81
g82
ssg63
g2839
sg56
(lp2851
S':'
asbag49
(g70
g51
NtRp2852
(dp2853
g54
(dp2854
sg63
g2839
sg56
(lp2855
g49
(g50
g51
NtRp2856
(dp2857
g54
(dp2858
g62
I3
ssg63
g2852
sg56
(lp2859
g1443
asbasbasbag49
(g65
g51
NtRp2860
(dp2861
g54
(dp2862
sg63
g2520
sg56
(lp2863
g49
(g70
g51
NtRp2864
(dp2865
g54
(dp2866
g74
g75
ssg63
g2860
sg56
(lp2867
S'SERVER_PORT'
p2868
asbag49
(g70
g51
NtRp2869
(dp2870
g54
(dp2871
g81
g82
ssg63
g2860
sg56
(lp2872
S':'
asbag49
(g70
g51
NtRp2873
(dp2874
g54
(dp2875
sg63
g2860
sg56
(lp2876
g49
(g50
g51
NtRp2877
(dp2878
g54
(dp2879
g62
I3
ssg63
g2873
sg56
(lp2880
g1465
asbasbasbag49
(g65
g51
NtRp2881
(dp2882
g54
(dp2883
sg63
g2520
sg56
(lp2884
g49
(g70
g51
NtRp2885
(dp2886
g54
(dp2887
g74
g75
ssg63
g2881
sg56
(lp2888
S'SERVER_PROTOCOL'
p2889
asbag49
(g70
g51
NtRp2890
(dp2891
g54
(dp2892
g81
g82
ssg63
g2881
sg56
(lp2893
S':'
asbag49
(g70
g51
NtRp2894
(dp2895
g54
(dp2896
sg63
g2881
sg56
(lp2897
g49
(g50
g51
NtRp2898
(dp2899
g54
(dp2900
g62
I3
ssg63
g2894
sg56
(lp2901
g1487
asbasbasbag49
(g65
g51
NtRp2902
(dp2903
g54
(dp2904
sg63
g2520
sg56
(lp2905
g49
(g70
g51
NtRp2906
(dp2907
g54
(dp2908
g74
g75
ssg63
g2902
sg56
(lp2909
S'SERVER_SOFTWARE'
p2910
asbag49
(g70
g51
NtRp2911
(dp2912
g54
(dp2913
g81
g82
ssg63
g2902
sg56
(lp2914
S':'
asbag49
(g70
g51
NtRp2915
(dp2916
g54
(dp2917
sg63
g2902
sg56
(lp2918
g49
(g50
g51
NtRp2919
(dp2920
g54
(dp2921
g62
I3
ssg63
g2915
sg56
(lp2922
g1509
asbasbasbag49
(g65
g51
NtRp2923
(dp2924
g54
(dp2925
sg63
g2520
sg56
(lp2926
g49
(g70
g51
NtRp2927
(dp2928
g54
(dp2929
g74
g75
ssg63
g2923
sg56
(lp2930
S'WEB2PY_ORIGINAL_URI'
p2931
asbag49
(g70
g51
NtRp2932
(dp2933
g54
(dp2934
g81
g82
ssg63
g2923
sg56
(lp2935
S':'
asbag49
(g70
g51
NtRp2936
(dp2937
g54
(dp2938
sg63
g2923
sg56
(lp2939
g49
(g50
g51
NtRp2940
(dp2941
g54
(dp2942
g62
I3
ssg63
g2936
sg56
(lp2943
g1553
asbasbasbag49
(g65
g51
NtRp2944
(dp2945
g54
(dp2946
sg63
g2520
sg56
(lp2947
g49
(g70
g51
NtRp2948
(dp2949
g54
(dp2950
g74
g75
ssg63
g2944
sg56
(lp2951
S'wsgi.errors'
p2952
asbag49
(g70
g51
NtRp2953
(dp2954
g54
(dp2955
g81
g82
ssg63
g2944
sg56
(lp2956
S':'
asbag49
(g70
g51
NtRp2957
(dp2958
g54
(dp2959
sg63
g2944
sg56
(lp2960
g49
(g50
g51
NtRp2961
(dp2962
g54
(dp2963
g62
I3
ssg63
g2957
sg56
(lp2964
S"<open file '<stderr>', mode 'w' at 0x020000B0>"
p2965
asbasbasbag49
(g65
g51
NtRp2966
(dp2967
g54
(dp2968
sg63
g2520
sg56
(lp2969
g49
(g70
g51
NtRp2970
(dp2971
g54
(dp2972
g74
g75
ssg63
g2966
sg56
(lp2973
S'wsgi.file_wrapper'
p2974
asbag49
(g70
g51
NtRp2975
(dp2976
g54
(dp2977
g81
g82
ssg63
g2966
sg56
(lp2978
S':'
asbag49
(g70
g51
NtRp2979
(dp2980
g54
(dp2981
sg63
g2966
sg56
(lp2982
g49
(g50
g51
NtRp2983
(dp2984
g54
(dp2985
g62
I3
ssg63
g2979
sg56
(lp2986
S'<class wsgiref.util.FileWrapper at 0x02FE5390>'
p2987
asbasbasbag49
(g65
g51
NtRp2988
(dp2989
g54
(dp2990
sg63
g2520
sg56
(lp2991
g49
(g70
g51
NtRp2992
(dp2993
g54
(dp2994
g74
g75
ssg63
g2988
sg56
(lp2995
S'wsgi.input'
p2996
asbag49
(g70
g51
NtRp2997
(dp2998
g54
(dp2999
g81
g82
ssg63
g2988
sg56
(lp3000
S':'
asbag49
(g70
g51
NtRp3001
(dp3002
g54
(dp3003
sg63
g2988
sg56
(lp3004
g49
(g50
g51
NtRp3005
(dp3006
g54
(dp3007
g62
I3
ssg63
g3001
sg56
(lp3008
S'<cStringIO.StringO object at 0x06982CE0>'
p3009
asbasbasbag49
(g65
g51
NtRp3010
(dp3011
g54
(dp3012
sg63
g2520
sg56
(lp3013
g49
(g70
g51
NtRp3014
(dp3015
g54
(dp3016
g74
g75
ssg63
g3010
sg56
(lp3017
S'wsgi.multiprocess'
p3018
asbag49
(g70
g51
NtRp3019
(dp3020
g54
(dp3021
g81
g82
ssg63
g3010
sg56
(lp3022
S':'
asbag49
(g70
g51
NtRp3023
(dp3024
g54
(dp3025
sg63
g3010
sg56
(lp3026
g49
(g50
g51
NtRp3027
(dp3028
g54
(dp3029
g62
I3
ssg63
g3023
sg56
(lp3030
g92
asbasbasbag49
(g65
g51
NtRp3031
(dp3032
g54
(dp3033
sg63
g2520
sg56
(lp3034
g49
(g70
g51
NtRp3035
(dp3036
g54
(dp3037
g74
g75
ssg63
g3031
sg56
(lp3038
S'wsgi.multithread'
p3039
asbag49
(g70
g51
NtRp3040
(dp3041
g54
(dp3042
g81
g82
ssg63
g3031
sg56
(lp3043
S':'
asbag49
(g70
g51
NtRp3044
(dp3045
g54
(dp3046
sg63
g3031
sg56
(lp3047
g49
(g50
g51
NtRp3048
(dp3049
g54
(dp3050
g62
I3
ssg63
g3044
sg56
(lp3051
g1771
asbasbasbag49
(g65
g51
NtRp3052
(dp3053
g54
(dp3054
sg63
g2520
sg56
(lp3055
g49
(g70
g51
NtRp3056
(dp3057
g54
(dp3058
g74
g75
ssg63
g3052
sg56
(lp3059
S'wsgi.run_once'
p3060
asbag49
(g70
g51
NtRp3061
(dp3062
g54
(dp3063
g81
g82
ssg63
g3052
sg56
(lp3064
S':'
asbag49
(g70
g51
NtRp3065
(dp3066
g54
(dp3067
sg63
g3052
sg56
(lp3068
g49
(g50
g51
NtRp3069
(dp3070
g54
(dp3071
g62
I3
ssg63
g3065
sg56
(lp3072
g92
asbasbasbag49
(g65
g51
NtRp3073
(dp3074
g54
(dp3075
sg63
g2520
sg56
(lp3076
g49
(g70
g51
NtRp3077
(dp3078
g54
(dp3079
g74
g75
ssg63
g3073
sg56
(lp3080
S'wsgi.url_scheme'
p3081
asbag49
(g70
g51
NtRp3082
(dp3083
g54
(dp3084
g81
g82
ssg63
g3073
sg56
(lp3085
S':'
asbag49
(g70
g51
NtRp3086
(dp3087
g54
(dp3088
sg63
g3073
sg56
(lp3089
g49
(g50
g51
NtRp3090
(dp3091
g54
(dp3092
g62
I3
ssg63
g3086
sg56
(lp3093
g1814
asbasbasbag49
(g65
g51
NtRp3094
(dp3095
g54
(dp3096
sg63
g2520
sg56
(lp3097
g49
(g70
g51
NtRp3098
(dp3099
g54
(dp3100
g74
g75
ssg63
g3094
sg56
(lp3101
S'wsgi.version'
p3102
asbag49
(g70
g51
NtRp3103
(dp3104
g54
(dp3105
g81
g82
ssg63
g3094
sg56
(lp3106
S':'
asbag49
(g70
g51
NtRp3107
(dp3108
g54
(dp3109
sg63
g3094
sg56
(lp3110
g49
(g50
g51
NtRp3111
(dp3112
g54
(dp3113
g62
I3
ssg63
g3107
sg56
(lp3114
S'1'
asbasbasbasbasbasbasbasbasbasbasbasbasbsS'frames'
p3115
(lp3116
(dp3117
S'file'
p3118
S'D:\\Dise\xf1o Web\\Proyectos\\Parleyweb\\web2py\\gluon\\restricted.py'
p3119
sS'dump'
p3120
(dp3121
sS'lnum'
p3122
I205
sS'lines'
p3123
(dp3124
sS'call'
p3125
S'(code=r"response.write(\'<!DOCTYPE html>\\n<!-- paulirish....\\n    \\n\\n \\n\\n</body>\\n</html>\\n\', escape=False)", environment={\'A\': <class \'gluon.html.A\'>, \'Auth\': <class \'gluon.tools.Auth\'>, \'B\': <class \'gluon.html.B\'>, \'BEAUTIFY\': <class \'gluon.html.BEAUTIFY\'>, \'BODY\': <class \'gluon.html.BODY\'>, \'BR\': <class \'gluon.html.BR\'>, \'BUTTON\': <class \'gluon.html.BUTTON\'>, \'CAT\': <class \'gluon.html.CAT\'>, \'CENTER\': <class \'gluon.html.CENTER\'>, \'CLEANUP\': <class \'gluon.validators.CLEANUP\'>, ...}, layer=\'D:\\\\Dise\\xf1o Web\\\\Proyectos\\\\Parleyweb\\\\web2py\\\\applications\\\\parleyweb\\\\views\\\\admin/agregar_palabra.html\')'
p3126
sS'func'
p3127
S'restricted'
p3128
sa(dp3129
g3118
S'D:\\Dise\xf1o Web\\Proyectos\\Parleyweb\\web2py\\applications\\parleyweb\\views\\admin\\agregar_palabra.html'
p3130
sg3120
(dp3131
sg3122
I136
sg3123
(dp3132
I128
S'for i in consulta:'
p3133
sI129
S'    response.write(\'\\n                    <tr>\\n                        <td><span class="label label-info">\', escape=False)'
p3134
sI130
S'    response.write(i.id)'
p3135
sI131
S"    response.write('</span></td>\\n                        <td><p>', escape=False)"
p3136
sI132
S"    response.write(A(T(i.palabra), _href=URL('default','mostrar', args=i.id)))"
p3137
sI133
S'    response.write(\'<p></td>\\n                        <td><a data-toggle="modal" href=\', escape=False)'
p3138
sI134
S"    response.write(URL('editar_palabra', args=i.id))"
p3139
sI135
S'    response.write(\'><i class="icon-pencil"></i>Editar</a>\\n                        <a data-toggle="modal"  href=\', escape=False)'
p3140
sI136
S"    response.write(URL('borrar_palabra', raw_args=i.id))"
p3141
sI137
S'    response.write(\'><i class="icon-trash"></i>Borrar</a>\\n                        <a data-toggle="modal"  href=\', escape=False)'
p3142
sI138
S"    response.write(URL('relacionar_ejemplo', args=i.id))"
p3143
sI139
S'    response.write(\'><i class="icon-plus-sign"></i>Relacionar ejemplo</a>\\n                        </td>\\n                        <td>\\n                        \', escape=False)'
p3144
sI140
S'    conta=0'
p3145
sI141
S"    response.write('    \\n                        ', escape=False)"
p3146
sI142
S'    for cont in contador_ejemplo:'
p3147
sI143
S"        response.write('\\n                            ', escape=False)"
p3148
sI144
S'        if cont.palabra==i.id:'
p3149
sI145
S"            response.write('\\n                                ', escape=False)"
p3150
sI146
S'            conta= conta +1'
p3151
sI127
S'response.write(\'\\n        </div>  <!--FIN bloque formulario -->\\n        \\n        <h3>Ultimas palabras</h3> <!--INICIO tabla ultimas palabras -->\\n        <div class="wellparley">  <!-- wellparley2 Inicio -->           \\n            <table class="table table-striped table-bordered" id="pa">\\n                <thead>\\n                    <tr>\\n                        <th>ID</th>\\n                        <th>Palabra</th>\\n                        <th>Opciones</th>\\n                        <th>Info</th>\\n                    </tr>\\n                </thead>\\n                <tbody>\\n                    \', escape=False)'
p3152
ssg3125
S'()'
p3153
sg3127
S'<module>'
p3154
sasS'pyver'
p3155
S'Python 2.5.4: D:\\Dise\xf1o Web\\Proyectos\\Parleyweb\\web2py\\web2py.exe'
p3156
sS'session'
p3157
g49
(g50
g51
NtRp3158
(dp3159
g54
(dp3160
sg56
(lp3161
g49
(g58
g51
NtRp3162
(dp3163
g54
(dp3164
g62
I5
ssg63
Nsg56
(lp3165
g49
(g65
g51
NtRp3166
(dp3167
g54
(dp3168
sg63
g3162
sg56
(lp3169
g49
(g70
g51
NtRp3170
(dp3171
g54
(dp3172
g74
g75
ssg63
g3166
sg56
(lp3173
S'last_query'
p3174
asbag49
(g70
g51
NtRp3175
(dp3176
g54
(dp3177
g81
g82
ssg63
g3166
sg56
(lp3178
S':'
asbag49
(g70
g51
NtRp3179
(dp3180
g54
(dp3181
sg63
g3166
sg56
(lp3182
g49
(g50
g51
NtRp3183
(dp3184
g54
(dp3185
g62
I5
ssg63
g3179
sg56
(lp3186
S'db.palabra_ejemplo.id>0'
p3187
asbasbasbasbasbsS'etype'
p3188
S"<type 'exceptions.TypeError'>"
p3189
sS'date'
p3190
S'Tue Mar 13 02:10:07 2012'
p3191
sS'response'
p3192
g49
(g50
g51
NtRp3193
(dp3194
g54
(dp3195
sg56
(lp3196
g49
(g58
g51
NtRp3197
(dp3198
g54
(dp3199
g62
I5
ssg63
Nsg56
(lp3200
g49
(g65
g51
NtRp3201
(dp3202
g54
(dp3203
sg63
g3197
sg56
(lp3204
g49
(g70
g51
NtRp3205
(dp3206
g54
(dp3207
g74
g75
ssg63
g3201
sg56
(lp3208
g123
asbag49
(g70
g51
NtRp3209
(dp3210
g54
(dp3211
g81
g82
ssg63
g3201
sg56
(lp3212
S':'
asbag49
(g70
g51
NtRp3213
(dp3214
g54
(dp3215
sg63
g3201
sg56
(lp3216
g49
(g50
g51
NtRp3217
(dp3218
g54
(dp3219
g62
I5
ssg63
g3213
sg56
(lp3220
S'<cStringIO.StringO object at 0x06B42E40>'
p3221
asbasbasbag49
(g65
g51
NtRp3222
(dp3223
g54
(dp3224
sg63
g3197
sg56
(lp3225
g49
(g70
g51
NtRp3226
(dp3227
g54
(dp3228
g74
g75
ssg63
g3222
sg56
(lp3229
g189
asbag49
(g70
g51
NtRp3230
(dp3231
g54
(dp3232
g81
g82
ssg63
g3222
sg56
(lp3233
S':'
asbag49
(g70
g51
NtRp3234
(dp3235
g54
(dp3236
sg63
g3222
sg56
(lp3237
g49
(g50
g51
NtRp3238
(dp3239
g54
(dp3240
g62
I5
ssg63
g3234
sg56
(lp3241
g49
(g58
g51
NtRp3242
(dp3243
g54
(dp3244
g62
I4
ssg63
Nsg56
(lp3245
g49
(g65
g51
NtRp3246
(dp3247
g54
(dp3248
sg63
g3242
sg56
(lp3249
g49
(g70
g51
NtRp3250
(dp3251
g54
(dp3252
g74
g75
ssg63
g3246
sg56
(lp3253
S'session_id_parleyweb'
p3254
asbag49
(g70
g51
NtRp3255
(dp3256
g54
(dp3257
g81
g82
ssg63
g3246
sg56
(lp3258
S':'
asbag49
(g70
g51
NtRp3259
(dp3260
g54
(dp3261
sg63
g3246
sg56
(lp3262
g49
(g50
g51
NtRp3263
(dp3264
g54
(dp3265
g62
I4
ssg63
g3259
sg56
(lp3266
g49
(g58
g51
NtRp3267
(dp3268
g54
(dp3269
g62
I3
ssg63
Nsg56
(lp3270
g49
(g65
g51
NtRp3271
(dp3272
g54
(dp3273
sg63
g3267
sg56
(lp3274
g49
(g70
g51
NtRp3275
(dp3276
g54
(dp3277
g74
g75
ssg63
g3271
sg56
(lp3278
g239
asbag49
(g70
g51
NtRp3279
(dp3280
g54
(dp3281
g81
g82
ssg63
g3271
sg56
(lp3282
S':'
asbag49
(g70
g51
NtRp3283
(dp3284
g54
(dp3285
sg63
g3271
sg56
(lp3286
g49
(g50
g51
NtRp3287
(dp3288
g54
(dp3289
g62
I3
ssg63
g3283
sg56
(lp3290
S''
asbasbasbag49
(g65
g51
NtRp3291
(dp3292
g54
(dp3293
sg63
g3267
sg56
(lp3294
g49
(g70
g51
NtRp3295
(dp3296
g54
(dp3297
g74
g75
ssg63
g3291
sg56
(lp3298
g260
asbag49
(g70
g51
NtRp3299
(dp3300
g54
(dp3301
g81
g82
ssg63
g3291
sg56
(lp3302
S':'
asbag49
(g70
g51
NtRp3303
(dp3304
g54
(dp3305
sg63
g3291
sg56
(lp3306
g49
(g50
g51
NtRp3307
(dp3308
g54
(dp3309
g62
I3
ssg63
g3303
sg56
(lp3310
S''
asbasbasbag49
(g65
g51
NtRp3311
(dp3312
g54
(dp3313
sg63
g3267
sg56
(lp3314
g49
(g70
g51
NtRp3315
(dp3316
g54
(dp3317
g74
g75
ssg63
g3311
sg56
(lp3318
g281
asbag49
(g70
g51
NtRp3319
(dp3320
g54
(dp3321
g81
g82
ssg63
g3311
sg56
(lp3322
S':'
asbag49
(g70
g51
NtRp3323
(dp3324
g54
(dp3325
sg63
g3311
sg56
(lp3326
g49
(g50
g51
NtRp3327
(dp3328
g54
(dp3329
g62
I3
ssg63
g3323
sg56
(lp3330
S''
asbasbasbag49
(g65
g51
NtRp3331
(dp3332
g54
(dp3333
sg63
g3267
sg56
(lp3334
g49
(g70
g51
NtRp3335
(dp3336
g54
(dp3337
g74
g75
ssg63
g3331
sg56
(lp3338
g302
asbag49
(g70
g51
NtRp3339
(dp3340
g54
(dp3341
g81
g82
ssg63
g3331
sg56
(lp3342
S':'
asbag49
(g70
g51
NtRp3343
(dp3344
g54
(dp3345
sg63
g3331
sg56
(lp3346
g49
(g50
g51
NtRp3347
(dp3348
g54
(dp3349
g62
I3
ssg63
g3343
sg56
(lp3350
S''
asbasbasbag49
(g65
g51
NtRp3351
(dp3352
g54
(dp3353
sg63
g3267
sg56
(lp3354
g49
(g70
g51
NtRp3355
(dp3356
g54
(dp3357
g74
g75
ssg63
g3351
sg56
(lp3358
g323
asbag49
(g70
g51
NtRp3359
(dp3360
g54
(dp3361
g81
g82
ssg63
g3351
sg56
(lp3362
S':'
asbag49
(g70
g51
NtRp3363
(dp3364
g54
(dp3365
sg63
g3351
sg56
(lp3366
g49
(g50
g51
NtRp3367
(dp3368
g54
(dp3369
g62
I3
ssg63
g3363
sg56
(lp3370
S'/'
asbasbasbag49
(g65
g51
NtRp3371
(dp3372
g54
(dp3373
sg63
g3267
sg56
(lp3374
g49
(g70
g51
NtRp3375
(dp3376
g54
(dp3377
g74
g75
ssg63
g3371
sg56
(lp3378
g344
asbag49
(g70
g51
NtRp3379
(dp3380
g54
(dp3381
g81
g82
ssg63
g3371
sg56
(lp3382
S':'
asbag49
(g70
g51
NtRp3383
(dp3384
g54
(dp3385
sg63
g3371
sg56
(lp3386
g49
(g50
g51
NtRp3387
(dp3388
g54
(dp3389
g62
I3
ssg63
g3383
sg56
(lp3390
S''
asbasbasbag49
(g65
g51
NtRp3391
(dp3392
g54
(dp3393
sg63
g3267
sg56
(lp3394
g49
(g70
g51
NtRp3395
(dp3396
g54
(dp3397
g74
g75
ssg63
g3391
sg56
(lp3398
g365
asbag49
(g70
g51
NtRp3399
(dp3400
g54
(dp3401
g81
g82
ssg63
g3391
sg56
(lp3402
S':'
asbag49
(g70
g51
NtRp3403
(dp3404
g54
(dp3405
sg63
g3391
sg56
(lp3406
g49
(g50
g51
NtRp3407
(dp3408
g54
(dp3409
g62
I3
ssg63
g3403
sg56
(lp3410
S''
asbasbasbasbasbasbasbasbasbasbasbag49
(g65
g51
NtRp3411
(dp3412
g54
(dp3413
sg63
g3197
sg56
(lp3414
g49
(g70
g51
NtRp3415
(dp3416
g54
(dp3417
g74
g75
ssg63
g3411
sg56
(lp3418
S'delimiters'
p3419
asbag49
(g70
g51
NtRp3420
(dp3421
g54
(dp3422
g81
g82
ssg63
g3411
sg56
(lp3423
S':'
asbag49
(g70
g51
NtRp3424
(dp3425
g54
(dp3426
sg63
g3411
sg56
(lp3427
g49
(g50
g51
NtRp3428
(dp3429
g54
(dp3430
g62
I5
ssg63
g3424
sg56
(lp3431
g49
(g58
g51
NtRp3432
(dp3433
g54
(dp3434
g62
I4
ssg63
Nsg56
(lp3435
g49
(g65
g51
NtRp3436
(dp3437
g54
(dp3438
sg63
g3432
sg56
(lp3439
g49
(g70
g51
NtRp3440
(dp3441
g54
(dp3442
sg63
g3436
sg56
(lp3443
g49
(g50
g51
NtRp3444
(dp3445
g54
(dp3446
g62
I4
ssg63
g3440
sg56
(lp3447
S'{{'
p3448
asbasbasbag49
(g65
g51
NtRp3449
(dp3450
g54
(dp3451
sg63
g3432
sg56
(lp3452
g49
(g70
g51
NtRp3453
(dp3454
g54
(dp3455
sg63
g3449
sg56
(lp3456
g49
(g50
g51
NtRp3457
(dp3458
g54
(dp3459
g62
I4
ssg63
g3453
sg56
(lp3460
S'}}'
p3461
asbasbasbasbasbasbasbag49
(g65
g51
NtRp3462
(dp3463
g54
(dp3464
sg63
g3197
sg56
(lp3465
g49
(g70
g51
NtRp3466
(dp3467
g54
(dp3468
g74
g75
ssg63
g3462
sg56
(lp3469
S'files'
p3470
asbag49
(g70
g51
NtRp3471
(dp3472
g54
(dp3473
g81
g82
ssg63
g3462
sg56
(lp3474
S':'
asbag49
(g70
g51
NtRp3475
(dp3476
g54
(dp3477
sg63
g3462
sg56
(lp3478
g49
(g50
g51
NtRp3479
(dp3480
g54
(dp3481
g62
I5
ssg63
g3475
sg56
(lp3482
g49
(g58
g51
NtRp3483
(dp3484
g54
(dp3485
g62
I4
ssg63
Nsg56
(lp3486
g49
(g65
g51
NtRp3487
(dp3488
g54
(dp3489
sg63
g3483
sg56
(lp3490
g49
(g70
g51
NtRp3491
(dp3492
g54
(dp3493
sg63
g3487
sg56
(lp3494
g49
(g50
g51
NtRp3495
(dp3496
g54
(dp3497
g62
I4
ssg63
g3491
sg56
(lp3498
S'/parleyweb/static/js/jquery.js'
p3499
asbasbasbag49
(g65
g51
NtRp3500
(dp3501
g54
(dp3502
sg63
g3483
sg56
(lp3503
g49
(g70
g51
NtRp3504
(dp3505
g54
(dp3506
sg63
g3500
sg56
(lp3507
g49
(g50
g51
NtRp3508
(dp3509
g54
(dp3510
g62
I4
ssg63
g3504
sg56
(lp3511
S'/parleyweb/static/css/calendar.css'
p3512
asbasbasbag49
(g65
g51
NtRp3513
(dp3514
g54
(dp3515
sg63
g3483
sg56
(lp3516
g49
(g70
g51
NtRp3517
(dp3518
g54
(dp3519
sg63
g3513
sg56
(lp3520
g49
(g50
g51
NtRp3521
(dp3522
g54
(dp3523
g62
I4
ssg63
g3517
sg56
(lp3524
S'/parleyweb/static/js/calendar.js'
p3525
asbasbasbag49
(g65
g51
NtRp3526
(dp3527
g54
(dp3528
sg63
g3483
sg56
(lp3529
g49
(g70
g51
NtRp3530
(dp3531
g54
(dp3532
sg63
g3526
sg56
(lp3533
g49
(g50
g51
NtRp3534
(dp3535
g54
(dp3536
g62
I4
ssg63
g3530
sg56
(lp3537
S'/parleyweb/static/js/web2py.js'
p3538
asbasbasbag49
(g65
g51
NtRp3539
(dp3540
g54
(dp3541
sg63
g3483
sg56
(lp3542
g49
(g70
g51
NtRp3543
(dp3544
g54
(dp3545
sg63
g3539
sg56
(lp3546
g49
(g50
g51
NtRp3547
(dp3548
g54
(dp3549
g62
I4
ssg63
g3543
sg56
(lp3550
S'/parleyweb/static/css/bootstrap.css'
p3551
asbasbasbag49
(g65
g51
NtRp3552
(dp3553
g54
(dp3554
sg63
g3483
sg56
(lp3555
g49
(g70
g51
NtRp3556
(dp3557
g54
(dp3558
sg63
g3552
sg56
(lp3559
g49
(g50
g51
NtRp3560
(dp3561
g54
(dp3562
g62
I4
ssg63
g3556
sg56
(lp3563
S'/parleyweb/static/js/bootstrap.js'
p3564
asbasbasbag49
(g65
g51
NtRp3565
(dp3566
g54
(dp3567
sg63
g3483
sg56
(lp3568
g49
(g70
g51
NtRp3569
(dp3570
g54
(dp3571
sg63
g3565
sg56
(lp3572
g49
(g50
g51
NtRp3573
(dp3574
g54
(dp3575
g62
I4
ssg63
g3569
sg56
(lp3576
S'/parleyweb/static/js/jquery.tokeninput.js'
p3577
asbasbasbag49
(g65
g51
NtRp3578
(dp3579
g54
(dp3580
sg63
g3483
sg56
(lp3581
g49
(g70
g51
NtRp3582
(dp3583
g54
(dp3584
sg63
g3578
sg56
(lp3585
g49
(g50
g51
NtRp3586
(dp3587
g54
(dp3588
g62
I4
ssg63
g3582
sg56
(lp3589
S'/parleyweb/static/css/parleyweb.css'
p3590
asbasbasbag49
(g65
g51
NtRp3591
(dp3592
g54
(dp3593
sg63
g3483
sg56
(lp3594
g49
(g70
g51
NtRp3595
(dp3596
g54
(dp3597
sg63
g3591
sg56
(lp3598
g49
(g50
g51
NtRp3599
(dp3600
g54
(dp3601
g62
I4
ssg63
g3595
sg56
(lp3602
S'/parleyweb/static/css/jqtransform.css'
p3603
asbasbasbag49
(g65
g51
NtRp3604
(dp3605
g54
(dp3606
sg63
g3483
sg56
(lp3607
g49
(g70
g51
NtRp3608
(dp3609
g54
(dp3610
sg63
g3604
sg56
(lp3611
g49
(g50
g51
NtRp3612
(dp3613
g54
(dp3614
g62
I4
ssg63
g3608
sg56
(lp3615
S'/parleyweb/static/js/parleyweb.js'
p3616
asbasbasbag49
(g65
g51
NtRp3617
(dp3618
g54
(dp3619
sg63
g3483
sg56
(lp3620
g49
(g70
g51
NtRp3621
(dp3622
g54
(dp3623
sg63
g3617
sg56
(lp3624
g49
(g50
g51
NtRp3625
(dp3626
g54
(dp3627
g62
I4
ssg63
g3621
sg56
(lp3628
S'/parleyweb/static/js/jquery.jqtransform.js'
p3629
asbasbasbasbasbasbasbag49
(g65
g51
NtRp3630
(dp3631
g54
(dp3632
sg63
g3197
sg56
(lp3633
g49
(g70
g51
NtRp3634
(dp3635
g54
(dp3636
g74
g75
ssg63
g3630
sg56
(lp3637
S'flash'
p3638
asbag49
(g70
g51
NtRp3639
(dp3640
g54
(dp3641
g81
g82
ssg63
g3630
sg56
(lp3642
S':'
asbag49
(g70
g51
NtRp3643
(dp3644
g54
(dp3645
sg63
g3630
sg56
(lp3646
g49
(g50
g51
NtRp3647
(dp3648
g54
(dp3649
g62
I5
ssg63
g3643
sg56
(lp3650
S''
asbasbasbag49
(g65
g51
NtRp3651
(dp3652
g54
(dp3653
sg63
g3197
sg56
(lp3654
g49
(g70
g51
NtRp3655
(dp3656
g54
(dp3657
g74
g75
ssg63
g3651
sg56
(lp3658
S'generic_patterns'
p3659
asbag49
(g70
g51
NtRp3660
(dp3661
g54
(dp3662
g81
g82
ssg63
g3651
sg56
(lp3663
S':'
asbag49
(g70
g51
NtRp3664
(dp3665
g54
(dp3666
sg63
g3651
sg56
(lp3667
g49
(g50
g51
NtRp3668
(dp3669
g54
(dp3670
g62
I5
ssg63
g3664
sg56
(lp3671
g49
(g58
g51
NtRp3672
(dp3673
g54
(dp3674
g62
I4
ssg63
Nsg56
(lp3675
g49
(g65
g51
NtRp3676
(dp3677
g54
(dp3678
sg63
g3672
sg56
(lp3679
g49
(g70
g51
NtRp3680
(dp3681
g54
(dp3682
sg63
g3676
sg56
(lp3683
g49
(g50
g51
NtRp3684
(dp3685
g54
(dp3686
g62
I4
ssg63
g3680
sg56
(lp3687
S'*'
asbasbasbasbasbasbasbag49
(g65
g51
NtRp3688
(dp3689
g54
(dp3690
sg63
g3197
sg56
(lp3691
g49
(g70
g51
NtRp3692
(dp3693
g54
(dp3694
g74
g75
ssg63
g3688
sg56
(lp3695
S'headers'
p3696
asbag49
(g70
g51
NtRp3697
(dp3698
g54
(dp3699
g81
g82
ssg63
g3688
sg56
(lp3700
S':'
asbag49
(g70
g51
NtRp3701
(dp3702
g54
(dp3703
sg63
g3688
sg56
(lp3704
g49
(g50
g51
NtRp3705
(dp3706
g54
(dp3707
g62
I5
ssg63
g3701
sg56
(lp3708
g49
(g58
g51
NtRp3709
(dp3710
g54
(dp3711
g62
I4
ssg63
Nsg56
(lp3712
g49
(g65
g51
NtRp3713
(dp3714
g54
(dp3715
sg63
g3709
sg56
(lp3716
g49
(g70
g51
NtRp3717
(dp3718
g54
(dp3719
g74
g75
ssg63
g3713
sg56
(lp3720
S'Cache-Control'
p3721
asbag49
(g70
g51
NtRp3722
(dp3723
g54
(dp3724
g81
g82
ssg63
g3713
sg56
(lp3725
S':'
asbag49
(g70
g51
NtRp3726
(dp3727
g54
(dp3728
sg63
g3713
sg56
(lp3729
g49
(g50
g51
NtRp3730
(dp3731
g54
(dp3732
g62
I4
ssg63
g3726
sg56
(lp3733
S'no-store, no-cache, must-revalidate, post-check=0, pre-check=0'
p3734
asbasbasbag49
(g65
g51
NtRp3735
(dp3736
g54
(dp3737
sg63
g3709
sg56
(lp3738
g49
(g70
g51
NtRp3739
(dp3740
g54
(dp3741
g74
g75
ssg63
g3735
sg56
(lp3742
S'Content-Type'
p3743
asbag49
(g70
g51
NtRp3744
(dp3745
g54
(dp3746
g81
g82
ssg63
g3735
sg56
(lp3747
S':'
asbag49
(g70
g51
NtRp3748
(dp3749
g54
(dp3750
sg63
g3735
sg56
(lp3751
g49
(g50
g51
NtRp3752
(dp3753
g54
(dp3754
g62
I4
ssg63
g3748
sg56
(lp3755
S'text/html; charset=utf-8'
p3756
asbasbasbag49
(g65
g51
NtRp3757
(dp3758
g54
(dp3759
sg63
g3709
sg56
(lp3760
g49
(g70
g51
NtRp3761
(dp3762
g54
(dp3763
g74
g75
ssg63
g3757
sg56
(lp3764
S'Expires'
p3765
asbag49
(g70
g51
NtRp3766
(dp3767
g54
(dp3768
g81
g82
ssg63
g3757
sg56
(lp3769
S':'
asbag49
(g70
g51
NtRp3770
(dp3771
g54
(dp3772
sg63
g3757
sg56
(lp3773
g49
(g50
g51
NtRp3774
(dp3775
g54
(dp3776
g62
I4
ssg63
g3770
sg56
(lp3777
S'Tue, 13 Mar 2012 01:10:07 GMT'
p3778
asbasbasbag49
(g65
g51
NtRp3779
(dp3780
g54
(dp3781
sg63
g3709
sg56
(lp3782
g49
(g70
g51
NtRp3783
(dp3784
g54
(dp3785
g74
g75
ssg63
g3779
sg56
(lp3786
S'Pragma'
p3787
asbag49
(g70
g51
NtRp3788
(dp3789
g54
(dp3790
g81
g82
ssg63
g3779
sg56
(lp3791
S':'
asbag49
(g70
g51
NtRp3792
(dp3793
g54
(dp3794
sg63
g3779
sg56
(lp3795
g49
(g50
g51
NtRp3796
(dp3797
g54
(dp3798
g62
I4
ssg63
g3792
sg56
(lp3799
S'no-cache'
p3800
asbasbasbag49
(g65
g51
NtRp3801
(dp3802
g54
(dp3803
sg63
g3709
sg56
(lp3804
g49
(g70
g51
NtRp3805
(dp3806
g54
(dp3807
g74
g75
ssg63
g3801
sg56
(lp3808
S'X-Powered-By'
p3809
asbag49
(g70
g51
NtRp3810
(dp3811
g54
(dp3812
g81
g82
ssg63
g3801
sg56
(lp3813
S':'
asbag49
(g70
g51
NtRp3814
(dp3815
g54
(dp3816
sg63
g3801
sg56
(lp3817
g49
(g50
g51
NtRp3818
(dp3819
g54
(dp3820
g62
I4
ssg63
g3814
sg56
(lp3821
S'web2py'
p3822
asbasbasbasbasbasbasbag49
(g65
g51
NtRp3823
(dp3824
g54
(dp3825
sg63
g3197
sg56
(lp3826
g49
(g70
g51
NtRp3827
(dp3828
g54
(dp3829
g74
g75
ssg63
g3823
sg56
(lp3830
S'menu'
p3831
asbag49
(g70
g51
NtRp3832
(dp3833
g54
(dp3834
g81
g82
ssg63
g3823
sg56
(lp3835
S':'
asbag49
(g70
g51
NtRp3836
(dp3837
g54
(dp3838
sg63
g3823
sg56
(lp3839
g49
(g50
g51
NtRp3840
(dp3841
g54
(dp3842
g62
I5
ssg63
g3836
sg56
(lp3843
g49
(g58
g51
NtRp3844
(dp3845
g54
(dp3846
g62
I4
ssg63
Nsg56
(lp3847
g49
(g65
g51
NtRp3848
(dp3849
g54
(dp3850
sg63
g3844
sg56
(lp3851
g49
(g70
g51
NtRp3852
(dp3853
g54
(dp3854
sg63
g3848
sg56
(lp3855
g49
(g50
g51
NtRp3856
(dp3857
g54
(dp3858
g62
I4
ssg63
g3852
sg56
(lp3859
g49
(g58
g51
NtRp3860
(dp3861
g54
(dp3862
g62
I3
ssg63
Nsg56
(lp3863
g49
(g65
g51
NtRp3864
(dp3865
g54
(dp3866
sg63
g3860
sg56
(lp3867
g49
(g70
g51
NtRp3868
(dp3869
g54
(dp3870
sg63
g3864
sg56
(lp3871
g49
(g50
g51
NtRp3872
(dp3873
g54
(dp3874
g62
I3
ssg63
g3868
sg56
(lp3875
cgluon.languages
lazyT_unpickle
p3876
(S't\x04\x00\x00\x00Home'
tRp3877
asbasbasbag49
(g65
g51
NtRp3878
(dp3879
g54
(dp3880
sg63
g3860
sg56
(lp3881
g49
(g70
g51
NtRp3882
(dp3883
g54
(dp3884
sg63
g3878
sg56
(lp3885
g49
(g50
g51
NtRp3886
(dp3887
g54
(dp3888
g62
I3
ssg63
g3882
sg56
(lp3889
g92
asbasbasbag49
(g65
g51
NtRp3890
(dp3891
g54
(dp3892
sg63
g3860
sg56
(lp3893
g49
(g70
g51
NtRp3894
(dp3895
g54
(dp3896
sg63
g3890
sg56
(lp3897
g49
(g50
g51
NtRp3898
(dp3899
g54
(dp3900
g62
I3
ssg63
g3894
sg56
(lp3901
S'/parleyweb/default/index'
p3902
asbasbasbag49
(g65
g51
NtRp3903
(dp3904
g54
(dp3905
sg63
g3860
sg56
(lp3906
g49
(g70
g51
NtRp3907
(dp3908
g54
(dp3909
sg63
g3903
sg56
(lp3910
g49
(g50
g51
NtRp3911
(dp3912
g54
(dp3913
g62
I3
ssg63
g3907
sg56
(lp3914
g49
(g58
g51
NtRp3915
(dp3916
g54
(dp3917
g62
I2
ssg63
Nsg56
(lp3918
sbasbasbasbasbasbasbasbasbasbasbasbag49
(g65
g51
NtRp3919
(dp3920
g54
(dp3921
sg63
g3197
sg56
(lp3922
g49
(g70
g51
NtRp3923
(dp3924
g54
(dp3925
g74
g75
ssg63
g3919
sg56
(lp3926
S'meta'
p3927
asbag49
(g70
g51
NtRp3928
(dp3929
g54
(dp3930
g81
g82
ssg63
g3919
sg56
(lp3931
S':'
asbag49
(g70
g51
NtRp3932
(dp3933
g54
(dp3934
sg63
g3919
sg56
(lp3935
g49
(g50
g51
NtRp3936
(dp3937
g54
(dp3938
g62
I5
ssg63
g3932
sg56
(lp3939
g49
(g58
g51
NtRp3940
(dp3941
g54
(dp3942
g62
I4
ssg63
Nsg56
(lp3943
g49
(g65
g51
NtRp3944
(dp3945
g54
(dp3946
sg63
g3940
sg56
(lp3947
g49
(g70
g51
NtRp3948
(dp3949
g54
(dp3950
g74
g75
ssg63
g3944
sg56
(lp3951
S'author'
p3952
asbag49
(g70
g51
NtRp3953
(dp3954
g54
(dp3955
g81
g82
ssg63
g3944
sg56
(lp3956
S':'
asbag49
(g70
g51
NtRp3957
(dp3958
g54
(dp3959
sg63
g3944
sg56
(lp3960
g49
(g50
g51
NtRp3961
(dp3962
g54
(dp3963
g62
I4
ssg63
g3957
sg56
(lp3964
S'Your Name <you@example.com>'
p3965
asbasbasbag49
(g65
g51
NtRp3966
(dp3967
g54
(dp3968
sg63
g3940
sg56
(lp3969
g49
(g70
g51
NtRp3970
(dp3971
g54
(dp3972
g74
g75
ssg63
g3966
sg56
(lp3973
S'copyright'
p3974
asbag49
(g70
g51
NtRp3975
(dp3976
g54
(dp3977
g81
g82
ssg63
g3966
sg56
(lp3978
S':'
asbag49
(g70
g51
NtRp3979
(dp3980
g54
(dp3981
sg63
g3966
sg56
(lp3982
g49
(g50
g51
NtRp3983
(dp3984
g54
(dp3985
g62
I4
ssg63
g3979
sg56
(lp3986
S'Copyright 2011'
p3987
asbasbasbag49
(g65
g51
NtRp3988
(dp3989
g54
(dp3990
sg63
g3940
sg56
(lp3991
g49
(g70
g51
NtRp3992
(dp3993
g54
(dp3994
g74
g75
ssg63
g3988
sg56
(lp3995
S'description'
p3996
asbag49
(g70
g51
NtRp3997
(dp3998
g54
(dp3999
g81
g82
ssg63
g3988
sg56
(lp4000
S':'
asbag49
(g70
g51
NtRp4001
(dp4002
g54
(dp4003
sg63
g3988
sg56
(lp4004
g49
(g50
g51
NtRp4005
(dp4006
g54
(dp4007
g62
I4
ssg63
g4001
sg56
(lp4008
S'a cool new app'
p4009
asbasbasbag49
(g65
g51
NtRp4010
(dp4011
g54
(dp4012
sg63
g3940
sg56
(lp4013
g49
(g70
g51
NtRp4014
(dp4015
g54
(dp4016
g74
g75
ssg63
g4010
sg56
(lp4017
S'generator'
p4018
asbag49
(g70
g51
NtRp4019
(dp4020
g54
(dp4021
g81
g82
ssg63
g4010
sg56
(lp4022
S':'
asbag49
(g70
g51
NtRp4023
(dp4024
g54
(dp4025
sg63
g4010
sg56
(lp4026
g49
(g50
g51
NtRp4027
(dp4028
g54
(dp4029
g62
I4
ssg63
g4023
sg56
(lp4030
S'Web2py Web Framework'
p4031
asbasbasbag49
(g65
g51
NtRp4032
(dp4033
g54
(dp4034
sg63
g3940
sg56
(lp4035
g49
(g70
g51
NtRp4036
(dp4037
g54
(dp4038
g74
g75
ssg63
g4032
sg56
(lp4039
S'keywords'
p4040
asbag49
(g70
g51
NtRp4041
(dp4042
g54
(dp4043
g81
g82
ssg63
g4032
sg56
(lp4044
S':'
asbag49
(g70
g51
NtRp4045
(dp4046
g54
(dp4047
sg63
g4032
sg56
(lp4048
g49
(g50
g51
NtRp4049
(dp4050
g54
(dp4051
g62
I4
ssg63
g4045
sg56
(lp4052
S'web2py, python, framework'
p4053
asbasbasbasbasbasbasbag49
(g65
g51
NtRp4054
(dp4055
g54
(dp4056
sg63
g3197
sg56
(lp4057
g49
(g70
g51
NtRp4058
(dp4059
g54
(dp4060
g74
g75
ssg63
g4054
sg56
(lp4061
S'postprocessing'
p4062
asbag49
(g70
g51
NtRp4063
(dp4064
g54
(dp4065
g81
g82
ssg63
g4054
sg56
(lp4066
S':'
asbag49
(g70
g51
NtRp4067
(dp4068
g54
(dp4069
sg63
g4054
sg56
(lp4070
g49
(g50
g51
NtRp4071
(dp4072
g54
(dp4073
g62
I5
ssg63
g4067
sg56
(lp4074
g49
(g58
g51
NtRp4075
(dp4076
g54
(dp4077
g62
I4
ssg63
Nsg56
(lp4078
sbasbasbasbag49
(g65
g51
NtRp4079
(dp4080
g54
(dp4081
sg63
g3197
sg56
(lp4082
g49
(g70
g51
NtRp4083
(dp4084
g54
(dp4085
g74
g75
ssg63
g4079
sg56
(lp4086
S'session_file'
p4087
asbag49
(g70
g51
NtRp4088
(dp4089
g54
(dp4090
g81
g82
ssg63
g4079
sg56
(lp4091
S':'
asbag49
(g70
g51
NtRp4092
(dp4093
g54
(dp4094
sg63
g4079
sg56
(lp4095
g49
(g50
g51
NtRp4096
(dp4097
g54
(dp4098
g62
I5
ssg63
g4092
sg56
(lp4099
S"<open file 'D:\\Dise\xf1o Web\\Proyectos\\Parleyweb\\web2py\\applications\\parleyweb\\sessions\\127.0.0.1-2049810e-c086-402c-857f-06991c56216c', mode 'rb+' at 0x06787218>"
p4100
asbasbasbag49
(g65
g51
NtRp4101
(dp4102
g54
(dp4103
sg63
g3197
sg56
(lp4104
g49
(g70
g51
NtRp4105
(dp4106
g54
(dp4107
g74
g75
ssg63
g4101
sg56
(lp4108
S'session_filename'
p4109
asbag49
(g70
g51
NtRp4110
(dp4111
g54
(dp4112
g81
g82
ssg63
g4101
sg56
(lp4113
S':'
asbag49
(g70
g51
NtRp4114
(dp4115
g54
(dp4116
sg63
g4101
sg56
(lp4117
g49
(g50
g51
NtRp4118
(dp4119
g54
(dp4120
g62
I5
ssg63
g4114
sg56
(lp4121
S'D:\\Dise\xf1o Web\\Proyectos\\Parleyweb\\web2py\\applications\\parleyweb\\sessions\\127.0.0.1-2049810e-c086-402c-857f-06991c56216c'
p4122
asbasbasbag49
(g65
g51
NtRp4123
(dp4124
g54
(dp4125
sg63
g3197
sg56
(lp4126
g49
(g70
g51
NtRp4127
(dp4128
g54
(dp4129
g74
g75
ssg63
g4123
sg56
(lp4130
S'session_id'
p4131
asbag49
(g70
g51
NtRp4132
(dp4133
g54
(dp4134
g81
g82
ssg63
g4123
sg56
(lp4135
S':'
asbag49
(g70
g51
NtRp4136
(dp4137
g54
(dp4138
sg63
g4123
sg56
(lp4139
g49
(g50
g51
NtRp4140
(dp4141
g54
(dp4142
g62
I5
ssg63
g4136
sg56
(lp4143
S'127.0.0.1-2049810e-c086-402c-857f-06991c56216c'
p4144
asbasbasbag49
(g65
g51
NtRp4145
(dp4146
g54
(dp4147
sg63
g3197
sg56
(lp4148
g49
(g70
g51
NtRp4149
(dp4150
g54
(dp4151
g74
g75
ssg63
g4145
sg56
(lp4152
S'session_id_name'
p4153
asbag49
(g70
g51
NtRp4154
(dp4155
g54
(dp4156
g81
g82
ssg63
g4145
sg56
(lp4157
S':'
asbag49
(g70
g51
NtRp4158
(dp4159
g54
(dp4160
sg63
g4145
sg56
(lp4161
g49
(g50
g51
NtRp4162
(dp4163
g54
(dp4164
g62
I5
ssg63
g4158
sg56
(lp4165
g3254
asbasbasbag49
(g65
g51
NtRp4166
(dp4167
g54
(dp4168
sg63
g3197
sg56
(lp4169
g49
(g70
g51
NtRp4170
(dp4171
g54
(dp4172
g74
g75
ssg63
g4166
sg56
(lp4173
S'session_locked'
p4174
asbag49
(g70
g51
NtRp4175
(dp4176
g54
(dp4177
g81
g82
ssg63
g4166
sg56
(lp4178
S':'
asbag49
(g70
g51
NtRp4179
(dp4180
g54
(dp4181
sg63
g4166
sg56
(lp4182
g49
(g50
g51
NtRp4183
(dp4184
g54
(dp4185
g62
I5
ssg63
g4179
sg56
(lp4186
g1771
asbasbasbag49
(g65
g51
NtRp4187
(dp4188
g54
(dp4189
sg63
g3197
sg56
(lp4190
g49
(g70
g51
NtRp4191
(dp4192
g54
(dp4193
g74
g75
ssg63
g4187
sg56
(lp4194
S'session_new'
p4195
asbag49
(g70
g51
NtRp4196
(dp4197
g54
(dp4198
g81
g82
ssg63
g4187
sg56
(lp4199
S':'
asbag49
(g70
g51
NtRp4200
(dp4201
g54
(dp4202
sg63
g4187
sg56
(lp4203
g49
(g50
g51
NtRp4204
(dp4205
g54
(dp4206
g62
I5
ssg63
g4200
sg56
(lp4207
g92
asbasbasbag49
(g65
g51
NtRp4208
(dp4209
g54
(dp4210
sg63
g3197
sg56
(lp4211
g49
(g70
g51
NtRp4212
(dp4213
g54
(dp4214
g74
g75
ssg63
g4208
sg56
(lp4215
S'status'
p4216
asbag49
(g70
g51
NtRp4217
(dp4218
g54
(dp4219
g81
g82
ssg63
g4208
sg56
(lp4220
S':'
asbag49
(g70
g51
NtRp4221
(dp4222
g54
(dp4223
sg63
g4208
sg56
(lp4224
g49
(g50
g51
NtRp4225
(dp4226
g54
(dp4227
g62
I5
ssg63
g4221
sg56
(lp4228
S'200'
p4229
asbasbasbag49
(g65
g51
NtRp4230
(dp4231
g54
(dp4232
sg63
g3197
sg56
(lp4233
g49
(g70
g51
NtRp4234
(dp4235
g54
(dp4236
g74
g75
ssg63
g4230
sg56
(lp4237
S'subtitle'
p4238
asbag49
(g70
g51
NtRp4239
(dp4240
g54
(dp4241
g81
g82
ssg63
g4230
sg56
(lp4242
S':'
asbag49
(g70
g51
NtRp4243
(dp4244
g54
(dp4245
sg63
g4230
sg56
(lp4246
g49
(g50
g51
NtRp4247
(dp4248
g54
(dp4249
g62
I5
ssg63
g4243
sg56
(lp4250
g3876
(S's\t\x00\x00\x00Adaptame!'
tRp4251
asbasbasbag49
(g65
g51
NtRp4252
(dp4253
g54
(dp4254
sg63
g3197
sg56
(lp4255
g49
(g70
g51
NtRp4256
(dp4257
g54
(dp4258
g74
g75
ssg63
g4252
sg56
(lp4259
S'title'
p4260
asbag49
(g70
g51
NtRp4261
(dp4262
g54
(dp4263
g81
g82
ssg63
g4252
sg56
(lp4264
S':'
asbag49
(g70
g51
NtRp4265
(dp4266
g54
(dp4267
sg63
g4252
sg56
(lp4268
g49
(g50
g51
NtRp4269
(dp4270
g54
(dp4271
g62
I5
ssg63
g4265
sg56
(lp4272
S'Parleyweb'
p4273
asbasbasbag49
(g65
g51
NtRp4274
(dp4275
g54
(dp4276
sg63
g3197
sg56
(lp4277
g49
(g70
g51
NtRp4278
(dp4279
g54
(dp4280
g74
g75
ssg63
g4274
sg56
(lp4281
g2435
asbag49
(g70
g51
NtRp4282
(dp4283
g54
(dp4284
g81
g82
ssg63
g4274
sg56
(lp4285
S':'
asbag49
(g70
g51
NtRp4286
(dp4287
g54
(dp4288
sg63
g4274
sg56
(lp4289
g49
(g50
g51
NtRp4290
(dp4291
g54
(dp4292
g62
I5
ssg63
g4286
sg56
(lp4293
g2448
asbasbasbag49
(g65
g51
NtRp4294
(dp4295
g54
(dp4296
sg63
g3197
sg56
(lp4297
g49
(g70
g51
NtRp4298
(dp4299
g54
(dp4300
g74
g75
ssg63
g4294
sg56
(lp4301
S'view'
p4302
asbag49
(g70
g51
NtRp4303
(dp4304
g54
(dp4305
g81
g82
ssg63
g4294
sg56
(lp4306
S':'
asbag49
(g70
g51
NtRp4307
(dp4308
g54
(dp4309
sg63
g4294
sg56
(lp4310
g49
(g50
g51
NtRp4311
(dp4312
g54
(dp4313
g62
I5
ssg63
g4307
sg56
(lp4314
S'admin/agregar_palabra.html'
p4315
asbasbasbasbasbsS'locals'
p4316
(dp4317
S'Service'
p4318
S"<class 'gluon.tools.Service'>"
p4319
sS'OBJECT'
p4320
S"<class 'gluon.html.OBJECT'>"
p4321
sS'SQLDB'
p4322
S"<class 'gluon.dal.DAL'>"
p4323
sg3157
S"<Storage {'_formkey[palabras/create]': '316331b0...xc9\\xda\\xc9L\\xfa\\t\\xd49#\\x87X{\\x13\\x9c\\xc0\\xe9'}>"
p4324
sS'LINK'
p4325
S"<class 'gluon.html.LINK'>"
p4326
sS'BR'
p4327
S"<class 'gluon.html.BR'>"
p4328
sS'local_import'
p4329
S'<function <lambda> at 0x068C3430>'
p4330
sS'OPTGROUP'
p4331
S"<class 'gluon.html.OPTGROUP'>"
p4332
sS'PRE'
p4333
S"<class 'gluon.html.PRE'>"
p4334
sS'IS_INT_IN_RANGE'
p4335
S"<class 'gluon.validators.IS_INT_IN_RANGE'>"
p4336
sS'left_sidebar_enabled'
p4337
g92
sS'IS_LOWER'
p4338
S"<class 'gluon.validators.IS_LOWER'>"
p4339
sS'IS_STRONG'
p4340
S"<class 'gluon.validators.IS_STRONG'>"
p4341
sS'cache'
p4342
S'<gluon.cache.Cache object at 0x06B3E790>'
p4343
sS'IS_IN_DB'
p4344
S"<class 'gluon.validators.IS_IN_DB'>"
p4345
sS'TAG'
p4346
S'<gluon.html.__TAG__ object at 0x028FCD50>'
p4347
sS'SQLField'
p4348
S"<class 'gluon.dal.Field'>"
p4349
sS'mail'
p4350
S'<gluon.tools.Mail object at 0x06968A50>'
p4351
sS'BODY'
p4352
S"<class 'gluon.html.BODY'>"
p4353
sS'IS_DATE_IN_RANGE'
p4354
S"<class 'gluon.validators.IS_DATE_IN_RANGE'>"
p4355
sS'TH'
p4356
S"<class 'gluon.html.TH'>"
p4357
sS'URL'
p4358
S'<function URL at 0x02938EB0>'
p4359
sS'__file__'
p4360
S"'D:\\\\Dise\\xf1o Web\\\\Proyectos\\\\Parleyweb\\\\web2py\\\\applications\\\\parleyweb\\\\views\\\\admin/agregar_palabra.html'"
p4361
sS'db'
p4362
S"<DAL {'auth_event': <Table {'origin': <gluon.dal..._key': <gluon.dal.Field object at 0x069682B0>}>}>"
p4363
sS'auth'
p4364
S'<gluon.tools.Auth object at 0x069689F0>'
p4365
sS'P'
S"<class 'gluon.html.P'>"
p4366
sS'contador'
p4367
S'10'
p4368
sS'TFOOT'
p4369
S"<class 'gluon.html.TFOOT'>"
p4370
sS'XHTML'
p4371
S"<class 'gluon.html.XHTML'>"
p4372
sS'ON'
p4373
g1771
sS'OL'
p4374
S"<class 'gluon.html.OL'>"
p4375
sS'TEXTAREA'
p4376
S"<class 'gluon.html.TEXTAREA'>"
p4377
sS'MENU'
p4378
S"<class 'gluon.html.MENU'>"
p4379
sS'LOAD'
p4380
S'<function LOAD at 0x02C217B0>'
p4381
sS'CODE'
p4382
S"<class 'gluon.html.CODE'>"
p4383
sS'HTTP'
p4384
S"<class 'gluon.http.HTTP'>"
p4385
sS'HR'
p4386
S"<class 'gluon.html.HR'>"
p4387
sS'IS_DATETIME'
p4388
S"<class 'gluon.validators.IS_DATETIME'>"
p4389
sS'HEAD'
p4390
S"<class 'gluon.html.HEAD'>"
p4391
sS'LABEL'
p4392
S"<class 'gluon.html.LABEL'>"
p4393
sS'CLEANUP'
p4394
S"<class 'gluon.validators.CLEANUP'>"
p4395
sS'plugins'
p4396
S'<gluon.tools.PluginManager object at 0x033E1ED0>'
p4397
sS'SELECT'
p4398
S"<class 'gluon.html.SELECT'>"
p4399
sS'use_janrain'
p4400
S'<function use_janrain at 0x033DFAB0>'
p4401
sS'CENTER'
p4402
S"<class 'gluon.html.CENTER'>"
p4403
sS'prettydate'
p4404
S'<function prettydate at 0x033DF0F0>'
p4405
sS'Crud'
p4406
S"<class 'gluon.tools.Crud'>"
p4407
sS'Auth'
p4408
S"<class 'gluon.tools.Auth'>"
p4409
sS'__builtins__'
p4410
S"{'ArithmeticError': <type 'exceptions.ArithmeticError'>, 'AssertionError': <type 'exceptions.AssertionError'>, 'AttributeError': <type 'exceptions.AttributeError'>, 'BaseException': <type 'exceptions.BaseException'>, 'DeprecationWarning': <type 'exceptions.DeprecationWarning'>, 'EOFError': <type 'exceptions.EOFError'>, 'Ellipsis': Ellipsis, 'EnvironmentError': <type 'exceptions.EnvironmentError'>, 'Exception': <type 'exceptions.Exception'>, 'False': False, ...}"
p4411
sS'HTML'
p4412
S"<class 'gluon.html.HTML'>"
p4413
sS'SQLFORM'
p4414
S"<class 'gluon.sqlhtml.SQLFORM'>"
p4415
sS'EM'
p4416
S"<class 'gluon.html.EM'>"
p4417
sS'redirect'
p4418
S'<function redirect at 0x0257BB70>'
p4419
sS'FIELDSET'
p4420
S"<class 'gluon.html.FIELDSET'>"
p4421
sS'IS_EQUAL_TO'
p4422
S"<class 'gluon.validators.IS_EQUAL_TO'>"
p4423
sS'embed64'
p4424
S'<function embed64 at 0x029479F0>'
p4425
sS'IS_LIST_OF'
p4426
S"<class 'gluon.validators.IS_LIST_OF'>"
p4427
sS'__name__'
p4428
S"'__restricted__'"
p4429
sS'EMBED'
p4430
S"<class 'gluon.html.EMBED'>"
p4431
sS'_'
S'<function _ at 0x068B38B0>'
p4432
sS'FORM'
p4433
S"<class 'gluon.html.FORM'>"
p4434
sS'H2'
p4435
S"<class 'gluon.html.H2'>"
p4436
sS'H3'
p4437
S"<class 'gluon.html.H3'>"
p4438
sS'BUTTON'
p4439
S"<class 'gluon.html.BUTTON'>"
p4440
sS'H1'
p4441
S"<class 'gluon.html.H1'>"
p4442
sS'H6'
p4443
S"<class 'gluon.html.H6'>"
p4444
sS'H4'
p4445
S"<class 'gluon.html.H4'>"
p4446
sS'H5'
p4447
S"<class 'gluon.html.H5'>"
p4448
sS'UL'
p4449
S"<class 'gluon.html.UL'>"
p4450
sS'IS_UPPER'
p4451
S"<class 'gluon.validators.IS_UPPER'>"
p4452
sS'xmlescape'
p4453
S'<function xmlescape at 0x02938E30>'
p4454
sS'IS_TIME'
p4455
S"<class 'gluon.validators.IS_TIME'>"
p4456
sS'OPTION'
p4457
S"<class 'gluon.html.OPTION'>"
p4458
sS'TITLE'
p4459
S"<class 'gluon.html.TITLE'>"
p4460
sS'CRYPT'
p4461
S"<class 'gluon.validators.CRYPT'>"
p4462
sS'IS_EMPTY_OR'
p4463
S"<class 'gluon.validators.IS_EMPTY_OR'>"
p4464
sS'MARKMIN'
p4465
S"<class 'gluon.html.MARKMIN'>"
p4466
sS'INPUT'
p4467
S"<class 'gluon.html.INPUT'>"
p4468
sS'agregar'
p4469
S'<gluon.sqlhtml.SQLFORM object at 0x0697E5F0>'
p4470
sS'COL'
p4471
S"<class 'gluon.html.COL'>"
p4472
sS'service'
p4473
S'<gluon.tools.Service object at 0x06968030>'
p4474
sS'SCRIPT'
p4475
S"<class 'gluon.html.SCRIPT'>"
p4476
sS'TABLE'
p4477
S"<class 'gluon.html.TABLE'>"
p4478
sS'IS_IPV4'
p4479
S"<class 'gluon.validators.IS_IPV4'>"
p4480
sS'IS_LENGTH'
p4481
S"<class 'gluon.validators.IS_LENGTH'>"
p4482
sS'XML'
p4483
S"<class 'gluon.html.XML'>"
p4484
sS'B'
S"<class 'gluon.html.B'>"
p4485
sS'IMG'
p4486
S"<class 'gluon.html.IMG'>"
p4487
sS'SQLTABLE'
p4488
S"<class 'gluon.sqlhtml.SQLTABLE'>"
p4489
sS'IS_MATCH'
p4490
S"<class 'gluon.validators.IS_MATCH'>"
p4491
sS'IS_ALPHANUMERIC'
p4492
S"<class 'gluon.validators.IS_ALPHANUMERIC'>"
p4493
sS'SPAN'
p4494
S"<class 'gluon.html.SPAN'>"
p4495
sS'IS_SLUG'
p4496
S"<class 'gluon.validators.IS_SLUG'>"
p4497
sS'BEAUTIFY'
p4498
S"<class 'gluon.html.BEAUTIFY'>"
p4499
sS'META'
p4500
S"<class 'gluon.html.META'>"
p4501
sS'IS_DATE'
p4502
S"<class 'gluon.validators.IS_DATE'>"
p4503
sS'IS_EMAIL'
p4504
S"<class 'gluon.validators.IS_EMAIL'>"
p4505
sS'IS_NOT_EMPTY'
p4506
S"<class 'gluon.validators.IS_NOT_EMPTY'>"
p4507
sg48
S"<Storage {'body': <cStringIO.StringO object at 0..._vars': <Storage {}>, 'post_vars': <Storage {}>}>"
p4508
sS'TBODY'
p4509
S"<class 'gluon.html.TBODY'>"
p4510
sS'CAT'
p4511
S"<class 'gluon.html.CAT'>"
p4512
sS'Field'
p4513
S"<class 'gluon.dal.Field'>"
p4514
sS'middle_columns'
p4515
S"'sixteen'"
p4516
sS'consulta'
p4517
S'<gluon.dal.Rows object at 0x06705D70>'
p4518
sS'DIV'
p4519
S"<class 'gluon.html.DIV'>"
p4520
sS'LEGEND'
p4521
S"<class 'gluon.html.LEGEND'>"
p4522
sS'COLGROUP'
p4523
S"<class 'gluon.html.COLGROUP'>"
p4524
sS'DAL'
p4525
S"<class 'gluon.dal.DAL'>"
p4526
sS'TT'
p4527
S"<class 'gluon.html.TT'>"
p4528
sS'TR'
p4529
S"<class 'gluon.html.TR'>"
p4530
sS'LI'
p4531
S"<class 'gluon.html.LI'>"
p4532
sS'right_sidebar_enabled'
p4533
g92
sS'IFRAME'
p4534
S"<class 'gluon.html.IFRAME'>"
p4535
sS'TD'
p4536
S"<class 'gluon.html.TD'>"
p4537
sS'PluginManager'
p4538
S"<class 'gluon.tools.PluginManager'>"
p4539
sS'IS_URL'
p4540
S"<class 'gluon.validators.IS_URL'>"
p4541
sS'A'
S"<class 'gluon.html.A'>"
p4542
sS'STYLE'
p4543
S"<class 'gluon.html.STYLE'>"
p4544
sS'IS_DATETIME_IN_RANGE'
p4545
S"<class 'gluon.validators.IS_DATETIME_IN_RANGE'>"
p4546
sS'IS_IMAGE'
p4547
S"<class 'gluon.validators.IS_IMAGE'>"
p4548
sS'I'
S"<class 'gluon.html.I'>"
p4549
sS'crud'
p4550
S'<gluon.tools.Crud object at 0x06968A90>'
p4551
sS'IS_NOT_IN_DB'
p4552
S"<class 'gluon.validators.IS_NOT_IN_DB'>"
p4553
sg3192
S"<Storage {'body': <cStringIO.StringO object at 0...068C34B0>, 'view': 'admin/agregar_palabra.html'}>"
p4554
sS'THEAD'
p4555
S"<class 'gluon.html.THEAD'>"
p4556
sS'IS_NULL_OR'
p4557
S"<class 'gluon.validators.IS_EMPTY_OR'>"
p4558
sS'contador_ejemplo'
p4559
S'<gluon.dal.Rows object at 0x066F06B0>'
p4560
sS'i'
S"<Row {'presente_1': '', 'imagen': '', 'sustantiv...adir_glosario': False, 'verbo_irregular': False}>"
p4561
sS'IS_FLOAT_IN_RANGE'
p4562
S"<class 'gluon.validators.IS_FLOAT_IN_RANGE'>"
p4563
sS'IS_EXPR'
p4564
S"<class 'gluon.validators.IS_EXPR'>"
p4565
sS'T'
S'<gluon.languages.translator object at 0x0697AC70>'
p4566
sS'IS_IN_SET'
p4567
S"<class 'gluon.validators.IS_IN_SET'>"
p4568
sS'IS_UPLOAD_FILENAME'
p4569
S"<class 'gluon.validators.IS_UPLOAD_FILENAME'>"
p4570
sS'IS_DECIMAL_IN_RANGE'
p4571
S"<class 'gluon.validators.IS_DECIMAL_IN_RANGE'>"
p4572
sssS'traceback'
p4573
S'Traceback (most recent call last):\n  File "gluon/restricted.py", line 205, in restricted\n  File "D:\\Dise\xf1o Web\\Proyectos\\Parleyweb\\web2py\\applications\\parleyweb\\views\\admin/agregar_palabra.html", line 136, in <module>\nTypeError: URL() got an unexpected keyword argument \'raw_args\'\n'
p4574
s.