(dp1
S'nombre_glosario'
p2
(dp3
S'type'
p4
S'string'
p5
sS'sortable'
p6
I2
sS'sql'
p7
S'CHAR(512) UNIQUE'
p8
ssS'descripcion_glosario'
p9
(dp10
S'type'
p11
S'string'
p12
sS'sortable'
p13
I3
sS'sql'
p14
S'CHAR(512)'
p15
ssS'id'
p16
(dp17
g4
S'id'
p18
sg6
I1
sg7
S'INTEGER PRIMARY KEY AUTOINCREMENT'
p19
ss.