(dp1
S'beispiel_de'
p2
(dp3
S'type'
p4
S'text'
p5
sS'sortable'
p6
I2
sS'sql'
p7
S'TEXT'
p8
ssS'beispiel_es'
p9
(dp10
g4
g5
sg6
I3
sg7
S'TEXT'
p11
ssS'beispiele_de'
p12
(dp13
S'type'
p14
S'text'
p15
sS'sortable'
p16
I2
sS'sql'
p17
S'TEXT'
p18
ssS'beispiele_es'
p19
(dp20
g14
g15
sg16
I3
sg17
S'TEXT'
p21
ssS'beispielde'
p22
(dp23
S'sortable'
p24
I2
sS'type'
p25
S'string'
p26
sS'sql'
p27
S'CHAR(512)'
p28
ssS'id'
p29
(dp30
g4
S'id'
p31
sg6
I1
sg7
S'INTEGER PRIMARY KEY AUTOINCREMENT'
p32
ss.