(dp1
S'category'
p2
(dp3
S'type'
p4
S'string'
p5
sS'sortable'
p6
I3
sS'sql'
p7
S'CHAR(512)'
p8
ssS'colors'
p9
(dp10
S'type'
p11
S'list:string'
p12
sS'sortable'
p13
I3
sS'sql'
p14
S'TEXT'
p15
ssS'id'
p16
(dp17
g4
S'id'
p18
sg6
I1
sg7
S'INTEGER PRIMARY KEY AUTOINCREMENT'
p19
ssS'name'
p20
(dp21
g4
g5
sg6
I2
sg7
S'CHAR(512)'
p22
ss.